	.text
	.def	@feat.00;
	.scl	3;
	.type	0;
	.endef
	.globl	@feat.00
.set @feat.00, 0
	.file	"13q6mgcs6z2108uo"
	.def	_ZN100_$LT$proc_macro..bridge..client..TokenStream$u20$as$u20$proc_macro..bridge..rpc..Encode$LT$S$GT$$GT$6encode17h0fb0388997c8ece6E;
	.scl	3;
	.type	32;
	.endef
	.section	.text,"xr",one_only,_ZN100_$LT$proc_macro..bridge..client..TokenStream$u20$as$u20$proc_macro..bridge..rpc..Encode$LT$S$GT$$GT$6encode17h0fb0388997c8ece6E
	.p2align	4, 0x90
_ZN100_$LT$proc_macro..bridge..client..TokenStream$u20$as$u20$proc_macro..bridge..rpc..Encode$LT$S$GT$$GT$6encode17h0fb0388997c8ece6E:
.Lfunc_begin0:
	.cv_func_id 0
	.cv_file	1 "C:\\Users\\cires\\.rustup\\toolchains\\nightly-x86_64-pc-windows-msvc\\lib\\rustlib\\src\\rust\\library\\proc_macro\\src\\bridge\\client.rs" "A8DF4A0135D5CAB4811FC87B90B999E7E6B28A9D44F56E9A3088264CE51B3CAD" 3
	.cv_loc	0 1 67 0
.seh_proc _ZN100_$LT$proc_macro..bridge..client..TokenStream$u20$as$u20$proc_macro..bridge..rpc..Encode$LT$S$GT$$GT$6encode17h0fb0388997c8ece6E
	subq	$88, %rsp
	.seh_stackalloc 88
	.seh_endprologue
	movq	%rdx, 40(%rsp)
	movl	%ecx, %eax
	movq	40(%rsp), %rcx
	movl	%eax, 52(%rsp)
	movq	%rcx, 56(%rsp)
	movq	%r8, 64(%rsp)
.Ltmp0:
	.cv_loc	0 1 68 0
	movl	%eax, 76(%rsp)
.Ltmp1:
	.cv_loc	0 1 69 0
	movl	%eax, 80(%rsp)
.Ltmp2:
	.cv_file	2 "C:\\Users\\cires\\.rustup\\toolchains\\nightly-x86_64-pc-windows-msvc\\lib\\rustlib\\src\\rust\\library\\core\\src\\num\\nonzero.rs" "EE5166FBDEE598BCC20134D20587EDDCD6EF4EE6472FFAAAD988AAB705CB28AB" 3
	.cv_inline_site_id 1 within 0 inlined_at 1 70 0
	.cv_file	3 "C:\\Users\\cires\\.rustup\\toolchains\\nightly-x86_64-pc-windows-msvc\\lib\\rustlib\\src\\rust\\library\\proc_macro\\src\\bridge\\rpc.rs" "AABAAADD2A8B2F6CD663D09401F607C1A0AE6AA5AB248DD997F3B81CABEA97CA" 3
	.cv_inline_site_id 2 within 1 inlined_at 3 162 0
	.cv_loc	2 2 179 0
	movl	%eax, 84(%rsp)
.Ltmp3:
	.cv_file	4 "C:\\Users\\cires\\.rustup\\toolchains\\nightly-x86_64-pc-windows-msvc\\lib\\rustlib\\src\\rust\\library\\core\\src\\num\\mod.rs" "963EFD86260CAE4C44902FB397A89A8467EE528D73FC70E6D7BECA318147EF1E" 3
	.cv_inline_site_id 3 within 2 inlined_at 3 28 0
	.cv_file	5 "C:\\Users\\cires\\.rustup\\toolchains\\nightly-x86_64-pc-windows-msvc\\lib\\rustlib\\src\\rust\\library\\core\\src\\num\\uint_macros.rs" "08DFAE90F0B62C2D18EFED15F0D5BDFE559485B712E06DE1F34140E15CD7C788" 3
	.cv_inline_site_id 4 within 3 inlined_at 5 2369 0
	.cv_loc	4 4 1145 0
	movl	%eax, 48(%rsp)
.Ltmp4:
	.cv_loc	2 3 129 0
	leaq	48(%rsp), %rdx
	callq	_ZN10proc_macro6bridge6buffer6Buffer17extend_from_array17hc94648884bdc0e9aE
.Ltmp5:
	.cv_loc	0 1 71 0
	nop
	addq	$88, %rsp
	retq
.Ltmp6:
.Lfunc_end0:
	.seh_endproc

	.def	_ZN103_$LT$proc_macro..bridge..client..TokenStream$u20$as$u20$proc_macro..bridge..rpc..DecodeMut$LT$S$GT$$GT$6decode17h50dbd1fdf19806a8E;
	.scl	3;
	.type	32;
	.endef
	.section	.text,"xr",one_only,_ZN103_$LT$proc_macro..bridge..client..TokenStream$u20$as$u20$proc_macro..bridge..rpc..DecodeMut$LT$S$GT$$GT$6decode17h50dbd1fdf19806a8E
	.p2align	4, 0x90
_ZN103_$LT$proc_macro..bridge..client..TokenStream$u20$as$u20$proc_macro..bridge..rpc..DecodeMut$LT$S$GT$$GT$6decode17h50dbd1fdf19806a8E:
.Lfunc_begin1:
	.cv_func_id 5
	.cv_loc	5 1 122 0
.seh_proc _ZN103_$LT$proc_macro..bridge..client..TokenStream$u20$as$u20$proc_macro..bridge..rpc..DecodeMut$LT$S$GT$$GT$6decode17h50dbd1fdf19806a8E
	subq	$56, %rsp
	.seh_stackalloc 56
	.seh_endprologue
	movq	%rcx, 40(%rsp)
	movq	%rdx, 48(%rsp)
.Ltmp7:
	.cv_loc	5 1 124 0
	callq	_ZN94_$LT$core..num..nonzero..NonZeroU32$u20$as$u20$proc_macro..bridge..rpc..DecodeMut$LT$S$GT$$GT$6decode17h771419c866946b6bE
	.cv_loc	5 1 123 0
	movl	%eax, 36(%rsp)
	.cv_loc	5 1 127 0
	movl	36(%rsp), %eax
	addq	$56, %rsp
	retq
.Ltmp8:
.Lfunc_end1:
	.seh_endproc

	.def	_ZN107_$LT$proc_macro..bridge..ExpnGlobals$LT$Span$GT$$u20$as$u20$proc_macro..bridge..rpc..DecodeMut$LT$S$GT$$GT$6decode17h9b91045e0f80e633E;
	.scl	3;
	.type	32;
	.endef
	.section	.text,"xr",one_only,_ZN107_$LT$proc_macro..bridge..ExpnGlobals$LT$Span$GT$$u20$as$u20$proc_macro..bridge..rpc..DecodeMut$LT$S$GT$$GT$6decode17h9b91045e0f80e633E
	.p2align	4, 0x90
_ZN107_$LT$proc_macro..bridge..ExpnGlobals$LT$Span$GT$$u20$as$u20$proc_macro..bridge..rpc..DecodeMut$LT$S$GT$$GT$6decode17h9b91045e0f80e633E:
.Lfunc_begin2:
	.cv_func_id 6
	.cv_loc	6 3 54 0
.seh_proc _ZN107_$LT$proc_macro..bridge..ExpnGlobals$LT$Span$GT$$u20$as$u20$proc_macro..bridge..rpc..DecodeMut$LT$S$GT$$GT$6decode17h9b91045e0f80e633E
	.seh_handler __CxxFrameHandler3, @unwind, @except
	pushq	%rbp
	.seh_pushreg %rbp
	subq	$112, %rsp
	.seh_stackalloc 112
	leaq	112(%rsp), %rbp
	.seh_setframe %rbp, 112
	.seh_endprologue
	movq	$-2, -8(%rbp)
	movq	%r8, -40(%rbp)
	movq	%rdx, %rax
	movq	-40(%rbp), %rdx
	movq	%rax, -48(%rbp)
	movq	%rcx, %rax
	movq	-48(%rbp), %rcx
	movq	%rax, -64(%rbp)
	movq	%rax, -56(%rbp)
	movq	%rcx, -24(%rbp)
	movq	%rdx, -16(%rbp)
.Ltmp13:
	.cv_loc	6 3 56 0
	callq	_ZN96_$LT$proc_macro..bridge..client..Span$u20$as$u20$proc_macro..bridge..rpc..DecodeMut$LT$S$GT$$GT$6decode17ha7424ccdfb73591fE
	movq	-48(%rbp), %rcx
	movq	-40(%rbp), %rdx
	movl	%eax, -32(%rbp)
.Ltmp9:
	callq	_ZN96_$LT$proc_macro..bridge..client..Span$u20$as$u20$proc_macro..bridge..rpc..DecodeMut$LT$S$GT$$GT$6decode17ha7424ccdfb73591fE
.Ltmp10:
	movl	%eax, -28(%rbp)
	jmp	.LBB2_2
.LBB2_2:
.Ltmp11:
	movq	-40(%rbp), %rdx
	movq	-48(%rbp), %rcx
	callq	_ZN96_$LT$proc_macro..bridge..client..Span$u20$as$u20$proc_macro..bridge..rpc..DecodeMut$LT$S$GT$$GT$6decode17ha7424ccdfb73591fE
.Ltmp12:
	movl	%eax, -68(%rbp)
	jmp	.LBB2_4
.LBB2_4:
	.cv_loc	6 3 55 0
	movq	-56(%rbp), %rax
	movq	-64(%rbp), %rcx
	movl	-68(%rbp), %edx
	movl	-28(%rbp), %r8d
	movl	-32(%rbp), %r9d
	movl	%r9d, (%rcx)
	movl	%r8d, 4(%rcx)
	movl	%edx, 8(%rcx)
	.cv_loc	6 3 58 0
	addq	$112, %rsp
	popq	%rbp
	retq
	.seh_handlerdata
	.long	($cppxdata$_ZN107_$LT$proc_macro..bridge..ExpnGlobals$LT$Span$GT$$u20$as$u20$proc_macro..bridge..rpc..DecodeMut$LT$S$GT$$GT$6decode17h9b91045e0f80e633E)@IMGREL
	.section	.text,"xr",one_only,_ZN107_$LT$proc_macro..bridge..ExpnGlobals$LT$Span$GT$$u20$as$u20$proc_macro..bridge..rpc..DecodeMut$LT$S$GT$$GT$6decode17h9b91045e0f80e633E
	.seh_endproc
	.def	"?dtor$1@?0?_ZN107_$LT$proc_macro..bridge..ExpnGlobals$LT$Span$GT$$u20$as$u20$proc_macro..bridge..rpc..DecodeMut$LT$S$GT$$GT$6decode17h9b91045e0f80e633E@4HA";
	.scl	3;
	.type	32;
	.endef
	.p2align	4, 0x90
"?dtor$1@?0?_ZN107_$LT$proc_macro..bridge..ExpnGlobals$LT$Span$GT$$u20$as$u20$proc_macro..bridge..rpc..DecodeMut$LT$S$GT$$GT$6decode17h9b91045e0f80e633E@4HA":
.seh_proc "?dtor$1@?0?_ZN107_$LT$proc_macro..bridge..ExpnGlobals$LT$Span$GT$$u20$as$u20$proc_macro..bridge..rpc..DecodeMut$LT$S$GT$$GT$6decode17h9b91045e0f80e633E@4HA"
.LBB2_1:
	movq	%rdx, 16(%rsp)
	pushq	%rbp
	.seh_pushreg %rbp
	subq	$32, %rsp
	.seh_stackalloc 32
	leaq	112(%rdx), %rbp
	.seh_endprologue
	.cv_loc	6 3 54 0
	addq	$32, %rsp
	popq	%rbp
	retq
	.seh_handlerdata
	.section	.text,"xr",one_only,_ZN107_$LT$proc_macro..bridge..ExpnGlobals$LT$Span$GT$$u20$as$u20$proc_macro..bridge..rpc..DecodeMut$LT$S$GT$$GT$6decode17h9b91045e0f80e633E
	.seh_endproc
	.def	"?dtor$3@?0?_ZN107_$LT$proc_macro..bridge..ExpnGlobals$LT$Span$GT$$u20$as$u20$proc_macro..bridge..rpc..DecodeMut$LT$S$GT$$GT$6decode17h9b91045e0f80e633E@4HA";
	.scl	3;
	.type	32;
	.endef
	.p2align	4, 0x90
"?dtor$3@?0?_ZN107_$LT$proc_macro..bridge..ExpnGlobals$LT$Span$GT$$u20$as$u20$proc_macro..bridge..rpc..DecodeMut$LT$S$GT$$GT$6decode17h9b91045e0f80e633E@4HA":
.seh_proc "?dtor$3@?0?_ZN107_$LT$proc_macro..bridge..ExpnGlobals$LT$Span$GT$$u20$as$u20$proc_macro..bridge..rpc..DecodeMut$LT$S$GT$$GT$6decode17h9b91045e0f80e633E@4HA"
.LBB2_3:
	movq	%rdx, 16(%rsp)
	pushq	%rbp
	.seh_pushreg %rbp
	subq	$32, %rsp
	.seh_stackalloc 32
	leaq	112(%rdx), %rbp
	.seh_endprologue
	.cv_loc	6 3 57 0
	addq	$32, %rsp
	popq	%rbp
	retq
.Ltmp14:
.Lfunc_end2:
	.seh_handlerdata
	.section	.text,"xr",one_only,_ZN107_$LT$proc_macro..bridge..ExpnGlobals$LT$Span$GT$$u20$as$u20$proc_macro..bridge..rpc..DecodeMut$LT$S$GT$$GT$6decode17h9b91045e0f80e633E
	.seh_endproc
	.section	.xdata,"dr",associative,_ZN107_$LT$proc_macro..bridge..ExpnGlobals$LT$Span$GT$$u20$as$u20$proc_macro..bridge..rpc..DecodeMut$LT$S$GT$$GT$6decode17h9b91045e0f80e633E
	.p2align	2, 0x0
$cppxdata$_ZN107_$LT$proc_macro..bridge..ExpnGlobals$LT$Span$GT$$u20$as$u20$proc_macro..bridge..rpc..DecodeMut$LT$S$GT$$GT$6decode17h9b91045e0f80e633E:
	.long	429065506
	.long	2
	.long	($stateUnwindMap$_ZN107_$LT$proc_macro..bridge..ExpnGlobals$LT$Span$GT$$u20$as$u20$proc_macro..bridge..rpc..DecodeMut$LT$S$GT$$GT$6decode17h9b91045e0f80e633E)@IMGREL
	.long	0
	.long	0
	.long	4
	.long	($ip2state$_ZN107_$LT$proc_macro..bridge..ExpnGlobals$LT$Span$GT$$u20$as$u20$proc_macro..bridge..rpc..DecodeMut$LT$S$GT$$GT$6decode17h9b91045e0f80e633E)@IMGREL
	.long	104
	.long	0
	.long	1
$stateUnwindMap$_ZN107_$LT$proc_macro..bridge..ExpnGlobals$LT$Span$GT$$u20$as$u20$proc_macro..bridge..rpc..DecodeMut$LT$S$GT$$GT$6decode17h9b91045e0f80e633E:
	.long	-1
	.long	"?dtor$1@?0?_ZN107_$LT$proc_macro..bridge..ExpnGlobals$LT$Span$GT$$u20$as$u20$proc_macro..bridge..rpc..DecodeMut$LT$S$GT$$GT$6decode17h9b91045e0f80e633E@4HA"@IMGREL
	.long	0
	.long	"?dtor$3@?0?_ZN107_$LT$proc_macro..bridge..ExpnGlobals$LT$Span$GT$$u20$as$u20$proc_macro..bridge..rpc..DecodeMut$LT$S$GT$$GT$6decode17h9b91045e0f80e633E@4HA"@IMGREL
$ip2state$_ZN107_$LT$proc_macro..bridge..ExpnGlobals$LT$Span$GT$$u20$as$u20$proc_macro..bridge..rpc..DecodeMut$LT$S$GT$$GT$6decode17h9b91045e0f80e633E:
	.long	.Lfunc_begin2@IMGREL
	.long	-1
	.long	.Ltmp9@IMGREL+1
	.long	0
	.long	.Ltmp11@IMGREL+1
	.long	1
	.long	.Ltmp12@IMGREL+1
	.long	-1
	.section	.text,"xr",one_only,_ZN107_$LT$proc_macro..bridge..ExpnGlobals$LT$Span$GT$$u20$as$u20$proc_macro..bridge..rpc..DecodeMut$LT$S$GT$$GT$6decode17h9b91045e0f80e633E

	.def	_ZN10proc_macro6bridge100_$LT$impl$u20$proc_macro..bridge..rpc..Encode$LT$S$GT$$u20$for$u20$core..option..Option$LT$T$GT$$GT$6encode17h5875700f6b5d843cE;
	.scl	3;
	.type	32;
	.endef
	.section	.text,"xr",one_only,_ZN10proc_macro6bridge100_$LT$impl$u20$proc_macro..bridge..rpc..Encode$LT$S$GT$$u20$for$u20$core..option..Option$LT$T$GT$$GT$6encode17h5875700f6b5d843cE
	.p2align	4, 0x90
_ZN10proc_macro6bridge100_$LT$impl$u20$proc_macro..bridge..rpc..Encode$LT$S$GT$$u20$for$u20$core..option..Option$LT$T$GT$$GT$6encode17h5875700f6b5d843cE:
.Lfunc_begin3:
	.cv_func_id 7
	.cv_loc	7 3 63 0
.seh_proc _ZN10proc_macro6bridge100_$LT$impl$u20$proc_macro..bridge..rpc..Encode$LT$S$GT$$u20$for$u20$core..option..Option$LT$T$GT$$GT$6encode17h5875700f6b5d843cE
	.seh_handler __CxxFrameHandler3, @unwind, @except
	pushq	%rbp
	.seh_pushreg %rbp
	subq	$144, %rsp
	.seh_stackalloc 144
	leaq	128(%rsp), %rbp
	.seh_setframe %rbp, 128
	.seh_endprologue
	movq	$-2, 8(%rbp)
	movq	%r9, -72(%rbp)
	movq	%r8, -64(%rbp)
.Ltmp19:
	.cv_inline_site_id 8 within 7 inlined_at 3 75 0
	.cv_loc	8 3 116 0
	movb	$1, -50(%rbp)
.Ltmp20:
	.cv_inline_site_id 9 within 7 inlined_at 3 75 0
	.cv_loc	9 3 116 0
	movb	$0, -49(%rbp)
	movq	%rcx, -48(%rbp)
	movq	%rdx, -40(%rbp)
	movq	%r8, -24(%rbp)
	movq	%r9, -16(%rbp)
.Ltmp21:
	.cv_loc	7 3 73 0
	movq	-48(%rbp), %rax
	cmpq	$0, %rax
	sete	%al
	testb	$1, %al
	jne	.LBB3_1
	jmp	.LBB3_2
.LBB3_1:
	.cv_loc	8 3 117 0
	movq	-64(%rbp), %rcx
.Ltmp22:
	movl	$1, %edx
	callq	_ZN10proc_macro6bridge6buffer6Buffer4push17h46c5da7feffb16cfE
	jmp	.LBB3_3
.Ltmp23:
.LBB3_2:
	.cv_loc	7 3 74 0
	movq	-64(%rbp), %rcx
	movb	$1, -25(%rbp)
	movq	-48(%rbp), %rdx
	movq	%rdx, -88(%rbp)
	movq	-40(%rbp), %rax
	movq	%rax, -80(%rbp)
	movq	%rdx, -8(%rbp)
	movq	%rax, (%rbp)
	.cv_loc	9 3 117 0
.Ltmp15:
	xorl	%eax, %eax
	movb	%al, %dl
.Ltmp24:
	callq	_ZN10proc_macro6bridge6buffer6Buffer4push17h46c5da7feffb16cfE
.Ltmp16:
	jmp	.LBB3_5
.Ltmp25:
.LBB3_3:
	.cv_loc	7 3 79 0
	addq	$144, %rsp
	popq	%rbp
	retq
.LBB3_5:
	.cv_loc	7 3 76 0
	movq	-72(%rbp), %r9
	movq	-64(%rbp), %r8
	movq	-80(%rbp), %rdx
	movq	-88(%rbp), %rcx
.Ltmp26:
	movb	$0, -25(%rbp)
.Ltmp17:
	callq	_ZN68_$LT$$RF$str$u20$as$u20$proc_macro..bridge..rpc..Encode$LT$S$GT$$GT$6encode17hfbf593fe810989eaE
.Ltmp18:
	jmp	.LBB3_6
.Ltmp27:
.LBB3_6:
	.cv_loc	7 3 77 0
	jmp	.LBB3_3
	.seh_handlerdata
	.long	($cppxdata$_ZN10proc_macro6bridge100_$LT$impl$u20$proc_macro..bridge..rpc..Encode$LT$S$GT$$u20$for$u20$core..option..Option$LT$T$GT$$GT$6encode17h5875700f6b5d843cE)@IMGREL
	.section	.text,"xr",one_only,_ZN10proc_macro6bridge100_$LT$impl$u20$proc_macro..bridge..rpc..Encode$LT$S$GT$$u20$for$u20$core..option..Option$LT$T$GT$$GT$6encode17h5875700f6b5d843cE
	.seh_endproc
	.def	"?dtor$4@?0?_ZN10proc_macro6bridge100_$LT$impl$u20$proc_macro..bridge..rpc..Encode$LT$S$GT$$u20$for$u20$core..option..Option$LT$T$GT$$GT$6encode17h5875700f6b5d843cE@4HA";
	.scl	3;
	.type	32;
	.endef
	.p2align	4, 0x90
"?dtor$4@?0?_ZN10proc_macro6bridge100_$LT$impl$u20$proc_macro..bridge..rpc..Encode$LT$S$GT$$u20$for$u20$core..option..Option$LT$T$GT$$GT$6encode17h5875700f6b5d843cE@4HA":
.seh_proc "?dtor$4@?0?_ZN10proc_macro6bridge100_$LT$impl$u20$proc_macro..bridge..rpc..Encode$LT$S$GT$$u20$for$u20$core..option..Option$LT$T$GT$$GT$6encode17h5875700f6b5d843cE@4HA"
.LBB3_4:
	movq	%rdx, 16(%rsp)
	pushq	%rbp
	.seh_pushreg %rbp
	subq	$32, %rsp
	.seh_stackalloc 32
	leaq	128(%rdx), %rbp
	.seh_endprologue
	testb	$1, -25(%rbp)
	jne	.LBB3_8
	jmp	.LBB3_7
.LBB3_7:
	.cv_loc	7 3 63 0
	addq	$32, %rsp
	popq	%rbp
	retq
.LBB3_8:
	.cv_loc	7 3 77 0
	jmp	.LBB3_7
.Ltmp28:
.Lfunc_end3:
	.seh_handlerdata
	.section	.text,"xr",one_only,_ZN10proc_macro6bridge100_$LT$impl$u20$proc_macro..bridge..rpc..Encode$LT$S$GT$$u20$for$u20$core..option..Option$LT$T$GT$$GT$6encode17h5875700f6b5d843cE
	.seh_endproc
	.section	.xdata,"dr",associative,_ZN10proc_macro6bridge100_$LT$impl$u20$proc_macro..bridge..rpc..Encode$LT$S$GT$$u20$for$u20$core..option..Option$LT$T$GT$$GT$6encode17h5875700f6b5d843cE
	.p2align	2, 0x0
$cppxdata$_ZN10proc_macro6bridge100_$LT$impl$u20$proc_macro..bridge..rpc..Encode$LT$S$GT$$u20$for$u20$core..option..Option$LT$T$GT$$GT$6encode17h5875700f6b5d843cE:
	.long	429065506
	.long	1
	.long	($stateUnwindMap$_ZN10proc_macro6bridge100_$LT$impl$u20$proc_macro..bridge..rpc..Encode$LT$S$GT$$u20$for$u20$core..option..Option$LT$T$GT$$GT$6encode17h5875700f6b5d843cE)@IMGREL
	.long	0
	.long	0
	.long	3
	.long	($ip2state$_ZN10proc_macro6bridge100_$LT$impl$u20$proc_macro..bridge..rpc..Encode$LT$S$GT$$u20$for$u20$core..option..Option$LT$T$GT$$GT$6encode17h5875700f6b5d843cE)@IMGREL
	.long	136
	.long	0
	.long	1
$stateUnwindMap$_ZN10proc_macro6bridge100_$LT$impl$u20$proc_macro..bridge..rpc..Encode$LT$S$GT$$u20$for$u20$core..option..Option$LT$T$GT$$GT$6encode17h5875700f6b5d843cE:
	.long	-1
	.long	"?dtor$4@?0?_ZN10proc_macro6bridge100_$LT$impl$u20$proc_macro..bridge..rpc..Encode$LT$S$GT$$u20$for$u20$core..option..Option$LT$T$GT$$GT$6encode17h5875700f6b5d843cE@4HA"@IMGREL
$ip2state$_ZN10proc_macro6bridge100_$LT$impl$u20$proc_macro..bridge..rpc..Encode$LT$S$GT$$u20$for$u20$core..option..Option$LT$T$GT$$GT$6encode17h5875700f6b5d843cE:
	.long	.Lfunc_begin3@IMGREL
	.long	-1
	.long	.Ltmp15@IMGREL+1
	.long	0
	.long	.Ltmp18@IMGREL+1
	.long	-1
	.section	.text,"xr",one_only,_ZN10proc_macro6bridge100_$LT$impl$u20$proc_macro..bridge..rpc..Encode$LT$S$GT$$u20$for$u20$core..option..Option$LT$T$GT$$GT$6encode17h5875700f6b5d843cE

	.def	_ZN10proc_macro6bridge100_$LT$impl$u20$proc_macro..bridge..rpc..Encode$LT$S$GT$$u20$for$u20$core..option..Option$LT$T$GT$$GT$6encode17hd32acdfe557a3f31E;
	.scl	3;
	.type	32;
	.endef
	.section	.text,"xr",one_only,_ZN10proc_macro6bridge100_$LT$impl$u20$proc_macro..bridge..rpc..Encode$LT$S$GT$$u20$for$u20$core..option..Option$LT$T$GT$$GT$6encode17hd32acdfe557a3f31E
	.p2align	4, 0x90
_ZN10proc_macro6bridge100_$LT$impl$u20$proc_macro..bridge..rpc..Encode$LT$S$GT$$u20$for$u20$core..option..Option$LT$T$GT$$GT$6encode17hd32acdfe557a3f31E:
.Lfunc_begin4:
	.cv_func_id 10
	.cv_loc	10 3 63 0
.seh_proc _ZN10proc_macro6bridge100_$LT$impl$u20$proc_macro..bridge..rpc..Encode$LT$S$GT$$u20$for$u20$core..option..Option$LT$T$GT$$GT$6encode17hd32acdfe557a3f31E
	.seh_handler __CxxFrameHandler3, @unwind, @except
	pushq	%rbp
	.seh_pushreg %rbp
	subq	$96, %rsp
	.seh_stackalloc 96
	leaq	96(%rsp), %rbp
	.seh_setframe %rbp, 96
	.seh_endprologue
	movq	$-2, -8(%rbp)
	movq	%r8, -56(%rbp)
	movq	%rdx, -48(%rbp)
.Ltmp33:
	.cv_inline_site_id 11 within 10 inlined_at 3 75 0
	.cv_loc	11 3 116 0
	movb	$1, -38(%rbp)
.Ltmp34:
	.cv_inline_site_id 12 within 10 inlined_at 3 75 0
	.cv_loc	12 3 116 0
	movb	$0, -37(%rbp)
	movl	%ecx, -36(%rbp)
	movq	%rdx, -24(%rbp)
	movq	%r8, -16(%rbp)
.Ltmp35:
	.cv_loc	10 3 73 0
	cmpl	$0, -36(%rbp)
	sete	%al
	testb	$1, %al
	jne	.LBB4_1
	jmp	.LBB4_2
.LBB4_1:
	.cv_loc	11 3 117 0
	movq	-48(%rbp), %rcx
.Ltmp36:
	movl	$1, %edx
	callq	_ZN10proc_macro6bridge6buffer6Buffer4push17h46c5da7feffb16cfE
	jmp	.LBB4_3
.Ltmp37:
.LBB4_2:
	.cv_loc	10 3 74 0
	movq	-48(%rbp), %rcx
	movb	$1, -25(%rbp)
	movl	-36(%rbp), %eax
	movl	%eax, -32(%rbp)
	.cv_loc	12 3 117 0
.Ltmp29:
	xorl	%eax, %eax
	movb	%al, %dl
.Ltmp38:
	callq	_ZN10proc_macro6bridge6buffer6Buffer4push17h46c5da7feffb16cfE
.Ltmp30:
	jmp	.LBB4_5
.Ltmp39:
.LBB4_3:
	.cv_loc	10 3 79 0
	addq	$96, %rsp
	popq	%rbp
	retq
.LBB4_5:
	.cv_loc	10 3 76 0
	movq	-56(%rbp), %r8
	movq	-48(%rbp), %rdx
.Ltmp40:
	movb	$0, -25(%rbp)
	movl	-32(%rbp), %ecx
.Ltmp31:
	callq	_ZN100_$LT$proc_macro..bridge..client..TokenStream$u20$as$u20$proc_macro..bridge..rpc..Encode$LT$S$GT$$GT$6encode17h0fb0388997c8ece6E
.Ltmp32:
	jmp	.LBB4_6
.Ltmp41:
.LBB4_6:
	.cv_loc	10 3 77 0
	jmp	.LBB4_3
	.seh_handlerdata
	.long	($cppxdata$_ZN10proc_macro6bridge100_$LT$impl$u20$proc_macro..bridge..rpc..Encode$LT$S$GT$$u20$for$u20$core..option..Option$LT$T$GT$$GT$6encode17hd32acdfe557a3f31E)@IMGREL
	.section	.text,"xr",one_only,_ZN10proc_macro6bridge100_$LT$impl$u20$proc_macro..bridge..rpc..Encode$LT$S$GT$$u20$for$u20$core..option..Option$LT$T$GT$$GT$6encode17hd32acdfe557a3f31E
	.seh_endproc
	.def	"?dtor$4@?0?_ZN10proc_macro6bridge100_$LT$impl$u20$proc_macro..bridge..rpc..Encode$LT$S$GT$$u20$for$u20$core..option..Option$LT$T$GT$$GT$6encode17hd32acdfe557a3f31E@4HA";
	.scl	3;
	.type	32;
	.endef
	.p2align	4, 0x90
"?dtor$4@?0?_ZN10proc_macro6bridge100_$LT$impl$u20$proc_macro..bridge..rpc..Encode$LT$S$GT$$u20$for$u20$core..option..Option$LT$T$GT$$GT$6encode17hd32acdfe557a3f31E@4HA":
.seh_proc "?dtor$4@?0?_ZN10proc_macro6bridge100_$LT$impl$u20$proc_macro..bridge..rpc..Encode$LT$S$GT$$u20$for$u20$core..option..Option$LT$T$GT$$GT$6encode17hd32acdfe557a3f31E@4HA"
.LBB4_4:
	movq	%rdx, 16(%rsp)
	pushq	%rbp
	.seh_pushreg %rbp
	subq	$32, %rsp
	.seh_stackalloc 32
	leaq	96(%rdx), %rbp
	.seh_endprologue
	testb	$1, -25(%rbp)
	jne	.LBB4_8
	jmp	.LBB4_7
.LBB4_7:
	.cv_loc	10 3 63 0
	addq	$32, %rsp
	popq	%rbp
	retq
.LBB4_8:
	.cv_loc	10 3 77 0
	leaq	-32(%rbp), %rcx
	callq	_ZN4core3ptr60drop_in_place$LT$proc_macro..bridge..client..TokenStream$GT$17hf41aee5a97160356E
	jmp	.LBB4_7
.Ltmp42:
.Lfunc_end4:
	.seh_handlerdata
	.section	.text,"xr",one_only,_ZN10proc_macro6bridge100_$LT$impl$u20$proc_macro..bridge..rpc..Encode$LT$S$GT$$u20$for$u20$core..option..Option$LT$T$GT$$GT$6encode17hd32acdfe557a3f31E
	.seh_endproc
	.section	.xdata,"dr",associative,_ZN10proc_macro6bridge100_$LT$impl$u20$proc_macro..bridge..rpc..Encode$LT$S$GT$$u20$for$u20$core..option..Option$LT$T$GT$$GT$6encode17hd32acdfe557a3f31E
	.p2align	2, 0x0
$cppxdata$_ZN10proc_macro6bridge100_$LT$impl$u20$proc_macro..bridge..rpc..Encode$LT$S$GT$$u20$for$u20$core..option..Option$LT$T$GT$$GT$6encode17hd32acdfe557a3f31E:
	.long	429065506
	.long	1
	.long	($stateUnwindMap$_ZN10proc_macro6bridge100_$LT$impl$u20$proc_macro..bridge..rpc..Encode$LT$S$GT$$u20$for$u20$core..option..Option$LT$T$GT$$GT$6encode17hd32acdfe557a3f31E)@IMGREL
	.long	0
	.long	0
	.long	3
	.long	($ip2state$_ZN10proc_macro6bridge100_$LT$impl$u20$proc_macro..bridge..rpc..Encode$LT$S$GT$$u20$for$u20$core..option..Option$LT$T$GT$$GT$6encode17hd32acdfe557a3f31E)@IMGREL
	.long	88
	.long	0
	.long	1
$stateUnwindMap$_ZN10proc_macro6bridge100_$LT$impl$u20$proc_macro..bridge..rpc..Encode$LT$S$GT$$u20$for$u20$core..option..Option$LT$T$GT$$GT$6encode17hd32acdfe557a3f31E:
	.long	-1
	.long	"?dtor$4@?0?_ZN10proc_macro6bridge100_$LT$impl$u20$proc_macro..bridge..rpc..Encode$LT$S$GT$$u20$for$u20$core..option..Option$LT$T$GT$$GT$6encode17hd32acdfe557a3f31E@4HA"@IMGREL
$ip2state$_ZN10proc_macro6bridge100_$LT$impl$u20$proc_macro..bridge..rpc..Encode$LT$S$GT$$u20$for$u20$core..option..Option$LT$T$GT$$GT$6encode17hd32acdfe557a3f31E:
	.long	.Lfunc_begin4@IMGREL
	.long	-1
	.long	.Ltmp29@IMGREL+1
	.long	0
	.long	.Ltmp32@IMGREL+1
	.long	-1
	.section	.text,"xr",one_only,_ZN10proc_macro6bridge100_$LT$impl$u20$proc_macro..bridge..rpc..Encode$LT$S$GT$$u20$for$u20$core..option..Option$LT$T$GT$$GT$6encode17hd32acdfe557a3f31E

	.def	_ZN10proc_macro6bridge104_$LT$impl$u20$proc_macro..bridge..rpc..Encode$LT$S$GT$$u20$for$u20$core..result..Result$LT$T$C$E$GT$$GT$6encode17hd854793c94bf7924E;
	.scl	3;
	.type	32;
	.endef
	.section	.text,"xr",one_only,_ZN10proc_macro6bridge104_$LT$impl$u20$proc_macro..bridge..rpc..Encode$LT$S$GT$$u20$for$u20$core..result..Result$LT$T$C$E$GT$$GT$6encode17hd854793c94bf7924E
	.p2align	4, 0x90
_ZN10proc_macro6bridge104_$LT$impl$u20$proc_macro..bridge..rpc..Encode$LT$S$GT$$u20$for$u20$core..result..Result$LT$T$C$E$GT$$GT$6encode17hd854793c94bf7924E:
.Lfunc_begin5:
	.cv_func_id 13
	.cv_loc	13 3 63 0
.seh_proc _ZN10proc_macro6bridge104_$LT$impl$u20$proc_macro..bridge..rpc..Encode$LT$S$GT$$u20$for$u20$core..result..Result$LT$T$C$E$GT$$GT$6encode17hd854793c94bf7924E
	.seh_handler __CxxFrameHandler3, @unwind, @except
	pushq	%rbp
	.seh_pushreg %rbp
	subq	$96, %rsp
	.seh_stackalloc 96
	leaq	96(%rsp), %rbp
	.seh_setframe %rbp, 96
	.seh_endprologue
	movq	$-2, -8(%rbp)
	movq	%r9, -64(%rbp)
	movq	%r8, -56(%rbp)
.Ltmp51:
	.cv_inline_site_id 14 within 13 inlined_at 3 75 0
	.cv_loc	14 3 116 0
	movb	$1, -42(%rbp)
.Ltmp52:
	.cv_inline_site_id 15 within 13 inlined_at 3 75 0
	.cv_loc	15 3 116 0
	movb	$0, -41(%rbp)
	movl	%ecx, -40(%rbp)
	movl	%edx, -36(%rbp)
	movq	%r8, -24(%rbp)
	movq	%r9, -16(%rbp)
.Ltmp53:
	.cv_loc	13 3 73 0
	movl	-40(%rbp), %eax
	cmpq	$0, %rax
	jne	.LBB5_2
	.cv_loc	13 3 74 0
	movq	-56(%rbp), %rcx
	movb	$1, -25(%rbp)
	movl	-36(%rbp), %eax
	movl	%eax, -32(%rbp)
	.cv_loc	15 3 117 0
.Ltmp47:
	xorl	%eax, %eax
	movb	%al, %dl
.Ltmp54:
	callq	_ZN10proc_macro6bridge6buffer6Buffer4push17h46c5da7feffb16cfE
.Ltmp48:
	jmp	.LBB5_4
.Ltmp55:
.LBB5_2:
	.cv_loc	13 3 74 0
	movq	-56(%rbp), %rcx
	movb	$1, -26(%rbp)
	.cv_loc	14 3 117 0
.Ltmp43:
	movb	$1, %dl
.Ltmp56:
	callq	_ZN10proc_macro6bridge6buffer6Buffer4push17h46c5da7feffb16cfE
.Ltmp44:
	jmp	.LBB5_11
.Ltmp57:
.LBB5_4:
	.cv_loc	13 3 76 0
	movq	-64(%rbp), %r8
	movq	-56(%rbp), %rdx
.Ltmp58:
	movb	$0, -25(%rbp)
	movl	-32(%rbp), %ecx
.Ltmp49:
	callq	_ZN10proc_macro6bridge100_$LT$impl$u20$proc_macro..bridge..rpc..Encode$LT$S$GT$$u20$for$u20$core..option..Option$LT$T$GT$$GT$6encode17hd32acdfe557a3f31E
.Ltmp50:
	jmp	.LBB5_5
.Ltmp59:
.LBB5_5:
	.cv_loc	13 3 77 0
	jmp	.LBB5_6
.LBB5_6:
	.cv_loc	13 3 79 0
	addq	$96, %rsp
	popq	%rbp
	retq
.LBB5_11:
	.cv_loc	13 3 76 0
	movq	-64(%rbp), %rdx
	movq	-56(%rbp), %rcx
.Ltmp60:
	movb	$0, -26(%rbp)
.Ltmp45:
	callq	_ZN69_$LT$$LP$$RP$$u20$as$u20$proc_macro..bridge..rpc..Encode$LT$S$GT$$GT$6encode17h40e4b374727f75afE
.Ltmp46:
	jmp	.LBB5_12
.Ltmp61:
.LBB5_12:
	.cv_loc	13 3 77 0
	jmp	.LBB5_6
	.seh_handlerdata
	.long	($cppxdata$_ZN10proc_macro6bridge104_$LT$impl$u20$proc_macro..bridge..rpc..Encode$LT$S$GT$$u20$for$u20$core..result..Result$LT$T$C$E$GT$$GT$6encode17hd854793c94bf7924E)@IMGREL
	.section	.text,"xr",one_only,_ZN10proc_macro6bridge104_$LT$impl$u20$proc_macro..bridge..rpc..Encode$LT$S$GT$$u20$for$u20$core..result..Result$LT$T$C$E$GT$$GT$6encode17hd854793c94bf7924E
	.seh_endproc
	.def	"?dtor$3@?0?_ZN10proc_macro6bridge104_$LT$impl$u20$proc_macro..bridge..rpc..Encode$LT$S$GT$$u20$for$u20$core..result..Result$LT$T$C$E$GT$$GT$6encode17hd854793c94bf7924E@4HA";
	.scl	3;
	.type	32;
	.endef
	.p2align	4, 0x90
"?dtor$3@?0?_ZN10proc_macro6bridge104_$LT$impl$u20$proc_macro..bridge..rpc..Encode$LT$S$GT$$u20$for$u20$core..result..Result$LT$T$C$E$GT$$GT$6encode17hd854793c94bf7924E@4HA":
.seh_proc "?dtor$3@?0?_ZN10proc_macro6bridge104_$LT$impl$u20$proc_macro..bridge..rpc..Encode$LT$S$GT$$u20$for$u20$core..result..Result$LT$T$C$E$GT$$GT$6encode17hd854793c94bf7924E@4HA"
.LBB5_3:
	movq	%rdx, 16(%rsp)
	pushq	%rbp
	.seh_pushreg %rbp
	subq	$32, %rsp
	.seh_stackalloc 32
	leaq	96(%rdx), %rbp
	.seh_endprologue
	testb	$1, -25(%rbp)
	jne	.LBB5_9
	jmp	.LBB5_8
.LBB5_8:
	addq	$32, %rsp
	popq	%rbp
	retq
.LBB5_9:
	leaq	-32(%rbp), %rcx
	callq	_ZN4core3ptr88drop_in_place$LT$core..option..Option$LT$proc_macro..bridge..client..TokenStream$GT$$GT$17hb33811a5d558b4c7E
	nop
	addq	$32, %rsp
	popq	%rbp
	retq
	.seh_handlerdata
	.section	.text,"xr",one_only,_ZN10proc_macro6bridge104_$LT$impl$u20$proc_macro..bridge..rpc..Encode$LT$S$GT$$u20$for$u20$core..result..Result$LT$T$C$E$GT$$GT$6encode17hd854793c94bf7924E
	.seh_endproc
	.def	"?dtor$7@?0?_ZN10proc_macro6bridge104_$LT$impl$u20$proc_macro..bridge..rpc..Encode$LT$S$GT$$u20$for$u20$core..result..Result$LT$T$C$E$GT$$GT$6encode17hd854793c94bf7924E@4HA";
	.scl	3;
	.type	32;
	.endef
	.p2align	4, 0x90
"?dtor$7@?0?_ZN10proc_macro6bridge104_$LT$impl$u20$proc_macro..bridge..rpc..Encode$LT$S$GT$$u20$for$u20$core..result..Result$LT$T$C$E$GT$$GT$6encode17hd854793c94bf7924E@4HA":
.seh_proc "?dtor$7@?0?_ZN10proc_macro6bridge104_$LT$impl$u20$proc_macro..bridge..rpc..Encode$LT$S$GT$$u20$for$u20$core..result..Result$LT$T$C$E$GT$$GT$6encode17hd854793c94bf7924E@4HA"
.LBB5_7:
	movq	%rdx, 16(%rsp)
	pushq	%rbp
	.seh_pushreg %rbp
	subq	$32, %rsp
	.seh_stackalloc 32
	leaq	96(%rdx), %rbp
	.seh_endprologue
	.cv_loc	13 3 63 0
	addq	$32, %rsp
	popq	%rbp
	retq
	.seh_handlerdata
	.section	.text,"xr",one_only,_ZN10proc_macro6bridge104_$LT$impl$u20$proc_macro..bridge..rpc..Encode$LT$S$GT$$u20$for$u20$core..result..Result$LT$T$C$E$GT$$GT$6encode17hd854793c94bf7924E
	.seh_endproc
	.def	"?dtor$10@?0?_ZN10proc_macro6bridge104_$LT$impl$u20$proc_macro..bridge..rpc..Encode$LT$S$GT$$u20$for$u20$core..result..Result$LT$T$C$E$GT$$GT$6encode17hd854793c94bf7924E@4HA";
	.scl	3;
	.type	32;
	.endef
	.p2align	4, 0x90
"?dtor$10@?0?_ZN10proc_macro6bridge104_$LT$impl$u20$proc_macro..bridge..rpc..Encode$LT$S$GT$$u20$for$u20$core..result..Result$LT$T$C$E$GT$$GT$6encode17hd854793c94bf7924E@4HA":
.seh_proc "?dtor$10@?0?_ZN10proc_macro6bridge104_$LT$impl$u20$proc_macro..bridge..rpc..Encode$LT$S$GT$$u20$for$u20$core..result..Result$LT$T$C$E$GT$$GT$6encode17hd854793c94bf7924E@4HA"
.LBB5_10:
	movq	%rdx, 16(%rsp)
	pushq	%rbp
	.seh_pushreg %rbp
	subq	$32, %rsp
	.seh_stackalloc 32
	leaq	96(%rdx), %rbp
	.seh_endprologue
	.cv_loc	13 3 77 0
	testb	$1, -26(%rbp)
	jne	.LBB5_14
	jmp	.LBB5_13
.LBB5_13:
	addq	$32, %rsp
	popq	%rbp
	retq
.LBB5_14:
	addq	$32, %rsp
	popq	%rbp
	retq
.Ltmp62:
.Lfunc_end5:
	.seh_handlerdata
	.section	.text,"xr",one_only,_ZN10proc_macro6bridge104_$LT$impl$u20$proc_macro..bridge..rpc..Encode$LT$S$GT$$u20$for$u20$core..result..Result$LT$T$C$E$GT$$GT$6encode17hd854793c94bf7924E
	.seh_endproc
	.section	.xdata,"dr",associative,_ZN10proc_macro6bridge104_$LT$impl$u20$proc_macro..bridge..rpc..Encode$LT$S$GT$$u20$for$u20$core..result..Result$LT$T$C$E$GT$$GT$6encode17hd854793c94bf7924E
	.p2align	2, 0x0
$cppxdata$_ZN10proc_macro6bridge104_$LT$impl$u20$proc_macro..bridge..rpc..Encode$LT$S$GT$$u20$for$u20$core..result..Result$LT$T$C$E$GT$$GT$6encode17hd854793c94bf7924E:
	.long	429065506
	.long	3
	.long	($stateUnwindMap$_ZN10proc_macro6bridge104_$LT$impl$u20$proc_macro..bridge..rpc..Encode$LT$S$GT$$u20$for$u20$core..result..Result$LT$T$C$E$GT$$GT$6encode17hd854793c94bf7924E)@IMGREL
	.long	0
	.long	0
	.long	6
	.long	($ip2state$_ZN10proc_macro6bridge104_$LT$impl$u20$proc_macro..bridge..rpc..Encode$LT$S$GT$$u20$for$u20$core..result..Result$LT$T$C$E$GT$$GT$6encode17hd854793c94bf7924E)@IMGREL
	.long	88
	.long	0
	.long	1
$stateUnwindMap$_ZN10proc_macro6bridge104_$LT$impl$u20$proc_macro..bridge..rpc..Encode$LT$S$GT$$u20$for$u20$core..result..Result$LT$T$C$E$GT$$GT$6encode17hd854793c94bf7924E:
	.long	-1
	.long	"?dtor$7@?0?_ZN10proc_macro6bridge104_$LT$impl$u20$proc_macro..bridge..rpc..Encode$LT$S$GT$$u20$for$u20$core..result..Result$LT$T$C$E$GT$$GT$6encode17hd854793c94bf7924E@4HA"@IMGREL
	.long	0
	.long	"?dtor$10@?0?_ZN10proc_macro6bridge104_$LT$impl$u20$proc_macro..bridge..rpc..Encode$LT$S$GT$$u20$for$u20$core..result..Result$LT$T$C$E$GT$$GT$6encode17hd854793c94bf7924E@4HA"@IMGREL
	.long	0
	.long	"?dtor$3@?0?_ZN10proc_macro6bridge104_$LT$impl$u20$proc_macro..bridge..rpc..Encode$LT$S$GT$$u20$for$u20$core..result..Result$LT$T$C$E$GT$$GT$6encode17hd854793c94bf7924E@4HA"@IMGREL
$ip2state$_ZN10proc_macro6bridge104_$LT$impl$u20$proc_macro..bridge..rpc..Encode$LT$S$GT$$u20$for$u20$core..result..Result$LT$T$C$E$GT$$GT$6encode17hd854793c94bf7924E:
	.long	.Lfunc_begin5@IMGREL
	.long	-1
	.long	.Ltmp47@IMGREL+1
	.long	2
	.long	.Ltmp43@IMGREL+1
	.long	1
	.long	.Ltmp49@IMGREL+1
	.long	2
	.long	.Ltmp45@IMGREL+1
	.long	1
	.long	.Ltmp46@IMGREL+1
	.long	-1
	.section	.text,"xr",one_only,_ZN10proc_macro6bridge104_$LT$impl$u20$proc_macro..bridge..rpc..Encode$LT$S$GT$$u20$for$u20$core..result..Result$LT$T$C$E$GT$$GT$6encode17hd854793c94bf7924E

	.def	_ZN10proc_macro6bridge104_$LT$impl$u20$proc_macro..bridge..rpc..Encode$LT$S$GT$$u20$for$u20$core..result..Result$LT$T$C$E$GT$$GT$6encode17hffbfaebceef401f5E;
	.scl	3;
	.type	32;
	.endef
	.section	.text,"xr",one_only,_ZN10proc_macro6bridge104_$LT$impl$u20$proc_macro..bridge..rpc..Encode$LT$S$GT$$u20$for$u20$core..result..Result$LT$T$C$E$GT$$GT$6encode17hffbfaebceef401f5E
	.p2align	4, 0x90
_ZN10proc_macro6bridge104_$LT$impl$u20$proc_macro..bridge..rpc..Encode$LT$S$GT$$u20$for$u20$core..result..Result$LT$T$C$E$GT$$GT$6encode17hffbfaebceef401f5E:
.Lfunc_begin6:
	.cv_func_id 16
	.cv_loc	16 3 63 0
.seh_proc _ZN10proc_macro6bridge104_$LT$impl$u20$proc_macro..bridge..rpc..Encode$LT$S$GT$$u20$for$u20$core..result..Result$LT$T$C$E$GT$$GT$6encode17hffbfaebceef401f5E
	.seh_handler __CxxFrameHandler3, @unwind, @except
	pushq	%rbp
	.seh_pushreg %rbp
	subq	$160, %rsp
	.seh_stackalloc 160
	leaq	128(%rsp), %rbp
	.seh_setframe %rbp, 128
	.seh_endprologue
	movq	$-2, 24(%rbp)
	movq	%r8, -96(%rbp)
	movq	%rdx, -88(%rbp)
	movq	%rcx, -80(%rbp)
.Ltmp71:
	.cv_inline_site_id 17 within 16 inlined_at 3 75 0
	.cv_loc	17 3 116 0
	movb	$1, -66(%rbp)
.Ltmp72:
	.cv_inline_site_id 18 within 16 inlined_at 3 75 0
	.cv_loc	18 3 116 0
	movb	$0, -65(%rbp)
.Ltmp73:
	movq	%rdx, 8(%rbp)
	movq	%r8, 16(%rbp)
.Ltmp74:
	.cv_loc	16 3 73 0
	movabsq	$-9223372036854775805, %rax
	cmpq	%rax, (%rcx)
	sete	%al
	testb	$1, %al
.Ltmp75:
	jne	.LBB6_1
	jmp	.LBB6_2
.Ltmp76:
.LBB6_1:
	.cv_loc	16 3 74 0
	movq	-88(%rbp), %rcx
	movb	$1, 7(%rbp)
	.cv_loc	18 3 117 0
.Ltmp67:
	xorl	%eax, %eax
	movb	%al, %dl
.Ltmp77:
	callq	_ZN10proc_macro6bridge6buffer6Buffer4push17h46c5da7feffb16cfE
.Ltmp68:
	jmp	.LBB6_4
.Ltmp78:
.LBB6_2:
	.cv_loc	16 3 74 0
	movq	-88(%rbp), %rcx
	movq	-80(%rbp), %rax
	movb	$1, 6(%rbp)
	movq	16(%rax), %rdx
	movq	%rdx, -48(%rbp)
	vmovdqu	(%rax), %xmm0
	vmovdqa	%xmm0, -64(%rbp)
	.cv_loc	17 3 117 0
.Ltmp63:
	movb	$1, %dl
.Ltmp79:
	callq	_ZN10proc_macro6bridge6buffer6Buffer4push17h46c5da7feffb16cfE
.Ltmp64:
	jmp	.LBB6_11
.Ltmp80:
.LBB6_4:
	.cv_loc	16 3 76 0
	movq	-96(%rbp), %rdx
	movq	-88(%rbp), %rcx
.Ltmp81:
	movb	$0, 7(%rbp)
.Ltmp69:
	callq	_ZN69_$LT$$LP$$RP$$u20$as$u20$proc_macro..bridge..rpc..Encode$LT$S$GT$$GT$6encode17h40e4b374727f75afE
.Ltmp70:
	jmp	.LBB6_5
.Ltmp82:
.LBB6_5:
	.cv_loc	16 3 77 0
	jmp	.LBB6_6
.Ltmp83:
.LBB6_6:
	.cv_loc	16 3 79 0
	addq	$160, %rsp
	popq	%rbp
	retq
.Ltmp84:
.LBB6_11:
	.cv_loc	16 3 76 0
	movq	-96(%rbp), %r8
	movq	-88(%rbp), %rdx
.Ltmp85:
	movb	$0, 6(%rbp)
	movq	-48(%rbp), %rax
	movq	%rax, -16(%rbp)
	vmovdqa	-64(%rbp), %xmm0
	vmovdqa	%xmm0, -32(%rbp)
.Ltmp65:
	leaq	-32(%rbp), %rcx
	callq	_ZN98_$LT$proc_macro..bridge..rpc..PanicMessage$u20$as$u20$proc_macro..bridge..rpc..Encode$LT$S$GT$$GT$6encode17hd172141482998bcdE
.Ltmp66:
	jmp	.LBB6_12
.Ltmp86:
.LBB6_12:
	.cv_loc	16 3 77 0
	jmp	.LBB6_6
.Ltmp87:
	.seh_handlerdata
	.long	($cppxdata$_ZN10proc_macro6bridge104_$LT$impl$u20$proc_macro..bridge..rpc..Encode$LT$S$GT$$u20$for$u20$core..result..Result$LT$T$C$E$GT$$GT$6encode17hffbfaebceef401f5E)@IMGREL
	.section	.text,"xr",one_only,_ZN10proc_macro6bridge104_$LT$impl$u20$proc_macro..bridge..rpc..Encode$LT$S$GT$$u20$for$u20$core..result..Result$LT$T$C$E$GT$$GT$6encode17hffbfaebceef401f5E
	.seh_endproc
	.def	"?dtor$3@?0?_ZN10proc_macro6bridge104_$LT$impl$u20$proc_macro..bridge..rpc..Encode$LT$S$GT$$u20$for$u20$core..result..Result$LT$T$C$E$GT$$GT$6encode17hffbfaebceef401f5E@4HA";
	.scl	3;
	.type	32;
	.endef
	.p2align	4, 0x90
"?dtor$3@?0?_ZN10proc_macro6bridge104_$LT$impl$u20$proc_macro..bridge..rpc..Encode$LT$S$GT$$u20$for$u20$core..result..Result$LT$T$C$E$GT$$GT$6encode17hffbfaebceef401f5E@4HA":
.seh_proc "?dtor$3@?0?_ZN10proc_macro6bridge104_$LT$impl$u20$proc_macro..bridge..rpc..Encode$LT$S$GT$$u20$for$u20$core..result..Result$LT$T$C$E$GT$$GT$6encode17hffbfaebceef401f5E@4HA"
.LBB6_3:
	movq	%rdx, 16(%rsp)
	pushq	%rbp
	.seh_pushreg %rbp
	subq	$32, %rsp
	.seh_stackalloc 32
	leaq	128(%rdx), %rbp
.Ltmp88:
	.seh_endprologue
	testb	$1, 7(%rbp)
	jne	.LBB6_9
	jmp	.LBB6_8
.LBB6_8:
	addq	$32, %rsp
	popq	%rbp
	retq
.LBB6_9:
	addq	$32, %rsp
	popq	%rbp
	retq
	.seh_handlerdata
	.section	.text,"xr",one_only,_ZN10proc_macro6bridge104_$LT$impl$u20$proc_macro..bridge..rpc..Encode$LT$S$GT$$u20$for$u20$core..result..Result$LT$T$C$E$GT$$GT$6encode17hffbfaebceef401f5E
	.seh_endproc
	.def	"?dtor$7@?0?_ZN10proc_macro6bridge104_$LT$impl$u20$proc_macro..bridge..rpc..Encode$LT$S$GT$$u20$for$u20$core..result..Result$LT$T$C$E$GT$$GT$6encode17hffbfaebceef401f5E@4HA";
	.scl	3;
	.type	32;
	.endef
	.p2align	4, 0x90
"?dtor$7@?0?_ZN10proc_macro6bridge104_$LT$impl$u20$proc_macro..bridge..rpc..Encode$LT$S$GT$$u20$for$u20$core..result..Result$LT$T$C$E$GT$$GT$6encode17hffbfaebceef401f5E@4HA":
.seh_proc "?dtor$7@?0?_ZN10proc_macro6bridge104_$LT$impl$u20$proc_macro..bridge..rpc..Encode$LT$S$GT$$u20$for$u20$core..result..Result$LT$T$C$E$GT$$GT$6encode17hffbfaebceef401f5E@4HA"
.LBB6_7:
	movq	%rdx, 16(%rsp)
	pushq	%rbp
	.seh_pushreg %rbp
	subq	$32, %rsp
	.seh_stackalloc 32
	leaq	128(%rdx), %rbp
	.seh_endprologue
	.cv_loc	16 3 63 0
	addq	$32, %rsp
	popq	%rbp
	retq
	.seh_handlerdata
	.section	.text,"xr",one_only,_ZN10proc_macro6bridge104_$LT$impl$u20$proc_macro..bridge..rpc..Encode$LT$S$GT$$u20$for$u20$core..result..Result$LT$T$C$E$GT$$GT$6encode17hffbfaebceef401f5E
	.seh_endproc
	.def	"?dtor$10@?0?_ZN10proc_macro6bridge104_$LT$impl$u20$proc_macro..bridge..rpc..Encode$LT$S$GT$$u20$for$u20$core..result..Result$LT$T$C$E$GT$$GT$6encode17hffbfaebceef401f5E@4HA";
	.scl	3;
	.type	32;
	.endef
	.p2align	4, 0x90
"?dtor$10@?0?_ZN10proc_macro6bridge104_$LT$impl$u20$proc_macro..bridge..rpc..Encode$LT$S$GT$$u20$for$u20$core..result..Result$LT$T$C$E$GT$$GT$6encode17hffbfaebceef401f5E@4HA":
.seh_proc "?dtor$10@?0?_ZN10proc_macro6bridge104_$LT$impl$u20$proc_macro..bridge..rpc..Encode$LT$S$GT$$u20$for$u20$core..result..Result$LT$T$C$E$GT$$GT$6encode17hffbfaebceef401f5E@4HA"
.LBB6_10:
.Ltmp89:
	movq	%rdx, 16(%rsp)
	pushq	%rbp
	.seh_pushreg %rbp
	subq	$32, %rsp
	.seh_stackalloc 32
	leaq	128(%rdx), %rbp
.Ltmp90:
	.seh_endprologue
	.cv_loc	16 3 77 0
	testb	$1, 6(%rbp)
	jne	.LBB6_14
	jmp	.LBB6_13
.LBB6_13:
	addq	$32, %rsp
	popq	%rbp
	retq
.LBB6_14:
	leaq	-64(%rbp), %rcx
	callq	_ZN4core3ptr58drop_in_place$LT$proc_macro..bridge..rpc..PanicMessage$GT$17ha9a53101a520b8c2E
	nop
	addq	$32, %rsp
	popq	%rbp
	retq
.Ltmp91:
.Lfunc_end6:
	.seh_handlerdata
	.section	.text,"xr",one_only,_ZN10proc_macro6bridge104_$LT$impl$u20$proc_macro..bridge..rpc..Encode$LT$S$GT$$u20$for$u20$core..result..Result$LT$T$C$E$GT$$GT$6encode17hffbfaebceef401f5E
	.seh_endproc
	.section	.xdata,"dr",associative,_ZN10proc_macro6bridge104_$LT$impl$u20$proc_macro..bridge..rpc..Encode$LT$S$GT$$u20$for$u20$core..result..Result$LT$T$C$E$GT$$GT$6encode17hffbfaebceef401f5E
	.p2align	2, 0x0
$cppxdata$_ZN10proc_macro6bridge104_$LT$impl$u20$proc_macro..bridge..rpc..Encode$LT$S$GT$$u20$for$u20$core..result..Result$LT$T$C$E$GT$$GT$6encode17hffbfaebceef401f5E:
	.long	429065506
	.long	3
	.long	($stateUnwindMap$_ZN10proc_macro6bridge104_$LT$impl$u20$proc_macro..bridge..rpc..Encode$LT$S$GT$$u20$for$u20$core..result..Result$LT$T$C$E$GT$$GT$6encode17hffbfaebceef401f5E)@IMGREL
	.long	0
	.long	0
	.long	6
	.long	($ip2state$_ZN10proc_macro6bridge104_$LT$impl$u20$proc_macro..bridge..rpc..Encode$LT$S$GT$$u20$for$u20$core..result..Result$LT$T$C$E$GT$$GT$6encode17hffbfaebceef401f5E)@IMGREL
	.long	152
	.long	0
	.long	1
$stateUnwindMap$_ZN10proc_macro6bridge104_$LT$impl$u20$proc_macro..bridge..rpc..Encode$LT$S$GT$$u20$for$u20$core..result..Result$LT$T$C$E$GT$$GT$6encode17hffbfaebceef401f5E:
	.long	-1
	.long	"?dtor$7@?0?_ZN10proc_macro6bridge104_$LT$impl$u20$proc_macro..bridge..rpc..Encode$LT$S$GT$$u20$for$u20$core..result..Result$LT$T$C$E$GT$$GT$6encode17hffbfaebceef401f5E@4HA"@IMGREL
	.long	0
	.long	"?dtor$10@?0?_ZN10proc_macro6bridge104_$LT$impl$u20$proc_macro..bridge..rpc..Encode$LT$S$GT$$u20$for$u20$core..result..Result$LT$T$C$E$GT$$GT$6encode17hffbfaebceef401f5E@4HA"@IMGREL
	.long	0
	.long	"?dtor$3@?0?_ZN10proc_macro6bridge104_$LT$impl$u20$proc_macro..bridge..rpc..Encode$LT$S$GT$$u20$for$u20$core..result..Result$LT$T$C$E$GT$$GT$6encode17hffbfaebceef401f5E@4HA"@IMGREL
$ip2state$_ZN10proc_macro6bridge104_$LT$impl$u20$proc_macro..bridge..rpc..Encode$LT$S$GT$$u20$for$u20$core..result..Result$LT$T$C$E$GT$$GT$6encode17hffbfaebceef401f5E:
	.long	.Lfunc_begin6@IMGREL
	.long	-1
	.long	.Ltmp67@IMGREL+1
	.long	2
	.long	.Ltmp63@IMGREL+1
	.long	1
	.long	.Ltmp69@IMGREL+1
	.long	2
	.long	.Ltmp65@IMGREL+1
	.long	1
	.long	.Ltmp66@IMGREL+1
	.long	-1
	.section	.text,"xr",one_only,_ZN10proc_macro6bridge104_$LT$impl$u20$proc_macro..bridge..rpc..Encode$LT$S$GT$$u20$for$u20$core..result..Result$LT$T$C$E$GT$$GT$6encode17hffbfaebceef401f5E

	.def	_ZN10proc_macro6bridge11scoped_cell19ScopedCell$LT$T$GT$3set28_$u7b$$u7b$closure$u7d$$u7d$17hd5ad080c16f6c27bE;
	.scl	3;
	.type	32;
	.endef
	.section	.text,"xr",one_only,_ZN10proc_macro6bridge11scoped_cell19ScopedCell$LT$T$GT$3set28_$u7b$$u7b$closure$u7d$$u7d$17hd5ad080c16f6c27bE
	.p2align	4, 0x90
_ZN10proc_macro6bridge11scoped_cell19ScopedCell$LT$T$GT$3set28_$u7b$$u7b$closure$u7d$$u7d$17hd5ad080c16f6c27bE:
.Lfunc_begin7:
	.cv_func_id 19
	.cv_file	6 "C:\\Users\\cires\\.rustup\\toolchains\\nightly-x86_64-pc-windows-msvc\\lib\\rustlib\\src\\rust\\library\\proc_macro\\src\\bridge\\scoped_cell.rs" "0ADA021320BE44C57FC294B1D8A271551C921F85D81C25A43086333C708F67C3" 3
	.cv_loc	19 6 79 0
.seh_proc _ZN10proc_macro6bridge11scoped_cell19ScopedCell$LT$T$GT$3set28_$u7b$$u7b$closure$u7d$$u7d$17hd5ad080c16f6c27bE
	subq	$72, %rsp
	.seh_stackalloc 72
	.seh_endprologue
.Ltmp92:
	movq	%rdx, 64(%rsp)
.Ltmp93:
	movq	(%rcx), %rax
	movq	%rax, 40(%rsp)
	movq	8(%rcx), %rax
	movq	%rax, 48(%rsp)
	movq	16(%rcx), %rax
	movq	%rax, 56(%rsp)
	leaq	40(%rsp), %rcx
.Ltmp94:
	callq	_ZN10proc_macro6bridge6client10run_client28_$u7b$$u7b$closure$u7d$$u7d$28_$u7b$$u7b$closure$u7d$$u7d$28_$u7b$$u7b$closure$u7d$$u7d$17h44ccc3d850644ec9E
	nop
	addq	$72, %rsp
	retq
.Ltmp95:
.Lfunc_end7:
	.seh_endproc

	.def	_ZN10proc_macro6bridge11scoped_cell19ScopedCell$LT$T$GT$7replace17h7c49079a8134e1d4E;
	.scl	3;
	.type	32;
	.endef
	.section	.text,"xr",one_only,_ZN10proc_macro6bridge11scoped_cell19ScopedCell$LT$T$GT$7replace17h7c49079a8134e1d4E
	.p2align	4, 0x90
_ZN10proc_macro6bridge11scoped_cell19ScopedCell$LT$T$GT$7replace17h7c49079a8134e1d4E:
.Lfunc_begin8:
	.cv_func_id 20
	.cv_loc	20 6 46 0
.seh_proc _ZN10proc_macro6bridge11scoped_cell19ScopedCell$LT$T$GT$7replace17h7c49079a8134e1d4E
	.seh_handler __CxxFrameHandler3, @unwind, @except
	pushq	%rbp
	.seh_pushreg %rbp
	subq	$576, %rsp
	.seh_stackalloc 576
	leaq	128(%rsp), %rbp
	.seh_setframe %rbp, 128
	.seh_endprologue
	movq	$-2, 440(%rbp)
	movq	%r8, -88(%rbp)
.Ltmp104:
	movq	%rdx, %rax
	movq	-88(%rbp), %rdx
	movq	%rax, -80(%rbp)
	movq	%rcx, -72(%rbp)
	movq	%rcx, -64(%rbp)
	movq	%rax, 384(%rbp)
.Ltmp105:
	.cv_loc	20 6 65 0
	movb	$1, 383(%rbp)
	movb	$1, 382(%rbp)
	.cv_loc	20 6 67 0
	movq	%rax, 392(%rbp)
	.cv_loc	20 6 68 0
.Ltmp96:
	leaq	__unnamed_1(%rip), %r8
	leaq	192(%rbp), %rcx
	callq	_ZN4core3mem14transmute_copy17hebe1d69a1160b835E
.Ltmp97:
	jmp	.LBB8_2
.Ltmp106:
.LBB8_2:
	.cv_loc	20 6 69 0
	movq	-88(%rbp), %rdx
.Ltmp107:
	movb	$0, 383(%rbp)
	leaq	272(%rbp), %rcx
	movl	$80, %r8d
	callq	memcpy
	movq	-80(%rbp), %rdx
.Ltmp108:
	.cv_file	7 "C:\\Users\\cires\\.rustup\\toolchains\\nightly-x86_64-pc-windows-msvc\\lib\\rustlib\\src\\rust\\library\\core\\src\\cell.rs" "F361E7B72AAD703829C915AE7A816FE54ADFAE586D74161647D15BA8B251F1C3" 3
	.cv_inline_site_id 21 within 20 inlined_at 6 67 0
	.cv_loc	21 7 473 0
	movq	%rdx, 400(%rbp)
.Ltmp109:
	.cv_inline_site_id 22 within 21 inlined_at 7 473 0
	.cv_loc	22 7 2116 0
	movq	%rdx, 408(%rbp)
.Ltmp110:
	.cv_file	8 "C:\\Users\\cires\\.rustup\\toolchains\\nightly-x86_64-pc-windows-msvc\\lib\\rustlib\\src\\rust\\library\\core\\src\\ptr\\mod.rs" "CF94BF36447DDE68553E3D1F0BE7113713EE71A6230F398B17602AD5FCEAF4AD" 3
	.cv_file	9 "C:\\Users\\cires\\.rustup\\toolchains\\nightly-x86_64-pc-windows-msvc\\lib\\rustlib\\src\\rust\\library\\core\\src\\mem\\mod.rs" "5AE6D05D871989C00E4581AC115E2F441C20516B2EF086CA99C0995F78A04C5D" 3
	.cv_inline_site_id 23 within 22 inlined_at 9 921 0
	.cv_loc	23 8 1215 0
	leaq	112(%rbp), %rcx
	movl	$80, %r8d
	callq	memcpy
	movq	-80(%rbp), %rcx
.Ltmp111:
	.cv_inline_site_id 24 within 22 inlined_at 9 922 0
	.cv_loc	24 8 1415 0
	leaq	192(%rbp), %rdx
	movl	$80, %r8d
	callq	memcpy
.Ltmp112:
	.cv_loc	20 6 67 0
	leaq	32(%rbp), %rcx
	leaq	112(%rbp), %rdx
	movl	$80, %r8d
	callq	memcpy
	movq	-80(%rbp), %rax
	.cv_loc	20 6 65 0
	movq	%rax, 24(%rbp)
	leaq	-56(%rbp), %rcx
	leaq	32(%rbp), %rdx
	movl	$80, %r8d
	callq	memcpy
.Ltmp113:
	.cv_loc	20 6 74 0
	movb	$0, 382(%rbp)
	movb	$1, 381(%rbp)
	leaq	-56(%rbp), %rax
	movq	%rax, 416(%rbp)
.Ltmp114:
	.cv_file	10 "C:\\Users\\cires\\.rustup\\toolchains\\nightly-x86_64-pc-windows-msvc\\lib\\rustlib\\src\\rust\\library\\core\\src\\option.rs" "12124240B1F965DD168417814A12CCE8DD43E1D9E08B759163FDE39A0504C0F4" 3
	.cv_inline_site_id 25 within 20 inlined_at 6 74 0
	.cv_loc	25 10 703 0
	cmpq	$3, -56(%rbp)
	sete	%al
	testb	$1, %al
	jne	.LBB8_3
	jmp	.LBB8_4
.Ltmp115:
.LBB8_3:
	.cv_loc	25 10 705 0
	movq	$0, 368(%rbp)
	jmp	.LBB8_5
.Ltmp116:
.LBB8_4:
	.cv_loc	25 10 704 0
	leaq	-56(%rbp), %rax
	movq	%rax, 424(%rbp)
.Ltmp117:
	.cv_loc	25 10 704 0
	leaq	-56(%rbp), %rax
	movq	%rax, 368(%rbp)
.Ltmp118:
.LBB8_5:
	.cv_loc	25 10 929 0
	movq	368(%rbp), %rax
	cmpq	$0, %rax
	sete	%al
	testb	$1, %al
	jne	.LBB8_6
	jmp	.LBB8_7
.Ltmp119:
.LBB8_6:
	.cv_loc	25 10 931 0
.Ltmp102:
	leaq	__unnamed_2(%rip), %rcx
	leaq	__unnamed_3(%rip), %r8
	movl	$43, %edx
	callq	_ZN4core9panicking5panic17hb11f2d409f96600eE
.Ltmp103:
	jmp	.LBB8_9
.Ltmp120:
.LBB8_7:
	.cv_loc	25 10 930 0
	movq	-72(%rbp), %rcx
	movq	368(%rbp), %rax
	movq	%rax, 432(%rbp)
.Ltmp121:
	.cv_loc	20 6 74 0
	movq	%rax, 360(%rbp)
	movq	360(%rbp), %rax
	movq	%rax, 352(%rbp)
	movb	$0, 381(%rbp)
	movq	352(%rbp), %rdx
.Ltmp98:
	callq	_ZN10proc_macro6bridge6client11BridgeState4with28_$u7b$$u7b$closure$u7d$$u7d$28_$u7b$$u7b$closure$u7d$$u7d$17h7d0f316f7677b87aE
.Ltmp99:
	jmp	.LBB8_10
.Ltmp122:
.LBB8_9:
	ud2
.Ltmp123:
.LBB8_10:
	.cv_loc	20 6 75 0
.Ltmp100:
	leaq	-56(%rbp), %rcx
	callq	_ZN4core3ptr145drop_in_place$LT$proc_macro..bridge..scoped_cell..ScopedCell$LT$T$GT$..replace..PutBackOnDrop$LT$proc_macro..bridge..client..BridgeStateL$GT$$GT$17h2718c67856f70fe3E
.Ltmp101:
	jmp	.LBB8_11
.Ltmp124:
.LBB8_11:
	movq	-64(%rbp), %rax
	addq	$576, %rsp
	popq	%rbp
	retq
.Ltmp125:
	.seh_handlerdata
	.long	($cppxdata$_ZN10proc_macro6bridge11scoped_cell19ScopedCell$LT$T$GT$7replace17h7c49079a8134e1d4E)@IMGREL
	.section	.text,"xr",one_only,_ZN10proc_macro6bridge11scoped_cell19ScopedCell$LT$T$GT$7replace17h7c49079a8134e1d4E
	.seh_endproc
	.def	"?dtor$1@?0?_ZN10proc_macro6bridge11scoped_cell19ScopedCell$LT$T$GT$7replace17h7c49079a8134e1d4E@4HA";
	.scl	3;
	.type	32;
	.endef
	.p2align	4, 0x90
"?dtor$1@?0?_ZN10proc_macro6bridge11scoped_cell19ScopedCell$LT$T$GT$7replace17h7c49079a8134e1d4E@4HA":
.seh_proc "?dtor$1@?0?_ZN10proc_macro6bridge11scoped_cell19ScopedCell$LT$T$GT$7replace17h7c49079a8134e1d4E@4HA"
.LBB8_1:
	movq	%rdx, 16(%rsp)
	pushq	%rbp
	.seh_pushreg %rbp
	subq	$32, %rsp
	.seh_stackalloc 32
	leaq	128(%rdx), %rbp
	.seh_endprologue
	testb	$1, 382(%rbp)
	jne	.LBB8_15
	jmp	.LBB8_14
.LBB8_14:
	testb	$1, 383(%rbp)
	jne	.LBB8_17
	jmp	.LBB8_16
.LBB8_15:
	jmp	.LBB8_14
.LBB8_16:
	.cv_loc	20 6 46 0
	addq	$32, %rsp
	popq	%rbp
	retq
.LBB8_17:
	.cv_loc	20 6 75 0
	movq	-88(%rbp), %rcx
	callq	_ZN4core3ptr60drop_in_place$LT$proc_macro..bridge..client..BridgeState$GT$17h8c8c392b23d1274aE
	jmp	.LBB8_16
	.seh_handlerdata
	.section	.text,"xr",one_only,_ZN10proc_macro6bridge11scoped_cell19ScopedCell$LT$T$GT$7replace17h7c49079a8134e1d4E
	.seh_endproc
	.def	"?dtor$8@?0?_ZN10proc_macro6bridge11scoped_cell19ScopedCell$LT$T$GT$7replace17h7c49079a8134e1d4E@4HA";
	.scl	3;
	.type	32;
	.endef
	.p2align	4, 0x90
"?dtor$8@?0?_ZN10proc_macro6bridge11scoped_cell19ScopedCell$LT$T$GT$7replace17h7c49079a8134e1d4E@4HA":
.seh_proc "?dtor$8@?0?_ZN10proc_macro6bridge11scoped_cell19ScopedCell$LT$T$GT$7replace17h7c49079a8134e1d4E@4HA"
.LBB8_8:
.Ltmp126:
	movq	%rdx, 16(%rsp)
	pushq	%rbp
	.seh_pushreg %rbp
	subq	$32, %rsp
	.seh_stackalloc 32
	leaq	128(%rdx), %rbp
.Ltmp127:
	.seh_endprologue
.Ltmp128:
	.cv_loc	20 6 74 0
	testb	$1, 381(%rbp)
	jne	.LBB8_13
	jmp	.LBB8_12
.Ltmp129:
.LBB8_12:
	.cv_loc	20 6 75 0
	leaq	-56(%rbp), %rcx
	callq	_ZN4core3ptr145drop_in_place$LT$proc_macro..bridge..scoped_cell..ScopedCell$LT$T$GT$..replace..PutBackOnDrop$LT$proc_macro..bridge..client..BridgeStateL$GT$$GT$17h2718c67856f70fe3E
	nop
	addq	$32, %rsp
	popq	%rbp
	retq
.LBB8_13:
.Ltmp130:
	.cv_loc	20 6 74 0
	jmp	.LBB8_12
.Ltmp131:
.Lfunc_end8:
	.seh_handlerdata
	.section	.text,"xr",one_only,_ZN10proc_macro6bridge11scoped_cell19ScopedCell$LT$T$GT$7replace17h7c49079a8134e1d4E
	.seh_endproc
	.section	.xdata,"dr",associative,_ZN10proc_macro6bridge11scoped_cell19ScopedCell$LT$T$GT$7replace17h7c49079a8134e1d4E
	.p2align	2, 0x0
$cppxdata$_ZN10proc_macro6bridge11scoped_cell19ScopedCell$LT$T$GT$7replace17h7c49079a8134e1d4E:
	.long	429065506
	.long	2
	.long	($stateUnwindMap$_ZN10proc_macro6bridge11scoped_cell19ScopedCell$LT$T$GT$7replace17h7c49079a8134e1d4E)@IMGREL
	.long	0
	.long	0
	.long	6
	.long	($ip2state$_ZN10proc_macro6bridge11scoped_cell19ScopedCell$LT$T$GT$7replace17h7c49079a8134e1d4E)@IMGREL
	.long	568
	.long	0
	.long	1
$stateUnwindMap$_ZN10proc_macro6bridge11scoped_cell19ScopedCell$LT$T$GT$7replace17h7c49079a8134e1d4E:
	.long	-1
	.long	"?dtor$1@?0?_ZN10proc_macro6bridge11scoped_cell19ScopedCell$LT$T$GT$7replace17h7c49079a8134e1d4E@4HA"@IMGREL
	.long	0
	.long	"?dtor$8@?0?_ZN10proc_macro6bridge11scoped_cell19ScopedCell$LT$T$GT$7replace17h7c49079a8134e1d4E@4HA"@IMGREL
$ip2state$_ZN10proc_macro6bridge11scoped_cell19ScopedCell$LT$T$GT$7replace17h7c49079a8134e1d4E:
	.long	.Lfunc_begin8@IMGREL
	.long	-1
	.long	.Ltmp96@IMGREL+1
	.long	0
	.long	.Ltmp97@IMGREL+1
	.long	-1
	.long	.Ltmp102@IMGREL+1
	.long	1
	.long	.Ltmp100@IMGREL+1
	.long	0
	.long	.Ltmp101@IMGREL+1
	.long	-1
	.section	.text,"xr",one_only,_ZN10proc_macro6bridge11scoped_cell19ScopedCell$LT$T$GT$7replace17h7c49079a8134e1d4E

	.def	_ZN10proc_macro6bridge11scoped_cell19ScopedCell$LT$T$GT$7replace17h838c1e419258e3c3E;
	.scl	3;
	.type	32;
	.endef
	.section	.text,"xr",one_only,_ZN10proc_macro6bridge11scoped_cell19ScopedCell$LT$T$GT$7replace17h838c1e419258e3c3E
	.p2align	4, 0x90
_ZN10proc_macro6bridge11scoped_cell19ScopedCell$LT$T$GT$7replace17h838c1e419258e3c3E:
.Lfunc_begin9:
	.cv_func_id 26
	.cv_loc	26 6 46 0
.seh_proc _ZN10proc_macro6bridge11scoped_cell19ScopedCell$LT$T$GT$7replace17h838c1e419258e3c3E
	.seh_handler __CxxFrameHandler3, @unwind, @except
	pushq	%rbp
	.seh_pushreg %rbp
	subq	$592, %rsp
	.seh_stackalloc 592
	leaq	128(%rsp), %rbp
	.seh_setframe %rbp, 128
	.seh_endprologue
	movq	$-2, 456(%rbp)
	movq	%r8, -88(%rbp)
.Ltmp140:
	movq	%rdx, -80(%rbp)
.Ltmp141:
	movq	%rcx, -72(%rbp)
	movq	%rcx, 400(%rbp)
.Ltmp142:
	.cv_loc	26 6 65 0
	movb	$1, 399(%rbp)
	movb	$1, 398(%rbp)
	.cv_loc	26 6 67 0
	movq	%rcx, 408(%rbp)
	.cv_loc	26 6 68 0
.Ltmp132:
	leaq	__unnamed_1(%rip), %r8
.Ltmp143:
	leaq	184(%rbp), %rcx
	callq	_ZN4core3mem14transmute_copy17hebe1d69a1160b835E
.Ltmp144:
.Ltmp133:
	jmp	.LBB9_2
.Ltmp145:
.LBB9_2:
	.cv_loc	26 6 69 0
	movq	-80(%rbp), %rdx
.Ltmp146:
	movb	$0, 399(%rbp)
	leaq	264(%rbp), %rcx
	movl	$80, %r8d
	callq	memcpy
	movq	-72(%rbp), %rdx
.Ltmp147:
	.cv_inline_site_id 27 within 26 inlined_at 6 67 0
	.cv_loc	27 7 473 0
	movq	%rdx, 416(%rbp)
.Ltmp148:
	.cv_inline_site_id 28 within 27 inlined_at 7 473 0
	.cv_loc	28 7 2116 0
	movq	%rdx, 424(%rbp)
.Ltmp149:
	.cv_inline_site_id 29 within 28 inlined_at 9 921 0
	.cv_loc	29 8 1215 0
	leaq	104(%rbp), %rcx
	movl	$80, %r8d
	callq	memcpy
	movq	-72(%rbp), %rcx
.Ltmp150:
	.cv_inline_site_id 30 within 28 inlined_at 9 922 0
	.cv_loc	30 8 1415 0
	leaq	184(%rbp), %rdx
	movl	$80, %r8d
	callq	memcpy
.Ltmp151:
	.cv_loc	26 6 67 0
	leaq	24(%rbp), %rcx
	leaq	104(%rbp), %rdx
	movl	$80, %r8d
	callq	memcpy
	movq	-72(%rbp), %rax
	.cv_loc	26 6 65 0
	movq	%rax, 16(%rbp)
	leaq	-64(%rbp), %rcx
	leaq	24(%rbp), %rdx
	movl	$80, %r8d
	callq	memcpy
	movq	-88(%rbp), %rax
.Ltmp152:
	.cv_loc	26 6 74 0
	movb	$0, 398(%rbp)
	movb	$1, 397(%rbp)
	movq	(%rax), %rcx
	movq	%rcx, 344(%rbp)
	movq	8(%rax), %rcx
	movq	%rcx, 352(%rbp)
	movq	16(%rax), %rax
	movq	%rax, 360(%rbp)
	leaq	-64(%rbp), %rax
	movq	%rax, 432(%rbp)
.Ltmp153:
	.cv_inline_site_id 31 within 26 inlined_at 6 74 0
	.cv_loc	31 10 703 0
	cmpq	$3, -64(%rbp)
	sete	%al
	testb	$1, %al
	jne	.LBB9_3
	jmp	.LBB9_4
.Ltmp154:
.LBB9_3:
	.cv_loc	31 10 705 0
	movq	$0, 384(%rbp)
	jmp	.LBB9_5
.Ltmp155:
.LBB9_4:
	.cv_loc	31 10 704 0
	leaq	-64(%rbp), %rax
	movq	%rax, 440(%rbp)
.Ltmp156:
	.cv_loc	31 10 704 0
	leaq	-64(%rbp), %rax
	movq	%rax, 384(%rbp)
.Ltmp157:
.LBB9_5:
	.cv_loc	31 10 929 0
	movq	384(%rbp), %rax
	cmpq	$0, %rax
	sete	%al
	testb	$1, %al
	jne	.LBB9_6
	jmp	.LBB9_7
.Ltmp158:
.LBB9_6:
	.cv_loc	31 10 931 0
.Ltmp138:
	leaq	__unnamed_2(%rip), %rcx
	leaq	__unnamed_3(%rip), %r8
	movl	$43, %edx
	callq	_ZN4core9panicking5panic17hb11f2d409f96600eE
.Ltmp139:
	jmp	.LBB9_9
.Ltmp159:
.LBB9_7:
	.cv_loc	31 10 930 0
	movq	384(%rbp), %rax
	movq	%rax, 448(%rbp)
.Ltmp160:
	.cv_loc	26 6 74 0
	movq	%rax, 376(%rbp)
	movq	376(%rbp), %rax
	movq	%rax, 368(%rbp)
	movb	$0, 397(%rbp)
	movq	368(%rbp), %rdx
.Ltmp134:
	leaq	344(%rbp), %rcx
	callq	_ZN10proc_macro6bridge11scoped_cell19ScopedCell$LT$T$GT$3set28_$u7b$$u7b$closure$u7d$$u7d$17hd5ad080c16f6c27bE
.Ltmp135:
	jmp	.LBB9_10
.Ltmp161:
.LBB9_9:
	ud2
.Ltmp162:
.LBB9_10:
	.cv_loc	26 6 75 0
.Ltmp136:
	leaq	-64(%rbp), %rcx
	callq	_ZN4core3ptr145drop_in_place$LT$proc_macro..bridge..scoped_cell..ScopedCell$LT$T$GT$..replace..PutBackOnDrop$LT$proc_macro..bridge..client..BridgeStateL$GT$$GT$17h2718c67856f70fe3E
.Ltmp137:
	jmp	.LBB9_11
.Ltmp163:
.LBB9_11:
	addq	$592, %rsp
	popq	%rbp
	retq
.Ltmp164:
	.seh_handlerdata
	.long	($cppxdata$_ZN10proc_macro6bridge11scoped_cell19ScopedCell$LT$T$GT$7replace17h838c1e419258e3c3E)@IMGREL
	.section	.text,"xr",one_only,_ZN10proc_macro6bridge11scoped_cell19ScopedCell$LT$T$GT$7replace17h838c1e419258e3c3E
	.seh_endproc
	.def	"?dtor$1@?0?_ZN10proc_macro6bridge11scoped_cell19ScopedCell$LT$T$GT$7replace17h838c1e419258e3c3E@4HA";
	.scl	3;
	.type	32;
	.endef
	.p2align	4, 0x90
"?dtor$1@?0?_ZN10proc_macro6bridge11scoped_cell19ScopedCell$LT$T$GT$7replace17h838c1e419258e3c3E@4HA":
.seh_proc "?dtor$1@?0?_ZN10proc_macro6bridge11scoped_cell19ScopedCell$LT$T$GT$7replace17h838c1e419258e3c3E@4HA"
.LBB9_1:
	movq	%rdx, 16(%rsp)
	pushq	%rbp
	.seh_pushreg %rbp
	subq	$32, %rsp
	.seh_stackalloc 32
	leaq	128(%rdx), %rbp
	.seh_endprologue
	testb	$1, 398(%rbp)
	jne	.LBB9_15
	jmp	.LBB9_14
.LBB9_14:
	testb	$1, 399(%rbp)
	jne	.LBB9_17
	jmp	.LBB9_16
.LBB9_15:
	movq	-88(%rbp), %rcx
	callq	_ZN4core3ptr604drop_in_place$LT$proc_macro..bridge..scoped_cell..ScopedCell$LT$proc_macro..bridge..client..BridgeStateL$GT$..set$LT$$LP$$RP$$C$proc_macro..bridge..client..run_client$LT$proc_macro..bridge..client..TokenStream$C$core..option..Option$LT$proc_macro..bridge..client..TokenStream$GT$$C$proc_macro..bridge..client..Client$LT$proc_macro..TokenStream$C$proc_macro..TokenStream$GT$..expand1$LT$applause_derive..make_answer$GT$..$u7b$$u7b$closure$u7d$$u7d$..$u7b$$u7b$closure$u7d$$u7d$$GT$..$u7b$$u7b$closure$u7d$$u7d$..$u7b$$u7b$closure$u7d$$u7d$..$u7b$$u7b$closure$u7d$$u7d$$GT$..$u7b$$u7b$closure$u7d$$u7d$$GT$17h7040bf5788e3b25cE
	jmp	.LBB9_14
.LBB9_16:
	.cv_loc	26 6 46 0
	addq	$32, %rsp
	popq	%rbp
	retq
.LBB9_17:
	.cv_loc	26 6 75 0
	movq	-80(%rbp), %rcx
	callq	_ZN4core3ptr60drop_in_place$LT$proc_macro..bridge..client..BridgeState$GT$17h8c8c392b23d1274aE
	jmp	.LBB9_16
	.seh_handlerdata
	.section	.text,"xr",one_only,_ZN10proc_macro6bridge11scoped_cell19ScopedCell$LT$T$GT$7replace17h838c1e419258e3c3E
	.seh_endproc
	.def	"?dtor$8@?0?_ZN10proc_macro6bridge11scoped_cell19ScopedCell$LT$T$GT$7replace17h838c1e419258e3c3E@4HA";
	.scl	3;
	.type	32;
	.endef
	.p2align	4, 0x90
"?dtor$8@?0?_ZN10proc_macro6bridge11scoped_cell19ScopedCell$LT$T$GT$7replace17h838c1e419258e3c3E@4HA":
.seh_proc "?dtor$8@?0?_ZN10proc_macro6bridge11scoped_cell19ScopedCell$LT$T$GT$7replace17h838c1e419258e3c3E@4HA"
.LBB9_8:
.Ltmp165:
	movq	%rdx, 16(%rsp)
	pushq	%rbp
	.seh_pushreg %rbp
	subq	$32, %rsp
	.seh_stackalloc 32
	leaq	128(%rdx), %rbp
.Ltmp166:
	.seh_endprologue
.Ltmp167:
	.cv_loc	26 6 74 0
	testb	$1, 397(%rbp)
	jne	.LBB9_13
	jmp	.LBB9_12
.Ltmp168:
.LBB9_12:
	.cv_loc	26 6 75 0
	leaq	-64(%rbp), %rcx
	callq	_ZN4core3ptr145drop_in_place$LT$proc_macro..bridge..scoped_cell..ScopedCell$LT$T$GT$..replace..PutBackOnDrop$LT$proc_macro..bridge..client..BridgeStateL$GT$$GT$17h2718c67856f70fe3E
	nop
	addq	$32, %rsp
	popq	%rbp
	retq
.LBB9_13:
.Ltmp169:
	.cv_loc	26 6 74 0
	leaq	344(%rbp), %rcx
	callq	_ZN4core3ptr604drop_in_place$LT$proc_macro..bridge..scoped_cell..ScopedCell$LT$proc_macro..bridge..client..BridgeStateL$GT$..set$LT$$LP$$RP$$C$proc_macro..bridge..client..run_client$LT$proc_macro..bridge..client..TokenStream$C$core..option..Option$LT$proc_macro..bridge..client..TokenStream$GT$$C$proc_macro..bridge..client..Client$LT$proc_macro..TokenStream$C$proc_macro..TokenStream$GT$..expand1$LT$applause_derive..make_answer$GT$..$u7b$$u7b$closure$u7d$$u7d$..$u7b$$u7b$closure$u7d$$u7d$$GT$..$u7b$$u7b$closure$u7d$$u7d$..$u7b$$u7b$closure$u7d$$u7d$..$u7b$$u7b$closure$u7d$$u7d$$GT$..$u7b$$u7b$closure$u7d$$u7d$$GT$17h7040bf5788e3b25cE
	jmp	.LBB9_12
.Ltmp170:
.Lfunc_end9:
	.seh_handlerdata
	.section	.text,"xr",one_only,_ZN10proc_macro6bridge11scoped_cell19ScopedCell$LT$T$GT$7replace17h838c1e419258e3c3E
	.seh_endproc
	.section	.xdata,"dr",associative,_ZN10proc_macro6bridge11scoped_cell19ScopedCell$LT$T$GT$7replace17h838c1e419258e3c3E
	.p2align	2, 0x0
$cppxdata$_ZN10proc_macro6bridge11scoped_cell19ScopedCell$LT$T$GT$7replace17h838c1e419258e3c3E:
	.long	429065506
	.long	2
	.long	($stateUnwindMap$_ZN10proc_macro6bridge11scoped_cell19ScopedCell$LT$T$GT$7replace17h838c1e419258e3c3E)@IMGREL
	.long	0
	.long	0
	.long	6
	.long	($ip2state$_ZN10proc_macro6bridge11scoped_cell19ScopedCell$LT$T$GT$7replace17h838c1e419258e3c3E)@IMGREL
	.long	584
	.long	0
	.long	1
$stateUnwindMap$_ZN10proc_macro6bridge11scoped_cell19ScopedCell$LT$T$GT$7replace17h838c1e419258e3c3E:
	.long	-1
	.long	"?dtor$1@?0?_ZN10proc_macro6bridge11scoped_cell19ScopedCell$LT$T$GT$7replace17h838c1e419258e3c3E@4HA"@IMGREL
	.long	0
	.long	"?dtor$8@?0?_ZN10proc_macro6bridge11scoped_cell19ScopedCell$LT$T$GT$7replace17h838c1e419258e3c3E@4HA"@IMGREL
$ip2state$_ZN10proc_macro6bridge11scoped_cell19ScopedCell$LT$T$GT$7replace17h838c1e419258e3c3E:
	.long	.Lfunc_begin9@IMGREL
	.long	-1
	.long	.Ltmp132@IMGREL+1
	.long	0
	.long	.Ltmp133@IMGREL+1
	.long	-1
	.long	.Ltmp138@IMGREL+1
	.long	1
	.long	.Ltmp136@IMGREL+1
	.long	0
	.long	.Ltmp137@IMGREL+1
	.long	-1
	.section	.text,"xr",one_only,_ZN10proc_macro6bridge11scoped_cell19ScopedCell$LT$T$GT$7replace17h838c1e419258e3c3E

	.def	_ZN10proc_macro6bridge14selfless_reify31reify_to_extern_c_fn_hrt_bridge7wrapper17hcfc76a3aacd5e316E;
	.scl	3;
	.type	32;
	.endef
	.section	.text,"xr",one_only,_ZN10proc_macro6bridge14selfless_reify31reify_to_extern_c_fn_hrt_bridge7wrapper17hcfc76a3aacd5e316E
	.p2align	4, 0x90
_ZN10proc_macro6bridge14selfless_reify31reify_to_extern_c_fn_hrt_bridge7wrapper17hcfc76a3aacd5e316E:
.Lfunc_begin10:
	.cv_func_id 32
	.cv_file	11 "C:\\Users\\cires\\.rustup\\toolchains\\nightly-x86_64-pc-windows-msvc\\lib\\rustlib\\src\\rust\\library\\proc_macro\\src\\bridge\\selfless_reify.rs" "C5E1584AD3551F6949770A93669FD5D32BE1E7C316C4542ACA7A4452D7E2C9F3" 3
	.cv_loc	32 11 55 0
.seh_proc _ZN10proc_macro6bridge14selfless_reify31reify_to_extern_c_fn_hrt_bridge7wrapper17hcfc76a3aacd5e316E
	.seh_handler __CxxFrameHandler3, @unwind, @except
	pushq	%rbp
	.seh_pushreg %rbp
	subq	$192, %rsp
	.seh_stackalloc 192
	leaq	128(%rsp), %rbp
	.seh_setframe %rbp, 128
	.seh_endprologue
	movq	$-2, 56(%rbp)
	movq	%rcx, %rax
	movq	%rax, -96(%rbp)
.Ltmp173:
	.cv_loc	32 11 64 0
	vmovups	(%rdx), %ymm0
	vmovups	32(%rdx), %ymm1
	vmovups	%ymm1, 16(%rbp)
	vmovups	%ymm0, -16(%rbp)
	vmovups	-16(%rbp), %ymm0
	vmovups	16(%rbp), %ymm1
	vmovups	%ymm1, -48(%rbp)
	vmovups	%ymm0, -80(%rbp)
.Ltmp171:
	leaq	-81(%rbp), %rdx
.Ltmp174:
	leaq	-80(%rbp), %r8
	vzeroupper
	callq	_ZN10proc_macro6bridge6client63Client$LT$proc_macro..TokenStream$C$proc_macro..TokenStream$GT$7expand128_$u7b$$u7b$closure$u7d$$u7d$17h919647dcce366437E
.Ltmp172:
	jmp	.LBB10_2
.Ltmp175:
.LBB10_2:
	.cv_loc	32 11 65 0
	movq	-96(%rbp), %rax
	addq	$192, %rsp
	popq	%rbp
	retq
.Ltmp176:
	.seh_handlerdata
	.long	($cppxdata$_ZN10proc_macro6bridge14selfless_reify31reify_to_extern_c_fn_hrt_bridge7wrapper17hcfc76a3aacd5e316E)@IMGREL
	.section	.text,"xr",one_only,_ZN10proc_macro6bridge14selfless_reify31reify_to_extern_c_fn_hrt_bridge7wrapper17hcfc76a3aacd5e316E
	.seh_endproc
	.def	"?dtor$1@?0?_ZN10proc_macro6bridge14selfless_reify31reify_to_extern_c_fn_hrt_bridge7wrapper17hcfc76a3aacd5e316E@4HA";
	.scl	3;
	.type	32;
	.endef
	.p2align	4, 0x90
"?dtor$1@?0?_ZN10proc_macro6bridge14selfless_reify31reify_to_extern_c_fn_hrt_bridge7wrapper17hcfc76a3aacd5e316E@4HA":
.seh_proc "?dtor$1@?0?_ZN10proc_macro6bridge14selfless_reify31reify_to_extern_c_fn_hrt_bridge7wrapper17hcfc76a3aacd5e316E@4HA"
.LBB10_1:
	movq	%rdx, 16(%rsp)
	pushq	%rbp
	.seh_pushreg %rbp
	subq	$32, %rsp
	.seh_stackalloc 32
	leaq	128(%rdx), %rbp
	.seh_endprologue
	.cv_loc	32 11 55 0
	addq	$32, %rsp
	popq	%rbp
	retq
.Ltmp177:
.Lfunc_end10:
	.seh_handlerdata
	.section	.text,"xr",one_only,_ZN10proc_macro6bridge14selfless_reify31reify_to_extern_c_fn_hrt_bridge7wrapper17hcfc76a3aacd5e316E
	.seh_endproc
	.section	.xdata,"dr",associative,_ZN10proc_macro6bridge14selfless_reify31reify_to_extern_c_fn_hrt_bridge7wrapper17hcfc76a3aacd5e316E
	.p2align	2, 0x0
$cppxdata$_ZN10proc_macro6bridge14selfless_reify31reify_to_extern_c_fn_hrt_bridge7wrapper17hcfc76a3aacd5e316E:
	.long	429065506
	.long	1
	.long	($stateUnwindMap$_ZN10proc_macro6bridge14selfless_reify31reify_to_extern_c_fn_hrt_bridge7wrapper17hcfc76a3aacd5e316E)@IMGREL
	.long	0
	.long	0
	.long	3
	.long	($ip2state$_ZN10proc_macro6bridge14selfless_reify31reify_to_extern_c_fn_hrt_bridge7wrapper17hcfc76a3aacd5e316E)@IMGREL
	.long	184
	.long	0
	.long	1
$stateUnwindMap$_ZN10proc_macro6bridge14selfless_reify31reify_to_extern_c_fn_hrt_bridge7wrapper17hcfc76a3aacd5e316E:
	.long	-1
	.long	"?dtor$1@?0?_ZN10proc_macro6bridge14selfless_reify31reify_to_extern_c_fn_hrt_bridge7wrapper17hcfc76a3aacd5e316E@4HA"@IMGREL
$ip2state$_ZN10proc_macro6bridge14selfless_reify31reify_to_extern_c_fn_hrt_bridge7wrapper17hcfc76a3aacd5e316E:
	.long	.Lfunc_begin10@IMGREL
	.long	-1
	.long	.Ltmp171@IMGREL+1
	.long	0
	.long	.Ltmp172@IMGREL+1
	.long	-1
	.section	.text,"xr",one_only,_ZN10proc_macro6bridge14selfless_reify31reify_to_extern_c_fn_hrt_bridge7wrapper17hcfc76a3aacd5e316E

	.def	_ZN10proc_macro6bridge3rpc12PanicMessage6as_str17hcde766de941edbbdE;
	.scl	3;
	.type	32;
	.endef
	.section	.text,"xr",one_only,_ZN10proc_macro6bridge3rpc12PanicMessage6as_str17hcde766de941edbbdE
	.p2align	4, 0x90
_ZN10proc_macro6bridge3rpc12PanicMessage6as_str17hcde766de941edbbdE:
.Lfunc_begin11:
	.cv_func_id 33
	.cv_loc	33 3 281 0
.seh_proc _ZN10proc_macro6bridge3rpc12PanicMessage6as_str17hcde766de941edbbdE
	subq	$160, %rsp
	.seh_stackalloc 160
	.seh_endprologue
	movq	%rcx, (%rsp)
	movq	%rcx, 64(%rsp)
.Ltmp178:
	.cv_loc	33 3 282 0
	movq	(%rcx), %rcx
	movabsq	$-9223372036854775808, %rax
	addq	%rax, %rcx
	movq	%rcx, %rax
	subq	$3, %rax
	movl	$1, %eax
	cmovbq	%rcx, %rax
	movq	%rax, 8(%rsp)
	testq	%rax, %rax
	je	.LBB11_2
	jmp	.LBB11_6
.LBB11_6:
	movq	8(%rsp), %rax
	subq	$1, %rax
	je	.LBB11_3
	jmp	.LBB11_7
.LBB11_7:
	jmp	.LBB11_4
	ud2
.LBB11_2:
	.cv_loc	33 3 283 0
	movq	(%rsp), %rax
	movq	%rax, %rcx
	addq	$8, %rcx
	movq	%rcx, 72(%rsp)
.Ltmp179:
	.cv_loc	33 3 283 0
	movq	8(%rax), %rcx
	movq	16(%rax), %rax
	movq	%rcx, 16(%rsp)
	movq	%rax, 24(%rsp)
.Ltmp180:
	.cv_loc	33 3 283 0
	jmp	.LBB11_5
.LBB11_3:
	.cv_loc	33 3 284 0
	movq	(%rsp), %rax
	movq	%rax, 80(%rsp)
.Ltmp181:
	.cv_loc	33 3 284 0
	movq	%rax, 88(%rsp)
.Ltmp182:
	.cv_file	12 "C:\\Users\\cires\\.rustup\\toolchains\\nightly-x86_64-pc-windows-msvc\\lib\\rustlib\\src\\rust\\library\\alloc\\src\\string.rs" "3A1B3D843B8E31B518DA52312DB09D52A742B4A5851C653690838CA5FBEB3431" 3
	.cv_inline_site_id 34 within 33 inlined_at 3 284 0
	.cv_loc	34 12 2535 0
	movq	%rax, 96(%rsp)
.Ltmp183:
	.cv_file	13 "C:\\Users\\cires\\.rustup\\toolchains\\nightly-x86_64-pc-windows-msvc\\lib\\rustlib\\src\\rust\\library\\alloc\\src\\vec\\mod.rs" "45EB6C69E9A75B46157A64F4082FA6298674AEDCDDD265CEFA6F2D7C61A91258" 3
	.cv_inline_site_id 35 within 34 inlined_at 12 2535 0
	.cv_inline_site_id 36 within 35 inlined_at 13 2705 0
	.cv_loc	36 13 1268 0
	movq	%rax, 104(%rsp)
.Ltmp184:
	.cv_file	14 "C:\\Users\\cires\\.rustup\\toolchains\\nightly-x86_64-pc-windows-msvc\\lib\\rustlib\\src\\rust\\library\\alloc\\src\\raw_vec.rs" "085722707661E98778E1478C684F3BCE919C1DF7EDCD7F813D5E096536C514B0" 3
	.cv_inline_site_id 37 within 36 inlined_at 13 1268 0
	.cv_loc	37 14 239 0
	movq	8(%rax), %rcx
	movq	%rcx, 112(%rsp)
.Ltmp185:
	.cv_loc	36 13 1268 0
	movq	%rcx, 120(%rsp)
.Ltmp186:
	.cv_loc	35 13 2705 0
	movq	16(%rax), %rax
	movq	%rax, 128(%rsp)
.Ltmp187:
	.cv_file	15 "C:\\Users\\cires\\.rustup\\toolchains\\nightly-x86_64-pc-windows-msvc\\lib\\rustlib\\src\\rust\\library\\core\\src\\ptr\\const_ptr.rs" "F0360D3F2296DEE7338D68BE058E80E53262E75CBF71F22FFD5EEEFDCB062336" 3
	.cv_file	16 "C:\\Users\\cires\\.rustup\\toolchains\\nightly-x86_64-pc-windows-msvc\\lib\\rustlib\\src\\rust\\library\\core\\src\\slice\\raw.rs" "3EF57ABDC32B00C5A5B7962F41991D9A9793D9ACF1959D20FA306AA1CE1E436F" 3
	.cv_inline_site_id 38 within 36 inlined_at 16 102 0
	.cv_inline_site_id 39 within 38 inlined_at 8 771 0
	.cv_loc	39 15 61 0
	movq	%rcx, 136(%rsp)
.Ltmp188:
	.cv_file	17 "C:\\Users\\cires\\.rustup\\toolchains\\nightly-x86_64-pc-windows-msvc\\lib\\rustlib\\src\\rust\\library\\core\\src\\ptr\\metadata.rs" "B73300BBEE789BA7B36A5A591204699AE9A6EFE1AA6B88A028F5A499CB7728B1" 3
	.cv_loc	39 17 118 0
	movq	%rcx, 48(%rsp)
	movq	%rax, 56(%rsp)
	movq	48(%rsp), %rcx
	movq	56(%rsp), %rax
	movq	%rcx, 32(%rsp)
	movq	%rax, 40(%rsp)
	movq	32(%rsp), %rcx
	movq	40(%rsp), %rax
	movq	%rcx, 144(%rsp)
	movq	%rax, 152(%rsp)
.Ltmp189:
	.cv_loc	33 3 284 0
	movq	%rcx, 16(%rsp)
	movq	%rax, 24(%rsp)
.Ltmp190:
	.cv_loc	33 3 284 0
	jmp	.LBB11_5
.LBB11_4:
	.cv_loc	33 3 285 0
	movq	$0, 16(%rsp)
.LBB11_5:
	.cv_loc	33 3 287 0
	movq	16(%rsp), %rax
	movq	24(%rsp), %rdx
	addq	$160, %rsp
	retq
.Ltmp191:
.Lfunc_end11:
	.seh_endproc

	.def	_ZN10proc_macro6bridge6buffer6Buffer17extend_from_array17h5e0b7fd3bae46872E;
	.scl	3;
	.type	32;
	.endef
	.section	.text,"xr",one_only,_ZN10proc_macro6bridge6buffer6Buffer17extend_from_array17h5e0b7fd3bae46872E
	.p2align	4, 0x90
_ZN10proc_macro6bridge6buffer6Buffer17extend_from_array17h5e0b7fd3bae46872E:
.Lfunc_begin12:
	.cv_func_id 40
	.cv_file	18 "C:\\Users\\cires\\.rustup\\toolchains\\nightly-x86_64-pc-windows-msvc\\lib\\rustlib\\src\\rust\\library\\proc_macro\\src\\bridge\\buffer.rs" "4EFC23E0764EDC55765BADADC94C17E37B4D183D8153D815C0D33459312C5975" 3
	.cv_loc	40 18 63 0
.seh_proc _ZN10proc_macro6bridge6buffer6Buffer17extend_from_array17h5e0b7fd3bae46872E
	.seh_handler __CxxFrameHandler3, @unwind, @except
	pushq	%rbp
	.seh_pushreg %rbp
	subq	$416, %rsp
	.seh_stackalloc 416
	leaq	128(%rsp), %rbp
	.seh_setframe %rbp, 128
	.seh_endprologue
	movq	$-2, 280(%rbp)
	movq	%rdx, -96(%rbp)
	movq	%rcx, %rax
	movq	%rax, -88(%rbp)
	movq	%rax, 112(%rbp)
	movq	%rdx, 120(%rbp)
.Ltmp196:
	.cv_loc	40 18 64 0
	movq	16(%rax), %rcx
	subq	8(%rax), %rcx
	movl	$8, %eax
	cmpq	%rcx, %rax
	ja	.LBB12_2
	jmp	.LBB12_3
.LBB12_2:
	.cv_inline_site_id 41 within 40 inlined_at 18 65 0
	.cv_inline_site_id 42 within 41 inlined_at 18 55 0
	.cv_inline_site_id 43 within 42 inlined_at 9 846 0
	.cv_file	19 "C:\\Users\\cires\\.rustup\\toolchains\\nightly-x86_64-pc-windows-msvc\\lib\\rustlib\\src\\rust\\library\\alloc\\src\\macros.rs" "6664BB503D48999F1BE542E4B06AEED8FA1A86E015E3CD972E05BD938A84EC3F" 3
	.cv_inline_site_id 44 within 43 inlined_at 19 44 0
	.cv_loc	44 13 423 0
	movq	-88(%rbp), %rax
.Ltmp197:
	movq	$0, 88(%rbp)
	movq	$1, 96(%rbp)
	movq	$0, 104(%rbp)
	leaq	88(%rbp), %rcx
.Ltmp198:
	.cv_inline_site_id 45 within 43 inlined_at 18 23 0
	.cv_loc	45 18 131 0
	movq	%rcx, 128(%rbp)
.Ltmp199:
	.cv_inline_site_id 46 within 45 inlined_at 18 131 0
	.cv_loc	46 13 1328 0
	movq	%rcx, 136(%rbp)
.Ltmp200:
	.cv_inline_site_id 47 within 46 inlined_at 13 1328 0
	.cv_loc	47 14 239 0
	movq	96(%rbp), %r8
	movq	%r8, 144(%rbp)
.Ltmp201:
	.cv_file	20 "C:\\Users\\cires\\.rustup\\toolchains\\nightly-x86_64-pc-windows-msvc\\lib\\rustlib\\src\\rust\\library\\core\\src\\ptr\\non_null.rs" "1070BE57346B198293BECABED218EC6AB96C5FD52CF4B7B218E5C67F25237B37" 3
	.cv_inline_site_id 48 within 47 inlined_at 14 239 0
	.cv_file	21 "C:\\Users\\cires\\.rustup\\toolchains\\nightly-x86_64-pc-windows-msvc\\lib\\rustlib\\src\\rust\\library\\core\\src\\ptr\\unique.rs" "1AE163E6DA378F2E1087447C58E5BF9FE8E452E126F5253D24AE33363AEBA869" 3
	.cv_inline_site_id 49 within 48 inlined_at 21 106 0
	.cv_loc	49 20 348 0
	movq	%r8, 152(%rbp)
.Ltmp202:
	.cv_loc	45 18 131 0
	movq	%rcx, 160(%rbp)
.Ltmp203:
	.cv_loc	46 13 2142 0
	movq	104(%rbp), %rdx
	movq	%rdx, 168(%rbp)
.Ltmp204:
	.cv_loc	45 18 131 0
	movq	%rcx, 176(%rbp)
.Ltmp205:
	.cv_loc	46 13 888 0
	movq	%rcx, 184(%rbp)
.Ltmp206:
	.cv_inline_site_id 50 within 46 inlined_at 13 888 0
	.cv_loc	50 14 247 0
	movq	88(%rbp), %rcx
	movq	%rcx, 192(%rbp)
.Ltmp207:
	.cv_loc	45 18 132 0
	movq	96(%rbp), %r9
	movq	%r9, 200(%rbp)
	movq	88(%rbp), %r9
	movq	%r9, 208(%rbp)
	movq	104(%rbp), %r9
	movq	%r9, 216(%rbp)
	.cv_loc	45 18 154 0
	movq	%r8, 48(%rbp)
	movq	%rdx, 56(%rbp)
	movq	%rcx, 64(%rbp)
	leaq	_ZN107_$LT$proc_macro..bridge..buffer..Buffer$u20$as$u20$core..convert..From$LT$alloc..vec..Vec$LT$u8$GT$$GT$$GT$4from7reserve17hab7807acea09da60E(%rip), %rcx
	movq	%rcx, 72(%rbp)
	leaq	_ZN107_$LT$proc_macro..bridge..buffer..Buffer$u20$as$u20$core..convert..From$LT$alloc..vec..Vec$LT$u8$GT$$GT$$GT$4from4drop17h12f6d13fd8920cb0E(%rip), %rcx
	movq	%rcx, 80(%rbp)
.Ltmp208:
	.cv_inline_site_id 51 within 43 inlined_at 9 921 0
	.cv_loc	51 8 1215 0
	movq	32(%rax), %rcx
	movq	%rcx, -48(%rbp)
	vmovups	(%rax), %ymm0
	vmovups	%ymm0, -80(%rbp)
.Ltmp209:
	.cv_inline_site_id 52 within 43 inlined_at 9 922 0
	.cv_loc	52 8 1415 0
	movq	80(%rbp), %rcx
	movq	%rcx, 32(%rax)
	vmovups	48(%rbp), %ymm0
	vmovups	%ymm0, (%rax)
.Ltmp210:
	.cv_loc	40 18 66 0
	movq	-56(%rbp), %rax
	movq	-48(%rbp), %rcx
	movq	%rcx, 32(%rbp)
	vmovups	-80(%rbp), %ymm0
	vmovups	%ymm0, (%rbp)
.Ltmp192:
	leaq	-40(%rbp), %rcx
	movq	%rbp, %rdx
	movl	$8, %r8d
	vzeroupper
	callq	*%rax
.Ltmp193:
	jmp	.LBB12_5
.Ltmp211:
.LBB12_3:
	.cv_loc	40 18 69 0
	movq	-88(%rbp), %rax
	movq	-96(%rbp), %r8
	movq	%r8, 224(%rbp)
	movq	$8, 232(%rbp)
.Ltmp212:
	.cv_file	22 "C:\\Users\\cires\\.rustup\\toolchains\\nightly-x86_64-pc-windows-msvc\\lib\\rustlib\\src\\rust\\library\\core\\src\\slice\\mod.rs" "0E0E360A2710F3B81EC324E28536E3649EF96E2404C668C28A73DE7BAEA49773" 3
	.cv_inline_site_id 53 within 40 inlined_at 18 69 0
	.cv_loc	53 22 743 0
	movq	%r8, 240(%rbp)
.Ltmp213:
	.cv_loc	40 18 69 0
	movq	(%rax), %rcx
	movq	%rcx, 248(%rbp)
	movq	8(%rax), %rdx
	movq	%rdx, 256(%rbp)
.Ltmp214:
	.cv_file	23 "C:\\Users\\cires\\.rustup\\toolchains\\nightly-x86_64-pc-windows-msvc\\lib\\rustlib\\src\\rust\\library\\core\\src\\ptr\\mut_ptr.rs" "02134F1CE201AD9446CDC6921FC01AB4432EDF9C75E4142BDD33077E3237FE8F" 3
	.cv_loc	53 23 1045 0
	movq	%rcx, %r9
	addq	%rdx, %r9
	movq	%r9, 264(%rbp)
.Ltmp215:
	.cv_loc	40 18 69 0
	movq	$8, 272(%rbp)
.Ltmp216:
	.cv_file	24 "C:\\Users\\cires\\.rustup\\toolchains\\nightly-x86_64-pc-windows-msvc\\lib\\rustlib\\src\\rust\\library\\core\\src\\intrinsics.rs" "4D5D479C3742396B8E97E9E6BDB7B215AAC129B8DD20460073E53BF8F3BA1FD5" 3
	.cv_inline_site_id 54 within 53 inlined_at 15 1316 0
	.cv_loc	54 24 2702 0
	movq	(%r8), %r8
	movq	%r8, (%rcx,%rdx)
.Ltmp217:
	.cv_loc	40 18 70 0
	movq	8(%rax), %rcx
	addq	$8, %rcx
	movq	%rcx, 8(%rax)
	.cv_loc	40 18 72 0
	addq	$416, %rsp
	popq	%rbp
	retq
.LBB12_5:
	.cv_loc	40 18 66 0
.Ltmp194:
	movq	-88(%rbp), %rcx
.Ltmp218:
	callq	_ZN4core3ptr55drop_in_place$LT$proc_macro..bridge..buffer..Buffer$GT$17h8ea12942c7ae266dE
.Ltmp195:
	jmp	.LBB12_7
.LBB12_7:
	movq	-88(%rbp), %rcx
	leaq	-40(%rbp), %rdx
	movl	$40, %r8d
	callq	memcpy
.Ltmp219:
	.cv_loc	40 18 64 0
	jmp	.LBB12_3
	.seh_handlerdata
	.long	($cppxdata$_ZN10proc_macro6bridge6buffer6Buffer17extend_from_array17h5e0b7fd3bae46872E)@IMGREL
	.section	.text,"xr",one_only,_ZN10proc_macro6bridge6buffer6Buffer17extend_from_array17h5e0b7fd3bae46872E
	.seh_endproc
	.def	"?dtor$4@?0?_ZN10proc_macro6bridge6buffer6Buffer17extend_from_array17h5e0b7fd3bae46872E@4HA";
	.scl	3;
	.type	32;
	.endef
	.p2align	4, 0x90
"?dtor$4@?0?_ZN10proc_macro6bridge6buffer6Buffer17extend_from_array17h5e0b7fd3bae46872E@4HA":
.seh_proc "?dtor$4@?0?_ZN10proc_macro6bridge6buffer6Buffer17extend_from_array17h5e0b7fd3bae46872E@4HA"
.LBB12_4:
	movq	%rdx, 16(%rsp)
	pushq	%rbp
	.seh_pushreg %rbp
	subq	$32, %rsp
	.seh_stackalloc 32
	leaq	128(%rdx), %rbp
	.seh_endprologue
	addq	$32, %rsp
	popq	%rbp
	retq
	.seh_handlerdata
	.section	.text,"xr",one_only,_ZN10proc_macro6bridge6buffer6Buffer17extend_from_array17h5e0b7fd3bae46872E
	.seh_endproc
	.def	"?dtor$6@?0?_ZN10proc_macro6bridge6buffer6Buffer17extend_from_array17h5e0b7fd3bae46872E@4HA";
	.scl	3;
	.type	32;
	.endef
	.p2align	4, 0x90
"?dtor$6@?0?_ZN10proc_macro6bridge6buffer6Buffer17extend_from_array17h5e0b7fd3bae46872E@4HA":
.seh_proc "?dtor$6@?0?_ZN10proc_macro6bridge6buffer6Buffer17extend_from_array17h5e0b7fd3bae46872E@4HA"
.LBB12_6:
	movq	%rdx, 16(%rsp)
	pushq	%rbp
	.seh_pushreg %rbp
	subq	$32, %rsp
	.seh_stackalloc 32
	leaq	128(%rdx), %rbp
	.seh_endprologue
	movq	-88(%rbp), %rax
.Ltmp220:
	.cv_loc	40 18 66 0
	movq	-8(%rbp), %rcx
	movq	%rcx, 32(%rax)
	vmovups	-40(%rbp), %ymm0
	vmovups	%ymm0, (%rax)
	addq	$32, %rsp
	popq	%rbp
	vzeroupper
	retq
.Ltmp221:
	.seh_handlerdata
	.section	.text,"xr",one_only,_ZN10proc_macro6bridge6buffer6Buffer17extend_from_array17h5e0b7fd3bae46872E
	.seh_endproc
	.def	"?dtor$8@?0?_ZN10proc_macro6bridge6buffer6Buffer17extend_from_array17h5e0b7fd3bae46872E@4HA";
	.scl	3;
	.type	32;
	.endef
	.p2align	4, 0x90
"?dtor$8@?0?_ZN10proc_macro6bridge6buffer6Buffer17extend_from_array17h5e0b7fd3bae46872E@4HA":
.seh_proc "?dtor$8@?0?_ZN10proc_macro6bridge6buffer6Buffer17extend_from_array17h5e0b7fd3bae46872E@4HA"
.LBB12_8:
	movq	%rdx, 16(%rsp)
	pushq	%rbp
	.seh_pushreg %rbp
	subq	$32, %rsp
	.seh_stackalloc 32
	leaq	128(%rdx), %rbp
	.seh_endprologue
	.cv_loc	40 18 63 0
	addq	$32, %rsp
	popq	%rbp
	retq
.Ltmp222:
.Lfunc_end12:
	.seh_handlerdata
	.section	.text,"xr",one_only,_ZN10proc_macro6bridge6buffer6Buffer17extend_from_array17h5e0b7fd3bae46872E
	.seh_endproc
	.section	.xdata,"dr",associative,_ZN10proc_macro6bridge6buffer6Buffer17extend_from_array17h5e0b7fd3bae46872E
	.p2align	2, 0x0
$cppxdata$_ZN10proc_macro6bridge6buffer6Buffer17extend_from_array17h5e0b7fd3bae46872E:
	.long	429065506
	.long	3
	.long	($stateUnwindMap$_ZN10proc_macro6bridge6buffer6Buffer17extend_from_array17h5e0b7fd3bae46872E)@IMGREL
	.long	0
	.long	0
	.long	4
	.long	($ip2state$_ZN10proc_macro6bridge6buffer6Buffer17extend_from_array17h5e0b7fd3bae46872E)@IMGREL
	.long	408
	.long	0
	.long	1
$stateUnwindMap$_ZN10proc_macro6bridge6buffer6Buffer17extend_from_array17h5e0b7fd3bae46872E:
	.long	-1
	.long	"?dtor$8@?0?_ZN10proc_macro6bridge6buffer6Buffer17extend_from_array17h5e0b7fd3bae46872E@4HA"@IMGREL
	.long	0
	.long	"?dtor$4@?0?_ZN10proc_macro6bridge6buffer6Buffer17extend_from_array17h5e0b7fd3bae46872E@4HA"@IMGREL
	.long	0
	.long	"?dtor$6@?0?_ZN10proc_macro6bridge6buffer6Buffer17extend_from_array17h5e0b7fd3bae46872E@4HA"@IMGREL
$ip2state$_ZN10proc_macro6bridge6buffer6Buffer17extend_from_array17h5e0b7fd3bae46872E:
	.long	.Lfunc_begin12@IMGREL
	.long	-1
	.long	.Ltmp192@IMGREL+1
	.long	1
	.long	.Ltmp194@IMGREL+1
	.long	2
	.long	.Ltmp195@IMGREL+1
	.long	-1
	.section	.text,"xr",one_only,_ZN10proc_macro6bridge6buffer6Buffer17extend_from_array17h5e0b7fd3bae46872E

	.def	_ZN10proc_macro6bridge6buffer6Buffer17extend_from_array17hc94648884bdc0e9aE;
	.scl	3;
	.type	32;
	.endef
	.section	.text,"xr",one_only,_ZN10proc_macro6bridge6buffer6Buffer17extend_from_array17hc94648884bdc0e9aE
	.p2align	4, 0x90
_ZN10proc_macro6bridge6buffer6Buffer17extend_from_array17hc94648884bdc0e9aE:
.Lfunc_begin13:
	.cv_func_id 55
	.cv_loc	55 18 63 0
.seh_proc _ZN10proc_macro6bridge6buffer6Buffer17extend_from_array17hc94648884bdc0e9aE
	.seh_handler __CxxFrameHandler3, @unwind, @except
	pushq	%rbp
	.seh_pushreg %rbp
	subq	$416, %rsp
	.seh_stackalloc 416
	leaq	128(%rsp), %rbp
	.seh_setframe %rbp, 128
	.seh_endprologue
	movq	$-2, 280(%rbp)
	movq	%rdx, -96(%rbp)
	movq	%rcx, %rax
	movq	%rax, -88(%rbp)
	movq	%rax, 112(%rbp)
	movq	%rdx, 120(%rbp)
.Ltmp227:
	.cv_loc	55 18 64 0
	movq	16(%rax), %rcx
	subq	8(%rax), %rcx
	movl	$4, %eax
	cmpq	%rcx, %rax
	ja	.LBB13_2
	jmp	.LBB13_3
.LBB13_2:
	.cv_inline_site_id 56 within 55 inlined_at 18 65 0
	.cv_inline_site_id 57 within 56 inlined_at 18 55 0
	.cv_inline_site_id 58 within 57 inlined_at 9 846 0
	.cv_inline_site_id 59 within 58 inlined_at 19 44 0
	.cv_loc	59 13 423 0
	movq	-88(%rbp), %rax
.Ltmp228:
	movq	$0, 88(%rbp)
	movq	$1, 96(%rbp)
	movq	$0, 104(%rbp)
	leaq	88(%rbp), %rcx
.Ltmp229:
	.cv_inline_site_id 60 within 58 inlined_at 18 23 0
	.cv_loc	60 18 131 0
	movq	%rcx, 128(%rbp)
.Ltmp230:
	.cv_inline_site_id 61 within 60 inlined_at 18 131 0
	.cv_loc	61 13 1328 0
	movq	%rcx, 136(%rbp)
.Ltmp231:
	.cv_inline_site_id 62 within 61 inlined_at 13 1328 0
	.cv_loc	62 14 239 0
	movq	96(%rbp), %r8
	movq	%r8, 144(%rbp)
.Ltmp232:
	.cv_inline_site_id 63 within 62 inlined_at 14 239 0
	.cv_inline_site_id 64 within 63 inlined_at 21 106 0
	.cv_loc	64 20 348 0
	movq	%r8, 152(%rbp)
.Ltmp233:
	.cv_loc	60 18 131 0
	movq	%rcx, 160(%rbp)
.Ltmp234:
	.cv_loc	61 13 2142 0
	movq	104(%rbp), %rdx
	movq	%rdx, 168(%rbp)
.Ltmp235:
	.cv_loc	60 18 131 0
	movq	%rcx, 176(%rbp)
.Ltmp236:
	.cv_loc	61 13 888 0
	movq	%rcx, 184(%rbp)
.Ltmp237:
	.cv_inline_site_id 65 within 61 inlined_at 13 888 0
	.cv_loc	65 14 247 0
	movq	88(%rbp), %rcx
	movq	%rcx, 192(%rbp)
.Ltmp238:
	.cv_loc	60 18 132 0
	movq	96(%rbp), %r9
	movq	%r9, 200(%rbp)
	movq	88(%rbp), %r9
	movq	%r9, 208(%rbp)
	movq	104(%rbp), %r9
	movq	%r9, 216(%rbp)
	.cv_loc	60 18 154 0
	movq	%r8, 48(%rbp)
	movq	%rdx, 56(%rbp)
	movq	%rcx, 64(%rbp)
	leaq	_ZN107_$LT$proc_macro..bridge..buffer..Buffer$u20$as$u20$core..convert..From$LT$alloc..vec..Vec$LT$u8$GT$$GT$$GT$4from7reserve17hab7807acea09da60E(%rip), %rcx
	movq	%rcx, 72(%rbp)
	leaq	_ZN107_$LT$proc_macro..bridge..buffer..Buffer$u20$as$u20$core..convert..From$LT$alloc..vec..Vec$LT$u8$GT$$GT$$GT$4from4drop17h12f6d13fd8920cb0E(%rip), %rcx
	movq	%rcx, 80(%rbp)
.Ltmp239:
	.cv_inline_site_id 66 within 58 inlined_at 9 921 0
	.cv_loc	66 8 1215 0
	movq	32(%rax), %rcx
	movq	%rcx, -48(%rbp)
	vmovups	(%rax), %ymm0
	vmovups	%ymm0, -80(%rbp)
.Ltmp240:
	.cv_inline_site_id 67 within 58 inlined_at 9 922 0
	.cv_loc	67 8 1415 0
	movq	80(%rbp), %rcx
	movq	%rcx, 32(%rax)
	vmovups	48(%rbp), %ymm0
	vmovups	%ymm0, (%rax)
.Ltmp241:
	.cv_loc	55 18 66 0
	movq	-56(%rbp), %rax
	movq	-48(%rbp), %rcx
	movq	%rcx, 32(%rbp)
	vmovups	-80(%rbp), %ymm0
	vmovups	%ymm0, (%rbp)
.Ltmp223:
	leaq	-40(%rbp), %rcx
	movq	%rbp, %rdx
	movl	$4, %r8d
	vzeroupper
	callq	*%rax
.Ltmp224:
	jmp	.LBB13_5
.Ltmp242:
.LBB13_3:
	.cv_loc	55 18 69 0
	movq	-88(%rbp), %rax
	movq	-96(%rbp), %r8
	movq	%r8, 224(%rbp)
	movq	$4, 232(%rbp)
.Ltmp243:
	.cv_inline_site_id 68 within 55 inlined_at 18 69 0
	.cv_loc	68 22 743 0
	movq	%r8, 240(%rbp)
.Ltmp244:
	.cv_loc	55 18 69 0
	movq	(%rax), %rcx
	movq	%rcx, 248(%rbp)
	movq	8(%rax), %rdx
	movq	%rdx, 256(%rbp)
.Ltmp245:
	.cv_loc	68 23 1045 0
	movq	%rcx, %r9
	addq	%rdx, %r9
	movq	%r9, 264(%rbp)
.Ltmp246:
	.cv_loc	55 18 69 0
	movq	$4, 272(%rbp)
.Ltmp247:
	.cv_inline_site_id 69 within 68 inlined_at 15 1316 0
	.cv_loc	69 24 2702 0
	movl	(%r8), %r8d
	movl	%r8d, (%rcx,%rdx)
.Ltmp248:
	.cv_loc	55 18 70 0
	movq	8(%rax), %rcx
	addq	$4, %rcx
	movq	%rcx, 8(%rax)
	.cv_loc	55 18 72 0
	addq	$416, %rsp
	popq	%rbp
	retq
.LBB13_5:
	.cv_loc	55 18 66 0
.Ltmp225:
	movq	-88(%rbp), %rcx
.Ltmp249:
	callq	_ZN4core3ptr55drop_in_place$LT$proc_macro..bridge..buffer..Buffer$GT$17h8ea12942c7ae266dE
.Ltmp226:
	jmp	.LBB13_7
.LBB13_7:
	movq	-88(%rbp), %rcx
	leaq	-40(%rbp), %rdx
	movl	$40, %r8d
	callq	memcpy
.Ltmp250:
	.cv_loc	55 18 64 0
	jmp	.LBB13_3
	.seh_handlerdata
	.long	($cppxdata$_ZN10proc_macro6bridge6buffer6Buffer17extend_from_array17hc94648884bdc0e9aE)@IMGREL
	.section	.text,"xr",one_only,_ZN10proc_macro6bridge6buffer6Buffer17extend_from_array17hc94648884bdc0e9aE
	.seh_endproc
	.def	"?dtor$4@?0?_ZN10proc_macro6bridge6buffer6Buffer17extend_from_array17hc94648884bdc0e9aE@4HA";
	.scl	3;
	.type	32;
	.endef
	.p2align	4, 0x90
"?dtor$4@?0?_ZN10proc_macro6bridge6buffer6Buffer17extend_from_array17hc94648884bdc0e9aE@4HA":
.seh_proc "?dtor$4@?0?_ZN10proc_macro6bridge6buffer6Buffer17extend_from_array17hc94648884bdc0e9aE@4HA"
.LBB13_4:
	movq	%rdx, 16(%rsp)
	pushq	%rbp
	.seh_pushreg %rbp
	subq	$32, %rsp
	.seh_stackalloc 32
	leaq	128(%rdx), %rbp
	.seh_endprologue
	addq	$32, %rsp
	popq	%rbp
	retq
	.seh_handlerdata
	.section	.text,"xr",one_only,_ZN10proc_macro6bridge6buffer6Buffer17extend_from_array17hc94648884bdc0e9aE
	.seh_endproc
	.def	"?dtor$6@?0?_ZN10proc_macro6bridge6buffer6Buffer17extend_from_array17hc94648884bdc0e9aE@4HA";
	.scl	3;
	.type	32;
	.endef
	.p2align	4, 0x90
"?dtor$6@?0?_ZN10proc_macro6bridge6buffer6Buffer17extend_from_array17hc94648884bdc0e9aE@4HA":
.seh_proc "?dtor$6@?0?_ZN10proc_macro6bridge6buffer6Buffer17extend_from_array17hc94648884bdc0e9aE@4HA"
.LBB13_6:
	movq	%rdx, 16(%rsp)
	pushq	%rbp
	.seh_pushreg %rbp
	subq	$32, %rsp
	.seh_stackalloc 32
	leaq	128(%rdx), %rbp
	.seh_endprologue
	movq	-88(%rbp), %rax
.Ltmp251:
	.cv_loc	55 18 66 0
	movq	-8(%rbp), %rcx
	movq	%rcx, 32(%rax)
	vmovups	-40(%rbp), %ymm0
	vmovups	%ymm0, (%rax)
	addq	$32, %rsp
	popq	%rbp
	vzeroupper
	retq
.Ltmp252:
	.seh_handlerdata
	.section	.text,"xr",one_only,_ZN10proc_macro6bridge6buffer6Buffer17extend_from_array17hc94648884bdc0e9aE
	.seh_endproc
	.def	"?dtor$8@?0?_ZN10proc_macro6bridge6buffer6Buffer17extend_from_array17hc94648884bdc0e9aE@4HA";
	.scl	3;
	.type	32;
	.endef
	.p2align	4, 0x90
"?dtor$8@?0?_ZN10proc_macro6bridge6buffer6Buffer17extend_from_array17hc94648884bdc0e9aE@4HA":
.seh_proc "?dtor$8@?0?_ZN10proc_macro6bridge6buffer6Buffer17extend_from_array17hc94648884bdc0e9aE@4HA"
.LBB13_8:
	movq	%rdx, 16(%rsp)
	pushq	%rbp
	.seh_pushreg %rbp
	subq	$32, %rsp
	.seh_stackalloc 32
	leaq	128(%rdx), %rbp
	.seh_endprologue
	.cv_loc	55 18 63 0
	addq	$32, %rsp
	popq	%rbp
	retq
.Ltmp253:
.Lfunc_end13:
	.seh_handlerdata
	.section	.text,"xr",one_only,_ZN10proc_macro6bridge6buffer6Buffer17extend_from_array17hc94648884bdc0e9aE
	.seh_endproc
	.section	.xdata,"dr",associative,_ZN10proc_macro6bridge6buffer6Buffer17extend_from_array17hc94648884bdc0e9aE
	.p2align	2, 0x0
$cppxdata$_ZN10proc_macro6bridge6buffer6Buffer17extend_from_array17hc94648884bdc0e9aE:
	.long	429065506
	.long	3
	.long	($stateUnwindMap$_ZN10proc_macro6bridge6buffer6Buffer17extend_from_array17hc94648884bdc0e9aE)@IMGREL
	.long	0
	.long	0
	.long	4
	.long	($ip2state$_ZN10proc_macro6bridge6buffer6Buffer17extend_from_array17hc94648884bdc0e9aE)@IMGREL
	.long	408
	.long	0
	.long	1
$stateUnwindMap$_ZN10proc_macro6bridge6buffer6Buffer17extend_from_array17hc94648884bdc0e9aE:
	.long	-1
	.long	"?dtor$8@?0?_ZN10proc_macro6bridge6buffer6Buffer17extend_from_array17hc94648884bdc0e9aE@4HA"@IMGREL
	.long	0
	.long	"?dtor$4@?0?_ZN10proc_macro6bridge6buffer6Buffer17extend_from_array17hc94648884bdc0e9aE@4HA"@IMGREL
	.long	0
	.long	"?dtor$6@?0?_ZN10proc_macro6bridge6buffer6Buffer17extend_from_array17hc94648884bdc0e9aE@4HA"@IMGREL
$ip2state$_ZN10proc_macro6bridge6buffer6Buffer17extend_from_array17hc94648884bdc0e9aE:
	.long	.Lfunc_begin13@IMGREL
	.long	-1
	.long	.Ltmp223@IMGREL+1
	.long	1
	.long	.Ltmp225@IMGREL+1
	.long	2
	.long	.Ltmp226@IMGREL+1
	.long	-1
	.section	.text,"xr",one_only,_ZN10proc_macro6bridge6buffer6Buffer17extend_from_array17hc94648884bdc0e9aE

	.def	_ZN10proc_macro6bridge6buffer6Buffer17extend_from_slice17hd511600c38ecf92bE;
	.scl	3;
	.type	32;
	.endef
	.section	.text,"xr",one_only,_ZN10proc_macro6bridge6buffer6Buffer17extend_from_slice17hd511600c38ecf92bE
	.p2align	4, 0x90
_ZN10proc_macro6bridge6buffer6Buffer17extend_from_slice17hd511600c38ecf92bE:
.Lfunc_begin14:
	.cv_func_id 70
	.cv_loc	70 18 75 0
.seh_proc _ZN10proc_macro6bridge6buffer6Buffer17extend_from_slice17hd511600c38ecf92bE
	.seh_handler __CxxFrameHandler3, @unwind, @except
	pushq	%rbp
	.seh_pushreg %rbp
	subq	$416, %rsp
	.seh_stackalloc 416
	leaq	128(%rsp), %rbp
	.seh_setframe %rbp, 128
	.seh_endprologue
	movq	$-2, 280(%rbp)
	movq	%r8, -88(%rbp)
	movq	%rdx, -80(%rbp)
	movq	%rcx, -72(%rbp)
	movq	%rcx, 120(%rbp)
	movq	%rdx, 128(%rbp)
	movq	%r8, 136(%rbp)
.Ltmp258:
	.cv_loc	70 18 76 0
	movq	16(%rcx), %rax
	subq	8(%rcx), %rax
	cmpq	%rax, %r8
	ja	.LBB14_2
	jmp	.LBB14_3
.LBB14_2:
	.cv_inline_site_id 71 within 70 inlined_at 18 77 0
	.cv_inline_site_id 72 within 71 inlined_at 18 55 0
	.cv_inline_site_id 73 within 72 inlined_at 9 846 0
	.cv_inline_site_id 74 within 73 inlined_at 19 44 0
	.cv_loc	74 13 423 0
	movq	-88(%rbp), %r8
	movq	-72(%rbp), %rax
.Ltmp259:
	movq	$0, 96(%rbp)
	movq	$1, 104(%rbp)
	movq	$0, 112(%rbp)
	leaq	96(%rbp), %rcx
.Ltmp260:
	.cv_inline_site_id 75 within 73 inlined_at 18 23 0
	.cv_loc	75 18 131 0
	movq	%rcx, 144(%rbp)
.Ltmp261:
	.cv_inline_site_id 76 within 75 inlined_at 18 131 0
	.cv_loc	76 13 1328 0
	movq	%rcx, 152(%rbp)
.Ltmp262:
	.cv_inline_site_id 77 within 76 inlined_at 13 1328 0
	.cv_loc	77 14 239 0
	movq	104(%rbp), %r9
	movq	%r9, 160(%rbp)
.Ltmp263:
	.cv_inline_site_id 78 within 77 inlined_at 14 239 0
	.cv_inline_site_id 79 within 78 inlined_at 21 106 0
	.cv_loc	79 20 348 0
	movq	%r9, 168(%rbp)
.Ltmp264:
	.cv_loc	75 18 131 0
	movq	%rcx, 176(%rbp)
.Ltmp265:
	.cv_loc	76 13 2142 0
	movq	112(%rbp), %rdx
	movq	%rdx, 184(%rbp)
.Ltmp266:
	.cv_loc	75 18 131 0
	movq	%rcx, 192(%rbp)
.Ltmp267:
	.cv_loc	76 13 888 0
	movq	%rcx, 200(%rbp)
.Ltmp268:
	.cv_inline_site_id 80 within 76 inlined_at 13 888 0
	.cv_loc	80 14 247 0
	movq	96(%rbp), %rcx
	movq	%rcx, 208(%rbp)
.Ltmp269:
	.cv_loc	75 18 132 0
	movq	104(%rbp), %r10
	movq	%r10, 216(%rbp)
	movq	96(%rbp), %r10
	movq	%r10, 224(%rbp)
	movq	112(%rbp), %r10
	movq	%r10, 232(%rbp)
	.cv_loc	75 18 154 0
	movq	%r9, 56(%rbp)
	movq	%rdx, 64(%rbp)
	movq	%rcx, 72(%rbp)
	leaq	_ZN107_$LT$proc_macro..bridge..buffer..Buffer$u20$as$u20$core..convert..From$LT$alloc..vec..Vec$LT$u8$GT$$GT$$GT$4from7reserve17hab7807acea09da60E(%rip), %rcx
	movq	%rcx, 80(%rbp)
	leaq	_ZN107_$LT$proc_macro..bridge..buffer..Buffer$u20$as$u20$core..convert..From$LT$alloc..vec..Vec$LT$u8$GT$$GT$$GT$4from4drop17h12f6d13fd8920cb0E(%rip), %rcx
	movq	%rcx, 88(%rbp)
.Ltmp270:
	.cv_inline_site_id 81 within 73 inlined_at 9 921 0
	.cv_loc	81 8 1215 0
	movq	32(%rax), %rcx
	movq	%rcx, -32(%rbp)
	vmovups	(%rax), %ymm0
	vmovups	%ymm0, -64(%rbp)
.Ltmp271:
	.cv_inline_site_id 82 within 73 inlined_at 9 922 0
	.cv_loc	82 8 1415 0
	movq	88(%rbp), %rcx
	movq	%rcx, 32(%rax)
	vmovups	56(%rbp), %ymm0
	vmovups	%ymm0, (%rax)
.Ltmp272:
	.cv_loc	70 18 78 0
	movq	-40(%rbp), %rax
	movq	-32(%rbp), %rcx
	movq	%rcx, 48(%rbp)
	vmovups	-64(%rbp), %ymm0
	vmovups	%ymm0, 16(%rbp)
.Ltmp254:
	leaq	-24(%rbp), %rcx
	leaq	16(%rbp), %rdx
	vzeroupper
	callq	*%rax
.Ltmp255:
	jmp	.LBB14_5
.Ltmp273:
.LBB14_3:
	.cv_inline_site_id 83 within 70 inlined_at 18 81 0
	.cv_loc	83 22 743 0
	movq	-72(%rbp), %rax
	movq	-88(%rbp), %r8
	movq	-80(%rbp), %rdx
.Ltmp274:
	movq	%rdx, 240(%rbp)
.Ltmp275:
	.cv_loc	70 18 81 0
	movq	(%rax), %rcx
	movq	%rcx, 248(%rbp)
	movq	8(%rax), %rax
	movq	%rax, 256(%rbp)
.Ltmp276:
	.cv_loc	83 23 1045 0
	addq	%rax, %rcx
	movq	%rcx, 264(%rbp)
.Ltmp277:
	.cv_loc	70 18 81 0
	movq	%r8, 272(%rbp)
.Ltmp278:
	.cv_inline_site_id 84 within 83 inlined_at 15 1316 0
	.cv_loc	84 24 2702 0
	callq	memcpy
	movq	-88(%rbp), %rcx
	movq	-72(%rbp), %rax
.Ltmp279:
	.cv_loc	70 18 82 0
	addq	8(%rax), %rcx
	movq	%rcx, 8(%rax)
	.cv_loc	70 18 84 0
	addq	$416, %rsp
	popq	%rbp
	retq
.LBB14_5:
	.cv_loc	70 18 78 0
.Ltmp256:
	movq	-72(%rbp), %rcx
.Ltmp280:
	callq	_ZN4core3ptr55drop_in_place$LT$proc_macro..bridge..buffer..Buffer$GT$17h8ea12942c7ae266dE
.Ltmp257:
	jmp	.LBB14_7
.LBB14_7:
	movq	-72(%rbp), %rcx
	leaq	-24(%rbp), %rdx
	movl	$40, %r8d
	callq	memcpy
.Ltmp281:
	.cv_loc	70 18 76 0
	jmp	.LBB14_3
	.seh_handlerdata
	.long	($cppxdata$_ZN10proc_macro6bridge6buffer6Buffer17extend_from_slice17hd511600c38ecf92bE)@IMGREL
	.section	.text,"xr",one_only,_ZN10proc_macro6bridge6buffer6Buffer17extend_from_slice17hd511600c38ecf92bE
	.seh_endproc
	.def	"?dtor$4@?0?_ZN10proc_macro6bridge6buffer6Buffer17extend_from_slice17hd511600c38ecf92bE@4HA";
	.scl	3;
	.type	32;
	.endef
	.p2align	4, 0x90
"?dtor$4@?0?_ZN10proc_macro6bridge6buffer6Buffer17extend_from_slice17hd511600c38ecf92bE@4HA":
.seh_proc "?dtor$4@?0?_ZN10proc_macro6bridge6buffer6Buffer17extend_from_slice17hd511600c38ecf92bE@4HA"
.LBB14_4:
	movq	%rdx, 16(%rsp)
	pushq	%rbp
	.seh_pushreg %rbp
	subq	$32, %rsp
	.seh_stackalloc 32
	leaq	128(%rdx), %rbp
	.seh_endprologue
	addq	$32, %rsp
	popq	%rbp
	retq
	.seh_handlerdata
	.section	.text,"xr",one_only,_ZN10proc_macro6bridge6buffer6Buffer17extend_from_slice17hd511600c38ecf92bE
	.seh_endproc
	.def	"?dtor$6@?0?_ZN10proc_macro6bridge6buffer6Buffer17extend_from_slice17hd511600c38ecf92bE@4HA";
	.scl	3;
	.type	32;
	.endef
	.p2align	4, 0x90
"?dtor$6@?0?_ZN10proc_macro6bridge6buffer6Buffer17extend_from_slice17hd511600c38ecf92bE@4HA":
.seh_proc "?dtor$6@?0?_ZN10proc_macro6bridge6buffer6Buffer17extend_from_slice17hd511600c38ecf92bE@4HA"
.LBB14_6:
	movq	%rdx, 16(%rsp)
	pushq	%rbp
	.seh_pushreg %rbp
	subq	$32, %rsp
	.seh_stackalloc 32
	leaq	128(%rdx), %rbp
	.seh_endprologue
	movq	-72(%rbp), %rax
.Ltmp282:
	.cv_loc	70 18 78 0
	movq	8(%rbp), %rcx
	movq	%rcx, 32(%rax)
	vmovups	-24(%rbp), %ymm0
	vmovups	%ymm0, (%rax)
	addq	$32, %rsp
	popq	%rbp
	vzeroupper
	retq
.Ltmp283:
	.seh_handlerdata
	.section	.text,"xr",one_only,_ZN10proc_macro6bridge6buffer6Buffer17extend_from_slice17hd511600c38ecf92bE
	.seh_endproc
	.def	"?dtor$8@?0?_ZN10proc_macro6bridge6buffer6Buffer17extend_from_slice17hd511600c38ecf92bE@4HA";
	.scl	3;
	.type	32;
	.endef
	.p2align	4, 0x90
"?dtor$8@?0?_ZN10proc_macro6bridge6buffer6Buffer17extend_from_slice17hd511600c38ecf92bE@4HA":
.seh_proc "?dtor$8@?0?_ZN10proc_macro6bridge6buffer6Buffer17extend_from_slice17hd511600c38ecf92bE@4HA"
.LBB14_8:
	movq	%rdx, 16(%rsp)
	pushq	%rbp
	.seh_pushreg %rbp
	subq	$32, %rsp
	.seh_stackalloc 32
	leaq	128(%rdx), %rbp
	.seh_endprologue
	.cv_loc	70 18 75 0
	addq	$32, %rsp
	popq	%rbp
	retq
.Ltmp284:
.Lfunc_end14:
	.seh_handlerdata
	.section	.text,"xr",one_only,_ZN10proc_macro6bridge6buffer6Buffer17extend_from_slice17hd511600c38ecf92bE
	.seh_endproc
	.section	.xdata,"dr",associative,_ZN10proc_macro6bridge6buffer6Buffer17extend_from_slice17hd511600c38ecf92bE
	.p2align	2, 0x0
$cppxdata$_ZN10proc_macro6bridge6buffer6Buffer17extend_from_slice17hd511600c38ecf92bE:
	.long	429065506
	.long	3
	.long	($stateUnwindMap$_ZN10proc_macro6bridge6buffer6Buffer17extend_from_slice17hd511600c38ecf92bE)@IMGREL
	.long	0
	.long	0
	.long	5
	.long	($ip2state$_ZN10proc_macro6bridge6buffer6Buffer17extend_from_slice17hd511600c38ecf92bE)@IMGREL
	.long	408
	.long	0
	.long	1
$stateUnwindMap$_ZN10proc_macro6bridge6buffer6Buffer17extend_from_slice17hd511600c38ecf92bE:
	.long	-1
	.long	"?dtor$8@?0?_ZN10proc_macro6bridge6buffer6Buffer17extend_from_slice17hd511600c38ecf92bE@4HA"@IMGREL
	.long	0
	.long	"?dtor$4@?0?_ZN10proc_macro6bridge6buffer6Buffer17extend_from_slice17hd511600c38ecf92bE@4HA"@IMGREL
	.long	0
	.long	"?dtor$6@?0?_ZN10proc_macro6bridge6buffer6Buffer17extend_from_slice17hd511600c38ecf92bE@4HA"@IMGREL
$ip2state$_ZN10proc_macro6bridge6buffer6Buffer17extend_from_slice17hd511600c38ecf92bE:
	.long	.Lfunc_begin14@IMGREL
	.long	-1
	.long	.Ltmp254@IMGREL+1
	.long	1
	.long	.Ltmp255@IMGREL+1
	.long	-1
	.long	.Ltmp256@IMGREL+1
	.long	2
	.long	.Ltmp257@IMGREL+1
	.long	-1
	.section	.text,"xr",one_only,_ZN10proc_macro6bridge6buffer6Buffer17extend_from_slice17hd511600c38ecf92bE

	.def	_ZN10proc_macro6bridge6buffer6Buffer4push17h46c5da7feffb16cfE;
	.scl	3;
	.type	32;
	.endef
	.section	.text,"xr",one_only,_ZN10proc_macro6bridge6buffer6Buffer4push17h46c5da7feffb16cfE
	.p2align	4, 0x90
_ZN10proc_macro6bridge6buffer6Buffer4push17h46c5da7feffb16cfE:
.Lfunc_begin15:
	.cv_func_id 85
	.cv_loc	85 18 87 0
.seh_proc _ZN10proc_macro6bridge6buffer6Buffer4push17h46c5da7feffb16cfE
	.seh_handler __CxxFrameHandler3, @unwind, @except
	pushq	%rbp
	.seh_pushreg %rbp
	subq	$336, %rsp
	.seh_stackalloc 336
	leaq	128(%rsp), %rbp
	.seh_setframe %rbp, 128
	.seh_endprologue
	movq	$-2, 200(%rbp)
	movb	%dl, -89(%rbp)
	movq	%rcx, -88(%rbp)
	movq	%rcx, 72(%rbp)
	movb	%dl, 87(%rbp)
.Ltmp287:
	.cv_loc	85 18 91 0
	movq	8(%rcx), %rax
	cmpq	16(%rcx), %rax
	je	.LBB15_2
	jmp	.LBB15_3
.LBB15_2:
	.cv_inline_site_id 86 within 85 inlined_at 18 92 0
	.cv_inline_site_id 87 within 86 inlined_at 18 55 0
	.cv_inline_site_id 88 within 87 inlined_at 9 846 0
	.cv_inline_site_id 89 within 88 inlined_at 19 44 0
	.cv_loc	89 13 423 0
	movq	-88(%rbp), %rax
.Ltmp288:
	movq	$0, 48(%rbp)
	movq	$1, 56(%rbp)
	movq	$0, 64(%rbp)
	leaq	48(%rbp), %rcx
.Ltmp289:
	.cv_inline_site_id 90 within 88 inlined_at 18 23 0
	.cv_loc	90 18 131 0
	movq	%rcx, 88(%rbp)
.Ltmp290:
	.cv_inline_site_id 91 within 90 inlined_at 18 131 0
	.cv_loc	91 13 1328 0
	movq	%rcx, 96(%rbp)
.Ltmp291:
	.cv_inline_site_id 92 within 91 inlined_at 13 1328 0
	.cv_loc	92 14 239 0
	movq	56(%rbp), %r8
	movq	%r8, 104(%rbp)
.Ltmp292:
	.cv_inline_site_id 93 within 92 inlined_at 14 239 0
	.cv_inline_site_id 94 within 93 inlined_at 21 106 0
	.cv_loc	94 20 348 0
	movq	%r8, 112(%rbp)
.Ltmp293:
	.cv_loc	90 18 131 0
	movq	%rcx, 120(%rbp)
.Ltmp294:
	.cv_loc	91 13 2142 0
	movq	64(%rbp), %rdx
	movq	%rdx, 128(%rbp)
.Ltmp295:
	.cv_loc	90 18 131 0
	movq	%rcx, 136(%rbp)
.Ltmp296:
	.cv_loc	91 13 888 0
	movq	%rcx, 144(%rbp)
.Ltmp297:
	.cv_inline_site_id 95 within 91 inlined_at 13 888 0
	.cv_loc	95 14 247 0
	movq	48(%rbp), %rcx
	movq	%rcx, 152(%rbp)
.Ltmp298:
	.cv_loc	90 18 132 0
	movq	56(%rbp), %r9
	movq	%r9, 160(%rbp)
	movq	48(%rbp), %r9
	movq	%r9, 168(%rbp)
	movq	64(%rbp), %r9
	movq	%r9, 176(%rbp)
	.cv_loc	90 18 154 0
	movq	%r8, 8(%rbp)
	movq	%rdx, 16(%rbp)
	movq	%rcx, 24(%rbp)
	leaq	_ZN107_$LT$proc_macro..bridge..buffer..Buffer$u20$as$u20$core..convert..From$LT$alloc..vec..Vec$LT$u8$GT$$GT$$GT$4from7reserve17hab7807acea09da60E(%rip), %rcx
	movq	%rcx, 32(%rbp)
	leaq	_ZN107_$LT$proc_macro..bridge..buffer..Buffer$u20$as$u20$core..convert..From$LT$alloc..vec..Vec$LT$u8$GT$$GT$$GT$4from4drop17h12f6d13fd8920cb0E(%rip), %rcx
	movq	%rcx, 40(%rbp)
.Ltmp299:
	.cv_inline_site_id 96 within 88 inlined_at 9 921 0
	.cv_loc	96 8 1215 0
	movq	32(%rax), %rcx
	movq	%rcx, -48(%rbp)
	vmovups	(%rax), %ymm0
	vmovups	%ymm0, -80(%rbp)
.Ltmp300:
	.cv_inline_site_id 97 within 88 inlined_at 9 922 0
	.cv_loc	97 8 1415 0
	movq	40(%rbp), %rcx
	movq	%rcx, 32(%rax)
	vmovups	8(%rbp), %ymm0
	vmovups	%ymm0, (%rax)
.Ltmp301:
	.cv_loc	85 18 93 0
	movq	-56(%rbp), %rax
	leaq	-32(%rbp), %rcx
	leaq	-80(%rbp), %rdx
	movl	$1, %r8d
	vzeroupper
	callq	*%rax
	movq	-88(%rbp), %rcx
.Ltmp285:
	callq	_ZN4core3ptr55drop_in_place$LT$proc_macro..bridge..buffer..Buffer$GT$17h8ea12942c7ae266dE
.Ltmp286:
	jmp	.LBB15_5
.Ltmp302:
.LBB15_3:
	.cv_loc	85 18 96 0
	movq	-88(%rbp), %rax
	movb	-89(%rbp), %r8b
	movq	(%rax), %rcx
	movq	%rcx, 184(%rbp)
	movq	8(%rax), %rdx
	movq	%rdx, 192(%rbp)
	movb	%r8b, (%rcx,%rdx)
	.cv_loc	85 18 97 0
	movq	8(%rax), %rcx
	addq	$1, %rcx
	movq	%rcx, 8(%rax)
	.cv_loc	85 18 99 0
	addq	$336, %rsp
	popq	%rbp
	retq
.LBB15_5:
	.cv_loc	85 18 93 0
	movq	-88(%rbp), %rcx
.Ltmp303:
	leaq	-32(%rbp), %rdx
	movl	$40, %r8d
	callq	memcpy
.Ltmp304:
	.cv_loc	85 18 91 0
	jmp	.LBB15_3
	.seh_handlerdata
	.long	($cppxdata$_ZN10proc_macro6bridge6buffer6Buffer4push17h46c5da7feffb16cfE)@IMGREL
	.section	.text,"xr",one_only,_ZN10proc_macro6bridge6buffer6Buffer4push17h46c5da7feffb16cfE
	.seh_endproc
	.def	"?dtor$4@?0?_ZN10proc_macro6bridge6buffer6Buffer4push17h46c5da7feffb16cfE@4HA";
	.scl	3;
	.type	32;
	.endef
	.p2align	4, 0x90
"?dtor$4@?0?_ZN10proc_macro6bridge6buffer6Buffer4push17h46c5da7feffb16cfE@4HA":
.seh_proc "?dtor$4@?0?_ZN10proc_macro6bridge6buffer6Buffer4push17h46c5da7feffb16cfE@4HA"
.LBB15_4:
	movq	%rdx, 16(%rsp)
	pushq	%rbp
	.seh_pushreg %rbp
	subq	$32, %rsp
	.seh_stackalloc 32
	leaq	128(%rdx), %rbp
	.seh_endprologue
	movq	-88(%rbp), %rax
.Ltmp305:
	.cv_loc	85 18 93 0
	movq	(%rbp), %rcx
	movq	%rcx, 32(%rax)
	vmovups	-32(%rbp), %ymm0
	vmovups	%ymm0, (%rax)
.Ltmp306:
	.cv_loc	85 18 87 0
	addq	$32, %rsp
	popq	%rbp
	vzeroupper
	retq
.Ltmp307:
.Lfunc_end15:
	.seh_handlerdata
	.section	.text,"xr",one_only,_ZN10proc_macro6bridge6buffer6Buffer4push17h46c5da7feffb16cfE
	.seh_endproc
	.section	.xdata,"dr",associative,_ZN10proc_macro6bridge6buffer6Buffer4push17h46c5da7feffb16cfE
	.p2align	2, 0x0
$cppxdata$_ZN10proc_macro6bridge6buffer6Buffer4push17h46c5da7feffb16cfE:
	.long	429065506
	.long	1
	.long	($stateUnwindMap$_ZN10proc_macro6bridge6buffer6Buffer4push17h46c5da7feffb16cfE)@IMGREL
	.long	0
	.long	0
	.long	3
	.long	($ip2state$_ZN10proc_macro6bridge6buffer6Buffer4push17h46c5da7feffb16cfE)@IMGREL
	.long	328
	.long	0
	.long	1
$stateUnwindMap$_ZN10proc_macro6bridge6buffer6Buffer4push17h46c5da7feffb16cfE:
	.long	-1
	.long	"?dtor$4@?0?_ZN10proc_macro6bridge6buffer6Buffer4push17h46c5da7feffb16cfE@4HA"@IMGREL
$ip2state$_ZN10proc_macro6bridge6buffer6Buffer4push17h46c5da7feffb16cfE:
	.long	.Lfunc_begin15@IMGREL
	.long	-1
	.long	.Ltmp285@IMGREL+1
	.long	0
	.long	.Ltmp286@IMGREL+1
	.long	-1
	.section	.text,"xr",one_only,_ZN10proc_macro6bridge6buffer6Buffer4push17h46c5da7feffb16cfE

	.def	_ZN10proc_macro6bridge6client10run_client17hd0dd18b283dea759E;
	.scl	3;
	.type	32;
	.endef
	.section	.text,"xr",one_only,_ZN10proc_macro6bridge6client10run_client17hd0dd18b283dea759E
	.p2align	4, 0x90
_ZN10proc_macro6bridge6client10run_client17hd0dd18b283dea759E:
.Lfunc_begin16:
	.cv_func_id 98
	.cv_loc	98 1 378 0
.seh_proc _ZN10proc_macro6bridge6client10run_client17hd0dd18b283dea759E
	.seh_handler __CxxFrameHandler3, @unwind, @except
	pushq	%rbp
	.seh_pushreg %rbp
	subq	$336, %rsp
	.seh_stackalloc 336
	leaq	128(%rsp), %rbp
	.seh_setframe %rbp, 128
	.seh_endprologue
	movq	$-2, 200(%rbp)
	movq	%rcx, -96(%rbp)
	movq	%rcx, -88(%rbp)
.Ltmp316:
	.cv_file	25 "C:\\Users\\cires\\.rustup\\toolchains\\nightly-x86_64-pc-windows-msvc\\lib\\rustlib\\src\\rust\\library\\core\\src\\result.rs" "649F2250AB388974C09C024A8E9056D6C93AFE2B61A370E28DB4941F6F1BA378" 3
	.cv_inline_site_id 99 within 98 inlined_at 1 419 0
	.cv_loc	99 25 1425 0
	movq	%r8, 176(%rbp)
.Ltmp317:
	.cv_loc	98 1 382 0
	movq	32(%rdx), %rax
	movq	%rax, -32(%rbp)
	vmovups	(%rdx), %ymm0
	vmovups	%ymm0, -64(%rbp)
	movq	40(%rdx), %rcx
	movq	48(%rdx), %rax
	movq	%rcx, 184(%rbp)
	movq	%rax, 192(%rbp)
	movb	56(%rdx), %dl
.Ltmp318:
	movb	%dl, -9(%rbp)
	leaq	-9(%rbp), %rdx
.Ltmp319:
	.cv_loc	98 1 384 0
	movq	%rdx, 64(%rbp)
	leaq	-64(%rbp), %rdx
	movq	%rdx, 72(%rbp)
	movq	%rcx, 80(%rbp)
	movq	%rax, 88(%rbp)
	movq	%r8, 96(%rbp)
	movq	96(%rbp), %rax
	movq	%rax, 48(%rbp)
	vmovups	64(%rbp), %ymm0
	vmovups	%ymm0, 16(%rbp)
	.cv_file	26 "C:\\Users\\cires\\.rustup\\toolchains\\nightly-x86_64-pc-windows-msvc\\lib\\rustlib\\src\\rust\\library\\std\\src\\panic.rs" "90BE7CD9135E4BB8CF37D33F4992E2EAA9857D107EE83E95B85787851979A2A1" 3
	.cv_inline_site_id 100 within 98 inlined_at 1 384 0
	.cv_loc	100 26 142 0
.Ltmp308:
	leaq	16(%rbp), %rcx
.Ltmp320:
	vzeroupper
	callq	_ZN3std9panicking3try17h82ccaa1d9d0bf28aE
.Ltmp309:
	movq	%rdx, -80(%rbp)
	movq	%rax, -72(%rbp)
	jmp	.LBB16_2
.Ltmp321:
.LBB16_2:
	.cv_loc	98 1 384 0
.Ltmp310:
	movq	-80(%rbp), %r8
	movq	-72(%rbp), %rdx
	leaq	-8(%rbp), %rcx
	callq	_ZN4core6result19Result$LT$T$C$E$GT$7map_err17h8933829308a29183E
.Ltmp311:
	jmp	.LBB16_3
.Ltmp322:
.LBB16_3:
	.cv_loc	98 1 419 0
	leaq	-64(%rbp), %rax
	movq	%rax, 104(%rbp)
.Ltmp323:
	.cv_loc	99 25 1424 0
	movabsq	$-9223372036854775805, %rax
	cmpq	%rax, -8(%rbp)
	sete	%al
	testb	$1, %al
	jne	.LBB16_4
	jmp	.LBB16_5
.Ltmp324:
.LBB16_4:
	.cv_loc	98 1 426 0
.Ltmp314:
	callq	_ZN10proc_macro6bridge6symbol6Symbol14invalidate_all17h0f91a91fea91a359E
.Ltmp315:
	jmp	.LBB16_7
.Ltmp325:
.LBB16_5:
	.cv_loc	99 25 1426 0
	movq	8(%rbp), %rax
	movq	%rax, 128(%rbp)
	vmovdqu	-8(%rbp), %xmm0
	vmovdqa	%xmm0, 112(%rbp)
.Ltmp326:
	.cv_loc	99 25 1426 0
	movq	128(%rbp), %rax
	movq	%rax, 160(%rbp)
	vmovdqa	112(%rbp), %xmm0
	vmovdqa	%xmm0, 144(%rbp)
	movq	104(%rbp), %rcx
.Ltmp312:
	leaq	144(%rbp), %rdx
	callq	_ZN10proc_macro6bridge6client10run_client28_$u7b$$u7b$closure$u7d$$u7d$17hffbe596f9e20519fE
.Ltmp313:
	jmp	.LBB16_6
.Ltmp327:
.LBB16_6:
	.cv_loc	99 25 1426 0
	jmp	.LBB16_4
.Ltmp328:
.LBB16_7:
	.cv_loc	98 1 427 0
	movq	-96(%rbp), %rcx
	leaq	-64(%rbp), %rdx
	movl	$40, %r8d
	callq	memcpy
	movq	-88(%rbp), %rax
.Ltmp329:
	.cv_loc	98 1 428 0
	addq	$336, %rsp
	popq	%rbp
	retq
.Ltmp330:
	.seh_handlerdata
	.long	($cppxdata$_ZN10proc_macro6bridge6client10run_client17hd0dd18b283dea759E)@IMGREL
	.section	.text,"xr",one_only,_ZN10proc_macro6bridge6client10run_client17hd0dd18b283dea759E
	.seh_endproc
	.def	"?dtor$1@?0?_ZN10proc_macro6bridge6client10run_client17hd0dd18b283dea759E@4HA";
	.scl	3;
	.type	32;
	.endef
	.p2align	4, 0x90
"?dtor$1@?0?_ZN10proc_macro6bridge6client10run_client17hd0dd18b283dea759E@4HA":
.seh_proc "?dtor$1@?0?_ZN10proc_macro6bridge6client10run_client17hd0dd18b283dea759E@4HA"
.LBB16_1:
	movq	%rdx, 16(%rsp)
	pushq	%rbp
	.seh_pushreg %rbp
	subq	$32, %rsp
	.seh_stackalloc 32
	leaq	128(%rdx), %rbp
	.seh_endprologue
	leaq	-64(%rbp), %rcx
	callq	_ZN4core3ptr55drop_in_place$LT$proc_macro..bridge..buffer..Buffer$GT$17h8ea12942c7ae266dE
	.cv_loc	98 1 378 0
	nop
	addq	$32, %rsp
	popq	%rbp
	retq
.Ltmp331:
.Lfunc_end16:
	.seh_handlerdata
	.section	.text,"xr",one_only,_ZN10proc_macro6bridge6client10run_client17hd0dd18b283dea759E
	.seh_endproc
	.section	.xdata,"dr",associative,_ZN10proc_macro6bridge6client10run_client17hd0dd18b283dea759E
	.p2align	2, 0x0
$cppxdata$_ZN10proc_macro6bridge6client10run_client17hd0dd18b283dea759E:
	.long	429065506
	.long	1
	.long	($stateUnwindMap$_ZN10proc_macro6bridge6client10run_client17hd0dd18b283dea759E)@IMGREL
	.long	0
	.long	0
	.long	3
	.long	($ip2state$_ZN10proc_macro6bridge6client10run_client17hd0dd18b283dea759E)@IMGREL
	.long	328
	.long	0
	.long	1
$stateUnwindMap$_ZN10proc_macro6bridge6client10run_client17hd0dd18b283dea759E:
	.long	-1
	.long	"?dtor$1@?0?_ZN10proc_macro6bridge6client10run_client17hd0dd18b283dea759E@4HA"@IMGREL
$ip2state$_ZN10proc_macro6bridge6client10run_client17hd0dd18b283dea759E:
	.long	.Lfunc_begin16@IMGREL
	.long	-1
	.long	.Ltmp308@IMGREL+1
	.long	0
	.long	.Ltmp313@IMGREL+1
	.long	-1
	.section	.text,"xr",one_only,_ZN10proc_macro6bridge6client10run_client17hd0dd18b283dea759E

	.def	_ZN10proc_macro6bridge6client10run_client28_$u7b$$u7b$closure$u7d$$u7d$17h4dea6c42ba25658fE;
	.scl	3;
	.type	32;
	.endef
	.section	.text,"xr",one_only,_ZN10proc_macro6bridge6client10run_client28_$u7b$$u7b$closure$u7d$$u7d$17h4dea6c42ba25658fE
	.p2align	4, 0x90
_ZN10proc_macro6bridge6client10run_client28_$u7b$$u7b$closure$u7d$$u7d$17h4dea6c42ba25658fE:
.Lfunc_begin17:
	.cv_func_id 101
	.cv_loc	101 1 384 0
.seh_proc _ZN10proc_macro6bridge6client10run_client28_$u7b$$u7b$closure$u7d$$u7d$17h4dea6c42ba25658fE
	.seh_handler __CxxFrameHandler3, @unwind, @except
	pushq	%rbp
	.seh_pushreg %rbp
	subq	$720, %rsp
	.seh_stackalloc 720
	leaq	128(%rsp), %rbp
	.seh_setframe %rbp, 128
	.seh_endprologue
	movq	$-2, 584(%rbp)
	movq	%rcx, -80(%rbp)
.Ltmp342:
	.cv_file	27 "C:\\Users\\cires\\.rustup\\toolchains\\nightly-x86_64-pc-windows-msvc\\lib\\rustlib\\src\\rust\\library\\std\\src\\thread\\local.rs" "EAA94FAE68CFECACEDD18BC19F1F5ABF33BDC5087D6C808D9ECBCFEB25A29A43" 3
	.cv_inline_site_id 102 within 101 inlined_at 1 397 0
	.cv_loc	102 27 242 0
	leaq	__unnamed_4(%rip), %rax
	movq	%rax, -72(%rbp)
	movq	8(%rcx), %rax
	movq	%rax, 400(%rbp)
	movq	%rcx, %rax
	addq	$16, %rax
	movq	%rax, 408(%rbp)
	movq	%rcx, %rax
	addq	$32, %rax
	movq	%rax, 416(%rbp)
.Ltmp343:
	.cv_loc	101 1 385 0
	movb	$1, 303(%rbp)
	movq	(%rcx), %rax
	movb	(%rax), %cl
.Ltmp344:
.Ltmp332:
	callq	_ZN10proc_macro6bridge6client24maybe_install_panic_hook17h64a12233a91bb495E
.Ltmp333:
.Ltmp345:
	jmp	.LBB17_2
.Ltmp346:
.LBB17_2:
	.cv_loc	101 1 388 0
.Ltmp334:
	callq	_ZN10proc_macro6bridge6symbol6Symbol14invalidate_all17h0f91a91fea91a359E
.Ltmp335:
	jmp	.LBB17_3
.Ltmp347:
.LBB17_3:
	.cv_loc	101 1 390 0
	movq	-80(%rbp), %rax
	movq	8(%rax), %rax
	movq	%rax, 424(%rbp)
.Ltmp348:
	.cv_inline_site_id 103 within 101 inlined_at 1 390 0
	.cv_loc	103 18 31 0
	movq	(%rax), %rcx
	movq	%rcx, 432(%rbp)
	movq	8(%rax), %rax
	movq	%rax, 440(%rbp)
.Ltmp349:
	.cv_inline_site_id 104 within 103 inlined_at 18 31 0
	.cv_inline_site_id 105 within 104 inlined_at 16 102 0
	.cv_inline_site_id 106 within 105 inlined_at 8 771 0
	.cv_loc	106 15 61 0
	movq	%rcx, 448(%rbp)
.Ltmp350:
	.cv_loc	106 17 118 0
	movq	%rcx, 320(%rbp)
	movq	%rax, 328(%rbp)
	movq	320(%rbp), %rcx
	movq	328(%rbp), %rax
	movq	%rcx, 304(%rbp)
	movq	%rax, 312(%rbp)
	movq	304(%rbp), %rcx
	movq	312(%rbp), %rax
	movq	%rcx, 456(%rbp)
	movq	%rax, 464(%rbp)
.Ltmp351:
	.cv_loc	101 1 390 0
	movq	%rcx, -64(%rbp)
	movq	%rax, -56(%rbp)
	leaq	-64(%rbp), %rdx
	movq	%rdx, 472(%rbp)
	.cv_loc	101 1 391 0
.Ltmp336:
	leaq	-28(%rbp), %rcx
	leaq	-9(%rbp), %r8
.Ltmp352:
	callq	_ZN77_$LT$$LP$A$C$B$RP$$u20$as$u20$proc_macro..bridge..rpc..DecodeMut$LT$S$GT$$GT$6decode17h3c30f9ee38bcc1f8E
.Ltmp337:
	jmp	.LBB17_4
.Ltmp353:
.LBB17_4:
	movq	-80(%rbp), %rcx
	movl	-20(%rbp), %eax
	movl	%eax, -40(%rbp)
	movq	-28(%rbp), %rax
	movq	%rax, -48(%rbp)
	movl	-16(%rbp), %eax
	movl	%eax, -32(%rbp)
.Ltmp354:
	.cv_loc	101 1 395 0
	movq	8(%rcx), %rax
	movq	%rax, 480(%rbp)
.Ltmp355:
	.cv_inline_site_id 107 within 101 inlined_at 1 395 0
	.cv_inline_site_id 108 within 107 inlined_at 18 55 0
	.cv_inline_site_id 109 within 108 inlined_at 9 846 0
	.cv_inline_site_id 110 within 109 inlined_at 19 44 0
	.cv_loc	110 13 423 0
	movq	$0, 376(%rbp)
	movq	$1, 384(%rbp)
	movq	$0, 392(%rbp)
	leaq	376(%rbp), %rdx
.Ltmp356:
	.cv_inline_site_id 111 within 109 inlined_at 18 23 0
	.cv_loc	111 18 131 0
	movq	%rdx, 488(%rbp)
.Ltmp357:
	.cv_inline_site_id 112 within 111 inlined_at 18 131 0
	.cv_loc	112 13 1328 0
	movq	%rdx, 496(%rbp)
.Ltmp358:
	.cv_inline_site_id 113 within 112 inlined_at 13 1328 0
	.cv_loc	113 14 239 0
	movq	384(%rbp), %r9
	movq	%r9, 504(%rbp)
.Ltmp359:
	.cv_inline_site_id 114 within 113 inlined_at 14 239 0
	.cv_inline_site_id 115 within 114 inlined_at 21 106 0
	.cv_loc	115 20 348 0
	movq	%r9, 512(%rbp)
.Ltmp360:
	.cv_loc	111 18 131 0
	movq	%rdx, 520(%rbp)
.Ltmp361:
	.cv_loc	112 13 2142 0
	movq	392(%rbp), %r8
	movq	%r8, 528(%rbp)
.Ltmp362:
	.cv_loc	111 18 131 0
	movq	%rdx, 536(%rbp)
.Ltmp363:
	.cv_loc	112 13 888 0
	movq	%rdx, 544(%rbp)
.Ltmp364:
	.cv_inline_site_id 116 within 112 inlined_at 13 888 0
	.cv_loc	116 14 247 0
	movq	376(%rbp), %rdx
	movq	%rdx, 552(%rbp)
.Ltmp365:
	.cv_loc	111 18 132 0
	movq	384(%rbp), %r10
	movq	%r10, 560(%rbp)
	movq	376(%rbp), %r10
	movq	%r10, 568(%rbp)
	movq	392(%rbp), %r10
	movq	%r10, 576(%rbp)
	.cv_loc	111 18 154 0
	movq	%r9, 336(%rbp)
	movq	%r8, 344(%rbp)
	movq	%rdx, 352(%rbp)
	leaq	_ZN107_$LT$proc_macro..bridge..buffer..Buffer$u20$as$u20$core..convert..From$LT$alloc..vec..Vec$LT$u8$GT$$GT$$GT$4from7reserve17hab7807acea09da60E(%rip), %rdx
	movq	%rdx, 360(%rbp)
	leaq	_ZN107_$LT$proc_macro..bridge..buffer..Buffer$u20$as$u20$core..convert..From$LT$alloc..vec..Vec$LT$u8$GT$$GT$$GT$4from4drop17h12f6d13fd8920cb0E(%rip), %rdx
	movq	%rdx, 368(%rbp)
.Ltmp366:
	.cv_inline_site_id 117 within 109 inlined_at 9 921 0
	.cv_loc	117 8 1215 0
	movq	32(%rax), %rdx
	movq	%rdx, 176(%rbp)
	vmovups	(%rax), %ymm0
	vmovups	%ymm0, 144(%rbp)
.Ltmp367:
	.cv_inline_site_id 118 within 109 inlined_at 9 922 0
	.cv_loc	118 8 1415 0
	movq	368(%rbp), %rdx
	movq	%rdx, 32(%rax)
	vmovups	336(%rbp), %ymm0
	vmovups	%ymm0, (%rax)
.Ltmp368:
	.cv_loc	101 1 395 0
	movq	16(%rcx), %rdx
	movq	24(%rcx), %rax
	movq	176(%rbp), %r8
	movq	%r8, 120(%rbp)
	vmovups	144(%rbp), %ymm0
	vmovups	%ymm0, 88(%rbp)
	movq	%rdx, 72(%rbp)
	movq	%rax, 80(%rbp)
	movl	-40(%rbp), %eax
	movl	%eax, 136(%rbp)
	movq	-48(%rbp), %rax
	movq	%rax, 128(%rbp)
	movq	136(%rbp), %rax
	movq	%rax, 64(%rbp)
	vmovups	72(%rbp), %ymm0
	vmovups	104(%rbp), %ymm1
	vmovups	%ymm1, 32(%rbp)
	vmovups	%ymm0, (%rbp)
	movq	$1, -8(%rbp)
.Ltmp369:
	.cv_loc	101 1 397 0
	movq	8(%rcx), %rax
	movb	$0, 303(%rbp)
	vmovups	-8(%rbp), %ymm0
	vmovups	24(%rbp), %ymm1
	vmovups	40(%rbp), %ymm2
	vmovups	%ymm2, 240(%rbp)
	vmovups	%ymm1, 224(%rbp)
	vmovups	%ymm0, 192(%rbp)
	movq	32(%rcx), %rcx
	movq	%rcx, 272(%rbp)
	movl	-32(%rbp), %ecx
	movl	%ecx, 288(%rbp)
	movq	%rax, 280(%rbp)
	.cv_loc	102 27 246 0
.Ltmp338:
.Ltmp370:
	leaq	__unnamed_4(%rip), %rcx
	leaq	192(%rbp), %rdx
	vzeroupper
	callq	_ZN3std6thread5local17LocalKey$LT$T$GT$8try_with17h3d7e386acf911b6bE
.Ltmp339:
	movb	%al, -81(%rbp)
	jmp	.LBB17_6
.Ltmp371:
.LBB17_6:
.Ltmp340:
	movb	-81(%rbp), %cl
	andb	$1, %cl
	leaq	__unnamed_5(%rip), %rdx
	leaq	__unnamed_6(%rip), %r9
	movl	$70, %r8d
	callq	_ZN4core6result19Result$LT$T$C$E$GT$6expect17ha701cda071ce235dE
.Ltmp341:
	jmp	.LBB17_7
.Ltmp372:
.LBB17_7:
	.cv_loc	101 1 417 0
	addq	$720, %rsp
	popq	%rbp
	retq
.Ltmp373:
	.seh_handlerdata
	.long	($cppxdata$_ZN10proc_macro6bridge6client10run_client28_$u7b$$u7b$closure$u7d$$u7d$17h4dea6c42ba25658fE)@IMGREL
	.section	.text,"xr",one_only,_ZN10proc_macro6bridge6client10run_client28_$u7b$$u7b$closure$u7d$$u7d$17h4dea6c42ba25658fE
	.seh_endproc
	.def	"?dtor$1@?0?_ZN10proc_macro6bridge6client10run_client28_$u7b$$u7b$closure$u7d$$u7d$17h4dea6c42ba25658fE@4HA";
	.scl	3;
	.type	32;
	.endef
	.p2align	4, 0x90
"?dtor$1@?0?_ZN10proc_macro6bridge6client10run_client28_$u7b$$u7b$closure$u7d$$u7d$17h4dea6c42ba25658fE@4HA":
.seh_proc "?dtor$1@?0?_ZN10proc_macro6bridge6client10run_client28_$u7b$$u7b$closure$u7d$$u7d$17h4dea6c42ba25658fE@4HA"
.LBB17_1:
	movq	%rdx, 16(%rsp)
	pushq	%rbp
	.seh_pushreg %rbp
	subq	$32, %rsp
	.seh_stackalloc 32
	leaq	128(%rdx), %rbp
	.seh_endprologue
	testb	$1, 303(%rbp)
	jne	.LBB17_9
	jmp	.LBB17_8
.LBB17_8:
	.cv_loc	101 1 384 0
	addq	$32, %rsp
	popq	%rbp
	retq
.LBB17_9:
	.cv_loc	101 1 417 0
	jmp	.LBB17_8
.Ltmp374:
	.seh_handlerdata
	.section	.text,"xr",one_only,_ZN10proc_macro6bridge6client10run_client28_$u7b$$u7b$closure$u7d$$u7d$17h4dea6c42ba25658fE
	.seh_endproc
	.def	"?dtor$5@?0?_ZN10proc_macro6bridge6client10run_client28_$u7b$$u7b$closure$u7d$$u7d$17h4dea6c42ba25658fE@4HA";
	.scl	3;
	.type	32;
	.endef
	.p2align	4, 0x90
"?dtor$5@?0?_ZN10proc_macro6bridge6client10run_client28_$u7b$$u7b$closure$u7d$$u7d$17h4dea6c42ba25658fE@4HA":
.seh_proc "?dtor$5@?0?_ZN10proc_macro6bridge6client10run_client28_$u7b$$u7b$closure$u7d$$u7d$17h4dea6c42ba25658fE@4HA"
.LBB17_5:
	movq	%rdx, 16(%rsp)
	pushq	%rbp
	.seh_pushreg %rbp
	subq	$32, %rsp
	.seh_stackalloc 32
	leaq	128(%rdx), %rbp
.Ltmp375:
	.seh_endprologue
	addq	$32, %rsp
	popq	%rbp
	retq
.Lfunc_end17:
	.seh_handlerdata
	.section	.text,"xr",one_only,_ZN10proc_macro6bridge6client10run_client28_$u7b$$u7b$closure$u7d$$u7d$17h4dea6c42ba25658fE
	.seh_endproc
	.section	.xdata,"dr",associative,_ZN10proc_macro6bridge6client10run_client28_$u7b$$u7b$closure$u7d$$u7d$17h4dea6c42ba25658fE
	.p2align	2, 0x0
$cppxdata$_ZN10proc_macro6bridge6client10run_client28_$u7b$$u7b$closure$u7d$$u7d$17h4dea6c42ba25658fE:
	.long	429065506
	.long	2
	.long	($stateUnwindMap$_ZN10proc_macro6bridge6client10run_client28_$u7b$$u7b$closure$u7d$$u7d$17h4dea6c42ba25658fE)@IMGREL
	.long	0
	.long	0
	.long	4
	.long	($ip2state$_ZN10proc_macro6bridge6client10run_client28_$u7b$$u7b$closure$u7d$$u7d$17h4dea6c42ba25658fE)@IMGREL
	.long	712
	.long	0
	.long	1
$stateUnwindMap$_ZN10proc_macro6bridge6client10run_client28_$u7b$$u7b$closure$u7d$$u7d$17h4dea6c42ba25658fE:
	.long	-1
	.long	"?dtor$1@?0?_ZN10proc_macro6bridge6client10run_client28_$u7b$$u7b$closure$u7d$$u7d$17h4dea6c42ba25658fE@4HA"@IMGREL
	.long	0
	.long	"?dtor$5@?0?_ZN10proc_macro6bridge6client10run_client28_$u7b$$u7b$closure$u7d$$u7d$17h4dea6c42ba25658fE@4HA"@IMGREL
$ip2state$_ZN10proc_macro6bridge6client10run_client28_$u7b$$u7b$closure$u7d$$u7d$17h4dea6c42ba25658fE:
	.long	.Lfunc_begin17@IMGREL
	.long	-1
	.long	.Ltmp332@IMGREL+1
	.long	0
	.long	.Ltmp338@IMGREL+1
	.long	1
	.long	.Ltmp341@IMGREL+1
	.long	-1
	.section	.text,"xr",one_only,_ZN10proc_macro6bridge6client10run_client28_$u7b$$u7b$closure$u7d$$u7d$17h4dea6c42ba25658fE

	.def	_ZN10proc_macro6bridge6client10run_client28_$u7b$$u7b$closure$u7d$$u7d$17hffbe596f9e20519fE;
	.scl	3;
	.type	32;
	.endef
	.section	.text,"xr",one_only,_ZN10proc_macro6bridge6client10run_client28_$u7b$$u7b$closure$u7d$$u7d$17hffbe596f9e20519fE
	.p2align	4, 0x90
_ZN10proc_macro6bridge6client10run_client28_$u7b$$u7b$closure$u7d$$u7d$17hffbe596f9e20519fE:
.Lfunc_begin18:
	.cv_func_id 119
	.cv_loc	119 1 419 0
.seh_proc _ZN10proc_macro6bridge6client10run_client28_$u7b$$u7b$closure$u7d$$u7d$17hffbe596f9e20519fE
	.seh_handler __CxxFrameHandler3, @unwind, @except
	pushq	%rbp
	.seh_pushreg %rbp
	subq	$128, %rsp
	.seh_stackalloc 128
	leaq	128(%rsp), %rbp
	.seh_setframe %rbp, 128
	.seh_endprologue
	movq	$-2, -8(%rbp)
	movq	%rcx, -88(%rbp)
.Ltmp378:
	.cv_loc	119 1 420 0
	movq	-88(%rbp), %rax
	movq	%rax, -16(%rbp)
.Ltmp379:
	.cv_inline_site_id 120 within 119 inlined_at 1 420 0
	.cv_loc	120 18 50 0
	movq	$0, 8(%rax)
.Ltmp380:
	.cv_loc	119 1 421 0
	movq	16(%rdx), %rax
	movq	%rax, -32(%rbp)
	vmovdqu	(%rdx), %xmm0
	vmovdqa	%xmm0, -48(%rbp)
	movq	-32(%rbp), %rax
	movq	%rax, -64(%rbp)
	vmovdqa	-48(%rbp), %xmm0
	vmovdqa	%xmm0, -80(%rbp)
	movq	-88(%rbp), %rdx
.Ltmp381:
.Ltmp376:
	leaq	-80(%rbp), %rcx
	leaq	-17(%rbp), %r8
	callq	_ZN10proc_macro6bridge104_$LT$impl$u20$proc_macro..bridge..rpc..Encode$LT$S$GT$$u20$for$u20$core..result..Result$LT$T$C$E$GT$$GT$6encode17hffbfaebceef401f5E
.Ltmp377:
	jmp	.LBB18_2
.Ltmp382:
.LBB18_2:
	.cv_loc	119 1 422 0
	addq	$128, %rsp
	popq	%rbp
	retq
.Ltmp383:
	.seh_handlerdata
	.long	($cppxdata$_ZN10proc_macro6bridge6client10run_client28_$u7b$$u7b$closure$u7d$$u7d$17hffbe596f9e20519fE)@IMGREL
	.section	.text,"xr",one_only,_ZN10proc_macro6bridge6client10run_client28_$u7b$$u7b$closure$u7d$$u7d$17hffbe596f9e20519fE
	.seh_endproc
	.def	"?dtor$1@?0?_ZN10proc_macro6bridge6client10run_client28_$u7b$$u7b$closure$u7d$$u7d$17hffbe596f9e20519fE@4HA";
	.scl	3;
	.type	32;
	.endef
	.p2align	4, 0x90
"?dtor$1@?0?_ZN10proc_macro6bridge6client10run_client28_$u7b$$u7b$closure$u7d$$u7d$17hffbe596f9e20519fE@4HA":
.seh_proc "?dtor$1@?0?_ZN10proc_macro6bridge6client10run_client28_$u7b$$u7b$closure$u7d$$u7d$17hffbe596f9e20519fE@4HA"
.LBB18_1:
	movq	%rdx, 16(%rsp)
	pushq	%rbp
	.seh_pushreg %rbp
	subq	$32, %rsp
	.seh_stackalloc 32
	leaq	128(%rdx), %rbp
	.seh_endprologue
	.cv_loc	119 1 419 0
	addq	$32, %rsp
	popq	%rbp
	retq
.Ltmp384:
.Lfunc_end18:
	.seh_handlerdata
	.section	.text,"xr",one_only,_ZN10proc_macro6bridge6client10run_client28_$u7b$$u7b$closure$u7d$$u7d$17hffbe596f9e20519fE
	.seh_endproc
	.section	.xdata,"dr",associative,_ZN10proc_macro6bridge6client10run_client28_$u7b$$u7b$closure$u7d$$u7d$17hffbe596f9e20519fE
	.p2align	2, 0x0
$cppxdata$_ZN10proc_macro6bridge6client10run_client28_$u7b$$u7b$closure$u7d$$u7d$17hffbe596f9e20519fE:
	.long	429065506
	.long	1
	.long	($stateUnwindMap$_ZN10proc_macro6bridge6client10run_client28_$u7b$$u7b$closure$u7d$$u7d$17hffbe596f9e20519fE)@IMGREL
	.long	0
	.long	0
	.long	3
	.long	($ip2state$_ZN10proc_macro6bridge6client10run_client28_$u7b$$u7b$closure$u7d$$u7d$17hffbe596f9e20519fE)@IMGREL
	.long	120
	.long	0
	.long	1
$stateUnwindMap$_ZN10proc_macro6bridge6client10run_client28_$u7b$$u7b$closure$u7d$$u7d$17hffbe596f9e20519fE:
	.long	-1
	.long	"?dtor$1@?0?_ZN10proc_macro6bridge6client10run_client28_$u7b$$u7b$closure$u7d$$u7d$17hffbe596f9e20519fE@4HA"@IMGREL
$ip2state$_ZN10proc_macro6bridge6client10run_client28_$u7b$$u7b$closure$u7d$$u7d$17hffbe596f9e20519fE:
	.long	.Lfunc_begin18@IMGREL
	.long	-1
	.long	.Ltmp376@IMGREL+1
	.long	0
	.long	.Ltmp377@IMGREL+1
	.long	-1
	.section	.text,"xr",one_only,_ZN10proc_macro6bridge6client10run_client28_$u7b$$u7b$closure$u7d$$u7d$17hffbe596f9e20519fE

	.def	_ZN10proc_macro6bridge6client10run_client28_$u7b$$u7b$closure$u7d$$u7d$28_$u7b$$u7b$closure$u7d$$u7d$17h0eb5c4d0b63d872fE;
	.scl	3;
	.type	32;
	.endef
	.section	.text,"xr",one_only,_ZN10proc_macro6bridge6client10run_client28_$u7b$$u7b$closure$u7d$$u7d$28_$u7b$$u7b$closure$u7d$$u7d$17h0eb5c4d0b63d872fE
	.p2align	4, 0x90
_ZN10proc_macro6bridge6client10run_client28_$u7b$$u7b$closure$u7d$$u7d$28_$u7b$$u7b$closure$u7d$$u7d$17h0eb5c4d0b63d872fE:
.Lfunc_begin19:
	.cv_func_id 121
	.cv_loc	121 1 397 0
.seh_proc _ZN10proc_macro6bridge6client10run_client28_$u7b$$u7b$closure$u7d$$u7d$28_$u7b$$u7b$closure$u7d$$u7d$17h0eb5c4d0b63d872fE
	subq	$216, %rsp
	.seh_stackalloc 216
	.seh_endprologue
	movq	%rdx, %rax
	movq	%rax, 48(%rsp)
	movq	%rcx, %rdx
	movq	%rdx, 40(%rsp)
.Ltmp385:
	movq	%rdx, %rcx
	addq	$80, %rcx
	movq	%rcx, 184(%rsp)
	movq	%rdx, %rcx
	addq	$96, %rcx
	movq	%rcx, 192(%rsp)
	movq	88(%rdx), %rcx
	movq	%rcx, 200(%rsp)
	movq	%rax, 208(%rsp)
.Ltmp386:
	.cv_loc	121 1 398 0
	leaq	56(%rsp), %rcx
	movl	$80, %r8d
	callq	memcpy
	movq	40(%rsp), %rdx
	movq	48(%rsp), %rcx
	movq	88(%rdx), %rax
	movq	80(%rdx), %r8
	movq	%r8, 136(%rsp)
	movl	96(%rdx), %edx
	movl	%edx, 152(%rsp)
	movq	%rax, 144(%rsp)
.Ltmp387:
	.cv_inline_site_id 122 within 121 inlined_at 1 398 0
	.cv_loc	122 6 79 0
	movq	136(%rsp), %rax
	movq	%rax, 160(%rsp)
	movq	144(%rsp), %rax
	movq	%rax, 168(%rsp)
	movq	152(%rsp), %rax
	movq	%rax, 176(%rsp)
	leaq	56(%rsp), %rdx
	leaq	160(%rsp), %r8
	callq	_ZN10proc_macro6bridge11scoped_cell19ScopedCell$LT$T$GT$7replace17h838c1e419258e3c3E
.Ltmp388:
	.cv_loc	121 1 416 0
	nop
	addq	$216, %rsp
	retq
.Ltmp389:
.Lfunc_end19:
	.seh_endproc

	.def	_ZN10proc_macro6bridge6client10run_client28_$u7b$$u7b$closure$u7d$$u7d$28_$u7b$$u7b$closure$u7d$$u7d$28_$u7b$$u7b$closure$u7d$$u7d$17h44ccc3d850644ec9E;
	.scl	3;
	.type	32;
	.endef
	.section	.text,"xr",one_only,_ZN10proc_macro6bridge6client10run_client28_$u7b$$u7b$closure$u7d$$u7d$28_$u7b$$u7b$closure$u7d$$u7d$28_$u7b$$u7b$closure$u7d$$u7d$17h44ccc3d850644ec9E
	.p2align	4, 0x90
_ZN10proc_macro6bridge6client10run_client28_$u7b$$u7b$closure$u7d$$u7d$28_$u7b$$u7b$closure$u7d$$u7d$28_$u7b$$u7b$closure$u7d$$u7d$17h44ccc3d850644ec9E:
.Lfunc_begin20:
	.cv_func_id 123
	.cv_loc	123 1 398 0
.seh_proc _ZN10proc_macro6bridge6client10run_client28_$u7b$$u7b$closure$u7d$$u7d$28_$u7b$$u7b$closure$u7d$$u7d$28_$u7b$$u7b$closure$u7d$$u7d$17h44ccc3d850644ec9E
	.seh_handler __CxxFrameHandler3, @unwind, @except
	pushq	%rbp
	.seh_pushreg %rbp
	subq	$144, %rsp
	.seh_stackalloc 144
	leaq	128(%rsp), %rbp
	.seh_setframe %rbp, 128
	.seh_endprologue
	movq	$-2, 8(%rbp)
	movq	%rcx, %rax
	movq	%rax, -88(%rbp)
.Ltmp396:
	.cv_inline_site_id 124 within 123 inlined_at 1 402 0
	.cv_loc	124 1 308 0
	movq	%rax, %rcx
	addq	$16, %rcx
	movq	%rcx, -16(%rbp)
	movq	8(%rax), %rcx
	movq	%rcx, -8(%rbp)
.Ltmp397:
	.cv_loc	123 1 399 0
	movq	(%rax), %rcx
	movl	16(%rax), %eax
.Ltmp398:
	movl	%eax, -76(%rbp)
	movl	-76(%rbp), %edx
	callq	_ZN10proc_macro6bridge6client63Client$LT$proc_macro..TokenStream$C$proc_macro..TokenStream$GT$7expand128_$u7b$$u7b$closure$u7d$$u7d$28_$u7b$$u7b$closure$u7d$$u7d$17h7ea5f46373688491E
	movl	%eax, -80(%rbp)
	movb	$1, -17(%rbp)
	.cv_loc	124 1 309 0
.Ltmp390:
	leaq	-72(%rbp), %rcx
.Ltmp399:
	callq	_ZN10proc_macro6bridge6client11BridgeState4with17h5707244b6c4e966bE
.Ltmp391:
.Ltmp400:
	jmp	.LBB20_2
.Ltmp401:
.LBB20_2:
	.cv_loc	123 1 402 0
	movq	-88(%rbp), %rax
	movq	8(%rax), %rcx
.Ltmp392:
	callq	_ZN4core3ptr55drop_in_place$LT$proc_macro..bridge..buffer..Buffer$GT$17h8ea12942c7ae266dE
.Ltmp393:
	jmp	.LBB20_4
.Ltmp402:
.LBB20_4:
	movq	-88(%rbp), %rax
	movq	8(%rax), %rcx
	movq	-40(%rbp), %rdx
	movq	%rdx, 32(%rcx)
	vmovups	-72(%rbp), %ymm0
	vmovups	%ymm0, (%rcx)
	.cv_loc	123 1 413 0
	movq	8(%rax), %rcx
	movq	%rcx, (%rbp)
.Ltmp403:
	.cv_inline_site_id 125 within 123 inlined_at 1 413 0
	.cv_loc	125 18 50 0
	movq	$0, 8(%rcx)
.Ltmp404:
	.cv_loc	123 1 414 0
	movb	$0, -17(%rbp)
	movl	-80(%rbp), %ecx
	movl	%ecx, -24(%rbp)
	movl	$0, -28(%rbp)
	movq	8(%rax), %r8
	movl	-28(%rbp), %ecx
	movl	-24(%rbp), %edx
.Ltmp394:
	leaq	-18(%rbp), %r9
	vzeroupper
	callq	_ZN10proc_macro6bridge104_$LT$impl$u20$proc_macro..bridge..rpc..Encode$LT$S$GT$$u20$for$u20$core..result..Result$LT$T$C$E$GT$$GT$6encode17hd854793c94bf7924E
.Ltmp395:
	jmp	.LBB20_5
.Ltmp405:
.LBB20_5:
	.cv_loc	123 1 415 0
	addq	$144, %rsp
	popq	%rbp
	retq
.Ltmp406:
	.seh_handlerdata
	.long	($cppxdata$_ZN10proc_macro6bridge6client10run_client28_$u7b$$u7b$closure$u7d$$u7d$28_$u7b$$u7b$closure$u7d$$u7d$28_$u7b$$u7b$closure$u7d$$u7d$17h44ccc3d850644ec9E)@IMGREL
	.section	.text,"xr",one_only,_ZN10proc_macro6bridge6client10run_client28_$u7b$$u7b$closure$u7d$$u7d$28_$u7b$$u7b$closure$u7d$$u7d$28_$u7b$$u7b$closure$u7d$$u7d$17h44ccc3d850644ec9E
	.seh_endproc
	.def	"?dtor$1@?0?_ZN10proc_macro6bridge6client10run_client28_$u7b$$u7b$closure$u7d$$u7d$28_$u7b$$u7b$closure$u7d$$u7d$28_$u7b$$u7b$closure$u7d$$u7d$17h44ccc3d850644ec9E@4HA";
	.scl	3;
	.type	32;
	.endef
	.p2align	4, 0x90
"?dtor$1@?0?_ZN10proc_macro6bridge6client10run_client28_$u7b$$u7b$closure$u7d$$u7d$28_$u7b$$u7b$closure$u7d$$u7d$28_$u7b$$u7b$closure$u7d$$u7d$17h44ccc3d850644ec9E@4HA":
.seh_proc "?dtor$1@?0?_ZN10proc_macro6bridge6client10run_client28_$u7b$$u7b$closure$u7d$$u7d$28_$u7b$$u7b$closure$u7d$$u7d$28_$u7b$$u7b$closure$u7d$$u7d$17h44ccc3d850644ec9E@4HA"
.LBB20_1:
	movq	%rdx, 16(%rsp)
	pushq	%rbp
	.seh_pushreg %rbp
	subq	$32, %rsp
	.seh_stackalloc 32
	leaq	128(%rdx), %rbp
	.seh_endprologue
	testb	$1, -17(%rbp)
	jne	.LBB20_7
	jmp	.LBB20_6
.LBB20_6:
	.cv_loc	123 1 398 0
	addq	$32, %rsp
	popq	%rbp
	retq
.LBB20_7:
	.cv_loc	123 1 415 0
	leaq	-80(%rbp), %rcx
	callq	_ZN4core3ptr88drop_in_place$LT$core..option..Option$LT$proc_macro..bridge..client..TokenStream$GT$$GT$17hb33811a5d558b4c7E
	jmp	.LBB20_6
	.seh_handlerdata
	.section	.text,"xr",one_only,_ZN10proc_macro6bridge6client10run_client28_$u7b$$u7b$closure$u7d$$u7d$28_$u7b$$u7b$closure$u7d$$u7d$28_$u7b$$u7b$closure$u7d$$u7d$17h44ccc3d850644ec9E
	.seh_endproc
	.def	"?dtor$3@?0?_ZN10proc_macro6bridge6client10run_client28_$u7b$$u7b$closure$u7d$$u7d$28_$u7b$$u7b$closure$u7d$$u7d$28_$u7b$$u7b$closure$u7d$$u7d$17h44ccc3d850644ec9E@4HA";
	.scl	3;
	.type	32;
	.endef
	.p2align	4, 0x90
"?dtor$3@?0?_ZN10proc_macro6bridge6client10run_client28_$u7b$$u7b$closure$u7d$$u7d$28_$u7b$$u7b$closure$u7d$$u7d$28_$u7b$$u7b$closure$u7d$$u7d$17h44ccc3d850644ec9E@4HA":
.seh_proc "?dtor$3@?0?_ZN10proc_macro6bridge6client10run_client28_$u7b$$u7b$closure$u7d$$u7d$28_$u7b$$u7b$closure$u7d$$u7d$28_$u7b$$u7b$closure$u7d$$u7d$17h44ccc3d850644ec9E@4HA"
.LBB20_3:
.Ltmp407:
	movq	%rdx, 16(%rsp)
	pushq	%rbp
	.seh_pushreg %rbp
	subq	$32, %rsp
	.seh_stackalloc 32
	leaq	128(%rdx), %rbp
.Ltmp408:
	.seh_endprologue
	movq	-88(%rbp), %rax
.Ltmp409:
	.cv_loc	123 1 402 0
	movq	8(%rax), %rax
	movq	-40(%rbp), %rcx
	movq	%rcx, 32(%rax)
	vmovups	-72(%rbp), %ymm0
	vmovups	%ymm0, (%rax)
	addq	$32, %rsp
	popq	%rbp
	vzeroupper
	retq
.Ltmp410:
.Lfunc_end20:
	.seh_handlerdata
	.section	.text,"xr",one_only,_ZN10proc_macro6bridge6client10run_client28_$u7b$$u7b$closure$u7d$$u7d$28_$u7b$$u7b$closure$u7d$$u7d$28_$u7b$$u7b$closure$u7d$$u7d$17h44ccc3d850644ec9E
	.seh_endproc
	.section	.xdata,"dr",associative,_ZN10proc_macro6bridge6client10run_client28_$u7b$$u7b$closure$u7d$$u7d$28_$u7b$$u7b$closure$u7d$$u7d$28_$u7b$$u7b$closure$u7d$$u7d$17h44ccc3d850644ec9E
	.p2align	2, 0x0
$cppxdata$_ZN10proc_macro6bridge6client10run_client28_$u7b$$u7b$closure$u7d$$u7d$28_$u7b$$u7b$closure$u7d$$u7d$28_$u7b$$u7b$closure$u7d$$u7d$17h44ccc3d850644ec9E:
	.long	429065506
	.long	2
	.long	($stateUnwindMap$_ZN10proc_macro6bridge6client10run_client28_$u7b$$u7b$closure$u7d$$u7d$28_$u7b$$u7b$closure$u7d$$u7d$28_$u7b$$u7b$closure$u7d$$u7d$17h44ccc3d850644ec9E)@IMGREL
	.long	0
	.long	0
	.long	5
	.long	($ip2state$_ZN10proc_macro6bridge6client10run_client28_$u7b$$u7b$closure$u7d$$u7d$28_$u7b$$u7b$closure$u7d$$u7d$28_$u7b$$u7b$closure$u7d$$u7d$17h44ccc3d850644ec9E)@IMGREL
	.long	136
	.long	0
	.long	1
$stateUnwindMap$_ZN10proc_macro6bridge6client10run_client28_$u7b$$u7b$closure$u7d$$u7d$28_$u7b$$u7b$closure$u7d$$u7d$28_$u7b$$u7b$closure$u7d$$u7d$17h44ccc3d850644ec9E:
	.long	-1
	.long	"?dtor$1@?0?_ZN10proc_macro6bridge6client10run_client28_$u7b$$u7b$closure$u7d$$u7d$28_$u7b$$u7b$closure$u7d$$u7d$28_$u7b$$u7b$closure$u7d$$u7d$17h44ccc3d850644ec9E@4HA"@IMGREL
	.long	0
	.long	"?dtor$3@?0?_ZN10proc_macro6bridge6client10run_client28_$u7b$$u7b$closure$u7d$$u7d$28_$u7b$$u7b$closure$u7d$$u7d$28_$u7b$$u7b$closure$u7d$$u7d$17h44ccc3d850644ec9E@4HA"@IMGREL
$ip2state$_ZN10proc_macro6bridge6client10run_client28_$u7b$$u7b$closure$u7d$$u7d$28_$u7b$$u7b$closure$u7d$$u7d$28_$u7b$$u7b$closure$u7d$$u7d$17h44ccc3d850644ec9E:
	.long	.Lfunc_begin20@IMGREL
	.long	-1
	.long	.Ltmp390@IMGREL+1
	.long	0
	.long	.Ltmp392@IMGREL+1
	.long	1
	.long	.Ltmp394@IMGREL+1
	.long	0
	.long	.Ltmp395@IMGREL+1
	.long	-1
	.section	.text,"xr",one_only,_ZN10proc_macro6bridge6client10run_client28_$u7b$$u7b$closure$u7d$$u7d$28_$u7b$$u7b$closure$u7d$$u7d$28_$u7b$$u7b$closure$u7d$$u7d$17h44ccc3d850644ec9E

	.def	_ZN10proc_macro6bridge6client10run_client28_$u7b$$u7b$closure$u7d$$u7d$28_$u7b$$u7b$closure$u7d$$u7d$28_$u7b$$u7b$closure$u7d$$u7d$28_$u7b$$u7b$closure$u7d$$u7d$17h77789ea53efb7ed9E;
	.scl	3;
	.type	32;
	.endef
	.section	.text,"xr",one_only,_ZN10proc_macro6bridge6client10run_client28_$u7b$$u7b$closure$u7d$$u7d$28_$u7b$$u7b$closure$u7d$$u7d$28_$u7b$$u7b$closure$u7d$$u7d$28_$u7b$$u7b$closure$u7d$$u7d$17h77789ea53efb7ed9E
	.p2align	4, 0x90
_ZN10proc_macro6bridge6client10run_client28_$u7b$$u7b$closure$u7d$$u7d$28_$u7b$$u7b$closure$u7d$$u7d$28_$u7b$$u7b$closure$u7d$$u7d$28_$u7b$$u7b$closure$u7d$$u7d$17h77789ea53efb7ed9E:
.Lfunc_begin21:
	.cv_func_id 126
	.cv_loc	126 1 402 0
.seh_proc _ZN10proc_macro6bridge6client10run_client28_$u7b$$u7b$closure$u7d$$u7d$28_$u7b$$u7b$closure$u7d$$u7d$28_$u7b$$u7b$closure$u7d$$u7d$28_$u7b$$u7b$closure$u7d$$u7d$17h77789ea53efb7ed9E
	subq	$232, %rsp
	.seh_stackalloc 232
	.seh_endprologue
	movq	%rdx, 32(%rsp)
	movq	%rcx, %rax
	movq	%rax, 40(%rsp)
	movq	%rdx, 120(%rsp)
.Ltmp411:
	movq	%rdx, %rax
	addq	$16, %rax
	movq	%rax, 128(%rsp)
.Ltmp412:
	.cv_inline_site_id 127 within 126 inlined_at 1 402 0
	.cv_inline_site_id 128 within 127 inlined_at 18 55 0
	.cv_inline_site_id 129 within 128 inlined_at 9 846 0
	.cv_inline_site_id 130 within 129 inlined_at 19 44 0
	.cv_loc	130 13 423 0
	movq	$0, 88(%rsp)
	movl	$1, %eax
	movq	%rax, 96(%rsp)
	movq	$0, 104(%rsp)
.Ltmp413:
	.cv_inline_site_id 131 within 129 inlined_at 18 23 0
	.cv_loc	131 18 131 0
	leaq	88(%rsp), %rax
	movq	%rax, 136(%rsp)
.Ltmp414:
	.cv_inline_site_id 132 within 131 inlined_at 18 131 0
	.cv_loc	132 13 1328 0
	leaq	88(%rsp), %rax
	movq	%rax, 144(%rsp)
.Ltmp415:
	.cv_inline_site_id 133 within 132 inlined_at 13 1328 0
	.cv_loc	133 14 239 0
	movq	96(%rsp), %r9
	movq	%r9, 152(%rsp)
.Ltmp416:
	.cv_inline_site_id 134 within 133 inlined_at 14 239 0
	.cv_inline_site_id 135 within 134 inlined_at 21 106 0
	.cv_loc	135 20 348 0
	movq	%r9, 160(%rsp)
.Ltmp417:
	.cv_loc	131 18 131 0
	leaq	88(%rsp), %rax
	movq	%rax, 168(%rsp)
.Ltmp418:
	.cv_loc	132 13 2142 0
	movq	104(%rsp), %r8
	movq	%r8, 176(%rsp)
.Ltmp419:
	.cv_loc	131 18 131 0
	leaq	88(%rsp), %rax
	movq	%rax, 184(%rsp)
.Ltmp420:
	.cv_loc	132 13 888 0
	leaq	88(%rsp), %rax
	movq	%rax, 192(%rsp)
.Ltmp421:
	.cv_inline_site_id 136 within 132 inlined_at 13 888 0
	.cv_loc	136 14 247 0
	movq	88(%rsp), %rax
	movq	%rax, 200(%rsp)
.Ltmp422:
	.cv_loc	131 18 132 0
	movq	96(%rsp), %r10
	movq	%r10, 208(%rsp)
	movq	88(%rsp), %r10
	movq	%r10, 216(%rsp)
	movq	104(%rsp), %r10
	movq	%r10, 224(%rsp)
	.cv_loc	131 18 154 0
	movq	%r9, 48(%rsp)
	movq	%r8, 56(%rsp)
	movq	%rax, 64(%rsp)
	leaq	_ZN107_$LT$proc_macro..bridge..buffer..Buffer$u20$as$u20$core..convert..From$LT$alloc..vec..Vec$LT$u8$GT$$GT$$GT$4from7reserve17hab7807acea09da60E(%rip), %rax
	movq	%rax, 72(%rsp)
	leaq	_ZN107_$LT$proc_macro..bridge..buffer..Buffer$u20$as$u20$core..convert..From$LT$alloc..vec..Vec$LT$u8$GT$$GT$$GT$4from4drop17h12f6d13fd8920cb0E(%rip), %rax
	movq	%rax, 80(%rsp)
.Ltmp423:
	.cv_inline_site_id 137 within 129 inlined_at 9 921 0
	.cv_loc	137 8 1215 0
	addq	$16, %rdx
	movl	$40, %r8d
	callq	memcpy
	movq	32(%rsp), %rcx
.Ltmp424:
	.cv_inline_site_id 138 within 129 inlined_at 9 922 0
	.cv_loc	138 8 1415 0
	addq	$16, %rcx
	leaq	48(%rsp), %rdx
	movl	$40, %r8d
	callq	memcpy
	movq	40(%rsp), %rax
.Ltmp425:
	.cv_loc	126 1 402 0
	addq	$232, %rsp
	retq
.Ltmp426:
.Lfunc_end21:
	.seh_endproc

	.def	_ZN10proc_macro6bridge6client11BridgeState4with17h5707244b6c4e966bE;
	.scl	3;
	.type	32;
	.endef
	.section	.text,"xr",one_only,_ZN10proc_macro6bridge6client11BridgeState4with17h5707244b6c4e966bE
	.p2align	4, 0x90
_ZN10proc_macro6bridge6client11BridgeState4with17h5707244b6c4e966bE:
.Lfunc_begin22:
	.cv_func_id 139
	.cv_loc	139 1 297 0
.seh_proc _ZN10proc_macro6bridge6client11BridgeState4with17h5707244b6c4e966bE
	subq	$120, %rsp
	.seh_stackalloc 120
	.seh_endprologue
	movq	%rcx, 48(%rsp)
	movq	%rcx, 56(%rsp)
.Ltmp427:
	.cv_inline_site_id 140 within 139 inlined_at 1 298 0
	.cv_loc	140 27 242 0
	leaq	__unnamed_4(%rip), %rax
	movq	%rax, 64(%rsp)
	.cv_loc	140 27 246 0
	leaq	72(%rsp), %rcx
	leaq	__unnamed_4(%rip), %rdx
	callq	_ZN3std6thread5local17LocalKey$LT$T$GT$8try_with17ha21823a357cee5b2E
	movq	48(%rsp), %rcx
	leaq	72(%rsp), %rdx
	leaq	__unnamed_5(%rip), %r8
	movl	$70, %r9d
	leaq	__unnamed_6(%rip), %rax
	movq	%rax, 32(%rsp)
	callq	_ZN4core6result19Result$LT$T$C$E$GT$6expect17h1b233225345a4b05E
	movq	56(%rsp), %rax
.Ltmp428:
	.cv_loc	139 1 304 0
	addq	$120, %rsp
	retq
.Ltmp429:
.Lfunc_end22:
	.seh_endproc

	.def	_ZN10proc_macro6bridge6client11BridgeState4with28_$u7b$$u7b$closure$u7d$$u7d$17hb38fedd064393833E;
	.scl	3;
	.type	32;
	.endef
	.section	.text,"xr",one_only,_ZN10proc_macro6bridge6client11BridgeState4with28_$u7b$$u7b$closure$u7d$$u7d$17hb38fedd064393833E
	.p2align	4, 0x90
_ZN10proc_macro6bridge6client11BridgeState4with28_$u7b$$u7b$closure$u7d$$u7d$17hb38fedd064393833E:
.Lfunc_begin23:
	.cv_func_id 141
	.cv_loc	141 1 298 0
.seh_proc _ZN10proc_macro6bridge6client11BridgeState4with28_$u7b$$u7b$closure$u7d$$u7d$17hb38fedd064393833E
	subq	$136, %rsp
	.seh_stackalloc 136
	.seh_endprologue
	movq	%rcx, %rax
	movq	%rax, 32(%rsp)
	movq	%rdx, 128(%rsp)
.Ltmp430:
	.cv_loc	141 1 299 0
	movq	$2, 40(%rsp)
	leaq	40(%rsp), %r8
	callq	_ZN10proc_macro6bridge11scoped_cell19ScopedCell$LT$T$GT$7replace17h7c49079a8134e1d4E
	movq	32(%rsp), %rax
	.cv_loc	141 1 303 0
	addq	$136, %rsp
	retq
.Ltmp431:
.Lfunc_end23:
	.seh_endproc

	.def	_ZN10proc_macro6bridge6client11BridgeState4with28_$u7b$$u7b$closure$u7d$$u7d$28_$u7b$$u7b$closure$u7d$$u7d$17h7d0f316f7677b87aE;
	.scl	3;
	.type	32;
	.endef
	.section	.text,"xr",one_only,_ZN10proc_macro6bridge6client11BridgeState4with28_$u7b$$u7b$closure$u7d$$u7d$28_$u7b$$u7b$closure$u7d$$u7d$17h7d0f316f7677b87aE
	.p2align	4, 0x90
_ZN10proc_macro6bridge6client11BridgeState4with28_$u7b$$u7b$closure$u7d$$u7d$28_$u7b$$u7b$closure$u7d$$u7d$17h7d0f316f7677b87aE:
.Lfunc_begin24:
	.cv_func_id 142
	.cv_loc	142 1 299 0
.seh_proc _ZN10proc_macro6bridge6client11BridgeState4with28_$u7b$$u7b$closure$u7d$$u7d$28_$u7b$$u7b$closure$u7d$$u7d$17h7d0f316f7677b87aE
	.seh_handler __CxxFrameHandler3, @unwind, @except
	pushq	%rbp
	.seh_pushreg %rbp
	subq	$80, %rsp
	.seh_stackalloc 80
	leaq	80(%rsp), %rbp
	.seh_setframe %rbp, 80
	.seh_endprologue
	movq	$-2, -8(%rbp)
	movq	%rcx, %rax
	movq	%rax, -40(%rbp)
	movq	%rdx, -32(%rbp)
	leaq	-32(%rbp), %rax
.Ltmp434:
	.cv_loc	142 1 301 0
	movq	%rax, -16(%rbp)
.Ltmp435:
	.cv_inline_site_id 143 within 142 inlined_at 1 301 0
	.cv_loc	143 6 31 0
	movq	-32(%rbp), %rax
.Ltmp436:
	.cv_loc	142 1 301 0
	movq	%rax, -24(%rbp)
	movq	-24(%rbp), %rdx
.Ltmp432:
	callq	_ZN10proc_macro6bridge6client6Bridge4with28_$u7b$$u7b$closure$u7d$$u7d$17hc2ad17920dc19da1E
.Ltmp433:
	jmp	.LBB24_2
.LBB24_2:
	.cv_loc	142 1 302 0
	movq	-40(%rbp), %rax
	addq	$80, %rsp
	popq	%rbp
	retq
	.seh_handlerdata
	.long	($cppxdata$_ZN10proc_macro6bridge6client11BridgeState4with28_$u7b$$u7b$closure$u7d$$u7d$28_$u7b$$u7b$closure$u7d$$u7d$17h7d0f316f7677b87aE)@IMGREL
	.section	.text,"xr",one_only,_ZN10proc_macro6bridge6client11BridgeState4with28_$u7b$$u7b$closure$u7d$$u7d$28_$u7b$$u7b$closure$u7d$$u7d$17h7d0f316f7677b87aE
	.seh_endproc
	.def	"?dtor$1@?0?_ZN10proc_macro6bridge6client11BridgeState4with28_$u7b$$u7b$closure$u7d$$u7d$28_$u7b$$u7b$closure$u7d$$u7d$17h7d0f316f7677b87aE@4HA";
	.scl	3;
	.type	32;
	.endef
	.p2align	4, 0x90
"?dtor$1@?0?_ZN10proc_macro6bridge6client11BridgeState4with28_$u7b$$u7b$closure$u7d$$u7d$28_$u7b$$u7b$closure$u7d$$u7d$17h7d0f316f7677b87aE@4HA":
.seh_proc "?dtor$1@?0?_ZN10proc_macro6bridge6client11BridgeState4with28_$u7b$$u7b$closure$u7d$$u7d$28_$u7b$$u7b$closure$u7d$$u7d$17h7d0f316f7677b87aE@4HA"
.LBB24_1:
	movq	%rdx, 16(%rsp)
	pushq	%rbp
	.seh_pushreg %rbp
	subq	$32, %rsp
	.seh_stackalloc 32
	leaq	80(%rdx), %rbp
	.seh_endprologue
	.cv_loc	142 1 299 0
	addq	$32, %rsp
	popq	%rbp
	retq
.Ltmp437:
.Lfunc_end24:
	.seh_handlerdata
	.section	.text,"xr",one_only,_ZN10proc_macro6bridge6client11BridgeState4with28_$u7b$$u7b$closure$u7d$$u7d$28_$u7b$$u7b$closure$u7d$$u7d$17h7d0f316f7677b87aE
	.seh_endproc
	.section	.xdata,"dr",associative,_ZN10proc_macro6bridge6client11BridgeState4with28_$u7b$$u7b$closure$u7d$$u7d$28_$u7b$$u7b$closure$u7d$$u7d$17h7d0f316f7677b87aE
	.p2align	2, 0x0
$cppxdata$_ZN10proc_macro6bridge6client11BridgeState4with28_$u7b$$u7b$closure$u7d$$u7d$28_$u7b$$u7b$closure$u7d$$u7d$17h7d0f316f7677b87aE:
	.long	429065506
	.long	1
	.long	($stateUnwindMap$_ZN10proc_macro6bridge6client11BridgeState4with28_$u7b$$u7b$closure$u7d$$u7d$28_$u7b$$u7b$closure$u7d$$u7d$17h7d0f316f7677b87aE)@IMGREL
	.long	0
	.long	0
	.long	3
	.long	($ip2state$_ZN10proc_macro6bridge6client11BridgeState4with28_$u7b$$u7b$closure$u7d$$u7d$28_$u7b$$u7b$closure$u7d$$u7d$17h7d0f316f7677b87aE)@IMGREL
	.long	72
	.long	0
	.long	1
$stateUnwindMap$_ZN10proc_macro6bridge6client11BridgeState4with28_$u7b$$u7b$closure$u7d$$u7d$28_$u7b$$u7b$closure$u7d$$u7d$17h7d0f316f7677b87aE:
	.long	-1
	.long	"?dtor$1@?0?_ZN10proc_macro6bridge6client11BridgeState4with28_$u7b$$u7b$closure$u7d$$u7d$28_$u7b$$u7b$closure$u7d$$u7d$17h7d0f316f7677b87aE@4HA"@IMGREL
$ip2state$_ZN10proc_macro6bridge6client11BridgeState4with28_$u7b$$u7b$closure$u7d$$u7d$28_$u7b$$u7b$closure$u7d$$u7d$17h7d0f316f7677b87aE:
	.long	.Lfunc_begin24@IMGREL
	.long	-1
	.long	.Ltmp432@IMGREL+1
	.long	0
	.long	.Ltmp433@IMGREL+1
	.long	-1
	.section	.text,"xr",one_only,_ZN10proc_macro6bridge6client11BridgeState4with28_$u7b$$u7b$closure$u7d$$u7d$28_$u7b$$u7b$closure$u7d$$u7d$17h7d0f316f7677b87aE

	.def	_ZN10proc_macro6bridge6client12BRIDGE_STATE7__getit17h18699b32bcdfe4ecE;
	.scl	3;
	.type	32;
	.endef
	.section	.text,"xr",one_only,_ZN10proc_macro6bridge6client12BRIDGE_STATE7__getit17h18699b32bcdfe4ecE
	.p2align	4, 0x90
_ZN10proc_macro6bridge6client12BRIDGE_STATE7__getit17h18699b32bcdfe4ecE:
.Lfunc_begin25:
	.cv_func_id 144
	.cv_file	28 "C:\\Users\\cires\\.rustup\\toolchains\\nightly-x86_64-pc-windows-msvc\\lib\\rustlib\\src\\rust\\library\\std\\src\\sys\\common\\thread_local\\fast_local.rs" "02C055818CCA2E126C5CF1948F6760F70223AD2033014F1ECFE1DF4E0356A8EB" 3
	.cv_loc	144 28 83 0
.seh_proc _ZN10proc_macro6bridge6client12BRIDGE_STATE7__getit17h18699b32bcdfe4ecE
	subq	$56, %rsp
	.seh_stackalloc 56
	.seh_endprologue
	movq	%rcx, 32(%rsp)
	movq	%rcx, 48(%rsp)
.Ltmp438:
	.cv_loc	144 28 91 0
	callq	_ZN10proc_macro6bridge6client12BRIDGE_STATE7__getit33__KEY$u7b$$u7b$tls.shim$u7d$$u7d$17hca65d49598e20f80E
	movq	%rax, %rcx
	movq	32(%rsp), %rax
	movq	%rax, 40(%rsp)
	movq	40(%rsp), %rdx
	callq	_ZN3std3sys6common12thread_local10fast_local12Key$LT$T$GT$3get17h22174112fd4c29b0E
	.cv_loc	144 28 102 0
	nop
	addq	$56, %rsp
	retq
.Ltmp439:
.Lfunc_end25:
	.seh_endproc

	.def	_ZN10proc_macro6bridge6client12BRIDGE_STATE7__getit28_$u7b$$u7b$closure$u7d$$u7d$17h9c3b780f0835b005E;
	.scl	3;
	.type	32;
	.endef
	.section	.text,"xr",one_only,_ZN10proc_macro6bridge6client12BRIDGE_STATE7__getit28_$u7b$$u7b$closure$u7d$$u7d$17h9c3b780f0835b005E
	.p2align	4, 0x90
_ZN10proc_macro6bridge6client12BRIDGE_STATE7__getit28_$u7b$$u7b$closure$u7d$$u7d$17h9c3b780f0835b005E:
.Lfunc_begin26:
	.cv_func_id 145
	.cv_loc	145 28 91 0
.seh_proc _ZN10proc_macro6bridge6client12BRIDGE_STATE7__getit28_$u7b$$u7b$closure$u7d$$u7d$17h9c3b780f0835b005E
	subq	$568, %rsp
	.seh_stackalloc 568
	.seh_endprologue
	movq	%rcx, 40(%rsp)
	movq	%rcx, 48(%rsp)
	movq	%rdx, 56(%rsp)
.Ltmp440:
	.cv_loc	145 28 92 0
	movq	56(%rsp), %rdx
	movl	$1, %eax
	xorl	%ecx, %ecx
	cmpq	$0, %rdx
	cmoveq	%rcx, %rax
	cmpq	$1, %rax
	jne	.LBB26_2
	movq	56(%rsp), %rdx
	movq	%rdx, 32(%rsp)
	movq	%rdx, 560(%rsp)
.Ltmp441:
	.cv_inline_site_id 146 within 145 inlined_at 28 93 0
	.cv_loc	146 10 1690 0
	movq	$0, 232(%rsp)
.Ltmp442:
	.cv_inline_site_id 147 within 146 inlined_at 10 1690 0
	.cv_inline_site_id 148 within 147 inlined_at 9 921 0
	.cv_loc	148 8 1215 0
	leaq	64(%rsp), %rcx
	movl	$88, %r8d
	callq	memcpy
	movq	32(%rsp), %rcx
.Ltmp443:
	.cv_inline_site_id 149 within 147 inlined_at 9 922 0
	.cv_loc	149 8 1415 0
	leaq	232(%rsp), %rdx
	movl	$88, %r8d
	callq	memcpy
.Ltmp444:
	.cv_loc	145 28 93 0
	cmpq	$1, 64(%rsp)
	je	.LBB26_3
	jmp	.LBB26_4
.Ltmp445:
.LBB26_2:
	.cv_inline_site_id 150 within 145 inlined_at 28 99 0
	.cv_loc	150 1 286 0
	movq	$0, 320(%rsp)
.Ltmp446:
	.cv_inline_site_id 151 within 150 inlined_at 1 286 0
	.cv_inline_site_id 152 within 151 inlined_at 6 39 0
	.cv_inline_site_id 153 within 152 inlined_at 7 395 0
	.cv_loc	153 7 2048 0
	leaq	480(%rsp), %rcx
	leaq	320(%rsp), %rdx
	movl	$80, %r8d
	callq	memcpy
.Ltmp447:
	.cv_loc	152 7 395 0
	leaq	400(%rsp), %rcx
	leaq	480(%rsp), %rdx
	movl	$80, %r8d
	callq	memcpy
	movq	40(%rsp), %rcx
.Ltmp448:
	.cv_loc	151 6 39 0
	leaq	400(%rsp), %rdx
	movl	$80, %r8d
	callq	memcpy
.Ltmp449:
	.cv_loc	145 28 99 0
	jmp	.LBB26_5
.LBB26_3:
.Ltmp450:
	.cv_loc	145 28 93 0
	leaq	64(%rsp), %rdx
	addq	$8, %rdx
	leaq	152(%rsp), %rcx
	movl	$80, %r8d
	callq	memcpy
	movq	40(%rsp), %rcx
	.cv_loc	145 28 94 0
	leaq	152(%rsp), %rdx
	movl	$80, %r8d
	callq	memcpy
.Ltmp451:
	.cv_loc	145 28 100 0
	jmp	.LBB26_5
.LBB26_4:
.Ltmp452:
	.cv_loc	145 28 98 0
	leaq	64(%rsp), %rcx
	callq	_ZN4core3ptr140drop_in_place$LT$core..option..Option$LT$proc_macro..bridge..scoped_cell..ScopedCell$LT$proc_macro..bridge..client..BridgeStateL$GT$$GT$$GT$17h76c82ae1730b2bfbE
.Ltmp453:
	.cv_loc	145 28 92 0
	jmp	.LBB26_2
.LBB26_5:
	.cv_loc	145 28 100 0
	movq	48(%rsp), %rax
	addq	$568, %rsp
	retq
.Ltmp454:
.Lfunc_end26:
	.seh_endproc

	.def	_ZN10proc_macro6bridge6client14HandleCounters3get17hb1bc48896ca69e99E;
	.scl	3;
	.type	32;
	.endef
	.section	.text,"xr",one_only,_ZN10proc_macro6bridge6client14HandleCounters3get17hb1bc48896ca69e99E
	.p2align	4, 0x90
_ZN10proc_macro6bridge6client14HandleCounters3get17hb1bc48896ca69e99E:
.Lfunc_begin27:
	.cv_func_id 154
	.cv_loc	154 1 28 0
	movq	__imp__ZN10proc_macro6bridge6client14HandleCounters3get8COUNTERS17h32e2e2c661309828E(%rip), %rax
	retq
.Ltmp455:
.Lfunc_end27:

	.def	_ZN10proc_macro6bridge6client63Client$LT$proc_macro..TokenStream$C$proc_macro..TokenStream$GT$7expand128_$u7b$$u7b$closure$u7d$$u7d$17h919647dcce366437E;
	.scl	3;
	.type	32;
	.endef
	.section	.text,"xr",one_only,_ZN10proc_macro6bridge6client63Client$LT$proc_macro..TokenStream$C$proc_macro..TokenStream$GT$7expand128_$u7b$$u7b$closure$u7d$$u7d$17h919647dcce366437E
	.p2align	4, 0x90
_ZN10proc_macro6bridge6client63Client$LT$proc_macro..TokenStream$C$proc_macro..TokenStream$GT$7expand128_$u7b$$u7b$closure$u7d$$u7d$17h919647dcce366437E:
.Lfunc_begin28:
	.cv_func_id 155
	.cv_loc	155 1 434 0
.seh_proc _ZN10proc_macro6bridge6client63Client$LT$proc_macro..TokenStream$C$proc_macro..TokenStream$GT$7expand128_$u7b$$u7b$closure$u7d$$u7d$17h919647dcce366437E
	subq	$72, %rsp
	.seh_stackalloc 72
	.seh_endprologue
	movq	%r8, 40(%rsp)
.Ltmp456:
	movq	%rdx, %rax
	movq	40(%rsp), %rdx
	movq	%rcx, %r8
	movq	%r8, 48(%rsp)
	movq	%rax, 64(%rsp)
.Ltmp457:
	.cv_loc	155 1 435 0
	movq	%rax, 56(%rsp)
	movq	56(%rsp), %r8
	callq	_ZN10proc_macro6bridge6client10run_client17hd0dd18b283dea759E
.Ltmp458:
	movq	48(%rsp), %rax
	.cv_loc	155 1 436 0
	addq	$72, %rsp
	retq
.Ltmp459:
.Lfunc_end28:
	.seh_endproc

	.def	_ZN10proc_macro6bridge6client63Client$LT$proc_macro..TokenStream$C$proc_macro..TokenStream$GT$7expand128_$u7b$$u7b$closure$u7d$$u7d$28_$u7b$$u7b$closure$u7d$$u7d$17h7ea5f46373688491E;
	.scl	3;
	.type	32;
	.endef
	.section	.text,"xr",one_only,_ZN10proc_macro6bridge6client63Client$LT$proc_macro..TokenStream$C$proc_macro..TokenStream$GT$7expand128_$u7b$$u7b$closure$u7d$$u7d$28_$u7b$$u7b$closure$u7d$$u7d$17h7ea5f46373688491E
	.p2align	4, 0x90
_ZN10proc_macro6bridge6client63Client$LT$proc_macro..TokenStream$C$proc_macro..TokenStream$GT$7expand128_$u7b$$u7b$closure$u7d$$u7d$28_$u7b$$u7b$closure$u7d$$u7d$17h7ea5f46373688491E:
.Lfunc_begin29:
	.cv_func_id 156
	.cv_loc	156 1 435 0
.seh_proc _ZN10proc_macro6bridge6client63Client$LT$proc_macro..TokenStream$C$proc_macro..TokenStream$GT$7expand128_$u7b$$u7b$closure$u7d$$u7d$28_$u7b$$u7b$closure$u7d$$u7d$17h7ea5f46373688491E
	subq	$56, %rsp
	.seh_stackalloc 56
	.seh_endprologue
	movq	%rcx, 32(%rsp)
	movl	%edx, 52(%rsp)
.Ltmp460:
	movq	32(%rsp), %rcx
	movl	%edx, 48(%rsp)
	movl	48(%rsp), %eax
	movl	%eax, 44(%rsp)
	movl	44(%rsp), %eax
	movl	%eax, 40(%rsp)
	movl	40(%rsp), %edx
	callq	_ZN4core3ops8function2Fn4call17h8afa6252aa1126adE
	nop
	addq	$56, %rsp
	retq
.Ltmp461:
.Lfunc_end29:
	.seh_endproc

	.def	_ZN10proc_macro6bridge6client6Bridge4with28_$u7b$$u7b$closure$u7d$$u7d$17hc2ad17920dc19da1E;
	.scl	3;
	.type	32;
	.endef
	.section	.text,"xr",one_only,_ZN10proc_macro6bridge6client6Bridge4with28_$u7b$$u7b$closure$u7d$$u7d$17hc2ad17920dc19da1E
	.p2align	4, 0x90
_ZN10proc_macro6bridge6client6Bridge4with28_$u7b$$u7b$closure$u7d$$u7d$17hc2ad17920dc19da1E:
.Lfunc_begin30:
	.cv_func_id 157
	.cv_loc	157 1 309 0
.seh_proc _ZN10proc_macro6bridge6client6Bridge4with28_$u7b$$u7b$closure$u7d$$u7d$17hc2ad17920dc19da1E
	.seh_handler __CxxFrameHandler3, @unwind, @except
	pushq	%rbp
	.seh_pushreg %rbp
	subq	$272, %rsp
	.seh_stackalloc 272
	leaq	128(%rsp), %rbp
	.seh_setframe %rbp, 128
	.seh_endprologue
	movq	$-2, 136(%rbp)
	movq	%rdx, -88(%rbp)
	movq	%rcx, -80(%rbp)
	movq	%rcx, -72(%rbp)
	movq	%rdx, 88(%rbp)
.Ltmp468:
	movb	$1, 55(%rbp)
	movq	(%rdx), %rax
	movq	%rax, -64(%rbp)
	testq	%rax, %rax
	je	.LBB30_2
	jmp	.LBB30_10
.LBB30_10:
	movq	-64(%rbp), %rax
	subq	$1, %rax
	je	.LBB30_3
	jmp	.LBB30_11
.LBB30_11:
	jmp	.LBB30_4
	ud2
.LBB30_2:
	.cv_loc	157 1 311 0
	leaq	__unnamed_7(%rip), %rax
	movq	%rax, 96(%rbp)
	movq	$1, 104(%rbp)
.Ltmp469:
	.cv_file	29 "C:\\Users\\cires\\.rustup\\toolchains\\nightly-x86_64-pc-windows-msvc\\lib\\rustlib\\src\\rust\\library\\core\\src\\fmt\\mod.rs" "CF97D6FD1BF54AE1A88B5B1A5FBA0E7974C543B31A8E2295E1C5756F6964ED84" 3
	.cv_file	30 "C:\\Users\\cires\\.rustup\\toolchains\\nightly-x86_64-pc-windows-msvc\\lib\\rustlib\\src\\rust\\library\\core\\src\\panic.rs" "7C9311B962BB9C48259DAEE21A545C73EDEAAB2F5B83344CF47C716810F1AA94" 3
	.cv_inline_site_id 158 within 157 inlined_at 30 106 0
	.cv_loc	158 29 325 0
	movq	$0, 56(%rbp)
	movq	%rax, -56(%rbp)
	movq	$1, -48(%rbp)
	movq	56(%rbp), %rcx
	movq	64(%rbp), %rax
	movq	%rcx, -24(%rbp)
	movq	%rax, -16(%rbp)
	leaq	__unnamed_8(%rip), %rax
	movq	%rax, -40(%rbp)
	movq	$0, -32(%rbp)
.Ltmp470:
	.cv_loc	157 1 311 0
.Ltmp466:
	leaq	__unnamed_9(%rip), %rdx
	leaq	-56(%rbp), %rcx
	callq	_ZN4core9panicking9panic_fmt17hdbb75bebc22f3408E
.Ltmp467:
	jmp	.LBB30_6
.LBB30_3:
	.cv_loc	157 1 316 0
	movq	-80(%rbp), %rcx
	movq	-88(%rbp), %rax
	addq	$8, %rax
	movq	%rax, 112(%rbp)
.Ltmp471:
	.cv_loc	157 1 316 0
	movb	$0, 55(%rbp)
	movq	%rax, 40(%rbp)
	movq	40(%rbp), %rdx
.Ltmp464:
	callq	_ZN10proc_macro6bridge6client10run_client28_$u7b$$u7b$closure$u7d$$u7d$28_$u7b$$u7b$closure$u7d$$u7d$28_$u7b$$u7b$closure$u7d$$u7d$28_$u7b$$u7b$closure$u7d$$u7d$17h77789ea53efb7ed9E
.Ltmp465:
	jmp	.LBB30_7
.Ltmp472:
.LBB30_4:
	.cv_loc	157 1 314 0
	leaq	__unnamed_10(%rip), %rax
	movq	%rax, 120(%rbp)
	movq	$1, 128(%rbp)
.Ltmp473:
	.cv_loc	158 29 325 0
	movq	$0, 72(%rbp)
	movq	%rax, -8(%rbp)
	movq	$1, (%rbp)
	movq	72(%rbp), %rcx
	movq	80(%rbp), %rax
	movq	%rcx, 24(%rbp)
	movq	%rax, 32(%rbp)
	leaq	__unnamed_8(%rip), %rax
	movq	%rax, 8(%rbp)
	movq	$0, 16(%rbp)
.Ltmp474:
	.cv_loc	157 1 314 0
.Ltmp462:
	leaq	__unnamed_11(%rip), %rdx
	leaq	-8(%rbp), %rcx
	callq	_ZN4core9panicking9panic_fmt17hdbb75bebc22f3408E
.Ltmp463:
	jmp	.LBB30_6
.LBB30_6:
	ud2
.LBB30_7:
	.cv_loc	157 1 317 0
	movq	-72(%rbp), %rax
	addq	$272, %rsp
	popq	%rbp
	retq
	.seh_handlerdata
	.long	($cppxdata$_ZN10proc_macro6bridge6client6Bridge4with28_$u7b$$u7b$closure$u7d$$u7d$17hc2ad17920dc19da1E)@IMGREL
	.section	.text,"xr",one_only,_ZN10proc_macro6bridge6client6Bridge4with28_$u7b$$u7b$closure$u7d$$u7d$17hc2ad17920dc19da1E
	.seh_endproc
	.def	"?dtor$5@?0?_ZN10proc_macro6bridge6client6Bridge4with28_$u7b$$u7b$closure$u7d$$u7d$17hc2ad17920dc19da1E@4HA";
	.scl	3;
	.type	32;
	.endef
	.p2align	4, 0x90
"?dtor$5@?0?_ZN10proc_macro6bridge6client6Bridge4with28_$u7b$$u7b$closure$u7d$$u7d$17hc2ad17920dc19da1E@4HA":
.seh_proc "?dtor$5@?0?_ZN10proc_macro6bridge6client6Bridge4with28_$u7b$$u7b$closure$u7d$$u7d$17hc2ad17920dc19da1E@4HA"
.LBB30_5:
	movq	%rdx, 16(%rsp)
	pushq	%rbp
	.seh_pushreg %rbp
	subq	$32, %rsp
	.seh_stackalloc 32
	leaq	128(%rdx), %rbp
	.seh_endprologue
	testb	$1, 55(%rbp)
	jne	.LBB30_9
	jmp	.LBB30_8
.LBB30_8:
	.cv_loc	157 1 309 0
	addq	$32, %rsp
	popq	%rbp
	retq
.LBB30_9:
	.cv_loc	157 1 317 0
	jmp	.LBB30_8
.Ltmp475:
.Lfunc_end30:
	.seh_handlerdata
	.section	.text,"xr",one_only,_ZN10proc_macro6bridge6client6Bridge4with28_$u7b$$u7b$closure$u7d$$u7d$17hc2ad17920dc19da1E
	.seh_endproc
	.section	.xdata,"dr",associative,_ZN10proc_macro6bridge6client6Bridge4with28_$u7b$$u7b$closure$u7d$$u7d$17hc2ad17920dc19da1E
	.p2align	2, 0x0
$cppxdata$_ZN10proc_macro6bridge6client6Bridge4with28_$u7b$$u7b$closure$u7d$$u7d$17hc2ad17920dc19da1E:
	.long	429065506
	.long	1
	.long	($stateUnwindMap$_ZN10proc_macro6bridge6client6Bridge4with28_$u7b$$u7b$closure$u7d$$u7d$17hc2ad17920dc19da1E)@IMGREL
	.long	0
	.long	0
	.long	3
	.long	($ip2state$_ZN10proc_macro6bridge6client6Bridge4with28_$u7b$$u7b$closure$u7d$$u7d$17hc2ad17920dc19da1E)@IMGREL
	.long	264
	.long	0
	.long	1
$stateUnwindMap$_ZN10proc_macro6bridge6client6Bridge4with28_$u7b$$u7b$closure$u7d$$u7d$17hc2ad17920dc19da1E:
	.long	-1
	.long	"?dtor$5@?0?_ZN10proc_macro6bridge6client6Bridge4with28_$u7b$$u7b$closure$u7d$$u7d$17hc2ad17920dc19da1E@4HA"@IMGREL
$ip2state$_ZN10proc_macro6bridge6client6Bridge4with28_$u7b$$u7b$closure$u7d$$u7d$17hc2ad17920dc19da1E:
	.long	.Lfunc_begin30@IMGREL
	.long	-1
	.long	.Ltmp466@IMGREL+1
	.long	0
	.long	.Ltmp463@IMGREL+1
	.long	-1
	.section	.text,"xr",one_only,_ZN10proc_macro6bridge6client6Bridge4with28_$u7b$$u7b$closure$u7d$$u7d$17hc2ad17920dc19da1E

	.def	_ZN115_$LT$core..panic..unwind_safe..AssertUnwindSafe$LT$F$GT$$u20$as$u20$core..ops..function..FnOnce$LT$$LP$$RP$$GT$$GT$9call_once17hcd8e65880c8a50bcE;
	.scl	3;
	.type	32;
	.endef
	.section	.text,"xr",one_only,_ZN115_$LT$core..panic..unwind_safe..AssertUnwindSafe$LT$F$GT$$u20$as$u20$core..ops..function..FnOnce$LT$$LP$$RP$$GT$$GT$9call_once17hcd8e65880c8a50bcE
	.p2align	4, 0x90
_ZN115_$LT$core..panic..unwind_safe..AssertUnwindSafe$LT$F$GT$$u20$as$u20$core..ops..function..FnOnce$LT$$LP$$RP$$GT$$GT$9call_once17hcd8e65880c8a50bcE:
.Lfunc_begin31:
	.cv_func_id 159
	.cv_file	31 "C:\\Users\\cires\\.rustup\\toolchains\\nightly-x86_64-pc-windows-msvc\\lib\\rustlib\\src\\rust\\library\\core\\src\\panic\\unwind_safe.rs" "D0BFB89FFB017620BDF395C81CAA49D7C939457755DD184AC281EE7FD2842CC7" 3
	.cv_loc	159 31 271 0
.seh_proc _ZN115_$LT$core..panic..unwind_safe..AssertUnwindSafe$LT$F$GT$$u20$as$u20$core..ops..function..FnOnce$LT$$LP$$RP$$GT$$GT$9call_once17hcd8e65880c8a50bcE
	subq	$56, %rsp
	.seh_stackalloc 56
	.seh_endprologue
.Ltmp476:
	movq	%rcx, 48(%rsp)
	.cv_loc	159 31 272 0
	callq	_ZN4core3ops8function6FnOnce9call_once17h1834b504c37e8578E
	.cv_loc	159 31 273 0
	nop
	addq	$56, %rsp
	retq
.Ltmp477:
.Lfunc_end31:
	.seh_endproc

	.def	_ZN115_$LT$core..panic..unwind_safe..AssertUnwindSafe$LT$F$GT$$u20$as$u20$core..ops..function..FnOnce$LT$$LP$$RP$$GT$$GT$9call_once17hfd406be2e2253087E;
	.scl	3;
	.type	32;
	.endef
	.section	.text,"xr",one_only,_ZN115_$LT$core..panic..unwind_safe..AssertUnwindSafe$LT$F$GT$$u20$as$u20$core..ops..function..FnOnce$LT$$LP$$RP$$GT$$GT$9call_once17hfd406be2e2253087E
	.p2align	4, 0x90
_ZN115_$LT$core..panic..unwind_safe..AssertUnwindSafe$LT$F$GT$$u20$as$u20$core..ops..function..FnOnce$LT$$LP$$RP$$GT$$GT$9call_once17hfd406be2e2253087E:
.Lfunc_begin32:
	.cv_func_id 160
	.cv_loc	160 31 271 0
.seh_proc _ZN115_$LT$core..panic..unwind_safe..AssertUnwindSafe$LT$F$GT$$u20$as$u20$core..ops..function..FnOnce$LT$$LP$$RP$$GT$$GT$9call_once17hfd406be2e2253087E
	subq	$88, %rsp
	.seh_stackalloc 88
	.seh_endprologue
	movq	%rcx, %rdx
.Ltmp478:
	.cv_loc	160 31 272 0
	leaq	48(%rsp), %rcx
	movl	$40, %r8d
	callq	memcpy
.Ltmp479:
	leaq	48(%rsp), %rcx
	callq	_ZN10proc_macro6bridge6client10run_client28_$u7b$$u7b$closure$u7d$$u7d$17h4dea6c42ba25658fE
	.cv_loc	160 31 273 0
	nop
	addq	$88, %rsp
	retq
.Ltmp480:
.Lfunc_end32:
	.seh_endproc

	.def	_ZN127_$LT$proc_macro..bridge..scoped_cell..ScopedCell$LT$T$GT$..replace..PutBackOnDrop$LT$T$GT$$u20$as$u20$core..ops..drop..Drop$GT$4drop17hf297f509487812cbE;
	.scl	3;
	.type	32;
	.endef
	.section	.text,"xr",one_only,_ZN127_$LT$proc_macro..bridge..scoped_cell..ScopedCell$LT$T$GT$..replace..PutBackOnDrop$LT$T$GT$$u20$as$u20$core..ops..drop..Drop$GT$4drop17hf297f509487812cbE
	.p2align	4, 0x90
_ZN127_$LT$proc_macro..bridge..scoped_cell..ScopedCell$LT$T$GT$..replace..PutBackOnDrop$LT$T$GT$$u20$as$u20$core..ops..drop..Drop$GT$4drop17hf297f509487812cbE:
.Lfunc_begin33:
	.cv_func_id 161
	.cv_loc	161 6 60 0
.seh_proc _ZN127_$LT$proc_macro..bridge..scoped_cell..ScopedCell$LT$T$GT$..replace..PutBackOnDrop$LT$T$GT$$u20$as$u20$core..ops..drop..Drop$GT$4drop17hf297f509487812cbE
	subq	$408, %rsp
	.seh_stackalloc 408
	.seh_endprologue
	movq	%rcx, %rdx
	movq	%rdx, 40(%rsp)
	movq	%rdx, 368(%rsp)
.Ltmp481:
	.cv_loc	161 6 61 0
	movq	80(%rdx), %rax
	movq	%rax, 32(%rsp)
	movq	%rax, 376(%rsp)
	movq	%rdx, 384(%rsp)
.Ltmp482:
	.cv_inline_site_id 162 within 161 inlined_at 6 61 0
	.cv_loc	162 10 1690 0
	movq	$3, 208(%rsp)
.Ltmp483:
	.cv_inline_site_id 163 within 162 inlined_at 10 1690 0
	.cv_inline_site_id 164 within 163 inlined_at 9 921 0
	.cv_loc	164 8 1215 0
	leaq	128(%rsp), %rcx
	movl	$80, %r8d
	callq	memcpy
	movq	40(%rsp), %rcx
.Ltmp484:
	.cv_inline_site_id 165 within 163 inlined_at 9 922 0
	.cv_loc	165 8 1415 0
	leaq	208(%rsp), %rdx
	movl	$80, %r8d
	callq	memcpy
.Ltmp485:
	.cv_loc	162 10 929 0
	movl	$1, %eax
	xorl	%ecx, %ecx
	cmpq	$3, 128(%rsp)
	cmoveq	%rcx, %rax
	cmpq	$0, %rax
	jne	.LBB33_2
	.cv_loc	162 10 931 0
	leaq	__unnamed_2(%rip), %rcx
	leaq	__unnamed_12(%rip), %r8
	movl	$43, %edx
	callq	_ZN4core9panicking5panic17hb11f2d409f96600eE
.LBB33_2:
	.cv_loc	162 10 930 0
	leaq	48(%rsp), %rcx
	leaq	128(%rsp), %rdx
	movl	$80, %r8d
	callq	memcpy
	movq	32(%rsp), %rdx
.Ltmp486:
	.cv_inline_site_id 166 within 162 inlined_at 7 412 0
	.cv_loc	166 7 473 0
	movq	%rdx, 392(%rsp)
.Ltmp487:
	.cv_inline_site_id 167 within 166 inlined_at 7 473 0
	.cv_loc	167 7 2116 0
	movq	%rdx, 400(%rsp)
.Ltmp488:
	.cv_inline_site_id 168 within 167 inlined_at 9 921 0
	.cv_loc	168 8 1215 0
	leaq	288(%rsp), %rcx
	movl	$80, %r8d
	callq	memcpy
	movq	32(%rsp), %rcx
.Ltmp489:
	.cv_inline_site_id 169 within 167 inlined_at 9 922 0
	.cv_loc	169 8 1415 0
	leaq	48(%rsp), %rdx
	movl	$80, %r8d
	callq	memcpy
.Ltmp490:
	.cv_loc	162 7 412 0
	leaq	288(%rsp), %rcx
	callq	_ZN4core3ptr60drop_in_place$LT$proc_macro..bridge..client..BridgeState$GT$17h8c8c392b23d1274aE
.Ltmp491:
	.cv_loc	161 6 62 0
	nop
	addq	$408, %rsp
	retq
.Ltmp492:
.Lfunc_end33:
	.seh_endproc

	.def	_ZN3std2io5Write9write_all17h1956c28dfac04cdbE;
	.scl	3;
	.type	32;
	.endef
	.section	.text,"xr",one_only,_ZN3std2io5Write9write_all17h1956c28dfac04cdbE
	.p2align	4, 0x90
_ZN3std2io5Write9write_all17h1956c28dfac04cdbE:
.Lfunc_begin34:
	.cv_func_id 170
	.cv_file	32 "C:\\Users\\cires\\.rustup\\toolchains\\nightly-x86_64-pc-windows-msvc\\lib\\rustlib\\src\\rust\\library\\std\\src\\io\\mod.rs" "E2D287AD61EADD1E5CD7EE7924C30E917D2510E70A5CDAF65E2AB4E6E00D4846" 3
	.cv_loc	170 32 1668 0
.seh_proc _ZN3std2io5Write9write_all17h1956c28dfac04cdbE
	.seh_handler __CxxFrameHandler3, @unwind, @except
	pushq	%rbp
	.seh_pushreg %rbp
	subq	$336, %rsp
	.seh_stackalloc 336
	leaq	128(%rsp), %rbp
	.seh_setframe %rbp, 128
	.seh_endprologue
	movq	$-2, 200(%rbp)
	movq	%rcx, -56(%rbp)
.Ltmp497:
	.cv_file	33 "C:\\Users\\cires\\.rustup\\toolchains\\nightly-x86_64-pc-windows-msvc\\lib\\rustlib\\src\\rust\\library\\std\\src\\io\\error.rs" "B1A41BC7F02736AF3816B4DF4CAEADC80E5094054FD2E533F8E53BB6D4D2A4DB" 3
	.cv_inline_site_id 171 within 170 inlined_at 33 137 0
	.cv_loc	171 33 562 0
	leaq	__unnamed_13(%rip), %rax
	movq	%rax, -48(%rbp)
.Ltmp498:
	.cv_file	34 "C:\\Users\\cires\\.rustup\\toolchains\\nightly-x86_64-pc-windows-msvc\\lib\\rustlib\\src\\rust\\library\\std\\src\\io\\error\\repr_bitpacked.rs" "8D3AA0CB558449E5D86582824E8061CD961420BA63E1D43E5F3156B00DDFDFCE" 3
	.cv_inline_site_id 172 within 171 inlined_at 33 563 0
	.cv_loc	172 34 203 0
	leaq	__unnamed_13(%rip), %rax
	movq	%rax, -40(%rbp)
	movq	%rdx, -32(%rbp)
	movq	%r8, -24(%rbp)
	movq	%rcx, 88(%rbp)
.Ltmp499:
.LBB34_1:
	.cv_loc	170 32 1669 0
	movq	-32(%rbp), %rcx
	movq	-24(%rbp), %rax
	movq	%rcx, 96(%rbp)
	movq	%rax, 104(%rbp)
	cmpq	$0, %rax
	jne	.LBB34_3
	.cv_loc	170 32 1682 0
	movq	$0, -16(%rbp)
	.cv_loc	170 32 1683 0
	jmp	.LBB34_4
.LBB34_3:
	.cv_loc	170 32 1670 0
	movq	-56(%rbp), %rdx
	movq	-32(%rbp), %r8
	movq	-24(%rbp), %r9
	leaq	-8(%rbp), %rcx
	callq	_ZN67_$LT$std..sys..windows..stdio..Stderr$u20$as$u20$std..io..Write$GT$5write17h7e44ae6169de6175E
	cmpq	$0, -8(%rbp)
	je	.LBB34_5
	jmp	.LBB34_6
.LBB34_4:
	.cv_loc	170 32 1683 0
	movq	-16(%rbp), %rax
	addq	$336, %rsp
	popq	%rbp
	retq
.LBB34_5:
	.cv_loc	170 32 1670 0
	cmpq	$0, (%rbp)
	je	.LBB34_7
	jmp	.LBB34_8
.LBB34_6:
	.cv_loc	170 32 1678 0
	leaq	(%rbp), %rax
	movq	%rax, 16(%rbp)
	leaq	16(%rbp), %rax
	movq	%rax, 184(%rbp)
	movq	16(%rbp), %rcx
.Ltmp493:
	callq	_ZN3std2io5error5Error14is_interrupted17h2b1ecce8615318d0E
.Ltmp494:
	movb	%al, -57(%rbp)
	jmp	.LBB34_15
.LBB34_7:
.Ltmp500:
	.cv_loc	172 34 205 0
	leaq	__unnamed_13(%rip), %rax
	movq	%rax, 112(%rbp)
.Ltmp501:
	.cv_inline_site_id 173 within 172 inlined_at 34 205 0
	.cv_loc	173 20 222 0
	leaq	__unnamed_13(%rip), %rax
	movq	%rax, 32(%rbp)
.Ltmp502:
	.cv_loc	172 34 205 0
	movq	32(%rbp), %rax
	movq	%rax, 24(%rbp)
.Ltmp503:
	.cv_loc	171 33 563 0
	movq	24(%rbp), %rax
	movq	%rax, 8(%rbp)
.Ltmp504:
	.cv_loc	170 32 1672 0
	movq	8(%rbp), %rax
	movq	%rax, -16(%rbp)
	.cv_file	35 "C:\\Users\\cires\\projects\\applause\\applause_derive\\target\\package\\applause_derive-0.1.0\\src\\lib.rs" "807C18FC31C3693D5D5AD35D0493B071C57C77C314FFA60CAB55CF208AB4C079" 3
	.cv_loc	170 35 1 0
	jmp	.LBB34_9
.LBB34_8:
	.cv_loc	170 32 1677 0
	movq	(%rbp), %rax
	movq	%rax, -88(%rbp)
	movq	%rax, 120(%rbp)
.Ltmp505:
	.cv_loc	170 32 1677 0
	movq	-32(%rbp), %rdx
	movq	%rdx, -80(%rbp)
	movq	-24(%rbp), %rcx
	movq	%rcx, -72(%rbp)
	movq	%rdx, 128(%rbp)
	movq	%rcx, 136(%rbp)
.Ltmp506:
	.cv_file	36 "C:\\Users\\cires\\.rustup\\toolchains\\nightly-x86_64-pc-windows-msvc\\lib\\rustlib\\src\\rust\\library\\core\\src\\slice\\index.rs" "8DFE2F1EA8C433DB5838DE935B4924B502EF83FAE3156DBA05E9DB6D3CC17FA0" 3
	.cv_inline_site_id 174 within 170 inlined_at 32 1677 0
	.cv_inline_site_id 175 within 174 inlined_at 36 18 0
	.cv_loc	175 36 479 0
	cmpq	%rcx, %rax
	ja	.LBB34_11
	jmp	.LBB34_10
.Ltmp507:
.LBB34_9:
	.cv_loc	170 32 1683 0
	jmp	.LBB34_4
.LBB34_10:
	.cv_inline_site_id 176 within 175 inlined_at 36 483 0
	.cv_inline_site_id 177 within 176 inlined_at 36 468 0
	.cv_inline_site_id 178 within 177 inlined_at 15 1651 0
	.cv_loc	178 17 98 0
	movq	-88(%rbp), %rdx
	movq	-80(%rbp), %rcx
	movq	-72(%rbp), %rax
.Ltmp508:
	movq	%rcx, 40(%rbp)
	movq	%rax, 48(%rbp)
	movq	48(%rbp), %rax
	movq	%rax, 144(%rbp)
.Ltmp509:
	.cv_loc	177 36 371 0
	subq	%rdx, %rax
	movq	%rax, 152(%rbp)
.Ltmp510:
	.cv_inline_site_id 179 within 177 inlined_at 36 372 0
	.cv_loc	179 15 1689 0
	movq	%rcx, 160(%rbp)
.Ltmp511:
	.cv_loc	179 15 944 0
	addq	%rdx, %rcx
	movq	%rcx, 168(%rbp)
.Ltmp512:
	.cv_inline_site_id 180 within 179 inlined_at 8 771 0
	.cv_loc	180 15 61 0
	movq	%rcx, 176(%rbp)
.Ltmp513:
	.cv_loc	180 17 118 0
	movq	%rcx, 72(%rbp)
	movq	%rax, 80(%rbp)
	movq	72(%rbp), %rcx
	movq	80(%rbp), %rax
	movq	%rcx, 56(%rbp)
	movq	%rax, 64(%rbp)
	movq	56(%rbp), %rcx
	movq	64(%rbp), %rax
.Ltmp514:
	.cv_loc	170 32 1677 0
	movq	%rcx, -32(%rbp)
	movq	%rax, -24(%rbp)
.Ltmp515:
	.cv_loc	170 32 1677 0
	jmp	.LBB34_12
.LBB34_11:
	.cv_loc	175 36 480 0
.Ltmp495:
	movq	-72(%rbp), %rdx
	movq	-88(%rbp), %rcx
.Ltmp516:
	leaq	__unnamed_14(%rip), %r8
	callq	_ZN4core5slice5index26slice_start_index_len_fail17h5655819e24520b3aE
.Ltmp496:
	jmp	.LBB34_14
.Ltmp517:
.LBB34_12:
	.cv_loc	170 32 1681 0
	cmpq	$1, -8(%rbp)
	je	.LBB34_18
	jmp	.LBB34_19
.LBB34_14:
	ud2
.LBB34_15:
	.cv_loc	170 32 1678 0
	movb	-57(%rbp), %al
	testb	$1, %al
	jne	.LBB34_17
	jmp	.LBB34_16
.LBB34_16:
	.cv_loc	170 32 1679 0
	movq	(%rbp), %rax
	movq	%rax, 192(%rbp)
.Ltmp518:
	.cv_loc	170 32 1679 0
	movq	%rax, -16(%rbp)
.Ltmp519:
	.cv_loc	170 35 1 0
	jmp	.LBB34_9
.LBB34_17:
	.cv_loc	170 32 1678 0
	jmp	.LBB34_12
.LBB34_18:
	.cv_loc	170 32 1681 0
	leaq	-8(%rbp), %rcx
	addq	$8, %rcx
	callq	_ZN4core3ptr42drop_in_place$LT$std..io..error..Error$GT$17hc6310a225b47b094E
.LBB34_19:
	.cv_loc	170 32 1669 0
	jmp	.LBB34_1
	.seh_handlerdata
	.long	($cppxdata$_ZN3std2io5Write9write_all17h1956c28dfac04cdbE)@IMGREL
	.section	.text,"xr",one_only,_ZN3std2io5Write9write_all17h1956c28dfac04cdbE
	.seh_endproc
	.def	"?dtor$13@?0?_ZN3std2io5Write9write_all17h1956c28dfac04cdbE@4HA";
	.scl	3;
	.type	32;
	.endef
	.p2align	4, 0x90
"?dtor$13@?0?_ZN3std2io5Write9write_all17h1956c28dfac04cdbE@4HA":
.seh_proc "?dtor$13@?0?_ZN3std2io5Write9write_all17h1956c28dfac04cdbE@4HA"
.LBB34_13:
	movq	%rdx, 16(%rsp)
	pushq	%rbp
	.seh_pushreg %rbp
	subq	$32, %rsp
	.seh_stackalloc 32
	leaq	128(%rdx), %rbp
	.seh_endprologue
	.cv_loc	170 32 1681 0
	cmpq	$1, -8(%rbp)
	je	.LBB34_20
	jmp	.LBB34_21
.LBB34_20:
	leaq	-8(%rbp), %rcx
	addq	$8, %rcx
	callq	_ZN4core3ptr42drop_in_place$LT$std..io..error..Error$GT$17hc6310a225b47b094E
.LBB34_21:
	.cv_loc	170 32 1668 0
	nop
	addq	$32, %rsp
	popq	%rbp
	retq
.Ltmp520:
.Lfunc_end34:
	.seh_handlerdata
	.section	.text,"xr",one_only,_ZN3std2io5Write9write_all17h1956c28dfac04cdbE
	.seh_endproc
	.section	.xdata,"dr",associative,_ZN3std2io5Write9write_all17h1956c28dfac04cdbE
	.p2align	2, 0x0
$cppxdata$_ZN3std2io5Write9write_all17h1956c28dfac04cdbE:
	.long	429065506
	.long	1
	.long	($stateUnwindMap$_ZN3std2io5Write9write_all17h1956c28dfac04cdbE)@IMGREL
	.long	0
	.long	0
	.long	3
	.long	($ip2state$_ZN3std2io5Write9write_all17h1956c28dfac04cdbE)@IMGREL
	.long	328
	.long	0
	.long	1
$stateUnwindMap$_ZN3std2io5Write9write_all17h1956c28dfac04cdbE:
	.long	-1
	.long	"?dtor$13@?0?_ZN3std2io5Write9write_all17h1956c28dfac04cdbE@4HA"@IMGREL
$ip2state$_ZN3std2io5Write9write_all17h1956c28dfac04cdbE:
	.long	.Lfunc_begin34@IMGREL
	.long	-1
	.long	.Ltmp493@IMGREL+1
	.long	0
	.long	.Ltmp496@IMGREL+1
	.long	-1
	.section	.text,"xr",one_only,_ZN3std2io5Write9write_all17h1956c28dfac04cdbE

	.def	_ZN3std2io5Write9write_fmt17h22db5d5fd8352b4eE;
	.scl	3;
	.type	32;
	.endef
	.section	.text,"xr",one_only,_ZN3std2io5Write9write_fmt17h22db5d5fd8352b4eE
	.p2align	4, 0x90
_ZN3std2io5Write9write_fmt17h22db5d5fd8352b4eE:
.Lfunc_begin35:
	.cv_func_id 181
	.cv_loc	181 32 1789 0
.seh_proc _ZN3std2io5Write9write_fmt17h22db5d5fd8352b4eE
	.seh_handler __CxxFrameHandler3, @unwind, @except
	pushq	%rbp
	.seh_pushreg %rbp
	subq	$160, %rsp
	.seh_stackalloc 160
	leaq	128(%rsp), %rbp
	.seh_setframe %rbp, 128
	.seh_endprologue
	movq	$-2, 24(%rbp)
	movq	%rdx, %r8
.Ltmp523:
	.cv_inline_site_id 182 within 181 inlined_at 33 137 0
	.cv_loc	182 33 562 0
	leaq	__unnamed_15(%rip), %rax
	movq	%rax, -80(%rbp)
.Ltmp524:
	.cv_inline_site_id 183 within 182 inlined_at 33 563 0
	.cv_loc	183 34 203 0
	movq	%rax, -72(%rbp)
	movq	%rcx, (%rbp)
.Ltmp525:
	.cv_loc	181 32 1809 0
	movb	$1, -17(%rbp)
	movq	%rcx, -56(%rbp)
	movq	$0, -48(%rbp)
	.cv_loc	181 32 1810 0
.Ltmp521:
.Ltmp526:
	leaq	__unnamed_16(%rip), %rdx
	leaq	-56(%rbp), %rcx
	callq	_ZN4core3fmt5write17h561c6c61c0531012E
.Ltmp527:
.Ltmp522:
	movb	%al, -81(%rbp)
	jmp	.LBB35_2
.LBB35_2:
	movb	-81(%rbp), %al
	andb	$1, %al
	movb	%al, -33(%rbp)
	movb	-33(%rbp), %al
	andb	$1, %al
	movzbl	%al, %eax
	cmpq	$0, %rax
	jne	.LBB35_4
	.cv_loc	181 32 1811 0
	movq	$0, -64(%rbp)
	jmp	.LBB35_5
.LBB35_4:
	.cv_loc	181 32 1814 0
	leaq	-56(%rbp), %rax
	addq	$8, %rax
	movq	%rax, 8(%rbp)
.Ltmp528:
	.cv_inline_site_id 184 within 181 inlined_at 32 1814 0
	.cv_inline_site_id 185 within 184 inlined_at 25 582 0
	.cv_loc	185 25 539 0
	movq	-48(%rbp), %rax
	cmpq	$0, %rax
	sete	%al
.Ltmp529:
	.cv_loc	184 25 582 0
	xorb	$-1, %al
.Ltmp530:
	.cv_loc	181 32 1814 0
	testb	$1, %al
	jne	.LBB35_7
	jmp	.LBB35_6
.Ltmp531:
.LBB35_5:
	.cv_loc	181 32 1821 0
	testb	$1, -17(%rbp)
	jne	.LBB35_10
	jmp	.LBB35_9
.LBB35_6:
.Ltmp532:
	.cv_loc	183 34 205 0
	leaq	__unnamed_15(%rip), %rax
	movq	%rax, 16(%rbp)
.Ltmp533:
	.cv_inline_site_id 186 within 183 inlined_at 34 205 0
	.cv_loc	186 20 222 0
	leaq	__unnamed_15(%rip), %rax
	movq	%rax, -8(%rbp)
.Ltmp534:
	.cv_loc	183 34 205 0
	movq	-8(%rbp), %rax
	movq	%rax, -16(%rbp)
.Ltmp535:
	.cv_loc	182 33 563 0
	movq	-16(%rbp), %rax
	movq	%rax, -32(%rbp)
.Ltmp536:
	.cv_loc	181 32 1817 0
	movq	-32(%rbp), %rax
	movq	%rax, -64(%rbp)
	.cv_loc	181 32 1814 0
	jmp	.LBB35_8
.LBB35_7:
	.cv_loc	181 32 1815 0
	movb	$0, -17(%rbp)
	movq	-48(%rbp), %rax
	movq	%rax, -64(%rbp)
.LBB35_8:
	.cv_loc	181 32 1818 0
	jmp	.LBB35_5
.Ltmp537:
.LBB35_9:
	.cv_loc	181 32 1821 0
	movq	-64(%rbp), %rax
	addq	$160, %rsp
	popq	%rbp
	retq
.LBB35_10:
	leaq	-56(%rbp), %rcx
	addq	$8, %rcx
	callq	_ZN4core3ptr81drop_in_place$LT$core..result..Result$LT$$LP$$RP$$C$std..io..error..Error$GT$$GT$17hf33afa96ee3d036fE
	jmp	.LBB35_9
	.seh_handlerdata
	.long	($cppxdata$_ZN3std2io5Write9write_fmt17h22db5d5fd8352b4eE)@IMGREL
	.section	.text,"xr",one_only,_ZN3std2io5Write9write_fmt17h22db5d5fd8352b4eE
	.seh_endproc
	.def	"?dtor$1@?0?_ZN3std2io5Write9write_fmt17h22db5d5fd8352b4eE@4HA";
	.scl	3;
	.type	32;
	.endef
	.p2align	4, 0x90
"?dtor$1@?0?_ZN3std2io5Write9write_fmt17h22db5d5fd8352b4eE@4HA":
.seh_proc "?dtor$1@?0?_ZN3std2io5Write9write_fmt17h22db5d5fd8352b4eE@4HA"
.LBB35_1:
	movq	%rdx, 16(%rsp)
	pushq	%rbp
	.seh_pushreg %rbp
	subq	$32, %rsp
	.seh_stackalloc 32
	leaq	128(%rdx), %rbp
	.seh_endprologue
	leaq	-56(%rbp), %rcx
	callq	_ZN4core3ptr95drop_in_place$LT$std..io..Write..write_fmt..Adapter$LT$std..sys..windows..stdio..Stderr$GT$$GT$17hdaae0f54d2fe1a02E
	.cv_loc	181 32 1789 0
	nop
	addq	$32, %rsp
	popq	%rbp
	retq
.Ltmp538:
.Lfunc_end35:
	.seh_handlerdata
	.section	.text,"xr",one_only,_ZN3std2io5Write9write_fmt17h22db5d5fd8352b4eE
	.seh_endproc
	.section	.xdata,"dr",associative,_ZN3std2io5Write9write_fmt17h22db5d5fd8352b4eE
	.p2align	2, 0x0
$cppxdata$_ZN3std2io5Write9write_fmt17h22db5d5fd8352b4eE:
	.long	429065506
	.long	1
	.long	($stateUnwindMap$_ZN3std2io5Write9write_fmt17h22db5d5fd8352b4eE)@IMGREL
	.long	0
	.long	0
	.long	3
	.long	($ip2state$_ZN3std2io5Write9write_fmt17h22db5d5fd8352b4eE)@IMGREL
	.long	152
	.long	0
	.long	1
$stateUnwindMap$_ZN3std2io5Write9write_fmt17h22db5d5fd8352b4eE:
	.long	-1
	.long	"?dtor$1@?0?_ZN3std2io5Write9write_fmt17h22db5d5fd8352b4eE@4HA"@IMGREL
$ip2state$_ZN3std2io5Write9write_fmt17h22db5d5fd8352b4eE:
	.long	.Lfunc_begin35@IMGREL
	.long	-1
	.long	.Ltmp521@IMGREL+1
	.long	0
	.long	.Ltmp522@IMGREL+1
	.long	-1
	.section	.text,"xr",one_only,_ZN3std2io5Write9write_fmt17h22db5d5fd8352b4eE

	.def	_ZN3std2io5error14repr_bitpacked11decode_repr17h4790d9c1a1eb787cE;
	.scl	3;
	.type	32;
	.endef
	.section	.text,"xr",one_only,_ZN3std2io5error14repr_bitpacked11decode_repr17h4790d9c1a1eb787cE
	.p2align	4, 0x90
_ZN3std2io5error14repr_bitpacked11decode_repr17h4790d9c1a1eb787cE:
.Lfunc_begin36:
	.cv_func_id 187
	.cv_loc	187 34 245 0
.seh_proc _ZN3std2io5error14repr_bitpacked11decode_repr17h4790d9c1a1eb787cE
	.seh_handler __CxxFrameHandler3, @unwind, @except
	pushq	%rbp
	.seh_pushreg %rbp
	subq	$336, %rsp
	.seh_stackalloc 336
	leaq	128(%rsp), %rbp
	.seh_setframe %rbp, 128
	.seh_endprologue
	movq	$-2, 200(%rbp)
	movq	%rdx, -72(%rbp)
	movq	%rcx, -64(%rbp)
	movq	%rcx, -56(%rbp)
.Ltmp545:
	.cv_file	37 "C:\\Users\\cires\\.rustup\\toolchains\\nightly-x86_64-pc-windows-msvc\\lib\\rustlib\\src\\rust\\library\\core\\src\\fmt\\rt.rs" "8255A85ECFD7B692591384A3E81D2C9F2A9753C815DE4C601C7F0AED71182A70" 3
	.cv_inline_site_id 188 within 187 inlined_at 34 257 0
	.cv_inline_site_id 189 within 188 inlined_at 10 976 0
	.cv_inline_site_id 190 within 189 inlined_at 30 106 0
	.cv_loc	190 37 22 0
	movq	$0, -40(%rbp)
	.cv_loc	190 37 23 0
	movl	$32, -28(%rbp)
	.cv_loc	190 37 24 0
	movb	$3, -21(%rbp)
	.cv_loc	190 37 25 0
	movl	$12, -20(%rbp)
.Ltmp546:
	.cv_inline_site_id 191 within 187 inlined_at 34 274 0
	.cv_loc	191 23 1317 0
	movq	$1, -16(%rbp)
.Ltmp547:
	.cv_inline_site_id 192 within 191 inlined_at 23 1318 0
	.cv_loc	192 23 1295 0
	movq	$1, -8(%rbp)
.Ltmp548:
	.cv_inline_site_id 193 within 192 inlined_at 23 1299 0
	.cv_loc	193 4 455 0
	movq	$1, (%rbp)
.Ltmp549:
	.cv_file	38 "C:\\Users\\cires\\.rustup\\toolchains\\nightly-x86_64-pc-windows-msvc\\lib\\rustlib\\src\\rust\\library\\core\\src\\num\\int_macros.rs" "4E245B07C24C11FF0C0EDC1B9FA8EB0B086A21C44E427D3689EE1770B8EEA9E1" 3
	.cv_inline_site_id 194 within 193 inlined_at 38 1408 0
	.cv_loc	194 4 455 0
	movq	$0, 8(%rbp)
	movq	$1, 16(%rbp)
.Ltmp550:
	.cv_loc	193 23 559 0
	movq	$-1, 24(%rbp)
.Ltmp551:
	.cv_inline_site_id 195 within 192 inlined_at 23 100 0
	.cv_loc	195 17 130 0
	movq	%rdx, 88(%rbp)
.Ltmp552:
	.cv_loc	187 34 249 0
	movb	$1, 71(%rbp)
.Ltmp553:
	.cv_inline_site_id 196 within 187 inlined_at 34 249 0
	.cv_loc	196 20 348 0
	movq	%rdx, 96(%rbp)
.Ltmp554:
	.cv_loc	196 23 217 0
	movq	%rdx, 32(%rbp)
.Ltmp555:
	.cv_loc	187 34 250 0
	movq	32(%rbp), %rax
	andl	$3, %eax
	movq	%rax, -48(%rbp)
	subq	$3, %rax
	ja	.LBB36_1
	movq	-48(%rbp), %rax
	leaq	.LJTI36_0(%rip), %rcx
	movslq	(%rcx,%rax,4), %rax
	addq	%rcx, %rax
	jmpq	*%rax
.LBB36_1:
	.cv_loc	187 34 279 0
.Ltmp543:
	leaq	__unnamed_17(%rip), %rcx
	leaq	__unnamed_18(%rip), %r8
	movl	$40, %edx
	callq	_ZN4core9panicking5panic17hb11f2d409f96600eE
.Ltmp544:
	jmp	.LBB36_12
.LBB36_2:
	.cv_loc	187 34 252 0
	movq	-64(%rbp), %rax
	movq	32(%rbp), %rcx
	sarq	$32, %rcx
	movl	%ecx, 104(%rbp)
.Ltmp556:
	.cv_loc	187 34 253 0
	movl	%ecx, 4(%rax)
	movb	$0, (%rax)
.Ltmp557:
	.cv_loc	187 34 254 0
	jmp	.LBB36_6
.LBB36_3:
	.cv_loc	187 34 256 0
	movl	36(%rbp), %ecx
	movl	%ecx, 108(%rbp)
	.cv_loc	187 34 257 0
.Ltmp541:
.Ltmp558:
	callq	_ZN3std2io5error14repr_bitpacked14kind_from_prim17h74d4e504097f1551E
.Ltmp542:
	movb	%al, -73(%rbp)
	jmp	.LBB36_8
.Ltmp559:
.LBB36_4:
	.cv_inline_site_id 197 within 187 inlined_at 34 269 0
	.cv_loc	197 20 473 0
	movq	-64(%rbp), %rax
	movq	-72(%rbp), %rcx
.Ltmp560:
	movq	%rcx, 128(%rbp)
.Ltmp561:
	.cv_inline_site_id 198 within 197 inlined_at 20 473 0
	.cv_loc	198 20 222 0
	movq	%rcx, 48(%rbp)
.Ltmp562:
	.cv_loc	197 20 348 0
	movq	48(%rbp), %rcx
.Ltmp563:
	.cv_loc	187 34 269 0
	movq	%rcx, 8(%rax)
	movb	$2, (%rax)
	jmp	.LBB36_6
.LBB36_5:
	.cv_loc	191 20 348 0
	movq	-72(%rbp), %rcx
.Ltmp564:
	movq	%rcx, 136(%rbp)
.Ltmp565:
	.cv_loc	192 23 61 0
	movq	%rcx, 144(%rbp)
.Ltmp566:
	.cv_loc	193 23 564 0
	movq	%rcx, %rax
	decq	%rax
	movq	%rax, 152(%rbp)
	movq	152(%rbp), %rax
	movq	%rax, 160(%rbp)
.Ltmp567:
	.cv_loc	191 23 1318 0
	movq	%rcx, 168(%rbp)
.Ltmp568:
	.cv_loc	192 23 100 0
	movq	%rax, 176(%rbp)
.Ltmp569:
	.cv_loc	195 17 135 0
	movq	%rax, 80(%rbp)
	movq	80(%rbp), %rax
	movq	%rax, 72(%rbp)
	movq	72(%rbp), %rax
	movq	%rax, 184(%rbp)
.Ltmp570:
	.cv_loc	191 23 61 0
	movq	%rax, 192(%rbp)
.Ltmp571:
	.cv_loc	187 34 275 0
	movb	$0, 71(%rbp)
	movq	%rax, 56(%rbp)
	movq	56(%rbp), %rcx
.Ltmp539:
	callq	_ZN78_$LT$std..io..error..repr_bitpacked..Repr$u20$as$u20$core..ops..drop..Drop$GT$4drop28_$u7b$$u7b$closure$u7d$$u7d$17h62b12d165c735244E
.Ltmp540:
	movq	%rax, -88(%rbp)
	jmp	.LBB36_9
.Ltmp572:
.LBB36_6:
	.cv_loc	187 34 282 0
	testb	$1, 71(%rbp)
	jne	.LBB36_11
	jmp	.LBB36_10
.LBB36_8:
	.cv_loc	187 34 257 0
	movq	-64(%rbp), %rax
	movb	-73(%rbp), %cl
.Ltmp573:
	movb	%cl, 47(%rbp)
	leaq	32(%rbp), %rcx
	movq	%rcx, 112(%rbp)
.Ltmp574:
	.cv_loc	188 10 975 0
	movb	47(%rbp), %cl
	movb	%cl, 127(%rbp)
.Ltmp575:
	.cv_loc	187 34 267 0
	movb	%cl, 1(%rax)
	movb	$1, (%rax)
.Ltmp576:
	.cv_loc	187 34 268 0
	jmp	.LBB36_6
.LBB36_9:
	.cv_loc	187 34 275 0
	movq	-64(%rbp), %rax
	movq	-88(%rbp), %rcx
.Ltmp577:
	movq	%rcx, 8(%rax)
	movb	$3, (%rax)
.Ltmp578:
	.cv_loc	187 34 276 0
	jmp	.LBB36_6
.Ltmp579:
.LBB36_10:
	.cv_loc	187 34 282 0
	movq	-56(%rbp), %rax
	addq	$336, %rsp
	popq	%rbp
	retq
.LBB36_11:
	jmp	.LBB36_10
.LBB36_12:
	ud2
	.seh_handlerdata
	.long	($cppxdata$_ZN3std2io5error14repr_bitpacked11decode_repr17h4790d9c1a1eb787cE)@IMGREL
	.section	.text,"xr",one_only,_ZN3std2io5error14repr_bitpacked11decode_repr17h4790d9c1a1eb787cE
	.seh_endproc
	.def	"?dtor$7@?0?_ZN3std2io5error14repr_bitpacked11decode_repr17h4790d9c1a1eb787cE@4HA";
	.scl	3;
	.type	32;
	.endef
	.p2align	4, 0x90
"?dtor$7@?0?_ZN3std2io5error14repr_bitpacked11decode_repr17h4790d9c1a1eb787cE@4HA":
.seh_proc "?dtor$7@?0?_ZN3std2io5error14repr_bitpacked11decode_repr17h4790d9c1a1eb787cE@4HA"
.LBB36_7:
	movq	%rdx, 16(%rsp)
	pushq	%rbp
	.seh_pushreg %rbp
	subq	$32, %rsp
	.seh_stackalloc 32
	leaq	128(%rdx), %rbp
	.seh_endprologue
	testb	$1, 71(%rbp)
	jne	.LBB36_14
	jmp	.LBB36_13
.LBB36_13:
	.cv_loc	187 34 245 0
	addq	$32, %rsp
	popq	%rbp
	retq
.LBB36_14:
	.cv_loc	187 34 282 0
	jmp	.LBB36_13
.Ltmp580:
.Lfunc_end36:
	.section	.rdata,"dr",associative,_ZN3std2io5error14repr_bitpacked11decode_repr17h4790d9c1a1eb787cE
	.p2align	2, 0x0
.LJTI36_0:
	.long	.LBB36_4-.LJTI36_0
	.long	.LBB36_5-.LJTI36_0
	.long	.LBB36_2-.LJTI36_0
	.long	.LBB36_3-.LJTI36_0
	.seh_handlerdata
	.section	.text,"xr",one_only,_ZN3std2io5error14repr_bitpacked11decode_repr17h4790d9c1a1eb787cE
	.seh_endproc
	.section	.xdata,"dr",associative,_ZN3std2io5error14repr_bitpacked11decode_repr17h4790d9c1a1eb787cE
	.p2align	2, 0x0
$cppxdata$_ZN3std2io5error14repr_bitpacked11decode_repr17h4790d9c1a1eb787cE:
	.long	429065506
	.long	1
	.long	($stateUnwindMap$_ZN3std2io5error14repr_bitpacked11decode_repr17h4790d9c1a1eb787cE)@IMGREL
	.long	0
	.long	0
	.long	3
	.long	($ip2state$_ZN3std2io5error14repr_bitpacked11decode_repr17h4790d9c1a1eb787cE)@IMGREL
	.long	328
	.long	0
	.long	1
$stateUnwindMap$_ZN3std2io5error14repr_bitpacked11decode_repr17h4790d9c1a1eb787cE:
	.long	-1
	.long	"?dtor$7@?0?_ZN3std2io5error14repr_bitpacked11decode_repr17h4790d9c1a1eb787cE@4HA"@IMGREL
$ip2state$_ZN3std2io5error14repr_bitpacked11decode_repr17h4790d9c1a1eb787cE:
	.long	.Lfunc_begin36@IMGREL
	.long	-1
	.long	.Ltmp543@IMGREL+1
	.long	0
	.long	.Ltmp540@IMGREL+1
	.long	-1
	.section	.text,"xr",one_only,_ZN3std2io5error14repr_bitpacked11decode_repr17h4790d9c1a1eb787cE

	.def	_ZN3std2io5error14repr_bitpacked11decode_repr17h54504009dd8b2998E;
	.scl	3;
	.type	32;
	.endef
	.section	.text,"xr",one_only,_ZN3std2io5error14repr_bitpacked11decode_repr17h54504009dd8b2998E
	.p2align	4, 0x90
_ZN3std2io5error14repr_bitpacked11decode_repr17h54504009dd8b2998E:
.Lfunc_begin37:
	.cv_func_id 199
	.cv_loc	199 34 245 0
.seh_proc _ZN3std2io5error14repr_bitpacked11decode_repr17h54504009dd8b2998E
	.seh_handler __CxxFrameHandler3, @unwind, @except
	pushq	%rbp
	.seh_pushreg %rbp
	subq	$336, %rsp
	.seh_stackalloc 336
	leaq	128(%rsp), %rbp
	.seh_setframe %rbp, 128
	.seh_endprologue
	movq	$-2, 200(%rbp)
	movq	%rdx, -72(%rbp)
	movq	%rcx, -64(%rbp)
	movq	%rcx, -56(%rbp)
.Ltmp587:
	.cv_inline_site_id 200 within 199 inlined_at 34 257 0
	.cv_inline_site_id 201 within 200 inlined_at 10 976 0
	.cv_inline_site_id 202 within 201 inlined_at 30 106 0
	.cv_loc	202 37 22 0
	movq	$0, -40(%rbp)
	.cv_loc	202 37 23 0
	movl	$32, -28(%rbp)
	.cv_loc	202 37 24 0
	movb	$3, -21(%rbp)
	.cv_loc	202 37 25 0
	movl	$12, -20(%rbp)
.Ltmp588:
	.cv_inline_site_id 203 within 199 inlined_at 34 274 0
	.cv_loc	203 23 1317 0
	movq	$1, -16(%rbp)
.Ltmp589:
	.cv_inline_site_id 204 within 203 inlined_at 23 1318 0
	.cv_loc	204 23 1295 0
	movq	$1, -8(%rbp)
.Ltmp590:
	.cv_inline_site_id 205 within 204 inlined_at 23 1299 0
	.cv_loc	205 4 455 0
	movq	$1, (%rbp)
.Ltmp591:
	.cv_inline_site_id 206 within 205 inlined_at 38 1408 0
	.cv_loc	206 4 455 0
	movq	$0, 8(%rbp)
	movq	$1, 16(%rbp)
.Ltmp592:
	.cv_loc	205 23 559 0
	movq	$-1, 24(%rbp)
.Ltmp593:
	.cv_inline_site_id 207 within 204 inlined_at 23 100 0
	.cv_loc	207 17 130 0
	movq	%rdx, 88(%rbp)
.Ltmp594:
	.cv_loc	199 34 249 0
	movb	$1, 71(%rbp)
.Ltmp595:
	.cv_inline_site_id 208 within 199 inlined_at 34 249 0
	.cv_loc	208 20 348 0
	movq	%rdx, 96(%rbp)
.Ltmp596:
	.cv_loc	208 23 217 0
	movq	%rdx, 32(%rbp)
.Ltmp597:
	.cv_loc	199 34 250 0
	movq	32(%rbp), %rax
	andl	$3, %eax
	movq	%rax, -48(%rbp)
	subq	$3, %rax
	ja	.LBB37_1
	movq	-48(%rbp), %rax
	leaq	.LJTI37_0(%rip), %rcx
	movslq	(%rcx,%rax,4), %rax
	addq	%rcx, %rax
	jmpq	*%rax
.LBB37_1:
	.cv_loc	199 34 279 0
.Ltmp585:
	leaq	__unnamed_17(%rip), %rcx
	leaq	__unnamed_18(%rip), %r8
	movl	$40, %edx
	callq	_ZN4core9panicking5panic17hb11f2d409f96600eE
.Ltmp586:
	jmp	.LBB37_12
.LBB37_2:
	.cv_loc	199 34 252 0
	movq	-64(%rbp), %rax
	movq	32(%rbp), %rcx
	sarq	$32, %rcx
	movl	%ecx, 104(%rbp)
.Ltmp598:
	.cv_loc	199 34 253 0
	movl	%ecx, 4(%rax)
	movb	$0, (%rax)
.Ltmp599:
	.cv_loc	199 34 254 0
	jmp	.LBB37_6
.LBB37_3:
	.cv_loc	199 34 256 0
	movl	36(%rbp), %ecx
	movl	%ecx, 108(%rbp)
	.cv_loc	199 34 257 0
.Ltmp583:
.Ltmp600:
	callq	_ZN3std2io5error14repr_bitpacked14kind_from_prim17h74d4e504097f1551E
.Ltmp584:
	movb	%al, -73(%rbp)
	jmp	.LBB37_8
.Ltmp601:
.LBB37_4:
	.cv_inline_site_id 209 within 199 inlined_at 34 269 0
	.cv_loc	209 20 473 0
	movq	-64(%rbp), %rax
	movq	-72(%rbp), %rcx
.Ltmp602:
	movq	%rcx, 128(%rbp)
.Ltmp603:
	.cv_inline_site_id 210 within 209 inlined_at 20 473 0
	.cv_loc	210 20 222 0
	movq	%rcx, 48(%rbp)
.Ltmp604:
	.cv_loc	209 20 348 0
	movq	48(%rbp), %rcx
.Ltmp605:
	.cv_loc	199 34 269 0
	movq	%rcx, 8(%rax)
	movb	$2, (%rax)
	jmp	.LBB37_6
.LBB37_5:
	.cv_loc	203 20 348 0
	movq	-72(%rbp), %rcx
.Ltmp606:
	movq	%rcx, 136(%rbp)
.Ltmp607:
	.cv_loc	204 23 61 0
	movq	%rcx, 144(%rbp)
.Ltmp608:
	.cv_loc	205 23 564 0
	movq	%rcx, %rax
	decq	%rax
	movq	%rax, 152(%rbp)
	movq	152(%rbp), %rax
	movq	%rax, 160(%rbp)
.Ltmp609:
	.cv_loc	203 23 1318 0
	movq	%rcx, 168(%rbp)
.Ltmp610:
	.cv_loc	204 23 100 0
	movq	%rax, 176(%rbp)
.Ltmp611:
	.cv_loc	207 17 135 0
	movq	%rax, 80(%rbp)
	movq	80(%rbp), %rax
	movq	%rax, 72(%rbp)
	movq	72(%rbp), %rax
	movq	%rax, 184(%rbp)
.Ltmp612:
	.cv_loc	203 23 61 0
	movq	%rax, 192(%rbp)
.Ltmp613:
	.cv_loc	199 34 275 0
	movb	$0, 71(%rbp)
	movq	%rax, 56(%rbp)
	movq	56(%rbp), %rcx
.Ltmp581:
	callq	_ZN3std2io5error14repr_bitpacked4Repr4data28_$u7b$$u7b$closure$u7d$$u7d$17h8e27888b78bf8d33E
.Ltmp582:
	movq	%rax, -88(%rbp)
	jmp	.LBB37_9
.Ltmp614:
.LBB37_6:
	.cv_loc	199 34 282 0
	testb	$1, 71(%rbp)
	jne	.LBB37_11
	jmp	.LBB37_10
.LBB37_8:
	.cv_loc	199 34 257 0
	movq	-64(%rbp), %rax
	movb	-73(%rbp), %cl
.Ltmp615:
	movb	%cl, 47(%rbp)
	leaq	32(%rbp), %rcx
	movq	%rcx, 112(%rbp)
.Ltmp616:
	.cv_loc	200 10 975 0
	movb	47(%rbp), %cl
	movb	%cl, 127(%rbp)
.Ltmp617:
	.cv_loc	199 34 267 0
	movb	%cl, 1(%rax)
	movb	$1, (%rax)
.Ltmp618:
	.cv_loc	199 34 268 0
	jmp	.LBB37_6
.LBB37_9:
	.cv_loc	199 34 275 0
	movq	-64(%rbp), %rax
	movq	-88(%rbp), %rcx
.Ltmp619:
	movq	%rcx, 8(%rax)
	movb	$3, (%rax)
.Ltmp620:
	.cv_loc	199 34 276 0
	jmp	.LBB37_6
.Ltmp621:
.LBB37_10:
	.cv_loc	199 34 282 0
	movq	-56(%rbp), %rax
	addq	$336, %rsp
	popq	%rbp
	retq
.LBB37_11:
	jmp	.LBB37_10
.LBB37_12:
	ud2
	.seh_handlerdata
	.long	($cppxdata$_ZN3std2io5error14repr_bitpacked11decode_repr17h54504009dd8b2998E)@IMGREL
	.section	.text,"xr",one_only,_ZN3std2io5error14repr_bitpacked11decode_repr17h54504009dd8b2998E
	.seh_endproc
	.def	"?dtor$7@?0?_ZN3std2io5error14repr_bitpacked11decode_repr17h54504009dd8b2998E@4HA";
	.scl	3;
	.type	32;
	.endef
	.p2align	4, 0x90
"?dtor$7@?0?_ZN3std2io5error14repr_bitpacked11decode_repr17h54504009dd8b2998E@4HA":
.seh_proc "?dtor$7@?0?_ZN3std2io5error14repr_bitpacked11decode_repr17h54504009dd8b2998E@4HA"
.LBB37_7:
	movq	%rdx, 16(%rsp)
	pushq	%rbp
	.seh_pushreg %rbp
	subq	$32, %rsp
	.seh_stackalloc 32
	leaq	128(%rdx), %rbp
	.seh_endprologue
	testb	$1, 71(%rbp)
	jne	.LBB37_14
	jmp	.LBB37_13
.LBB37_13:
	.cv_loc	199 34 245 0
	addq	$32, %rsp
	popq	%rbp
	retq
.LBB37_14:
	.cv_loc	199 34 282 0
	jmp	.LBB37_13
.Ltmp622:
.Lfunc_end37:
	.section	.rdata,"dr",associative,_ZN3std2io5error14repr_bitpacked11decode_repr17h54504009dd8b2998E
	.p2align	2, 0x0
.LJTI37_0:
	.long	.LBB37_4-.LJTI37_0
	.long	.LBB37_5-.LJTI37_0
	.long	.LBB37_2-.LJTI37_0
	.long	.LBB37_3-.LJTI37_0
	.seh_handlerdata
	.section	.text,"xr",one_only,_ZN3std2io5error14repr_bitpacked11decode_repr17h54504009dd8b2998E
	.seh_endproc
	.section	.xdata,"dr",associative,_ZN3std2io5error14repr_bitpacked11decode_repr17h54504009dd8b2998E
	.p2align	2, 0x0
$cppxdata$_ZN3std2io5error14repr_bitpacked11decode_repr17h54504009dd8b2998E:
	.long	429065506
	.long	1
	.long	($stateUnwindMap$_ZN3std2io5error14repr_bitpacked11decode_repr17h54504009dd8b2998E)@IMGREL
	.long	0
	.long	0
	.long	3
	.long	($ip2state$_ZN3std2io5error14repr_bitpacked11decode_repr17h54504009dd8b2998E)@IMGREL
	.long	328
	.long	0
	.long	1
$stateUnwindMap$_ZN3std2io5error14repr_bitpacked11decode_repr17h54504009dd8b2998E:
	.long	-1
	.long	"?dtor$7@?0?_ZN3std2io5error14repr_bitpacked11decode_repr17h54504009dd8b2998E@4HA"@IMGREL
$ip2state$_ZN3std2io5error14repr_bitpacked11decode_repr17h54504009dd8b2998E:
	.long	.Lfunc_begin37@IMGREL
	.long	-1
	.long	.Ltmp585@IMGREL+1
	.long	0
	.long	.Ltmp582@IMGREL+1
	.long	-1
	.section	.text,"xr",one_only,_ZN3std2io5error14repr_bitpacked11decode_repr17h54504009dd8b2998E

	.def	_ZN3std2io5error14repr_bitpacked14kind_from_prim17h74d4e504097f1551E;
	.scl	3;
	.type	32;
	.endef
	.section	.text,"xr",one_only,_ZN3std2io5error14repr_bitpacked14kind_from_prim17h74d4e504097f1551E
	.p2align	4, 0x90
_ZN3std2io5error14repr_bitpacked14kind_from_prim17h74d4e504097f1551E:
.Lfunc_begin38:
	.cv_func_id 211
	.cv_loc	211 34 288 0
.seh_proc _ZN3std2io5error14repr_bitpacked14kind_from_prim17h74d4e504097f1551E
	subq	$664, %rsp
	.seh_stackalloc 664
	.seh_endprologue
	movl	%ecx, (%rsp)
.Ltmp623:
	.cv_loc	211 34 301 0
	movq	%rsp, %rax
	movq	%rax, 8(%rsp)
	cmpl	$0, (%rsp)
	jne	.LBB38_2
	movl	(%rsp), %eax
	movl	%eax, 20(%rsp)
.Ltmp624:
	.cv_loc	211 34 301 0
	movb	$0, 7(%rsp)
.Ltmp625:
	.cv_loc	211 34 301 0
	jmp	.LBB38_3
.LBB38_2:
	movq	%rsp, %rax
	movq	%rax, 24(%rsp)
	cmpl	$1, (%rsp)
	je	.LBB38_4
	jmp	.LBB38_5
.LBB38_3:
	.cv_loc	211 34 344 0
	movb	7(%rsp), %al
	addq	$664, %rsp
	retq
.LBB38_4:
	.cv_loc	211 34 301 0
	movl	(%rsp), %eax
	movl	%eax, 36(%rsp)
.Ltmp626:
	.cv_loc	211 34 301 0
	movb	$1, 7(%rsp)
.Ltmp627:
	.cv_loc	211 34 301 0
	jmp	.LBB38_3
.LBB38_5:
	movq	%rsp, %rax
	movq	%rax, 40(%rsp)
	cmpl	$2, (%rsp)
	jne	.LBB38_7
	movl	(%rsp), %eax
	movl	%eax, 52(%rsp)
.Ltmp628:
	.cv_loc	211 34 301 0
	movb	$2, 7(%rsp)
.Ltmp629:
	.cv_loc	211 34 301 0
	jmp	.LBB38_3
.LBB38_7:
	movq	%rsp, %rax
	movq	%rax, 56(%rsp)
	cmpl	$3, (%rsp)
	jne	.LBB38_9
	movl	(%rsp), %eax
	movl	%eax, 68(%rsp)
.Ltmp630:
	.cv_loc	211 34 301 0
	movb	$3, 7(%rsp)
.Ltmp631:
	.cv_loc	211 34 301 0
	jmp	.LBB38_3
.LBB38_9:
	movq	%rsp, %rax
	movq	%rax, 72(%rsp)
	cmpl	$4, (%rsp)
	jne	.LBB38_11
	movl	(%rsp), %eax
	movl	%eax, 84(%rsp)
.Ltmp632:
	.cv_loc	211 34 301 0
	movb	$4, 7(%rsp)
.Ltmp633:
	.cv_loc	211 34 301 0
	jmp	.LBB38_3
.LBB38_11:
	movq	%rsp, %rax
	movq	%rax, 88(%rsp)
	cmpl	$5, (%rsp)
	jne	.LBB38_13
	movl	(%rsp), %eax
	movl	%eax, 100(%rsp)
.Ltmp634:
	.cv_loc	211 34 301 0
	movb	$5, 7(%rsp)
.Ltmp635:
	.cv_loc	211 34 301 0
	jmp	.LBB38_3
.LBB38_13:
	movq	%rsp, %rax
	movq	%rax, 104(%rsp)
	cmpl	$6, (%rsp)
	jne	.LBB38_15
	movl	(%rsp), %eax
	movl	%eax, 116(%rsp)
.Ltmp636:
	.cv_loc	211 34 301 0
	movb	$6, 7(%rsp)
.Ltmp637:
	.cv_loc	211 34 301 0
	jmp	.LBB38_3
.LBB38_15:
	movq	%rsp, %rax
	movq	%rax, 120(%rsp)
	cmpl	$7, (%rsp)
	jne	.LBB38_17
	movl	(%rsp), %eax
	movl	%eax, 132(%rsp)
.Ltmp638:
	.cv_loc	211 34 301 0
	movb	$7, 7(%rsp)
.Ltmp639:
	.cv_loc	211 34 301 0
	jmp	.LBB38_3
.LBB38_17:
	movq	%rsp, %rax
	movq	%rax, 136(%rsp)
	cmpl	$8, (%rsp)
	jne	.LBB38_19
	movl	(%rsp), %eax
	movl	%eax, 148(%rsp)
.Ltmp640:
	.cv_loc	211 34 301 0
	movb	$8, 7(%rsp)
.Ltmp641:
	.cv_loc	211 34 301 0
	jmp	.LBB38_3
.LBB38_19:
	movq	%rsp, %rax
	movq	%rax, 152(%rsp)
	cmpl	$9, (%rsp)
	jne	.LBB38_21
	movl	(%rsp), %eax
	movl	%eax, 164(%rsp)
.Ltmp642:
	.cv_loc	211 34 301 0
	movb	$9, 7(%rsp)
.Ltmp643:
	.cv_loc	211 34 301 0
	jmp	.LBB38_3
.LBB38_21:
	movq	%rsp, %rax
	movq	%rax, 168(%rsp)
	cmpl	$10, (%rsp)
	jne	.LBB38_23
	movl	(%rsp), %eax
	movl	%eax, 180(%rsp)
.Ltmp644:
	.cv_loc	211 34 301 0
	movb	$10, 7(%rsp)
.Ltmp645:
	.cv_loc	211 34 301 0
	jmp	.LBB38_3
.LBB38_23:
	movq	%rsp, %rax
	movq	%rax, 184(%rsp)
	cmpl	$11, (%rsp)
	jne	.LBB38_25
	movl	(%rsp), %eax
	movl	%eax, 196(%rsp)
.Ltmp646:
	.cv_loc	211 34 301 0
	movb	$11, 7(%rsp)
.Ltmp647:
	.cv_loc	211 34 301 0
	jmp	.LBB38_3
.LBB38_25:
	movq	%rsp, %rax
	movq	%rax, 200(%rsp)
	cmpl	$12, (%rsp)
	jne	.LBB38_27
	movl	(%rsp), %eax
	movl	%eax, 212(%rsp)
.Ltmp648:
	.cv_loc	211 34 301 0
	movb	$12, 7(%rsp)
.Ltmp649:
	.cv_loc	211 34 301 0
	jmp	.LBB38_3
.LBB38_27:
	movq	%rsp, %rax
	movq	%rax, 216(%rsp)
	cmpl	$13, (%rsp)
	jne	.LBB38_29
	movl	(%rsp), %eax
	movl	%eax, 228(%rsp)
.Ltmp650:
	.cv_loc	211 34 301 0
	movb	$13, 7(%rsp)
.Ltmp651:
	.cv_loc	211 34 301 0
	jmp	.LBB38_3
.LBB38_29:
	movq	%rsp, %rax
	movq	%rax, 232(%rsp)
	cmpl	$14, (%rsp)
	jne	.LBB38_31
	movl	(%rsp), %eax
	movl	%eax, 244(%rsp)
.Ltmp652:
	.cv_loc	211 34 301 0
	movb	$14, 7(%rsp)
.Ltmp653:
	.cv_loc	211 34 301 0
	jmp	.LBB38_3
.LBB38_31:
	movq	%rsp, %rax
	movq	%rax, 248(%rsp)
	cmpl	$15, (%rsp)
	jne	.LBB38_33
	movl	(%rsp), %eax
	movl	%eax, 260(%rsp)
.Ltmp654:
	.cv_loc	211 34 301 0
	movb	$15, 7(%rsp)
.Ltmp655:
	.cv_loc	211 34 301 0
	jmp	.LBB38_3
.LBB38_33:
	movq	%rsp, %rax
	movq	%rax, 264(%rsp)
	cmpl	$16, (%rsp)
	jne	.LBB38_35
	movl	(%rsp), %eax
	movl	%eax, 276(%rsp)
.Ltmp656:
	.cv_loc	211 34 301 0
	movb	$16, 7(%rsp)
.Ltmp657:
	.cv_loc	211 34 301 0
	jmp	.LBB38_3
.LBB38_35:
	movq	%rsp, %rax
	movq	%rax, 280(%rsp)
	cmpl	$17, (%rsp)
	jne	.LBB38_37
	movl	(%rsp), %eax
	movl	%eax, 292(%rsp)
.Ltmp658:
	.cv_loc	211 34 301 0
	movb	$17, 7(%rsp)
.Ltmp659:
	.cv_loc	211 34 301 0
	jmp	.LBB38_3
.LBB38_37:
	movq	%rsp, %rax
	movq	%rax, 296(%rsp)
	cmpl	$18, (%rsp)
	jne	.LBB38_39
	movl	(%rsp), %eax
	movl	%eax, 308(%rsp)
.Ltmp660:
	.cv_loc	211 34 301 0
	movb	$18, 7(%rsp)
.Ltmp661:
	.cv_loc	211 34 301 0
	jmp	.LBB38_3
.LBB38_39:
	movq	%rsp, %rax
	movq	%rax, 312(%rsp)
	cmpl	$19, (%rsp)
	jne	.LBB38_41
	movl	(%rsp), %eax
	movl	%eax, 324(%rsp)
.Ltmp662:
	.cv_loc	211 34 301 0
	movb	$19, 7(%rsp)
.Ltmp663:
	.cv_loc	211 34 301 0
	jmp	.LBB38_3
.LBB38_41:
	movq	%rsp, %rax
	movq	%rax, 328(%rsp)
	cmpl	$20, (%rsp)
	jne	.LBB38_43
	movl	(%rsp), %eax
	movl	%eax, 340(%rsp)
.Ltmp664:
	.cv_loc	211 34 301 0
	movb	$20, 7(%rsp)
.Ltmp665:
	.cv_loc	211 34 301 0
	jmp	.LBB38_3
.LBB38_43:
	movq	%rsp, %rax
	movq	%rax, 344(%rsp)
	cmpl	$21, (%rsp)
	jne	.LBB38_45
	movl	(%rsp), %eax
	movl	%eax, 356(%rsp)
.Ltmp666:
	.cv_loc	211 34 301 0
	movb	$21, 7(%rsp)
.Ltmp667:
	.cv_loc	211 34 301 0
	jmp	.LBB38_3
.LBB38_45:
	movq	%rsp, %rax
	movq	%rax, 360(%rsp)
	cmpl	$22, (%rsp)
	jne	.LBB38_47
	movl	(%rsp), %eax
	movl	%eax, 372(%rsp)
.Ltmp668:
	.cv_loc	211 34 301 0
	movb	$22, 7(%rsp)
.Ltmp669:
	.cv_loc	211 34 301 0
	jmp	.LBB38_3
.LBB38_47:
	movq	%rsp, %rax
	movq	%rax, 376(%rsp)
	cmpl	$23, (%rsp)
	jne	.LBB38_49
	movl	(%rsp), %eax
	movl	%eax, 388(%rsp)
.Ltmp670:
	.cv_loc	211 34 301 0
	movb	$23, 7(%rsp)
.Ltmp671:
	.cv_loc	211 34 301 0
	jmp	.LBB38_3
.LBB38_49:
	movq	%rsp, %rax
	movq	%rax, 392(%rsp)
	cmpl	$24, (%rsp)
	jne	.LBB38_51
	movl	(%rsp), %eax
	movl	%eax, 404(%rsp)
.Ltmp672:
	.cv_loc	211 34 301 0
	movb	$24, 7(%rsp)
.Ltmp673:
	.cv_loc	211 34 301 0
	jmp	.LBB38_3
.LBB38_51:
	movq	%rsp, %rax
	movq	%rax, 408(%rsp)
	cmpl	$25, (%rsp)
	jne	.LBB38_53
	movl	(%rsp), %eax
	movl	%eax, 420(%rsp)
.Ltmp674:
	.cv_loc	211 34 301 0
	movb	$25, 7(%rsp)
.Ltmp675:
	.cv_loc	211 34 301 0
	jmp	.LBB38_3
.LBB38_53:
	movq	%rsp, %rax
	movq	%rax, 424(%rsp)
	cmpl	$26, (%rsp)
	jne	.LBB38_55
	movl	(%rsp), %eax
	movl	%eax, 436(%rsp)
.Ltmp676:
	.cv_loc	211 34 301 0
	movb	$26, 7(%rsp)
.Ltmp677:
	.cv_loc	211 34 301 0
	jmp	.LBB38_3
.LBB38_55:
	movq	%rsp, %rax
	movq	%rax, 440(%rsp)
	cmpl	$27, (%rsp)
	jne	.LBB38_57
	movl	(%rsp), %eax
	movl	%eax, 452(%rsp)
.Ltmp678:
	.cv_loc	211 34 301 0
	movb	$27, 7(%rsp)
.Ltmp679:
	.cv_loc	211 34 301 0
	jmp	.LBB38_3
.LBB38_57:
	movq	%rsp, %rax
	movq	%rax, 456(%rsp)
	cmpl	$28, (%rsp)
	jne	.LBB38_59
	movl	(%rsp), %eax
	movl	%eax, 468(%rsp)
.Ltmp680:
	.cv_loc	211 34 301 0
	movb	$28, 7(%rsp)
.Ltmp681:
	.cv_loc	211 34 301 0
	jmp	.LBB38_3
.LBB38_59:
	movq	%rsp, %rax
	movq	%rax, 472(%rsp)
	cmpl	$29, (%rsp)
	jne	.LBB38_61
	movl	(%rsp), %eax
	movl	%eax, 484(%rsp)
.Ltmp682:
	.cv_loc	211 34 301 0
	movb	$29, 7(%rsp)
.Ltmp683:
	.cv_loc	211 34 301 0
	jmp	.LBB38_3
.LBB38_61:
	movq	%rsp, %rax
	movq	%rax, 488(%rsp)
	cmpl	$30, (%rsp)
	jne	.LBB38_63
	movl	(%rsp), %eax
	movl	%eax, 500(%rsp)
.Ltmp684:
	.cv_loc	211 34 301 0
	movb	$30, 7(%rsp)
.Ltmp685:
	.cv_loc	211 34 301 0
	jmp	.LBB38_3
.LBB38_63:
	movq	%rsp, %rax
	movq	%rax, 504(%rsp)
	cmpl	$31, (%rsp)
	jne	.LBB38_65
	movl	(%rsp), %eax
	movl	%eax, 516(%rsp)
.Ltmp686:
	.cv_loc	211 34 301 0
	movb	$31, 7(%rsp)
.Ltmp687:
	.cv_loc	211 34 301 0
	jmp	.LBB38_3
.LBB38_65:
	movq	%rsp, %rax
	movq	%rax, 520(%rsp)
	cmpl	$32, (%rsp)
	jne	.LBB38_67
	movl	(%rsp), %eax
	movl	%eax, 532(%rsp)
.Ltmp688:
	.cv_loc	211 34 301 0
	movb	$32, 7(%rsp)
.Ltmp689:
	.cv_loc	211 34 301 0
	jmp	.LBB38_3
.LBB38_67:
	movq	%rsp, %rax
	movq	%rax, 536(%rsp)
	cmpl	$33, (%rsp)
	jne	.LBB38_69
	movl	(%rsp), %eax
	movl	%eax, 548(%rsp)
.Ltmp690:
	.cv_loc	211 34 301 0
	movb	$33, 7(%rsp)
.Ltmp691:
	.cv_loc	211 34 301 0
	jmp	.LBB38_3
.LBB38_69:
	movq	%rsp, %rax
	movq	%rax, 552(%rsp)
	cmpl	$34, (%rsp)
	jne	.LBB38_71
	movl	(%rsp), %eax
	movl	%eax, 564(%rsp)
.Ltmp692:
	.cv_loc	211 34 301 0
	movb	$34, 7(%rsp)
.Ltmp693:
	.cv_loc	211 34 301 0
	jmp	.LBB38_3
.LBB38_71:
	movq	%rsp, %rax
	movq	%rax, 568(%rsp)
	cmpl	$35, (%rsp)
	jne	.LBB38_73
	movl	(%rsp), %eax
	movl	%eax, 580(%rsp)
.Ltmp694:
	.cv_loc	211 34 301 0
	movb	$35, 7(%rsp)
.Ltmp695:
	.cv_loc	211 34 301 0
	jmp	.LBB38_3
.LBB38_73:
	movq	%rsp, %rax
	movq	%rax, 584(%rsp)
	cmpl	$39, (%rsp)
	jne	.LBB38_75
	movl	(%rsp), %eax
	movl	%eax, 596(%rsp)
.Ltmp696:
	.cv_loc	211 34 301 0
	movb	$39, 7(%rsp)
.Ltmp697:
	.cv_loc	211 34 301 0
	jmp	.LBB38_3
.LBB38_75:
	movq	%rsp, %rax
	movq	%rax, 600(%rsp)
	cmpl	$37, (%rsp)
	jne	.LBB38_77
	movl	(%rsp), %eax
	movl	%eax, 612(%rsp)
.Ltmp698:
	.cv_loc	211 34 301 0
	movb	$37, 7(%rsp)
.Ltmp699:
	.cv_loc	211 34 301 0
	jmp	.LBB38_3
.LBB38_77:
	movq	%rsp, %rax
	movq	%rax, 616(%rsp)
	cmpl	$36, (%rsp)
	jne	.LBB38_79
	movl	(%rsp), %eax
	movl	%eax, 628(%rsp)
.Ltmp700:
	.cv_loc	211 34 301 0
	movb	$36, 7(%rsp)
.Ltmp701:
	.cv_loc	211 34 301 0
	jmp	.LBB38_3
.LBB38_79:
	movq	%rsp, %rax
	movq	%rax, 632(%rsp)
	cmpl	$38, (%rsp)
	jne	.LBB38_81
	movl	(%rsp), %eax
	movl	%eax, 644(%rsp)
.Ltmp702:
	.cv_loc	211 34 301 0
	movb	$38, 7(%rsp)
.Ltmp703:
	.cv_loc	211 34 301 0
	jmp	.LBB38_3
.LBB38_81:
	movq	%rsp, %rax
	movq	%rax, 648(%rsp)
	cmpl	$40, (%rsp)
	jne	.LBB38_83
	movl	(%rsp), %eax
	movl	%eax, 660(%rsp)
.Ltmp704:
	.cv_loc	211 34 301 0
	movb	$40, 7(%rsp)
.Ltmp705:
	.cv_loc	211 34 301 0
	jmp	.LBB38_3
.LBB38_83:
	movb	$41, 7(%rsp)
	jmp	.LBB38_3
.Ltmp706:
.Lfunc_end38:
	.seh_endproc

	.def	_ZN3std2io5error14repr_bitpacked4Repr4data28_$u7b$$u7b$closure$u7d$$u7d$17h8e27888b78bf8d33E;
	.scl	3;
	.type	32;
	.endef
	.section	.text,"xr",one_only,_ZN3std2io5error14repr_bitpacked4Repr4data28_$u7b$$u7b$closure$u7d$$u7d$17h8e27888b78bf8d33E
	.p2align	4, 0x90
_ZN3std2io5error14repr_bitpacked4Repr4data28_$u7b$$u7b$closure$u7d$$u7d$17h8e27888b78bf8d33E:
.Lfunc_begin39:
	.cv_func_id 212
	.cv_loc	212 34 211 0
.seh_proc _ZN3std2io5error14repr_bitpacked4Repr4data28_$u7b$$u7b$closure$u7d$$u7d$17h8e27888b78bf8d33E
	subq	$16, %rsp
	.seh_stackalloc 16
	.seh_endprologue
	movq	%rcx, %rax
	movq	%rax, 8(%rsp)
.Ltmp707:
	addq	$16, %rsp
	retq
.Ltmp708:
.Lfunc_end39:
	.seh_endproc

	.def	_ZN3std2io5error5Error14is_interrupted17h2b1ecce8615318d0E;
	.scl	3;
	.type	32;
	.endef
	.section	.text,"xr",one_only,_ZN3std2io5error5Error14is_interrupted17h2b1ecce8615318d0E
	.p2align	4, 0x90
_ZN3std2io5error5Error14is_interrupted17h2b1ecce8615318d0E:
.Lfunc_begin40:
	.cv_func_id 213
	.cv_loc	213 33 920 0
.seh_proc _ZN3std2io5error5Error14is_interrupted17h2b1ecce8615318d0E
	subq	$216, %rsp
	.seh_stackalloc 216
	.seh_endprologue
.Ltmp709:
	.cv_inline_site_id 214 within 213 inlined_at 33 925 0
	.cv_loc	214 33 175 0
	leaq	__unnamed_19(%rip), %rax
	movq	%rax, 48(%rsp)
.Ltmp710:
	.cv_loc	214 33 175 0
	movq	$35, 56(%rsp)
.Ltmp711:
	.cv_inline_site_id 215 within 213 inlined_at 33 923 0
	.cv_loc	215 33 175 0
	movq	%rax, 64(%rsp)
.Ltmp712:
	.cv_loc	215 33 175 0
	movq	$35, 72(%rsp)
.Ltmp713:
	.cv_inline_site_id 216 within 213 inlined_at 33 924 0
	.cv_loc	216 33 175 0
	movq	%rax, 80(%rsp)
.Ltmp714:
	.cv_loc	216 33 175 0
	movq	$35, 88(%rsp)
	movq	%rcx, 128(%rsp)
.Ltmp715:
	.cv_loc	213 33 921 0
	movq	%rcx, 136(%rsp)
.Ltmp716:
	.cv_inline_site_id 217 within 213 inlined_at 33 921 0
	.cv_loc	217 34 211 0
	movq	(%rcx), %rdx
	leaq	104(%rsp), %rcx
	callq	_ZN3std2io5error14repr_bitpacked11decode_repr17h54504009dd8b2998E
.Ltmp717:
	.cv_loc	213 33 921 0
	movzbl	104(%rsp), %eax
	movq	%rax, 40(%rsp)
	movq	40(%rsp), %rax
	leaq	.LJTI40_0(%rip), %rcx
	movslq	(%rcx,%rax,4), %rax
	addq	%rcx, %rax
	jmpq	*%rax
	ud2
.LBB40_2:
	.cv_loc	213 33 922 0
	movl	108(%rsp), %eax
	movl	%eax, 148(%rsp)
.Ltmp718:
	.cv_file	39 "C:\\Users\\cires\\.rustup\\toolchains\\nightly-x86_64-pc-windows-msvc\\lib\\rustlib\\src\\rust\\library\\std\\src\\sys\\windows\\mod.rs" "2388B510BA8941B38DE3130E60E671562548E4DB908454376FF5BD079ED345E0" 3
	.cv_inline_site_id 218 within 213 inlined_at 33 922 0
	.cv_loc	218 39 77 0
	movb	$0, 103(%rsp)
.Ltmp719:
	.cv_loc	213 33 922 0
	jmp	.LBB40_6
.LBB40_3:
	.cv_loc	213 33 924 0
	movb	105(%rsp), %al
	movb	%al, 127(%rsp)
.Ltmp720:
	.cv_loc	213 33 924 0
	leaq	127(%rsp), %rax
	movq	%rax, 152(%rsp)
.Ltmp721:
	.cv_loc	216 33 175 0
	movzbl	127(%rsp), %eax
	movq	%rax, 160(%rsp)
.Ltmp722:
	.cv_loc	216 33 175 0
	cmpq	$35, %rax
	sete	%al
	andb	$1, %al
	movb	%al, 103(%rsp)
.Ltmp723:
	.cv_loc	213 33 924 0
	jmp	.LBB40_6
.LBB40_4:
	.cv_loc	213 33 925 0
	movq	112(%rsp), %rax
	movq	%rax, 168(%rsp)
.Ltmp724:
	.cv_loc	213 33 925 0
	movq	%rax, %rcx
	addq	$16, %rcx
	movq	%rcx, 176(%rsp)
.Ltmp725:
	.cv_loc	214 33 175 0
	movzbl	16(%rax), %eax
	movq	%rax, 184(%rsp)
.Ltmp726:
	.cv_loc	214 33 175 0
	cmpq	$35, %rax
	sete	%al
	andb	$1, %al
	movb	%al, 103(%rsp)
.Ltmp727:
	.cv_loc	213 33 925 0
	jmp	.LBB40_6
.LBB40_5:
	.cv_loc	213 33 923 0
	movq	112(%rsp), %rax
	movq	%rax, 192(%rsp)
.Ltmp728:
	.cv_loc	213 33 923 0
	movq	%rax, %rcx
	addq	$16, %rcx
	movq	%rcx, 200(%rsp)
.Ltmp729:
	.cv_loc	215 33 175 0
	movzbl	16(%rax), %eax
	movq	%rax, 208(%rsp)
.Ltmp730:
	.cv_loc	215 33 175 0
	cmpq	$35, %rax
	sete	%al
	andb	$1, %al
	movb	%al, 103(%rsp)
.Ltmp731:
.LBB40_6:
	.cv_loc	213 33 927 0
	movb	103(%rsp), %al
	andb	$1, %al
	movzbl	%al, %eax
	addq	$216, %rsp
	retq
.Ltmp732:
.Lfunc_end40:
	.section	.rdata,"dr",associative,_ZN3std2io5error5Error14is_interrupted17h2b1ecce8615318d0E
	.p2align	2, 0x0
.LJTI40_0:
	.long	.LBB40_2-.LJTI40_0
	.long	.LBB40_3-.LJTI40_0
	.long	.LBB40_4-.LJTI40_0
	.long	.LBB40_5-.LJTI40_0
	.section	.text,"xr",one_only,_ZN3std2io5error5Error14is_interrupted17h2b1ecce8615318d0E
	.seh_endproc

	.def	_ZN3std3sys6common12thread_local10fast_local12Key$LT$T$GT$14try_initialize17h367cf80bf1cf5299E;
	.scl	3;
	.type	32;
	.endef
	.section	.text,"xr",one_only,_ZN3std3sys6common12thread_local10fast_local12Key$LT$T$GT$14try_initialize17h367cf80bf1cf5299E
	.p2align	4, 0x90
_ZN3std3sys6common12thread_local10fast_local12Key$LT$T$GT$14try_initialize17h367cf80bf1cf5299E:
.Lfunc_begin41:
	.cv_func_id 219
	.cv_loc	219 28 186 0
.seh_proc _ZN3std3sys6common12thread_local10fast_local12Key$LT$T$GT$14try_initialize17h367cf80bf1cf5299E
	.seh_handler __CxxFrameHandler3, @unwind, @except
	pushq	%rbp
	.seh_pushreg %rbp
	subq	$112, %rsp
	.seh_stackalloc 112
	leaq	112(%rsp), %rbp
	.seh_setframe %rbp, 112
	.seh_endprologue
	movq	$-2, -8(%rbp)
	movq	%rdx, -64(%rbp)
	movq	%rcx, -56(%rbp)
	movq	%rcx, -32(%rbp)
	movq	%rdx, -24(%rbp)
.Ltmp737:
	.cv_loc	219 28 188 0
	movb	$1, -33(%rbp)
.Ltmp738:
	.cv_inline_site_id 220 within 219 inlined_at 28 188 0
	.cv_loc	220 9 601 0
	movb	$1, -9(%rbp)
.Ltmp739:
	.cv_loc	219 28 188 0
	testb	$1, -9(%rbp)
	jne	.LBB41_2
.LBB41_1:
	.cv_loc	219 28 190 0
	movq	-64(%rbp), %rdx
	movq	-56(%rbp), %rcx
	movb	$0, -33(%rbp)
.Ltmp735:
	callq	_ZN3std3sys6common12thread_local4lazy21LazyKeyInner$LT$T$GT$10initialize17h725bec631fb0d8a3E
.Ltmp736:
	movq	%rax, -72(%rbp)
	jmp	.LBB41_7
.LBB41_2:
	.cv_loc	219 28 188 0
.Ltmp733:
	movq	-56(%rbp), %rcx
	callq	_ZN3std3sys6common12thread_local10fast_local12Key$LT$T$GT$17try_register_dtor17h847234e2d27f5271E
.Ltmp734:
	movb	%al, -73(%rbp)
	jmp	.LBB41_4
.LBB41_4:
	movb	-73(%rbp), %al
	testb	$1, %al
	jne	.LBB41_1
	jmp	.LBB41_5
.LBB41_5:
	.cv_loc	219 28 192 0
	movq	$0, -48(%rbp)
.LBB41_6:
	.cv_loc	219 28 194 0
	testb	$1, -33(%rbp)
	jne	.LBB41_9
	jmp	.LBB41_8
.LBB41_7:
	.cv_loc	219 28 190 0
	movq	-72(%rbp), %rax
	movq	%rax, -48(%rbp)
	.cv_loc	219 28 188 0
	jmp	.LBB41_6
.LBB41_8:
	.cv_loc	219 28 194 0
	movq	-48(%rbp), %rax
	addq	$112, %rsp
	popq	%rbp
	retq
.LBB41_9:
	jmp	.LBB41_8
	.seh_handlerdata
	.long	($cppxdata$_ZN3std3sys6common12thread_local10fast_local12Key$LT$T$GT$14try_initialize17h367cf80bf1cf5299E)@IMGREL
	.section	.text,"xr",one_only,_ZN3std3sys6common12thread_local10fast_local12Key$LT$T$GT$14try_initialize17h367cf80bf1cf5299E
	.seh_endproc
	.def	"?dtor$3@?0?_ZN3std3sys6common12thread_local10fast_local12Key$LT$T$GT$14try_initialize17h367cf80bf1cf5299E@4HA";
	.scl	3;
	.type	32;
	.endef
	.p2align	4, 0x90
"?dtor$3@?0?_ZN3std3sys6common12thread_local10fast_local12Key$LT$T$GT$14try_initialize17h367cf80bf1cf5299E@4HA":
.seh_proc "?dtor$3@?0?_ZN3std3sys6common12thread_local10fast_local12Key$LT$T$GT$14try_initialize17h367cf80bf1cf5299E@4HA"
.LBB41_3:
	movq	%rdx, 16(%rsp)
	pushq	%rbp
	.seh_pushreg %rbp
	subq	$32, %rsp
	.seh_stackalloc 32
	leaq	112(%rdx), %rbp
	.seh_endprologue
	testb	$1, -33(%rbp)
	jne	.LBB41_11
	jmp	.LBB41_10
.LBB41_10:
	.cv_loc	219 28 186 0
	addq	$32, %rsp
	popq	%rbp
	retq
.LBB41_11:
	.cv_loc	219 28 194 0
	jmp	.LBB41_10
.Ltmp740:
.Lfunc_end41:
	.seh_handlerdata
	.section	.text,"xr",one_only,_ZN3std3sys6common12thread_local10fast_local12Key$LT$T$GT$14try_initialize17h367cf80bf1cf5299E
	.seh_endproc
	.section	.xdata,"dr",associative,_ZN3std3sys6common12thread_local10fast_local12Key$LT$T$GT$14try_initialize17h367cf80bf1cf5299E
	.p2align	2, 0x0
$cppxdata$_ZN3std3sys6common12thread_local10fast_local12Key$LT$T$GT$14try_initialize17h367cf80bf1cf5299E:
	.long	429065506
	.long	1
	.long	($stateUnwindMap$_ZN3std3sys6common12thread_local10fast_local12Key$LT$T$GT$14try_initialize17h367cf80bf1cf5299E)@IMGREL
	.long	0
	.long	0
	.long	3
	.long	($ip2state$_ZN3std3sys6common12thread_local10fast_local12Key$LT$T$GT$14try_initialize17h367cf80bf1cf5299E)@IMGREL
	.long	104
	.long	0
	.long	1
$stateUnwindMap$_ZN3std3sys6common12thread_local10fast_local12Key$LT$T$GT$14try_initialize17h367cf80bf1cf5299E:
	.long	-1
	.long	"?dtor$3@?0?_ZN3std3sys6common12thread_local10fast_local12Key$LT$T$GT$14try_initialize17h367cf80bf1cf5299E@4HA"@IMGREL
$ip2state$_ZN3std3sys6common12thread_local10fast_local12Key$LT$T$GT$14try_initialize17h367cf80bf1cf5299E:
	.long	.Lfunc_begin41@IMGREL
	.long	-1
	.long	.Ltmp735@IMGREL+1
	.long	0
	.long	.Ltmp734@IMGREL+1
	.long	-1
	.section	.text,"xr",one_only,_ZN3std3sys6common12thread_local10fast_local12Key$LT$T$GT$14try_initialize17h367cf80bf1cf5299E

	.def	_ZN3std3sys6common12thread_local10fast_local12Key$LT$T$GT$17try_register_dtor17h847234e2d27f5271E;
	.scl	3;
	.type	32;
	.endef
	.section	.text,"xr",one_only,_ZN3std3sys6common12thread_local10fast_local12Key$LT$T$GT$17try_register_dtor17h847234e2d27f5271E
	.p2align	4, 0x90
_ZN3std3sys6common12thread_local10fast_local12Key$LT$T$GT$17try_register_dtor17h847234e2d27f5271E:
.Lfunc_begin42:
	.cv_func_id 221
	.cv_loc	221 28 199 0
.seh_proc _ZN3std3sys6common12thread_local10fast_local12Key$LT$T$GT$17try_register_dtor17h847234e2d27f5271E
	subq	$120, %rsp
	.seh_stackalloc 120
	.seh_endprologue
	movq	%rcx, 40(%rsp)
.Ltmp741:
	.cv_inline_site_id 222 within 221 inlined_at 28 208 0
	.cv_loc	222 7 411 0
	movb	$1, 58(%rsp)
.Ltmp742:
	.cv_inline_site_id 223 within 222 inlined_at 7 412 0
	.cv_loc	223 7 470 0
	movb	$1, 59(%rsp)
.Ltmp743:
	.cv_inline_site_id 224 within 223 inlined_at 7 473 0
	.cv_loc	224 9 912 0
	movb	$1, 60(%rsp)
.Ltmp744:
	.cv_inline_site_id 225 within 224 inlined_at 9 922 0
	.cv_loc	225 8 1398 0
	movb	$1, 61(%rsp)
	movq	%rcx, 64(%rsp)
.Ltmp745:
	.cv_loc	221 28 200 0
	movq	%rcx, %rax
	addq	$88, %rax
	movq	%rax, 72(%rsp)
.Ltmp746:
	.cv_inline_site_id 226 within 221 inlined_at 28 200 0
	.cv_loc	226 7 512 0
	movq	%rax, 80(%rsp)
	movb	88(%rcx), %al
	movb	%al, 63(%rsp)
.Ltmp747:
	.cv_loc	221 28 200 0
	movzbl	63(%rsp), %eax
	movq	%rax, 48(%rsp)
	testq	%rax, %rax
	je	.LBB42_2
	jmp	.LBB42_6
.LBB42_6:
	movq	48(%rsp), %rax
	subq	$1, %rax
	je	.LBB42_3
	jmp	.LBB42_7
.LBB42_7:
	jmp	.LBB42_4
	ud2
.LBB42_2:
	.cv_loc	221 28 207 0
	movq	40(%rsp), %rcx
	leaq	_ZN3std3sys6common12thread_local10fast_local13destroy_value17hd2846828a065a1abE(%rip), %rdx
	callq	_ZN3std3sys7windows16thread_local_key21register_keyless_dtor17h584d43b1f72eb549E
	movq	40(%rsp), %rax
	.cv_loc	221 28 208 0
	movq	%rax, %rcx
	addq	$88, %rcx
	movq	%rcx, 88(%rsp)
.Ltmp748:
	.cv_loc	223 7 473 0
	movq	%rax, %rcx
	addq	$88, %rcx
	movq	%rcx, 96(%rsp)
.Ltmp749:
	.cv_loc	224 7 2116 0
	movq	%rax, %rcx
	addq	$88, %rcx
	movq	%rcx, 104(%rsp)
.Ltmp750:
	.cv_inline_site_id 227 within 224 inlined_at 9 921 0
	.cv_loc	227 8 1215 0
	movb	88(%rax), %cl
	movb	%cl, 119(%rsp)
.Ltmp751:
	.cv_loc	225 8 1415 0
	movb	$1, 88(%rax)
.Ltmp752:
	.cv_loc	221 28 209 0
	movb	$1, 62(%rsp)
	jmp	.LBB42_5
.LBB42_3:
	.cv_loc	221 28 213 0
	movb	$1, 62(%rsp)
	jmp	.LBB42_5
.LBB42_4:
	.cv_loc	221 28 215 0
	movb	$0, 62(%rsp)
.LBB42_5:
	.cv_loc	221 28 217 0
	movb	62(%rsp), %al
	andb	$1, %al
	movzbl	%al, %eax
	addq	$120, %rsp
	retq
.Ltmp753:
.Lfunc_end42:
	.seh_endproc

	.def	_ZN3std3sys6common12thread_local10fast_local12Key$LT$T$GT$3get17h22174112fd4c29b0E;
	.scl	3;
	.type	32;
	.endef
	.section	.text,"xr",one_only,_ZN3std3sys6common12thread_local10fast_local12Key$LT$T$GT$3get17h22174112fd4c29b0E
	.p2align	4, 0x90
_ZN3std3sys6common12thread_local10fast_local12Key$LT$T$GT$3get17h22174112fd4c29b0E:
.Lfunc_begin43:
	.cv_func_id 228
	.cv_loc	228 28 162 0
.seh_proc _ZN3std3sys6common12thread_local10fast_local12Key$LT$T$GT$3get17h22174112fd4c29b0E
	.seh_handler __CxxFrameHandler3, @unwind, @except
	pushq	%rbp
	.seh_pushreg %rbp
	subq	$144, %rsp
	.seh_stackalloc 144
	leaq	128(%rsp), %rbp
	.seh_setframe %rbp, 128
	.seh_endprologue
	movq	$-2, 8(%rbp)
	movq	%rdx, -88(%rbp)
	movq	%rcx, -80(%rbp)
	movq	%rcx, -48(%rbp)
	movq	%rdx, -40(%rbp)
.Ltmp756:
	.cv_loc	228 28 171 0
	movb	$1, -49(%rbp)
	movq	%rcx, -32(%rbp)
.Ltmp757:
	.cv_file	40 "C:\\Users\\cires\\.rustup\\toolchains\\nightly-x86_64-pc-windows-msvc\\lib\\rustlib\\src\\rust\\library\\std\\src\\sys\\common\\thread_local\\mod.rs" "BE4F15489A61E969A5E6C84953280EA2629F5B16E362869B9EBC33E958AA3CC6" 3
	.cv_inline_site_id 229 within 228 inlined_at 28 171 0
	.cv_loc	229 40 46 0
	movq	%rcx, -24(%rbp)
.Ltmp758:
	.cv_inline_site_id 230 within 229 inlined_at 40 46 0
	.cv_loc	230 7 2116 0
	movq	%rcx, -16(%rbp)
.Ltmp759:
	.cv_loc	230 10 681 0
	cmpq	$0, (%rcx)
	jne	.LBB43_2
	.cv_loc	230 10 683 0
	movq	$0, -64(%rbp)
	jmp	.LBB43_3
.LBB43_2:
	.cv_loc	230 10 682 0
	movq	-80(%rbp), %rax
	movq	%rax, %rcx
	addq	$8, %rcx
	movq	%rcx, -8(%rbp)
.Ltmp760:
	.cv_loc	230 10 682 0
	addq	$8, %rax
	movq	%rax, -64(%rbp)
.Ltmp761:
.LBB43_3:
	.cv_loc	228 28 171 0
	movq	-64(%rbp), %rax
	cmpq	$0, %rax
	sete	%al
	testb	$1, %al
	jne	.LBB43_4
	jmp	.LBB43_5
.LBB43_4:
	.cv_loc	228 28 173 0
	movq	-88(%rbp), %rdx
	movq	-80(%rbp), %rcx
	movb	$0, -49(%rbp)
.Ltmp754:
	callq	_ZN3std3sys6common12thread_local10fast_local12Key$LT$T$GT$14try_initialize17h367cf80bf1cf5299E
.Ltmp755:
	movq	%rax, -96(%rbp)
	jmp	.LBB43_7
.LBB43_5:
	.cv_loc	228 28 172 0
	movq	-64(%rbp), %rax
	movq	%rax, (%rbp)
.Ltmp762:
	.cv_loc	228 28 172 0
	movq	%rax, -72(%rbp)
.Ltmp763:
	.cv_loc	228 28 172 0
	jmp	.LBB43_8
.LBB43_7:
	.cv_loc	228 28 173 0
	movq	-96(%rbp), %rax
	movq	%rax, -72(%rbp)
.LBB43_8:
	.cv_loc	228 28 176 0
	testb	$1, -49(%rbp)
	jne	.LBB43_12
	jmp	.LBB43_11
.LBB43_11:
	movq	-72(%rbp), %rax
	addq	$144, %rsp
	popq	%rbp
	retq
.LBB43_12:
	jmp	.LBB43_11
	.seh_handlerdata
	.long	($cppxdata$_ZN3std3sys6common12thread_local10fast_local12Key$LT$T$GT$3get17h22174112fd4c29b0E)@IMGREL
	.section	.text,"xr",one_only,_ZN3std3sys6common12thread_local10fast_local12Key$LT$T$GT$3get17h22174112fd4c29b0E
	.seh_endproc
	.def	"?dtor$6@?0?_ZN3std3sys6common12thread_local10fast_local12Key$LT$T$GT$3get17h22174112fd4c29b0E@4HA";
	.scl	3;
	.type	32;
	.endef
	.p2align	4, 0x90
"?dtor$6@?0?_ZN3std3sys6common12thread_local10fast_local12Key$LT$T$GT$3get17h22174112fd4c29b0E@4HA":
.seh_proc "?dtor$6@?0?_ZN3std3sys6common12thread_local10fast_local12Key$LT$T$GT$3get17h22174112fd4c29b0E@4HA"
.LBB43_6:
	movq	%rdx, 16(%rsp)
	pushq	%rbp
	.seh_pushreg %rbp
	subq	$32, %rsp
	.seh_stackalloc 32
	leaq	128(%rdx), %rbp
	.seh_endprologue
	testb	$1, -49(%rbp)
	jne	.LBB43_10
	jmp	.LBB43_9
.LBB43_9:
	.cv_loc	228 28 162 0
	addq	$32, %rsp
	popq	%rbp
	retq
.LBB43_10:
	.cv_loc	228 28 176 0
	jmp	.LBB43_9
.Ltmp764:
.Lfunc_end43:
	.seh_handlerdata
	.section	.text,"xr",one_only,_ZN3std3sys6common12thread_local10fast_local12Key$LT$T$GT$3get17h22174112fd4c29b0E
	.seh_endproc
	.section	.xdata,"dr",associative,_ZN3std3sys6common12thread_local10fast_local12Key$LT$T$GT$3get17h22174112fd4c29b0E
	.p2align	2, 0x0
$cppxdata$_ZN3std3sys6common12thread_local10fast_local12Key$LT$T$GT$3get17h22174112fd4c29b0E:
	.long	429065506
	.long	1
	.long	($stateUnwindMap$_ZN3std3sys6common12thread_local10fast_local12Key$LT$T$GT$3get17h22174112fd4c29b0E)@IMGREL
	.long	0
	.long	0
	.long	3
	.long	($ip2state$_ZN3std3sys6common12thread_local10fast_local12Key$LT$T$GT$3get17h22174112fd4c29b0E)@IMGREL
	.long	136
	.long	0
	.long	1
$stateUnwindMap$_ZN3std3sys6common12thread_local10fast_local12Key$LT$T$GT$3get17h22174112fd4c29b0E:
	.long	-1
	.long	"?dtor$6@?0?_ZN3std3sys6common12thread_local10fast_local12Key$LT$T$GT$3get17h22174112fd4c29b0E@4HA"@IMGREL
$ip2state$_ZN3std3sys6common12thread_local10fast_local12Key$LT$T$GT$3get17h22174112fd4c29b0E:
	.long	.Lfunc_begin43@IMGREL
	.long	-1
	.long	.Ltmp754@IMGREL+1
	.long	0
	.long	.Ltmp755@IMGREL+1
	.long	-1
	.section	.text,"xr",one_only,_ZN3std3sys6common12thread_local10fast_local12Key$LT$T$GT$3get17h22174112fd4c29b0E

	.def	_ZN3std3sys6common12thread_local10fast_local13destroy_value17hd2846828a065a1abE;
	.scl	3;
	.type	32;
	.endef
	.section	.text,"xr",one_only,_ZN3std3sys6common12thread_local10fast_local13destroy_value17hd2846828a065a1abE
	.p2align	4, 0x90
_ZN3std3sys6common12thread_local10fast_local13destroy_value17hd2846828a065a1abE:
.Lfunc_begin44:
	.cv_func_id 231
	.cv_loc	231 28 220 0
.seh_proc _ZN3std3sys6common12thread_local10fast_local13destroy_value17hd2846828a065a1abE
	.seh_handler __CxxFrameHandler3, @unwind, @except
	pushq	%rbp
	.seh_pushreg %rbp
	subq	$224, %rsp
	.seh_stackalloc 224
	leaq	128(%rsp), %rbp
	.seh_setframe %rbp, 128
	.seh_endprologue
	movq	$-2, 88(%rbp)
	movq	%rcx, 80(%rbp)
.Ltmp775:
	.cv_loc	231 28 221 0
	movq	%rcx, -64(%rbp)
	leaq	-64(%rbp), %rax
.Ltmp776:
	.cv_loc	231 28 236 0
	movq	%rax, -32(%rbp)
	movq	-32(%rbp), %rax
	movq	%rax, -40(%rbp)
.Ltmp777:
	.cv_inline_site_id 232 within 231 inlined_at 28 236 0
	.cv_loc	232 26 142 0
	movq	-40(%rbp), %rcx
.Ltmp765:
	callq	_ZN3std9panicking3try17h09c407650a340eb3E
.Ltmp766:
	movq	%rdx, -80(%rbp)
	movq	%rax, -72(%rbp)
	jmp	.LBB44_2
.LBB44_2:
	movq	-80(%rbp), %rax
	movq	-72(%rbp), %rcx
	movq	%rcx, -56(%rbp)
	movq	%rax, -48(%rbp)
.Ltmp778:
	.cv_loc	231 28 236 0
	movq	-56(%rbp), %rdx
	movl	$1, %eax
	xorl	%ecx, %ecx
	cmpq	$0, %rdx
	cmoveq	%rcx, %rax
	cmpq	$1, %rax
	jne	.LBB44_4
.Ltmp779:
	.cv_file	41 "C:\\Users\\cires\\.rustup\\toolchains\\nightly-x86_64-pc-windows-msvc\\lib\\rustlib\\src\\rust\\library\\std\\src\\sys\\windows\\stdio.rs" "F3BDCA3FCF070B5CEB955B63DA1B3A37D9BE2D33189350575EAEF6FE051DFDCA" 3
	.cv_file	42 "C:\\Users\\cires\\.rustup\\toolchains\\nightly-x86_64-pc-windows-msvc\\lib\\rustlib\\src\\rust\\library\\std\\src\\rt.rs" "7DE1A9690DC20309CA9404793CB4783442BB5506DEEC94DEDBE13D104CB8FCDF" 3
	.cv_inline_site_id 233 within 231 inlined_at 42 36 0
	.cv_inline_site_id 234 within 233 inlined_at 41 461 0
	.cv_inline_site_id 235 within 234 inlined_at 41 442 0
	.cv_loc	235 41 420 0
	movl	$0, 76(%rbp)
	movl	76(%rbp), %eax
	movl	%eax, 71(%rbp)
	movb	$0, 75(%rbp)
.Ltmp780:
	.cv_loc	234 41 442 0
	movb	75(%rbp), %al
	movb	%al, 68(%rbp)
	movl	71(%rbp), %eax
	movl	%eax, 64(%rbp)
.Ltmp781:
	.cv_loc	233 41 461 0
	movb	68(%rbp), %al
	movb	%al, -17(%rbp)
	movl	64(%rbp), %eax
	movl	%eax, -21(%rbp)
	movb	$1, -22(%rbp)
.Ltmp782:
	.cv_loc	231 28 241 0
	movb	-17(%rbp), %al
	movb	%al, 60(%rbp)
	movl	-21(%rbp), %eax
	movl	%eax, 56(%rbp)
	movb	60(%rbp), %al
	movb	%al, -12(%rbp)
	movl	56(%rbp), %eax
	movl	%eax, -16(%rbp)
.Ltmp769:
	movq	%rsp, %rax
	movq	$0, 32(%rax)
	leaq	__unnamed_20(%rip), %rdx
	movq	%rbp, %rcx
	movl	$1, %r8d
	leaq	48(%rbp), %r9
	callq	_ZN4core3fmt9Arguments6new_v117h2ae926d6c76207a8E
.Ltmp770:
	jmp	.LBB44_5
.Ltmp783:
.LBB44_4:
	.cv_loc	231 28 243 0
.Ltmp767:
	leaq	-56(%rbp), %rcx
	callq	_ZN4core3ptr130drop_in_place$LT$core..result..Result$LT$$LP$$RP$$C$alloc..boxed..Box$LT$dyn$u20$core..any..Any$u2b$core..marker..Send$GT$$GT$$GT$17hd367d0b8cff306adE
.Ltmp768:
	jmp	.LBB44_8
.LBB44_5:
	.cv_loc	231 28 241 0
.Ltmp771:
	leaq	-16(%rbp), %rcx
	movq	%rbp, %rdx
.Ltmp784:
	callq	_ZN3std2io5Write9write_fmt17h22db5d5fd8352b4eE
.Ltmp772:
	movq	%rax, -88(%rbp)
	jmp	.LBB44_6
.LBB44_6:
	movq	-88(%rbp), %rax
	movq	%rax, -8(%rbp)
.Ltmp773:
	leaq	-8(%rbp), %rcx
	callq	_ZN4core3ptr81drop_in_place$LT$core..result..Result$LT$$LP$$RP$$C$std..io..error..Error$GT$$GT$17hf33afa96ee3d036fE
.Ltmp774:
	jmp	.LBB44_7
.Ltmp785:
.LBB44_7:
	.cv_inline_site_id 236 within 231 inlined_at 42 46 0
	.cv_loc	236 39 337 0
	movl	$7, %ecx
.Ltmp786:
	#APP

	int	$41

	#NO_APP
	.cv_loc	236 39 338 0
	ud2
.Ltmp787:
.LBB44_8:
	.cv_loc	231 28 243 0
	addq	$224, %rsp
	popq	%rbp
	retq
	.seh_handlerdata
	.long	($cppxdata$_ZN3std3sys6common12thread_local10fast_local13destroy_value17hd2846828a065a1abE)@IMGREL
	.section	.text,"xr",one_only,_ZN3std3sys6common12thread_local10fast_local13destroy_value17hd2846828a065a1abE
	.seh_endproc
	.def	"?catch$1@?0?_ZN3std3sys6common12thread_local10fast_local13destroy_value17hd2846828a065a1abE@4HA";
	.scl	3;
	.type	32;
	.endef
	.p2align	4, 0x90
"?catch$1@?0?_ZN3std3sys6common12thread_local10fast_local13destroy_value17hd2846828a065a1abE@4HA":
.seh_proc "?catch$1@?0?_ZN3std3sys6common12thread_local10fast_local13destroy_value17hd2846828a065a1abE@4HA"
	.seh_handler __CxxFrameHandler3, @unwind, @except
.LBB44_1:
	movq	%rdx, 16(%rsp)
	pushq	%rbp
	.seh_pushreg %rbp
	subq	$48, %rsp
	.seh_stackalloc 48
	leaq	128(%rdx), %rbp
	.seh_endprologue
	.cv_loc	231 28 220 0
	callq	_ZN4core9panicking19panic_cannot_unwind17h49d978f716c1f361E
	int3
.Ltmp788:
.Lfunc_end44:
	.seh_handlerdata
	.long	($cppxdata$_ZN3std3sys6common12thread_local10fast_local13destroy_value17hd2846828a065a1abE)@IMGREL
	.section	.text,"xr",one_only,_ZN3std3sys6common12thread_local10fast_local13destroy_value17hd2846828a065a1abE
	.seh_endproc
	.section	.xdata,"dr",associative,_ZN3std3sys6common12thread_local10fast_local13destroy_value17hd2846828a065a1abE
	.p2align	2, 0x0
$cppxdata$_ZN3std3sys6common12thread_local10fast_local13destroy_value17hd2846828a065a1abE:
	.long	429065506
	.long	2
	.long	($stateUnwindMap$_ZN3std3sys6common12thread_local10fast_local13destroy_value17hd2846828a065a1abE)@IMGREL
	.long	1
	.long	($tryMap$_ZN3std3sys6common12thread_local10fast_local13destroy_value17hd2846828a065a1abE)@IMGREL
	.long	4
	.long	($ip2state$_ZN3std3sys6common12thread_local10fast_local13destroy_value17hd2846828a065a1abE)@IMGREL
	.long	216
	.long	0
	.long	1
$stateUnwindMap$_ZN3std3sys6common12thread_local10fast_local13destroy_value17hd2846828a065a1abE:
	.long	-1
	.long	0
	.long	-1
	.long	0
$tryMap$_ZN3std3sys6common12thread_local10fast_local13destroy_value17hd2846828a065a1abE:
	.long	0
	.long	0
	.long	1
	.long	1
	.long	($handlerMap$0$_ZN3std3sys6common12thread_local10fast_local13destroy_value17hd2846828a065a1abE)@IMGREL
$handlerMap$0$_ZN3std3sys6common12thread_local10fast_local13destroy_value17hd2846828a065a1abE:
	.long	64
	.long	0
	.long	0
	.long	"?catch$1@?0?_ZN3std3sys6common12thread_local10fast_local13destroy_value17hd2846828a065a1abE@4HA"@IMGREL
	.long	72
$ip2state$_ZN3std3sys6common12thread_local10fast_local13destroy_value17hd2846828a065a1abE:
	.long	.Lfunc_begin44@IMGREL
	.long	-1
	.long	.Ltmp765@IMGREL+1
	.long	0
	.long	.Ltmp774@IMGREL+1
	.long	-1
	.long	"?catch$1@?0?_ZN3std3sys6common12thread_local10fast_local13destroy_value17hd2846828a065a1abE@4HA"@IMGREL
	.long	1
	.section	.text,"xr",one_only,_ZN3std3sys6common12thread_local10fast_local13destroy_value17hd2846828a065a1abE

	.def	_ZN3std3sys6common12thread_local10fast_local13destroy_value28_$u7b$$u7b$closure$u7d$$u7d$17hb8dba6345c3a8b4dE;
	.scl	3;
	.type	32;
	.endef
	.section	.text,"xr",one_only,_ZN3std3sys6common12thread_local10fast_local13destroy_value28_$u7b$$u7b$closure$u7d$$u7d$17hb8dba6345c3a8b4dE
	.p2align	4, 0x90
_ZN3std3sys6common12thread_local10fast_local13destroy_value28_$u7b$$u7b$closure$u7d$$u7d$17hb8dba6345c3a8b4dE:
.Lfunc_begin45:
	.cv_func_id 237
	.cv_loc	237 28 236 0
.seh_proc _ZN3std3sys6common12thread_local10fast_local13destroy_value28_$u7b$$u7b$closure$u7d$$u7d$17hb8dba6345c3a8b4dE
	.seh_handler __CxxFrameHandler3, @unwind, @except
	pushq	%rbp
	.seh_pushreg %rbp
	subq	$400, %rsp
	.seh_stackalloc 400
	leaq	128(%rsp), %rbp
	.seh_setframe %rbp, 128
	.seh_endprologue
.Ltmp791:
	.cv_inline_site_id 238 within 237 inlined_at 28 238 0
	.cv_loc	238 7 411 0
	movq	$-2, 264(%rbp)
	movb	$2, -84(%rbp)
.Ltmp792:
	.cv_inline_site_id 239 within 238 inlined_at 7 412 0
	.cv_loc	239 7 470 0
	movb	$2, -83(%rbp)
.Ltmp793:
	.cv_inline_site_id 240 within 239 inlined_at 7 473 0
	.cv_loc	240 9 912 0
	movb	$2, -82(%rbp)
.Ltmp794:
	.cv_inline_site_id 241 within 240 inlined_at 9 922 0
	.cv_loc	241 8 1398 0
	movb	$2, -81(%rbp)
	movq	%rcx, 192(%rbp)
	movq	192(%rbp), %rax
	movq	(%rax), %rax
	movq	%rax, 200(%rbp)
.Ltmp795:
	.cv_loc	237 28 237 0
	movq	(%rcx), %rax
	movq	(%rax), %rax
	movq	%rax, -96(%rbp)
	movq	%rax, 208(%rbp)
.Ltmp796:
	.cv_inline_site_id 242 within 237 inlined_at 28 237 0
	.cv_loc	242 40 100 0
	movq	%rax, 216(%rbp)
.Ltmp797:
	.cv_inline_site_id 243 within 242 inlined_at 40 100 0
	.cv_loc	243 7 2116 0
	movq	%rax, 224(%rbp)
.Ltmp798:
	.cv_loc	243 10 1690 0
	movq	$0, 104(%rbp)
.Ltmp799:
	.cv_inline_site_id 244 within 243 inlined_at 10 1690 0
	.cv_inline_site_id 245 within 244 inlined_at 9 921 0
	.cv_loc	245 8 1215 0
	vmovups	(%rax), %ymm0
	vmovups	32(%rax), %ymm1
	vmovups	56(%rax), %ymm2
	vmovups	%ymm2, -24(%rbp)
	vmovups	%ymm1, -48(%rbp)
	vmovups	%ymm0, -80(%rbp)
.Ltmp800:
	.cv_inline_site_id 246 within 244 inlined_at 9 922 0
	.cv_loc	246 8 1415 0
	vmovups	104(%rbp), %ymm0
	vmovups	136(%rbp), %ymm1
	vmovups	160(%rbp), %ymm2
	vmovups	%ymm2, 56(%rax)
	vmovups	%ymm1, 32(%rax)
	vmovups	%ymm0, (%rax)
.Ltmp801:
	.cv_loc	237 28 238 0
	movq	(%rcx), %rax
	movq	(%rax), %rax
	movq	%rax, %rcx
	addq	$88, %rcx
	movq	%rcx, 232(%rbp)
.Ltmp802:
	.cv_loc	239 7 473 0
	movq	%rcx, 240(%rbp)
.Ltmp803:
	.cv_loc	240 7 2116 0
	movq	%rcx, 248(%rbp)
.Ltmp804:
	.cv_inline_site_id 247 within 240 inlined_at 9 921 0
	.cv_loc	247 8 1215 0
	movb	88(%rax), %cl
	movb	%cl, 263(%rbp)
.Ltmp805:
	.cv_loc	241 8 1415 0
	movb	$2, 88(%rax)
.Ltmp806:
	.cv_loc	237 28 239 0
	vmovups	-80(%rbp), %ymm0
	vmovups	-48(%rbp), %ymm1
	vmovups	-24(%rbp), %ymm2
	vmovups	%ymm2, 72(%rbp)
	vmovups	%ymm1, 48(%rbp)
	vmovups	%ymm0, 16(%rbp)
	.cv_inline_site_id 248 within 237 inlined_at 28 239 0
	.cv_loc	248 9 992 0
.Ltmp789:
	leaq	16(%rbp), %rcx
.Ltmp807:
	vzeroupper
	callq	_ZN4core3ptr140drop_in_place$LT$core..option..Option$LT$proc_macro..bridge..scoped_cell..ScopedCell$LT$proc_macro..bridge..client..BridgeStateL$GT$$GT$$GT$17h76c82ae1730b2bfbE
.Ltmp790:
	jmp	.LBB45_2
.Ltmp808:
.LBB45_2:
	.cv_loc	237 28 240 0
	addq	$400, %rsp
	popq	%rbp
	retq
	.seh_handlerdata
	.long	($cppxdata$_ZN3std3sys6common12thread_local10fast_local13destroy_value28_$u7b$$u7b$closure$u7d$$u7d$17hb8dba6345c3a8b4dE)@IMGREL
	.section	.text,"xr",one_only,_ZN3std3sys6common12thread_local10fast_local13destroy_value28_$u7b$$u7b$closure$u7d$$u7d$17hb8dba6345c3a8b4dE
	.seh_endproc
	.def	"?dtor$1@?0?_ZN3std3sys6common12thread_local10fast_local13destroy_value28_$u7b$$u7b$closure$u7d$$u7d$17hb8dba6345c3a8b4dE@4HA";
	.scl	3;
	.type	32;
	.endef
	.p2align	4, 0x90
"?dtor$1@?0?_ZN3std3sys6common12thread_local10fast_local13destroy_value28_$u7b$$u7b$closure$u7d$$u7d$17hb8dba6345c3a8b4dE@4HA":
.seh_proc "?dtor$1@?0?_ZN3std3sys6common12thread_local10fast_local13destroy_value28_$u7b$$u7b$closure$u7d$$u7d$17hb8dba6345c3a8b4dE@4HA"
.LBB45_1:
	movq	%rdx, 16(%rsp)
	pushq	%rbp
	.seh_pushreg %rbp
	subq	$32, %rsp
	.seh_stackalloc 32
	leaq	128(%rdx), %rbp
	.seh_endprologue
	.cv_loc	237 28 236 0
	addq	$32, %rsp
	popq	%rbp
	retq
.Ltmp809:
.Lfunc_end45:
	.seh_handlerdata
	.section	.text,"xr",one_only,_ZN3std3sys6common12thread_local10fast_local13destroy_value28_$u7b$$u7b$closure$u7d$$u7d$17hb8dba6345c3a8b4dE
	.seh_endproc
	.section	.xdata,"dr",associative,_ZN3std3sys6common12thread_local10fast_local13destroy_value28_$u7b$$u7b$closure$u7d$$u7d$17hb8dba6345c3a8b4dE
	.p2align	2, 0x0
$cppxdata$_ZN3std3sys6common12thread_local10fast_local13destroy_value28_$u7b$$u7b$closure$u7d$$u7d$17hb8dba6345c3a8b4dE:
	.long	429065506
	.long	1
	.long	($stateUnwindMap$_ZN3std3sys6common12thread_local10fast_local13destroy_value28_$u7b$$u7b$closure$u7d$$u7d$17hb8dba6345c3a8b4dE)@IMGREL
	.long	0
	.long	0
	.long	3
	.long	($ip2state$_ZN3std3sys6common12thread_local10fast_local13destroy_value28_$u7b$$u7b$closure$u7d$$u7d$17hb8dba6345c3a8b4dE)@IMGREL
	.long	392
	.long	0
	.long	1
$stateUnwindMap$_ZN3std3sys6common12thread_local10fast_local13destroy_value28_$u7b$$u7b$closure$u7d$$u7d$17hb8dba6345c3a8b4dE:
	.long	-1
	.long	"?dtor$1@?0?_ZN3std3sys6common12thread_local10fast_local13destroy_value28_$u7b$$u7b$closure$u7d$$u7d$17hb8dba6345c3a8b4dE@4HA"@IMGREL
$ip2state$_ZN3std3sys6common12thread_local10fast_local13destroy_value28_$u7b$$u7b$closure$u7d$$u7d$17hb8dba6345c3a8b4dE:
	.long	.Lfunc_begin45@IMGREL
	.long	-1
	.long	.Ltmp789@IMGREL+1
	.long	0
	.long	.Ltmp790@IMGREL+1
	.long	-1
	.section	.text,"xr",one_only,_ZN3std3sys6common12thread_local10fast_local13destroy_value28_$u7b$$u7b$closure$u7d$$u7d$17hb8dba6345c3a8b4dE

	.def	_ZN3std3sys6common12thread_local4lazy21LazyKeyInner$LT$T$GT$10initialize17h725bec631fb0d8a3E;
	.scl	3;
	.type	32;
	.endef
	.section	.text,"xr",one_only,_ZN3std3sys6common12thread_local4lazy21LazyKeyInner$LT$T$GT$10initialize17h725bec631fb0d8a3E
	.p2align	4, 0x90
_ZN3std3sys6common12thread_local4lazy21LazyKeyInner$LT$T$GT$10initialize17h725bec631fb0d8a3E:
.Lfunc_begin46:
	.cv_func_id 249
	.cv_loc	249 40 51 0
.seh_proc _ZN3std3sys6common12thread_local4lazy21LazyKeyInner$LT$T$GT$10initialize17h725bec631fb0d8a3E
	.seh_handler __CxxFrameHandler3, @unwind, @except
	pushq	%rbp
	.seh_pushreg %rbp
	subq	$432, %rsp
	.seh_stackalloc 432
	leaq	128(%rsp), %rbp
	.seh_setframe %rbp, 128
	.seh_endprologue
	movq	$-2, 296(%rbp)
	movq	%rcx, -88(%rbp)
	movq	%rcx, 256(%rbp)
	movq	%rdx, 264(%rbp)
	leaq	-80(%rbp), %rcx
.Ltmp812:
	.cv_loc	249 40 54 0
	callq	_ZN10proc_macro6bridge6client12BRIDGE_STATE7__getit28_$u7b$$u7b$closure$u7d$$u7d$17h9c3b780f0835b005E
	movq	-88(%rbp), %rcx
.Ltmp813:
	.cv_loc	249 40 55 0
	movq	%rcx, 272(%rbp)
.Ltmp814:
	.cv_inline_site_id 250 within 249 inlined_at 40 55 0
	.cv_loc	250 7 2116 0
	movq	%rcx, 280(%rbp)
.Ltmp815:
	.cv_loc	249 40 75 0
	vmovups	-80(%rbp), %ymm0
	vmovups	-48(%rbp), %ymm1
	vmovups	-32(%rbp), %ymm2
	vmovups	%ymm2, 224(%rbp)
	vmovups	%ymm1, 208(%rbp)
	vmovups	%ymm0, 176(%rbp)
	vmovups	176(%rbp), %ymm0
	vmovups	208(%rbp), %ymm1
	vmovups	224(%rbp), %ymm2
	vmovups	%ymm2, 144(%rbp)
	vmovups	%ymm1, 128(%rbp)
	vmovups	%ymm0, 96(%rbp)
	movq	$1, 88(%rbp)
.Ltmp816:
	.cv_inline_site_id 251 within 249 inlined_at 40 75 0
	.cv_inline_site_id 252 within 251 inlined_at 9 921 0
	.cv_loc	252 8 1215 0
	vmovups	(%rcx), %ymm0
	vmovups	32(%rcx), %ymm1
	vmovups	56(%rcx), %ymm2
	vmovups	%ymm2, 56(%rbp)
	vmovups	%ymm1, 32(%rbp)
	vmovups	%ymm0, (%rbp)
.Ltmp817:
	.cv_inline_site_id 253 within 251 inlined_at 9 922 0
	.cv_loc	253 8 1415 0
	vmovups	88(%rbp), %ymm0
	vmovups	120(%rbp), %ymm1
	vmovups	144(%rbp), %ymm2
	vmovups	%ymm2, 56(%rcx)
	vmovups	%ymm1, 32(%rcx)
	vmovups	%ymm0, (%rcx)
	.cv_loc	249 40 75 0
.Ltmp810:
	movq	%rbp, %rcx
.Ltmp818:
	vzeroupper
	callq	_ZN4core3ptr140drop_in_place$LT$core..option..Option$LT$proc_macro..bridge..scoped_cell..ScopedCell$LT$proc_macro..bridge..client..BridgeStateL$GT$$GT$$GT$17h76c82ae1730b2bfbE
.Ltmp811:
	jmp	.LBB46_2
.LBB46_2:
	.cv_loc	249 40 87 0
	movq	-88(%rbp), %rax
	movq	(%rax), %rcx
	.cv_loc	249 40 88 0
	movq	%rax, %rcx
	addq	$8, %rcx
	movq	%rcx, 288(%rbp)
.Ltmp819:
	.cv_loc	249 40 88 0
	addq	$8, %rax
.Ltmp820:
	.cv_loc	249 40 92 0
	addq	$432, %rsp
	popq	%rbp
	retq
	.seh_handlerdata
	.long	($cppxdata$_ZN3std3sys6common12thread_local4lazy21LazyKeyInner$LT$T$GT$10initialize17h725bec631fb0d8a3E)@IMGREL
	.section	.text,"xr",one_only,_ZN3std3sys6common12thread_local4lazy21LazyKeyInner$LT$T$GT$10initialize17h725bec631fb0d8a3E
	.seh_endproc
	.def	"?dtor$1@?0?_ZN3std3sys6common12thread_local4lazy21LazyKeyInner$LT$T$GT$10initialize17h725bec631fb0d8a3E@4HA";
	.scl	3;
	.type	32;
	.endef
	.p2align	4, 0x90
"?dtor$1@?0?_ZN3std3sys6common12thread_local4lazy21LazyKeyInner$LT$T$GT$10initialize17h725bec631fb0d8a3E@4HA":
.seh_proc "?dtor$1@?0?_ZN3std3sys6common12thread_local4lazy21LazyKeyInner$LT$T$GT$10initialize17h725bec631fb0d8a3E@4HA"
.LBB46_1:
	movq	%rdx, 16(%rsp)
	pushq	%rbp
	.seh_pushreg %rbp
	subq	$32, %rsp
	.seh_stackalloc 32
	leaq	128(%rdx), %rbp
	.seh_endprologue
	.cv_loc	249 40 51 0
	addq	$32, %rsp
	popq	%rbp
	retq
.Ltmp821:
.Lfunc_end46:
	.seh_handlerdata
	.section	.text,"xr",one_only,_ZN3std3sys6common12thread_local4lazy21LazyKeyInner$LT$T$GT$10initialize17h725bec631fb0d8a3E
	.seh_endproc
	.section	.xdata,"dr",associative,_ZN3std3sys6common12thread_local4lazy21LazyKeyInner$LT$T$GT$10initialize17h725bec631fb0d8a3E
	.p2align	2, 0x0
$cppxdata$_ZN3std3sys6common12thread_local4lazy21LazyKeyInner$LT$T$GT$10initialize17h725bec631fb0d8a3E:
	.long	429065506
	.long	1
	.long	($stateUnwindMap$_ZN3std3sys6common12thread_local4lazy21LazyKeyInner$LT$T$GT$10initialize17h725bec631fb0d8a3E)@IMGREL
	.long	0
	.long	0
	.long	3
	.long	($ip2state$_ZN3std3sys6common12thread_local4lazy21LazyKeyInner$LT$T$GT$10initialize17h725bec631fb0d8a3E)@IMGREL
	.long	424
	.long	0
	.long	1
$stateUnwindMap$_ZN3std3sys6common12thread_local4lazy21LazyKeyInner$LT$T$GT$10initialize17h725bec631fb0d8a3E:
	.long	-1
	.long	"?dtor$1@?0?_ZN3std3sys6common12thread_local4lazy21LazyKeyInner$LT$T$GT$10initialize17h725bec631fb0d8a3E@4HA"@IMGREL
$ip2state$_ZN3std3sys6common12thread_local4lazy21LazyKeyInner$LT$T$GT$10initialize17h725bec631fb0d8a3E:
	.long	.Lfunc_begin46@IMGREL
	.long	-1
	.long	.Ltmp810@IMGREL+1
	.long	0
	.long	.Ltmp811@IMGREL+1
	.long	-1
	.section	.text,"xr",one_only,_ZN3std3sys6common12thread_local4lazy21LazyKeyInner$LT$T$GT$10initialize17h725bec631fb0d8a3E

	.def	_ZN3std6thread5local17LocalKey$LT$T$GT$8try_with17h3d7e386acf911b6bE;
	.scl	3;
	.type	32;
	.endef
	.section	.text,"xr",one_only,_ZN3std6thread5local17LocalKey$LT$T$GT$8try_with17h3d7e386acf911b6bE
	.p2align	4, 0x90
_ZN3std6thread5local17LocalKey$LT$T$GT$8try_with17h3d7e386acf911b6bE:
.Lfunc_begin47:
	.cv_func_id 254
	.cv_loc	254 27 264 0
.seh_proc _ZN3std6thread5local17LocalKey$LT$T$GT$8try_with17h3d7e386acf911b6bE
	.seh_handler __CxxFrameHandler3, @unwind, @except
	pushq	%rbp
	.seh_pushreg %rbp
	subq	$256, %rsp
	.seh_stackalloc 256
	leaq	128(%rsp), %rbp
	.seh_setframe %rbp, 128
	.seh_endprologue
	movq	$-2, 120(%rbp)
	movq	%rdx, -88(%rbp)
.Ltmp826:
	.cv_file	43 "C:\\Users\\cires\\.rustup\\toolchains\\nightly-x86_64-pc-windows-msvc\\lib\\rustlib\\src\\rust\\library\\core\\src\\convert\\mod.rs" "D53B12945D5A5652C66A0F41F2260EDB84241FD034176284DA7961F980C50FD5" 3
	.cv_inline_site_id 255 within 254 inlined_at 27 269 0
	.cv_inline_site_id 256 within 255 inlined_at 25 1959 0
	.cv_loc	256 43 766 0
	movq	%rcx, 88(%rbp)
.Ltmp827:
	.cv_loc	254 27 269 0
	movb	$1, 87(%rbp)
	movq	(%rcx), %rax
	movq	$0, -40(%rbp)
	movq	-40(%rbp), %rcx
.Ltmp822:
	callq	*%rax
.Ltmp828:
.Ltmp823:
	movq	%rax, -80(%rbp)
.Ltmp829:
	jmp	.LBB47_2
.Ltmp830:
.LBB47_2:
	movq	-80(%rbp), %rax
	movq	%rax, -48(%rbp)
.Ltmp831:
	.cv_inline_site_id 257 within 254 inlined_at 27 269 0
	.cv_loc	257 10 1201 0
	movq	-48(%rbp), %rax
	cmpq	$0, %rax
	sete	%al
	testb	$1, %al
	jne	.LBB47_3
	jmp	.LBB47_4
.Ltmp832:
.LBB47_3:
	.cv_loc	257 10 1203 0
	movq	$0, -56(%rbp)
	jmp	.LBB47_5
.Ltmp833:
.LBB47_4:
	.cv_loc	257 10 1202 0
	movq	-48(%rbp), %rax
	movq	%rax, 96(%rbp)
.Ltmp834:
	.cv_loc	257 10 1202 0
	movq	%rax, -56(%rbp)
.Ltmp835:
.LBB47_5:
	.cv_loc	257 25 1946 0
	movq	-56(%rbp), %rdx
	xorl	%eax, %eax
	movl	$1, %ecx
	cmpq	$0, %rdx
	cmoveq	%rcx, %rax
	cmpq	$0, %rax
	jne	.LBB47_7
.Ltmp836:
	.cv_loc	257 25 1947 0
	movq	-56(%rbp), %rax
	movq	%rax, 104(%rbp)
.Ltmp837:
	.cv_loc	257 25 1947 0
	movq	%rax, -64(%rbp)
.Ltmp838:
	.cv_loc	257 25 1947 0
	jmp	.LBB47_8
.Ltmp839:
.LBB47_7:
	.cv_loc	257 25 1948 0
	movq	$0, -64(%rbp)
.Ltmp840:
.LBB47_8:
	.cv_loc	254 27 269 0
	movq	-64(%rbp), %rdx
	xorl	%eax, %eax
	movl	$1, %ecx
	cmpq	$0, %rdx
	cmoveq	%rcx, %rax
	cmpq	$0, %rax
	jne	.LBB47_10
.Ltmp841:
	movq	-88(%rbp), %rcx
	movq	-64(%rbp), %rax
	movq	%rax, 112(%rbp)
.Ltmp842:
	.cv_loc	254 27 270 0
	movb	$0, 87(%rbp)
	movq	96(%rcx), %rdx
	movq	%rdx, 64(%rbp)
	vmovups	(%rcx), %ymm0
	vmovups	32(%rcx), %ymm1
	vmovups	64(%rcx), %ymm2
	vmovups	%ymm2, 32(%rbp)
	vmovups	%ymm1, (%rbp)
	vmovups	%ymm0, -32(%rbp)
	movq	%rax, 72(%rbp)
	movq	72(%rbp), %rdx
.Ltmp824:
	leaq	-32(%rbp), %rcx
	vzeroupper
	callq	_ZN10proc_macro6bridge6client10run_client28_$u7b$$u7b$closure$u7d$$u7d$28_$u7b$$u7b$closure$u7d$$u7d$17h0eb5c4d0b63d872fE
.Ltmp825:
	jmp	.LBB47_11
.Ltmp843:
.LBB47_10:
	.cv_loc	255 25 1959 0
	movq	-88(%rbp), %rcx
.Ltmp844:
	movb	$1, -65(%rbp)
.Ltmp845:
	.cv_loc	254 27 272 0
	callq	_ZN4core3ptr431drop_in_place$LT$proc_macro..bridge..client..run_client$LT$proc_macro..bridge..client..TokenStream$C$core..option..Option$LT$proc_macro..bridge..client..TokenStream$GT$$C$proc_macro..bridge..client..Client$LT$proc_macro..TokenStream$C$proc_macro..TokenStream$GT$..expand1$LT$applause_derive..make_answer$GT$..$u7b$$u7b$closure$u7d$$u7d$..$u7b$$u7b$closure$u7d$$u7d$$GT$..$u7b$$u7b$closure$u7d$$u7d$..$u7b$$u7b$closure$u7d$$u7d$$GT$17h4fc90ca81dcacf4aE
	jmp	.LBB47_12
.Ltmp846:
.LBB47_11:
	.cv_loc	254 27 270 0
	movb	$0, -65(%rbp)
.Ltmp847:
.LBB47_12:
	.cv_loc	254 27 272 0
	movb	-65(%rbp), %al
	andb	$1, %al
	movzbl	%al, %eax
	addq	$256, %rsp
	popq	%rbp
	retq
.Ltmp848:
	.seh_handlerdata
	.long	($cppxdata$_ZN3std6thread5local17LocalKey$LT$T$GT$8try_with17h3d7e386acf911b6bE)@IMGREL
	.section	.text,"xr",one_only,_ZN3std6thread5local17LocalKey$LT$T$GT$8try_with17h3d7e386acf911b6bE
	.seh_endproc
	.def	"?dtor$1@?0?_ZN3std6thread5local17LocalKey$LT$T$GT$8try_with17h3d7e386acf911b6bE@4HA";
	.scl	3;
	.type	32;
	.endef
	.p2align	4, 0x90
"?dtor$1@?0?_ZN3std6thread5local17LocalKey$LT$T$GT$8try_with17h3d7e386acf911b6bE@4HA":
.seh_proc "?dtor$1@?0?_ZN3std6thread5local17LocalKey$LT$T$GT$8try_with17h3d7e386acf911b6bE@4HA"
.LBB47_1:
	movq	%rdx, 16(%rsp)
	pushq	%rbp
	.seh_pushreg %rbp
	subq	$32, %rsp
	.seh_stackalloc 32
	leaq	128(%rdx), %rbp
.Ltmp849:
	.seh_endprologue
	testb	$1, 87(%rbp)
	jne	.LBB47_14
	jmp	.LBB47_13
.LBB47_13:
	.cv_loc	254 27 264 0
	addq	$32, %rsp
	popq	%rbp
	retq
.LBB47_14:
	.cv_loc	254 27 272 0
	movq	-88(%rbp), %rcx
	callq	_ZN4core3ptr431drop_in_place$LT$proc_macro..bridge..client..run_client$LT$proc_macro..bridge..client..TokenStream$C$core..option..Option$LT$proc_macro..bridge..client..TokenStream$GT$$C$proc_macro..bridge..client..Client$LT$proc_macro..TokenStream$C$proc_macro..TokenStream$GT$..expand1$LT$applause_derive..make_answer$GT$..$u7b$$u7b$closure$u7d$$u7d$..$u7b$$u7b$closure$u7d$$u7d$$GT$..$u7b$$u7b$closure$u7d$$u7d$..$u7b$$u7b$closure$u7d$$u7d$$GT$17h4fc90ca81dcacf4aE
	jmp	.LBB47_13
.Ltmp850:
.Lfunc_end47:
	.seh_handlerdata
	.section	.text,"xr",one_only,_ZN3std6thread5local17LocalKey$LT$T$GT$8try_with17h3d7e386acf911b6bE
	.seh_endproc
	.section	.xdata,"dr",associative,_ZN3std6thread5local17LocalKey$LT$T$GT$8try_with17h3d7e386acf911b6bE
	.p2align	2, 0x0
$cppxdata$_ZN3std6thread5local17LocalKey$LT$T$GT$8try_with17h3d7e386acf911b6bE:
	.long	429065506
	.long	1
	.long	($stateUnwindMap$_ZN3std6thread5local17LocalKey$LT$T$GT$8try_with17h3d7e386acf911b6bE)@IMGREL
	.long	0
	.long	0
	.long	3
	.long	($ip2state$_ZN3std6thread5local17LocalKey$LT$T$GT$8try_with17h3d7e386acf911b6bE)@IMGREL
	.long	248
	.long	0
	.long	1
$stateUnwindMap$_ZN3std6thread5local17LocalKey$LT$T$GT$8try_with17h3d7e386acf911b6bE:
	.long	-1
	.long	"?dtor$1@?0?_ZN3std6thread5local17LocalKey$LT$T$GT$8try_with17h3d7e386acf911b6bE@4HA"@IMGREL
$ip2state$_ZN3std6thread5local17LocalKey$LT$T$GT$8try_with17h3d7e386acf911b6bE:
	.long	.Lfunc_begin47@IMGREL
	.long	-1
	.long	.Ltmp822@IMGREL+1
	.long	0
	.long	.Ltmp825@IMGREL+1
	.long	-1
	.section	.text,"xr",one_only,_ZN3std6thread5local17LocalKey$LT$T$GT$8try_with17h3d7e386acf911b6bE

	.def	_ZN3std6thread5local17LocalKey$LT$T$GT$8try_with17ha21823a357cee5b2E;
	.scl	3;
	.type	32;
	.endef
	.section	.text,"xr",one_only,_ZN3std6thread5local17LocalKey$LT$T$GT$8try_with17ha21823a357cee5b2E
	.p2align	4, 0x90
_ZN3std6thread5local17LocalKey$LT$T$GT$8try_with17ha21823a357cee5b2E:
.Lfunc_begin48:
	.cv_func_id 258
	.cv_loc	258 27 264 0
.seh_proc _ZN3std6thread5local17LocalKey$LT$T$GT$8try_with17ha21823a357cee5b2E
	.seh_handler __CxxFrameHandler3, @unwind, @except
	pushq	%rbp
	.seh_pushreg %rbp
	subq	$192, %rsp
	.seh_stackalloc 192
	leaq	128(%rsp), %rbp
	.seh_setframe %rbp, 128
	.seh_endprologue
	movq	$-2, 56(%rbp)
	movq	%rcx, -88(%rbp)
	movq	%rcx, -80(%rbp)
.Ltmp855:
	.cv_inline_site_id 259 within 258 inlined_at 27 269 0
	.cv_inline_site_id 260 within 259 inlined_at 25 1959 0
	.cv_loc	260 43 766 0
	movq	%rdx, 24(%rbp)
.Ltmp856:
	.cv_loc	258 27 269 0
	movb	$1, 23(%rbp)
	movq	(%rdx), %rax
	movq	$0, -40(%rbp)
	movq	-40(%rbp), %rcx
.Ltmp851:
	callq	*%rax
.Ltmp852:
	movq	%rax, -72(%rbp)
	jmp	.LBB48_2
.LBB48_2:
	movq	-72(%rbp), %rax
	movq	%rax, -48(%rbp)
.Ltmp857:
	.cv_inline_site_id 261 within 258 inlined_at 27 269 0
	.cv_loc	261 10 1201 0
	movq	-48(%rbp), %rax
	cmpq	$0, %rax
	sete	%al
	testb	$1, %al
	jne	.LBB48_3
	jmp	.LBB48_4
.LBB48_3:
	.cv_loc	261 10 1203 0
	movq	$0, -56(%rbp)
	jmp	.LBB48_5
.LBB48_4:
	.cv_loc	261 10 1202 0
	movq	-48(%rbp), %rax
	movq	%rax, 32(%rbp)
.Ltmp858:
	.cv_loc	261 10 1202 0
	movq	%rax, -56(%rbp)
.Ltmp859:
.LBB48_5:
	.cv_loc	261 25 1946 0
	movq	-56(%rbp), %rdx
	xorl	%eax, %eax
	movl	$1, %ecx
	cmpq	$0, %rdx
	cmoveq	%rcx, %rax
	cmpq	$0, %rax
	jne	.LBB48_7
	.cv_loc	261 25 1947 0
	movq	-56(%rbp), %rax
	movq	%rax, 40(%rbp)
.Ltmp860:
	.cv_loc	261 25 1947 0
	movq	%rax, -64(%rbp)
.Ltmp861:
	.cv_loc	261 25 1947 0
	jmp	.LBB48_8
.LBB48_7:
.Ltmp862:
	.cv_loc	261 25 1948 0
	movq	$0, -64(%rbp)
.Ltmp863:
.LBB48_8:
	.cv_loc	258 27 269 0
	movq	-64(%rbp), %rdx
	xorl	%eax, %eax
	movl	$1, %ecx
	cmpq	$0, %rdx
	cmoveq	%rcx, %rax
	cmpq	$0, %rax
	jne	.LBB48_10
	movq	-64(%rbp), %rax
	movq	%rax, 48(%rbp)
.Ltmp864:
	.cv_loc	258 27 270 0
	movb	$0, 23(%rbp)
	movq	%rax, 8(%rbp)
	movq	8(%rbp), %rdx
.Ltmp853:
	leaq	-32(%rbp), %rcx
	callq	_ZN10proc_macro6bridge6client11BridgeState4with28_$u7b$$u7b$closure$u7d$$u7d$17hb38fedd064393833E
.Ltmp854:
	jmp	.LBB48_11
.Ltmp865:
.LBB48_10:
	.cv_loc	259 25 1959 0
	movq	-88(%rbp), %rax
.Ltmp866:
	movq	$0, 32(%rax)
.Ltmp867:
	.cv_loc	258 27 272 0
	jmp	.LBB48_12
.LBB48_11:
	.cv_loc	258 27 270 0
	movq	-88(%rbp), %rcx
.Ltmp868:
	leaq	-32(%rbp), %rdx
	movl	$40, %r8d
	callq	memcpy
.Ltmp869:
.LBB48_12:
	.cv_loc	258 27 272 0
	movq	-80(%rbp), %rax
	addq	$192, %rsp
	popq	%rbp
	retq
	.seh_handlerdata
	.long	($cppxdata$_ZN3std6thread5local17LocalKey$LT$T$GT$8try_with17ha21823a357cee5b2E)@IMGREL
	.section	.text,"xr",one_only,_ZN3std6thread5local17LocalKey$LT$T$GT$8try_with17ha21823a357cee5b2E
	.seh_endproc
	.def	"?dtor$1@?0?_ZN3std6thread5local17LocalKey$LT$T$GT$8try_with17ha21823a357cee5b2E@4HA";
	.scl	3;
	.type	32;
	.endef
	.p2align	4, 0x90
"?dtor$1@?0?_ZN3std6thread5local17LocalKey$LT$T$GT$8try_with17ha21823a357cee5b2E@4HA":
.seh_proc "?dtor$1@?0?_ZN3std6thread5local17LocalKey$LT$T$GT$8try_with17ha21823a357cee5b2E@4HA"
.LBB48_1:
	movq	%rdx, 16(%rsp)
	pushq	%rbp
	.seh_pushreg %rbp
	subq	$32, %rsp
	.seh_stackalloc 32
	leaq	128(%rdx), %rbp
	.seh_endprologue
	testb	$1, 23(%rbp)
	jne	.LBB48_14
	jmp	.LBB48_13
.LBB48_13:
	.cv_loc	258 27 264 0
	addq	$32, %rsp
	popq	%rbp
	retq
.LBB48_14:
	.cv_loc	258 27 272 0
	jmp	.LBB48_13
.Ltmp870:
.Lfunc_end48:
	.seh_handlerdata
	.section	.text,"xr",one_only,_ZN3std6thread5local17LocalKey$LT$T$GT$8try_with17ha21823a357cee5b2E
	.seh_endproc
	.section	.xdata,"dr",associative,_ZN3std6thread5local17LocalKey$LT$T$GT$8try_with17ha21823a357cee5b2E
	.p2align	2, 0x0
$cppxdata$_ZN3std6thread5local17LocalKey$LT$T$GT$8try_with17ha21823a357cee5b2E:
	.long	429065506
	.long	1
	.long	($stateUnwindMap$_ZN3std6thread5local17LocalKey$LT$T$GT$8try_with17ha21823a357cee5b2E)@IMGREL
	.long	0
	.long	0
	.long	3
	.long	($ip2state$_ZN3std6thread5local17LocalKey$LT$T$GT$8try_with17ha21823a357cee5b2E)@IMGREL
	.long	184
	.long	0
	.long	1
$stateUnwindMap$_ZN3std6thread5local17LocalKey$LT$T$GT$8try_with17ha21823a357cee5b2E:
	.long	-1
	.long	"?dtor$1@?0?_ZN3std6thread5local17LocalKey$LT$T$GT$8try_with17ha21823a357cee5b2E@4HA"@IMGREL
$ip2state$_ZN3std6thread5local17LocalKey$LT$T$GT$8try_with17ha21823a357cee5b2E:
	.long	.Lfunc_begin48@IMGREL
	.long	-1
	.long	.Ltmp851@IMGREL+1
	.long	0
	.long	.Ltmp854@IMGREL+1
	.long	-1
	.section	.text,"xr",one_only,_ZN3std6thread5local17LocalKey$LT$T$GT$8try_with17ha21823a357cee5b2E

	.def	_ZN3std9panicking3try17h09c407650a340eb3E;
	.scl	3;
	.type	32;
	.endef
	.section	.text,"xr",one_only,_ZN3std9panicking3try17h09c407650a340eb3E
	.p2align	4, 0x90
_ZN3std9panicking3try17h09c407650a340eb3E:
.Lfunc_begin49:
	.cv_func_id 262
	.cv_file	44 "C:\\Users\\cires\\.rustup\\toolchains\\nightly-x86_64-pc-windows-msvc\\lib\\rustlib\\src\\rust\\library\\std\\src\\panicking.rs" "AC303C9861D0D0DE4343E16AEBE608AE30EB7979F0D8AF1D0AC2F19A7B25576E" 3
	.cv_loc	262 44 472 0
.seh_proc _ZN3std9panicking3try17h09c407650a340eb3E
	subq	$120, %rsp
	.seh_stackalloc 120
	.seh_endprologue
	movq	%rcx, 72(%rsp)
.Ltmp871:
	.cv_file	45 "C:\\Users\\cires\\.rustup\\toolchains\\nightly-x86_64-pc-windows-msvc\\lib\\rustlib\\src\\rust\\library\\core\\src\\mem\\manually_drop.rs" "6ECBA1E3233A1DD055A8D136CDB92D1A823F33340C5243B8DB36969E1DDBDD46" 3
	.cv_inline_site_id 263 within 262 inlined_at 44 503 0
	.cv_loc	263 45 71 0
	movq	%rcx, 64(%rsp)
.Ltmp872:
	.cv_loc	262 44 503 0
	movq	64(%rsp), %rax
	movq	%rax, 48(%rsp)
.Ltmp873:
	.cv_loc	262 44 505 0
	leaq	48(%rsp), %rax
	movq	%rax, 88(%rsp)
.Ltmp874:
	.cv_loc	262 44 516 0
	leaq	_ZN3std9panicking3try7do_call17h9da1fb7aca803c2bE(%rip), %rcx
	leaq	48(%rsp), %rdx
	leaq	_ZN3std9panicking3try8do_catch17h792d10efc8aaf870E(%rip), %r8
	callq	__rust_try
	movl	%eax, 100(%rsp)
	cmpl	$0, 100(%rsp)
	jne	.LBB49_2
	.cv_loc	262 44 517 0
	movq	$0, 32(%rsp)
	.cv_loc	262 44 516 0
	jmp	.LBB49_3
.LBB49_2:
	.cv_loc	262 44 519 0
	movq	48(%rsp), %rcx
	movq	56(%rsp), %rax
	movq	%rcx, 104(%rsp)
	movq	%rax, 112(%rsp)
	movq	%rcx, 32(%rsp)
	movq	%rax, 40(%rsp)
.Ltmp875:
.LBB49_3:
	.cv_loc	262 44 582 0
	movq	32(%rsp), %rax
	movq	40(%rsp), %rdx
	addq	$120, %rsp
	retq
.Ltmp876:
.Lfunc_end49:
	.seh_endproc

	.def	_ZN3std9panicking3try17h82ccaa1d9d0bf28aE;
	.scl	3;
	.type	32;
	.endef
	.section	.text,"xr",one_only,_ZN3std9panicking3try17h82ccaa1d9d0bf28aE
	.p2align	4, 0x90
_ZN3std9panicking3try17h82ccaa1d9d0bf28aE:
.Lfunc_begin50:
	.cv_func_id 264
	.cv_loc	264 44 472 0
.seh_proc _ZN3std9panicking3try17h82ccaa1d9d0bf28aE
	subq	$168, %rsp
	.seh_stackalloc 168
	.seh_endprologue
	movq	%rcx, %rdx
.Ltmp877:
	.cv_inline_site_id 265 within 264 inlined_at 44 503 0
	.cv_loc	265 45 71 0
	leaq	88(%rsp), %rcx
	movl	$40, %r8d
	callq	memcpy
.Ltmp878:
	.cv_loc	264 44 503 0
	leaq	48(%rsp), %rcx
	leaq	88(%rsp), %rdx
	movl	$40, %r8d
	callq	memcpy
.Ltmp879:
	.cv_loc	264 44 505 0
	leaq	48(%rsp), %rax
	movq	%rax, 136(%rsp)
.Ltmp880:
	.cv_loc	264 44 516 0
	leaq	_ZN3std9panicking3try7do_call17h299118a952575209E(%rip), %rcx
	leaq	48(%rsp), %rdx
	leaq	_ZN3std9panicking3try8do_catch17h5caa85c8e282ebcbE(%rip), %r8
	callq	__rust_try
	movl	%eax, 148(%rsp)
	cmpl	$0, 148(%rsp)
	jne	.LBB50_2
	.cv_loc	264 44 517 0
	movq	$0, 32(%rsp)
	.cv_loc	264 44 516 0
	jmp	.LBB50_3
.LBB50_2:
	.cv_loc	264 44 519 0
	movq	48(%rsp), %rcx
	movq	56(%rsp), %rax
	movq	%rcx, 152(%rsp)
	movq	%rax, 160(%rsp)
	movq	%rcx, 32(%rsp)
	movq	%rax, 40(%rsp)
.Ltmp881:
.LBB50_3:
	.cv_loc	264 44 582 0
	movq	32(%rsp), %rax
	movq	40(%rsp), %rdx
	addq	$168, %rsp
	retq
.Ltmp882:
.Lfunc_end50:
	.seh_endproc

	.def	_ZN3std9panicking3try7do_call17h299118a952575209E;
	.scl	3;
	.type	32;
	.endef
	.section	.text,"xr",one_only,_ZN3std9panicking3try7do_call17h299118a952575209E
	.p2align	4, 0x90
_ZN3std9panicking3try7do_call17h299118a952575209E:
.Lfunc_begin51:
	.cv_func_id 266
	.cv_loc	266 44 546 0
.seh_proc _ZN3std9panicking3try7do_call17h299118a952575209E
	subq	$120, %rsp
	.seh_stackalloc 120
	.seh_endprologue
	movq	%rcx, %rdx
	movq	%rdx, 80(%rsp)
.Ltmp883:
	.cv_loc	266 44 549 0
	movq	%rdx, 96(%rsp)
.Ltmp884:
	.cv_loc	266 44 551 0
	movq	%rdx, 104(%rsp)
.Ltmp885:
	.cv_inline_site_id 267 within 266 inlined_at 44 551 0
	.cv_loc	267 45 113 0
	movq	%rdx, 112(%rsp)
.Ltmp886:
	.cv_inline_site_id 268 within 267 inlined_at 45 113 0
	.cv_loc	268 8 1215 0
	leaq	40(%rsp), %rcx
	movl	$40, %r8d
	callq	memcpy
.Ltmp887:
	.cv_loc	266 44 552 0
	leaq	40(%rsp), %rcx
	callq	_ZN115_$LT$core..panic..unwind_safe..AssertUnwindSafe$LT$F$GT$$u20$as$u20$core..ops..function..FnOnce$LT$$LP$$RP$$GT$$GT$9call_once17hfd406be2e2253087E
.Ltmp888:
	.cv_loc	266 44 554 0
	nop
	addq	$120, %rsp
	retq
.Ltmp889:
.Lfunc_end51:
	.seh_endproc

	.def	_ZN3std9panicking3try7do_call17h9da1fb7aca803c2bE;
	.scl	3;
	.type	32;
	.endef
	.section	.text,"xr",one_only,_ZN3std9panicking3try7do_call17h9da1fb7aca803c2bE
	.p2align	4, 0x90
_ZN3std9panicking3try7do_call17h9da1fb7aca803c2bE:
.Lfunc_begin52:
	.cv_func_id 269
	.cv_loc	269 44 546 0
.seh_proc _ZN3std9panicking3try7do_call17h9da1fb7aca803c2bE
	subq	$88, %rsp
	.seh_stackalloc 88
	.seh_endprologue
	movq	%rcx, 40(%rsp)
.Ltmp890:
	.cv_loc	269 44 549 0
	movq	%rcx, 56(%rsp)
.Ltmp891:
	.cv_loc	269 44 551 0
	movq	%rcx, 64(%rsp)
.Ltmp892:
	.cv_inline_site_id 270 within 269 inlined_at 44 551 0
	.cv_loc	270 45 113 0
	movq	%rcx, 72(%rsp)
.Ltmp893:
	.cv_inline_site_id 271 within 270 inlined_at 45 113 0
	.cv_loc	271 8 1215 0
	movq	(%rcx), %rcx
	movq	%rcx, 80(%rsp)
.Ltmp894:
	.cv_loc	269 44 552 0
	callq	_ZN115_$LT$core..panic..unwind_safe..AssertUnwindSafe$LT$F$GT$$u20$as$u20$core..ops..function..FnOnce$LT$$LP$$RP$$GT$$GT$9call_once17hcd8e65880c8a50bcE
.Ltmp895:
	.cv_loc	269 44 554 0
	nop
	addq	$88, %rsp
	retq
.Ltmp896:
.Lfunc_end52:
	.seh_endproc

	.def	_ZN3std9panicking3try8do_catch17h5caa85c8e282ebcbE;
	.scl	3;
	.type	32;
	.endef
	.section	.text,"xr",one_only,_ZN3std9panicking3try8do_catch17h5caa85c8e282ebcbE
	.p2align	4, 0x90
_ZN3std9panicking3try8do_catch17h5caa85c8e282ebcbE:
.Lfunc_begin53:
	.cv_func_id 272
	.cv_loc	272 44 569 0
.seh_proc _ZN3std9panicking3try8do_catch17h5caa85c8e282ebcbE
	.seh_handler __CxxFrameHandler3, @unwind, @except
	pushq	%rbp
	.seh_pushreg %rbp
	subq	$128, %rsp
	.seh_stackalloc 128
	leaq	128(%rsp), %rbp
	.seh_setframe %rbp, 128
	.seh_endprologue
	movq	$-2, -8(%rbp)
	movq	%rdx, -96(%rbp)
	movq	%rcx, %rax
	movq	-96(%rbp), %rcx
	movq	%rax, -88(%rbp)
	movq	%rax, -48(%rbp)
	movq	%rcx, -40(%rbp)
.Ltmp899:
	.cv_loc	272 44 576 0
	movq	%rax, -32(%rbp)
	.cv_loc	272 44 578 0
.Ltmp897:
.Ltmp900:
	callq	_ZN3std9panicking3try7cleanup17h059e2575766b5663E
.Ltmp898:
	movq	%rdx, -80(%rbp)
	movq	%rax, -72(%rbp)
	jmp	.LBB53_2
.LBB53_2:
	movq	-88(%rbp), %rax
	movq	-80(%rbp), %rcx
	movq	-72(%rbp), %rdx
	movq	%rdx, -24(%rbp)
	movq	%rcx, -16(%rbp)
.Ltmp901:
	.cv_inline_site_id 273 within 272 inlined_at 44 579 0
	.cv_loc	273 45 71 0
	movq	%rdx, -64(%rbp)
	movq	%rcx, -56(%rbp)
.Ltmp902:
	.cv_loc	272 44 579 0
	movq	-64(%rbp), %rdx
	movq	-56(%rbp), %rcx
	movq	%rdx, (%rax)
	movq	%rcx, 8(%rax)
.Ltmp903:
	.cv_loc	272 44 581 0
	addq	$128, %rsp
	popq	%rbp
	retq
	.seh_handlerdata
	.long	($cppxdata$_ZN3std9panicking3try8do_catch17h5caa85c8e282ebcbE)@IMGREL
	.section	.text,"xr",one_only,_ZN3std9panicking3try8do_catch17h5caa85c8e282ebcbE
	.seh_endproc
	.def	"?catch$1@?0?_ZN3std9panicking3try8do_catch17h5caa85c8e282ebcbE@4HA";
	.scl	3;
	.type	32;
	.endef
	.p2align	4, 0x90
"?catch$1@?0?_ZN3std9panicking3try8do_catch17h5caa85c8e282ebcbE@4HA":
.seh_proc "?catch$1@?0?_ZN3std9panicking3try8do_catch17h5caa85c8e282ebcbE@4HA"
	.seh_handler __CxxFrameHandler3, @unwind, @except
.LBB53_1:
	movq	%rdx, 16(%rsp)
	pushq	%rbp
	.seh_pushreg %rbp
	subq	$32, %rsp
	.seh_stackalloc 32
	leaq	128(%rdx), %rbp
	.seh_endprologue
	.cv_loc	272 44 569 0
	callq	_ZN4core9panicking19panic_cannot_unwind17h49d978f716c1f361E
	int3
.Ltmp904:
.Lfunc_end53:
	.seh_handlerdata
	.long	($cppxdata$_ZN3std9panicking3try8do_catch17h5caa85c8e282ebcbE)@IMGREL
	.section	.text,"xr",one_only,_ZN3std9panicking3try8do_catch17h5caa85c8e282ebcbE
	.seh_endproc
	.section	.xdata,"dr",associative,_ZN3std9panicking3try8do_catch17h5caa85c8e282ebcbE
	.p2align	2, 0x0
$cppxdata$_ZN3std9panicking3try8do_catch17h5caa85c8e282ebcbE:
	.long	429065506
	.long	2
	.long	($stateUnwindMap$_ZN3std9panicking3try8do_catch17h5caa85c8e282ebcbE)@IMGREL
	.long	1
	.long	($tryMap$_ZN3std9panicking3try8do_catch17h5caa85c8e282ebcbE)@IMGREL
	.long	4
	.long	($ip2state$_ZN3std9panicking3try8do_catch17h5caa85c8e282ebcbE)@IMGREL
	.long	120
	.long	0
	.long	1
$stateUnwindMap$_ZN3std9panicking3try8do_catch17h5caa85c8e282ebcbE:
	.long	-1
	.long	0
	.long	-1
	.long	0
$tryMap$_ZN3std9panicking3try8do_catch17h5caa85c8e282ebcbE:
	.long	0
	.long	0
	.long	1
	.long	1
	.long	($handlerMap$0$_ZN3std9panicking3try8do_catch17h5caa85c8e282ebcbE)@IMGREL
$handlerMap$0$_ZN3std9panicking3try8do_catch17h5caa85c8e282ebcbE:
	.long	64
	.long	0
	.long	0
	.long	"?catch$1@?0?_ZN3std9panicking3try8do_catch17h5caa85c8e282ebcbE@4HA"@IMGREL
	.long	56
$ip2state$_ZN3std9panicking3try8do_catch17h5caa85c8e282ebcbE:
	.long	.Lfunc_begin53@IMGREL
	.long	-1
	.long	.Ltmp897@IMGREL+1
	.long	0
	.long	.Ltmp898@IMGREL+1
	.long	-1
	.long	"?catch$1@?0?_ZN3std9panicking3try8do_catch17h5caa85c8e282ebcbE@4HA"@IMGREL
	.long	1
	.section	.text,"xr",one_only,_ZN3std9panicking3try8do_catch17h5caa85c8e282ebcbE

	.def	_ZN3std9panicking3try8do_catch17h792d10efc8aaf870E;
	.scl	3;
	.type	32;
	.endef
	.section	.text,"xr",one_only,_ZN3std9panicking3try8do_catch17h792d10efc8aaf870E
	.p2align	4, 0x90
_ZN3std9panicking3try8do_catch17h792d10efc8aaf870E:
.Lfunc_begin54:
	.cv_func_id 274
	.cv_loc	274 44 569 0
.seh_proc _ZN3std9panicking3try8do_catch17h792d10efc8aaf870E
	.seh_handler __CxxFrameHandler3, @unwind, @except
	pushq	%rbp
	.seh_pushreg %rbp
	subq	$128, %rsp
	.seh_stackalloc 128
	leaq	128(%rsp), %rbp
	.seh_setframe %rbp, 128
	.seh_endprologue
	movq	$-2, -8(%rbp)
	movq	%rdx, -96(%rbp)
	movq	%rcx, %rax
	movq	-96(%rbp), %rcx
	movq	%rax, -88(%rbp)
	movq	%rax, -48(%rbp)
	movq	%rcx, -40(%rbp)
.Ltmp907:
	.cv_loc	274 44 576 0
	movq	%rax, -32(%rbp)
	.cv_loc	274 44 578 0
.Ltmp905:
.Ltmp908:
	callq	_ZN3std9panicking3try7cleanup17h059e2575766b5663E
.Ltmp906:
	movq	%rdx, -80(%rbp)
	movq	%rax, -72(%rbp)
	jmp	.LBB54_2
.LBB54_2:
	movq	-88(%rbp), %rax
	movq	-80(%rbp), %rcx
	movq	-72(%rbp), %rdx
	movq	%rdx, -24(%rbp)
	movq	%rcx, -16(%rbp)
.Ltmp909:
	.cv_inline_site_id 275 within 274 inlined_at 44 579 0
	.cv_loc	275 45 71 0
	movq	%rdx, -64(%rbp)
	movq	%rcx, -56(%rbp)
.Ltmp910:
	.cv_loc	274 44 579 0
	movq	-64(%rbp), %rdx
	movq	-56(%rbp), %rcx
	movq	%rdx, (%rax)
	movq	%rcx, 8(%rax)
.Ltmp911:
	.cv_loc	274 44 581 0
	addq	$128, %rsp
	popq	%rbp
	retq
	.seh_handlerdata
	.long	($cppxdata$_ZN3std9panicking3try8do_catch17h792d10efc8aaf870E)@IMGREL
	.section	.text,"xr",one_only,_ZN3std9panicking3try8do_catch17h792d10efc8aaf870E
	.seh_endproc
	.def	"?catch$1@?0?_ZN3std9panicking3try8do_catch17h792d10efc8aaf870E@4HA";
	.scl	3;
	.type	32;
	.endef
	.p2align	4, 0x90
"?catch$1@?0?_ZN3std9panicking3try8do_catch17h792d10efc8aaf870E@4HA":
.seh_proc "?catch$1@?0?_ZN3std9panicking3try8do_catch17h792d10efc8aaf870E@4HA"
	.seh_handler __CxxFrameHandler3, @unwind, @except
.LBB54_1:
	movq	%rdx, 16(%rsp)
	pushq	%rbp
	.seh_pushreg %rbp
	subq	$32, %rsp
	.seh_stackalloc 32
	leaq	128(%rdx), %rbp
	.seh_endprologue
	.cv_loc	274 44 569 0
	callq	_ZN4core9panicking19panic_cannot_unwind17h49d978f716c1f361E
	int3
.Ltmp912:
.Lfunc_end54:
	.seh_handlerdata
	.long	($cppxdata$_ZN3std9panicking3try8do_catch17h792d10efc8aaf870E)@IMGREL
	.section	.text,"xr",one_only,_ZN3std9panicking3try8do_catch17h792d10efc8aaf870E
	.seh_endproc
	.section	.xdata,"dr",associative,_ZN3std9panicking3try8do_catch17h792d10efc8aaf870E
	.p2align	2, 0x0
$cppxdata$_ZN3std9panicking3try8do_catch17h792d10efc8aaf870E:
	.long	429065506
	.long	2
	.long	($stateUnwindMap$_ZN3std9panicking3try8do_catch17h792d10efc8aaf870E)@IMGREL
	.long	1
	.long	($tryMap$_ZN3std9panicking3try8do_catch17h792d10efc8aaf870E)@IMGREL
	.long	4
	.long	($ip2state$_ZN3std9panicking3try8do_catch17h792d10efc8aaf870E)@IMGREL
	.long	120
	.long	0
	.long	1
$stateUnwindMap$_ZN3std9panicking3try8do_catch17h792d10efc8aaf870E:
	.long	-1
	.long	0
	.long	-1
	.long	0
$tryMap$_ZN3std9panicking3try8do_catch17h792d10efc8aaf870E:
	.long	0
	.long	0
	.long	1
	.long	1
	.long	($handlerMap$0$_ZN3std9panicking3try8do_catch17h792d10efc8aaf870E)@IMGREL
$handlerMap$0$_ZN3std9panicking3try8do_catch17h792d10efc8aaf870E:
	.long	64
	.long	0
	.long	0
	.long	"?catch$1@?0?_ZN3std9panicking3try8do_catch17h792d10efc8aaf870E@4HA"@IMGREL
	.long	56
$ip2state$_ZN3std9panicking3try8do_catch17h792d10efc8aaf870E:
	.long	.Lfunc_begin54@IMGREL
	.long	-1
	.long	.Ltmp905@IMGREL+1
	.long	0
	.long	.Ltmp906@IMGREL+1
	.long	-1
	.long	"?catch$1@?0?_ZN3std9panicking3try8do_catch17h792d10efc8aaf870E@4HA"@IMGREL
	.long	1
	.section	.text,"xr",one_only,_ZN3std9panicking3try8do_catch17h792d10efc8aaf870E

	.def	_ZN4core3fmt5Write10write_char17h06881b4af6d5b6a0E;
	.scl	3;
	.type	32;
	.endef
	.section	.text,"xr",one_only,_ZN4core3fmt5Write10write_char17h06881b4af6d5b6a0E
	.p2align	4, 0x90
_ZN4core3fmt5Write10write_char17h06881b4af6d5b6a0E:
.Lfunc_begin55:
	.cv_func_id 276
	.cv_loc	276 29 166 0
.seh_proc _ZN4core3fmt5Write10write_char17h06881b4af6d5b6a0E
	subq	$120, %rsp
	.seh_stackalloc 120
	.seh_endprologue
	movl	%edx, 44(%rsp)
	movq	%rcx, 48(%rsp)
	movq	%rcx, 72(%rsp)
	movl	%edx, 84(%rsp)
.Ltmp913:
	.cv_loc	276 29 167 0
	leaq	68(%rsp), %rcx
	xorl	%edx, %edx
	movl	$4, %r8d
	callq	memset
	movl	44(%rsp), %ecx
	leaq	68(%rsp), %rax
	movq	%rax, 88(%rsp)
	movq	$4, 96(%rsp)
.Ltmp914:
	.cv_file	46 "C:\\Users\\cires\\.rustup\\toolchains\\nightly-x86_64-pc-windows-msvc\\lib\\rustlib\\src\\rust\\library\\core\\src\\char\\methods.rs" "0934F89224336A809BF672711623884161E7EC00CE88BD06E4C305ED39CD1291" 3
	.cv_inline_site_id 277 within 276 inlined_at 29 167 0
	.cv_loc	277 46 682 0
	leaq	68(%rsp), %rdx
	movl	$4, %r8d
	callq	_ZN4core4char7methods15encode_utf8_raw17hb56cd654bb6e1161E
	movq	48(%rsp), %rcx
	movq	%rax, 56(%rsp)
	movq	%rdx, %r8
	movq	56(%rsp), %rdx
	movq	%rdx, 104(%rsp)
	movq	%r8, 112(%rsp)
.Ltmp915:
	.cv_loc	276 29 167 0
	callq	_ZN80_$LT$std..io..Write..write_fmt..Adapter$LT$T$GT$$u20$as$u20$core..fmt..Write$GT$9write_str17hb0a363736bd668a5E
	.cv_loc	276 29 168 0
	andb	$1, %al
	movzbl	%al, %eax
	addq	$120, %rsp
	retq
.Ltmp916:
.Lfunc_end55:
	.seh_endproc

	.def	_ZN4core3fmt5Write9write_fmt17h72df2b2433f2f887E;
	.scl	3;
	.type	32;
	.endef
	.section	.text,"xr",one_only,_ZN4core3fmt5Write9write_fmt17h72df2b2433f2f887E
	.p2align	4, 0x90
_ZN4core3fmt5Write9write_fmt17h72df2b2433f2f887E:
.Lfunc_begin56:
	.cv_func_id 278
	.cv_loc	278 29 194 0
.seh_proc _ZN4core3fmt5Write9write_fmt17h72df2b2433f2f887E
	subq	$40, %rsp
	.seh_stackalloc 40
	.seh_endprologue
	movq	%rcx, 32(%rsp)
.Ltmp917:
	.cv_loc	278 29 215 0
	callq	_ZN75_$LT$$RF$mut$u20$W$u20$as$u20$core..fmt..Write..write_fmt..SpecWriteFmt$GT$14spec_write_fmt17h64deb1134ed041f4E
.Ltmp918:
	.cv_loc	278 29 216 0
	andb	$1, %al
	movzbl	%al, %eax
	addq	$40, %rsp
	retq
.Ltmp919:
.Lfunc_end56:
	.seh_endproc

	.def	_ZN4core3fmt9Arguments6new_v117h2ae926d6c76207a8E;
	.scl	3;
	.type	32;
	.endef
	.section	.text,"xr",one_only,_ZN4core3fmt9Arguments6new_v117h2ae926d6c76207a8E
	.p2align	4, 0x90
_ZN4core3fmt9Arguments6new_v117h2ae926d6c76207a8E:
.Lfunc_begin57:
	.cv_func_id 279
	.cv_loc	279 29 331 0
.seh_proc _ZN4core3fmt9Arguments6new_v117h2ae926d6c76207a8E
	subq	$216, %rsp
	.seh_stackalloc 216
	.seh_endprologue
	movq	%r9, 40(%rsp)
	movq	%r8, 48(%rsp)
	movq	%rdx, 56(%rsp)
	movq	%rcx, 64(%rsp)
	movq	%rcx, 72(%rsp)
	movq	256(%rsp), %rax
	movq	%rax, 80(%rsp)
	movq	%rdx, 168(%rsp)
	movq	%r8, 176(%rsp)
	movq	%r9, 184(%rsp)
	movq	%rax, 192(%rsp)
.Ltmp920:
	.cv_loc	279 29 332 0
	cmpq	%rax, %r8
	jb	.LBB57_2
	movq	48(%rsp), %rax
	movq	80(%rsp), %rcx
	addq	$1, %rcx
	cmpq	%rcx, %rax
	ja	.LBB57_4
	jmp	.LBB57_3
.LBB57_2:
	jmp	.LBB57_4
.LBB57_3:
	.cv_loc	279 29 335 0
	movq	72(%rsp), %rax
	movq	64(%rsp), %rcx
	movq	80(%rsp), %rdx
	movq	40(%rsp), %r8
	movq	48(%rsp), %r9
	movq	56(%rsp), %r10
	movq	$0, 136(%rsp)
	movq	%r10, (%rcx)
	movq	%r9, 8(%rcx)
	movq	136(%rsp), %r10
	movq	144(%rsp), %r9
	movq	%r10, 32(%rcx)
	movq	%r9, 40(%rcx)
	movq	%r8, 16(%rcx)
	movq	%rdx, 24(%rcx)
	.cv_loc	279 29 336 0
	addq	$216, %rsp
	retq
.LBB57_4:
	.cv_loc	279 29 333 0
	leaq	__unnamed_21(%rip), %rax
	movq	%rax, 200(%rsp)
	movq	$1, 208(%rsp)
.Ltmp921:
	.cv_inline_site_id 280 within 279 inlined_at 30 106 0
	.cv_loc	280 29 325 0
	movq	$0, 152(%rsp)
	movq	%rax, 88(%rsp)
	movq	$1, 96(%rsp)
	movq	152(%rsp), %rcx
	movq	160(%rsp), %rax
	movq	%rcx, 120(%rsp)
	movq	%rax, 128(%rsp)
	leaq	__unnamed_8(%rip), %rax
	movq	%rax, 104(%rsp)
	movq	$0, 112(%rsp)
.Ltmp922:
	.cv_loc	279 29 333 0
	leaq	__unnamed_22(%rip), %rdx
	leaq	88(%rsp), %rcx
	callq	_ZN4core9panicking9panic_fmt17hdbb75bebc22f3408E
	int3
.Ltmp923:
.Lfunc_end57:
	.seh_endproc

	.def	_ZN4core3fmt9Arguments9new_const17hc9f7bd15db16c494E;
	.scl	3;
	.type	32;
	.endef
	.section	.text,"xr",one_only,_ZN4core3fmt9Arguments9new_const17hc9f7bd15db16c494E
	.p2align	4, 0x90
_ZN4core3fmt9Arguments9new_const17hc9f7bd15db16c494E:
.Lfunc_begin58:
	.cv_func_id 281
	.cv_loc	281 29 321 0
.seh_proc _ZN4core3fmt9Arguments9new_const17hc9f7bd15db16c494E
	subq	$152, %rsp
	.seh_stackalloc 152
	.seh_endprologue
	movq	%r8, 40(%rsp)
	movq	%rdx, 48(%rsp)
	movq	%rcx, 56(%rsp)
	movq	%rcx, 64(%rsp)
	movq	%rdx, 136(%rsp)
	movq	%r8, 144(%rsp)
.Ltmp924:
	.cv_loc	281 29 322 0
	cmpq	$1, %r8
	ja	.LBB58_2
	.cv_loc	281 29 325 0
	movq	64(%rsp), %rax
	movq	56(%rsp), %rcx
	movq	40(%rsp), %rdx
	movq	48(%rsp), %r8
	movq	$0, 120(%rsp)
	movq	%r8, (%rcx)
	movq	%rdx, 8(%rcx)
	movq	120(%rsp), %r8
	movq	128(%rsp), %rdx
	movq	%r8, 32(%rcx)
	movq	%rdx, 40(%rcx)
	leaq	__unnamed_8(%rip), %rdx
	movq	%rdx, 16(%rcx)
	movq	$0, 24(%rcx)
	.cv_loc	281 29 326 0
	addq	$152, %rsp
	retq
.LBB58_2:
	.cv_loc	281 29 323 0
	leaq	__unnamed_21(%rip), %rdx
	leaq	72(%rsp), %rcx
	movq	%rcx, 32(%rsp)
	movl	$1, %r8d
	callq	_ZN4core3fmt9Arguments9new_const17hc9f7bd15db16c494E
	movq	32(%rsp), %rcx
	leaq	__unnamed_23(%rip), %rdx
	callq	_ZN4core9panicking9panic_fmt17hdbb75bebc22f3408E
	int3
.Ltmp925:
.Lfunc_end58:
	.seh_endproc

	.def	_ZN4core3mem14transmute_copy17hebe1d69a1160b835E;
	.scl	3;
	.type	32;
	.endef
	.section	.text,"xr",one_only,_ZN4core3mem14transmute_copy17hebe1d69a1160b835E
	.p2align	4, 0x90
_ZN4core3mem14transmute_copy17hebe1d69a1160b835E:
.Lfunc_begin59:
	.cv_func_id 282
	.cv_loc	282 9 1061 0
.seh_proc _ZN4core3mem14transmute_copy17hebe1d69a1160b835E
	subq	$504, %rsp
	.seh_stackalloc 504
	.seh_endprologue
	movq	%r8, 48(%rsp)
	movq	%rdx, 56(%rsp)
	movq	%rcx, 64(%rsp)
	movq	%rcx, 72(%rsp)
	movq	%rdx, 432(%rsp)
.Ltmp926:
	.cv_loc	282 9 1063 0
	movb	$1, %al
	testb	$1, %al
	jne	.LBB59_2
	.cv_loc	282 9 1064 0
	leaq	__unnamed_24(%rip), %rax
	movq	%rax, 440(%rsp)
	movq	$1, 448(%rsp)
.Ltmp927:
	.cv_inline_site_id 283 within 282 inlined_at 30 106 0
	.cv_loc	283 29 322 0
	xorl	%eax, %eax
	testb	$1, %al
	jne	.LBB59_4
	jmp	.LBB59_3
.Ltmp928:
.LBB59_2:
	.cv_loc	282 9 1068 0
	xorl	%eax, %eax
	testb	$1, %al
	jne	.LBB59_6
	jmp	.LBB59_5
.LBB59_3:
	.cv_loc	283 29 325 0
	movq	48(%rsp), %rdx
.Ltmp929:
	movq	$0, 176(%rsp)
	leaq	__unnamed_24(%rip), %rax
	movq	%rax, 80(%rsp)
	movq	$1, 88(%rsp)
	movq	176(%rsp), %rcx
	movq	184(%rsp), %rax
	movq	%rcx, 112(%rsp)
	movq	%rax, 120(%rsp)
	leaq	__unnamed_8(%rip), %rax
	movq	%rax, 96(%rsp)
	movq	$0, 104(%rsp)
	leaq	80(%rsp), %rcx
.Ltmp930:
	.cv_loc	282 9 1062 0
	callq	_ZN4core9panicking9panic_fmt17hdbb75bebc22f3408E
.LBB59_4:
.Ltmp931:
	.cv_loc	283 29 323 0
	leaq	__unnamed_21(%rip), %rdx
	leaq	128(%rsp), %rcx
	movq	%rcx, 40(%rsp)
	movl	$1, %r8d
	callq	_ZN4core3fmt9Arguments9new_const17hc9f7bd15db16c494E
	movq	40(%rsp), %rcx
	leaq	__unnamed_23(%rip), %rdx
	callq	_ZN4core9panicking9panic_fmt17hdbb75bebc22f3408E
.Ltmp932:
.LBB59_5:
	.cv_loc	282 9 1076 0
	movq	56(%rsp), %rdx
	movq	64(%rsp), %rcx
	movq	%rdx, 456(%rsp)
.Ltmp933:
	.cv_inline_site_id 284 within 282 inlined_at 9 1076 0
	.cv_loc	284 8 1215 0
	movl	$80, %r8d
	callq	memcpy
.Ltmp934:
	.cv_loc	282 9 1068 0
	jmp	.LBB59_7
.LBB59_6:
	.cv_loc	282 9 1071 0
	movq	56(%rsp), %rdx
	movq	%rdx, 464(%rsp)
.Ltmp935:
	.cv_inline_site_id 285 within 282 inlined_at 9 1071 0
	.cv_loc	285 8 1309 0
	movq	%rdx, 472(%rsp)
	leaq	192(%rsp), %rax
	movq	%rax, 480(%rsp)
	leaq	192(%rsp), %rax
	movq	%rax, 488(%rsp)
.Ltmp936:
	.cv_inline_site_id 286 within 285 inlined_at 8 1309 0
	.cv_loc	286 9 313 0
	movq	$80, 496(%rsp)
.Ltmp937:
	.cv_loc	286 24 2702 0
	leaq	192(%rsp), %rcx
	movl	$80, %r8d
	callq	memcpy
.Ltmp938:
	.cv_loc	285 8 1310 0
	leaq	272(%rsp), %rcx
	leaq	192(%rsp), %rdx
	movl	$80, %r8d
	callq	memcpy
.Ltmp939:
	.cv_file	47 "C:\\Users\\cires\\.rustup\\toolchains\\nightly-x86_64-pc-windows-msvc\\lib\\rustlib\\src\\rust\\library\\core\\src\\mem\\maybe_uninit.rs" "236FBAFB5D61FEB8DABCE765E3236D7E509ADF431F7037EEEBD820CA4D742F42" 3
	.cv_inline_site_id 287 within 285 inlined_at 8 1310 0
	.cv_loc	287 47 632 0
	leaq	352(%rsp), %rcx
	leaq	272(%rsp), %rdx
	movl	$80, %r8d
	callq	memcpy
	movq	64(%rsp), %rcx
.Ltmp940:
	.cv_inline_site_id 288 within 287 inlined_at 47 632 0
	.cv_loc	288 45 89 0
	leaq	352(%rsp), %rdx
	movl	$80, %r8d
	callq	memcpy
.Ltmp941:
.LBB59_7:
	.cv_loc	282 9 1078 0
	movq	72(%rsp), %rax
	addq	$504, %rsp
	retq
.Ltmp942:
.Lfunc_end59:
	.seh_endproc

	.def	_ZN4core3ops8function2Fn4call17h8afa6252aa1126adE;
	.scl	3;
	.type	32;
	.endef
	.section	.text,"xr",one_only,_ZN4core3ops8function2Fn4call17h8afa6252aa1126adE
	.p2align	4, 0x90
_ZN4core3ops8function2Fn4call17h8afa6252aa1126adE:
.Lfunc_begin60:
	.cv_func_id 289
	.cv_file	48 "C:\\Users\\cires\\.rustup\\toolchains\\nightly-x86_64-pc-windows-msvc\\lib\\rustlib\\src\\rust\\library\\core\\src\\ops\\function.rs" "56CE021EFEA9987501544CAA0F9655C530CF8DDA7C72CD71DDE4BB5210DBF612" 3
	.cv_loc	289 48 79 0
.seh_proc _ZN4core3ops8function2Fn4call17h8afa6252aa1126adE
	subq	$56, %rsp
	.seh_stackalloc 56
	.seh_endprologue
	movl	%edx, 44(%rsp)
	movq	%rcx, 48(%rsp)
.Ltmp943:
	movl	44(%rsp), %ecx
