	.text
	.def	@feat.00;
	.scl	3;
	.type	0;
	.endef
	.globl	@feat.00
.set @feat.00, 0
	.file	"proc_macro2.9857766342b17fab-cgu.0"
	.def	_ZN103_$LT$alloc..vec..into_iter..IntoIter$LT$T$C$A$GT$$u20$as$u20$core..iter..traits..iterator..Iterator$GT$4next17h7037a3c5ac99a667E;
	.scl	2;
	.type	32;
	.endef
	.section	.text,"xr",one_only,_ZN103_$LT$alloc..vec..into_iter..IntoIter$LT$T$C$A$GT$$u20$as$u20$core..iter..traits..iterator..Iterator$GT$4next17h7037a3c5ac99a667E
	.globl	_ZN103_$LT$alloc..vec..into_iter..IntoIter$LT$T$C$A$GT$$u20$as$u20$core..iter..traits..iterator..Iterator$GT$4next17h7037a3c5ac99a667E
	.p2align	4, 0x90
_ZN103_$LT$alloc..vec..into_iter..IntoIter$LT$T$C$A$GT$$u20$as$u20$core..iter..traits..iterator..Iterator$GT$4next17h7037a3c5ac99a667E:
.seh_proc _ZN103_$LT$alloc..vec..into_iter..IntoIter$LT$T$C$A$GT$$u20$as$u20$core..iter..traits..iterator..Iterator$GT$4next17h7037a3c5ac99a667E
	subq	$248, %rsp
	.seh_stackalloc 248
	.seh_endprologue
	movq	%rdx, 40(%rsp)
	movq	%rcx, 48(%rsp)
	movq	%rcx, 56(%rsp)
	movq	16(%rdx), %rax
	cmpq	24(%rdx), %rax
	je	.LBB0_2
	xorl	%eax, %eax
	testb	$1, %al
	jne	.LBB0_4
	jmp	.LBB0_3
.LBB0_2:
	movq	48(%rsp), %rax
	movabsq	$-9223372036854775803, %rcx
	movq	%rcx, (%rax)
	jmp	.LBB0_6
.LBB0_3:
	movq	48(%rsp), %rax
	movq	40(%rsp), %rdx
	movq	16(%rdx), %rcx
	movq	16(%rdx), %r8
	addq	$32, %r8
	movq	%r8, 16(%rdx)
	movq	(%rcx), %rdx
	movq	%rdx, 96(%rsp)
	movq	8(%rcx), %rdx
	movq	%rdx, 104(%rsp)
	movq	16(%rcx), %rdx
	movq	%rdx, 112(%rsp)
	movq	24(%rcx), %rcx
	movq	%rcx, 120(%rsp)
	movq	96(%rsp), %rcx
	movq	%rcx, (%rax)
	movq	104(%rsp), %rcx
	movq	%rcx, 8(%rax)
	movq	112(%rsp), %rcx
	movq	%rcx, 16(%rax)
	movq	120(%rsp), %rcx
	movq	%rcx, 24(%rax)
	jmp	.LBB0_5
.LBB0_4:
	movq	40(%rsp), %rax
	movq	24(%rax), %rcx
	addq	$-1, %rcx
	movq	%rcx, 240(%rsp)
	movq	240(%rsp), %rcx
	movq	%rcx, 136(%rsp)
	movq	136(%rsp), %rcx
	movq	%rcx, 128(%rsp)
	movq	128(%rsp), %rcx
	movq	%rcx, 24(%rax)
	leaq	176(%rsp), %rcx
	xorl	%edx, %edx
	movl	$32, %r8d
	callq	memset
	movq	48(%rsp), %rax
	movq	176(%rsp), %rcx
	movq	%rcx, 144(%rsp)
	movq	184(%rsp), %rcx
	movq	%rcx, 152(%rsp)
	movq	192(%rsp), %rcx
	movq	%rcx, 160(%rsp)
	movq	200(%rsp), %rcx
	movq	%rcx, 168(%rsp)
	movq	144(%rsp), %rcx
	movq	%rcx, 208(%rsp)
	movq	152(%rsp), %rcx
	movq	%rcx, 216(%rsp)
	movq	160(%rsp), %rcx
	movq	%rcx, 224(%rsp)
	movq	168(%rsp), %rcx
	movq	%rcx, 232(%rsp)
	movq	208(%rsp), %rcx
	movq	%rcx, 64(%rsp)
	movq	216(%rsp), %rcx
	movq	%rcx, 72(%rsp)
	movq	224(%rsp), %rcx
	movq	%rcx, 80(%rsp)
	movq	232(%rsp), %rcx
	movq	%rcx, 88(%rsp)
	movq	64(%rsp), %rcx
	movq	%rcx, (%rax)
	movq	72(%rsp), %rcx
	movq	%rcx, 8(%rax)
	movq	80(%rsp), %rcx
	movq	%rcx, 16(%rax)
	movq	88(%rsp), %rcx
	movq	%rcx, 24(%rax)
.LBB0_5:
	jmp	.LBB0_6
.LBB0_6:
	movq	56(%rsp), %rax
	addq	$248, %rsp
	retq
	.seh_endproc

	.def	_ZN103_$LT$alloc..vec..into_iter..IntoIter$LT$T$C$A$GT$$u20$as$u20$core..iter..traits..iterator..Iterator$GT$9size_hint17hbba9a48cd6018ceaE;
	.scl	2;
	.type	32;
	.endef
	.section	.text,"xr",one_only,_ZN103_$LT$alloc..vec..into_iter..IntoIter$LT$T$C$A$GT$$u20$as$u20$core..iter..traits..iterator..Iterator$GT$9size_hint17hbba9a48cd6018ceaE
	.globl	_ZN103_$LT$alloc..vec..into_iter..IntoIter$LT$T$C$A$GT$$u20$as$u20$core..iter..traits..iterator..Iterator$GT$9size_hint17hbba9a48cd6018ceaE
	.p2align	4, 0x90
_ZN103_$LT$alloc..vec..into_iter..IntoIter$LT$T$C$A$GT$$u20$as$u20$core..iter..traits..iterator..Iterator$GT$9size_hint17hbba9a48cd6018ceaE:
.seh_proc _ZN103_$LT$alloc..vec..into_iter..IntoIter$LT$T$C$A$GT$$u20$as$u20$core..iter..traits..iterator..Iterator$GT$9size_hint17hbba9a48cd6018ceaE
	subq	$104, %rsp
	.seh_stackalloc 104
	.seh_endprologue
	movq	%rdx, 56(%rsp)
	movq	%rcx, 64(%rsp)
	movq	%rcx, 72(%rsp)
	xorl	%eax, %eax
	testb	$1, %al
	jne	.LBB1_2
	movq	56(%rsp), %rax
	movq	24(%rax), %rcx
	movq	%rcx, 40(%rsp)
	movq	16(%rax), %rax
	movq	%rax, 48(%rsp)
	movb	$1, %al
	testb	$1, %al
	jne	.LBB1_4
	jmp	.LBB1_3
.LBB1_2:
	movq	56(%rsp), %rcx
	movq	24(%rcx), %rax
	movq	16(%rcx), %rcx
	subq	%rcx, %rax
	movq	%rax, 80(%rsp)
	jmp	.LBB1_6
.LBB1_3:
	leaq	__unnamed_1(%rip), %rcx
	leaq	__unnamed_2(%rip), %r8
	movl	$73, %edx
	callq	_ZN4core9panicking5panic17hb11f2d409f96600eE
.LBB1_4:
	movb	$1, %al
	testb	$1, %al
	jne	.LBB1_5
	jmp	.LBB1_3
.LBB1_5:
	movq	48(%rsp), %rcx
	movq	40(%rsp), %rax
	subq	%rcx, %rax
	shrq	$5, %rax
	movq	%rax, 80(%rsp)
.LBB1_6:
	movq	72(%rsp), %rax
	movq	64(%rsp), %rcx
	movq	80(%rsp), %rdx
	movq	80(%rsp), %r8
	movq	%r8, 96(%rsp)
	movq	$1, 88(%rsp)
	movq	%rdx, (%rcx)
	movq	88(%rsp), %r8
	movq	96(%rsp), %rdx
	movq	%r8, 8(%rcx)
	movq	%rdx, 16(%rcx)
	addq	$104, %rsp
	retq
	.seh_endproc

	.def	_ZN103_$LT$alloc..vec..into_iter..IntoIter$LT$T$C$A$GT$$u20$as$u20$core..iter..traits..iterator..Iterator$GT$9size_hint17hbedb85e8ff6fd28aE;
	.scl	2;
	.type	32;
	.endef
	.section	.text,"xr",one_only,_ZN103_$LT$alloc..vec..into_iter..IntoIter$LT$T$C$A$GT$$u20$as$u20$core..iter..traits..iterator..Iterator$GT$9size_hint17hbedb85e8ff6fd28aE
	.globl	_ZN103_$LT$alloc..vec..into_iter..IntoIter$LT$T$C$A$GT$$u20$as$u20$core..iter..traits..iterator..Iterator$GT$9size_hint17hbedb85e8ff6fd28aE
	.p2align	4, 0x90
_ZN103_$LT$alloc..vec..into_iter..IntoIter$LT$T$C$A$GT$$u20$as$u20$core..iter..traits..iterator..Iterator$GT$9size_hint17hbedb85e8ff6fd28aE:
.seh_proc _ZN103_$LT$alloc..vec..into_iter..IntoIter$LT$T$C$A$GT$$u20$as$u20$core..iter..traits..iterator..Iterator$GT$9size_hint17hbedb85e8ff6fd28aE
	subq	$104, %rsp
	.seh_stackalloc 104
	.seh_endprologue
	movq	%rdx, 56(%rsp)
	movq	%rcx, 64(%rsp)
	movq	%rcx, 72(%rsp)
	xorl	%eax, %eax
	testb	$1, %al
	jne	.LBB2_2
	movq	56(%rsp), %rax
	movq	24(%rax), %rcx
	movq	%rcx, 40(%rsp)
	movq	16(%rax), %rax
	movq	%rax, 48(%rsp)
	movb	$1, %al
	testb	$1, %al
	jne	.LBB2_4
	jmp	.LBB2_3
.LBB2_2:
	movq	56(%rsp), %rcx
	movq	24(%rcx), %rax
	movq	16(%rcx), %rcx
	subq	%rcx, %rax
	movq	%rax, 80(%rsp)
	jmp	.LBB2_6
.LBB2_3:
	leaq	__unnamed_1(%rip), %rcx
	leaq	__unnamed_2(%rip), %r8
	movl	$73, %edx
	callq	_ZN4core9panicking5panic17hb11f2d409f96600eE
.LBB2_4:
	movb	$1, %al
	testb	$1, %al
	jne	.LBB2_5
	jmp	.LBB2_3
.LBB2_5:
	movq	48(%rsp), %rcx
	movq	40(%rsp), %rax
	subq	%rcx, %rax
	movl	$20, %ecx
	xorl	%edx, %edx
	divq	%rcx
	movq	%rax, 80(%rsp)
.LBB2_6:
	movq	72(%rsp), %rax
	movq	64(%rsp), %rcx
	movq	80(%rsp), %rdx
	movq	80(%rsp), %r8
	movq	%r8, 96(%rsp)
	movq	$1, 88(%rsp)
	movq	%rdx, (%rcx)
	movq	88(%rsp), %r8
	movq	96(%rsp), %rdx
	movq	%r8, 8(%rcx)
	movq	%rdx, 16(%rcx)
	addq	$104, %rsp
	retq
	.seh_endproc

	.def	_ZN103_$LT$proc_macro..bridge..TokenTree$LT$TokenStream$C$Span$C$Symbol$GT$$u20$as$u20$core..clone..Clone$GT$5clone17h25176c0cb7214585E;
	.scl	2;
	.type	32;
	.endef
	.section	.text,"xr",one_only,_ZN103_$LT$proc_macro..bridge..TokenTree$LT$TokenStream$C$Span$C$Symbol$GT$$u20$as$u20$core..clone..Clone$GT$5clone17h25176c0cb7214585E
	.globl	_ZN103_$LT$proc_macro..bridge..TokenTree$LT$TokenStream$C$Span$C$Symbol$GT$$u20$as$u20$core..clone..Clone$GT$5clone17h25176c0cb7214585E
	.p2align	4, 0x90
_ZN103_$LT$proc_macro..bridge..TokenTree$LT$TokenStream$C$Span$C$Symbol$GT$$u20$as$u20$core..clone..Clone$GT$5clone17h25176c0cb7214585E:
.seh_proc _ZN103_$LT$proc_macro..bridge..TokenTree$LT$TokenStream$C$Span$C$Symbol$GT$$u20$as$u20$core..clone..Clone$GT$5clone17h25176c0cb7214585E
	subq	$136, %rsp
	.seh_stackalloc 136
	.seh_endprologue
	movq	%rdx, 48(%rsp)
	movq	%rcx, 56(%rsp)
	movq	%rcx, 64(%rsp)
	movb	16(%rdx), %dl
	addb	$-4, %dl
	movzbl	%dl, %eax
	movl	%eax, %ecx
	incq	%rcx
	xorl	%eax, %eax
	subb	$3, %dl
	cmovbq	%rcx, %rax
	movq	%rax, 72(%rsp)
	movq	72(%rsp), %rax
	leaq	.LJTI3_0(%rip), %rcx
	movslq	(%rcx,%rax,4), %rax
	addq	%rcx, %rax
	jmpq	*%rax
	ud2
.LBB3_2:
	movq	48(%rsp), %rdx
	leaq	80(%rsp), %rcx
	callq	_ZN90_$LT$proc_macro..bridge..Group$LT$TokenStream$C$Span$GT$$u20$as$u20$core..clone..Clone$GT$5clone17h721cb774a71ff956E
	movq	56(%rsp), %rax
	movq	80(%rsp), %rcx
	movq	%rcx, (%rax)
	movq	88(%rsp), %rcx
	movq	%rcx, 8(%rax)
	movl	96(%rsp), %ecx
	movl	%ecx, 16(%rax)
	jmp	.LBB3_6
.LBB3_3:
	movq	48(%rsp), %rcx
	movb	4(%rcx), %al
	movb	%al, 46(%rsp)
	movb	5(%rcx), %al
	movb	%al, 47(%rsp)
	callq	_ZN71_$LT$proc_macro..bridge..client..Span$u20$as$u20$core..clone..Clone$GT$5clone17h0589c6c042b367d5E
	movb	46(%rsp), %r8b
	movb	47(%rsp), %dl
	movl	%eax, %ecx
	movq	56(%rsp), %rax
	movb	%r8b, 104(%rsp)
	andb	$1, %dl
	movb	%dl, 105(%rsp)
	movl	%ecx, 100(%rsp)
	movq	100(%rsp), %rcx
	movq	%rcx, (%rax)
	movb	$4, 16(%rax)
	jmp	.LBB3_6
.LBB3_4:
	movq	48(%rsp), %rdx
	leaq	108(%rsp), %rcx
	callq	_ZN85_$LT$proc_macro..bridge..Ident$LT$Span$C$Symbol$GT$$u20$as$u20$core..clone..Clone$GT$5clone17hf4ef039617d82f5aE
	movq	56(%rsp), %rax
	movq	108(%rsp), %rcx
	movq	%rcx, (%rax)
	movl	116(%rsp), %ecx
	movl	%ecx, 8(%rax)
	movb	$5, 16(%rax)
	jmp	.LBB3_6
.LBB3_5:
	movq	48(%rsp), %rdx
	leaq	120(%rsp), %rcx
	callq	_ZN87_$LT$proc_macro..bridge..Literal$LT$Span$C$Symbol$GT$$u20$as$u20$core..clone..Clone$GT$5clone17h19905f170ed0e16fE
	movq	56(%rsp), %rax
	movq	120(%rsp), %rcx
	movq	%rcx, (%rax)
	movq	128(%rsp), %rcx
	movq	%rcx, 8(%rax)
	movb	$6, 16(%rax)
.LBB3_6:
	movq	64(%rsp), %rax
	addq	$136, %rsp
	retq
	.section	.rdata,"dr",associative,_ZN103_$LT$proc_macro..bridge..TokenTree$LT$TokenStream$C$Span$C$Symbol$GT$$u20$as$u20$core..clone..Clone$GT$5clone17h25176c0cb7214585E
	.p2align	2, 0x0
.LJTI3_0:
	.long	.LBB3_2-.LJTI3_0
	.long	.LBB3_3-.LJTI3_0
	.long	.LBB3_4-.LJTI3_0
	.long	.LBB3_5-.LJTI3_0
	.section	.text,"xr",one_only,_ZN103_$LT$proc_macro..bridge..TokenTree$LT$TokenStream$C$Span$C$Symbol$GT$$u20$as$u20$core..clone..Clone$GT$5clone17h25176c0cb7214585E
	.seh_endproc

	.def	_ZN104_$LT$core..iter..adapters..copied..Copied$LT$I$GT$$u20$as$u20$core..iter..traits..iterator..Iterator$GT$4next17h654061db80d60669E;
	.scl	2;
	.type	32;
	.endef
	.section	.text,"xr",one_only,_ZN104_$LT$core..iter..adapters..copied..Copied$LT$I$GT$$u20$as$u20$core..iter..traits..iterator..Iterator$GT$4next17h654061db80d60669E
	.globl	_ZN104_$LT$core..iter..adapters..copied..Copied$LT$I$GT$$u20$as$u20$core..iter..traits..iterator..Iterator$GT$4next17h654061db80d60669E
	.p2align	4, 0x90
_ZN104_$LT$core..iter..adapters..copied..Copied$LT$I$GT$$u20$as$u20$core..iter..traits..iterator..Iterator$GT$4next17h654061db80d60669E:
.seh_proc _ZN104_$LT$core..iter..adapters..copied..Copied$LT$I$GT$$u20$as$u20$core..iter..traits..iterator..Iterator$GT$4next17h654061db80d60669E
	subq	$56, %rsp
	.seh_stackalloc 56
	.seh_endprologue
	callq	_ZN91_$LT$core..slice..iter..Iter$LT$T$GT$$u20$as$u20$core..iter..traits..iterator..Iterator$GT$4next17h9316149bf727b8faE
	movq	%rax, 48(%rsp)
	movq	48(%rsp), %rdx
	movl	$1, %eax
	xorl	%ecx, %ecx
	cmpq	$0, %rdx
	cmoveq	%rcx, %rax
	cmpq	$0, %rax
	jne	.LBB4_2
	movb	$0, 46(%rsp)
	jmp	.LBB4_3
.LBB4_2:
	movq	48(%rsp), %rax
	movb	(%rax), %al
	movb	%al, 47(%rsp)
	movb	$1, 46(%rsp)
.LBB4_3:
	movb	46(%rsp), %al
	movb	47(%rsp), %dl
	addq	$56, %rsp
	retq
	.seh_endproc

	.def	_ZN104_$LT$core..iter..adapters..copied..Copied$LT$I$GT$$u20$as$u20$core..iter..traits..iterator..Iterator$GT$8try_fold17h15b71dded2d9a8ffE;
	.scl	2;
	.type	32;
	.endef
	.section	.text,"xr",one_only,_ZN104_$LT$core..iter..adapters..copied..Copied$LT$I$GT$$u20$as$u20$core..iter..traits..iterator..Iterator$GT$8try_fold17h15b71dded2d9a8ffE
	.globl	_ZN104_$LT$core..iter..adapters..copied..Copied$LT$I$GT$$u20$as$u20$core..iter..traits..iterator..Iterator$GT$8try_fold17h15b71dded2d9a8ffE
	.p2align	4, 0x90
_ZN104_$LT$core..iter..adapters..copied..Copied$LT$I$GT$$u20$as$u20$core..iter..traits..iterator..Iterator$GT$8try_fold17h15b71dded2d9a8ffE:
.Lfunc_begin0:
.seh_proc _ZN104_$LT$core..iter..adapters..copied..Copied$LT$I$GT$$u20$as$u20$core..iter..traits..iterator..Iterator$GT$8try_fold17h15b71dded2d9a8ffE
	.seh_handler __CxxFrameHandler3, @unwind, @except
	pushq	%rbp
	.seh_pushreg %rbp
	subq	$48, %rsp
	.seh_stackalloc 48
	leaq	48(%rsp), %rbp
	.seh_setframe %rbp, 48
	.seh_endprologue
	movq	$-2, -8(%rbp)
.Ltmp0:
	callq	_ZN4core4iter6traits8iterator8Iterator8try_fold17h469d5413049b59fbE
.Ltmp1:
	movb	%al, -9(%rbp)
	jmp	.LBB5_2
.LBB5_2:
	movb	-9(%rbp), %al
	andb	$1, %al
	movzbl	%al, %eax
	addq	$48, %rsp
	popq	%rbp
	retq
	.seh_handlerdata
	.long	($cppxdata$_ZN104_$LT$core..iter..adapters..copied..Copied$LT$I$GT$$u20$as$u20$core..iter..traits..iterator..Iterator$GT$8try_fold17h15b71dded2d9a8ffE)@IMGREL
	.section	.text,"xr",one_only,_ZN104_$LT$core..iter..adapters..copied..Copied$LT$I$GT$$u20$as$u20$core..iter..traits..iterator..Iterator$GT$8try_fold17h15b71dded2d9a8ffE
	.seh_endproc
	.def	"?dtor$1@?0?_ZN104_$LT$core..iter..adapters..copied..Copied$LT$I$GT$$u20$as$u20$core..iter..traits..iterator..Iterator$GT$8try_fold17h15b71dded2d9a8ffE@4HA";
	.scl	3;
	.type	32;
	.endef
	.p2align	4, 0x90
"?dtor$1@?0?_ZN104_$LT$core..iter..adapters..copied..Copied$LT$I$GT$$u20$as$u20$core..iter..traits..iterator..Iterator$GT$8try_fold17h15b71dded2d9a8ffE@4HA":
.seh_proc "?dtor$1@?0?_ZN104_$LT$core..iter..adapters..copied..Copied$LT$I$GT$$u20$as$u20$core..iter..traits..iterator..Iterator$GT$8try_fold17h15b71dded2d9a8ffE@4HA"
.LBB5_1:
	movq	%rdx, 16(%rsp)
	pushq	%rbp
	.seh_pushreg %rbp
	subq	$32, %rsp
	.seh_stackalloc 32
	leaq	48(%rdx), %rbp
	.seh_endprologue
	addq	$32, %rsp
	popq	%rbp
	retq
.Lfunc_end0:
	.seh_handlerdata
	.section	.text,"xr",one_only,_ZN104_$LT$core..iter..adapters..copied..Copied$LT$I$GT$$u20$as$u20$core..iter..traits..iterator..Iterator$GT$8try_fold17h15b71dded2d9a8ffE
	.seh_endproc
	.section	.xdata,"dr",associative,_ZN104_$LT$core..iter..adapters..copied..Copied$LT$I$GT$$u20$as$u20$core..iter..traits..iterator..Iterator$GT$8try_fold17h15b71dded2d9a8ffE
	.p2align	2, 0x0
$cppxdata$_ZN104_$LT$core..iter..adapters..copied..Copied$LT$I$GT$$u20$as$u20$core..iter..traits..iterator..Iterator$GT$8try_fold17h15b71dded2d9a8ffE:
	.long	429065506
	.long	1
	.long	($stateUnwindMap$_ZN104_$LT$core..iter..adapters..copied..Copied$LT$I$GT$$u20$as$u20$core..iter..traits..iterator..Iterator$GT$8try_fold17h15b71dded2d9a8ffE)@IMGREL
	.long	0
	.long	0
	.long	3
	.long	($ip2state$_ZN104_$LT$core..iter..adapters..copied..Copied$LT$I$GT$$u20$as$u20$core..iter..traits..iterator..Iterator$GT$8try_fold17h15b71dded2d9a8ffE)@IMGREL
	.long	40
	.long	0
	.long	1
$stateUnwindMap$_ZN104_$LT$core..iter..adapters..copied..Copied$LT$I$GT$$u20$as$u20$core..iter..traits..iterator..Iterator$GT$8try_fold17h15b71dded2d9a8ffE:
	.long	-1
	.long	"?dtor$1@?0?_ZN104_$LT$core..iter..adapters..copied..Copied$LT$I$GT$$u20$as$u20$core..iter..traits..iterator..Iterator$GT$8try_fold17h15b71dded2d9a8ffE@4HA"@IMGREL
$ip2state$_ZN104_$LT$core..iter..adapters..copied..Copied$LT$I$GT$$u20$as$u20$core..iter..traits..iterator..Iterator$GT$8try_fold17h15b71dded2d9a8ffE:
	.long	.Lfunc_begin0@IMGREL
	.long	-1
	.long	.Ltmp0@IMGREL+1
	.long	0
	.long	.Ltmp1@IMGREL+1
	.long	-1
	.section	.text,"xr",one_only,_ZN104_$LT$core..iter..adapters..copied..Copied$LT$I$GT$$u20$as$u20$core..iter..traits..iterator..Iterator$GT$8try_fold17h15b71dded2d9a8ffE

	.def	_ZN104_$LT$core..ops..control_flow..ControlFlow$LT$B$C$C$GT$$u20$as$u20$core..ops..try_trait..FromResidual$GT$13from_residual17h0a32a74218838437E;
	.scl	2;
	.type	32;
	.endef
	.section	.text,"xr",one_only,_ZN104_$LT$core..ops..control_flow..ControlFlow$LT$B$C$C$GT$$u20$as$u20$core..ops..try_trait..FromResidual$GT$13from_residual17h0a32a74218838437E
	.globl	_ZN104_$LT$core..ops..control_flow..ControlFlow$LT$B$C$C$GT$$u20$as$u20$core..ops..try_trait..FromResidual$GT$13from_residual17h0a32a74218838437E
	.p2align	4, 0x90
_ZN104_$LT$core..ops..control_flow..ControlFlow$LT$B$C$C$GT$$u20$as$u20$core..ops..try_trait..FromResidual$GT$13from_residual17h0a32a74218838437E:
.seh_proc _ZN104_$LT$core..ops..control_flow..ControlFlow$LT$B$C$C$GT$$u20$as$u20$core..ops..try_trait..FromResidual$GT$13from_residual17h0a32a74218838437E
	pushq	%rax
	.seh_stackalloc 8
	.seh_endprologue
	movb	$1, 7(%rsp)
	movb	7(%rsp), %al
	andb	$1, %al
	movzbl	%al, %eax
	popq	%rcx
	retq
	.seh_endproc

	.def	_ZN104_$LT$core..ops..control_flow..ControlFlow$LT$B$C$C$GT$$u20$as$u20$core..ops..try_trait..FromResidual$GT$13from_residual17haf8b561e4d9cdf2dE;
	.scl	2;
	.type	32;
	.endef
	.section	.text,"xr",one_only,_ZN104_$LT$core..ops..control_flow..ControlFlow$LT$B$C$C$GT$$u20$as$u20$core..ops..try_trait..FromResidual$GT$13from_residual17haf8b561e4d9cdf2dE
	.globl	_ZN104_$LT$core..ops..control_flow..ControlFlow$LT$B$C$C$GT$$u20$as$u20$core..ops..try_trait..FromResidual$GT$13from_residual17haf8b561e4d9cdf2dE
	.p2align	4, 0x90
_ZN104_$LT$core..ops..control_flow..ControlFlow$LT$B$C$C$GT$$u20$as$u20$core..ops..try_trait..FromResidual$GT$13from_residual17haf8b561e4d9cdf2dE:
.seh_proc _ZN104_$LT$core..ops..control_flow..ControlFlow$LT$B$C$C$GT$$u20$as$u20$core..ops..try_trait..FromResidual$GT$13from_residual17haf8b561e4d9cdf2dE
	subq	$24, %rsp
	.seh_stackalloc 24
	.seh_endprologue
	movq	%rcx, (%rsp)
	movq	(%rsp), %rax
	movq	%rax, 16(%rsp)
	movq	$1, 8(%rsp)
	movq	8(%rsp), %rax
	movq	16(%rsp), %rdx
	addq	$24, %rsp
	retq
	.seh_endproc

	.def	_ZN106_$LT$core..ops..range..Range$LT$usize$GT$$u20$as$u20$core..slice..index..SliceIndex$LT$$u5b$T$u5d$$GT$$GT$3get17h2b6b39cfdfe75c89E;
	.scl	2;
	.type	32;
	.endef
	.section	.text,"xr",one_only,_ZN106_$LT$core..ops..range..Range$LT$usize$GT$$u20$as$u20$core..slice..index..SliceIndex$LT$$u5b$T$u5d$$GT$$GT$3get17h2b6b39cfdfe75c89E
	.globl	_ZN106_$LT$core..ops..range..Range$LT$usize$GT$$u20$as$u20$core..slice..index..SliceIndex$LT$$u5b$T$u5d$$GT$$GT$3get17h2b6b39cfdfe75c89E
	.p2align	4, 0x90
_ZN106_$LT$core..ops..range..Range$LT$usize$GT$$u20$as$u20$core..slice..index..SliceIndex$LT$$u5b$T$u5d$$GT$$GT$3get17h2b6b39cfdfe75c89E:
.seh_proc _ZN106_$LT$core..ops..range..Range$LT$usize$GT$$u20$as$u20$core..slice..index..SliceIndex$LT$$u5b$T$u5d$$GT$$GT$3get17h2b6b39cfdfe75c89E
	subq	$80, %rsp
	.seh_stackalloc 80
	.seh_endprologue
	movq	%r9, (%rsp)
	movq	%r8, 8(%rsp)
	movq	%rdx, 16(%rsp)
	movq	%rcx, 24(%rsp)
	cmpq	%rdx, %rcx
	ja	.LBB8_2
	movq	16(%rsp), %rax
	movq	(%rsp), %rcx
	cmpq	%rcx, %rax
	ja	.LBB8_4
	jmp	.LBB8_3
.LBB8_2:
	jmp	.LBB8_4
.LBB8_3:
	movq	24(%rsp), %rdx
	movq	8(%rsp), %rcx
	movq	16(%rsp), %rax
	subq	%rdx, %rax
	addq	%rdx, %rcx
	movq	%rcx, 64(%rsp)
	movq	%rax, 72(%rsp)
	movq	64(%rsp), %rcx
	movq	72(%rsp), %rax
	movq	%rcx, 48(%rsp)
	movq	%rax, 56(%rsp)
	movq	48(%rsp), %rcx
	movq	56(%rsp), %rax
	movq	%rcx, 32(%rsp)
	movq	%rax, 40(%rsp)
	jmp	.LBB8_5
.LBB8_4:
	movq	$0, 32(%rsp)
.LBB8_5:
	movq	32(%rsp), %rax
	movq	40(%rsp), %rdx
	addq	$80, %rsp
	retq
	.seh_endproc

	.def	_ZN106_$LT$core..ops..range..Range$LT$usize$GT$$u20$as$u20$core..slice..index..SliceIndex$LT$$u5b$T$u5d$$GT$$GT$5index17he8eaed88be08e1f3E;
	.scl	2;
	.type	32;
	.endef
	.section	.text,"xr",one_only,_ZN106_$LT$core..ops..range..Range$LT$usize$GT$$u20$as$u20$core..slice..index..SliceIndex$LT$$u5b$T$u5d$$GT$$GT$5index17he8eaed88be08e1f3E
	.globl	_ZN106_$LT$core..ops..range..Range$LT$usize$GT$$u20$as$u20$core..slice..index..SliceIndex$LT$$u5b$T$u5d$$GT$$GT$5index17he8eaed88be08e1f3E
	.p2align	4, 0x90
_ZN106_$LT$core..ops..range..Range$LT$usize$GT$$u20$as$u20$core..slice..index..SliceIndex$LT$$u5b$T$u5d$$GT$$GT$5index17he8eaed88be08e1f3E:
.seh_proc _ZN106_$LT$core..ops..range..Range$LT$usize$GT$$u20$as$u20$core..slice..index..SliceIndex$LT$$u5b$T$u5d$$GT$$GT$5index17he8eaed88be08e1f3E
	subq	$104, %rsp
	.seh_stackalloc 104
	.seh_endprologue
	movq	%r9, 32(%rsp)
	movq	%r8, 40(%rsp)
	movq	%rdx, 48(%rsp)
	movq	%rcx, 56(%rsp)
	movq	144(%rsp), %rax
	movq	%rax, 64(%rsp)
	cmpq	%rdx, %rcx
	ja	.LBB9_2
	movq	48(%rsp), %rax
	movq	32(%rsp), %rcx
	cmpq	%rcx, %rax
	ja	.LBB9_4
	jmp	.LBB9_3
.LBB9_2:
	movq	64(%rsp), %r8
	movq	48(%rsp), %rdx
	movq	56(%rsp), %rcx
	callq	_ZN4core5slice5index22slice_index_order_fail17h7ca406d2fb242740E
.LBB9_3:
	movq	56(%rsp), %rdx
	movq	40(%rsp), %rcx
	movq	48(%rsp), %rax
	subq	%rdx, %rax
	addq	%rdx, %rcx
	movq	%rcx, 88(%rsp)
	movq	%rax, 96(%rsp)
	movq	88(%rsp), %rcx
	movq	96(%rsp), %rax
	movq	%rcx, 72(%rsp)
	movq	%rax, 80(%rsp)
	movq	72(%rsp), %rax
	movq	80(%rsp), %rdx
	addq	$104, %rsp
	retq
.LBB9_4:
	movq	64(%rsp), %r8
	movq	32(%rsp), %rdx
	movq	48(%rsp), %rcx
	callq	_ZN4core5slice5index24slice_end_index_len_fail17h3bc272e480489ed9E
	int3
	.seh_endproc

	.def	_ZN106_$LT$core..ops..range..Range$LT$usize$GT$$u20$as$u20$core..slice..index..SliceIndex$LT$$u5b$T$u5d$$GT$$GT$9index_mut17hd8d31497c0eaabf6E;
	.scl	2;
	.type	32;
	.endef
	.section	.text,"xr",one_only,_ZN106_$LT$core..ops..range..Range$LT$usize$GT$$u20$as$u20$core..slice..index..SliceIndex$LT$$u5b$T$u5d$$GT$$GT$9index_mut17hd8d31497c0eaabf6E
	.globl	_ZN106_$LT$core..ops..range..Range$LT$usize$GT$$u20$as$u20$core..slice..index..SliceIndex$LT$$u5b$T$u5d$$GT$$GT$9index_mut17hd8d31497c0eaabf6E
	.p2align	4, 0x90
_ZN106_$LT$core..ops..range..Range$LT$usize$GT$$u20$as$u20$core..slice..index..SliceIndex$LT$$u5b$T$u5d$$GT$$GT$9index_mut17hd8d31497c0eaabf6E:
.seh_proc _ZN106_$LT$core..ops..range..Range$LT$usize$GT$$u20$as$u20$core..slice..index..SliceIndex$LT$$u5b$T$u5d$$GT$$GT$9index_mut17hd8d31497c0eaabf6E
	subq	$104, %rsp
	.seh_stackalloc 104
	.seh_endprologue
	movq	%r9, 32(%rsp)
	movq	%r8, 40(%rsp)
	movq	%rdx, 48(%rsp)
	movq	%rcx, 56(%rsp)
	movq	144(%rsp), %rax
	movq	%rax, 64(%rsp)
	cmpq	%rdx, %rcx
	ja	.LBB10_2
	movq	48(%rsp), %rax
	movq	32(%rsp), %rcx
	cmpq	%rcx, %rax
	ja	.LBB10_4
	jmp	.LBB10_3
.LBB10_2:
	movq	64(%rsp), %r8
	movq	48(%rsp), %rdx
	movq	56(%rsp), %rcx
	callq	_ZN4core5slice5index22slice_index_order_fail17h7ca406d2fb242740E
.LBB10_3:
	movq	56(%rsp), %rdx
	movq	40(%rsp), %rcx
	movq	48(%rsp), %rax
	subq	%rdx, %rax
	addq	%rdx, %rcx
	movq	%rcx, 88(%rsp)
	movq	%rax, 96(%rsp)
	movq	88(%rsp), %rcx
	movq	96(%rsp), %rax
	movq	%rcx, 72(%rsp)
	movq	%rax, 80(%rsp)
	movq	72(%rsp), %rax
	movq	80(%rsp), %rdx
	addq	$104, %rsp
	retq
.LBB10_4:
	movq	64(%rsp), %r8
	movq	32(%rsp), %rdx
	movq	48(%rsp), %rcx
	callq	_ZN4core5slice5index24slice_end_index_len_fail17h3bc272e480489ed9E
	int3
	.seh_endproc

	.def	_ZN108_$LT$core..iter..adapters..peekable..Peekable$LT$I$GT$$u20$as$u20$core..iter..traits..iterator..Iterator$GT$4next17h690bf2ed06b100f6E;
	.scl	2;
	.type	32;
	.endef
	.section	.text,"xr",one_only,_ZN108_$LT$core..iter..adapters..peekable..Peekable$LT$I$GT$$u20$as$u20$core..iter..traits..iterator..Iterator$GT$4next17h690bf2ed06b100f6E
	.globl	_ZN108_$LT$core..iter..adapters..peekable..Peekable$LT$I$GT$$u20$as$u20$core..iter..traits..iterator..Iterator$GT$4next17h690bf2ed06b100f6E
	.p2align	4, 0x90
_ZN108_$LT$core..iter..adapters..peekable..Peekable$LT$I$GT$$u20$as$u20$core..iter..traits..iterator..Iterator$GT$4next17h690bf2ed06b100f6E:
.seh_proc _ZN108_$LT$core..iter..adapters..peekable..Peekable$LT$I$GT$$u20$as$u20$core..iter..traits..iterator..Iterator$GT$4next17h690bf2ed06b100f6E
	subq	$56, %rsp
	.seh_stackalloc 56
	.seh_endprologue
	movq	%rcx, 32(%rsp)
	movl	$1114113, 52(%rsp)
	movl	16(%rcx), %eax
	movl	%eax, 48(%rsp)
	movl	52(%rsp), %eax
	movl	%eax, 16(%rcx)
	movl	$1, %eax
	xorl	%ecx, %ecx
	cmpl	$1114113, 48(%rsp)
	cmoveq	%rcx, %rax
	cmpq	$0, %rax
	jne	.LBB11_2
	movq	32(%rsp), %rcx
	callq	_ZN81_$LT$core..str..iter..Chars$u20$as$u20$core..iter..traits..iterator..Iterator$GT$4next17hb45be1c7f34d6dd1E
	movl	%eax, 44(%rsp)
	jmp	.LBB11_3
.LBB11_2:
	movl	48(%rsp), %eax
	movl	%eax, 44(%rsp)
.LBB11_3:
	movl	44(%rsp), %eax
	addq	$56, %rsp
	retq
	.seh_endproc

	.def	_ZN108_$LT$proc_macro..TokenStream$u20$as$u20$core..iter..traits..collect..Extend$LT$proc_macro..TokenTree$GT$$GT$6extend17h046ae758a0b562eaE;
	.scl	2;
	.type	32;
	.endef
	.section	.text,"xr",one_only,_ZN108_$LT$proc_macro..TokenStream$u20$as$u20$core..iter..traits..collect..Extend$LT$proc_macro..TokenTree$GT$$GT$6extend17h046ae758a0b562eaE
	.globl	_ZN108_$LT$proc_macro..TokenStream$u20$as$u20$core..iter..traits..collect..Extend$LT$proc_macro..TokenTree$GT$$GT$6extend17h046ae758a0b562eaE
	.p2align	4, 0x90
_ZN108_$LT$proc_macro..TokenStream$u20$as$u20$core..iter..traits..collect..Extend$LT$proc_macro..TokenTree$GT$$GT$6extend17h046ae758a0b562eaE:
.Lfunc_begin1:
.seh_proc _ZN108_$LT$proc_macro..TokenStream$u20$as$u20$core..iter..traits..collect..Extend$LT$proc_macro..TokenTree$GT$$GT$6extend17h046ae758a0b562eaE
	.seh_handler __CxxFrameHandler3, @unwind, @except
	pushq	%rbp
	.seh_pushreg %rbp
	subq	$240, %rsp
	.seh_stackalloc 240
	leaq	128(%rsp), %rbp
	.seh_setframe %rbp, 128
	.seh_endprologue
	movq	$-2, 104(%rbp)
	movq	%rcx, -88(%rbp)
	leaq	-72(%rbp), %rcx
	movq	%rcx, -80(%rbp)
	callq	_ZN63_$LT$I$u20$as$u20$core..iter..traits..collect..IntoIterator$GT$9into_iter17hb92c16304122e455E
	movq	-80(%rbp), %rdx
	movb	$1, 103(%rbp)
.Ltmp2:
	leaq	-8(%rbp), %rcx
	callq	_ZN96_$LT$alloc..vec..drain..Drain$LT$T$C$A$GT$$u20$as$u20$core..iter..traits..iterator..Iterator$GT$9size_hint17h4c0119801e9a2d8aE
.Ltmp3:
	jmp	.LBB12_2
.LBB12_2:
	movq	-8(%rbp), %rdx
.Ltmp4:
	leaq	-32(%rbp), %rcx
	callq	_ZN10proc_macro17ConcatTreesHelper3new17hf250303e7840629bE
.Ltmp5:
	jmp	.LBB12_3
.LBB12_3:
	movb	$1, 102(%rbp)
	movb	$0, 103(%rbp)
	movq	-40(%rbp), %rax
	movq	%rax, 48(%rbp)
	vmovups	-72(%rbp), %ymm0
	vmovups	%ymm0, 16(%rbp)
	leaq	-32(%rbp), %rax
	movq	%rax, 56(%rbp)
	movq	56(%rbp), %rdx
.Ltmp6:
	leaq	16(%rbp), %rcx
	vzeroupper
	callq	_ZN4core4iter6traits8iterator8Iterator8for_each17hb99194bdaa963200E
.Ltmp7:
	jmp	.LBB12_5
.LBB12_5:
	movq	-88(%rbp), %rdx
	movb	$0, 102(%rbp)
	movq	-16(%rbp), %rax
	movq	%rax, 80(%rbp)
	vmovdqu	-32(%rbp), %xmm0
	vmovdqa	%xmm0, 64(%rbp)
.Ltmp8:
	leaq	64(%rbp), %rcx
	callq	_ZN10proc_macro17ConcatTreesHelper9append_to17h44ea3b2c0566b865E
.Ltmp9:
	jmp	.LBB12_6
.LBB12_6:
	addq	$240, %rsp
	popq	%rbp
	retq
	.seh_handlerdata
	.long	($cppxdata$_ZN108_$LT$proc_macro..TokenStream$u20$as$u20$core..iter..traits..collect..Extend$LT$proc_macro..TokenTree$GT$$GT$6extend17h046ae758a0b562eaE)@IMGREL
	.section	.text,"xr",one_only,_ZN108_$LT$proc_macro..TokenStream$u20$as$u20$core..iter..traits..collect..Extend$LT$proc_macro..TokenTree$GT$$GT$6extend17h046ae758a0b562eaE
	.seh_endproc
	.def	"?dtor$1@?0?_ZN108_$LT$proc_macro..TokenStream$u20$as$u20$core..iter..traits..collect..Extend$LT$proc_macro..TokenTree$GT$$GT$6extend17h046ae758a0b562eaE@4HA";
	.scl	3;
	.type	32;
	.endef
	.p2align	4, 0x90
"?dtor$1@?0?_ZN108_$LT$proc_macro..TokenStream$u20$as$u20$core..iter..traits..collect..Extend$LT$proc_macro..TokenTree$GT$$GT$6extend17h046ae758a0b562eaE@4HA":
.seh_proc "?dtor$1@?0?_ZN108_$LT$proc_macro..TokenStream$u20$as$u20$core..iter..traits..collect..Extend$LT$proc_macro..TokenTree$GT$$GT$6extend17h046ae758a0b562eaE@4HA"
.LBB12_1:
	movq	%rdx, 16(%rsp)
	pushq	%rbp
	.seh_pushreg %rbp
	subq	$32, %rsp
	.seh_stackalloc 32
	leaq	128(%rdx), %rbp
	.seh_endprologue
	testb	$1, 103(%rbp)
	jne	.LBB12_10
	jmp	.LBB12_9
.LBB12_9:
	addq	$32, %rsp
	popq	%rbp
	retq
.LBB12_10:
	leaq	-72(%rbp), %rcx
	callq	_ZN4core3ptr74drop_in_place$LT$alloc..vec..drain..Drain$LT$proc_macro..TokenTree$GT$$GT$17h4598902db16aedd9E
	jmp	.LBB12_9
	.seh_handlerdata
	.section	.text,"xr",one_only,_ZN108_$LT$proc_macro..TokenStream$u20$as$u20$core..iter..traits..collect..Extend$LT$proc_macro..TokenTree$GT$$GT$6extend17h046ae758a0b562eaE
	.seh_endproc
	.def	"?dtor$4@?0?_ZN108_$LT$proc_macro..TokenStream$u20$as$u20$core..iter..traits..collect..Extend$LT$proc_macro..TokenTree$GT$$GT$6extend17h046ae758a0b562eaE@4HA";
	.scl	3;
	.type	32;
	.endef
	.p2align	4, 0x90
"?dtor$4@?0?_ZN108_$LT$proc_macro..TokenStream$u20$as$u20$core..iter..traits..collect..Extend$LT$proc_macro..TokenTree$GT$$GT$6extend17h046ae758a0b562eaE@4HA":
.seh_proc "?dtor$4@?0?_ZN108_$LT$proc_macro..TokenStream$u20$as$u20$core..iter..traits..collect..Extend$LT$proc_macro..TokenTree$GT$$GT$6extend17h046ae758a0b562eaE@4HA"
.LBB12_4:
	movq	%rdx, 16(%rsp)
	pushq	%rbp
	.seh_pushreg %rbp
	subq	$32, %rsp
	.seh_stackalloc 32
	leaq	128(%rdx), %rbp
	.seh_endprologue
	testb	$1, 102(%rbp)
	jne	.LBB12_8
	jmp	.LBB12_7
.LBB12_7:
	addq	$32, %rsp
	popq	%rbp
	retq
.LBB12_8:
	leaq	-32(%rbp), %rcx
	callq	_ZN4core3ptr50drop_in_place$LT$proc_macro..ConcatTreesHelper$GT$17h24c7b41ca1214b09E
	nop
	addq	$32, %rsp
	popq	%rbp
	retq
.Lfunc_end1:
	.seh_handlerdata
	.section	.text,"xr",one_only,_ZN108_$LT$proc_macro..TokenStream$u20$as$u20$core..iter..traits..collect..Extend$LT$proc_macro..TokenTree$GT$$GT$6extend17h046ae758a0b562eaE
	.seh_endproc
	.section	.xdata,"dr",associative,_ZN108_$LT$proc_macro..TokenStream$u20$as$u20$core..iter..traits..collect..Extend$LT$proc_macro..TokenTree$GT$$GT$6extend17h046ae758a0b562eaE
	.p2align	2, 0x0
$cppxdata$_ZN108_$LT$proc_macro..TokenStream$u20$as$u20$core..iter..traits..collect..Extend$LT$proc_macro..TokenTree$GT$$GT$6extend17h046ae758a0b562eaE:
	.long	429065506
	.long	2
	.long	($stateUnwindMap$_ZN108_$LT$proc_macro..TokenStream$u20$as$u20$core..iter..traits..collect..Extend$LT$proc_macro..TokenTree$GT$$GT$6extend17h046ae758a0b562eaE)@IMGREL
	.long	0
	.long	0
	.long	4
	.long	($ip2state$_ZN108_$LT$proc_macro..TokenStream$u20$as$u20$core..iter..traits..collect..Extend$LT$proc_macro..TokenTree$GT$$GT$6extend17h046ae758a0b562eaE)@IMGREL
	.long	232
	.long	0
	.long	1
$stateUnwindMap$_ZN108_$LT$proc_macro..TokenStream$u20$as$u20$core..iter..traits..collect..Extend$LT$proc_macro..TokenTree$GT$$GT$6extend17h046ae758a0b562eaE:
	.long	-1
	.long	"?dtor$1@?0?_ZN108_$LT$proc_macro..TokenStream$u20$as$u20$core..iter..traits..collect..Extend$LT$proc_macro..TokenTree$GT$$GT$6extend17h046ae758a0b562eaE@4HA"@IMGREL
	.long	0
	.long	"?dtor$4@?0?_ZN108_$LT$proc_macro..TokenStream$u20$as$u20$core..iter..traits..collect..Extend$LT$proc_macro..TokenTree$GT$$GT$6extend17h046ae758a0b562eaE@4HA"@IMGREL
$ip2state$_ZN108_$LT$proc_macro..TokenStream$u20$as$u20$core..iter..traits..collect..Extend$LT$proc_macro..TokenTree$GT$$GT$6extend17h046ae758a0b562eaE:
	.long	.Lfunc_begin1@IMGREL
	.long	-1
	.long	.Ltmp2@IMGREL+1
	.long	0
	.long	.Ltmp6@IMGREL+1
	.long	1
	.long	.Ltmp9@IMGREL+1
	.long	-1
	.section	.text,"xr",one_only,_ZN108_$LT$proc_macro..TokenStream$u20$as$u20$core..iter..traits..collect..Extend$LT$proc_macro..TokenTree$GT$$GT$6extend17h046ae758a0b562eaE

	.def	_ZN108_$LT$proc_macro..TokenStream$u20$as$u20$core..iter..traits..collect..Extend$LT$proc_macro..TokenTree$GT$$GT$6extend28_$u7b$$u7b$closure$u7d$$u7d$17hf3992e0f1330e96dE;
	.scl	2;
	.type	32;
	.endef
	.section	.text,"xr",one_only,_ZN108_$LT$proc_macro..TokenStream$u20$as$u20$core..iter..traits..collect..Extend$LT$proc_macro..TokenTree$GT$$GT$6extend28_$u7b$$u7b$closure$u7d$$u7d$17hf3992e0f1330e96dE
	.globl	_ZN108_$LT$proc_macro..TokenStream$u20$as$u20$core..iter..traits..collect..Extend$LT$proc_macro..TokenTree$GT$$GT$6extend28_$u7b$$u7b$closure$u7d$$u7d$17hf3992e0f1330e96dE
	.p2align	4, 0x90
_ZN108_$LT$proc_macro..TokenStream$u20$as$u20$core..iter..traits..collect..Extend$LT$proc_macro..TokenTree$GT$$GT$6extend28_$u7b$$u7b$closure$u7d$$u7d$17hf3992e0f1330e96dE:
.seh_proc _ZN108_$LT$proc_macro..TokenStream$u20$as$u20$core..iter..traits..collect..Extend$LT$proc_macro..TokenTree$GT$$GT$6extend28_$u7b$$u7b$closure$u7d$$u7d$17hf3992e0f1330e96dE
	subq	$40, %rsp
	.seh_stackalloc 40
	.seh_endprologue
	movq	(%rcx), %rcx
	callq	_ZN10proc_macro17ConcatTreesHelper4push17hd61df02577967d59E
	nop
	addq	$40, %rsp
	retq
	.seh_endproc

	.def	_ZN10proc_macro11TokenStream3new17h43668adf7bc4e6bdE;
	.scl	3;
	.type	32;
	.endef
	.section	.text,"xr",one_only,_ZN10proc_macro11TokenStream3new17h43668adf7bc4e6bdE
	.p2align	4, 0x90
_ZN10proc_macro11TokenStream3new17h43668adf7bc4e6bdE:
	xorl	%eax, %eax
	retq

	.def	_ZN10proc_macro5Group10span_close17h9ca1054e2a1ad87cE;
	.scl	3;
	.type	32;
	.endef
	.section	.text,"xr",one_only,_ZN10proc_macro5Group10span_close17h9ca1054e2a1ad87cE
	.p2align	4, 0x90
_ZN10proc_macro5Group10span_close17h9ca1054e2a1ad87cE:
.seh_proc _ZN10proc_macro5Group10span_close17h9ca1054e2a1ad87cE
	pushq	%rax
	.seh_stackalloc 8
	.seh_endprologue
	movl	4(%rcx), %eax
	movl	%eax, 4(%rsp)
	movl	4(%rsp), %eax
	popq	%rcx
	retq
	.seh_endproc

	.def	_ZN10proc_macro5Group4span17hff0fc85276cc5fb0E;
	.scl	3;
	.type	32;
	.endef
	.section	.text,"xr",one_only,_ZN10proc_macro5Group4span17hff0fc85276cc5fb0E
	.p2align	4, 0x90
_ZN10proc_macro5Group4span17hff0fc85276cc5fb0E:
.seh_proc _ZN10proc_macro5Group4span17hff0fc85276cc5fb0E
	pushq	%rax
	.seh_stackalloc 8
	.seh_endprologue
	movl	8(%rcx), %eax
	movl	%eax, 4(%rsp)
	movl	4(%rsp), %eax
	popq	%rcx
	retq
	.seh_endproc

	.def	_ZN10proc_macro5Group8set_span17h1ea6bb0f7220d28dE;
	.scl	3;
	.type	32;
	.endef
	.section	.text,"xr",one_only,_ZN10proc_macro5Group8set_span17h1ea6bb0f7220d28dE
	.p2align	4, 0x90
_ZN10proc_macro5Group8set_span17h1ea6bb0f7220d28dE:
.seh_proc _ZN10proc_macro5Group8set_span17h1ea6bb0f7220d28dE
	subq	$16, %rsp
	.seh_stackalloc 16
	.seh_endprologue
	movl	%edx, 4(%rsp)
	movl	%edx, 8(%rsp)
	movl	%edx, 12(%rsp)
	movq	4(%rsp), %rax
	movq	%rax, (%rcx)
	movl	12(%rsp), %eax
	movl	%eax, 8(%rcx)
	addq	$16, %rsp
	retq
	.seh_endproc

	.def	_ZN10proc_macro5Group9delimiter17h8367db15fbea16c9E;
	.scl	3;
	.type	32;
	.endef
	.section	.text,"xr",one_only,_ZN10proc_macro5Group9delimiter17h8367db15fbea16c9E
	.p2align	4, 0x90
_ZN10proc_macro5Group9delimiter17h8367db15fbea16c9E:
	movb	16(%rcx), %al
	retq

	.def	_ZN10proc_macro5Group9span_open17h39fa3ffec210d9c3E;
	.scl	3;
	.type	32;
	.endef
	.section	.text,"xr",one_only,_ZN10proc_macro5Group9span_open17h39fa3ffec210d9c3E
	.p2align	4, 0x90
_ZN10proc_macro5Group9span_open17h39fa3ffec210d9c3E:
.seh_proc _ZN10proc_macro5Group9span_open17h39fa3ffec210d9c3E
	pushq	%rax
	.seh_stackalloc 8
	.seh_endprologue
	movl	(%rcx), %eax
	movl	%eax, 4(%rsp)
	movl	4(%rsp), %eax
	popq	%rcx
	retq
	.seh_endproc

	.def	_ZN10proc_macro5Ident4span17h24f24d742f7d7c91E;
	.scl	3;
	.type	32;
	.endef
	.section	.text,"xr",one_only,_ZN10proc_macro5Ident4span17h24f24d742f7d7c91E
	.p2align	4, 0x90
_ZN10proc_macro5Ident4span17h24f24d742f7d7c91E:
.seh_proc _ZN10proc_macro5Ident4span17h24f24d742f7d7c91E
	pushq	%rax
	.seh_stackalloc 8
	.seh_endprologue
	movl	4(%rcx), %eax
	movl	%eax, 4(%rsp)
	movl	4(%rsp), %eax
	popq	%rcx
	retq
	.seh_endproc

	.def	_ZN10proc_macro5Ident8set_span17h78626ebc1252d0c9E;
	.scl	3;
	.type	32;
	.endef
	.section	.text,"xr",one_only,_ZN10proc_macro5Ident8set_span17h78626ebc1252d0c9E
	.p2align	4, 0x90
_ZN10proc_macro5Ident8set_span17h78626ebc1252d0c9E:
	movl	%edx, 4(%rcx)
	retq

	.def	_ZN10proc_macro5Punct4span17hb40d0e3a076c4c0dE;
	.scl	3;
	.type	32;
	.endef
	.section	.text,"xr",one_only,_ZN10proc_macro5Punct4span17hb40d0e3a076c4c0dE
	.p2align	4, 0x90
_ZN10proc_macro5Punct4span17hb40d0e3a076c4c0dE:
.seh_proc _ZN10proc_macro5Punct4span17hb40d0e3a076c4c0dE
	pushq	%rax
	.seh_stackalloc 8
	.seh_endprologue
	movl	(%rcx), %eax
	movl	%eax, 4(%rsp)
	movl	4(%rsp), %eax
	popq	%rcx
	retq
	.seh_endproc

	.def	_ZN10proc_macro5Punct7as_char17h0df9f39af78aa22cE;
	.scl	3;
	.type	32;
	.endef
	.section	.text,"xr",one_only,_ZN10proc_macro5Punct7as_char17h0df9f39af78aa22cE
	.p2align	4, 0x90
_ZN10proc_macro5Punct7as_char17h0df9f39af78aa22cE:
	movzbl	4(%rcx), %eax
	retq

	.def	_ZN10proc_macro5Punct7spacing17h0aea047c30002570E;
	.scl	3;
	.type	32;
	.endef
	.section	.text,"xr",one_only,_ZN10proc_macro5Punct7spacing17h0aea047c30002570E
	.p2align	4, 0x90
_ZN10proc_macro5Punct7spacing17h0aea047c30002570E:
.seh_proc _ZN10proc_macro5Punct7spacing17h0aea047c30002570E
	pushq	%rax
	.seh_stackalloc 8
	.seh_endprologue
	testb	$1, 5(%rcx)
	jne	.LBB24_2
	movb	$1, 7(%rsp)
	jmp	.LBB24_3
.LBB24_2:
	movb	$0, 7(%rsp)
.LBB24_3:
	movb	7(%rsp), %al
	andb	$1, %al
	movzbl	%al, %eax
	popq	%rcx
	retq
	.seh_endproc

	.def	_ZN10proc_macro5Punct8set_span17h4d27d65551552ba0E;
	.scl	3;
	.type	32;
	.endef
	.section	.text,"xr",one_only,_ZN10proc_macro5Punct8set_span17h4d27d65551552ba0E
	.p2align	4, 0x90
_ZN10proc_macro5Punct8set_span17h4d27d65551552ba0E:
	movl	%edx, (%rcx)
	retq

	.def	_ZN10proc_macro7Literal4span17h43abebaa80738c4cE;
	.scl	3;
	.type	32;
	.endef
	.section	.text,"xr",one_only,_ZN10proc_macro7Literal4span17h43abebaa80738c4cE
	.p2align	4, 0x90
_ZN10proc_macro7Literal4span17h43abebaa80738c4cE:
.seh_proc _ZN10proc_macro7Literal4span17h43abebaa80738c4cE
	pushq	%rax
	.seh_stackalloc 8
	.seh_endprologue
	movl	4(%rcx), %eax
	movl	%eax, 4(%rsp)
	movl	4(%rsp), %eax
	popq	%rcx
	retq
	.seh_endproc

	.def	_ZN10proc_macro7Literal8set_span17h3611cbced591d770E;
	.scl	3;
	.type	32;
	.endef
	.section	.text,"xr",one_only,_ZN10proc_macro7Literal8set_span17h3611cbced591d770E
	.p2align	4, 0x90
_ZN10proc_macro7Literal8set_span17h3611cbced591d770E:
	movl	%edx, 4(%rcx)
	retq

	.def	_ZN110_$LT$core..iter..adapters..enumerate..Enumerate$LT$I$GT$$u20$as$u20$core..iter..traits..iterator..Iterator$GT$4next17h10323b5862021bfdE;
	.scl	2;
	.type	32;
	.endef
	.section	.text,"xr",one_only,_ZN110_$LT$core..iter..adapters..enumerate..Enumerate$LT$I$GT$$u20$as$u20$core..iter..traits..iterator..Iterator$GT$4next17h10323b5862021bfdE
	.globl	_ZN110_$LT$core..iter..adapters..enumerate..Enumerate$LT$I$GT$$u20$as$u20$core..iter..traits..iterator..Iterator$GT$4next17h10323b5862021bfdE
	.p2align	4, 0x90
_ZN110_$LT$core..iter..adapters..enumerate..Enumerate$LT$I$GT$$u20$as$u20$core..iter..traits..iterator..Iterator$GT$4next17h10323b5862021bfdE:
.Lfunc_begin2:
.seh_proc _ZN110_$LT$core..iter..adapters..enumerate..Enumerate$LT$I$GT$$u20$as$u20$core..iter..traits..iterator..Iterator$GT$4next17h10323b5862021bfdE
	.seh_handler __CxxFrameHandler3, @unwind, @except
	pushq	%rbp
	.seh_pushreg %rbp
	subq	$128, %rsp
	.seh_stackalloc 128
	leaq	128(%rsp), %rbp
	.seh_setframe %rbp, 128
	.seh_endprologue
	movq	$-2, -8(%rbp)
	movq	%rcx, -64(%rbp)
	callq	_ZN91_$LT$core..slice..iter..Iter$LT$T$GT$$u20$as$u20$core..iter..traits..iterator..Iterator$GT$4next17h685698b19764d073E
	movq	%rax, -32(%rbp)
	movq	-32(%rbp), %rax
	cmpq	$0, %rax
	sete	%al
	testb	$1, %al
	jne	.LBB28_1
	jmp	.LBB28_2
.LBB28_1:
	movq	$0, -40(%rbp)
	jmp	.LBB28_3
.LBB28_2:
	movq	-32(%rbp), %rax
	movq	%rax, -40(%rbp)
.LBB28_3:
	movq	-40(%rbp), %rdx
	xorl	%eax, %eax
	movl	$1, %ecx
	cmpq	$0, %rdx
	cmoveq	%rcx, %rax
	cmpq	$0, %rax
	jne	.LBB28_5
	movq	-64(%rbp), %rax
	movq	-40(%rbp), %rcx
	movq	%rcx, -88(%rbp)
	movq	16(%rax), %rcx
	movq	%rcx, -80(%rbp)
	movq	16(%rax), %rax
	addq	$1, %rax
	movq	%rax, -72(%rbp)
	setb	%al
	testb	$1, %al
	jne	.LBB28_7
	jmp	.LBB28_6
.LBB28_5:
	movq	$0, -48(%rbp)
	jmp	.LBB28_10
.LBB28_6:
	movq	-88(%rbp), %rax
	movq	-80(%rbp), %rcx
	movq	-64(%rbp), %rdx
	movq	-72(%rbp), %r8
	movq	%r8, 16(%rdx)
	movq	%rcx, -24(%rbp)
	movq	%rax, -16(%rbp)
	movq	-24(%rbp), %rcx
	movq	-16(%rbp), %rax
	movq	%rcx, -56(%rbp)
	movq	%rax, -48(%rbp)
	jmp	.LBB28_10
.LBB28_7:
.Ltmp10:
	leaq	str.0(%rip), %rcx
	leaq	__unnamed_3(%rip), %r8
	movl	$28, %edx
	callq	_ZN4core9panicking5panic17hb11f2d409f96600eE
.Ltmp11:
	jmp	.LBB28_9
.LBB28_9:
	ud2
.LBB28_10:
	movq	-56(%rbp), %rax
	movq	-48(%rbp), %rdx
	addq	$128, %rsp
	popq	%rbp
	retq
	.seh_handlerdata
	.long	($cppxdata$_ZN110_$LT$core..iter..adapters..enumerate..Enumerate$LT$I$GT$$u20$as$u20$core..iter..traits..iterator..Iterator$GT$4next17h10323b5862021bfdE)@IMGREL
	.section	.text,"xr",one_only,_ZN110_$LT$core..iter..adapters..enumerate..Enumerate$LT$I$GT$$u20$as$u20$core..iter..traits..iterator..Iterator$GT$4next17h10323b5862021bfdE
	.seh_endproc
	.def	"?dtor$8@?0?_ZN110_$LT$core..iter..adapters..enumerate..Enumerate$LT$I$GT$$u20$as$u20$core..iter..traits..iterator..Iterator$GT$4next17h10323b5862021bfdE@4HA";
	.scl	3;
	.type	32;
	.endef
	.p2align	4, 0x90
"?dtor$8@?0?_ZN110_$LT$core..iter..adapters..enumerate..Enumerate$LT$I$GT$$u20$as$u20$core..iter..traits..iterator..Iterator$GT$4next17h10323b5862021bfdE@4HA":
.seh_proc "?dtor$8@?0?_ZN110_$LT$core..iter..adapters..enumerate..Enumerate$LT$I$GT$$u20$as$u20$core..iter..traits..iterator..Iterator$GT$4next17h10323b5862021bfdE@4HA"
.LBB28_8:
	movq	%rdx, 16(%rsp)
	pushq	%rbp
	.seh_pushreg %rbp
	subq	$32, %rsp
	.seh_stackalloc 32
	leaq	128(%rdx), %rbp
	.seh_endprologue
	addq	$32, %rsp
	popq	%rbp
	retq
.Lfunc_end2:
	.seh_handlerdata
	.section	.text,"xr",one_only,_ZN110_$LT$core..iter..adapters..enumerate..Enumerate$LT$I$GT$$u20$as$u20$core..iter..traits..iterator..Iterator$GT$4next17h10323b5862021bfdE
	.seh_endproc
	.section	.xdata,"dr",associative,_ZN110_$LT$core..iter..adapters..enumerate..Enumerate$LT$I$GT$$u20$as$u20$core..iter..traits..iterator..Iterator$GT$4next17h10323b5862021bfdE
	.p2align	2, 0x0
$cppxdata$_ZN110_$LT$core..iter..adapters..enumerate..Enumerate$LT$I$GT$$u20$as$u20$core..iter..traits..iterator..Iterator$GT$4next17h10323b5862021bfdE:
	.long	429065506
	.long	1
	.long	($stateUnwindMap$_ZN110_$LT$core..iter..adapters..enumerate..Enumerate$LT$I$GT$$u20$as$u20$core..iter..traits..iterator..Iterator$GT$4next17h10323b5862021bfdE)@IMGREL
	.long	0
	.long	0
	.long	3
	.long	($ip2state$_ZN110_$LT$core..iter..adapters..enumerate..Enumerate$LT$I$GT$$u20$as$u20$core..iter..traits..iterator..Iterator$GT$4next17h10323b5862021bfdE)@IMGREL
	.long	120
	.long	0
	.long	1
$stateUnwindMap$_ZN110_$LT$core..iter..adapters..enumerate..Enumerate$LT$I$GT$$u20$as$u20$core..iter..traits..iterator..Iterator$GT$4next17h10323b5862021bfdE:
	.long	-1
	.long	"?dtor$8@?0?_ZN110_$LT$core..iter..adapters..enumerate..Enumerate$LT$I$GT$$u20$as$u20$core..iter..traits..iterator..Iterator$GT$4next17h10323b5862021bfdE@4HA"@IMGREL
$ip2state$_ZN110_$LT$core..iter..adapters..enumerate..Enumerate$LT$I$GT$$u20$as$u20$core..iter..traits..iterator..Iterator$GT$4next17h10323b5862021bfdE:
	.long	.Lfunc_begin2@IMGREL
	.long	-1
	.long	.Ltmp10@IMGREL+1
	.long	0
	.long	.Ltmp11@IMGREL+1
	.long	-1
	.section	.text,"xr",one_only,_ZN110_$LT$core..iter..adapters..enumerate..Enumerate$LT$I$GT$$u20$as$u20$core..iter..traits..iterator..Iterator$GT$4next17h10323b5862021bfdE

	.def	_ZN110_$LT$core..iter..adapters..enumerate..Enumerate$LT$I$GT$$u20$as$u20$core..iter..traits..iterator..Iterator$GT$4next17h5b82f43136e10b8cE;
	.scl	2;
	.type	32;
	.endef
	.section	.text,"xr",one_only,_ZN110_$LT$core..iter..adapters..enumerate..Enumerate$LT$I$GT$$u20$as$u20$core..iter..traits..iterator..Iterator$GT$4next17h5b82f43136e10b8cE
	.globl	_ZN110_$LT$core..iter..adapters..enumerate..Enumerate$LT$I$GT$$u20$as$u20$core..iter..traits..iterator..Iterator$GT$4next17h5b82f43136e10b8cE
	.p2align	4, 0x90
_ZN110_$LT$core..iter..adapters..enumerate..Enumerate$LT$I$GT$$u20$as$u20$core..iter..traits..iterator..Iterator$GT$4next17h5b82f43136e10b8cE:
.Lfunc_begin3:
.seh_proc _ZN110_$LT$core..iter..adapters..enumerate..Enumerate$LT$I$GT$$u20$as$u20$core..iter..traits..iterator..Iterator$GT$4next17h5b82f43136e10b8cE
	.seh_handler __CxxFrameHandler3, @unwind, @except
	pushq	%rbp
	.seh_pushreg %rbp
	subq	$128, %rsp
	.seh_stackalloc 128
	leaq	128(%rsp), %rbp
	.seh_setframe %rbp, 128
	.seh_endprologue
	movq	$-2, -8(%rbp)
	movq	%rcx, -64(%rbp)
	callq	_ZN91_$LT$core..slice..iter..Iter$LT$T$GT$$u20$as$u20$core..iter..traits..iterator..Iterator$GT$4next17hf6ae0bb5e807a095E
	movq	%rax, -32(%rbp)
	movq	-32(%rbp), %rax
	cmpq	$0, %rax
	sete	%al
	testb	$1, %al
	jne	.LBB29_1
	jmp	.LBB29_2
.LBB29_1:
	movq	$0, -40(%rbp)
	jmp	.LBB29_3
.LBB29_2:
	movq	-32(%rbp), %rax
	movq	%rax, -40(%rbp)
.LBB29_3:
	movq	-40(%rbp), %rdx
	xorl	%eax, %eax
	movl	$1, %ecx
	cmpq	$0, %rdx
	cmoveq	%rcx, %rax
	cmpq	$0, %rax
	jne	.LBB29_5
	movq	-64(%rbp), %rax
	movq	-40(%rbp), %rcx
	movq	%rcx, -88(%rbp)
	movq	16(%rax), %rcx
	movq	%rcx, -80(%rbp)
	movq	16(%rax), %rax
	addq	$1, %rax
	movq	%rax, -72(%rbp)
	setb	%al
	testb	$1, %al
	jne	.LBB29_7
	jmp	.LBB29_6
.LBB29_5:
	movq	$0, -48(%rbp)
	jmp	.LBB29_10
.LBB29_6:
	movq	-88(%rbp), %rax
	movq	-80(%rbp), %rcx
	movq	-64(%rbp), %rdx
	movq	-72(%rbp), %r8
	movq	%r8, 16(%rdx)
	movq	%rcx, -24(%rbp)
	movq	%rax, -16(%rbp)
	movq	-24(%rbp), %rcx
	movq	-16(%rbp), %rax
	movq	%rcx, -56(%rbp)
	movq	%rax, -48(%rbp)
	jmp	.LBB29_10
.LBB29_7:
.Ltmp12:
	leaq	str.0(%rip), %rcx
	leaq	__unnamed_3(%rip), %r8
	movl	$28, %edx
	callq	_ZN4core9panicking5panic17hb11f2d409f96600eE
.Ltmp13:
	jmp	.LBB29_9
.LBB29_9:
	ud2
.LBB29_10:
	movq	-56(%rbp), %rax
	movq	-48(%rbp), %rdx
	addq	$128, %rsp
	popq	%rbp
	retq
	.seh_handlerdata
	.long	($cppxdata$_ZN110_$LT$core..iter..adapters..enumerate..Enumerate$LT$I$GT$$u20$as$u20$core..iter..traits..iterator..Iterator$GT$4next17h5b82f43136e10b8cE)@IMGREL
	.section	.text,"xr",one_only,_ZN110_$LT$core..iter..adapters..enumerate..Enumerate$LT$I$GT$$u20$as$u20$core..iter..traits..iterator..Iterator$GT$4next17h5b82f43136e10b8cE
	.seh_endproc
	.def	"?dtor$8@?0?_ZN110_$LT$core..iter..adapters..enumerate..Enumerate$LT$I$GT$$u20$as$u20$core..iter..traits..iterator..Iterator$GT$4next17h5b82f43136e10b8cE@4HA";
	.scl	3;
	.type	32;
	.endef
	.p2align	4, 0x90
"?dtor$8@?0?_ZN110_$LT$core..iter..adapters..enumerate..Enumerate$LT$I$GT$$u20$as$u20$core..iter..traits..iterator..Iterator$GT$4next17h5b82f43136e10b8cE@4HA":
.seh_proc "?dtor$8@?0?_ZN110_$LT$core..iter..adapters..enumerate..Enumerate$LT$I$GT$$u20$as$u20$core..iter..traits..iterator..Iterator$GT$4next17h5b82f43136e10b8cE@4HA"
.LBB29_8:
	movq	%rdx, 16(%rsp)
	pushq	%rbp
	.seh_pushreg %rbp
	subq	$32, %rsp
	.seh_stackalloc 32
	leaq	128(%rdx), %rbp
	.seh_endprologue
	addq	$32, %rsp
	popq	%rbp
	retq
.Lfunc_end3:
	.seh_handlerdata
	.section	.text,"xr",one_only,_ZN110_$LT$core..iter..adapters..enumerate..Enumerate$LT$I$GT$$u20$as$u20$core..iter..traits..iterator..Iterator$GT$4next17h5b82f43136e10b8cE
	.seh_endproc
	.section	.xdata,"dr",associative,_ZN110_$LT$core..iter..adapters..enumerate..Enumerate$LT$I$GT$$u20$as$u20$core..iter..traits..iterator..Iterator$GT$4next17h5b82f43136e10b8cE
	.p2align	2, 0x0
$cppxdata$_ZN110_$LT$core..iter..adapters..enumerate..Enumerate$LT$I$GT$$u20$as$u20$core..iter..traits..iterator..Iterator$GT$4next17h5b82f43136e10b8cE:
	.long	429065506
	.long	1
	.long	($stateUnwindMap$_ZN110_$LT$core..iter..adapters..enumerate..Enumerate$LT$I$GT$$u20$as$u20$core..iter..traits..iterator..Iterator$GT$4next17h5b82f43136e10b8cE)@IMGREL
	.long	0
	.long	0
	.long	3
	.long	($ip2state$_ZN110_$LT$core..iter..adapters..enumerate..Enumerate$LT$I$GT$$u20$as$u20$core..iter..traits..iterator..Iterator$GT$4next17h5b82f43136e10b8cE)@IMGREL
	.long	120
	.long	0
	.long	1
$stateUnwindMap$_ZN110_$LT$core..iter..adapters..enumerate..Enumerate$LT$I$GT$$u20$as$u20$core..iter..traits..iterator..Iterator$GT$4next17h5b82f43136e10b8cE:
	.long	-1
	.long	"?dtor$8@?0?_ZN110_$LT$core..iter..adapters..enumerate..Enumerate$LT$I$GT$$u20$as$u20$core..iter..traits..iterator..Iterator$GT$4next17h5b82f43136e10b8cE@4HA"@IMGREL
$ip2state$_ZN110_$LT$core..iter..adapters..enumerate..Enumerate$LT$I$GT$$u20$as$u20$core..iter..traits..iterator..Iterator$GT$4next17h5b82f43136e10b8cE:
	.long	.Lfunc_begin3@IMGREL
	.long	-1
	.long	.Ltmp12@IMGREL+1
	.long	0
	.long	.Ltmp13@IMGREL+1
	.long	-1
	.section	.text,"xr",one_only,_ZN110_$LT$core..iter..adapters..enumerate..Enumerate$LT$I$GT$$u20$as$u20$core..iter..traits..iterator..Iterator$GT$4next17h5b82f43136e10b8cE

	.def	_ZN110_$LT$core..iter..adapters..enumerate..Enumerate$LT$I$GT$$u20$as$u20$core..iter..traits..iterator..Iterator$GT$4next17hb7599405e912b5cdE;
	.scl	2;
	.type	32;
	.endef
	.section	.text,"xr",one_only,_ZN110_$LT$core..iter..adapters..enumerate..Enumerate$LT$I$GT$$u20$as$u20$core..iter..traits..iterator..Iterator$GT$4next17hb7599405e912b5cdE
	.globl	_ZN110_$LT$core..iter..adapters..enumerate..Enumerate$LT$I$GT$$u20$as$u20$core..iter..traits..iterator..Iterator$GT$4next17hb7599405e912b5cdE
	.p2align	4, 0x90
_ZN110_$LT$core..iter..adapters..enumerate..Enumerate$LT$I$GT$$u20$as$u20$core..iter..traits..iterator..Iterator$GT$4next17hb7599405e912b5cdE:
.Lfunc_begin4:
.seh_proc _ZN110_$LT$core..iter..adapters..enumerate..Enumerate$LT$I$GT$$u20$as$u20$core..iter..traits..iterator..Iterator$GT$4next17hb7599405e912b5cdE
	.seh_handler __CxxFrameHandler3, @unwind, @except
	pushq	%rbp
	.seh_pushreg %rbp
	subq	$128, %rsp
	.seh_stackalloc 128
	leaq	128(%rsp), %rbp
	.seh_setframe %rbp, 128
	.seh_endprologue
	movq	$-2, -8(%rbp)
	movq	%rcx, -64(%rbp)
	callq	_ZN91_$LT$core..slice..iter..Iter$LT$T$GT$$u20$as$u20$core..iter..traits..iterator..Iterator$GT$4next17h5623c836b4b25310E
	movq	%rax, -32(%rbp)
	movq	-32(%rbp), %rax
	cmpq	$0, %rax
	sete	%al
	testb	$1, %al
	jne	.LBB30_1
	jmp	.LBB30_2
.LBB30_1:
	movq	$0, -40(%rbp)
	jmp	.LBB30_3
.LBB30_2:
	movq	-32(%rbp), %rax
	movq	%rax, -40(%rbp)
.LBB30_3:
	movq	-40(%rbp), %rdx
	xorl	%eax, %eax
	movl	$1, %ecx
	cmpq	$0, %rdx
	cmoveq	%rcx, %rax
	cmpq	$0, %rax
	jne	.LBB30_5
	movq	-64(%rbp), %rax
	movq	-40(%rbp), %rcx
	movq	%rcx, -88(%rbp)
	movq	16(%rax), %rcx
	movq	%rcx, -80(%rbp)
	movq	16(%rax), %rax
	addq	$1, %rax
	movq	%rax, -72(%rbp)
	setb	%al
	testb	$1, %al
	jne	.LBB30_7
	jmp	.LBB30_6
.LBB30_5:
	movq	$0, -48(%rbp)
	jmp	.LBB30_10
.LBB30_6:
	movq	-88(%rbp), %rax
	movq	-80(%rbp), %rcx
	movq	-64(%rbp), %rdx
	movq	-72(%rbp), %r8
	movq	%r8, 16(%rdx)
	movq	%rcx, -24(%rbp)
	movq	%rax, -16(%rbp)
	movq	-24(%rbp), %rcx
	movq	-16(%rbp), %rax
	movq	%rcx, -56(%rbp)
	movq	%rax, -48(%rbp)
	jmp	.LBB30_10
.LBB30_7:
.Ltmp14:
	leaq	str.0(%rip), %rcx
	leaq	__unnamed_3(%rip), %r8
	movl	$28, %edx
	callq	_ZN4core9panicking5panic17hb11f2d409f96600eE
.Ltmp15:
	jmp	.LBB30_9
.LBB30_9:
	ud2
.LBB30_10:
	movq	-56(%rbp), %rax
	movq	-48(%rbp), %rdx
	addq	$128, %rsp
	popq	%rbp
	retq
	.seh_handlerdata
	.long	($cppxdata$_ZN110_$LT$core..iter..adapters..enumerate..Enumerate$LT$I$GT$$u20$as$u20$core..iter..traits..iterator..Iterator$GT$4next17hb7599405e912b5cdE)@IMGREL
	.section	.text,"xr",one_only,_ZN110_$LT$core..iter..adapters..enumerate..Enumerate$LT$I$GT$$u20$as$u20$core..iter..traits..iterator..Iterator$GT$4next17hb7599405e912b5cdE
	.seh_endproc
	.def	"?dtor$8@?0?_ZN110_$LT$core..iter..adapters..enumerate..Enumerate$LT$I$GT$$u20$as$u20$core..iter..traits..iterator..Iterator$GT$4next17hb7599405e912b5cdE@4HA";
	.scl	3;
	.type	32;
	.endef
	.p2align	4, 0x90
"?dtor$8@?0?_ZN110_$LT$core..iter..adapters..enumerate..Enumerate$LT$I$GT$$u20$as$u20$core..iter..traits..iterator..Iterator$GT$4next17hb7599405e912b5cdE@4HA":
.seh_proc "?dtor$8@?0?_ZN110_$LT$core..iter..adapters..enumerate..Enumerate$LT$I$GT$$u20$as$u20$core..iter..traits..iterator..Iterator$GT$4next17hb7599405e912b5cdE@4HA"
.LBB30_8:
	movq	%rdx, 16(%rsp)
	pushq	%rbp
	.seh_pushreg %rbp
	subq	$32, %rsp
	.seh_stackalloc 32
	leaq	128(%rdx), %rbp
	.seh_endprologue
	addq	$32, %rsp
	popq	%rbp
	retq
.Lfunc_end4:
	.seh_handlerdata
	.section	.text,"xr",one_only,_ZN110_$LT$core..iter..adapters..enumerate..Enumerate$LT$I$GT$$u20$as$u20$core..iter..traits..iterator..Iterator$GT$4next17hb7599405e912b5cdE
	.seh_endproc
	.section	.xdata,"dr",associative,_ZN110_$LT$core..iter..adapters..enumerate..Enumerate$LT$I$GT$$u20$as$u20$core..iter..traits..iterator..Iterator$GT$4next17hb7599405e912b5cdE
	.p2align	2, 0x0
$cppxdata$_ZN110_$LT$core..iter..adapters..enumerate..Enumerate$LT$I$GT$$u20$as$u20$core..iter..traits..iterator..Iterator$GT$4next17hb7599405e912b5cdE:
	.long	429065506
	.long	1
	.long	($stateUnwindMap$_ZN110_$LT$core..iter..adapters..enumerate..Enumerate$LT$I$GT$$u20$as$u20$core..iter..traits..iterator..Iterator$GT$4next17hb7599405e912b5cdE)@IMGREL
	.long	0
	.long	0
	.long	3
	.long	($ip2state$_ZN110_$LT$core..iter..adapters..enumerate..Enumerate$LT$I$GT$$u20$as$u20$core..iter..traits..iterator..Iterator$GT$4next17hb7599405e912b5cdE)@IMGREL
	.long	120
	.long	0
	.long	1
$stateUnwindMap$_ZN110_$LT$core..iter..adapters..enumerate..Enumerate$LT$I$GT$$u20$as$u20$core..iter..traits..iterator..Iterator$GT$4next17hb7599405e912b5cdE:
	.long	-1
	.long	"?dtor$8@?0?_ZN110_$LT$core..iter..adapters..enumerate..Enumerate$LT$I$GT$$u20$as$u20$core..iter..traits..iterator..Iterator$GT$4next17hb7599405e912b5cdE@4HA"@IMGREL
$ip2state$_ZN110_$LT$core..iter..adapters..enumerate..Enumerate$LT$I$GT$$u20$as$u20$core..iter..traits..iterator..Iterator$GT$4next17hb7599405e912b5cdE:
	.long	.Lfunc_begin4@IMGREL
	.long	-1
	.long	.Ltmp14@IMGREL+1
	.long	0
	.long	.Ltmp15@IMGREL+1
	.long	-1
	.section	.text,"xr",one_only,_ZN110_$LT$core..iter..adapters..enumerate..Enumerate$LT$I$GT$$u20$as$u20$core..iter..traits..iterator..Iterator$GT$4next17hb7599405e912b5cdE

	.def	_ZN110_$LT$core..iter..adapters..enumerate..Enumerate$LT$I$GT$$u20$as$u20$core..iter..traits..iterator..Iterator$GT$4next17hf58ab0b237f5eeafE;
	.scl	2;
	.type	32;
	.endef
	.section	.text,"xr",one_only,_ZN110_$LT$core..iter..adapters..enumerate..Enumerate$LT$I$GT$$u20$as$u20$core..iter..traits..iterator..Iterator$GT$4next17hf58ab0b237f5eeafE
	.globl	_ZN110_$LT$core..iter..adapters..enumerate..Enumerate$LT$I$GT$$u20$as$u20$core..iter..traits..iterator..Iterator$GT$4next17hf58ab0b237f5eeafE
	.p2align	4, 0x90
_ZN110_$LT$core..iter..adapters..enumerate..Enumerate$LT$I$GT$$u20$as$u20$core..iter..traits..iterator..Iterator$GT$4next17hf58ab0b237f5eeafE:
.Lfunc_begin5:
.seh_proc _ZN110_$LT$core..iter..adapters..enumerate..Enumerate$LT$I$GT$$u20$as$u20$core..iter..traits..iterator..Iterator$GT$4next17hf58ab0b237f5eeafE
	.seh_handler __CxxFrameHandler3, @unwind, @except
	pushq	%rbp
	.seh_pushreg %rbp
	subq	$112, %rsp
	.seh_stackalloc 112
	leaq	112(%rsp), %rbp
	.seh_setframe %rbp, 112
	.seh_endprologue
	movq	$-2, -8(%rbp)
	movq	%rdx, -56(%rbp)
	movq	%rcx, %rax
	movq	-56(%rbp), %rcx
	movq	%rax, -48(%rbp)
	movq	%rax, -40(%rbp)
	callq	_ZN81_$LT$core..str..iter..Bytes$u20$as$u20$core..iter..traits..iterator..Iterator$GT$4next17h58506d95f4b55fc0E
	movb	%dl, -25(%rbp)
	movb	%al, -26(%rbp)
	movb	-26(%rbp), %al
	andb	$1, %al
	movzbl	%al, %eax
	cmpq	$0, %rax
	jne	.LBB31_2
	movb	$1, -28(%rbp)
	jmp	.LBB31_3
.LBB31_2:
	movb	-25(%rbp), %al
	movb	%al, -27(%rbp)
	movb	$0, -28(%rbp)
.LBB31_3:
	movb	-28(%rbp), %al
	andb	$1, %al
	movzbl	%al, %eax
	cmpq	$0, %rax
	jne	.LBB31_5
	movq	-56(%rbp), %rax
	movb	-27(%rbp), %cl
	movb	%cl, -73(%rbp)
	movq	16(%rax), %rcx
	movq	%rcx, -72(%rbp)
	movq	16(%rax), %rax
	addq	$1, %rax
	movq	%rax, -64(%rbp)
	setb	%al
	testb	$1, %al
	jne	.LBB31_7
	jmp	.LBB31_6
.LBB31_5:
	movq	-48(%rbp), %rax
	movq	$0, (%rax)
	jmp	.LBB31_10
.LBB31_6:
	movq	-48(%rbp), %rax
	movb	-73(%rbp), %cl
	movq	-72(%rbp), %rdx
	movq	-56(%rbp), %r8
	movq	-64(%rbp), %r9
	movq	%r9, 16(%r8)
	movq	%rdx, -24(%rbp)
	movb	%cl, -16(%rbp)
	movq	-24(%rbp), %rdx
	movb	-16(%rbp), %cl
	movq	%rdx, 8(%rax)
	movb	%cl, 16(%rax)
	movq	$1, (%rax)
	jmp	.LBB31_10
.LBB31_7:
.Ltmp16:
	leaq	str.0(%rip), %rcx
	leaq	__unnamed_3(%rip), %r8
	movl	$28, %edx
	callq	_ZN4core9panicking5panic17hb11f2d409f96600eE
.Ltmp17:
	jmp	.LBB31_9
.LBB31_9:
	ud2
.LBB31_10:
	movq	-40(%rbp), %rax
	addq	$112, %rsp
	popq	%rbp
	retq
	.seh_handlerdata
	.long	($cppxdata$_ZN110_$LT$core..iter..adapters..enumerate..Enumerate$LT$I$GT$$u20$as$u20$core..iter..traits..iterator..Iterator$GT$4next17hf58ab0b237f5eeafE)@IMGREL
	.section	.text,"xr",one_only,_ZN110_$LT$core..iter..adapters..enumerate..Enumerate$LT$I$GT$$u20$as$u20$core..iter..traits..iterator..Iterator$GT$4next17hf58ab0b237f5eeafE
	.seh_endproc
	.def	"?dtor$8@?0?_ZN110_$LT$core..iter..adapters..enumerate..Enumerate$LT$I$GT$$u20$as$u20$core..iter..traits..iterator..Iterator$GT$4next17hf58ab0b237f5eeafE@4HA";
	.scl	3;
	.type	32;
	.endef
	.p2align	4, 0x90
"?dtor$8@?0?_ZN110_$LT$core..iter..adapters..enumerate..Enumerate$LT$I$GT$$u20$as$u20$core..iter..traits..iterator..Iterator$GT$4next17hf58ab0b237f5eeafE@4HA":
.seh_proc "?dtor$8@?0?_ZN110_$LT$core..iter..adapters..enumerate..Enumerate$LT$I$GT$$u20$as$u20$core..iter..traits..iterator..Iterator$GT$4next17hf58ab0b237f5eeafE@4HA"
.LBB31_8:
	movq	%rdx, 16(%rsp)
	pushq	%rbp
	.seh_pushreg %rbp
	subq	$32, %rsp
	.seh_stackalloc 32
	leaq	112(%rdx), %rbp
	.seh_endprologue
	addq	$32, %rsp
	popq	%rbp
	retq
.Lfunc_end5:
	.seh_handlerdata
	.section	.text,"xr",one_only,_ZN110_$LT$core..iter..adapters..enumerate..Enumerate$LT$I$GT$$u20$as$u20$core..iter..traits..iterator..Iterator$GT$4next17hf58ab0b237f5eeafE
	.seh_endproc
	.section	.xdata,"dr",associative,_ZN110_$LT$core..iter..adapters..enumerate..Enumerate$LT$I$GT$$u20$as$u20$core..iter..traits..iterator..Iterator$GT$4next17hf58ab0b237f5eeafE
	.p2align	2, 0x0
$cppxdata$_ZN110_$LT$core..iter..adapters..enumerate..Enumerate$LT$I$GT$$u20$as$u20$core..iter..traits..iterator..Iterator$GT$4next17hf58ab0b237f5eeafE:
	.long	429065506
	.long	1
	.long	($stateUnwindMap$_ZN110_$LT$core..iter..adapters..enumerate..Enumerate$LT$I$GT$$u20$as$u20$core..iter..traits..iterator..Iterator$GT$4next17hf58ab0b237f5eeafE)@IMGREL
	.long	0
	.long	0
	.long	3
	.long	($ip2state$_ZN110_$LT$core..iter..adapters..enumerate..Enumerate$LT$I$GT$$u20$as$u20$core..iter..traits..iterator..Iterator$GT$4next17hf58ab0b237f5eeafE)@IMGREL
	.long	104
	.long	0
	.long	1
$stateUnwindMap$_ZN110_$LT$core..iter..adapters..enumerate..Enumerate$LT$I$GT$$u20$as$u20$core..iter..traits..iterator..Iterator$GT$4next17hf58ab0b237f5eeafE:
	.long	-1
	.long	"?dtor$8@?0?_ZN110_$LT$core..iter..adapters..enumerate..Enumerate$LT$I$GT$$u20$as$u20$core..iter..traits..iterator..Iterator$GT$4next17hf58ab0b237f5eeafE@4HA"@IMGREL
$ip2state$_ZN110_$LT$core..iter..adapters..enumerate..Enumerate$LT$I$GT$$u20$as$u20$core..iter..traits..iterator..Iterator$GT$4next17hf58ab0b237f5eeafE:
	.long	.Lfunc_begin5@IMGREL
	.long	-1
	.long	.Ltmp16@IMGREL+1
	.long	0
	.long	.Ltmp17@IMGREL+1
	.long	-1
	.section	.text,"xr",one_only,_ZN110_$LT$core..iter..adapters..enumerate..Enumerate$LT$I$GT$$u20$as$u20$core..iter..traits..iterator..Iterator$GT$4next17hf58ab0b237f5eeafE

	.def	_ZN111_$LT$core..iter..adapters..zip..Zip$LT$A$C$B$GT$$u20$as$u20$core..iter..adapters..zip..ZipImpl$LT$A$C$B$GT$$GT$3new17h19b5492c61df69deE;
	.scl	2;
	.type	32;
	.endef
	.section	.text,"xr",one_only,_ZN111_$LT$core..iter..adapters..zip..Zip$LT$A$C$B$GT$$u20$as$u20$core..iter..adapters..zip..ZipImpl$LT$A$C$B$GT$$GT$3new17h19b5492c61df69deE
	.globl	_ZN111_$LT$core..iter..adapters..zip..Zip$LT$A$C$B$GT$$u20$as$u20$core..iter..adapters..zip..ZipImpl$LT$A$C$B$GT$$GT$3new17h19b5492c61df69deE
	.p2align	4, 0x90
_ZN111_$LT$core..iter..adapters..zip..Zip$LT$A$C$B$GT$$u20$as$u20$core..iter..adapters..zip..ZipImpl$LT$A$C$B$GT$$GT$3new17h19b5492c61df69deE:
.Lfunc_begin6:
.seh_proc _ZN111_$LT$core..iter..adapters..zip..Zip$LT$A$C$B$GT$$u20$as$u20$core..iter..adapters..zip..ZipImpl$LT$A$C$B$GT$$GT$3new17h19b5492c61df69deE
	.seh_handler __CxxFrameHandler3, @unwind, @except
	pushq	%rbp
	.seh_pushreg %rbp
	pushq	%rsi
	.seh_pushreg %rsi
	subq	$120, %rsp
	.seh_stackalloc 120
	leaq	112(%rsp), %rbp
	.seh_setframe %rbp, 112
	.seh_endprologue
	movq	$-2, (%rbp)
	movq	%rcx, -56(%rbp)
	movq	%rcx, -48(%rbp)
	movq	64(%rbp), %rax
	movq	%rdx, -32(%rbp)
	movq	%r8, -24(%rbp)
	movq	%r9, -16(%rbp)
	movq	%rax, -8(%rbp)
.Ltmp18:
	leaq	-32(%rbp), %rcx
	callq	_ZN4core4iter8adapters3zip27TrustedRandomAccessNoCoerce4size17h2f4fc1b9014af95dE
.Ltmp19:
	movq	%rax, -40(%rbp)
	jmp	.LBB32_2
.LBB32_2:
.Ltmp20:
	leaq	-16(%rbp), %rcx
	callq	_ZN4core4iter8adapters3zip27TrustedRandomAccessNoCoerce4size17h2f4fc1b9014af95dE
.Ltmp21:
	movq	%rax, -64(%rbp)
	jmp	.LBB32_3
.LBB32_3:
.Ltmp22:
	movq	-64(%rbp), %rdx
	movq	-40(%rbp), %rcx
	callq	_ZN4core3cmp6min_by17h45417cbf0ed05fd5E
.Ltmp23:
	movq	%rax, -72(%rbp)
	jmp	.LBB32_4
.LBB32_4:
	movq	-48(%rbp), %rax
	movq	-56(%rbp), %rcx
	movq	-40(%rbp), %rdx
	movq	-72(%rbp), %r8
	movq	-32(%rbp), %rsi
	movq	-24(%rbp), %r11
	movq	-16(%rbp), %r10
	movq	-8(%rbp), %r9
	movq	%rsi, (%rcx)
	movq	%r11, 8(%rcx)
	movq	%r10, 16(%rcx)
	movq	%r9, 24(%rcx)
	movq	$0, 32(%rcx)
	movq	%r8, 40(%rcx)
	movq	%rdx, 48(%rcx)
	addq	$120, %rsp
	popq	%rsi
	popq	%rbp
	retq
	.seh_handlerdata
	.long	($cppxdata$_ZN111_$LT$core..iter..adapters..zip..Zip$LT$A$C$B$GT$$u20$as$u20$core..iter..adapters..zip..ZipImpl$LT$A$C$B$GT$$GT$3new17h19b5492c61df69deE)@IMGREL
	.section	.text,"xr",one_only,_ZN111_$LT$core..iter..adapters..zip..Zip$LT$A$C$B$GT$$u20$as$u20$core..iter..adapters..zip..ZipImpl$LT$A$C$B$GT$$GT$3new17h19b5492c61df69deE
	.seh_endproc
	.def	"?dtor$1@?0?_ZN111_$LT$core..iter..adapters..zip..Zip$LT$A$C$B$GT$$u20$as$u20$core..iter..adapters..zip..ZipImpl$LT$A$C$B$GT$$GT$3new17h19b5492c61df69deE@4HA";
	.scl	3;
	.type	32;
	.endef
	.p2align	4, 0x90
"?dtor$1@?0?_ZN111_$LT$core..iter..adapters..zip..Zip$LT$A$C$B$GT$$u20$as$u20$core..iter..adapters..zip..ZipImpl$LT$A$C$B$GT$$GT$3new17h19b5492c61df69deE@4HA":
.seh_proc "?dtor$1@?0?_ZN111_$LT$core..iter..adapters..zip..Zip$LT$A$C$B$GT$$u20$as$u20$core..iter..adapters..zip..ZipImpl$LT$A$C$B$GT$$GT$3new17h19b5492c61df69deE@4HA"
.LBB32_1:
	movq	%rdx, 16(%rsp)
	pushq	%rbp
	.seh_pushreg %rbp
	pushq	%rsi
	.seh_pushreg %rsi
	subq	$40, %rsp
	.seh_stackalloc 40
	leaq	112(%rdx), %rbp
	.seh_endprologue
	addq	$40, %rsp
	popq	%rsi
	popq	%rbp
	retq
.Lfunc_end6:
	.seh_handlerdata
	.section	.text,"xr",one_only,_ZN111_$LT$core..iter..adapters..zip..Zip$LT$A$C$B$GT$$u20$as$u20$core..iter..adapters..zip..ZipImpl$LT$A$C$B$GT$$GT$3new17h19b5492c61df69deE
	.seh_endproc
	.section	.xdata,"dr",associative,_ZN111_$LT$core..iter..adapters..zip..Zip$LT$A$C$B$GT$$u20$as$u20$core..iter..adapters..zip..ZipImpl$LT$A$C$B$GT$$GT$3new17h19b5492c61df69deE
	.p2align	2, 0x0
$cppxdata$_ZN111_$LT$core..iter..adapters..zip..Zip$LT$A$C$B$GT$$u20$as$u20$core..iter..adapters..zip..ZipImpl$LT$A$C$B$GT$$GT$3new17h19b5492c61df69deE:
	.long	429065506
	.long	1
	.long	($stateUnwindMap$_ZN111_$LT$core..iter..adapters..zip..Zip$LT$A$C$B$GT$$u20$as$u20$core..iter..adapters..zip..ZipImpl$LT$A$C$B$GT$$GT$3new17h19b5492c61df69deE)@IMGREL
	.long	0
	.long	0
	.long	3
	.long	($ip2state$_ZN111_$LT$core..iter..adapters..zip..Zip$LT$A$C$B$GT$$u20$as$u20$core..iter..adapters..zip..ZipImpl$LT$A$C$B$GT$$GT$3new17h19b5492c61df69deE)@IMGREL
	.long	112
	.long	0
	.long	1
$stateUnwindMap$_ZN111_$LT$core..iter..adapters..zip..Zip$LT$A$C$B$GT$$u20$as$u20$core..iter..adapters..zip..ZipImpl$LT$A$C$B$GT$$GT$3new17h19b5492c61df69deE:
	.long	-1
	.long	"?dtor$1@?0?_ZN111_$LT$core..iter..adapters..zip..Zip$LT$A$C$B$GT$$u20$as$u20$core..iter..adapters..zip..ZipImpl$LT$A$C$B$GT$$GT$3new17h19b5492c61df69deE@4HA"@IMGREL
$ip2state$_ZN111_$LT$core..iter..adapters..zip..Zip$LT$A$C$B$GT$$u20$as$u20$core..iter..adapters..zip..ZipImpl$LT$A$C$B$GT$$GT$3new17h19b5492c61df69deE:
	.long	.Lfunc_begin6@IMGREL
	.long	-1
	.long	.Ltmp18@IMGREL+1
	.long	0
	.long	.Ltmp23@IMGREL+1
	.long	-1
	.section	.text,"xr",one_only,_ZN111_$LT$core..iter..adapters..zip..Zip$LT$A$C$B$GT$$u20$as$u20$core..iter..adapters..zip..ZipImpl$LT$A$C$B$GT$$GT$3new17h19b5492c61df69deE

	.def	_ZN111_$LT$core..iter..adapters..zip..Zip$LT$A$C$B$GT$$u20$as$u20$core..iter..adapters..zip..ZipImpl$LT$A$C$B$GT$$GT$4next17h239a9b0236aeaa5eE;
	.scl	2;
	.type	32;
	.endef
	.section	.text,"xr",one_only,_ZN111_$LT$core..iter..adapters..zip..Zip$LT$A$C$B$GT$$u20$as$u20$core..iter..adapters..zip..ZipImpl$LT$A$C$B$GT$$GT$4next17h239a9b0236aeaa5eE
	.globl	_ZN111_$LT$core..iter..adapters..zip..Zip$LT$A$C$B$GT$$u20$as$u20$core..iter..adapters..zip..ZipImpl$LT$A$C$B$GT$$GT$4next17h239a9b0236aeaa5eE
	.p2align	4, 0x90
_ZN111_$LT$core..iter..adapters..zip..Zip$LT$A$C$B$GT$$u20$as$u20$core..iter..adapters..zip..ZipImpl$LT$A$C$B$GT$$GT$4next17h239a9b0236aeaa5eE:
.Lfunc_begin7:
.seh_proc _ZN111_$LT$core..iter..adapters..zip..Zip$LT$A$C$B$GT$$u20$as$u20$core..iter..adapters..zip..ZipImpl$LT$A$C$B$GT$$GT$4next17h239a9b0236aeaa5eE
	.seh_handler __CxxFrameHandler3, @unwind, @except
	pushq	%rbp
	.seh_pushreg %rbp
	subq	$112, %rsp
	.seh_stackalloc 112
	leaq	112(%rsp), %rbp
	.seh_setframe %rbp, 112
	.seh_endprologue
	movq	$-2, -8(%rbp)
	movq	%rcx, -48(%rbp)
	movq	32(%rcx), %rax
	cmpq	40(%rcx), %rax
	jb	.LBB33_2
	movq	$0, -40(%rbp)
	jmp	.LBB33_3
.LBB33_2:
	movq	-48(%rbp), %rcx
	movq	32(%rcx), %rdx
	movq	%rdx, -72(%rbp)
	movq	%rdx, %rax
	incq	%rax
	movq	%rax, 32(%rcx)
	callq	_ZN91_$LT$core..slice..iter..Iter$LT$T$GT$$u20$as$u20$core..iter..traits..iterator..Iterator$GT$24__iterator_get_unchecked17habc07dd672ea9ec3E
	movq	-48(%rbp), %rcx
	movq	-72(%rbp), %rdx
	movq	%rax, -64(%rbp)
	addq	$16, %rcx
.Ltmp24:
	callq	_ZN91_$LT$core..slice..iter..Iter$LT$T$GT$$u20$as$u20$core..iter..traits..iterator..Iterator$GT$24__iterator_get_unchecked17habc07dd672ea9ec3E
.Ltmp25:
	movq	%rax, -56(%rbp)
	jmp	.LBB33_5
.LBB33_3:
	movq	-40(%rbp), %rax
	movq	-32(%rbp), %rdx
	addq	$112, %rsp
	popq	%rbp
	retq
.LBB33_5:
	movq	-56(%rbp), %rax
	movq	-64(%rbp), %rcx
	movq	%rcx, -24(%rbp)
	movq	%rax, -16(%rbp)
	movq	-24(%rbp), %rcx
	movq	-16(%rbp), %rax
	movq	%rcx, -40(%rbp)
	movq	%rax, -32(%rbp)
	jmp	.LBB33_3
	.seh_handlerdata
	.long	($cppxdata$_ZN111_$LT$core..iter..adapters..zip..Zip$LT$A$C$B$GT$$u20$as$u20$core..iter..adapters..zip..ZipImpl$LT$A$C$B$GT$$GT$4next17h239a9b0236aeaa5eE)@IMGREL
	.section	.text,"xr",one_only,_ZN111_$LT$core..iter..adapters..zip..Zip$LT$A$C$B$GT$$u20$as$u20$core..iter..adapters..zip..ZipImpl$LT$A$C$B$GT$$GT$4next17h239a9b0236aeaa5eE
	.seh_endproc
	.def	"?dtor$4@?0?_ZN111_$LT$core..iter..adapters..zip..Zip$LT$A$C$B$GT$$u20$as$u20$core..iter..adapters..zip..ZipImpl$LT$A$C$B$GT$$GT$4next17h239a9b0236aeaa5eE@4HA";
	.scl	3;
	.type	32;
	.endef
	.p2align	4, 0x90
"?dtor$4@?0?_ZN111_$LT$core..iter..adapters..zip..Zip$LT$A$C$B$GT$$u20$as$u20$core..iter..adapters..zip..ZipImpl$LT$A$C$B$GT$$GT$4next17h239a9b0236aeaa5eE@4HA":
.seh_proc "?dtor$4@?0?_ZN111_$LT$core..iter..adapters..zip..Zip$LT$A$C$B$GT$$u20$as$u20$core..iter..adapters..zip..ZipImpl$LT$A$C$B$GT$$GT$4next17h239a9b0236aeaa5eE@4HA"
.LBB33_4:
	movq	%rdx, 16(%rsp)
	pushq	%rbp
	.seh_pushreg %rbp
	subq	$32, %rsp
	.seh_stackalloc 32
	leaq	112(%rdx), %rbp
	.seh_endprologue
	addq	$32, %rsp
	popq	%rbp
	retq
.Lfunc_end7:
	.seh_handlerdata
	.section	.text,"xr",one_only,_ZN111_$LT$core..iter..adapters..zip..Zip$LT$A$C$B$GT$$u20$as$u20$core..iter..adapters..zip..ZipImpl$LT$A$C$B$GT$$GT$4next17h239a9b0236aeaa5eE
	.seh_endproc
	.section	.xdata,"dr",associative,_ZN111_$LT$core..iter..adapters..zip..Zip$LT$A$C$B$GT$$u20$as$u20$core..iter..adapters..zip..ZipImpl$LT$A$C$B$GT$$GT$4next17h239a9b0236aeaa5eE
	.p2align	2, 0x0
$cppxdata$_ZN111_$LT$core..iter..adapters..zip..Zip$LT$A$C$B$GT$$u20$as$u20$core..iter..adapters..zip..ZipImpl$LT$A$C$B$GT$$GT$4next17h239a9b0236aeaa5eE:
	.long	429065506
	.long	1
	.long	($stateUnwindMap$_ZN111_$LT$core..iter..adapters..zip..Zip$LT$A$C$B$GT$$u20$as$u20$core..iter..adapters..zip..ZipImpl$LT$A$C$B$GT$$GT$4next17h239a9b0236aeaa5eE)@IMGREL
	.long	0
	.long	0
	.long	3
	.long	($ip2state$_ZN111_$LT$core..iter..adapters..zip..Zip$LT$A$C$B$GT$$u20$as$u20$core..iter..adapters..zip..ZipImpl$LT$A$C$B$GT$$GT$4next17h239a9b0236aeaa5eE)@IMGREL
	.long	104
	.long	0
	.long	1
$stateUnwindMap$_ZN111_$LT$core..iter..adapters..zip..Zip$LT$A$C$B$GT$$u20$as$u20$core..iter..adapters..zip..ZipImpl$LT$A$C$B$GT$$GT$4next17h239a9b0236aeaa5eE:
	.long	-1
	.long	"?dtor$4@?0?_ZN111_$LT$core..iter..adapters..zip..Zip$LT$A$C$B$GT$$u20$as$u20$core..iter..adapters..zip..ZipImpl$LT$A$C$B$GT$$GT$4next17h239a9b0236aeaa5eE@4HA"@IMGREL
$ip2state$_ZN111_$LT$core..iter..adapters..zip..Zip$LT$A$C$B$GT$$u20$as$u20$core..iter..adapters..zip..ZipImpl$LT$A$C$B$GT$$GT$4next17h239a9b0236aeaa5eE:
	.long	.Lfunc_begin7@IMGREL
	.long	-1
	.long	.Ltmp24@IMGREL+1
	.long	0
	.long	.Ltmp25@IMGREL+1
	.long	-1
	.section	.text,"xr",one_only,_ZN111_$LT$core..iter..adapters..zip..Zip$LT$A$C$B$GT$$u20$as$u20$core..iter..adapters..zip..ZipImpl$LT$A$C$B$GT$$GT$4next17h239a9b0236aeaa5eE

	.def	_ZN113_$LT$alloc..string..String$u20$as$u20$core..ops..index..Index$LT$core..ops..range..RangeFrom$LT$usize$GT$$GT$$GT$5index17h1297b51fb71b20edE;
	.scl	3;
	.type	32;
	.endef
	.section	.text,"xr",one_only,_ZN113_$LT$alloc..string..String$u20$as$u20$core..ops..index..Index$LT$core..ops..range..RangeFrom$LT$usize$GT$$GT$$GT$5index17h1297b51fb71b20edE
	.p2align	4, 0x90
_ZN113_$LT$alloc..string..String$u20$as$u20$core..ops..index..Index$LT$core..ops..range..RangeFrom$LT$usize$GT$$GT$$GT$5index17h1297b51fb71b20edE:
.seh_proc _ZN113_$LT$alloc..string..String$u20$as$u20$core..ops..index..Index$LT$core..ops..range..RangeFrom$LT$usize$GT$$GT$$GT$5index17h1297b51fb71b20edE
	subq	$120, %rsp
	.seh_stackalloc 120
	.seh_endprologue
	movq	%r8, 40(%rsp)
	movq	%rdx, 48(%rsp)
	movq	%rcx, %rax
	movq	48(%rsp), %rcx
	movq	8(%rax), %rdx
	movq	16(%rax), %rax
	movq	%rdx, 88(%rsp)
	movq	%rax, 96(%rsp)
	movq	88(%rsp), %rdx
	movq	96(%rsp), %rax
	movq	%rdx, 72(%rsp)
	movq	%rax, 80(%rsp)
	movq	72(%rsp), %rdx
	movq	%rdx, 56(%rsp)
	movq	80(%rsp), %r8
	movq	%r8, 64(%rsp)
	callq	_ZN4core3str6traits112_$LT$impl$u20$core..slice..index..SliceIndex$LT$str$GT$$u20$for$u20$core..ops..range..RangeFrom$LT$usize$GT$$GT$3get17hed09b49ab0cbe166E
	movq	%rdx, 112(%rsp)
	movq	%rax, 104(%rsp)
	movq	104(%rsp), %rdx
	movl	$1, %eax
	xorl	%ecx, %ecx
	cmpq	$0, %rdx
	cmoveq	%rcx, %rax
	cmpq	$0, %rax
	jne	.LBB34_2
	movq	64(%rsp), %r9
	movq	48(%rsp), %r8
	movq	56(%rsp), %rcx
	movq	40(%rsp), %rdx
	movq	%rsp, %rax
	movq	%rdx, 32(%rax)
	movq	%r9, %rdx
	callq	_ZN4core3str16slice_error_fail17h1fda531fa5713a2aE
.LBB34_2:
	movq	104(%rsp), %rax
	movq	112(%rsp), %rdx
	addq	$120, %rsp
	retq
	.seh_endproc

	.def	_ZN125_$LT$$LT$T$u20$as$u20$alloc..slice..hack..ConvertVec$GT$..to_vec..DropGuard$LT$T$C$A$GT$$u20$as$u20$core..ops..drop..Drop$GT$4drop17h75d6bf2480586ef7E;
	.scl	2;
	.type	32;
	.endef
	.section	.text,"xr",one_only,_ZN125_$LT$$LT$T$u20$as$u20$alloc..slice..hack..ConvertVec$GT$..to_vec..DropGuard$LT$T$C$A$GT$$u20$as$u20$core..ops..drop..Drop$GT$4drop17h75d6bf2480586ef7E
	.globl	_ZN125_$LT$$LT$T$u20$as$u20$alloc..slice..hack..ConvertVec$GT$..to_vec..DropGuard$LT$T$C$A$GT$$u20$as$u20$core..ops..drop..Drop$GT$4drop17h75d6bf2480586ef7E
	.p2align	4, 0x90
_ZN125_$LT$$LT$T$u20$as$u20$alloc..slice..hack..ConvertVec$GT$..to_vec..DropGuard$LT$T$C$A$GT$$u20$as$u20$core..ops..drop..Drop$GT$4drop17h75d6bf2480586ef7E:
	movq	(%rcx), %rax
	movq	8(%rcx), %rcx
	movq	%rcx, 16(%rax)
	retq

	.def	_ZN125_$LT$$LT$T$u20$as$u20$alloc..slice..hack..ConvertVec$GT$..to_vec..DropGuard$LT$T$C$A$GT$$u20$as$u20$core..ops..drop..Drop$GT$4drop17hcb1d34157fdcd6acE;
	.scl	2;
	.type	32;
	.endef
	.section	.text,"xr",one_only,_ZN125_$LT$$LT$T$u20$as$u20$alloc..slice..hack..ConvertVec$GT$..to_vec..DropGuard$LT$T$C$A$GT$$u20$as$u20$core..ops..drop..Drop$GT$4drop17hcb1d34157fdcd6acE
	.globl	_ZN125_$LT$$LT$T$u20$as$u20$alloc..slice..hack..ConvertVec$GT$..to_vec..DropGuard$LT$T$C$A$GT$$u20$as$u20$core..ops..drop..Drop$GT$4drop17hcb1d34157fdcd6acE
	.p2align	4, 0x90
_ZN125_$LT$$LT$T$u20$as$u20$alloc..slice..hack..ConvertVec$GT$..to_vec..DropGuard$LT$T$C$A$GT$$u20$as$u20$core..ops..drop..Drop$GT$4drop17hcb1d34157fdcd6acE:
	movq	(%rcx), %rax
	movq	8(%rcx), %rcx
	movq	%rcx, 16(%rax)
	retq

	.def	_ZN125_$LT$$LT$T$u20$as$u20$alloc..slice..hack..ConvertVec$GT$..to_vec..DropGuard$LT$T$C$A$GT$$u20$as$u20$core..ops..drop..Drop$GT$4drop17hd1589d169d8febc0E;
	.scl	2;
	.type	32;
	.endef
	.section	.text,"xr",one_only,_ZN125_$LT$$LT$T$u20$as$u20$alloc..slice..hack..ConvertVec$GT$..to_vec..DropGuard$LT$T$C$A$GT$$u20$as$u20$core..ops..drop..Drop$GT$4drop17hd1589d169d8febc0E
	.globl	_ZN125_$LT$$LT$T$u20$as$u20$alloc..slice..hack..ConvertVec$GT$..to_vec..DropGuard$LT$T$C$A$GT$$u20$as$u20$core..ops..drop..Drop$GT$4drop17hd1589d169d8febc0E
	.p2align	4, 0x90
_ZN125_$LT$$LT$T$u20$as$u20$alloc..slice..hack..ConvertVec$GT$..to_vec..DropGuard$LT$T$C$A$GT$$u20$as$u20$core..ops..drop..Drop$GT$4drop17hd1589d169d8febc0E:
	movq	(%rcx), %rax
	movq	8(%rcx), %rcx
	movq	%rcx, 16(%rax)
	retq

	.def	_ZN132_$LT$alloc..vec..Vec$LT$T$C$A$GT$$u20$as$u20$alloc..vec..spec_extend..SpecExtend$LT$$RF$T$C$core..slice..iter..Iter$LT$T$GT$$GT$$GT$11spec_extend17h8418c5e391eedad0E;
	.scl	2;
	.type	32;
	.endef
	.section	.text,"xr",one_only,_ZN132_$LT$alloc..vec..Vec$LT$T$C$A$GT$$u20$as$u20$alloc..vec..spec_extend..SpecExtend$LT$$RF$T$C$core..slice..iter..Iter$LT$T$GT$$GT$$GT$11spec_extend17h8418c5e391eedad0E
	.globl	_ZN132_$LT$alloc..vec..Vec$LT$T$C$A$GT$$u20$as$u20$alloc..vec..spec_extend..SpecExtend$LT$$RF$T$C$core..slice..iter..Iter$LT$T$GT$$GT$$GT$11spec_extend17h8418c5e391eedad0E
	.p2align	4, 0x90
_ZN132_$LT$alloc..vec..Vec$LT$T$C$A$GT$$u20$as$u20$alloc..vec..spec_extend..SpecExtend$LT$$RF$T$C$core..slice..iter..Iter$LT$T$GT$$GT$$GT$11spec_extend17h8418c5e391eedad0E:
.seh_proc _ZN132_$LT$alloc..vec..Vec$LT$T$C$A$GT$$u20$as$u20$alloc..vec..spec_extend..SpecExtend$LT$$RF$T$C$core..slice..iter..Iter$LT$T$GT$$GT$$GT$11spec_extend17h8418c5e391eedad0E
	subq	$120, %rsp
	.seh_stackalloc 120
	.seh_endprologue
	movq	%rcx, 56(%rsp)
	movq	%rdx, 64(%rsp)
	movq	%r8, 72(%rsp)
	movq	64(%rsp), %rax
	movq	72(%rsp), %rdx
	subq	%rax, %rdx
	movq	%rdx, 80(%rsp)
	movq	%rax, 104(%rsp)
	movq	80(%rsp), %rax
	movq	%rax, 112(%rsp)
	movq	104(%rsp), %rdx
	movq	112(%rsp), %rax
	movq	%rdx, 88(%rsp)
	movq	%rax, 96(%rsp)
	movq	88(%rsp), %rax
	movq	%rax, 40(%rsp)
	movq	96(%rsp), %rdx
	movq	%rdx, 48(%rsp)
	callq	_ZN5alloc3vec16Vec$LT$T$C$A$GT$7reserve17h6d84c1651c2ca3a7E
	movq	40(%rsp), %rdx
	movq	48(%rsp), %r8
	movq	56(%rsp), %rax
	movq	16(%rax), %rcx
	addq	8(%rax), %rcx
	shlq	$0, %r8
	callq	memcpy
	movq	48(%rsp), %rax
	movq	56(%rsp), %rcx
	addq	16(%rcx), %rax
	movq	%rax, 16(%rcx)
	addq	$120, %rsp
	retq
	.seh_endproc

	.def	_ZN150_$LT$$LT$alloc..vec..drain..Drain$LT$T$C$A$GT$$u20$as$u20$core..ops..drop..Drop$GT$..drop..DropGuard$LT$T$C$A$GT$$u20$as$u20$core..ops..drop..Drop$GT$4drop17h07c56c51b1a60ebaE;
	.scl	2;
	.type	32;
	.endef
	.section	.text,"xr",one_only,_ZN150_$LT$$LT$alloc..vec..drain..Drain$LT$T$C$A$GT$$u20$as$u20$core..ops..drop..Drop$GT$..drop..DropGuard$LT$T$C$A$GT$$u20$as$u20$core..ops..drop..Drop$GT$4drop17h07c56c51b1a60ebaE
	.globl	_ZN150_$LT$$LT$alloc..vec..drain..Drain$LT$T$C$A$GT$$u20$as$u20$core..ops..drop..Drop$GT$..drop..DropGuard$LT$T$C$A$GT$$u20$as$u20$core..ops..drop..Drop$GT$4drop17h07c56c51b1a60ebaE
	.p2align	4, 0x90
_ZN150_$LT$$LT$alloc..vec..drain..Drain$LT$T$C$A$GT$$u20$as$u20$core..ops..drop..Drop$GT$..drop..DropGuard$LT$T$C$A$GT$$u20$as$u20$core..ops..drop..Drop$GT$4drop17h07c56c51b1a60ebaE:
.seh_proc _ZN150_$LT$$LT$alloc..vec..drain..Drain$LT$T$C$A$GT$$u20$as$u20$core..ops..drop..Drop$GT$..drop..DropGuard$LT$T$C$A$GT$$u20$as$u20$core..ops..drop..Drop$GT$4drop17h07c56c51b1a60ebaE
	subq	$72, %rsp
	.seh_stackalloc 72
	.seh_endprologue
	movq	%rcx, 64(%rsp)
	movq	(%rcx), %rax
	cmpq	$0, 32(%rax)
	ja	.LBB39_2
	jmp	.LBB39_3
.LBB39_2:
	movq	64(%rsp), %rax
	movq	(%rax), %rcx
	movq	16(%rcx), %rcx
	movq	%rcx, 40(%rsp)
	movq	16(%rcx), %rcx
	movq	%rcx, 48(%rsp)
	movq	(%rax), %rax
	movq	24(%rax), %rax
	movq	%rax, 56(%rsp)
	cmpq	%rcx, %rax
	jne	.LBB39_5
	jmp	.LBB39_4
.LBB39_3:
	addq	$72, %rsp
	retq
.LBB39_4:
	movq	40(%rsp), %rax
	movq	48(%rsp), %rcx
	movq	64(%rsp), %rdx
	movq	(%rdx), %rdx
	addq	32(%rdx), %rcx
	movq	%rcx, 16(%rax)
	jmp	.LBB39_3
.LBB39_5:
	movq	64(%rsp), %rax
	movq	40(%rsp), %r8
	movq	48(%rsp), %rcx
	movq	56(%rsp), %rdx
	imulq	$20, %rdx, %rdx
	addq	8(%r8), %rdx
	imulq	$20, %rcx, %rcx
	addq	8(%r8), %rcx
	movq	(%rax), %rax
	imulq	$20, 32(%rax), %r8
	callq	memmove
	jmp	.LBB39_4
	.seh_endproc

	.def	_ZN153_$LT$core..result..Result$LT$T$C$F$GT$$u20$as$u20$core..ops..try_trait..FromResidual$LT$core..result..Result$LT$core..convert..Infallible$C$E$GT$$GT$$GT$13from_residual17h1c028a77d25d5228E;
	.scl	2;
	.type	32;
	.endef
	.section	.text,"xr",one_only,_ZN153_$LT$core..result..Result$LT$T$C$F$GT$$u20$as$u20$core..ops..try_trait..FromResidual$LT$core..result..Result$LT$core..convert..Infallible$C$E$GT$$GT$$GT$13from_residual17h1c028a77d25d5228E
	.globl	_ZN153_$LT$core..result..Result$LT$T$C$F$GT$$u20$as$u20$core..ops..try_trait..FromResidual$LT$core..result..Result$LT$core..convert..Infallible$C$E$GT$$GT$$GT$13from_residual17h1c028a77d25d5228E
	.p2align	4, 0x90
_ZN153_$LT$core..result..Result$LT$T$C$F$GT$$u20$as$u20$core..ops..try_trait..FromResidual$LT$core..result..Result$LT$core..convert..Infallible$C$E$GT$$GT$$GT$13from_residual17h1c028a77d25d5228E:
.seh_proc _ZN153_$LT$core..result..Result$LT$T$C$F$GT$$u20$as$u20$core..ops..try_trait..FromResidual$LT$core..result..Result$LT$core..convert..Infallible$C$E$GT$$GT$$GT$13from_residual17h1c028a77d25d5228E
	pushq	%rax
	.seh_stackalloc 8
	.seh_endprologue
	movq	%rcx, %rax
	andb	$1, %dl
	movb	%dl, 7(%rsp)
	movb	7(%rsp), %dl
	andb	$1, %dl
	movb	%dl, 8(%rcx)
	movabsq	$-9223372036854775807, %rdx
	movq	%rdx, (%rcx)
	popq	%rcx
	retq
	.seh_endproc

	.def	_ZN153_$LT$core..result..Result$LT$T$C$F$GT$$u20$as$u20$core..ops..try_trait..FromResidual$LT$core..result..Result$LT$core..convert..Infallible$C$E$GT$$GT$$GT$13from_residual17h224c506fd1cbd0cfE;
	.scl	2;
	.type	32;
	.endef
	.section	.text,"xr",one_only,_ZN153_$LT$core..result..Result$LT$T$C$F$GT$$u20$as$u20$core..ops..try_trait..FromResidual$LT$core..result..Result$LT$core..convert..Infallible$C$E$GT$$GT$$GT$13from_residual17h224c506fd1cbd0cfE
	.globl	_ZN153_$LT$core..result..Result$LT$T$C$F$GT$$u20$as$u20$core..ops..try_trait..FromResidual$LT$core..result..Result$LT$core..convert..Infallible$C$E$GT$$GT$$GT$13from_residual17h224c506fd1cbd0cfE
	.p2align	4, 0x90
_ZN153_$LT$core..result..Result$LT$T$C$F$GT$$u20$as$u20$core..ops..try_trait..FromResidual$LT$core..result..Result$LT$core..convert..Infallible$C$E$GT$$GT$$GT$13from_residual17h224c506fd1cbd0cfE:
	movq	%rcx, %rax
	movabsq	$-9223372036854775807, %rdx
	movq	%rdx, 16(%rcx)
	retq

	.def	_ZN153_$LT$core..result..Result$LT$T$C$F$GT$$u20$as$u20$core..ops..try_trait..FromResidual$LT$core..result..Result$LT$core..convert..Infallible$C$E$GT$$GT$$GT$13from_residual17h312c0409eaa96e4eE;
	.scl	2;
	.type	32;
	.endef
	.section	.text,"xr",one_only,_ZN153_$LT$core..result..Result$LT$T$C$F$GT$$u20$as$u20$core..ops..try_trait..FromResidual$LT$core..result..Result$LT$core..convert..Infallible$C$E$GT$$GT$$GT$13from_residual17h312c0409eaa96e4eE
	.globl	_ZN153_$LT$core..result..Result$LT$T$C$F$GT$$u20$as$u20$core..ops..try_trait..FromResidual$LT$core..result..Result$LT$core..convert..Infallible$C$E$GT$$GT$$GT$13from_residual17h312c0409eaa96e4eE
	.p2align	4, 0x90
_ZN153_$LT$core..result..Result$LT$T$C$F$GT$$u20$as$u20$core..ops..try_trait..FromResidual$LT$core..result..Result$LT$core..convert..Infallible$C$E$GT$$GT$$GT$13from_residual17h312c0409eaa96e4eE:
.seh_proc _ZN153_$LT$core..result..Result$LT$T$C$F$GT$$u20$as$u20$core..ops..try_trait..FromResidual$LT$core..result..Result$LT$core..convert..Infallible$C$E$GT$$GT$$GT$13from_residual17h312c0409eaa96e4eE
	subq	$56, %rsp
	.seh_stackalloc 56
	.seh_endprologue
	movq	%rcx, 40(%rsp)
	movq	%rcx, 48(%rsp)
	callq	_ZN105_$LT$proc_macro2..imp..LexError$u20$as$u20$core..convert..From$LT$proc_macro2..fallback..LexError$GT$$GT$4from17h9c750862e22df4b4E
	movq	40(%rsp), %rcx
	movb	%al, %dl
	movq	48(%rsp), %rax
	andb	$1, %dl
	movb	%dl, 8(%rcx)
	movabsq	$-9223372036854775807, %rdx
	movq	%rdx, (%rcx)
	addq	$56, %rsp
	retq
	.seh_endproc

	.def	_ZN153_$LT$core..result..Result$LT$T$C$F$GT$$u20$as$u20$core..ops..try_trait..FromResidual$LT$core..result..Result$LT$core..convert..Infallible$C$E$GT$$GT$$GT$13from_residual17h6cd652ee8f455764E;
	.scl	2;
	.type	32;
	.endef
	.section	.text,"xr",one_only,_ZN153_$LT$core..result..Result$LT$T$C$F$GT$$u20$as$u20$core..ops..try_trait..FromResidual$LT$core..result..Result$LT$core..convert..Infallible$C$E$GT$$GT$$GT$13from_residual17h6cd652ee8f455764E
	.globl	_ZN153_$LT$core..result..Result$LT$T$C$F$GT$$u20$as$u20$core..ops..try_trait..FromResidual$LT$core..result..Result$LT$core..convert..Infallible$C$E$GT$$GT$$GT$13from_residual17h6cd652ee8f455764E
	.p2align	4, 0x90
_ZN153_$LT$core..result..Result$LT$T$C$F$GT$$u20$as$u20$core..ops..try_trait..FromResidual$LT$core..result..Result$LT$core..convert..Infallible$C$E$GT$$GT$$GT$13from_residual17h6cd652ee8f455764E:
	movq	%rcx, %rax
	movl	$1114112, 16(%rcx)
	retq

	.def	_ZN153_$LT$core..result..Result$LT$T$C$F$GT$$u20$as$u20$core..ops..try_trait..FromResidual$LT$core..result..Result$LT$core..convert..Infallible$C$E$GT$$GT$$GT$13from_residual17h71d2880cae19ed50E;
	.scl	2;
	.type	32;
	.endef
	.section	.text,"xr",one_only,_ZN153_$LT$core..result..Result$LT$T$C$F$GT$$u20$as$u20$core..ops..try_trait..FromResidual$LT$core..result..Result$LT$core..convert..Infallible$C$E$GT$$GT$$GT$13from_residual17h71d2880cae19ed50E
	.globl	_ZN153_$LT$core..result..Result$LT$T$C$F$GT$$u20$as$u20$core..ops..try_trait..FromResidual$LT$core..result..Result$LT$core..convert..Infallible$C$E$GT$$GT$$GT$13from_residual17h71d2880cae19ed50E
	.p2align	4, 0x90
_ZN153_$LT$core..result..Result$LT$T$C$F$GT$$u20$as$u20$core..ops..try_trait..FromResidual$LT$core..result..Result$LT$core..convert..Infallible$C$E$GT$$GT$$GT$13from_residual17h71d2880cae19ed50E:
.seh_proc _ZN153_$LT$core..result..Result$LT$T$C$F$GT$$u20$as$u20$core..ops..try_trait..FromResidual$LT$core..result..Result$LT$core..convert..Infallible$C$E$GT$$GT$$GT$13from_residual17h71d2880cae19ed50E
	subq	$16, %rsp
	.seh_stackalloc 16
	.seh_endprologue
	movq	$0, (%rsp)
	movq	(%rsp), %rax
	movq	8(%rsp), %rdx
	addq	$16, %rsp
	retq
	.seh_endproc

	.def	_ZN153_$LT$core..result..Result$LT$T$C$F$GT$$u20$as$u20$core..ops..try_trait..FromResidual$LT$core..result..Result$LT$core..convert..Infallible$C$E$GT$$GT$$GT$13from_residual17ha9931218e6d318f2E;
	.scl	2;
	.type	32;
	.endef
	.section	.text,"xr",one_only,_ZN153_$LT$core..result..Result$LT$T$C$F$GT$$u20$as$u20$core..ops..try_trait..FromResidual$LT$core..result..Result$LT$core..convert..Infallible$C$E$GT$$GT$$GT$13from_residual17ha9931218e6d318f2E
	.globl	_ZN153_$LT$core..result..Result$LT$T$C$F$GT$$u20$as$u20$core..ops..try_trait..FromResidual$LT$core..result..Result$LT$core..convert..Infallible$C$E$GT$$GT$$GT$13from_residual17ha9931218e6d318f2E
	.p2align	4, 0x90
_ZN153_$LT$core..result..Result$LT$T$C$F$GT$$u20$as$u20$core..ops..try_trait..FromResidual$LT$core..result..Result$LT$core..convert..Infallible$C$E$GT$$GT$$GT$13from_residual17ha9931218e6d318f2E:
	movq	%rcx, %rax
	movb	$2, 32(%rcx)
	retq

	.def	_ZN153_$LT$core..result..Result$LT$T$C$F$GT$$u20$as$u20$core..ops..try_trait..FromResidual$LT$core..result..Result$LT$core..convert..Infallible$C$E$GT$$GT$$GT$13from_residual17hc075664257859dc8E;
	.scl	2;
	.type	32;
	.endef
	.section	.text,"xr",one_only,_ZN153_$LT$core..result..Result$LT$T$C$F$GT$$u20$as$u20$core..ops..try_trait..FromResidual$LT$core..result..Result$LT$core..convert..Infallible$C$E$GT$$GT$$GT$13from_residual17hc075664257859dc8E
	.globl	_ZN153_$LT$core..result..Result$LT$T$C$F$GT$$u20$as$u20$core..ops..try_trait..FromResidual$LT$core..result..Result$LT$core..convert..Infallible$C$E$GT$$GT$$GT$13from_residual17hc075664257859dc8E
	.p2align	4, 0x90
_ZN153_$LT$core..result..Result$LT$T$C$F$GT$$u20$as$u20$core..ops..try_trait..FromResidual$LT$core..result..Result$LT$core..convert..Infallible$C$E$GT$$GT$$GT$13from_residual17hc075664257859dc8E:
	movq	%rcx, %rax
	movabsq	$-9223372036854775808, %rdx
	movq	%rdx, 16(%rcx)
	retq

	.def	_ZN153_$LT$core..result..Result$LT$T$C$F$GT$$u20$as$u20$core..ops..try_trait..FromResidual$LT$core..result..Result$LT$core..convert..Infallible$C$E$GT$$GT$$GT$13from_residual17hdf07bb1794eeb3acE;
	.scl	2;
	.type	32;
	.endef
	.section	.text,"xr",one_only,_ZN153_$LT$core..result..Result$LT$T$C$F$GT$$u20$as$u20$core..ops..try_trait..FromResidual$LT$core..result..Result$LT$core..convert..Infallible$C$E$GT$$GT$$GT$13from_residual17hdf07bb1794eeb3acE
	.globl	_ZN153_$LT$core..result..Result$LT$T$C$F$GT$$u20$as$u20$core..ops..try_trait..FromResidual$LT$core..result..Result$LT$core..convert..Infallible$C$E$GT$$GT$$GT$13from_residual17hdf07bb1794eeb3acE
	.p2align	4, 0x90
_ZN153_$LT$core..result..Result$LT$T$C$F$GT$$u20$as$u20$core..ops..try_trait..FromResidual$LT$core..result..Result$LT$core..convert..Infallible$C$E$GT$$GT$$GT$13from_residual17hdf07bb1794eeb3acE:
.seh_proc _ZN153_$LT$core..result..Result$LT$T$C$F$GT$$u20$as$u20$core..ops..try_trait..FromResidual$LT$core..result..Result$LT$core..convert..Infallible$C$E$GT$$GT$$GT$13from_residual17hdf07bb1794eeb3acE
	subq	$16, %rsp
	.seh_stackalloc 16
	.seh_endprologue
	movq	$0, (%rsp)
	movq	(%rsp), %rax
	movq	8(%rsp), %rdx
	addq	$16, %rsp
	retq
	.seh_endproc

	.def	_ZN153_$LT$core..result..Result$LT$T$C$F$GT$$u20$as$u20$core..ops..try_trait..FromResidual$LT$core..result..Result$LT$core..convert..Infallible$C$E$GT$$GT$$GT$13from_residual17he01078ef3978ed79E;
	.scl	2;
	.type	32;
	.endef
	.section	.text,"xr",one_only,_ZN153_$LT$core..result..Result$LT$T$C$F$GT$$u20$as$u20$core..ops..try_trait..FromResidual$LT$core..result..Result$LT$core..convert..Infallible$C$E$GT$$GT$$GT$13from_residual17he01078ef3978ed79E
	.globl	_ZN153_$LT$core..result..Result$LT$T$C$F$GT$$u20$as$u20$core..ops..try_trait..FromResidual$LT$core..result..Result$LT$core..convert..Infallible$C$E$GT$$GT$$GT$13from_residual17he01078ef3978ed79E
	.p2align	4, 0x90
_ZN153_$LT$core..result..Result$LT$T$C$F$GT$$u20$as$u20$core..ops..try_trait..FromResidual$LT$core..result..Result$LT$core..convert..Infallible$C$E$GT$$GT$$GT$13from_residual17he01078ef3978ed79E:
.seh_proc _ZN153_$LT$core..result..Result$LT$T$C$F$GT$$u20$as$u20$core..ops..try_trait..FromResidual$LT$core..result..Result$LT$core..convert..Infallible$C$E$GT$$GT$$GT$13from_residual17he01078ef3978ed79E
	pushq	%rax
	.seh_stackalloc 8
	.seh_endprologue
	movq	%rcx, %rax
	andb	$1, %dl
	movb	%dl, 7(%rsp)
	movb	7(%rsp), %dl
	andb	$1, %dl
	movb	%dl, 8(%rcx)
	movabsq	$-9223372036854775807, %rdx
	movq	%rdx, (%rcx)
	popq	%rcx
	retq
	.seh_endproc

	.def	_ZN153_$LT$core..result..Result$LT$T$C$F$GT$$u20$as$u20$core..ops..try_trait..FromResidual$LT$core..result..Result$LT$core..convert..Infallible$C$E$GT$$GT$$GT$13from_residual17he57dd48a2563a695E;
	.scl	2;
	.type	32;
	.endef
	.section	.text,"xr",one_only,_ZN153_$LT$core..result..Result$LT$T$C$F$GT$$u20$as$u20$core..ops..try_trait..FromResidual$LT$core..result..Result$LT$core..convert..Infallible$C$E$GT$$GT$$GT$13from_residual17he57dd48a2563a695E
	.globl	_ZN153_$LT$core..result..Result$LT$T$C$F$GT$$u20$as$u20$core..ops..try_trait..FromResidual$LT$core..result..Result$LT$core..convert..Infallible$C$E$GT$$GT$$GT$13from_residual17he57dd48a2563a695E
	.p2align	4, 0x90
_ZN153_$LT$core..result..Result$LT$T$C$F$GT$$u20$as$u20$core..ops..try_trait..FromResidual$LT$core..result..Result$LT$core..convert..Infallible$C$E$GT$$GT$$GT$13from_residual17he57dd48a2563a695E:
.seh_proc _ZN153_$LT$core..result..Result$LT$T$C$F$GT$$u20$as$u20$core..ops..try_trait..FromResidual$LT$core..result..Result$LT$core..convert..Infallible$C$E$GT$$GT$$GT$13from_residual17he57dd48a2563a695E
	subq	$56, %rsp
	.seh_stackalloc 56
	.seh_endprologue
	movq	%rcx, 40(%rsp)
	movq	%rcx, 48(%rsp)
	callq	_ZN105_$LT$proc_macro2..imp..LexError$u20$as$u20$core..convert..From$LT$proc_macro2..fallback..LexError$GT$$GT$4from17h9c750862e22df4b4E
	movq	40(%rsp), %rcx
	movb	%al, %dl
	movq	48(%rsp), %rax
	andb	$1, %dl
	movb	%dl, 8(%rcx)
	movabsq	$-9223372036854775807, %rdx
	movq	%rdx, (%rcx)
	addq	$56, %rsp
	retq
	.seh_endproc

	.def	_ZN153_$LT$core..result..Result$LT$T$C$F$GT$$u20$as$u20$core..ops..try_trait..FromResidual$LT$core..result..Result$LT$core..convert..Infallible$C$E$GT$$GT$$GT$13from_residual17hf3c1cf461eb88418E;
	.scl	2;
	.type	32;
	.endef
	.section	.text,"xr",one_only,_ZN153_$LT$core..result..Result$LT$T$C$F$GT$$u20$as$u20$core..ops..try_trait..FromResidual$LT$core..result..Result$LT$core..convert..Infallible$C$E$GT$$GT$$GT$13from_residual17hf3c1cf461eb88418E
	.globl	_ZN153_$LT$core..result..Result$LT$T$C$F$GT$$u20$as$u20$core..ops..try_trait..FromResidual$LT$core..result..Result$LT$core..convert..Infallible$C$E$GT$$GT$$GT$13from_residual17hf3c1cf461eb88418E
	.p2align	4, 0x90
_ZN153_$LT$core..result..Result$LT$T$C$F$GT$$u20$as$u20$core..ops..try_trait..FromResidual$LT$core..result..Result$LT$core..convert..Infallible$C$E$GT$$GT$$GT$13from_residual17hf3c1cf461eb88418E:
.seh_proc _ZN153_$LT$core..result..Result$LT$T$C$F$GT$$u20$as$u20$core..ops..try_trait..FromResidual$LT$core..result..Result$LT$core..convert..Infallible$C$E$GT$$GT$$GT$13from_residual17hf3c1cf461eb88418E
	subq	$56, %rsp
	.seh_stackalloc 56
	.seh_endprologue
	movq	%rcx, 40(%rsp)
	movq	%rcx, 48(%rsp)
	callq	_ZN94_$LT$proc_macro2..imp..LexError$u20$as$u20$core..convert..From$LT$proc_macro..LexError$GT$$GT$4from17h87fa65d39edabea9E
	movq	40(%rsp), %rcx
	movb	%al, %dl
	movq	48(%rsp), %rax
	andb	$1, %dl
	movb	%dl, 8(%rcx)
	movabsq	$-9223372036854775807, %rdx
	movq	%rdx, (%rcx)
	addq	$56, %rsp
	retq
	.seh_endproc

	.def	_ZN153_$LT$core..result..Result$LT$T$C$F$GT$$u20$as$u20$core..ops..try_trait..FromResidual$LT$core..result..Result$LT$core..convert..Infallible$C$E$GT$$GT$$GT$13from_residual17hf701914bcf82a135E;
	.scl	2;
	.type	32;
	.endef
	.section	.text,"xr",one_only,_ZN153_$LT$core..result..Result$LT$T$C$F$GT$$u20$as$u20$core..ops..try_trait..FromResidual$LT$core..result..Result$LT$core..convert..Infallible$C$E$GT$$GT$$GT$13from_residual17hf701914bcf82a135E
	.globl	_ZN153_$LT$core..result..Result$LT$T$C$F$GT$$u20$as$u20$core..ops..try_trait..FromResidual$LT$core..result..Result$LT$core..convert..Infallible$C$E$GT$$GT$$GT$13from_residual17hf701914bcf82a135E
	.p2align	4, 0x90
_ZN153_$LT$core..result..Result$LT$T$C$F$GT$$u20$as$u20$core..ops..try_trait..FromResidual$LT$core..result..Result$LT$core..convert..Infallible$C$E$GT$$GT$$GT$13from_residual17hf701914bcf82a135E:
.seh_proc _ZN153_$LT$core..result..Result$LT$T$C$F$GT$$u20$as$u20$core..ops..try_trait..FromResidual$LT$core..result..Result$LT$core..convert..Infallible$C$E$GT$$GT$$GT$13from_residual17hf701914bcf82a135E
	pushq	%rax
	.seh_stackalloc 8
	.seh_endprologue
	movb	$1, 7(%rsp)
	movb	7(%rsp), %al
	andb	$1, %al
	movzbl	%al, %eax
	popq	%rcx
	retq
	.seh_endproc

	.def	_ZN157_$LT$$LT$alloc..vec..into_iter..IntoIter$LT$T$C$A$GT$$u20$as$u20$core..ops..drop..Drop$GT$..drop..DropGuard$LT$T$C$A$GT$$u20$as$u20$core..ops..drop..Drop$GT$4drop17h4b4e61e47fae2cf6E;
	.scl	2;
	.type	32;
	.endef
	.section	.text,"xr",one_only,_ZN157_$LT$$LT$alloc..vec..into_iter..IntoIter$LT$T$C$A$GT$$u20$as$u20$core..ops..drop..Drop$GT$..drop..DropGuard$LT$T$C$A$GT$$u20$as$u20$core..ops..drop..Drop$GT$4drop17h4b4e61e47fae2cf6E
	.globl	_ZN157_$LT$$LT$alloc..vec..into_iter..IntoIter$LT$T$C$A$GT$$u20$as$u20$core..ops..drop..Drop$GT$..drop..DropGuard$LT$T$C$A$GT$$u20$as$u20$core..ops..drop..Drop$GT$4drop17h4b4e61e47fae2cf6E
	.p2align	4, 0x90
_ZN157_$LT$$LT$alloc..vec..into_iter..IntoIter$LT$T$C$A$GT$$u20$as$u20$core..ops..drop..Drop$GT$..drop..DropGuard$LT$T$C$A$GT$$u20$as$u20$core..ops..drop..Drop$GT$4drop17h4b4e61e47fae2cf6E:
.Lfunc_begin8:
.seh_proc _ZN157_$LT$$LT$alloc..vec..into_iter..IntoIter$LT$T$C$A$GT$$u20$as$u20$core..ops..drop..Drop$GT$..drop..DropGuard$LT$T$C$A$GT$$u20$as$u20$core..ops..drop..Drop$GT$4drop17h4b4e61e47fae2cf6E
	.seh_handler __CxxFrameHandler3, @unwind, @except
	pushq	%rbp
	.seh_pushreg %rbp
	subq	$80, %rsp
	.seh_stackalloc 80
	leaq	80(%rsp), %rbp
	.seh_setframe %rbp, 80
	.seh_endprologue
	movq	$-2, -8(%rbp)
	movq	(%rcx), %rcx
	movq	(%rcx), %rax
	movq	8(%rcx), %rcx
	movq	%rcx, -32(%rbp)
	movq	%rax, -16(%rbp)
	movq	-16(%rbp), %rax
	movq	%rax, -24(%rbp)
	movq	-32(%rbp), %rax
	movq	-24(%rbp), %rcx
	movq	%rcx, -40(%rbp)
	movq	%rax, -48(%rbp)
.Ltmp26:
	leaq	-48(%rbp), %rcx
	callq	_ZN4core3ptr73drop_in_place$LT$alloc..raw_vec..RawVec$LT$proc_macro2..TokenTree$GT$$GT$17h65a3b06b30667695E
.Ltmp27:
	jmp	.LBB52_2
.LBB52_2:
	addq	$80, %rsp
	popq	%rbp
	retq
	.seh_handlerdata
	.long	($cppxdata$_ZN157_$LT$$LT$alloc..vec..into_iter..IntoIter$LT$T$C$A$GT$$u20$as$u20$core..ops..drop..Drop$GT$..drop..DropGuard$LT$T$C$A$GT$$u20$as$u20$core..ops..drop..Drop$GT$4drop17h4b4e61e47fae2cf6E)@IMGREL
	.section	.text,"xr",one_only,_ZN157_$LT$$LT$alloc..vec..into_iter..IntoIter$LT$T$C$A$GT$$u20$as$u20$core..ops..drop..Drop$GT$..drop..DropGuard$LT$T$C$A$GT$$u20$as$u20$core..ops..drop..Drop$GT$4drop17h4b4e61e47fae2cf6E
	.seh_endproc
	.def	"?dtor$1@?0?_ZN157_$LT$$LT$alloc..vec..into_iter..IntoIter$LT$T$C$A$GT$$u20$as$u20$core..ops..drop..Drop$GT$..drop..DropGuard$LT$T$C$A$GT$$u20$as$u20$core..ops..drop..Drop$GT$4drop17h4b4e61e47fae2cf6E@4HA";
	.scl	3;
	.type	32;
	.endef
	.p2align	4, 0x90
"?dtor$1@?0?_ZN157_$LT$$LT$alloc..vec..into_iter..IntoIter$LT$T$C$A$GT$$u20$as$u20$core..ops..drop..Drop$GT$..drop..DropGuard$LT$T$C$A$GT$$u20$as$u20$core..ops..drop..Drop$GT$4drop17h4b4e61e47fae2cf6E@4HA":
.seh_proc "?dtor$1@?0?_ZN157_$LT$$LT$alloc..vec..into_iter..IntoIter$LT$T$C$A$GT$$u20$as$u20$core..ops..drop..Drop$GT$..drop..DropGuard$LT$T$C$A$GT$$u20$as$u20$core..ops..drop..Drop$GT$4drop17h4b4e61e47fae2cf6E@4HA"
.LBB52_1:
	movq	%rdx, 16(%rsp)
	pushq	%rbp
	.seh_pushreg %rbp
	subq	$32, %rsp
	.seh_stackalloc 32
	leaq	80(%rdx), %rbp
	.seh_endprologue
	addq	$32, %rsp
	popq	%rbp
	retq
.Lfunc_end8:
	.seh_handlerdata
	.section	.text,"xr",one_only,_ZN157_$LT$$LT$alloc..vec..into_iter..IntoIter$LT$T$C$A$GT$$u20$as$u20$core..ops..drop..Drop$GT$..drop..DropGuard$LT$T$C$A$GT$$u20$as$u20$core..ops..drop..Drop$GT$4drop17h4b4e61e47fae2cf6E
	.seh_endproc
	.section	.xdata,"dr",associative,_ZN157_$LT$$LT$alloc..vec..into_iter..IntoIter$LT$T$C$A$GT$$u20$as$u20$core..ops..drop..Drop$GT$..drop..DropGuard$LT$T$C$A$GT$$u20$as$u20$core..ops..drop..Drop$GT$4drop17h4b4e61e47fae2cf6E
	.p2align	2, 0x0
$cppxdata$_ZN157_$LT$$LT$alloc..vec..into_iter..IntoIter$LT$T$C$A$GT$$u20$as$u20$core..ops..drop..Drop$GT$..drop..DropGuard$LT$T$C$A$GT$$u20$as$u20$core..ops..drop..Drop$GT$4drop17h4b4e61e47fae2cf6E:
	.long	429065506
	.long	1
	.long	($stateUnwindMap$_ZN157_$LT$$LT$alloc..vec..into_iter..IntoIter$LT$T$C$A$GT$$u20$as$u20$core..ops..drop..Drop$GT$..drop..DropGuard$LT$T$C$A$GT$$u20$as$u20$core..ops..drop..Drop$GT$4drop17h4b4e61e47fae2cf6E)@IMGREL
	.long	0
	.long	0
	.long	3
	.long	($ip2state$_ZN157_$LT$$LT$alloc..vec..into_iter..IntoIter$LT$T$C$A$GT$$u20$as$u20$core..ops..drop..Drop$GT$..drop..DropGuard$LT$T$C$A$GT$$u20$as$u20$core..ops..drop..Drop$GT$4drop17h4b4e61e47fae2cf6E)@IMGREL
	.long	72
	.long	0
	.long	1
$stateUnwindMap$_ZN157_$LT$$LT$alloc..vec..into_iter..IntoIter$LT$T$C$A$GT$$u20$as$u20$core..ops..drop..Drop$GT$..drop..DropGuard$LT$T$C$A$GT$$u20$as$u20$core..ops..drop..Drop$GT$4drop17h4b4e61e47fae2cf6E:
	.long	-1
	.long	"?dtor$1@?0?_ZN157_$LT$$LT$alloc..vec..into_iter..IntoIter$LT$T$C$A$GT$$u20$as$u20$core..ops..drop..Drop$GT$..drop..DropGuard$LT$T$C$A$GT$$u20$as$u20$core..ops..drop..Drop$GT$4drop17h4b4e61e47fae2cf6E@4HA"@IMGREL
$ip2state$_ZN157_$LT$$LT$alloc..vec..into_iter..IntoIter$LT$T$C$A$GT$$u20$as$u20$core..ops..drop..Drop$GT$..drop..DropGuard$LT$T$C$A$GT$$u20$as$u20$core..ops..drop..Drop$GT$4drop17h4b4e61e47fae2cf6E:
	.long	.Lfunc_begin8@IMGREL
	.long	-1
	.long	.Ltmp26@IMGREL+1
	.long	0
	.long	.Ltmp27@IMGREL+1
	.long	-1
	.section	.text,"xr",one_only,_ZN157_$LT$$LT$alloc..vec..into_iter..IntoIter$LT$T$C$A$GT$$u20$as$u20$core..ops..drop..Drop$GT$..drop..DropGuard$LT$T$C$A$GT$$u20$as$u20$core..ops..drop..Drop$GT$4drop17h4b4e61e47fae2cf6E

	.def	_ZN157_$LT$$LT$alloc..vec..into_iter..IntoIter$LT$T$C$A$GT$$u20$as$u20$core..ops..drop..Drop$GT$..drop..DropGuard$LT$T$C$A$GT$$u20$as$u20$core..ops..drop..Drop$GT$4drop17hac9e398f28dccd2cE;
	.scl	2;
	.type	32;
	.endef
	.section	.text,"xr",one_only,_ZN157_$LT$$LT$alloc..vec..into_iter..IntoIter$LT$T$C$A$GT$$u20$as$u20$core..ops..drop..Drop$GT$..drop..DropGuard$LT$T$C$A$GT$$u20$as$u20$core..ops..drop..Drop$GT$4drop17hac9e398f28dccd2cE
	.globl	_ZN157_$LT$$LT$alloc..vec..into_iter..IntoIter$LT$T$C$A$GT$$u20$as$u20$core..ops..drop..Drop$GT$..drop..DropGuard$LT$T$C$A$GT$$u20$as$u20$core..ops..drop..Drop$GT$4drop17hac9e398f28dccd2cE
	.p2align	4, 0x90
_ZN157_$LT$$LT$alloc..vec..into_iter..IntoIter$LT$T$C$A$GT$$u20$as$u20$core..ops..drop..Drop$GT$..drop..DropGuard$LT$T$C$A$GT$$u20$as$u20$core..ops..drop..Drop$GT$4drop17hac9e398f28dccd2cE:
.Lfunc_begin9:
.seh_proc _ZN157_$LT$$LT$alloc..vec..into_iter..IntoIter$LT$T$C$A$GT$$u20$as$u20$core..ops..drop..Drop$GT$..drop..DropGuard$LT$T$C$A$GT$$u20$as$u20$core..ops..drop..Drop$GT$4drop17hac9e398f28dccd2cE
	.seh_handler __CxxFrameHandler3, @unwind, @except
	pushq	%rbp
	.seh_pushreg %rbp
	subq	$80, %rsp
	.seh_stackalloc 80
	leaq	80(%rsp), %rbp
	.seh_setframe %rbp, 80
	.seh_endprologue
	movq	$-2, -8(%rbp)
	movq	(%rcx), %rcx
	movq	(%rcx), %rax
	movq	8(%rcx), %rcx
	movq	%rcx, -32(%rbp)
	movq	%rax, -16(%rbp)
	movq	-16(%rbp), %rax
	movq	%rax, -24(%rbp)
	movq	-32(%rbp), %rax
	movq	-24(%rbp), %rcx
	movq	%rcx, -40(%rbp)
	movq	%rax, -48(%rbp)
.Ltmp28:
	leaq	-48(%rbp), %rcx
	callq	_ZN4core3ptr199drop_in_place$LT$alloc..raw_vec..RawVec$LT$proc_macro..bridge..TokenTree$LT$proc_macro..bridge..client..TokenStream$C$proc_macro..bridge..client..Span$C$proc_macro..bridge..symbol..Symbol$GT$$GT$$GT$17h84283864e082683bE
.Ltmp29:
	jmp	.LBB53_2
.LBB53_2:
	addq	$80, %rsp
	popq	%rbp
	retq
	.seh_handlerdata
	.long	($cppxdata$_ZN157_$LT$$LT$alloc..vec..into_iter..IntoIter$LT$T$C$A$GT$$u20$as$u20$core..ops..drop..Drop$GT$..drop..DropGuard$LT$T$C$A$GT$$u20$as$u20$core..ops..drop..Drop$GT$4drop17hac9e398f28dccd2cE)@IMGREL
	.section	.text,"xr",one_only,_ZN157_$LT$$LT$alloc..vec..into_iter..IntoIter$LT$T$C$A$GT$$u20$as$u20$core..ops..drop..Drop$GT$..drop..DropGuard$LT$T$C$A$GT$$u20$as$u20$core..ops..drop..Drop$GT$4drop17hac9e398f28dccd2cE
	.seh_endproc
	.def	"?dtor$1@?0?_ZN157_$LT$$LT$alloc..vec..into_iter..IntoIter$LT$T$C$A$GT$$u20$as$u20$core..ops..drop..Drop$GT$..drop..DropGuard$LT$T$C$A$GT$$u20$as$u20$core..ops..drop..Drop$GT$4drop17hac9e398f28dccd2cE@4HA";
	.scl	3;
	.type	32;
	.endef
	.p2align	4, 0x90
"?dtor$1@?0?_ZN157_$LT$$LT$alloc..vec..into_iter..IntoIter$LT$T$C$A$GT$$u20$as$u20$core..ops..drop..Drop$GT$..drop..DropGuard$LT$T$C$A$GT$$u20$as$u20$core..ops..drop..Drop$GT$4drop17hac9e398f28dccd2cE@4HA":
.seh_proc "?dtor$1@?0?_ZN157_$LT$$LT$alloc..vec..into_iter..IntoIter$LT$T$C$A$GT$$u20$as$u20$core..ops..drop..Drop$GT$..drop..DropGuard$LT$T$C$A$GT$$u20$as$u20$core..ops..drop..Drop$GT$4drop17hac9e398f28dccd2cE@4HA"
.LBB53_1:
	movq	%rdx, 16(%rsp)
	pushq	%rbp
	.seh_pushreg %rbp
	subq	$32, %rsp
	.seh_stackalloc 32
	leaq	80(%rdx), %rbp
	.seh_endprologue
	addq	$32, %rsp
	popq	%rbp
	retq
.Lfunc_end9:
	.seh_handlerdata
	.section	.text,"xr",one_only,_ZN157_$LT$$LT$alloc..vec..into_iter..IntoIter$LT$T$C$A$GT$$u20$as$u20$core..ops..drop..Drop$GT$..drop..DropGuard$LT$T$C$A$GT$$u20$as$u20$core..ops..drop..Drop$GT$4drop17hac9e398f28dccd2cE
	.seh_endproc
	.section	.xdata,"dr",associative,_ZN157_$LT$$LT$alloc..vec..into_iter..IntoIter$LT$T$C$A$GT$$u20$as$u20$core..ops..drop..Drop$GT$..drop..DropGuard$LT$T$C$A$GT$$u20$as$u20$core..ops..drop..Drop$GT$4drop17hac9e398f28dccd2cE
	.p2align	2, 0x0
$cppxdata$_ZN157_$LT$$LT$alloc..vec..into_iter..IntoIter$LT$T$C$A$GT$$u20$as$u20$core..ops..drop..Drop$GT$..drop..DropGuard$LT$T$C$A$GT$$u20$as$u20$core..ops..drop..Drop$GT$4drop17hac9e398f28dccd2cE:
	.long	429065506
	.long	1
	.long	($stateUnwindMap$_ZN157_$LT$$LT$alloc..vec..into_iter..IntoIter$LT$T$C$A$GT$$u20$as$u20$core..ops..drop..Drop$GT$..drop..DropGuard$LT$T$C$A$GT$$u20$as$u20$core..ops..drop..Drop$GT$4drop17hac9e398f28dccd2cE)@IMGREL
	.long	0
	.long	0
	.long	3
	.long	($ip2state$_ZN157_$LT$$LT$alloc..vec..into_iter..IntoIter$LT$T$C$A$GT$$u20$as$u20$core..ops..drop..Drop$GT$..drop..DropGuard$LT$T$C$A$GT$$u20$as$u20$core..ops..drop..Drop$GT$4drop17hac9e398f28dccd2cE)@IMGREL
	.long	72
	.long	0
	.long	1
$stateUnwindMap$_ZN157_$LT$$LT$alloc..vec..into_iter..IntoIter$LT$T$C$A$GT$$u20$as$u20$core..ops..drop..Drop$GT$..drop..DropGuard$LT$T$C$A$GT$$u20$as$u20$core..ops..drop..Drop$GT$4drop17hac9e398f28dccd2cE:
	.long	-1
	.long	"?dtor$1@?0?_ZN157_$LT$$LT$alloc..vec..into_iter..IntoIter$LT$T$C$A$GT$$u20$as$u20$core..ops..drop..Drop$GT$..drop..DropGuard$LT$T$C$A$GT$$u20$as$u20$core..ops..drop..Drop$GT$4drop17hac9e398f28dccd2cE@4HA"@IMGREL
$ip2state$_ZN157_$LT$$LT$alloc..vec..into_iter..IntoIter$LT$T$C$A$GT$$u20$as$u20$core..ops..drop..Drop$GT$..drop..DropGuard$LT$T$C$A$GT$$u20$as$u20$core..ops..drop..Drop$GT$4drop17hac9e398f28dccd2cE:
	.long	.Lfunc_begin9@IMGREL
	.long	-1
	.long	.Ltmp28@IMGREL+1
	.long	0
	.long	.Ltmp29@IMGREL+1
	.long	-1
	.section	.text,"xr",one_only,_ZN157_$LT$$LT$alloc..vec..into_iter..IntoIter$LT$T$C$A$GT$$u20$as$u20$core..ops..drop..Drop$GT$..drop..DropGuard$LT$T$C$A$GT$$u20$as$u20$core..ops..drop..Drop$GT$4drop17hac9e398f28dccd2cE

	.def	_ZN3std4sync4once4Once9call_once17h48c777402a1641eaE;
	.scl	2;
	.type	32;
	.endef
	.section	.text,"xr",one_only,_ZN3std4sync4once4Once9call_once17h48c777402a1641eaE
	.globl	_ZN3std4sync4once4Once9call_once17h48c777402a1641eaE
	.p2align	4, 0x90
_ZN3std4sync4once4Once9call_once17h48c777402a1641eaE:
.Lfunc_begin10:
.seh_proc _ZN3std4sync4once4Once9call_once17h48c777402a1641eaE
	.seh_handler __CxxFrameHandler3, @unwind, @except
	pushq	%rbp
	.seh_pushreg %rbp
	subq	$96, %rsp
	.seh_stackalloc 96
	leaq	96(%rsp), %rbp
	.seh_setframe %rbp, 96
	.seh_endprologue
	movq	$-2, -8(%rbp)
	movq	%rdx, -56(%rbp)
	movq	%rcx, -48(%rbp)
	movb	$1, -9(%rbp)
.Ltmp30:
	movb	$2, %dl
	callq	_ZN4core4sync6atomic11atomic_load17h29ea35abb93abdc6E
.Ltmp31:
	movq	%rax, -40(%rbp)
	jmp	.LBB54_2
.LBB54_2:
	movq	-40(%rbp), %rax
	cmpq	$3, %rax
	je	.LBB54_4
	movq	-48(%rbp), %rcx
	movq	-56(%rbp), %rdx
	movb	$0, -9(%rbp)
	movb	$1, -25(%rbp)
	leaq	-25(%rbp), %rax
	movq	%rax, -24(%rbp)
.Ltmp32:
	movq	%rsp, %rax
	movq	%rdx, 32(%rax)
	leaq	__unnamed_4(%rip), %r9
	xorl	%eax, %eax
	movb	%al, %dl
	leaq	-24(%rbp), %r8
	callq	_ZN3std10sys_common4once5queue4Once4call17hcdeee4f814a2fb68E
.Ltmp33:
	jmp	.LBB54_6
.LBB54_4:
	jmp	.LBB54_7
.LBB54_6:
	jmp	.LBB54_7
.LBB54_7:
	addq	$96, %rsp
	popq	%rbp
	retq
	.seh_handlerdata
	.long	($cppxdata$_ZN3std4sync4once4Once9call_once17h48c777402a1641eaE)@IMGREL
	.section	.text,"xr",one_only,_ZN3std4sync4once4Once9call_once17h48c777402a1641eaE
	.seh_endproc
	.def	"?dtor$1@?0?_ZN3std4sync4once4Once9call_once17h48c777402a1641eaE@4HA";
	.scl	3;
	.type	32;
	.endef
	.p2align	4, 0x90
"?dtor$1@?0?_ZN3std4sync4once4Once9call_once17h48c777402a1641eaE@4HA":
.seh_proc "?dtor$1@?0?_ZN3std4sync4once4Once9call_once17h48c777402a1641eaE@4HA"
.LBB54_1:
	movq	%rdx, 16(%rsp)
	pushq	%rbp
	.seh_pushreg %rbp
	subq	$48, %rsp
	.seh_stackalloc 48
	leaq	96(%rdx), %rbp
	.seh_endprologue
	testb	$1, -9(%rbp)
	jne	.LBB54_9
	jmp	.LBB54_8
.LBB54_8:
	addq	$48, %rsp
	popq	%rbp
	retq
.LBB54_9:
	jmp	.LBB54_8
	.seh_handlerdata
	.section	.text,"xr",one_only,_ZN3std4sync4once4Once9call_once17h48c777402a1641eaE
	.seh_endproc
	.def	"?dtor$5@?0?_ZN3std4sync4once4Once9call_once17h48c777402a1641eaE@4HA";
	.scl	3;
	.type	32;
	.endef
	.p2align	4, 0x90
"?dtor$5@?0?_ZN3std4sync4once4Once9call_once17h48c777402a1641eaE@4HA":
.seh_proc "?dtor$5@?0?_ZN3std4sync4once4Once9call_once17h48c777402a1641eaE@4HA"
.LBB54_5:
	movq	%rdx, 16(%rsp)
	pushq	%rbp
	.seh_pushreg %rbp
	subq	$48, %rsp
	.seh_stackalloc 48
	leaq	96(%rdx), %rbp
	.seh_endprologue
	addq	$48, %rsp
	popq	%rbp
	retq
.Lfunc_end10:
	.seh_handlerdata
	.section	.text,"xr",one_only,_ZN3std4sync4once4Once9call_once17h48c777402a1641eaE
	.seh_endproc
	.section	.xdata,"dr",associative,_ZN3std4sync4once4Once9call_once17h48c777402a1641eaE
	.p2align	2, 0x0
$cppxdata$_ZN3std4sync4once4Once9call_once17h48c777402a1641eaE:
	.long	429065506
	.long	2
	.long	($stateUnwindMap$_ZN3std4sync4once4Once9call_once17h48c777402a1641eaE)@IMGREL
	.long	0
	.long	0
	.long	4
	.long	($ip2state$_ZN3std4sync4once4Once9call_once17h48c777402a1641eaE)@IMGREL
	.long	88
	.long	0
	.long	1
$stateUnwindMap$_ZN3std4sync4once4Once9call_once17h48c777402a1641eaE:
	.long	-1
	.long	"?dtor$1@?0?_ZN3std4sync4once4Once9call_once17h48c777402a1641eaE@4HA"@IMGREL
	.long	0
	.long	"?dtor$5@?0?_ZN3std4sync4once4Once9call_once17h48c777402a1641eaE@4HA"@IMGREL
$ip2state$_ZN3std4sync4once4Once9call_once17h48c777402a1641eaE:
	.long	.Lfunc_begin10@IMGREL
	.long	-1
	.long	.Ltmp30@IMGREL+1
	.long	0
	.long	.Ltmp32@IMGREL+1
	.long	1
	.long	.Ltmp33@IMGREL+1
	.long	-1
	.section	.text,"xr",one_only,_ZN3std4sync4once4Once9call_once17h48c777402a1641eaE

	.def	_ZN3std4sync4once4Once9call_once28_$u7b$$u7b$closure$u7d$$u7d$17h908b745646f281e9E;
	.scl	2;
	.type	32;
	.endef
	.section	.text,"xr",one_only,_ZN3std4sync4once4Once9call_once28_$u7b$$u7b$closure$u7d$$u7d$17h908b745646f281e9E
	.globl	_ZN3std4sync4once4Once9call_once28_$u7b$$u7b$closure$u7d$$u7d$17h908b745646f281e9E
	.p2align	4, 0x90
_ZN3std4sync4once4Once9call_once28_$u7b$$u7b$closure$u7d$$u7d$17h908b745646f281e9E:
.seh_proc _ZN3std4sync4once4Once9call_once28_$u7b$$u7b$closure$u7d$$u7d$17h908b745646f281e9E
	subq	$40, %rsp
	.seh_stackalloc 40
	.seh_endprologue
	movq	(%rcx), %rax
	movb	$0, 39(%rsp)
	movb	(%rax), %cl
	andb	$1, %cl
	movb	%cl, 38(%rsp)
	movb	39(%rsp), %cl
	andb	$1, %cl
	movb	%cl, (%rax)
	movb	38(%rsp), %al
	andb	$1, %al
	movzbl	%al, %eax
	cmpq	$0, %rax
	jne	.LBB55_2
	leaq	__unnamed_5(%rip), %rcx
	leaq	__unnamed_6(%rip), %r8
	movl	$43, %edx
	callq	_ZN4core9panicking5panic17hb11f2d409f96600eE
.LBB55_2:
	callq	_ZN4core3ops8function6FnOnce9call_once17h9d1d02e291ad9505E
	nop
	addq	$40, %rsp
	retq
	.seh_endproc

	.def	_ZN3std5panic12catch_unwind17h1dd7b332496388d5E;
	.scl	2;
	.type	32;
	.endef
	.section	.text,"xr",one_only,_ZN3std5panic12catch_unwind17h1dd7b332496388d5E
	.globl	_ZN3std5panic12catch_unwind17h1dd7b332496388d5E
	.p2align	4, 0x90
_ZN3std5panic12catch_unwind17h1dd7b332496388d5E:
.seh_proc _ZN3std5panic12catch_unwind17h1dd7b332496388d5E
	subq	$40, %rsp
	.seh_stackalloc 40
	.seh_endprologue
	movq	%rcx, %rax
	movq	%rax, 32(%rsp)
	callq	_ZN3std9panicking3try17h7aa607aeb42e15a7E
	movq	32(%rsp), %rax
	addq	$40, %rsp
	retq
	.seh_endproc

	.def	_ZN3std9panicking3try17h7aa607aeb42e15a7E;
	.scl	2;
	.type	32;
	.endef
	.section	.text,"xr",one_only,_ZN3std9panicking3try17h7aa607aeb42e15a7E
	.globl	_ZN3std9panicking3try17h7aa607aeb42e15a7E
	.p2align	4, 0x90
_ZN3std9panicking3try17h7aa607aeb42e15a7E:
.seh_proc _ZN3std9panicking3try17h7aa607aeb42e15a7E
	subq	$104, %rsp
	.seh_stackalloc 104
	.seh_endprologue
	movq	%rcx, 32(%rsp)
	movq	%rcx, 40(%rsp)
	movq	%rdx, 64(%rsp)
	movq	%r8, 72(%rsp)
	movq	64(%rsp), %rcx
	movq	72(%rsp), %rax
	movq	%rcx, 48(%rsp)
	movq	%rax, 56(%rsp)
	leaq	_ZN3std9panicking3try7do_call17h548bd6297440633dE(%rip), %rcx
	leaq	48(%rsp), %rdx
	leaq	_ZN3std9panicking3try8do_catch17h4637732f71a6374cE(%rip), %r8
	callq	__rust_try
	movl	%eax, 100(%rsp)
	cmpl	$0, 100(%rsp)
	jne	.LBB57_2
	movq	32(%rsp), %rax
	movq	48(%rsp), %rcx
	movq	%rcx, 92(%rsp)
	movq	92(%rsp), %rcx
	movq	%rcx, 84(%rsp)
	movq	84(%rsp), %rcx
	movq	%rcx, 8(%rax)
	movq	$0, (%rax)
	jmp	.LBB57_3
.LBB57_2:
	movq	32(%rsp), %rax
	movq	48(%rsp), %rdx
	movq	56(%rsp), %rcx
	movq	%rdx, (%rax)
	movq	%rcx, 8(%rax)
.LBB57_3:
	movq	40(%rsp), %rax
	addq	$104, %rsp
	retq
	.seh_endproc

	.def	_ZN3std9panicking3try7do_call17h548bd6297440633dE;
	.scl	2;
	.type	32;
	.endef
	.section	.text,"xr",one_only,_ZN3std9panicking3try7do_call17h548bd6297440633dE
	.globl	_ZN3std9panicking3try7do_call17h548bd6297440633dE
	.p2align	4, 0x90
_ZN3std9panicking3try7do_call17h548bd6297440633dE:
.seh_proc _ZN3std9panicking3try7do_call17h548bd6297440633dE
	subq	$72, %rsp
	.seh_stackalloc 72
	.seh_endprologue
	movq	%rcx, %rax
	movq	%rax, 40(%rsp)
	movq	(%rax), %rcx
	movq	8(%rax), %rdx
	callq	_ZN11proc_macro23imp16proc_macro_parse28_$u7b$$u7b$closure$u7d$$u7d$17hbb8038b490034ec5E
	movq	40(%rsp), %rcx
	movq	%rax, 64(%rsp)
	movq	64(%rsp), %rax
	movq	%rax, 56(%rsp)
	movq	56(%rsp), %rax
	movq	%rax, 48(%rsp)
	movq	48(%rsp), %rax
	movq	%rax, (%rcx)
	addq	$72, %rsp
	retq
	.seh_endproc

	.def	_ZN3std9panicking3try8do_catch17h4637732f71a6374cE;
	.scl	2;
	.type	32;
	.endef
	.section	.text,"xr",one_only,_ZN3std9panicking3try8do_catch17h4637732f71a6374cE
	.globl	_ZN3std9panicking3try8do_catch17h4637732f71a6374cE
	.p2align	4, 0x90
_ZN3std9panicking3try8do_catch17h4637732f71a6374cE:
.Lfunc_begin11:
.seh_proc _ZN3std9panicking3try8do_catch17h4637732f71a6374cE
	.seh_handler __CxxFrameHandler3, @unwind, @except
	pushq	%rbp
	.seh_pushreg %rbp
	subq	$96, %rsp
	.seh_stackalloc 96
	leaq	96(%rsp), %rbp
	.seh_setframe %rbp, 96
	.seh_endprologue
	movq	$-2, -8(%rbp)
	movq	%rdx, -56(%rbp)
	movq	%rcx, %rax
	movq	-56(%rbp), %rcx
	movq	%rax, -48(%rbp)
.Ltmp34:
	callq	_ZN3std9panicking3try7cleanup17h059e2575766b5663E
.Ltmp35:
	movq	%rdx, -40(%rbp)
	movq	%rax, -32(%rbp)
	jmp	.LBB59_2
.LBB59_2:
	movq	-48(%rbp), %rax
	movq	-40(%rbp), %rcx
	movq	-32(%rbp), %rdx
	movq	%rdx, -24(%rbp)
	movq	%rcx, -16(%rbp)
	movq	-24(%rbp), %rdx
	movq	-16(%rbp), %rcx
	movq	%rdx, (%rax)
	movq	%rcx, 8(%rax)
	addq	$96, %rsp
	popq	%rbp
	retq
	.seh_handlerdata
	.long	($cppxdata$_ZN3std9panicking3try8do_catch17h4637732f71a6374cE)@IMGREL
	.section	.text,"xr",one_only,_ZN3std9panicking3try8do_catch17h4637732f71a6374cE
	.seh_endproc
	.def	"?catch$1@?0?_ZN3std9panicking3try8do_catch17h4637732f71a6374cE@4HA";
	.scl	3;
	.type	32;
	.endef
	.p2align	4, 0x90
"?catch$1@?0?_ZN3std9panicking3try8do_catch17h4637732f71a6374cE@4HA":
.seh_proc "?catch$1@?0?_ZN3std9panicking3try8do_catch17h4637732f71a6374cE@4HA"
	.seh_handler __CxxFrameHandler3, @unwind, @except
.LBB59_1:
	movq	%rdx, 16(%rsp)
	pushq	%rbp
	.seh_pushreg %rbp
	subq	$32, %rsp
	.seh_stackalloc 32
	leaq	96(%rdx), %rbp
	.seh_endprologue
	callq	_ZN4core9panicking19panic_cannot_unwind17h49d978f716c1f361E
	int3
.Lfunc_end11:
	.seh_handlerdata
	.long	($cppxdata$_ZN3std9panicking3try8do_catch17h4637732f71a6374cE)@IMGREL
	.section	.text,"xr",one_only,_ZN3std9panicking3try8do_catch17h4637732f71a6374cE
	.seh_endproc
	.section	.xdata,"dr",associative,_ZN3std9panicking3try8do_catch17h4637732f71a6374cE
	.p2align	2, 0x0
$cppxdata$_ZN3std9panicking3try8do_catch17h4637732f71a6374cE:
	.long	429065506
	.long	2
	.long	($stateUnwindMap$_ZN3std9panicking3try8do_catch17h4637732f71a6374cE)@IMGREL
	.long	1
	.long	($tryMap$_ZN3std9panicking3try8do_catch17h4637732f71a6374cE)@IMGREL
	.long	4
	.long	($ip2state$_ZN3std9panicking3try8do_catch17h4637732f71a6374cE)@IMGREL
	.long	88
	.long	0
	.long	1
$stateUnwindMap$_ZN3std9panicking3try8do_catch17h4637732f71a6374cE:
	.long	-1
	.long	0
	.long	-1
	.long	0
$tryMap$_ZN3std9panicking3try8do_catch17h4637732f71a6374cE:
	.long	0
	.long	0
	.long	1
	.long	1
	.long	($handlerMap$0$_ZN3std9panicking3try8do_catch17h4637732f71a6374cE)@IMGREL
$handlerMap$0$_ZN3std9panicking3try8do_catch17h4637732f71a6374cE:
	.long	64
	.long	0
	.long	0
	.long	"?catch$1@?0?_ZN3std9panicking3try8do_catch17h4637732f71a6374cE@4HA"@IMGREL
	.long	56
$ip2state$_ZN3std9panicking3try8do_catch17h4637732f71a6374cE:
	.long	.Lfunc_begin11@IMGREL
	.long	-1
	.long	.Ltmp34@IMGREL+1
	.long	0
	.long	.Ltmp35@IMGREL+1
	.long	-1
	.long	"?catch$1@?0?_ZN3std9panicking3try8do_catch17h4637732f71a6374cE@4HA"@IMGREL
	.long	1
	.section	.text,"xr",one_only,_ZN3std9panicking3try8do_catch17h4637732f71a6374cE

	.def	_ZN41_$LT$bool$u20$as$u20$core..fmt..Debug$GT$3fmt17hf439218343744936E;
	.scl	3;
	.type	32;
	.endef
	.section	.text,"xr",one_only,_ZN41_$LT$bool$u20$as$u20$core..fmt..Debug$GT$3fmt17hf439218343744936E
	.p2align	4, 0x90
_ZN41_$LT$bool$u20$as$u20$core..fmt..Debug$GT$3fmt17hf439218343744936E:
.seh_proc _ZN41_$LT$bool$u20$as$u20$core..fmt..Debug$GT$3fmt17hf439218343744936E
	subq	$40, %rsp
	.seh_stackalloc 40
	.seh_endprologue
	callq	_ZN43_$LT$bool$u20$as$u20$core..fmt..Display$GT$3fmt17h0d4c244b8076b900E
	andb	$1, %al
	movzbl	%al, %eax
	addq	$40, %rsp
	retq
	.seh_endproc

	.def	_ZN42_$LT$$RF$T$u20$as$u20$core..fmt..Debug$GT$3fmt17h062b07989e76dd37E;
	.scl	2;
	.type	32;
	.endef
	.section	.text,"xr",one_only,_ZN42_$LT$$RF$T$u20$as$u20$core..fmt..Debug$GT$3fmt17h062b07989e76dd37E
	.globl	_ZN42_$LT$$RF$T$u20$as$u20$core..fmt..Debug$GT$3fmt17h062b07989e76dd37E
	.p2align	4, 0x90
_ZN42_$LT$$RF$T$u20$as$u20$core..fmt..Debug$GT$3fmt17h062b07989e76dd37E:
.seh_proc _ZN42_$LT$$RF$T$u20$as$u20$core..fmt..Debug$GT$3fmt17h062b07989e76dd37E
	subq	$40, %rsp
	.seh_stackalloc 40
	.seh_endprologue
	movq	%rdx, %r8
	movq	%rcx, %rax
	movq	(%rax), %rcx
	movq	8(%rax), %rdx
	callq	_ZN40_$LT$str$u20$as$u20$core..fmt..Debug$GT$3fmt17he12099553dc4bc12E
	andb	$1, %al
	movzbl	%al, %eax
	addq	$40, %rsp
	retq
	.seh_endproc

	.def	_ZN42_$LT$$RF$T$u20$as$u20$core..fmt..Debug$GT$3fmt17h3dd86db3ffbad37aE;
	.scl	2;
	.type	32;
	.endef
	.section	.text,"xr",one_only,_ZN42_$LT$$RF$T$u20$as$u20$core..fmt..Debug$GT$3fmt17h3dd86db3ffbad37aE
	.globl	_ZN42_$LT$$RF$T$u20$as$u20$core..fmt..Debug$GT$3fmt17h3dd86db3ffbad37aE
	.p2align	4, 0x90
_ZN42_$LT$$RF$T$u20$as$u20$core..fmt..Debug$GT$3fmt17h3dd86db3ffbad37aE:
.seh_proc _ZN42_$LT$$RF$T$u20$as$u20$core..fmt..Debug$GT$3fmt17h3dd86db3ffbad37aE
	subq	$40, %rsp
	.seh_stackalloc 40
	.seh_endprologue
	movq	(%rcx), %rcx
	callq	_ZN66_$LT$core..option..Option$LT$T$GT$$u20$as$u20$core..fmt..Debug$GT$3fmt17hcbd0c3ddb1c8d137E
	andb	$1, %al
	movzbl	%al, %eax
	addq	$40, %rsp
	retq
	.seh_endproc

	.def	_ZN42_$LT$$RF$T$u20$as$u20$core..fmt..Debug$GT$3fmt17h9acb2e407d2042f9E;
	.scl	2;
	.type	32;
	.endef
	.section	.text,"xr",one_only,_ZN42_$LT$$RF$T$u20$as$u20$core..fmt..Debug$GT$3fmt17h9acb2e407d2042f9E
	.globl	_ZN42_$LT$$RF$T$u20$as$u20$core..fmt..Debug$GT$3fmt17h9acb2e407d2042f9E
	.p2align	4, 0x90
_ZN42_$LT$$RF$T$u20$as$u20$core..fmt..Debug$GT$3fmt17h9acb2e407d2042f9E:
.seh_proc _ZN42_$LT$$RF$T$u20$as$u20$core..fmt..Debug$GT$3fmt17h9acb2e407d2042f9E
	subq	$40, %rsp
	.seh_stackalloc 40
	.seh_endprologue
	movq	(%rcx), %rcx
	callq	_ZN64_$LT$proc_macro2..fallback..Span$u20$as$u20$core..fmt..Debug$GT$3fmt17heb5341274e1dea8eE
	andb	$1, %al
	movzbl	%al, %eax
	addq	$40, %rsp
	retq
	.seh_endproc

	.def	_ZN42_$LT$$RF$T$u20$as$u20$core..fmt..Debug$GT$3fmt17hf6f10adad1df6488E;
	.scl	2;
	.type	32;
	.endef
	.section	.text,"xr",one_only,_ZN42_$LT$$RF$T$u20$as$u20$core..fmt..Debug$GT$3fmt17hf6f10adad1df6488E
	.globl	_ZN42_$LT$$RF$T$u20$as$u20$core..fmt..Debug$GT$3fmt17hf6f10adad1df6488E
	.p2align	4, 0x90
_ZN42_$LT$$RF$T$u20$as$u20$core..fmt..Debug$GT$3fmt17hf6f10adad1df6488E:
.seh_proc _ZN42_$LT$$RF$T$u20$as$u20$core..fmt..Debug$GT$3fmt17hf6f10adad1df6488E
	subq	$40, %rsp
	.seh_stackalloc 40
	.seh_endprologue
	movq	(%rcx), %rcx
	callq	_ZN4core3fmt3num52_$LT$impl$u20$core..fmt..Debug$u20$for$u20$usize$GT$3fmt17hc6eaffa64f408983E
	andb	$1, %al
	movzbl	%al, %eax
	addq	$40, %rsp
	retq
	.seh_endproc

	.def	_ZN44_$LT$$RF$T$u20$as$u20$core..fmt..Display$GT$3fmt17h4237fe2072d89901E;
	.scl	2;
	.type	32;
	.endef
	.section	.text,"xr",one_only,_ZN44_$LT$$RF$T$u20$as$u20$core..fmt..Display$GT$3fmt17h4237fe2072d89901E
	.globl	_ZN44_$LT$$RF$T$u20$as$u20$core..fmt..Display$GT$3fmt17h4237fe2072d89901E
	.p2align	4, 0x90
_ZN44_$LT$$RF$T$u20$as$u20$core..fmt..Display$GT$3fmt17h4237fe2072d89901E:
.seh_proc _ZN44_$LT$$RF$T$u20$as$u20$core..fmt..Display$GT$3fmt17h4237fe2072d89901E
	subq	$40, %rsp
	.seh_stackalloc 40
	.seh_endprologue
	movq	%rdx, %r8
	movq	%rcx, %rax
	movq	(%rax), %rcx
	movq	8(%rax), %rdx
	callq	_ZN42_$LT$str$u20$as$u20$core..fmt..Display$GT$3fmt17h8812a9a66be60dcfE
	andb	$1, %al
	movzbl	%al, %eax
	addq	$40, %rsp
	retq
	.seh_endproc

	.def	_ZN44_$LT$$RF$T$u20$as$u20$core..fmt..Display$GT$3fmt17h56c2068acb00ff54E;
	.scl	2;
	.type	32;
	.endef
	.section	.text,"xr",one_only,_ZN44_$LT$$RF$T$u20$as$u20$core..fmt..Display$GT$3fmt17h56c2068acb00ff54E
	.globl	_ZN44_$LT$$RF$T$u20$as$u20$core..fmt..Display$GT$3fmt17h56c2068acb00ff54E
	.p2align	4, 0x90
_ZN44_$LT$$RF$T$u20$as$u20$core..fmt..Display$GT$3fmt17h56c2068acb00ff54E:
.seh_proc _ZN44_$LT$$RF$T$u20$as$u20$core..fmt..Display$GT$3fmt17h56c2068acb00ff54E
	subq	$40, %rsp
	.seh_stackalloc 40
	.seh_endprologue
	movq	(%rcx), %rcx
	callq	_ZN67_$LT$proc_macro2..fallback..Ident$u20$as$u20$core..fmt..Display$GT$3fmt17hb7f23e85148102ffE
	andb	$1, %al
	movzbl	%al, %eax
	addq	$40, %rsp
	retq
	.seh_endproc

	.def	_ZN44_$LT$$RF$T$u20$as$u20$core..fmt..Display$GT$3fmt17h7f5a6eeff6c40abaE;
	.scl	2;
	.type	32;
	.endef
	.section	.text,"xr",one_only,_ZN44_$LT$$RF$T$u20$as$u20$core..fmt..Display$GT$3fmt17h7f5a6eeff6c40abaE
	.globl	_ZN44_$LT$$RF$T$u20$as$u20$core..fmt..Display$GT$3fmt17h7f5a6eeff6c40abaE
	.p2align	4, 0x90
_ZN44_$LT$$RF$T$u20$as$u20$core..fmt..Display$GT$3fmt17h7f5a6eeff6c40abaE:
.seh_proc _ZN44_$LT$$RF$T$u20$as$u20$core..fmt..Display$GT$3fmt17h7f5a6eeff6c40abaE
	subq	$40, %rsp
	.seh_stackalloc 40
	.seh_endprologue
	movq	(%rcx), %rcx
	callq	_ZN57_$LT$proc_macro2..Ident$u20$as$u20$core..fmt..Display$GT$3fmt17h32783ff8bc4a86faE
	andb	$1, %al
	movzbl	%al, %eax
	addq	$40, %rsp
	retq
	.seh_endproc

	.def	_ZN45_$LT$T$u20$as$u20$alloc..string..ToString$GT$9to_string17h265ad93e3968fdb8E;
	.scl	2;
	.type	32;
	.endef
	.section	.text,"xr",one_only,_ZN45_$LT$T$u20$as$u20$alloc..string..ToString$GT$9to_string17h265ad93e3968fdb8E
	.globl	_ZN45_$LT$T$u20$as$u20$alloc..string..ToString$GT$9to_string17h265ad93e3968fdb8E
	.p2align	4, 0x90
_ZN45_$LT$T$u20$as$u20$alloc..string..ToString$GT$9to_string17h265ad93e3968fdb8E:
.Lfunc_begin12:
.seh_proc _ZN45_$LT$T$u20$as$u20$alloc..string..ToString$GT$9to_string17h265ad93e3968fdb8E
	.seh_handler __CxxFrameHandler3, @unwind, @except
	pushq	%rbp
	.seh_pushreg %rbp
	subq	$224, %rsp
	.seh_stackalloc 224
	leaq	128(%rsp), %rbp
	.seh_setframe %rbp, 128
	.seh_endprologue
	movq	$-2, 88(%rbp)
	movq	%rdx, -96(%rbp)
	movq	%rcx, %rax
	movq	-96(%rbp), %rcx
	movq	%rax, -88(%rbp)
	movq	%rax, -80(%rbp)
	movq	$0, 32(%rbp)
	movq	$1, 40(%rbp)
	movq	$0, 48(%rbp)
	movq	48(%rbp), %rax
	movq	%rax, -48(%rbp)
	vmovdqu	32(%rbp), %xmm0
	vmovdqa	%xmm0, -64(%rbp)
	movq	$0, 56(%rbp)
	movq	$0, 72(%rbp)
	movl	$0, 20(%rbp)
	movl	$32, 16(%rbp)
	movb	$3, 24(%rbp)
	movq	56(%rbp), %rdx
	movq	64(%rbp), %rax
	movq	%rdx, -32(%rbp)
	movq	%rax, -24(%rbp)
	movq	72(%rbp), %rdx
	movq	80(%rbp), %rax
	movq	%rdx, -16(%rbp)
	movq	%rax, -8(%rbp)
	leaq	-64(%rbp), %rax
	movq	%rax, (%rbp)
	leaq	__unnamed_7(%rip), %rax
	movq	%rax, 8(%rbp)
.Ltmp36:
	leaq	-32(%rbp), %rdx
	callq	_ZN4core3fmt3num3imp54_$LT$impl$u20$core..fmt..Display$u20$for$u20$usize$GT$3fmt17h334fec8f020c9fa2E
.Ltmp37:
	movb	%al, -65(%rbp)
	jmp	.LBB68_2
.LBB68_2:
.Ltmp38:
	movb	-65(%rbp), %cl
	andb	$1, %cl
	leaq	__unnamed_8(%rip), %rdx
	leaq	__unnamed_9(%rip), %r9
	movl	$55, %r8d
	callq	_ZN4core6result19Result$LT$T$C$E$GT$6expect17h04650ff8b91ddf2bE
.Ltmp39:
	jmp	.LBB68_3
.LBB68_3:
	movq	-80(%rbp), %rax
	movq	-88(%rbp), %rcx
	movq	-64(%rbp), %rdx
	movq	%rdx, (%rcx)
	movq	-56(%rbp), %rdx
	movq	%rdx, 8(%rcx)
	movq	-48(%rbp), %rdx
	movq	%rdx, 16(%rcx)
	addq	$224, %rsp
	popq	%rbp
	retq
	.seh_handlerdata
	.long	($cppxdata$_ZN45_$LT$T$u20$as$u20$alloc..string..ToString$GT$9to_string17h265ad93e3968fdb8E)@IMGREL
	.section	.text,"xr",one_only,_ZN45_$LT$T$u20$as$u20$alloc..string..ToString$GT$9to_string17h265ad93e3968fdb8E
	.seh_endproc
	.def	"?dtor$1@?0?_ZN45_$LT$T$u20$as$u20$alloc..string..ToString$GT$9to_string17h265ad93e3968fdb8E@4HA";
	.scl	3;
	.type	32;
	.endef
	.p2align	4, 0x90
"?dtor$1@?0?_ZN45_$LT$T$u20$as$u20$alloc..string..ToString$GT$9to_string17h265ad93e3968fdb8E@4HA":
.seh_proc "?dtor$1@?0?_ZN45_$LT$T$u20$as$u20$alloc..string..ToString$GT$9to_string17h265ad93e3968fdb8E@4HA"
.LBB68_1:
	movq	%rdx, 16(%rsp)
	pushq	%rbp
	.seh_pushreg %rbp
	subq	$32, %rsp
	.seh_stackalloc 32
	leaq	128(%rdx), %rbp
	.seh_endprologue
	leaq	-64(%rbp), %rcx
	callq	_ZN4core3ptr42drop_in_place$LT$alloc..string..String$GT$17h2fe574279f738e3bE
	nop
	addq	$32, %rsp
	popq	%rbp
	retq
.Lfunc_end12:
	.seh_handlerdata
	.section	.text,"xr",one_only,_ZN45_$LT$T$u20$as$u20$alloc..string..ToString$GT$9to_string17h265ad93e3968fdb8E
	.seh_endproc
	.section	.xdata,"dr",associative,_ZN45_$LT$T$u20$as$u20$alloc..string..ToString$GT$9to_string17h265ad93e3968fdb8E
	.p2align	2, 0x0
$cppxdata$_ZN45_$LT$T$u20$as$u20$alloc..string..ToString$GT$9to_string17h265ad93e3968fdb8E:
	.long	429065506
	.long	1
	.long	($stateUnwindMap$_ZN45_$LT$T$u20$as$u20$alloc..string..ToString$GT$9to_string17h265ad93e3968fdb8E)@IMGREL
	.long	0
	.long	0
	.long	3
	.long	($ip2state$_ZN45_$LT$T$u20$as$u20$alloc..string..ToString$GT$9to_string17h265ad93e3968fdb8E)@IMGREL
	.long	216
	.long	0
	.long	1
$stateUnwindMap$_ZN45_$LT$T$u20$as$u20$alloc..string..ToString$GT$9to_string17h265ad93e3968fdb8E:
	.long	-1
	.long	"?dtor$1@?0?_ZN45_$LT$T$u20$as$u20$alloc..string..ToString$GT$9to_string17h265ad93e3968fdb8E@4HA"@IMGREL
$ip2state$_ZN45_$LT$T$u20$as$u20$alloc..string..ToString$GT$9to_string17h265ad93e3968fdb8E:
	.long	.Lfunc_begin12@IMGREL
	.long	-1
	.long	.Ltmp36@IMGREL+1
	.long	0
	.long	.Ltmp39@IMGREL+1
	.long	-1
	.section	.text,"xr",one_only,_ZN45_$LT$T$u20$as$u20$alloc..string..ToString$GT$9to_string17h265ad93e3968fdb8E

	.def	_ZN45_$LT$T$u20$as$u20$alloc..string..ToString$GT$9to_string17h2980aceeb314500dE;
	.scl	2;
	.type	32;
	.endef
	.section	.text,"xr",one_only,_ZN45_$LT$T$u20$as$u20$alloc..string..ToString$GT$9to_string17h2980aceeb314500dE
	.globl	_ZN45_$LT$T$u20$as$u20$alloc..string..ToString$GT$9to_string17h2980aceeb314500dE
	.p2align	4, 0x90
_ZN45_$LT$T$u20$as$u20$alloc..string..ToString$GT$9to_string17h2980aceeb314500dE:
.Lfunc_begin13:
.seh_proc _ZN45_$LT$T$u20$as$u20$alloc..string..ToString$GT$9to_string17h2980aceeb314500dE
	.seh_handler __CxxFrameHandler3, @unwind, @except
	pushq	%rbp
	.seh_pushreg %rbp
	subq	$224, %rsp
	.seh_stackalloc 224
	leaq	128(%rsp), %rbp
	.seh_setframe %rbp, 128
	.seh_endprologue
	movq	$-2, 88(%rbp)
	movq	%rdx, -96(%rbp)
	movq	%rcx, %rax
	movq	-96(%rbp), %rcx
	movq	%rax, -88(%rbp)
	movq	%rax, -80(%rbp)
	movq	$0, 32(%rbp)
	movq	$1, 40(%rbp)
	movq	$0, 48(%rbp)
	movq	48(%rbp), %rax
	movq	%rax, -48(%rbp)
	vmovdqu	32(%rbp), %xmm0
	vmovdqa	%xmm0, -64(%rbp)
	movq	$0, 56(%rbp)
	movq	$0, 72(%rbp)
	movl	$0, 20(%rbp)
	movl	$32, 16(%rbp)
	movb	$3, 24(%rbp)
	movq	56(%rbp), %rdx
	movq	64(%rbp), %rax
	movq	%rdx, -32(%rbp)
	movq	%rax, -24(%rbp)
	movq	72(%rbp), %rdx
	movq	80(%rbp), %rax
	movq	%rdx, -16(%rbp)
	movq	%rax, -8(%rbp)
	leaq	-64(%rbp), %rax
	movq	%rax, (%rbp)
	leaq	__unnamed_7(%rip), %rax
	movq	%rax, 8(%rbp)
.Ltmp40:
	leaq	-32(%rbp), %rdx
	callq	_ZN4core3fmt3num53_$LT$impl$u20$core..fmt..Display$u20$for$u20$u128$GT$3fmt17h7f7b833e5c955bcfE
.Ltmp41:
	movb	%al, -65(%rbp)
	jmp	.LBB69_2
.LBB69_2:
.Ltmp42:
	movb	-65(%rbp), %cl
	andb	$1, %cl
	leaq	__unnamed_8(%rip), %rdx
	leaq	__unnamed_9(%rip), %r9
	movl	$55, %r8d
	callq	_ZN4core6result19Result$LT$T$C$E$GT$6expect17h04650ff8b91ddf2bE
.Ltmp43:
	jmp	.LBB69_3
.LBB69_3:
	movq	-80(%rbp), %rax
	movq	-88(%rbp), %rcx
	movq	-64(%rbp), %rdx
	movq	%rdx, (%rcx)
	movq	-56(%rbp), %rdx
	movq	%rdx, 8(%rcx)
	movq	-48(%rbp), %rdx
	movq	%rdx, 16(%rcx)
	addq	$224, %rsp
	popq	%rbp
	retq
	.seh_handlerdata
	.long	($cppxdata$_ZN45_$LT$T$u20$as$u20$alloc..string..ToString$GT$9to_string17h2980aceeb314500dE)@IMGREL
	.section	.text,"xr",one_only,_ZN45_$LT$T$u20$as$u20$alloc..string..ToString$GT$9to_string17h2980aceeb314500dE
	.seh_endproc
	.def	"?dtor$1@?0?_ZN45_$LT$T$u20$as$u20$alloc..string..ToString$GT$9to_string17h2980aceeb314500dE@4HA";
	.scl	3;
	.type	32;
	.endef
	.p2align	4, 0x90
"?dtor$1@?0?_ZN45_$LT$T$u20$as$u20$alloc..string..ToString$GT$9to_string17h2980aceeb314500dE@4HA":
.seh_proc "?dtor$1@?0?_ZN45_$LT$T$u20$as$u20$alloc..string..ToString$GT$9to_string17h2980aceeb314500dE@4HA"
.LBB69_1:
	movq	%rdx, 16(%rsp)
	pushq	%rbp
	.seh_pushreg %rbp
	subq	$32, %rsp
	.seh_stackalloc 32
	leaq	128(%rdx), %rbp
	.seh_endprologue
	leaq	-64(%rbp), %rcx
	callq	_ZN4core3ptr42drop_in_place$LT$alloc..string..String$GT$17h2fe574279f738e3bE
	nop
	addq	$32, %rsp
	popq	%rbp
	retq
.Lfunc_end13:
	.seh_handlerdata
	.section	.text,"xr",one_only,_ZN45_$LT$T$u20$as$u20$alloc..string..ToString$GT$9to_string17h2980aceeb314500dE
	.seh_endproc
	.section	.xdata,"dr",associative,_ZN45_$LT$T$u20$as$u20$alloc..string..ToString$GT$9to_string17h2980aceeb314500dE
	.p2align	2, 0x0
$cppxdata$_ZN45_$LT$T$u20$as$u20$alloc..string..ToString$GT$9to_string17h2980aceeb314500dE:
	.long	429065506
	.long	1
	.long	($stateUnwindMap$_ZN45_$LT$T$u20$as$u20$alloc..string..ToString$GT$9to_string17h2980aceeb314500dE)@IMGREL
	.long	0
	.long	0
	.long	3
	.long	($ip2state$_ZN45_$LT$T$u20$as$u20$alloc..string..ToString$GT$9to_string17h2980aceeb314500dE)@IMGREL
	.long	216
	.long	0
	.long	1
$stateUnwindMap$_ZN45_$LT$T$u20$as$u20$alloc..string..ToString$GT$9to_string17h2980aceeb314500dE:
	.long	-1
	.long	"?dtor$1@?0?_ZN45_$LT$T$u20$as$u20$alloc..string..ToString$GT$9to_string17h2980aceeb314500dE@4HA"@IMGREL
$ip2state$_ZN45_$LT$T$u20$as$u20$alloc..string..ToString$GT$9to_string17h2980aceeb314500dE:
	.long	.Lfunc_begin13@IMGREL
	.long	-1
	.long	.Ltmp40@IMGREL+1
	.long	0
	.long	.Ltmp43@IMGREL+1
	.long	-1
	.section	.text,"xr",one_only,_ZN45_$LT$T$u20$as$u20$alloc..string..ToString$GT$9to_string17h2980aceeb314500dE

	.def	_ZN45_$LT$T$u20$as$u20$alloc..string..ToString$GT$9to_string17h38eab8fcd35d134fE;
	.scl	2;
	.type	32;
	.endef
	.section	.text,"xr",one_only,_ZN45_$LT$T$u20$as$u20$alloc..string..ToString$GT$9to_string17h38eab8fcd35d134fE
	.globl	_ZN45_$LT$T$u20$as$u20$alloc..string..ToString$GT$9to_string17h38eab8fcd35d134fE
	.p2align	4, 0x90
_ZN45_$LT$T$u20$as$u20$alloc..string..ToString$GT$9to_string17h38eab8fcd35d134fE:
.Lfunc_begin14:
.seh_proc _ZN45_$LT$T$u20$as$u20$alloc..string..ToString$GT$9to_string17h38eab8fcd35d134fE
	.seh_handler __CxxFrameHandler3, @unwind, @except
	pushq	%rbp
	.seh_pushreg %rbp
	subq	$224, %rsp
	.seh_stackalloc 224
	leaq	128(%rsp), %rbp
	.seh_setframe %rbp, 128
	.seh_endprologue
	movq	$-2, 88(%rbp)
	movq	%rdx, -96(%rbp)
	movq	%rcx, %rax
	movq	-96(%rbp), %rcx
	movq	%rax, -88(%rbp)
	movq	%rax, -80(%rbp)
	movq	$0, 32(%rbp)
	movq	$1, 40(%rbp)
	movq	$0, 48(%rbp)
	movq	48(%rbp), %rax
	movq	%rax, -48(%rbp)
	vmovdqu	32(%rbp), %xmm0
	vmovdqa	%xmm0, -64(%rbp)
	movq	$0, 56(%rbp)
	movq	$0, 72(%rbp)
	movl	$0, 20(%rbp)
	movl	$32, 16(%rbp)
	movb	$3, 24(%rbp)
	movq	56(%rbp), %rdx
	movq	64(%rbp), %rax
	movq	%rdx, -32(%rbp)
	movq	%rax, -24(%rbp)
	movq	72(%rbp), %rdx
	movq	80(%rbp), %rax
	movq	%rdx, -16(%rbp)
	movq	%rax, -8(%rbp)
	leaq	-64(%rbp), %rax
	movq	%rax, (%rbp)
	leaq	__unnamed_7(%rip), %rax
	movq	%rax, 8(%rbp)
.Ltmp44:
	leaq	-32(%rbp), %rdx
	callq	_ZN57_$LT$proc_macro2..Ident$u20$as$u20$core..fmt..Display$GT$3fmt17h32783ff8bc4a86faE
.Ltmp45:
	movb	%al, -65(%rbp)
	jmp	.LBB70_2
.LBB70_2:
.Ltmp46:
	movb	-65(%rbp), %cl
	andb	$1, %cl
	leaq	__unnamed_8(%rip), %rdx
	leaq	__unnamed_9(%rip), %r9
	movl	$55, %r8d
	callq	_ZN4core6result19Result$LT$T$C$E$GT$6expect17h04650ff8b91ddf2bE
.Ltmp47:
	jmp	.LBB70_3
.LBB70_3:
	movq	-80(%rbp), %rax
	movq	-88(%rbp), %rcx
	movq	-64(%rbp), %rdx
	movq	%rdx, (%rcx)
	movq	-56(%rbp), %rdx
	movq	%rdx, 8(%rcx)
	movq	-48(%rbp), %rdx
	movq	%rdx, 16(%rcx)
	addq	$224, %rsp
	popq	%rbp
	retq
	.seh_handlerdata
	.long	($cppxdata$_ZN45_$LT$T$u20$as$u20$alloc..string..ToString$GT$9to_string17h38eab8fcd35d134fE)@IMGREL
	.section	.text,"xr",one_only,_ZN45_$LT$T$u20$as$u20$alloc..string..ToString$GT$9to_string17h38eab8fcd35d134fE
	.seh_endproc
	.def	"?dtor$1@?0?_ZN45_$LT$T$u20$as$u20$alloc..string..ToString$GT$9to_string17h38eab8fcd35d134fE@4HA";
	.scl	3;
	.type	32;
	.endef
	.p2align	4, 0x90
"?dtor$1@?0?_ZN45_$LT$T$u20$as$u20$alloc..string..ToString$GT$9to_string17h38eab8fcd35d134fE@4HA":
.seh_proc "?dtor$1@?0?_ZN45_$LT$T$u20$as$u20$alloc..string..ToString$GT$9to_string17h38eab8fcd35d134fE@4HA"
.LBB70_1:
	movq	%rdx, 16(%rsp)
	pushq	%rbp
	.seh_pushreg %rbp
	subq	$32, %rsp
	.seh_stackalloc 32
	leaq	128(%rdx), %rbp
	.seh_endprologue
	leaq	-64(%rbp), %rcx
	callq	_ZN4core3ptr42drop_in_place$LT$alloc..string..String$GT$17h2fe574279f738e3bE
	nop
	addq	$32, %rsp
	popq	%rbp
	retq
.Lfunc_end14:
	.seh_handlerdata
	.section	.text,"xr",one_only,_ZN45_$LT$T$u20$as$u20$alloc..string..ToString$GT$9to_string17h38eab8fcd35d134fE
	.seh_endproc
	.section	.xdata,"dr",associative,_ZN45_$LT$T$u20$as$u20$alloc..string..ToString$GT$9to_string17h38eab8fcd35d134fE
	.p2align	2, 0x0
$cppxdata$_ZN45_$LT$T$u20$as$u20$alloc..string..ToString$GT$9to_string17h38eab8fcd35d134fE:
	.long	429065506
	.long	1
	.long	($stateUnwindMap$_ZN45_$LT$T$u20$as$u20$alloc..string..ToString$GT$9to_string17h38eab8fcd35d134fE)@IMGREL
	.long	0
	.long	0
	.long	3
	.long	($ip2state$_ZN45_$LT$T$u20$as$u20$alloc..string..ToString$GT$9to_string17h38eab8fcd35d134fE)@IMGREL
	.long	216
	.long	0
	.long	1
$stateUnwindMap$_ZN45_$LT$T$u20$as$u20$alloc..string..ToString$GT$9to_string17h38eab8fcd35d134fE:
	.long	-1
	.long	"?dtor$1@?0?_ZN45_$LT$T$u20$as$u20$alloc..string..ToString$GT$9to_string17h38eab8fcd35d134fE@4HA"@IMGREL
$ip2state$_ZN45_$LT$T$u20$as$u20$alloc..string..ToString$GT$9to_string17h38eab8fcd35d134fE:
	.long	.Lfunc_begin14@IMGREL
	.long	-1
	.long	.Ltmp44@IMGREL+1
	.long	0
	.long	.Ltmp47@IMGREL+1
	.long	-1
	.section	.text,"xr",one_only,_ZN45_$LT$T$u20$as$u20$alloc..string..ToString$GT$9to_string17h38eab8fcd35d134fE

	.def	_ZN45_$LT$T$u20$as$u20$alloc..string..ToString$GT$9to_string17h3add37a856439612E;
	.scl	2;
	.type	32;
	.endef
	.section	.text,"xr",one_only,_ZN45_$LT$T$u20$as$u20$alloc..string..ToString$GT$9to_string17h3add37a856439612E
	.globl	_ZN45_$LT$T$u20$as$u20$alloc..string..ToString$GT$9to_string17h3add37a856439612E
	.p2align	4, 0x90
_ZN45_$LT$T$u20$as$u20$alloc..string..ToString$GT$9to_string17h3add37a856439612E:
.Lfunc_begin15:
.seh_proc _ZN45_$LT$T$u20$as$u20$alloc..string..ToString$GT$9to_string17h3add37a856439612E
	.seh_handler __CxxFrameHandler3, @unwind, @except
	pushq	%rbp
	.seh_pushreg %rbp
	subq	$224, %rsp
	.seh_stackalloc 224
	leaq	128(%rsp), %rbp
	.seh_setframe %rbp, 128
	.seh_endprologue
	movq	$-2, 88(%rbp)
	movq	%rdx, -96(%rbp)
	movq	%rcx, %rax
	movq	-96(%rbp), %rcx
	movq	%rax, -88(%rbp)
	movq	%rax, -80(%rbp)
	movq	$0, 32(%rbp)
	movq	$1, 40(%rbp)
	movq	$0, 48(%rbp)
	movq	48(%rbp), %rax
	movq	%rax, -48(%rbp)
	vmovdqu	32(%rbp), %xmm0
	vmovdqa	%xmm0, -64(%rbp)
	movq	$0, 56(%rbp)
	movq	$0, 72(%rbp)
	movl	$0, 20(%rbp)
	movl	$32, 16(%rbp)
	movb	$3, 24(%rbp)
	movq	56(%rbp), %rdx
	movq	64(%rbp), %rax
	movq	%rdx, -32(%rbp)
	movq	%rax, -24(%rbp)
	movq	72(%rbp), %rdx
	movq	80(%rbp), %rax
	movq	%rdx, -16(%rbp)
	movq	%rax, -8(%rbp)
	leaq	-64(%rbp), %rax
	movq	%rax, (%rbp)
	leaq	__unnamed_7(%rip), %rax
	movq	%rax, 8(%rbp)
.Ltmp48:
	leaq	-32(%rbp), %rdx
	callq	_ZN4core3fmt3num53_$LT$impl$u20$core..fmt..Display$u20$for$u20$i128$GT$3fmt17hc06a683ffc59412bE
.Ltmp49:
	movb	%al, -65(%rbp)
	jmp	.LBB71_2
.LBB71_2:
.Ltmp50:
	movb	-65(%rbp), %cl
	andb	$1, %cl
	leaq	__unnamed_8(%rip), %rdx
	leaq	__unnamed_9(%rip), %r9
	movl	$55, %r8d
	callq	_ZN4core6result19Result$LT$T$C$E$GT$6expect17h04650ff8b91ddf2bE
.Ltmp51:
	jmp	.LBB71_3
.LBB71_3:
	movq	-80(%rbp), %rax
	movq	-88(%rbp), %rcx
	movq	-64(%rbp), %rdx
	movq	%rdx, (%rcx)
	movq	-56(%rbp), %rdx
	movq	%rdx, 8(%rcx)
	movq	-48(%rbp), %rdx
	movq	%rdx, 16(%rcx)
	addq	$224, %rsp
	popq	%rbp
	retq
	.seh_handlerdata
	.long	($cppxdata$_ZN45_$LT$T$u20$as$u20$alloc..string..ToString$GT$9to_string17h3add37a856439612E)@IMGREL
	.section	.text,"xr",one_only,_ZN45_$LT$T$u20$as$u20$alloc..string..ToString$GT$9to_string17h3add37a856439612E
	.seh_endproc
	.def	"?dtor$1@?0?_ZN45_$LT$T$u20$as$u20$alloc..string..ToString$GT$9to_string17h3add37a856439612E@4HA";
	.scl	3;
	.type	32;
	.endef
	.p2align	4, 0x90
"?dtor$1@?0?_ZN45_$LT$T$u20$as$u20$alloc..string..ToString$GT$9to_string17h3add37a856439612E@4HA":
.seh_proc "?dtor$1@?0?_ZN45_$LT$T$u20$as$u20$alloc..string..ToString$GT$9to_string17h3add37a856439612E@4HA"
.LBB71_1:
	movq	%rdx, 16(%rsp)
	pushq	%rbp
	.seh_pushreg %rbp
	subq	$32, %rsp
	.seh_stackalloc 32
	leaq	128(%rdx), %rbp
	.seh_endprologue
	leaq	-64(%rbp), %rcx
	callq	_ZN4core3ptr42drop_in_place$LT$alloc..string..String$GT$17h2fe574279f738e3bE
	nop
	addq	$32, %rsp
	popq	%rbp
	retq
.Lfunc_end15:
	.seh_handlerdata
	.section	.text,"xr",one_only,_ZN45_$LT$T$u20$as$u20$alloc..string..ToString$GT$9to_string17h3add37a856439612E
	.seh_endproc
	.section	.xdata,"dr",associative,_ZN45_$LT$T$u20$as$u20$alloc..string..ToString$GT$9to_string17h3add37a856439612E
	.p2align	2, 0x0
$cppxdata$_ZN45_$LT$T$u20$as$u20$alloc..string..ToString$GT$9to_string17h3add37a856439612E:
	.long	429065506
	.long	1
	.long	($stateUnwindMap$_ZN45_$LT$T$u20$as$u20$alloc..string..ToString$GT$9to_string17h3add37a856439612E)@IMGREL
	.long	0
	.long	0
	.long	3
	.long	($ip2state$_ZN45_$LT$T$u20$as$u20$alloc..string..ToString$GT$9to_string17h3add37a856439612E)@IMGREL
	.long	216
	.long	0
	.long	1
$stateUnwindMap$_ZN45_$LT$T$u20$as$u20$alloc..string..ToString$GT$9to_string17h3add37a856439612E:
	.long	-1
	.long	"?dtor$1@?0?_ZN45_$LT$T$u20$as$u20$alloc..string..ToString$GT$9to_string17h3add37a856439612E@4HA"@IMGREL
$ip2state$_ZN45_$LT$T$u20$as$u20$alloc..string..ToString$GT$9to_string17h3add37a856439612E:
	.long	.Lfunc_begin15@IMGREL
	.long	-1
	.long	.Ltmp48@IMGREL+1
	.long	0
	.long	.Ltmp51@IMGREL+1
	.long	-1
	.section	.text,"xr",one_only,_ZN45_$LT$T$u20$as$u20$alloc..string..ToString$GT$9to_string17h3add37a856439612E

	.def	_ZN45_$LT$T$u20$as$u20$alloc..string..ToString$GT$9to_string17h3d88e2529875e9daE;
	.scl	2;
	.type	32;
	.endef
	.section	.text,"xr",one_only,_ZN45_$LT$T$u20$as$u20$alloc..string..ToString$GT$9to_string17h3d88e2529875e9daE
	.globl	_ZN45_$LT$T$u20$as$u20$alloc..string..ToString$GT$9to_string17h3d88e2529875e9daE
	.p2align	4, 0x90
_ZN45_$LT$T$u20$as$u20$alloc..string..ToString$GT$9to_string17h3d88e2529875e9daE:
.Lfunc_begin16:
.seh_proc _ZN45_$LT$T$u20$as$u20$alloc..string..ToString$GT$9to_string17h3d88e2529875e9daE
	.seh_handler __CxxFrameHandler3, @unwind, @except
	pushq	%rbp
	.seh_pushreg %rbp
	subq	$224, %rsp
	.seh_stackalloc 224
	leaq	128(%rsp), %rbp
	.seh_setframe %rbp, 128
	.seh_endprologue
	movq	$-2, 88(%rbp)
	movq	%rdx, -96(%rbp)
	movq	%rcx, %rax
	movq	-96(%rbp), %rcx
	movq	%rax, -88(%rbp)
	movq	%rax, -80(%rbp)
	movq	$0, 32(%rbp)
	movq	$1, 40(%rbp)
	movq	$0, 48(%rbp)
	movq	48(%rbp), %rax
	movq	%rax, -48(%rbp)
	vmovdqu	32(%rbp), %xmm0
	vmovdqa	%xmm0, -64(%rbp)
	movq	$0, 56(%rbp)
	movq	$0, 72(%rbp)
	movl	$0, 20(%rbp)
	movl	$32, 16(%rbp)
	movb	$3, 24(%rbp)
	movq	56(%rbp), %rdx
	movq	64(%rbp), %rax
	movq	%rdx, -32(%rbp)
	movq	%rax, -24(%rbp)
	movq	72(%rbp), %rdx
	movq	80(%rbp), %rax
	movq	%rdx, -16(%rbp)
	movq	%rax, -8(%rbp)
	leaq	-64(%rbp), %rax
	movq	%rax, (%rbp)
	leaq	__unnamed_7(%rip), %rax
	movq	%rax, 8(%rbp)
.Ltmp52:
	leaq	-32(%rbp), %rdx
	callq	_ZN4core3fmt3num3imp54_$LT$impl$u20$core..fmt..Display$u20$for$u20$isize$GT$3fmt17hb22c2d134888d803E
.Ltmp53:
	movb	%al, -65(%rbp)
	jmp	.LBB72_2
.LBB72_2:
.Ltmp54:
	movb	-65(%rbp), %cl
	andb	$1, %cl
	leaq	__unnamed_8(%rip), %rdx
	leaq	__unnamed_9(%rip), %r9
	movl	$55, %r8d
	callq	_ZN4core6result19Result$LT$T$C$E$GT$6expect17h04650ff8b91ddf2bE
.Ltmp55:
	jmp	.LBB72_3
.LBB72_3:
	movq	-80(%rbp), %rax
	movq	-88(%rbp), %rcx
	movq	-64(%rbp), %rdx
	movq	%rdx, (%rcx)
	movq	-56(%rbp), %rdx
	movq	%rdx, 8(%rcx)
	movq	-48(%rbp), %rdx
	movq	%rdx, 16(%rcx)
	addq	$224, %rsp
	popq	%rbp
	retq
	.seh_handlerdata
	.long	($cppxdata$_ZN45_$LT$T$u20$as$u20$alloc..string..ToString$GT$9to_string17h3d88e2529875e9daE)@IMGREL
	.section	.text,"xr",one_only,_ZN45_$LT$T$u20$as$u20$alloc..string..ToString$GT$9to_string17h3d88e2529875e9daE
	.seh_endproc
	.def	"?dtor$1@?0?_ZN45_$LT$T$u20$as$u20$alloc..string..ToString$GT$9to_string17h3d88e2529875e9daE@4HA";
	.scl	3;
	.type	32;
	.endef
	.p2align	4, 0x90
"?dtor$1@?0?_ZN45_$LT$T$u20$as$u20$alloc..string..ToString$GT$9to_string17h3d88e2529875e9daE@4HA":
.seh_proc "?dtor$1@?0?_ZN45_$LT$T$u20$as$u20$alloc..string..ToString$GT$9to_string17h3d88e2529875e9daE@4HA"
.LBB72_1:
	movq	%rdx, 16(%rsp)
	pushq	%rbp
	.seh_pushreg %rbp
	subq	$32, %rsp
	.seh_stackalloc 32
	leaq	128(%rdx), %rbp
	.seh_endprologue
	leaq	-64(%rbp), %rcx
	callq	_ZN4core3ptr42drop_in_place$LT$alloc..string..String$GT$17h2fe574279f738e3bE
	nop
	addq	$32, %rsp
	popq	%rbp
	retq
.Lfunc_end16:
	.seh_handlerdata
	.section	.text,"xr",one_only,_ZN45_$LT$T$u20$as$u20$alloc..string..ToString$GT$9to_string17h3d88e2529875e9daE
	.seh_endproc
	.section	.xdata,"dr",associative,_ZN45_$LT$T$u20$as$u20$alloc..string..ToString$GT$9to_string17h3d88e2529875e9daE
	.p2align	2, 0x0
$cppxdata$_ZN45_$LT$T$u20$as$u20$alloc..string..ToString$GT$9to_string17h3d88e2529875e9daE:
	.long	429065506
	.long	1
	.long	($stateUnwindMap$_ZN45_$LT$T$u20$as$u20$alloc..string..ToString$GT$9to_string17h3d88e2529875e9daE)@IMGREL
	.long	0
	.long	0
	.long	3
	.long	($ip2state$_ZN45_$LT$T$u20$as$u20$alloc..string..ToString$GT$9to_string17h3d88e2529875e9daE)@IMGREL
	.long	216
	.long	0
	.long	1
$stateUnwindMap$_ZN45_$LT$T$u20$as$u20$alloc..string..ToString$GT$9to_string17h3d88e2529875e9daE:
	.long	-1
	.long	"?dtor$1@?0?_ZN45_$LT$T$u20$as$u20$alloc..string..ToString$GT$9to_string17h3d88e2529875e9daE@4HA"@IMGREL
$ip2state$_ZN45_$LT$T$u20$as$u20$alloc..string..ToString$GT$9to_string17h3d88e2529875e9daE:
	.long	.Lfunc_begin16@IMGREL
	.long	-1
	.long	.Ltmp52@IMGREL+1
	.long	0
	.long	.Ltmp55@IMGREL+1
	.long	-1
	.section	.text,"xr",one_only,_ZN45_$LT$T$u20$as$u20$alloc..string..ToString$GT$9to_string17h3d88e2529875e9daE

	.def	_ZN45_$LT$T$u20$as$u20$alloc..string..ToString$GT$9to_string17h60cb757a866a1ccfE;
	.scl	2;
	.type	32;
	.endef
	.section	.text,"xr",one_only,_ZN45_$LT$T$u20$as$u20$alloc..string..ToString$GT$9to_string17h60cb757a866a1ccfE
	.globl	_ZN45_$LT$T$u20$as$u20$alloc..string..ToString$GT$9to_string17h60cb757a866a1ccfE
	.p2align	4, 0x90
_ZN45_$LT$T$u20$as$u20$alloc..string..ToString$GT$9to_string17h60cb757a866a1ccfE:
.Lfunc_begin17:
.seh_proc _ZN45_$LT$T$u20$as$u20$alloc..string..ToString$GT$9to_string17h60cb757a866a1ccfE
	.seh_handler __CxxFrameHandler3, @unwind, @except
	pushq	%rbp
	.seh_pushreg %rbp
	subq	$224, %rsp
	.seh_stackalloc 224
	leaq	128(%rsp), %rbp
	.seh_setframe %rbp, 128
	.seh_endprologue
	movq	$-2, 88(%rbp)
	movq	%rdx, -96(%rbp)
	movq	%rcx, %rax
	movq	-96(%rbp), %rcx
	movq	%rax, -88(%rbp)
	movq	%rax, -80(%rbp)
	movq	$0, 32(%rbp)
	movq	$1, 40(%rbp)
	movq	$0, 48(%rbp)
	movq	48(%rbp), %rax
	movq	%rax, -48(%rbp)
	vmovdqu	32(%rbp), %xmm0
	vmovdqa	%xmm0, -64(%rbp)
	movq	$0, 56(%rbp)
	movq	$0, 72(%rbp)
	movl	$0, 20(%rbp)
	movl	$32, 16(%rbp)
	movb	$3, 24(%rbp)
	movq	56(%rbp), %rdx
	movq	64(%rbp), %rax
	movq	%rdx, -32(%rbp)
	movq	%rax, -24(%rbp)
	movq	72(%rbp), %rdx
	movq	80(%rbp), %rax
	movq	%rdx, -16(%rbp)
	movq	%rax, -8(%rbp)
	leaq	-64(%rbp), %rax
	movq	%rax, (%rbp)
	leaq	__unnamed_7(%rip), %rax
	movq	%rax, 8(%rbp)
.Ltmp56:
	leaq	-32(%rbp), %rdx
	callq	_ZN4core3fmt3num3imp52_$LT$impl$u20$core..fmt..Display$u20$for$u20$i64$GT$3fmt17hd548383d6fcda1f7E
.Ltmp57:
	movb	%al, -65(%rbp)
	jmp	.LBB73_2
.LBB73_2:
.Ltmp58:
	movb	-65(%rbp), %cl
	andb	$1, %cl
	leaq	__unnamed_8(%rip), %rdx
	leaq	__unnamed_9(%rip), %r9
	movl	$55, %r8d
	callq	_ZN4core6result19Result$LT$T$C$E$GT$6expect17h04650ff8b91ddf2bE
.Ltmp59:
	jmp	.LBB73_3
.LBB73_3:
	movq	-80(%rbp), %rax
	movq	-88(%rbp), %rcx
	movq	-64(%rbp), %rdx
	movq	%rdx, (%rcx)
	movq	-56(%rbp), %rdx
	movq	%rdx, 8(%rcx)
	movq	-48(%rbp), %rdx
	movq	%rdx, 16(%rcx)
	addq	$224, %rsp
	popq	%rbp
	retq
	.seh_handlerdata
	.long	($cppxdata$_ZN45_$LT$T$u20$as$u20$alloc..string..ToString$GT$9to_string17h60cb757a866a1ccfE)@IMGREL
	.section	.text,"xr",one_only,_ZN45_$LT$T$u20$as$u20$alloc..string..ToString$GT$9to_string17h60cb757a866a1ccfE
	.seh_endproc
	.def	"?dtor$1@?0?_ZN45_$LT$T$u20$as$u20$alloc..string..ToString$GT$9to_string17h60cb757a866a1ccfE@4HA";
	.scl	3;
	.type	32;
	.endef
	.p2align	4, 0x90
"?dtor$1@?0?_ZN45_$LT$T$u20$as$u20$alloc..string..ToString$GT$9to_string17h60cb757a866a1ccfE@4HA":
.seh_proc "?dtor$1@?0?_ZN45_$LT$T$u20$as$u20$alloc..string..ToString$GT$9to_string17h60cb757a866a1ccfE@4HA"
.LBB73_1:
	movq	%rdx, 16(%rsp)
	pushq	%rbp
	.seh_pushreg %rbp
	subq	$32, %rsp
	.seh_stackalloc 32
	leaq	128(%rdx), %rbp
	.seh_endprologue
	leaq	-64(%rbp), %rcx
	callq	_ZN4core3ptr42drop_in_place$LT$alloc..string..String$GT$17h2fe574279f738e3bE
	nop
	addq	$32, %rsp
	popq	%rbp
	retq
.Lfunc_end17:
	.seh_handlerdata
	.section	.text,"xr",one_only,_ZN45_$LT$T$u20$as$u20$alloc..string..ToString$GT$9to_string17h60cb757a866a1ccfE
	.seh_endproc
	.section	.xdata,"dr",associative,_ZN45_$LT$T$u20$as$u20$alloc..string..ToString$GT$9to_string17h60cb757a866a1ccfE
	.p2align	2, 0x0
$cppxdata$_ZN45_$LT$T$u20$as$u20$alloc..string..ToString$GT$9to_string17h60cb757a866a1ccfE:
	.long	429065506
	.long	1
	.long	($stateUnwindMap$_ZN45_$LT$T$u20$as$u20$alloc..string..ToString$GT$9to_string17h60cb757a866a1ccfE)@IMGREL
	.long	0
	.long	0
	.long	3
	.long	($ip2state$_ZN45_$LT$T$u20$as$u20$alloc..string..ToString$GT$9to_string17h60cb757a866a1ccfE)@IMGREL
	.long	216
	.long	0
	.long	1
$stateUnwindMap$_ZN45_$LT$T$u20$as$u20$alloc..string..ToString$GT$9to_string17h60cb757a866a1ccfE:
	.long	-1
	.long	"?dtor$1@?0?_ZN45_$LT$T$u20$as$u20$alloc..string..ToString$GT$9to_string17h60cb757a866a1ccfE@4HA"@IMGREL
$ip2state$_ZN45_$LT$T$u20$as$u20$alloc..string..ToString$GT$9to_string17h60cb757a866a1ccfE:
	.long	.Lfunc_begin17@IMGREL
	.long	-1
	.long	.Ltmp56@IMGREL+1
	.long	0
	.long	.Ltmp59@IMGREL+1
	.long	-1
	.section	.text,"xr",one_only,_ZN45_$LT$T$u20$as$u20$alloc..string..ToString$GT$9to_string17h60cb757a866a1ccfE

	.def	_ZN45_$LT$T$u20$as$u20$alloc..string..ToString$GT$9to_string17h620e06a501bd711fE;
	.scl	2;
	.type	32;
	.endef
	.section	.text,"xr",one_only,_ZN45_$LT$T$u20$as$u20$alloc..string..ToString$GT$9to_string17h620e06a501bd711fE
	.globl	_ZN45_$LT$T$u20$as$u20$alloc..string..ToString$GT$9to_string17h620e06a501bd711fE
	.p2align	4, 0x90
_ZN45_$LT$T$u20$as$u20$alloc..string..ToString$GT$9to_string17h620e06a501bd711fE:
.Lfunc_begin18:
.seh_proc _ZN45_$LT$T$u20$as$u20$alloc..string..ToString$GT$9to_string17h620e06a501bd711fE
	.seh_handler __CxxFrameHandler3, @unwind, @except
	pushq	%rbp
	.seh_pushreg %rbp
	subq	$224, %rsp
	.seh_stackalloc 224
	leaq	128(%rsp), %rbp
	.seh_setframe %rbp, 128
	.seh_endprologue
	movq	$-2, 88(%rbp)
	movq	%rdx, -96(%rbp)
	movq	%rcx, %rax
	movq	-96(%rbp), %rcx
	movq	%rax, -88(%rbp)
	movq	%rax, -80(%rbp)
	movq	$0, 32(%rbp)
	movq	$1, 40(%rbp)
	movq	$0, 48(%rbp)
	movq	48(%rbp), %rax
	movq	%rax, -48(%rbp)
	vmovdqu	32(%rbp), %xmm0
	vmovdqa	%xmm0, -64(%rbp)
	movq	$0, 56(%rbp)
	movq	$0, 72(%rbp)
	movl	$0, 20(%rbp)
	movl	$32, 16(%rbp)
	movb	$3, 24(%rbp)
	movq	56(%rbp), %rdx
	movq	64(%rbp), %rax
	movq	%rdx, -32(%rbp)
	movq	%rax, -24(%rbp)
	movq	72(%rbp), %rdx
	movq	80(%rbp), %rax
	movq	%rdx, -16(%rbp)
	movq	%rax, -8(%rbp)
	leaq	-64(%rbp), %rax
	movq	%rax, (%rbp)
	leaq	__unnamed_7(%rip), %rax
	movq	%rax, 8(%rbp)
.Ltmp60:
	leaq	-32(%rbp), %rdx
	callq	_ZN4core3fmt3num3imp52_$LT$impl$u20$core..fmt..Display$u20$for$u20$u64$GT$3fmt17h6c0dda9b003b49b2E
.Ltmp61:
	movb	%al, -65(%rbp)
	jmp	.LBB74_2
.LBB74_2:
.Ltmp62:
	movb	-65(%rbp), %cl
	andb	$1, %cl
	leaq	__unnamed_8(%rip), %rdx
	leaq	__unnamed_9(%rip), %r9
	movl	$55, %r8d
	callq	_ZN4core6result19Result$LT$T$C$E$GT$6expect17h04650ff8b91ddf2bE
.Ltmp63:
	jmp	.LBB74_3
.LBB74_3:
	movq	-80(%rbp), %rax
	movq	-88(%rbp), %rcx
	movq	-64(%rbp), %rdx
	movq	%rdx, (%rcx)
	movq	-56(%rbp), %rdx
	movq	%rdx, 8(%rcx)
	movq	-48(%rbp), %rdx
	movq	%rdx, 16(%rcx)
	addq	$224, %rsp
	popq	%rbp
	retq
	.seh_handlerdata
	.long	($cppxdata$_ZN45_$LT$T$u20$as$u20$alloc..string..ToString$GT$9to_string17h620e06a501bd711fE)@IMGREL
	.section	.text,"xr",one_only,_ZN45_$LT$T$u20$as$u20$alloc..string..ToString$GT$9to_string17h620e06a501bd711fE
	.seh_endproc
	.def	"?dtor$1@?0?_ZN45_$LT$T$u20$as$u20$alloc..string..ToString$GT$9to_string17h620e06a501bd711fE@4HA";
	.scl	3;
	.type	32;
	.endef
	.p2align	4, 0x90
"?dtor$1@?0?_ZN45_$LT$T$u20$as$u20$alloc..string..ToString$GT$9to_string17h620e06a501bd711fE@4HA":
.seh_proc "?dtor$1@?0?_ZN45_$LT$T$u20$as$u20$alloc..string..ToString$GT$9to_string17h620e06a501bd711fE@4HA"
.LBB74_1:
	movq	%rdx, 16(%rsp)
	pushq	%rbp
	.seh_pushreg %rbp
	subq	$32, %rsp
	.seh_stackalloc 32
	leaq	128(%rdx), %rbp
	.seh_endprologue
	leaq	-64(%rbp), %rcx
	callq	_ZN4core3ptr42drop_in_place$LT$alloc..string..String$GT$17h2fe574279f738e3bE
	nop
	addq	$32, %rsp
	popq	%rbp
	retq
.Lfunc_end18:
	.seh_handlerdata
	.section	.text,"xr",one_only,_ZN45_$LT$T$u20$as$u20$alloc..string..ToString$GT$9to_string17h620e06a501bd711fE
	.seh_endproc
	.section	.xdata,"dr",associative,_ZN45_$LT$T$u20$as$u20$alloc..string..ToString$GT$9to_string17h620e06a501bd711fE
	.p2align	2, 0x0
$cppxdata$_ZN45_$LT$T$u20$as$u20$alloc..string..ToString$GT$9to_string17h620e06a501bd711fE:
	.long	429065506
	.long	1
	.long	($stateUnwindMap$_ZN45_$LT$T$u20$as$u20$alloc..string..ToString$GT$9to_string17h620e06a501bd711fE)@IMGREL
	.long	0
	.long	0
	.long	3
	.long	($ip2state$_ZN45_$LT$T$u20$as$u20$alloc..string..ToString$GT$9to_string17h620e06a501bd711fE)@IMGREL
	.long	216
	.long	0
	.long	1
$stateUnwindMap$_ZN45_$LT$T$u20$as$u20$alloc..string..ToString$GT$9to_string17h620e06a501bd711fE:
	.long	-1
	.long	"?dtor$1@?0?_ZN45_$LT$T$u20$as$u20$alloc..string..ToString$GT$9to_string17h620e06a501bd711fE@4HA"@IMGREL
$ip2state$_ZN45_$LT$T$u20$as$u20$alloc..string..ToString$GT$9to_string17h620e06a501bd711fE:
	.long	.Lfunc_begin18@IMGREL
	.long	-1
	.long	.Ltmp60@IMGREL+1
	.long	0
	.long	.Ltmp63@IMGREL+1
	.long	-1
	.section	.text,"xr",one_only,_ZN45_$LT$T$u20$as$u20$alloc..string..ToString$GT$9to_string17h620e06a501bd711fE

	.def	_ZN45_$LT$T$u20$as$u20$alloc..string..ToString$GT$9to_string17h6b92635a3f414ae9E;
	.scl	2;
	.type	32;
	.endef
	.section	.text,"xr",one_only,_ZN45_$LT$T$u20$as$u20$alloc..string..ToString$GT$9to_string17h6b92635a3f414ae9E
	.globl	_ZN45_$LT$T$u20$as$u20$alloc..string..ToString$GT$9to_string17h6b92635a3f414ae9E
	.p2align	4, 0x90
_ZN45_$LT$T$u20$as$u20$alloc..string..ToString$GT$9to_string17h6b92635a3f414ae9E:
.Lfunc_begin19:
.seh_proc _ZN45_$LT$T$u20$as$u20$alloc..string..ToString$GT$9to_string17h6b92635a3f414ae9E
	.seh_handler __CxxFrameHandler3, @unwind, @except
	pushq	%rbp
	.seh_pushreg %rbp
	subq	$224, %rsp
	.seh_stackalloc 224
	leaq	128(%rsp), %rbp
	.seh_setframe %rbp, 128
	.seh_endprologue
	movq	$-2, 88(%rbp)
	movq	%rdx, -96(%rbp)
	movq	%rcx, %rax
	movq	-96(%rbp), %rcx
	movq	%rax, -88(%rbp)
	movq	%rax, -80(%rbp)
	movq	$0, 32(%rbp)
	movq	$1, 40(%rbp)
	movq	$0, 48(%rbp)
	movq	48(%rbp), %rax
	movq	%rax, -48(%rbp)
	vmovdqu	32(%rbp), %xmm0
	vmovdqa	%xmm0, -64(%rbp)
	movq	$0, 56(%rbp)
	movq	$0, 72(%rbp)
	movl	$0, 20(%rbp)
	movl	$32, 16(%rbp)
	movb	$3, 24(%rbp)
	movq	56(%rbp), %rdx
	movq	64(%rbp), %rax
	movq	%rdx, -32(%rbp)
	movq	%rax, -24(%rbp)
	movq	72(%rbp), %rdx
	movq	80(%rbp), %rax
	movq	%rdx, -16(%rbp)
	movq	%rax, -8(%rbp)
	leaq	-64(%rbp), %rax
	movq	%rax, (%rbp)
	leaq	__unnamed_7(%rip), %rax
	movq	%rax, 8(%rbp)
.Ltmp64:
	leaq	-32(%rbp), %rdx
	callq	_ZN4core3fmt3num3imp52_$LT$impl$u20$core..fmt..Display$u20$for$u20$i32$GT$3fmt17h46f274b61e2f4c49E
.Ltmp65:
	movb	%al, -65(%rbp)
	jmp	.LBB75_2
.LBB75_2:
.Ltmp66:
	movb	-65(%rbp), %cl
	andb	$1, %cl
	leaq	__unnamed_8(%rip), %rdx
	leaq	__unnamed_9(%rip), %r9
	movl	$55, %r8d
	callq	_ZN4core6result19Result$LT$T$C$E$GT$6expect17h04650ff8b91ddf2bE
.Ltmp67:
	jmp	.LBB75_3
.LBB75_3:
	movq	-80(%rbp), %rax
	movq	-88(%rbp), %rcx
	movq	-64(%rbp), %rdx
	movq	%rdx, (%rcx)
	movq	-56(%rbp), %rdx
	movq	%rdx, 8(%rcx)
	movq	-48(%rbp), %rdx
	movq	%rdx, 16(%rcx)
	addq	$224, %rsp
	popq	%rbp
	retq
	.seh_handlerdata
	.long	($cppxdata$_ZN45_$LT$T$u20$as$u20$alloc..string..ToString$GT$9to_string17h6b92635a3f414ae9E)@IMGREL
	.section	.text,"xr",one_only,_ZN45_$LT$T$u20$as$u20$alloc..string..ToString$GT$9to_string17h6b92635a3f414ae9E
	.seh_endproc
	.def	"?dtor$1@?0?_ZN45_$LT$T$u20$as$u20$alloc..string..ToString$GT$9to_string17h6b92635a3f414ae9E@4HA";
	.scl	3;
	.type	32;
	.endef
	.p2align	4, 0x90
"?dtor$1@?0?_ZN45_$LT$T$u20$as$u20$alloc..string..ToString$GT$9to_string17h6b92635a3f414ae9E@4HA":
.seh_proc "?dtor$1@?0?_ZN45_$LT$T$u20$as$u20$alloc..string..ToString$GT$9to_string17h6b92635a3f414ae9E@4HA"
.LBB75_1:
	movq	%rdx, 16(%rsp)
	pushq	%rbp
	.seh_pushreg %rbp
	subq	$32, %rsp
	.seh_stackalloc 32
	leaq	128(%rdx), %rbp
	.seh_endprologue
	leaq	-64(%rbp), %rcx
	callq	_ZN4core3ptr42drop_in_place$LT$alloc..string..String$GT$17h2fe574279f738e3bE
	nop
	addq	$32, %rsp
	popq	%rbp
	retq
.Lfunc_end19:
	.seh_handlerdata
	.section	.text,"xr",one_only,_ZN45_$LT$T$u20$as$u20$alloc..string..ToString$GT$9to_string17h6b92635a3f414ae9E
	.seh_endproc
	.section	.xdata,"dr",associative,_ZN45_$LT$T$u20$as$u20$alloc..string..ToString$GT$9to_string17h6b92635a3f414ae9E
	.p2align	2, 0x0
$cppxdata$_ZN45_$LT$T$u20$as$u20$alloc..string..ToString$GT$9to_string17h6b92635a3f414ae9E:
	.long	429065506
	.long	1
	.long	($stateUnwindMap$_ZN45_$LT$T$u20$as$u20$alloc..string..ToString$GT$9to_string17h6b92635a3f414ae9E)@IMGREL
	.long	0
	.long	0
	.long	3
	.long	($ip2state$_ZN45_$LT$T$u20$as$u20$alloc..string..ToString$GT$9to_string17h6b92635a3f414ae9E)@IMGREL
	.long	216
	.long	0
	.long	1
$stateUnwindMap$_ZN45_$LT$T$u20$as$u20$alloc..string..ToString$GT$9to_string17h6b92635a3f414ae9E:
	.long	-1
	.long	"?dtor$1@?0?_ZN45_$LT$T$u20$as$u20$alloc..string..ToString$GT$9to_string17h6b92635a3f414ae9E@4HA"@IMGREL
$ip2state$_ZN45_$LT$T$u20$as$u20$alloc..string..ToString$GT$9to_string17h6b92635a3f414ae9E:
	.long	.Lfunc_begin19@IMGREL
	.long	-1
	.long	.Ltmp64@IMGREL+1
	.long	0
	.long	.Ltmp67@IMGREL+1
	.long	-1
	.section	.text,"xr",one_only,_ZN45_$LT$T$u20$as$u20$alloc..string..ToString$GT$9to_string17h6b92635a3f414ae9E

	.def	_ZN45_$LT$T$u20$as$u20$alloc..string..ToString$GT$9to_string17h93931c65400863cfE;
	.scl	2;
	.type	32;
	.endef
	.section	.text,"xr",one_only,_ZN45_$LT$T$u20$as$u20$alloc..string..ToString$GT$9to_string17h93931c65400863cfE
	.globl	_ZN45_$LT$T$u20$as$u20$alloc..string..ToString$GT$9to_string17h93931c65400863cfE
	.p2align	4, 0x90
_ZN45_$LT$T$u20$as$u20$alloc..string..ToString$GT$9to_string17h93931c65400863cfE:
.Lfunc_begin20:
.seh_proc _ZN45_$LT$T$u20$as$u20$alloc..string..ToString$GT$9to_string17h93931c65400863cfE
	.seh_handler __CxxFrameHandler3, @unwind, @except
	pushq	%rbp
	.seh_pushreg %rbp
	subq	$224, %rsp
	.seh_stackalloc 224
	leaq	128(%rsp), %rbp
	.seh_setframe %rbp, 128
	.seh_endprologue
	movq	$-2, 88(%rbp)
	movq	%rdx, -96(%rbp)
	movq	%rcx, %rax
	movq	-96(%rbp), %rcx
	movq	%rax, -88(%rbp)
	movq	%rax, -80(%rbp)
	movq	$0, 32(%rbp)
	movq	$1, 40(%rbp)
	movq	$0, 48(%rbp)
	movq	48(%rbp), %rax
	movq	%rax, -48(%rbp)
	vmovdqu	32(%rbp), %xmm0
	vmovdqa	%xmm0, -64(%rbp)
	movq	$0, 56(%rbp)
	movq	$0, 72(%rbp)
	movl	$0, 20(%rbp)
	movl	$32, 16(%rbp)
	movb	$3, 24(%rbp)
	movq	56(%rbp), %rdx
	movq	64(%rbp), %rax
	movq	%rdx, -32(%rbp)
	movq	%rax, -24(%rbp)
	movq	72(%rbp), %rdx
	movq	80(%rbp), %rax
	movq	%rdx, -16(%rbp)
	movq	%rax, -8(%rbp)
	leaq	-64(%rbp), %rax
	movq	%rax, (%rbp)
	leaq	__unnamed_7(%rip), %rax
	movq	%rax, 8(%rbp)
.Ltmp68:
	leaq	-32(%rbp), %rdx
	callq	_ZN4core3fmt5float52_$LT$impl$u20$core..fmt..Display$u20$for$u20$f32$GT$3fmt17ha0ec8ca2a8cdcda8E
.Ltmp69:
	movb	%al, -65(%rbp)
	jmp	.LBB76_2
.LBB76_2:
.Ltmp70:
	movb	-65(%rbp), %cl
	andb	$1, %cl
	leaq	__unnamed_8(%rip), %rdx
	leaq	__unnamed_9(%rip), %r9
	movl	$55, %r8d
	callq	_ZN4core6result19Result$LT$T$C$E$GT$6expect17h04650ff8b91ddf2bE
.Ltmp71:
	jmp	.LBB76_3
.LBB76_3:
	movq	-80(%rbp), %rax
	movq	-88(%rbp), %rcx
	movq	-64(%rbp), %rdx
	movq	%rdx, (%rcx)
	movq	-56(%rbp), %rdx
	movq	%rdx, 8(%rcx)
	movq	-48(%rbp), %rdx
	movq	%rdx, 16(%rcx)
	addq	$224, %rsp
	popq	%rbp
	retq
	.seh_handlerdata
	.long	($cppxdata$_ZN45_$LT$T$u20$as$u20$alloc..string..ToString$GT$9to_string17h93931c65400863cfE)@IMGREL
	.section	.text,"xr",one_only,_ZN45_$LT$T$u20$as$u20$alloc..string..ToString$GT$9to_string17h93931c65400863cfE
	.seh_endproc
	.def	"?dtor$1@?0?_ZN45_$LT$T$u20$as$u20$alloc..string..ToString$GT$9to_string17h93931c65400863cfE@4HA";
	.scl	3;
	.type	32;
	.endef
	.p2align	4, 0x90
"?dtor$1@?0?_ZN45_$LT$T$u20$as$u20$alloc..string..ToString$GT$9to_string17h93931c65400863cfE@4HA":
.seh_proc "?dtor$1@?0?_ZN45_$LT$T$u20$as$u20$alloc..string..ToString$GT$9to_string17h93931c65400863cfE@4HA"
.LBB76_1:
	movq	%rdx, 16(%rsp)
	pushq	%rbp
	.seh_pushreg %rbp
	subq	$32, %rsp
	.seh_stackalloc 32
	leaq	128(%rdx), %rbp
	.seh_endprologue
	leaq	-64(%rbp), %rcx
	callq	_ZN4core3ptr42drop_in_place$LT$alloc..string..String$GT$17h2fe574279f738e3bE
	nop
	addq	$32, %rsp
	popq	%rbp
	retq
.Lfunc_end20:
	.seh_handlerdata
	.section	.text,"xr",one_only,_ZN45_$LT$T$u20$as$u20$alloc..string..ToString$GT$9to_string17h93931c65400863cfE
	.seh_endproc
	.section	.xdata,"dr",associative,_ZN45_$LT$T$u20$as$u20$alloc..string..ToString$GT$9to_string17h93931c65400863cfE
	.p2align	2, 0x0
$cppxdata$_ZN45_$LT$T$u20$as$u20$alloc..string..ToString$GT$9to_string17h93931c65400863cfE:
	.long	429065506
	.long	1
	.long	($stateUnwindMap$_ZN45_$LT$T$u20$as$u20$alloc..string..ToString$GT$9to_string17h93931c65400863cfE)@IMGREL
	.long	0
	.long	0
	.long	3
	.long	($ip2state$_ZN45_$LT$T$u20$as$u20$alloc..string..ToString$GT$9to_string17h93931c65400863cfE)@IMGREL
	.long	216
	.long	0
	.long	1
$stateUnwindMap$_ZN45_$LT$T$u20$as$u20$alloc..string..ToString$GT$9to_string17h93931c65400863cfE:
	.long	-1
	.long	"?dtor$1@?0?_ZN45_$LT$T$u20$as$u20$alloc..string..ToString$GT$9to_string17h93931c65400863cfE@4HA"@IMGREL
$ip2state$_ZN45_$LT$T$u20$as$u20$alloc..string..ToString$GT$9to_string17h93931c65400863cfE:
	.long	.Lfunc_begin20@IMGREL
	.long	-1
	.long	.Ltmp68@IMGREL+1
	.long	0
	.long	.Ltmp71@IMGREL+1
	.long	-1
	.section	.text,"xr",one_only,_ZN45_$LT$T$u20$as$u20$alloc..string..ToString$GT$9to_string17h93931c65400863cfE

	.def	_ZN45_$LT$T$u20$as$u20$alloc..string..ToString$GT$9to_string17h967c3fad02027452E;
	.scl	2;
	.type	32;
	.endef
	.section	.text,"xr",one_only,_ZN45_$LT$T$u20$as$u20$alloc..string..ToString$GT$9to_string17h967c3fad02027452E
	.globl	_ZN45_$LT$T$u20$as$u20$alloc..string..ToString$GT$9to_string17h967c3fad02027452E
	.p2align	4, 0x90
_ZN45_$LT$T$u20$as$u20$alloc..string..ToString$GT$9to_string17h967c3fad02027452E:
.Lfunc_begin21:
.seh_proc _ZN45_$LT$T$u20$as$u20$alloc..string..ToString$GT$9to_string17h967c3fad02027452E
	.seh_handler __CxxFrameHandler3, @unwind, @except
	pushq	%rbp
	.seh_pushreg %rbp
	subq	$224, %rsp
	.seh_stackalloc 224
	leaq	128(%rsp), %rbp
	.seh_setframe %rbp, 128
	.seh_endprologue
	movq	$-2, 88(%rbp)
	movq	%rdx, -96(%rbp)
	movq	%rcx, %rax
	movq	-96(%rbp), %rcx
	movq	%rax, -88(%rbp)
	movq	%rax, -80(%rbp)
	movq	$0, 32(%rbp)
	movq	$1, 40(%rbp)
	movq	$0, 48(%rbp)
	movq	48(%rbp), %rax
	movq	%rax, -48(%rbp)
	vmovdqu	32(%rbp), %xmm0
	vmovdqa	%xmm0, -64(%rbp)
	movq	$0, 56(%rbp)
	movq	$0, 72(%rbp)
	movl	$0, 20(%rbp)
	movl	$32, 16(%rbp)
	movb	$3, 24(%rbp)
	movq	56(%rbp), %rdx
	movq	64(%rbp), %rax
	movq	%rdx, -32(%rbp)
	movq	%rax, -24(%rbp)
	movq	72(%rbp), %rdx
	movq	80(%rbp), %rax
	movq	%rdx, -16(%rbp)
	movq	%rax, -8(%rbp)
	leaq	-64(%rbp), %rax
	movq	%rax, (%rbp)
	leaq	__unnamed_7(%rip), %rax
	movq	%rax, 8(%rbp)
.Ltmp72:
	leaq	-32(%rbp), %rdx
	callq	_ZN4core3fmt3num3imp52_$LT$impl$u20$core..fmt..Display$u20$for$u20$u32$GT$3fmt17ha84526df701900d8E
.Ltmp73:
	movb	%al, -65(%rbp)
	jmp	.LBB77_2
.LBB77_2:
.Ltmp74:
	movb	-65(%rbp), %cl
	andb	$1, %cl
	leaq	__unnamed_8(%rip), %rdx
	leaq	__unnamed_9(%rip), %r9
	movl	$55, %r8d
	callq	_ZN4core6result19Result$LT$T$C$E$GT$6expect17h04650ff8b91ddf2bE
.Ltmp75:
	jmp	.LBB77_3
.LBB77_3:
	movq	-80(%rbp), %rax
	movq	-88(%rbp), %rcx
	movq	-64(%rbp), %rdx
	movq	%rdx, (%rcx)
	movq	-56(%rbp), %rdx
	movq	%rdx, 8(%rcx)
	movq	-48(%rbp), %rdx
	movq	%rdx, 16(%rcx)
	addq	$224, %rsp
	popq	%rbp
	retq
	.seh_handlerdata
	.long	($cppxdata$_ZN45_$LT$T$u20$as$u20$alloc..string..ToString$GT$9to_string17h967c3fad02027452E)@IMGREL
	.section	.text,"xr",one_only,_ZN45_$LT$T$u20$as$u20$alloc..string..ToString$GT$9to_string17h967c3fad02027452E
	.seh_endproc
	.def	"?dtor$1@?0?_ZN45_$LT$T$u20$as$u20$alloc..string..ToString$GT$9to_string17h967c3fad02027452E@4HA";
	.scl	3;
	.type	32;
	.endef
	.p2align	4, 0x90
"?dtor$1@?0?_ZN45_$LT$T$u20$as$u20$alloc..string..ToString$GT$9to_string17h967c3fad02027452E@4HA":
.seh_proc "?dtor$1@?0?_ZN45_$LT$T$u20$as$u20$alloc..string..ToString$GT$9to_string17h967c3fad02027452E@4HA"
.LBB77_1:
	movq	%rdx, 16(%rsp)
	pushq	%rbp
	.seh_pushreg %rbp
	subq	$32, %rsp
	.seh_stackalloc 32
	leaq	128(%rdx), %rbp
	.seh_endprologue
	leaq	-64(%rbp), %rcx
	callq	_ZN4core3ptr42drop_in_place$LT$alloc..string..String$GT$17h2fe574279f738e3bE
	nop
	addq	$32, %rsp
	popq	%rbp
	retq
.Lfunc_end21:
	.seh_handlerdata
	.section	.text,"xr",one_only,_ZN45_$LT$T$u20$as$u20$alloc..string..ToString$GT$9to_string17h967c3fad02027452E
	.seh_endproc
	.section	.xdata,"dr",associative,_ZN45_$LT$T$u20$as$u20$alloc..string..ToString$GT$9to_string17h967c3fad02027452E
	.p2align	2, 0x0
$cppxdata$_ZN45_$LT$T$u20$as$u20$alloc..string..ToString$GT$9to_string17h967c3fad02027452E:
	.long	429065506
	.long	1
	.long	($stateUnwindMap$_ZN45_$LT$T$u20$as$u20$alloc..string..ToString$GT$9to_string17h967c3fad02027452E)@IMGREL
	.long	0
	.long	0
	.long	3
	.long	($ip2state$_ZN45_$LT$T$u20$as$u20$alloc..string..ToString$GT$9to_string17h967c3fad02027452E)@IMGREL
	.long	216
	.long	0
	.long	1
$stateUnwindMap$_ZN45_$LT$T$u20$as$u20$alloc..string..ToString$GT$9to_string17h967c3fad02027452E:
	.long	-1
	.long	"?dtor$1@?0?_ZN45_$LT$T$u20$as$u20$alloc..string..ToString$GT$9to_string17h967c3fad02027452E@4HA"@IMGREL
$ip2state$_ZN45_$LT$T$u20$as$u20$alloc..string..ToString$GT$9to_string17h967c3fad02027452E:
	.long	.Lfunc_begin21@IMGREL
	.long	-1
	.long	.Ltmp72@IMGREL+1
	.long	0
	.long	.Ltmp75@IMGREL+1
	.long	-1
	.section	.text,"xr",one_only,_ZN45_$LT$T$u20$as$u20$alloc..string..ToString$GT$9to_string17h967c3fad02027452E

	.def	_ZN45_$LT$T$u20$as$u20$alloc..string..ToString$GT$9to_string17hb0dc76a65626a6b3E;
	.scl	2;
	.type	32;
	.endef
	.section	.text,"xr",one_only,_ZN45_$LT$T$u20$as$u20$alloc..string..ToString$GT$9to_string17hb0dc76a65626a6b3E
	.globl	_ZN45_$LT$T$u20$as$u20$alloc..string..ToString$GT$9to_string17hb0dc76a65626a6b3E
	.p2align	4, 0x90
_ZN45_$LT$T$u20$as$u20$alloc..string..ToString$GT$9to_string17hb0dc76a65626a6b3E:
.Lfunc_begin22:
.seh_proc _ZN45_$LT$T$u20$as$u20$alloc..string..ToString$GT$9to_string17hb0dc76a65626a6b3E
	.seh_handler __CxxFrameHandler3, @unwind, @except
	pushq	%rbp
	.seh_pushreg %rbp
	subq	$224, %rsp
	.seh_stackalloc 224
	leaq	128(%rsp), %rbp
	.seh_setframe %rbp, 128
	.seh_endprologue
	movq	$-2, 88(%rbp)
	movq	%rdx, -96(%rbp)
	movq	%rcx, %rax
	movq	-96(%rbp), %rcx
	movq	%rax, -88(%rbp)
	movq	%rax, -80(%rbp)
	movq	$0, 32(%rbp)
	movq	$1, 40(%rbp)
	movq	$0, 48(%rbp)
	movq	48(%rbp), %rax
	movq	%rax, -48(%rbp)
	vmovdqu	32(%rbp), %xmm0
	vmovdqa	%xmm0, -64(%rbp)
	movq	$0, 56(%rbp)
	movq	$0, 72(%rbp)
	movl	$0, 20(%rbp)
	movl	$32, 16(%rbp)
	movb	$3, 24(%rbp)
	movq	56(%rbp), %rdx
	movq	64(%rbp), %rax
	movq	%rdx, -32(%rbp)
	movq	%rax, -24(%rbp)
	movq	72(%rbp), %rdx
	movq	80(%rbp), %rax
	movq	%rdx, -16(%rbp)
	movq	%rax, -8(%rbp)
	leaq	-64(%rbp), %rax
	movq	%rax, (%rbp)
	leaq	__unnamed_7(%rip), %rax
	movq	%rax, 8(%rbp)
.Ltmp76:
	leaq	-32(%rbp), %rdx
	callq	_ZN73_$LT$proc_macro2..fallback..TokenStream$u20$as$u20$core..fmt..Display$GT$3fmt17h6d7157fc32207516E
.Ltmp77:
	movb	%al, -65(%rbp)
	jmp	.LBB78_2
.LBB78_2:
.Ltmp78:
	movb	-65(%rbp), %cl
	andb	$1, %cl
	leaq	__unnamed_8(%rip), %rdx
	leaq	__unnamed_9(%rip), %r9
	movl	$55, %r8d
	callq	_ZN4core6result19Result$LT$T$C$E$GT$6expect17h04650ff8b91ddf2bE
.Ltmp79:
	jmp	.LBB78_3
.LBB78_3:
	movq	-80(%rbp), %rax
	movq	-88(%rbp), %rcx
	movq	-64(%rbp), %rdx
	movq	%rdx, (%rcx)
	movq	-56(%rbp), %rdx
	movq	%rdx, 8(%rcx)
	movq	-48(%rbp), %rdx
	movq	%rdx, 16(%rcx)
	addq	$224, %rsp
	popq	%rbp
	retq
	.seh_handlerdata
	.long	($cppxdata$_ZN45_$LT$T$u20$as$u20$alloc..string..ToString$GT$9to_string17hb0dc76a65626a6b3E)@IMGREL
	.section	.text,"xr",one_only,_ZN45_$LT$T$u20$as$u20$alloc..string..ToString$GT$9to_string17hb0dc76a65626a6b3E
	.seh_endproc
	.def	"?dtor$1@?0?_ZN45_$LT$T$u20$as$u20$alloc..string..ToString$GT$9to_string17hb0dc76a65626a6b3E@4HA";
	.scl	3;
	.type	32;
	.endef
	.p2align	4, 0x90
"?dtor$1@?0?_ZN45_$LT$T$u20$as$u20$alloc..string..ToString$GT$9to_string17hb0dc76a65626a6b3E@4HA":
.seh_proc "?dtor$1@?0?_ZN45_$LT$T$u20$as$u20$alloc..string..ToString$GT$9to_string17hb0dc76a65626a6b3E@4HA"
.LBB78_1:
	movq	%rdx, 16(%rsp)
	pushq	%rbp
	.seh_pushreg %rbp
	subq	$32, %rsp
	.seh_stackalloc 32
	leaq	128(%rdx), %rbp
	.seh_endprologue
	leaq	-64(%rbp), %rcx
	callq	_ZN4core3ptr42drop_in_place$LT$alloc..string..String$GT$17h2fe574279f738e3bE
	nop
	addq	$32, %rsp
	popq	%rbp
	retq
.Lfunc_end22:
	.seh_handlerdata
	.section	.text,"xr",one_only,_ZN45_$LT$T$u20$as$u20$alloc..string..ToString$GT$9to_string17hb0dc76a65626a6b3E
	.seh_endproc
	.section	.xdata,"dr",associative,_ZN45_$LT$T$u20$as$u20$alloc..string..ToString$GT$9to_string17hb0dc76a65626a6b3E
	.p2align	2, 0x0
$cppxdata$_ZN45_$LT$T$u20$as$u20$alloc..string..ToString$GT$9to_string17hb0dc76a65626a6b3E:
	.long	429065506
	.long	1
	.long	($stateUnwindMap$_ZN45_$LT$T$u20$as$u20$alloc..string..ToString$GT$9to_string17hb0dc76a65626a6b3E)@IMGREL
	.long	0
	.long	0
	.long	3
	.long	($ip2state$_ZN45_$LT$T$u20$as$u20$alloc..string..ToString$GT$9to_string17hb0dc76a65626a6b3E)@IMGREL
	.long	216
	.long	0
	.long	1
$stateUnwindMap$_ZN45_$LT$T$u20$as$u20$alloc..string..ToString$GT$9to_string17hb0dc76a65626a6b3E:
	.long	-1
	.long	"?dtor$1@?0?_ZN45_$LT$T$u20$as$u20$alloc..string..ToString$GT$9to_string17hb0dc76a65626a6b3E@4HA"@IMGREL
$ip2state$_ZN45_$LT$T$u20$as$u20$alloc..string..ToString$GT$9to_string17hb0dc76a65626a6b3E:
	.long	.Lfunc_begin22@IMGREL
	.long	-1
	.long	.Ltmp76@IMGREL+1
	.long	0
	.long	.Ltmp79@IMGREL+1
	.long	-1
	.section	.text,"xr",one_only,_ZN45_$LT$T$u20$as$u20$alloc..string..ToString$GT$9to_string17hb0dc76a65626a6b3E

	.def	_ZN45_$LT$T$u20$as$u20$alloc..string..ToString$GT$9to_string17hd1727970b7d5d28bE;
	.scl	2;
	.type	32;
	.endef
	.section	.text,"xr",one_only,_ZN45_$LT$T$u20$as$u20$alloc..string..ToString$GT$9to_string17hd1727970b7d5d28bE
	.globl	_ZN45_$LT$T$u20$as$u20$alloc..string..ToString$GT$9to_string17hd1727970b7d5d28bE
	.p2align	4, 0x90
_ZN45_$LT$T$u20$as$u20$alloc..string..ToString$GT$9to_string17hd1727970b7d5d28bE:
.Lfunc_begin23:
.seh_proc _ZN45_$LT$T$u20$as$u20$alloc..string..ToString$GT$9to_string17hd1727970b7d5d28bE
	.seh_handler __CxxFrameHandler3, @unwind, @except
	pushq	%rbp
	.seh_pushreg %rbp
	subq	$224, %rsp
	.seh_stackalloc 224
	leaq	128(%rsp), %rbp
	.seh_setframe %rbp, 128
	.seh_endprologue
	movq	$-2, 88(%rbp)
	movq	%rdx, -96(%rbp)
	movq	%rcx, %rax
	movq	-96(%rbp), %rcx
	movq	%rax, -88(%rbp)
	movq	%rax, -80(%rbp)
	movq	$0, 32(%rbp)
	movq	$1, 40(%rbp)
	movq	$0, 48(%rbp)
	movq	48(%rbp), %rax
	movq	%rax, -48(%rbp)
	vmovdqu	32(%rbp), %xmm0
	vmovdqa	%xmm0, -64(%rbp)
	movq	$0, 56(%rbp)
	movq	$0, 72(%rbp)
	movl	$0, 20(%rbp)
	movl	$32, 16(%rbp)
	movb	$3, 24(%rbp)
	movq	56(%rbp), %rdx
	movq	64(%rbp), %rax
	movq	%rdx, -32(%rbp)
	movq	%rax, -24(%rbp)
	movq	72(%rbp), %rdx
	movq	80(%rbp), %rax
	movq	%rdx, -16(%rbp)
	movq	%rax, -8(%rbp)
	leaq	-64(%rbp), %rax
	movq	%rax, (%rbp)
	leaq	__unnamed_7(%rip), %rax
	movq	%rax, 8(%rbp)
.Ltmp80:
	leaq	-32(%rbp), %rdx
	callq	_ZN4core3fmt5float52_$LT$impl$u20$core..fmt..Display$u20$for$u20$f64$GT$3fmt17ha86ffdd071ac23b3E
.Ltmp81:
	movb	%al, -65(%rbp)
	jmp	.LBB79_2
.LBB79_2:
.Ltmp82:
	movb	-65(%rbp), %cl
	andb	$1, %cl
	leaq	__unnamed_8(%rip), %rdx
	leaq	__unnamed_9(%rip), %r9
	movl	$55, %r8d
	callq	_ZN4core6result19Result$LT$T$C$E$GT$6expect17h04650ff8b91ddf2bE
.Ltmp83:
	jmp	.LBB79_3
.LBB79_3:
	movq	-80(%rbp), %rax
	movq	-88(%rbp), %rcx
	movq	-64(%rbp), %rdx
	movq	%rdx, (%rcx)
	movq	-56(%rbp), %rdx
	movq	%rdx, 8(%rcx)
	movq	-48(%rbp), %rdx
	movq	%rdx, 16(%rcx)
	addq	$224, %rsp
	popq	%rbp
	retq
	.seh_handlerdata
	.long	($cppxdata$_ZN45_$LT$T$u20$as$u20$alloc..string..ToString$GT$9to_string17hd1727970b7d5d28bE)@IMGREL
	.section	.text,"xr",one_only,_ZN45_$LT$T$u20$as$u20$alloc..string..ToString$GT$9to_string17hd1727970b7d5d28bE
	.seh_endproc
	.def	"?dtor$1@?0?_ZN45_$LT$T$u20$as$u20$alloc..string..ToString$GT$9to_string17hd1727970b7d5d28bE@4HA";
	.scl	3;
	.type	32;
	.endef
	.p2align	4, 0x90
"?dtor$1@?0?_ZN45_$LT$T$u20$as$u20$alloc..string..ToString$GT$9to_string17hd1727970b7d5d28bE@4HA":
.seh_proc "?dtor$1@?0?_ZN45_$LT$T$u20$as$u20$alloc..string..ToString$GT$9to_string17hd1727970b7d5d28bE@4HA"
.LBB79_1:
	movq	%rdx, 16(%rsp)
	pushq	%rbp
	.seh_pushreg %rbp
	subq	$32, %rsp
	.seh_stackalloc 32
	leaq	128(%rdx), %rbp
	.seh_endprologue
	leaq	-64(%rbp), %rcx
	callq	_ZN4core3ptr42drop_in_place$LT$alloc..string..String$GT$17h2fe574279f738e3bE
	nop
	addq	$32, %rsp
	popq	%rbp
	retq
.Lfunc_end23:
	.seh_handlerdata
	.section	.text,"xr",one_only,_ZN45_$LT$T$u20$as$u20$alloc..string..ToString$GT$9to_string17hd1727970b7d5d28bE
	.seh_endproc
	.section	.xdata,"dr",associative,_ZN45_$LT$T$u20$as$u20$alloc..string..ToString$GT$9to_string17hd1727970b7d5d28bE
	.p2align	2, 0x0
$cppxdata$_ZN45_$LT$T$u20$as$u20$alloc..string..ToString$GT$9to_string17hd1727970b7d5d28bE:
	.long	429065506
	.long	1
	.long	($stateUnwindMap$_ZN45_$LT$T$u20$as$u20$alloc..string..ToString$GT$9to_string17hd1727970b7d5d28bE)@IMGREL
	.long	0
	.long	0
	.long	3
	.long	($ip2state$_ZN45_$LT$T$u20$as$u20$alloc..string..ToString$GT$9to_string17hd1727970b7d5d28bE)@IMGREL
	.long	216
	.long	0
	.long	1
$stateUnwindMap$_ZN45_$LT$T$u20$as$u20$alloc..string..ToString$GT$9to_string17hd1727970b7d5d28bE:
	.long	-1
	.long	"?dtor$1@?0?_ZN45_$LT$T$u20$as$u20$alloc..string..ToString$GT$9to_string17hd1727970b7d5d28bE@4HA"@IMGREL
$ip2state$_ZN45_$LT$T$u20$as$u20$alloc..string..ToString$GT$9to_string17hd1727970b7d5d28bE:
	.long	.Lfunc_begin23@IMGREL
	.long	-1
	.long	.Ltmp80@IMGREL+1
	.long	0
	.long	.Ltmp83@IMGREL+1
	.long	-1
	.section	.text,"xr",one_only,_ZN45_$LT$T$u20$as$u20$alloc..string..ToString$GT$9to_string17hd1727970b7d5d28bE

	.def	_ZN45_$LT$T$u20$as$u20$alloc..string..ToString$GT$9to_string17hd597ecbf8e8b63a1E;
	.scl	2;
	.type	32;
	.endef
	.section	.text,"xr",one_only,_ZN45_$LT$T$u20$as$u20$alloc..string..ToString$GT$9to_string17hd597ecbf8e8b63a1E
	.globl	_ZN45_$LT$T$u20$as$u20$alloc..string..ToString$GT$9to_string17hd597ecbf8e8b63a1E
	.p2align	4, 0x90
_ZN45_$LT$T$u20$as$u20$alloc..string..ToString$GT$9to_string17hd597ecbf8e8b63a1E:
.Lfunc_begin24:
.seh_proc _ZN45_$LT$T$u20$as$u20$alloc..string..ToString$GT$9to_string17hd597ecbf8e8b63a1E
	.seh_handler __CxxFrameHandler3, @unwind, @except
	pushq	%rbp
	.seh_pushreg %rbp
	subq	$224, %rsp
	.seh_stackalloc 224
	leaq	128(%rsp), %rbp
	.seh_setframe %rbp, 128
	.seh_endprologue
	movq	$-2, 88(%rbp)
	movq	%rdx, -96(%rbp)
	movq	%rcx, %rax
	movq	-96(%rbp), %rcx
	movq	%rax, -88(%rbp)
	movq	%rax, -80(%rbp)
	movq	$0, 32(%rbp)
	movq	$1, 40(%rbp)
	movq	$0, 48(%rbp)
	movq	48(%rbp), %rax
	movq	%rax, -48(%rbp)
	vmovdqu	32(%rbp), %xmm0
	vmovdqa	%xmm0, -64(%rbp)
	movq	$0, 56(%rbp)
	movq	$0, 72(%rbp)
	movl	$0, 20(%rbp)
	movl	$32, 16(%rbp)
	movb	$3, 24(%rbp)
	movq	56(%rbp), %rdx
	movq	64(%rbp), %rax
	movq	%rdx, -32(%rbp)
	movq	%rax, -24(%rbp)
	movq	72(%rbp), %rdx
	movq	80(%rbp), %rax
	movq	%rdx, -16(%rbp)
	movq	%rax, -8(%rbp)
	leaq	-64(%rbp), %rax
	movq	%rax, (%rbp)
	leaq	__unnamed_7(%rip), %rax
	movq	%rax, 8(%rbp)
.Ltmp84:
	leaq	-32(%rbp), %rdx
	callq	_ZN4core3fmt3num3imp52_$LT$impl$u20$core..fmt..Display$u20$for$u20$i16$GT$3fmt17h5026b891716a8c62E
.Ltmp85:
	movb	%al, -65(%rbp)
	jmp	.LBB80_2
.LBB80_2:
.Ltmp86:
	movb	-65(%rbp), %cl
	andb	$1, %cl
	leaq	__unnamed_8(%rip), %rdx
	leaq	__unnamed_9(%rip), %r9
	movl	$55, %r8d
	callq	_ZN4core6result19Result$LT$T$C$E$GT$6expect17h04650ff8b91ddf2bE
.Ltmp87:
	jmp	.LBB80_3
.LBB80_3:
	movq	-80(%rbp), %rax
	movq	-88(%rbp), %rcx
	movq	-64(%rbp), %rdx
	movq	%rdx, (%rcx)
	movq	-56(%rbp), %rdx
	movq	%rdx, 8(%rcx)
	movq	-48(%rbp), %rdx
	movq	%rdx, 16(%rcx)
	addq	$224, %rsp
	popq	%rbp
	retq
	.seh_handlerdata
	.long	($cppxdata$_ZN45_$LT$T$u20$as$u20$alloc..string..ToString$GT$9to_string17hd597ecbf8e8b63a1E)@IMGREL
	.section	.text,"xr",one_only,_ZN45_$LT$T$u20$as$u20$alloc..string..ToString$GT$9to_string17hd597ecbf8e8b63a1E
	.seh_endproc
	.def	"?dtor$1@?0?_ZN45_$LT$T$u20$as$u20$alloc..string..ToString$GT$9to_string17hd597ecbf8e8b63a1E@4HA";
	.scl	3;
	.type	32;
	.endef
	.p2align	4, 0x90
"?dtor$1@?0?_ZN45_$LT$T$u20$as$u20$alloc..string..ToString$GT$9to_string17hd597ecbf8e8b63a1E@4HA":
.seh_proc "?dtor$1@?0?_ZN45_$LT$T$u20$as$u20$alloc..string..ToString$GT$9to_string17hd597ecbf8e8b63a1E@4HA"
.LBB80_1:
	movq	%rdx, 16(%rsp)
	pushq	%rbp
	.seh_pushreg %rbp
	subq	$32, %rsp
	.seh_stackalloc 32
	leaq	128(%rdx), %rbp
	.seh_endprologue
	leaq	-64(%rbp), %rcx
	callq	_ZN4core3ptr42drop_in_place$LT$alloc..string..String$GT$17h2fe574279f738e3bE
	nop
	addq	$32, %rsp
	popq	%rbp
	retq
.Lfunc_end24:
	.seh_handlerdata
	.section	.text,"xr",one_only,_ZN45_$LT$T$u20$as$u20$alloc..string..ToString$GT$9to_string17hd597ecbf8e8b63a1E
	.seh_endproc
	.section	.xdata,"dr",associative,_ZN45_$LT$T$u20$as$u20$alloc..string..ToString$GT$9to_string17hd597ecbf8e8b63a1E
	.p2align	2, 0x0
$cppxdata$_ZN45_$LT$T$u20$as$u20$alloc..string..ToString$GT$9to_string17hd597ecbf8e8b63a1E:
	.long	429065506
	.long	1
	.long	($stateUnwindMap$_ZN45_$LT$T$u20$as$u20$alloc..string..ToString$GT$9to_string17hd597ecbf8e8b63a1E)@IMGREL
	.long	0
	.long	0
	.long	3
	.long	($ip2state$_ZN45_$LT$T$u20$as$u20$alloc..string..ToString$GT$9to_string17hd597ecbf8e8b63a1E)@IMGREL
	.long	216
	.long	0
	.long	1
$stateUnwindMap$_ZN45_$LT$T$u20$as$u20$alloc..string..ToString$GT$9to_string17hd597ecbf8e8b63a1E:
	.long	-1
	.long	"?dtor$1@?0?_ZN45_$LT$T$u20$as$u20$alloc..string..ToString$GT$9to_string17hd597ecbf8e8b63a1E@4HA"@IMGREL
$ip2state$_ZN45_$LT$T$u20$as$u20$alloc..string..ToString$GT$9to_string17hd597ecbf8e8b63a1E:
	.long	.Lfunc_begin24@IMGREL
	.long	-1
	.long	.Ltmp84@IMGREL+1
	.long	0
	.long	.Ltmp87@IMGREL+1
	.long	-1
	.section	.text,"xr",one_only,_ZN45_$LT$T$u20$as$u20$alloc..string..ToString$GT$9to_string17hd597ecbf8e8b63a1E

	.def	_ZN45_$LT$T$u20$as$u20$alloc..string..ToString$GT$9to_string17hf8ab9daaa7e88484E;
	.scl	2;
	.type	32;
	.endef
	.section	.text,"xr",one_only,_ZN45_$LT$T$u20$as$u20$alloc..string..ToString$GT$9to_string17hf8ab9daaa7e88484E
	.globl	_ZN45_$LT$T$u20$as$u20$alloc..string..ToString$GT$9to_string17hf8ab9daaa7e88484E
	.p2align	4, 0x90
_ZN45_$LT$T$u20$as$u20$alloc..string..ToString$GT$9to_string17hf8ab9daaa7e88484E:
.Lfunc_begin25:
.seh_proc _ZN45_$LT$T$u20$as$u20$alloc..string..ToString$GT$9to_string17hf8ab9daaa7e88484E
	.seh_handler __CxxFrameHandler3, @unwind, @except
	pushq	%rbp
	.seh_pushreg %rbp
	subq	$224, %rsp
	.seh_stackalloc 224
	leaq	128(%rsp), %rbp
	.seh_setframe %rbp, 128
	.seh_endprologue
	movq	$-2, 88(%rbp)
	movq	%rdx, -96(%rbp)
	movq	%rcx, %rax
	movq	-96(%rbp), %rcx
	movq	%rax, -88(%rbp)
	movq	%rax, -80(%rbp)
	movq	$0, 32(%rbp)
	movq	$1, 40(%rbp)
	movq	$0, 48(%rbp)
	movq	48(%rbp), %rax
	movq	%rax, -48(%rbp)
	vmovdqu	32(%rbp), %xmm0
	vmovdqa	%xmm0, -64(%rbp)
	movq	$0, 56(%rbp)
	movq	$0, 72(%rbp)
	movl	$0, 20(%rbp)
	movl	$32, 16(%rbp)
	movb	$3, 24(%rbp)
	movq	56(%rbp), %rdx
	movq	64(%rbp), %rax
	movq	%rdx, -32(%rbp)
	movq	%rax, -24(%rbp)
	movq	72(%rbp), %rdx
	movq	80(%rbp), %rax
	movq	%rdx, -16(%rbp)
	movq	%rax, -8(%rbp)
	leaq	-64(%rbp), %rax
	movq	%rax, (%rbp)
	leaq	__unnamed_7(%rip), %rax
	movq	%rax, 8(%rbp)
.Ltmp88:
	leaq	-32(%rbp), %rdx
	callq	_ZN4core3fmt3num3imp52_$LT$impl$u20$core..fmt..Display$u20$for$u20$u16$GT$3fmt17hf65155918196c150E
.Ltmp89:
	movb	%al, -65(%rbp)
	jmp	.LBB81_2
.LBB81_2:
.Ltmp90:
	movb	-65(%rbp), %cl
	andb	$1, %cl
	leaq	__unnamed_8(%rip), %rdx
	leaq	__unnamed_9(%rip), %r9
	movl	$55, %r8d
	callq	_ZN4core6result19Result$LT$T$C$E$GT$6expect17h04650ff8b91ddf2bE
.Ltmp91:
	jmp	.LBB81_3
.LBB81_3:
	movq	-80(%rbp), %rax
	movq	-88(%rbp), %rcx
	movq	-64(%rbp), %rdx
	movq	%rdx, (%rcx)
	movq	-56(%rbp), %rdx
	movq	%rdx, 8(%rcx)
	movq	-48(%rbp), %rdx
	movq	%rdx, 16(%rcx)
	addq	$224, %rsp
	popq	%rbp
	retq
	.seh_handlerdata
	.long	($cppxdata$_ZN45_$LT$T$u20$as$u20$alloc..string..ToString$GT$9to_string17hf8ab9daaa7e88484E)@IMGREL
	.section	.text,"xr",one_only,_ZN45_$LT$T$u20$as$u20$alloc..string..ToString$GT$9to_string17hf8ab9daaa7e88484E
	.seh_endproc
	.def	"?dtor$1@?0?_ZN45_$LT$T$u20$as$u20$alloc..string..ToString$GT$9to_string17hf8ab9daaa7e88484E@4HA";
	.scl	3;
	.type	32;
	.endef
	.p2align	4, 0x90
"?dtor$1@?0?_ZN45_$LT$T$u20$as$u20$alloc..string..ToString$GT$9to_string17hf8ab9daaa7e88484E@4HA":
.seh_proc "?dtor$1@?0?_ZN45_$LT$T$u20$as$u20$alloc..string..ToString$GT$9to_string17hf8ab9daaa7e88484E@4HA"
.LBB81_1:
	movq	%rdx, 16(%rsp)
	pushq	%rbp
	.seh_pushreg %rbp
	subq	$32, %rsp
	.seh_stackalloc 32
	leaq	128(%rdx), %rbp
	.seh_endprologue
	leaq	-64(%rbp), %rcx
	callq	_ZN4core3ptr42drop_in_place$LT$alloc..string..String$GT$17h2fe574279f738e3bE
	nop
	addq	$32, %rsp
	popq	%rbp
	retq
.Lfunc_end25:
	.seh_handlerdata
	.section	.text,"xr",one_only,_ZN45_$LT$T$u20$as$u20$alloc..string..ToString$GT$9to_string17hf8ab9daaa7e88484E
	.seh_endproc
	.section	.xdata,"dr",associative,_ZN45_$LT$T$u20$as$u20$alloc..string..ToString$GT$9to_string17hf8ab9daaa7e88484E
	.p2align	2, 0x0
$cppxdata$_ZN45_$LT$T$u20$as$u20$alloc..string..ToString$GT$9to_string17hf8ab9daaa7e88484E:
	.long	429065506
	.long	1
	.long	($stateUnwindMap$_ZN45_$LT$T$u20$as$u20$alloc..string..ToString$GT$9to_string17hf8ab9daaa7e88484E)@IMGREL
	.long	0
	.long	0
	.long	3
	.long	($ip2state$_ZN45_$LT$T$u20$as$u20$alloc..string..ToString$GT$9to_string17hf8ab9daaa7e88484E)@IMGREL
	.long	216
	.long	0
	.long	1
$stateUnwindMap$_ZN45_$LT$T$u20$as$u20$alloc..string..ToString$GT$9to_string17hf8ab9daaa7e88484E:
	.long	-1
	.long	"?dtor$1@?0?_ZN45_$LT$T$u20$as$u20$alloc..string..ToString$GT$9to_string17hf8ab9daaa7e88484E@4HA"@IMGREL
$ip2state$_ZN45_$LT$T$u20$as$u20$alloc..string..ToString$GT$9to_string17hf8ab9daaa7e88484E:
	.long	.Lfunc_begin25@IMGREL
	.long	-1
	.long	.Ltmp88@IMGREL+1
	.long	0
	.long	.Ltmp91@IMGREL+1
	.long	-1
	.section	.text,"xr",one_only,_ZN45_$LT$T$u20$as$u20$alloc..string..ToString$GT$9to_string17hf8ab9daaa7e88484E

	.def	_ZN46_$LT$i8$u20$as$u20$alloc..string..ToString$GT$9to_string17hc98621af5df09857E;
	.scl	3;
	.type	32;
	.endef
	.section	.text,"xr",one_only,_ZN46_$LT$i8$u20$as$u20$alloc..string..ToString$GT$9to_string17hc98621af5df09857E
	.p2align	4, 0x90
_ZN46_$LT$i8$u20$as$u20$alloc..string..ToString$GT$9to_string17hc98621af5df09857E:
.Lfunc_begin26:
.seh_proc _ZN46_$LT$i8$u20$as$u20$alloc..string..ToString$GT$9to_string17hc98621af5df09857E
	.seh_handler __CxxFrameHandler3, @unwind, @except
	pushq	%rbp
	.seh_pushreg %rbp
	subq	$144, %rsp
	.seh_stackalloc 144
	leaq	128(%rsp), %rbp
	.seh_setframe %rbp, 128
	.seh_endprologue
	movq	$-2, 8(%rbp)
	movq	%rdx, -64(%rbp)
	movq	%rcx, -80(%rbp)
	movq	%rcx, -72(%rbp)
	movl	$4, %ecx
	xorl	%edx, %edx
	callq	_ZN5alloc7raw_vec19RawVec$LT$T$C$A$GT$11allocate_in17he7d7db1f6a4a11cfE
	movq	%rax, %rcx
	movq	%rdx, %rax
	movq	-64(%rbp), %rdx
	movq	%rcx, -24(%rbp)
	movq	%rax, -16(%rbp)
	movq	$0, -8(%rbp)
	movq	-24(%rbp), %rax
	movq	%rax, -56(%rbp)
	movq	-16(%rbp), %rax
	movq	%rax, -48(%rbp)
	movq	-8(%rbp), %rax
	movq	%rax, -40(%rbp)
	cmpb	$0, (%rdx)
	jl	.LBB82_2
	jmp	.LBB82_3
.LBB82_2:
.Ltmp92:
	leaq	-56(%rbp), %rcx
	movl	$45, %edx
	callq	_ZN5alloc6string6String4push17h6378561bd3da7ec0E
.Ltmp93:
	jmp	.LBB82_5
.LBB82_3:
	movq	-64(%rbp), %rax
	movb	(%rax), %al
	movb	%al, -81(%rbp)
	cmpb	$0, %al
	jl	.LBB82_7
	jmp	.LBB82_6
.LBB82_5:
	jmp	.LBB82_3
.LBB82_6:
	movb	-81(%rbp), %al
	movb	%al, 7(%rbp)
	jmp	.LBB82_8
.LBB82_7:
	movb	-81(%rbp), %cl
	xorl	%eax, %eax
	subb	%cl, %al
	movb	%al, 7(%rbp)
.LBB82_8:
	movb	7(%rbp), %al
	movb	%al, -25(%rbp)
	cmpb	$10, -25(%rbp)
	jae	.LBB82_10
	jmp	.LBB82_11
.LBB82_10:
	cmpb	$100, -25(%rbp)
	jae	.LBB82_13
	jmp	.LBB82_12
.LBB82_11:
	movb	-25(%rbp), %al
	addb	$48, %al
	movzbl	%al, %edx
.Ltmp98:
	leaq	-56(%rbp), %rcx
	callq	_ZN5alloc6string6String4push17h6378561bd3da7ec0E
.Ltmp99:
	jmp	.LBB82_17
.LBB82_12:
	jmp	.LBB82_14
.LBB82_13:
.Ltmp94:
	leaq	-56(%rbp), %rcx
	movl	$49, %edx
	callq	_ZN5alloc6string6String4push17h6378561bd3da7ec0E
.Ltmp95:
	jmp	.LBB82_15
.LBB82_14:
	movzbl	-25(%rbp), %eax
	imull	$205, %eax, %eax
	shrl	$11, %eax
	addb	$48, %al
	movzbl	%al, %edx
.Ltmp96:
	leaq	-56(%rbp), %rcx
	callq	_ZN5alloc6string6String4push17h6378561bd3da7ec0E
.Ltmp97:
	jmp	.LBB82_16
.LBB82_15:
	movb	-25(%rbp), %al
	subb	$100, %al
	movb	%al, -25(%rbp)
	jmp	.LBB82_14
.LBB82_16:
	movb	$10, %cl
	movzbw	-25(%rbp), %ax
	divb	%cl
	shrw	$8, %ax
	movb	%al, -25(%rbp)
	jmp	.LBB82_11
.LBB82_17:
	movq	-72(%rbp), %rax
	movq	-80(%rbp), %rcx
	movq	-56(%rbp), %rdx
	movq	%rdx, (%rcx)
	movq	-48(%rbp), %rdx
	movq	%rdx, 8(%rcx)
	movq	-40(%rbp), %rdx
	movq	%rdx, 16(%rcx)
	addq	$144, %rsp
	popq	%rbp
	retq
	.seh_handlerdata
	.long	($cppxdata$_ZN46_$LT$i8$u20$as$u20$alloc..string..ToString$GT$9to_string17hc98621af5df09857E)@IMGREL
	.section	.text,"xr",one_only,_ZN46_$LT$i8$u20$as$u20$alloc..string..ToString$GT$9to_string17hc98621af5df09857E
	.seh_endproc
	.def	"?dtor$4@?0?_ZN46_$LT$i8$u20$as$u20$alloc..string..ToString$GT$9to_string17hc98621af5df09857E@4HA";
	.scl	3;
	.type	32;
	.endef
	.p2align	4, 0x90
"?dtor$4@?0?_ZN46_$LT$i8$u20$as$u20$alloc..string..ToString$GT$9to_string17hc98621af5df09857E@4HA":
.seh_proc "?dtor$4@?0?_ZN46_$LT$i8$u20$as$u20$alloc..string..ToString$GT$9to_string17hc98621af5df09857E@4HA"
.LBB82_4:
	movq	%rdx, 16(%rsp)
	pushq	%rbp
	.seh_pushreg %rbp
	subq	$32, %rsp
	.seh_stackalloc 32
	leaq	128(%rdx), %rbp
	.seh_endprologue
	leaq	-56(%rbp), %rcx
	callq	_ZN4core3ptr42drop_in_place$LT$alloc..string..String$GT$17h2fe574279f738e3bE
	nop
	addq	$32, %rsp
	popq	%rbp
	retq
.Lfunc_end26:
	.seh_handlerdata
	.section	.text,"xr",one_only,_ZN46_$LT$i8$u20$as$u20$alloc..string..ToString$GT$9to_string17hc98621af5df09857E
	.seh_endproc
	.section	.xdata,"dr",associative,_ZN46_$LT$i8$u20$as$u20$alloc..string..ToString$GT$9to_string17hc98621af5df09857E
	.p2align	2, 0x0
$cppxdata$_ZN46_$LT$i8$u20$as$u20$alloc..string..ToString$GT$9to_string17hc98621af5df09857E:
	.long	429065506
	.long	1
	.long	($stateUnwindMap$_ZN46_$LT$i8$u20$as$u20$alloc..string..ToString$GT$9to_string17hc98621af5df09857E)@IMGREL
	.long	0
	.long	0
	.long	3
	.long	($ip2state$_ZN46_$LT$i8$u20$as$u20$alloc..string..ToString$GT$9to_string17hc98621af5df09857E)@IMGREL
	.long	136
	.long	0
	.long	1
$stateUnwindMap$_ZN46_$LT$i8$u20$as$u20$alloc..string..ToString$GT$9to_string17hc98621af5df09857E:
	.long	-1
	.long	"?dtor$4@?0?_ZN46_$LT$i8$u20$as$u20$alloc..string..ToString$GT$9to_string17hc98621af5df09857E@4HA"@IMGREL
$ip2state$_ZN46_$LT$i8$u20$as$u20$alloc..string..ToString$GT$9to_string17hc98621af5df09857E:
	.long	.Lfunc_begin26@IMGREL
	.long	-1
	.long	.Ltmp92@IMGREL+1
	.long	0
	.long	.Ltmp97@IMGREL+1
	.long	-1
	.section	.text,"xr",one_only,_ZN46_$LT$i8$u20$as$u20$alloc..string..ToString$GT$9to_string17hc98621af5df09857E

	.def	_ZN46_$LT$u8$u20$as$u20$alloc..string..ToString$GT$9to_string17h78e9a675b0627c9aE;
	.scl	3;
	.type	32;
	.endef
	.section	.text,"xr",one_only,_ZN46_$LT$u8$u20$as$u20$alloc..string..ToString$GT$9to_string17h78e9a675b0627c9aE
	.p2align	4, 0x90
_ZN46_$LT$u8$u20$as$u20$alloc..string..ToString$GT$9to_string17h78e9a675b0627c9aE:
.Lfunc_begin27:
.seh_proc _ZN46_$LT$u8$u20$as$u20$alloc..string..ToString$GT$9to_string17h78e9a675b0627c9aE
	.seh_handler __CxxFrameHandler3, @unwind, @except
	pushq	%rbp
	.seh_pushreg %rbp
	subq	$128, %rsp
	.seh_stackalloc 128
	leaq	128(%rsp), %rbp
	.seh_setframe %rbp, 128
	.seh_endprologue
	movq	$-2, -8(%rbp)
	movq	%rdx, -72(%rbp)
	movq	%rcx, -88(%rbp)
	movq	%rcx, -80(%rbp)
	movl	$3, %ecx
	xorl	%edx, %edx
	callq	_ZN5alloc7raw_vec19RawVec$LT$T$C$A$GT$11allocate_in17he7d7db1f6a4a11cfE
	movq	%rax, %rcx
	movq	%rdx, %rax
	movq	-72(%rbp), %rdx
	movq	%rcx, -32(%rbp)
	movq	%rax, -24(%rbp)
	movq	$0, -16(%rbp)
	movq	-32(%rbp), %rax
	movq	%rax, -64(%rbp)
	movq	-24(%rbp), %rax
	movq	%rax, -56(%rbp)
	movq	-16(%rbp), %rax
	movq	%rax, -48(%rbp)
	movb	(%rdx), %al
	movb	%al, -33(%rbp)
	cmpb	$10, -33(%rbp)
	jae	.LBB83_2
	jmp	.LBB83_3
.LBB83_2:
	cmpb	$100, -33(%rbp)
	jae	.LBB83_5
	jmp	.LBB83_4
.LBB83_3:
	movb	-33(%rbp), %al
	addb	$48, %al
	movzbl	%al, %edx
.Ltmp104:
	leaq	-64(%rbp), %rcx
	callq	_ZN5alloc6string6String4push17h6378561bd3da7ec0E
.Ltmp105:
	jmp	.LBB83_10
.LBB83_4:
	jmp	.LBB83_6
.LBB83_5:
	movzbl	-33(%rbp), %ecx
	movl	%ecx, %eax
	leal	(%rax,%rax,4), %edx
	movl	%edx, %ecx
	leal	(%rax,%rcx,8), %eax
	shrl	$12, %eax
	orb	$48, %al
	movzbl	%al, %edx
.Ltmp100:
	leaq	-64(%rbp), %rcx
	callq	_ZN5alloc6string6String4push17h6378561bd3da7ec0E
.Ltmp101:
	jmp	.LBB83_8
.LBB83_6:
	movzbl	-33(%rbp), %eax
	imull	$205, %eax, %eax
	shrl	$11, %eax
	addb	$48, %al
	movzbl	%al, %edx
.Ltmp102:
	leaq	-64(%rbp), %rcx
	callq	_ZN5alloc6string6String4push17h6378561bd3da7ec0E
.Ltmp103:
	jmp	.LBB83_9
.LBB83_8:
	movb	$100, %cl
	movzbw	-33(%rbp), %ax
	divb	%cl
	shrw	$8, %ax
	movb	%al, -33(%rbp)
	jmp	.LBB83_6
.LBB83_9:
	movb	$10, %cl
	movzbw	-33(%rbp), %ax
	divb	%cl
	shrw	$8, %ax
	movb	%al, -33(%rbp)
	jmp	.LBB83_3
.LBB83_10:
	movq	-80(%rbp), %rax
	movq	-88(%rbp), %rcx
	movq	-64(%rbp), %rdx
	movq	%rdx, (%rcx)
	movq	-56(%rbp), %rdx
	movq	%rdx, 8(%rcx)
	movq	-48(%rbp), %rdx
	movq	%rdx, 16(%rcx)
	addq	$128, %rsp
	popq	%rbp
	retq
	.seh_handlerdata
	.long	($cppxdata$_ZN46_$LT$u8$u20$as$u20$alloc..string..ToString$GT$9to_string17h78e9a675b0627c9aE)@IMGREL
	.section	.text,"xr",one_only,_ZN46_$LT$u8$u20$as$u20$alloc..string..ToString$GT$9to_string17h78e9a675b0627c9aE
	.seh_endproc
	.def	"?dtor$7@?0?_ZN46_$LT$u8$u20$as$u20$alloc..string..ToString$GT$9to_string17h78e9a675b0627c9aE@4HA";
	.scl	3;
	.type	32;
	.endef
	.p2align	4, 0x90
"?dtor$7@?0?_ZN46_$LT$u8$u20$as$u20$alloc..string..ToString$GT$9to_string17h78e9a675b0627c9aE@4HA":
.seh_proc "?dtor$7@?0?_ZN46_$LT$u8$u20$as$u20$alloc..string..ToString$GT$9to_string17h78e9a675b0627c9aE@4HA"
.LBB83_7:
	movq	%rdx, 16(%rsp)
	pushq	%rbp
	.seh_pushreg %rbp
	subq	$32, %rsp
	.seh_stackalloc 32
	leaq	128(%rdx), %rbp
	.seh_endprologue
	leaq	-64(%rbp), %rcx
	callq	_ZN4core3ptr42drop_in_place$LT$alloc..string..String$GT$17h2fe574279f738e3bE
	nop
	addq	$32, %rsp
	popq	%rbp
	retq
.Lfunc_end27:
	.seh_handlerdata
	.section	.text,"xr",one_only,_ZN46_$LT$u8$u20$as$u20$alloc..string..ToString$GT$9to_string17h78e9a675b0627c9aE
	.seh_endproc
	.section	.xdata,"dr",associative,_ZN46_$LT$u8$u20$as$u20$alloc..string..ToString$GT$9to_string17h78e9a675b0627c9aE
	.p2align	2, 0x0
$cppxdata$_ZN46_$LT$u8$u20$as$u20$alloc..string..ToString$GT$9to_string17h78e9a675b0627c9aE:
	.long	429065506
	.long	1
	.long	($stateUnwindMap$_ZN46_$LT$u8$u20$as$u20$alloc..string..ToString$GT$9to_string17h78e9a675b0627c9aE)@IMGREL
	.long	0
	.long	0
	.long	3
	.long	($ip2state$_ZN46_$LT$u8$u20$as$u20$alloc..string..ToString$GT$9to_string17h78e9a675b0627c9aE)@IMGREL
	.long	120
	.long	0
	.long	1
$stateUnwindMap$_ZN46_$LT$u8$u20$as$u20$alloc..string..ToString$GT$9to_string17h78e9a675b0627c9aE:
	.long	-1
	.long	"?dtor$7@?0?_ZN46_$LT$u8$u20$as$u20$alloc..string..ToString$GT$9to_string17h78e9a675b0627c9aE@4HA"@IMGREL
$ip2state$_ZN46_$LT$u8$u20$as$u20$alloc..string..ToString$GT$9to_string17h78e9a675b0627c9aE:
	.long	.Lfunc_begin27@IMGREL
	.long	-1
	.long	.Ltmp104@IMGREL+1
	.long	0
	.long	.Ltmp103@IMGREL+1
	.long	-1
	.section	.text,"xr",one_only,_ZN46_$LT$u8$u20$as$u20$alloc..string..ToString$GT$9to_string17h78e9a675b0627c9aE

	.def	_ZN46_$LT$u8$u20$as$u20$core..iter..range..Step$GT$17forward_unchecked17h12f61ce43064c9b3E;
	.scl	3;
	.type	32;
	.endef
	.section	.text,"xr",one_only,_ZN46_$LT$u8$u20$as$u20$core..iter..range..Step$GT$17forward_unchecked17h12f61ce43064c9b3E
	.p2align	4, 0x90
_ZN46_$LT$u8$u20$as$u20$core..iter..range..Step$GT$17forward_unchecked17h12f61ce43064c9b3E:
	movb	%cl, %al
	movb	%dl, %cl
	addb	%cl, %al
	retq

	.def	_ZN47_$LT$str$u20$as$u20$alloc..string..ToString$GT$9to_string17h4ef6540d4509d97eE;
	.scl	3;
	.type	32;
	.endef
	.section	.text,"xr",one_only,_ZN47_$LT$str$u20$as$u20$alloc..string..ToString$GT$9to_string17h4ef6540d4509d97eE
	.p2align	4, 0x90
_ZN47_$LT$str$u20$as$u20$alloc..string..ToString$GT$9to_string17h4ef6540d4509d97eE:
.seh_proc _ZN47_$LT$str$u20$as$u20$alloc..string..ToString$GT$9to_string17h4ef6540d4509d97eE
	subq	$72, %rsp
	.seh_stackalloc 72
	.seh_endprologue
	movq	%rcx, 32(%rsp)
	movq	%rcx, 40(%rsp)
	leaq	48(%rsp), %rcx
	callq	_ZN52_$LT$T$u20$as$u20$alloc..slice..hack..ConvertVec$GT$6to_vec17h8cb01f9a2a271804E
	movq	32(%rsp), %rcx
	movq	40(%rsp), %rax
	movq	48(%rsp), %rdx
	movq	%rdx, (%rcx)
	movq	56(%rsp), %rdx
	movq	%rdx, 8(%rcx)
	movq	64(%rsp), %rdx
	movq	%rdx, 16(%rcx)
	addq	$72, %rsp
	retq
	.seh_endproc

	.def	_ZN49_$LT$F$u20$as$u20$core..str..pattern..Pattern$GT$12is_prefix_of17h8c813a8369575ddfE;
	.scl	2;
	.type	32;
	.endef
	.section	.text,"xr",one_only,_ZN49_$LT$F$u20$as$u20$core..str..pattern..Pattern$GT$12is_prefix_of17h8c813a8369575ddfE
	.globl	_ZN49_$LT$F$u20$as$u20$core..str..pattern..Pattern$GT$12is_prefix_of17h8c813a8369575ddfE
	.p2align	4, 0x90
_ZN49_$LT$F$u20$as$u20$core..str..pattern..Pattern$GT$12is_prefix_of17h8c813a8369575ddfE:
.seh_proc _ZN49_$LT$F$u20$as$u20$core..str..pattern..Pattern$GT$12is_prefix_of17h8c813a8369575ddfE
	subq	$40, %rsp
	.seh_stackalloc 40
	.seh_endprologue
	callq	_ZN4core3str7pattern7Pattern12is_prefix_of17hc93a42ff2add3645E
	andb	$1, %al
	movzbl	%al, %eax
	addq	$40, %rsp
	retq
	.seh_endproc

	.def	_ZN49_$LT$F$u20$as$u20$core..str..pattern..Pattern$GT$12is_prefix_of17hf87f01cc0b88833aE;
	.scl	2;
	.type	32;
	.endef
	.section	.text,"xr",one_only,_ZN49_$LT$F$u20$as$u20$core..str..pattern..Pattern$GT$12is_prefix_of17hf87f01cc0b88833aE
	.globl	_ZN49_$LT$F$u20$as$u20$core..str..pattern..Pattern$GT$12is_prefix_of17hf87f01cc0b88833aE
	.p2align	4, 0x90
_ZN49_$LT$F$u20$as$u20$core..str..pattern..Pattern$GT$12is_prefix_of17hf87f01cc0b88833aE:
.seh_proc _ZN49_$LT$F$u20$as$u20$core..str..pattern..Pattern$GT$12is_prefix_of17hf87f01cc0b88833aE
	subq	$40, %rsp
	.seh_stackalloc 40
	.seh_endprologue
	callq	_ZN4core3str7pattern7Pattern12is_prefix_of17hd41be62f30b57756E
	andb	$1, %al
	movzbl	%al, %eax
	addq	$40, %rsp
	retq
	.seh_endproc

	.def	_ZN49_$LT$u8$u20$as$u20$core..slice..cmp..SliceOrd$GT$7compare17h201fb111e9e5533eE;
	.scl	3;
	.type	32;
	.endef
	.section	.text,"xr",one_only,_ZN49_$LT$u8$u20$as$u20$core..slice..cmp..SliceOrd$GT$7compare17h201fb111e9e5533eE
	.p2align	4, 0x90
_ZN49_$LT$u8$u20$as$u20$core..slice..cmp..SliceOrd$GT$7compare17h201fb111e9e5533eE:
.seh_proc _ZN49_$LT$u8$u20$as$u20$core..slice..cmp..SliceOrd$GT$7compare17h201fb111e9e5533eE
	subq	$104, %rsp
	.seh_stackalloc 104
	.seh_endprologue
	movq	%r9, 32(%rsp)
	movq	%r8, 40(%rsp)
	movq	%rdx, 48(%rsp)
	movq	%rcx, 56(%rsp)
	movq	%rdx, %rax
	subq	%r9, %rax
	movq	%rax, 64(%rsp)
	cmpq	%r9, %rdx
	jb	.LBB88_2
	movq	32(%rsp), %rax
	movq	%rax, 80(%rsp)
	jmp	.LBB88_3
.LBB88_2:
	movq	48(%rsp), %rax
	movq	%rax, 80(%rsp)
.LBB88_3:
	movq	40(%rsp), %rdx
	movq	56(%rsp), %rcx
	movq	80(%rsp), %r8
	callq	memcmp
	movl	%eax, 100(%rsp)
	movslq	100(%rsp), %rax
	movq	%rax, 88(%rsp)
	cmpq	$0, 88(%rsp)
	jne	.LBB88_5
	movq	64(%rsp), %rax
	movq	%rax, 88(%rsp)
	jmp	.LBB88_6
.LBB88_5:
	jmp	.LBB88_6
.LBB88_6:
	cmpq	$0, 88(%rsp)
	jl	.LBB88_8
	cmpq	$0, 88(%rsp)
	je	.LBB88_9
	jmp	.LBB88_10
.LBB88_8:
	movb	$-1, 79(%rsp)
	jmp	.LBB88_11
.LBB88_9:
	movb	$0, 79(%rsp)
	jmp	.LBB88_11
.LBB88_10:
	movb	$1, 79(%rsp)
.LBB88_11:
	movb	79(%rsp), %al
	addq	$104, %rsp
	retq
	.seh_endproc

	.def	_ZN49_$LT$usize$u20$as$u20$core..iter..range..Step$GT$17forward_unchecked17ha0d5adb4c6a5a198E;
	.scl	3;
	.type	32;
	.endef
	.section	.text,"xr",one_only,_ZN49_$LT$usize$u20$as$u20$core..iter..range..Step$GT$17forward_unchecked17ha0d5adb4c6a5a198E
	.p2align	4, 0x90
_ZN49_$LT$usize$u20$as$u20$core..iter..range..Step$GT$17forward_unchecked17ha0d5adb4c6a5a198E:
	movq	%rcx, %rax
	addq	%rdx, %rax
	retq

	.def	_ZN49_$LT$usize$u20$as$u20$core..iter..range..Step$GT$18backward_unchecked17h8e0623e9b294f993E;
	.scl	3;
	.type	32;
	.endef
	.section	.text,"xr",one_only,_ZN49_$LT$usize$u20$as$u20$core..iter..range..Step$GT$18backward_unchecked17h8e0623e9b294f993E
	.p2align	4, 0x90
_ZN49_$LT$usize$u20$as$u20$core..iter..range..Step$GT$18backward_unchecked17h8e0623e9b294f993E:
	movq	%rcx, %rax
	subq	%rdx, %rax
	retq

	.def	_ZN4core3cmp5impls50_$LT$impl$u20$core..cmp..Ord$u20$for$u20$usize$GT$3cmp17hf2a2f1ceb25456eeE;
	.scl	3;
	.type	32;
	.endef
	.section	.text,"xr",one_only,_ZN4core3cmp5impls50_$LT$impl$u20$core..cmp..Ord$u20$for$u20$usize$GT$3cmp17hf2a2f1ceb25456eeE
	.p2align	4, 0x90
_ZN4core3cmp5impls50_$LT$impl$u20$core..cmp..Ord$u20$for$u20$usize$GT$3cmp17hf2a2f1ceb25456eeE:
.seh_proc _ZN4core3cmp5impls50_$LT$impl$u20$core..cmp..Ord$u20$for$u20$usize$GT$3cmp17hf2a2f1ceb25456eeE
	subq	$24, %rsp
	.seh_stackalloc 24
	.seh_endprologue
	movq	%rdx, (%rsp)
	movq	%rcx, 8(%rsp)
	movq	(%rcx), %rax
	cmpq	(%rdx), %rax
	jb	.LBB91_2
	movq	(%rsp), %rcx
	movq	8(%rsp), %rax
	movq	(%rax), %rax
	cmpq	(%rcx), %rax
	je	.LBB91_4
	jmp	.LBB91_3
.LBB91_2:
	movb	$-1, 23(%rsp)
	jmp	.LBB91_6
.LBB91_3:
	movb	$1, 23(%rsp)
	jmp	.LBB91_5
.LBB91_4:
	movb	$0, 23(%rsp)
.LBB91_5:
	jmp	.LBB91_6
.LBB91_6:
	movb	23(%rsp), %al
	addq	$24, %rsp
	retq
	.seh_endproc

	.def	_ZN4core3cmp5impls59_$LT$impl$u20$core..cmp..PartialEq$u20$for$u20$$LP$$RP$$GT$2eq17h08287939180d4e9bE;
	.scl	3;
	.type	32;
	.endef
	.section	.text,"xr",one_only,_ZN4core3cmp5impls59_$LT$impl$u20$core..cmp..PartialEq$u20$for$u20$$LP$$RP$$GT$2eq17h08287939180d4e9bE
	.p2align	4, 0x90
_ZN4core3cmp5impls59_$LT$impl$u20$core..cmp..PartialEq$u20$for$u20$$LP$$RP$$GT$2eq17h08287939180d4e9bE:
	movb	$1, %al
	andb	$1, %al
	movzbl	%al, %eax
	retq

	.def	_ZN4core3cmp5impls69_$LT$impl$u20$core..cmp..PartialEq$LT$$RF$B$GT$$u20$for$u20$$RF$A$GT$2eq17h95ab5b4ff88e3b74E;
	.scl	2;
	.type	32;
	.endef
	.section	.text,"xr",one_only,_ZN4core3cmp5impls69_$LT$impl$u20$core..cmp..PartialEq$LT$$RF$B$GT$$u20$for$u20$$RF$A$GT$2eq17h95ab5b4ff88e3b74E
	.globl	_ZN4core3cmp5impls69_$LT$impl$u20$core..cmp..PartialEq$LT$$RF$B$GT$$u20$for$u20$$RF$A$GT$2eq17h95ab5b4ff88e3b74E
	.p2align	4, 0x90
_ZN4core3cmp5impls69_$LT$impl$u20$core..cmp..PartialEq$LT$$RF$B$GT$$u20$for$u20$$RF$A$GT$2eq17h95ab5b4ff88e3b74E:
.seh_proc _ZN4core3cmp5impls69_$LT$impl$u20$core..cmp..PartialEq$LT$$RF$B$GT$$u20$for$u20$$RF$A$GT$2eq17h95ab5b4ff88e3b74E
	subq	$40, %rsp
	.seh_stackalloc 40
	.seh_endprologue
	movq	(%rcx), %rcx
	movq	(%rdx), %rdx
	callq	_ZN69_$LT$proc_macro2..fallback..Ident$u20$as$u20$core..cmp..PartialEq$GT$2eq17ha70469583c5f0380E
	andb	$1, %al
	movzbl	%al, %eax
	addq	$40, %rsp
	retq
	.seh_endproc

	.def	_ZN4core3cmp6max_by17hc86e4f403505422bE;
	.scl	2;
	.type	32;
	.endef
	.section	.text,"xr",one_only,_ZN4core3cmp6max_by17hc86e4f403505422bE
	.globl	_ZN4core3cmp6max_by17hc86e4f403505422bE
	.p2align	4, 0x90
_ZN4core3cmp6max_by17hc86e4f403505422bE:
.Lfunc_begin28:
.seh_proc _ZN4core3cmp6max_by17hc86e4f403505422bE
	.seh_handler __CxxFrameHandler3, @unwind, @except
	pushq	%rbp
	.seh_pushreg %rbp
	subq	$112, %rsp
	.seh_stackalloc 112
	leaq	112(%rsp), %rbp
	.seh_setframe %rbp, 112
	.seh_endprologue
	movq	$-2, -8(%rbp)
	movq	%rcx, -64(%rbp)
	movq	%rdx, -56(%rbp)
	movb	$1, -9(%rbp)
	movb	$1, -10(%rbp)
	leaq	-64(%rbp), %rax
	movq	%rax, -32(%rbp)
	leaq	-56(%rbp), %rax
	movq	%rax, -24(%rbp)
	movq	-32(%rbp), %rcx
	movq	-24(%rbp), %rdx
.Ltmp106:
	callq	_ZN4core3ops8function6FnOnce9call_once17h10f7e01144e4d607E
.Ltmp107:
	movb	%al, -65(%rbp)
	jmp	.LBB94_2
.LBB94_2:
	movb	-65(%rbp), %al
	movb	%al, -33(%rbp)
	movb	-33(%rbp), %al
	incb	%al
	subb	$2, %al
	jb	.LBB94_4
	jmp	.LBB94_14
.LBB94_14:
	jmp	.LBB94_5
	ud2
.LBB94_4:
	movb	$0, -10(%rbp)
	movq	-56(%rbp), %rax
	movq	%rax, -48(%rbp)
	jmp	.LBB94_6
.LBB94_5:
	movb	$0, -9(%rbp)
	movq	-64(%rbp), %rax
	movq	%rax, -48(%rbp)
.LBB94_6:
	testb	$1, -10(%rbp)
	jne	.LBB94_8
.LBB94_7:
	testb	$1, -9(%rbp)
	jne	.LBB94_10
	jmp	.LBB94_9
.LBB94_8:
	jmp	.LBB94_7
.LBB94_9:
	movq	-48(%rbp), %rax
	addq	$112, %rsp
	popq	%rbp
	retq
.LBB94_10:
	jmp	.LBB94_9
	.seh_handlerdata
	.long	($cppxdata$_ZN4core3cmp6max_by17hc86e4f403505422bE)@IMGREL
	.section	.text,"xr",one_only,_ZN4core3cmp6max_by17hc86e4f403505422bE
	.seh_endproc
	.def	"?dtor$1@?0?_ZN4core3cmp6max_by17hc86e4f403505422bE@4HA";
	.scl	3;
	.type	32;
	.endef
	.p2align	4, 0x90
"?dtor$1@?0?_ZN4core3cmp6max_by17hc86e4f403505422bE@4HA":
.seh_proc "?dtor$1@?0?_ZN4core3cmp6max_by17hc86e4f403505422bE@4HA"
.LBB94_1:
	movq	%rdx, 16(%rsp)
	pushq	%rbp
	.seh_pushreg %rbp
	subq	$32, %rsp
	.seh_stackalloc 32
	leaq	112(%rdx), %rbp
	.seh_endprologue
	addq	$32, %rsp
	popq	%rbp
	retq
	.seh_handlerdata
	.section	.text,"xr",one_only,_ZN4core3cmp6max_by17hc86e4f403505422bE
	.seh_endproc
	.def	"?dtor$11@?0?_ZN4core3cmp6max_by17hc86e4f403505422bE@4HA";
	.scl	3;
	.type	32;
	.endef
	.p2align	4, 0x90
"?dtor$11@?0?_ZN4core3cmp6max_by17hc86e4f403505422bE@4HA":
.seh_proc "?dtor$11@?0?_ZN4core3cmp6max_by17hc86e4f403505422bE@4HA"
.LBB94_11:
	movq	%rdx, 16(%rsp)
	pushq	%rbp
	.seh_pushreg %rbp
	subq	$32, %rsp
	.seh_stackalloc 32
	leaq	112(%rdx), %rbp
	.seh_endprologue
	testb	$1, -9(%rbp)
	jne	.LBB94_13
.LBB94_12:
	addq	$32, %rsp
	popq	%rbp
	retq
.LBB94_13:
	jmp	.LBB94_12
.Lfunc_end28:
	.seh_handlerdata
	.section	.text,"xr",one_only,_ZN4core3cmp6max_by17hc86e4f403505422bE
	.seh_endproc
	.section	.xdata,"dr",associative,_ZN4core3cmp6max_by17hc86e4f403505422bE
	.p2align	2, 0x0
$cppxdata$_ZN4core3cmp6max_by17hc86e4f403505422bE:
	.long	429065506
	.long	2
	.long	($stateUnwindMap$_ZN4core3cmp6max_by17hc86e4f403505422bE)@IMGREL
	.long	0
	.long	0
	.long	3
	.long	($ip2state$_ZN4core3cmp6max_by17hc86e4f403505422bE)@IMGREL
	.long	104
	.long	0
	.long	1
$stateUnwindMap$_ZN4core3cmp6max_by17hc86e4f403505422bE:
	.long	-1
	.long	"?dtor$11@?0?_ZN4core3cmp6max_by17hc86e4f403505422bE@4HA"@IMGREL
	.long	0
	.long	"?dtor$1@?0?_ZN4core3cmp6max_by17hc86e4f403505422bE@4HA"@IMGREL
$ip2state$_ZN4core3cmp6max_by17hc86e4f403505422bE:
	.long	.Lfunc_begin28@IMGREL
	.long	-1
	.long	.Ltmp106@IMGREL+1
	.long	1
	.long	.Ltmp107@IMGREL+1
	.long	-1
	.section	.text,"xr",one_only,_ZN4core3cmp6max_by17hc86e4f403505422bE

	.def	_ZN4core3cmp6min_by17h45417cbf0ed05fd5E;
	.scl	2;
	.type	32;
	.endef
	.section	.text,"xr",one_only,_ZN4core3cmp6min_by17h45417cbf0ed05fd5E
	.globl	_ZN4core3cmp6min_by17h45417cbf0ed05fd5E
	.p2align	4, 0x90
_ZN4core3cmp6min_by17h45417cbf0ed05fd5E:
.Lfunc_begin29:
.seh_proc _ZN4core3cmp6min_by17h45417cbf0ed05fd5E
	.seh_handler __CxxFrameHandler3, @unwind, @except
	pushq	%rbp
	.seh_pushreg %rbp
	subq	$112, %rsp
	.seh_stackalloc 112
	leaq	112(%rsp), %rbp
	.seh_setframe %rbp, 112
	.seh_endprologue
	movq	$-2, -8(%rbp)
	movq	%rcx, -64(%rbp)
	movq	%rdx, -56(%rbp)
	movb	$1, -9(%rbp)
	movb	$1, -10(%rbp)
	leaq	-64(%rbp), %rax
	movq	%rax, -32(%rbp)
	leaq	-56(%rbp), %rax
	movq	%rax, -24(%rbp)
	movq	-32(%rbp), %rcx
	movq	-24(%rbp), %rdx
.Ltmp108:
	callq	_ZN4core3ops8function6FnOnce9call_once17h10f7e01144e4d607E
.Ltmp109:
	movb	%al, -65(%rbp)
	jmp	.LBB95_2
.LBB95_2:
	movb	-65(%rbp), %al
	movb	%al, -33(%rbp)
	movb	-33(%rbp), %al
	incb	%al
	subb	$2, %al
	jb	.LBB95_4
	jmp	.LBB95_14
.LBB95_14:
	jmp	.LBB95_5
	ud2
.LBB95_4:
	movb	$0, -9(%rbp)
	movq	-64(%rbp), %rax
	movq	%rax, -48(%rbp)
	jmp	.LBB95_6
.LBB95_5:
	movb	$0, -10(%rbp)
	movq	-56(%rbp), %rax
	movq	%rax, -48(%rbp)
.LBB95_6:
	testb	$1, -10(%rbp)
	jne	.LBB95_8
.LBB95_7:
	testb	$1, -9(%rbp)
	jne	.LBB95_10
	jmp	.LBB95_9
.LBB95_8:
	jmp	.LBB95_7
.LBB95_9:
	movq	-48(%rbp), %rax
	addq	$112, %rsp
	popq	%rbp
	retq
.LBB95_10:
	jmp	.LBB95_9
	.seh_handlerdata
	.long	($cppxdata$_ZN4core3cmp6min_by17h45417cbf0ed05fd5E)@IMGREL
	.section	.text,"xr",one_only,_ZN4core3cmp6min_by17h45417cbf0ed05fd5E
	.seh_endproc
	.def	"?dtor$1@?0?_ZN4core3cmp6min_by17h45417cbf0ed05fd5E@4HA";
	.scl	3;
	.type	32;
	.endef
	.p2align	4, 0x90
"?dtor$1@?0?_ZN4core3cmp6min_by17h45417cbf0ed05fd5E@4HA":
.seh_proc "?dtor$1@?0?_ZN4core3cmp6min_by17h45417cbf0ed05fd5E@4HA"
.LBB95_1:
	movq	%rdx, 16(%rsp)
	pushq	%rbp
	.seh_pushreg %rbp
	subq	$32, %rsp
	.seh_stackalloc 32
	leaq	112(%rdx), %rbp
	.seh_endprologue
	addq	$32, %rsp
	popq	%rbp
	retq
	.seh_handlerdata
	.section	.text,"xr",one_only,_ZN4core3cmp6min_by17h45417cbf0ed05fd5E
	.seh_endproc
	.def	"?dtor$11@?0?_ZN4core3cmp6min_by17h45417cbf0ed05fd5E@4HA";
	.scl	3;
	.type	32;
	.endef
	.p2align	4, 0x90
"?dtor$11@?0?_ZN4core3cmp6min_by17h45417cbf0ed05fd5E@4HA":
.seh_proc "?dtor$11@?0?_ZN4core3cmp6min_by17h45417cbf0ed05fd5E@4HA"
.LBB95_11:
	movq	%rdx, 16(%rsp)
	pushq	%rbp
	.seh_pushreg %rbp
	subq	$32, %rsp
	.seh_stackalloc 32
	leaq	112(%rdx), %rbp
	.seh_endprologue
	testb	$1, -9(%rbp)
	jne	.LBB95_13
.LBB95_12:
	addq	$32, %rsp
	popq	%rbp
	retq
.LBB95_13:
	jmp	.LBB95_12
.Lfunc_end29:
	.seh_handlerdata
	.section	.text,"xr",one_only,_ZN4core3cmp6min_by17h45417cbf0ed05fd5E
	.seh_endproc
	.section	.xdata,"dr",associative,_ZN4core3cmp6min_by17h45417cbf0ed05fd5E
	.p2align	2, 0x0
$cppxdata$_ZN4core3cmp6min_by17h45417cbf0ed05fd5E:
	.long	429065506
	.long	2
	.long	($stateUnwindMap$_ZN4core3cmp6min_by17h45417cbf0ed05fd5E)@IMGREL
	.long	0
	.long	0
	.long	3
	.long	($ip2state$_ZN4core3cmp6min_by17h45417cbf0ed05fd5E)@IMGREL
	.long	104
	.long	0
	.long	1
$stateUnwindMap$_ZN4core3cmp6min_by17h45417cbf0ed05fd5E:
	.long	-1
	.long	"?dtor$11@?0?_ZN4core3cmp6min_by17h45417cbf0ed05fd5E@4HA"@IMGREL
	.long	0
	.long	"?dtor$1@?0?_ZN4core3cmp6min_by17h45417cbf0ed05fd5E@4HA"@IMGREL
$ip2state$_ZN4core3cmp6min_by17h45417cbf0ed05fd5E:
	.long	.Lfunc_begin29@IMGREL
	.long	-1
	.long	.Ltmp108@IMGREL+1
	.long	1
	.long	.Ltmp109@IMGREL+1
	.long	-1
	.section	.text,"xr",one_only,_ZN4core3cmp6min_by17h45417cbf0ed05fd5E

	.def	_ZN4core3cmp9PartialEq2ne17hf1c1cc100144bd59E;
	.scl	2;
	.type	32;
	.endef
	.section	.text,"xr",one_only,_ZN4core3cmp9PartialEq2ne17hf1c1cc100144bd59E
	.globl	_ZN4core3cmp9PartialEq2ne17hf1c1cc100144bd59E
	.p2align	4, 0x90
_ZN4core3cmp9PartialEq2ne17hf1c1cc100144bd59E:
.seh_proc _ZN4core3cmp9PartialEq2ne17hf1c1cc100144bd59E
	subq	$40, %rsp
	.seh_stackalloc 40
	.seh_endprologue
	callq	_ZN63_$LT$proc_macro2..Delimiter$u20$as$u20$core..cmp..PartialEq$GT$2eq17h43b907c8a9a64d2aE
	xorb	$-1, %al
	andb	$1, %al
	movzbl	%al, %eax
	addq	$40, %rsp
	retq
	.seh_endproc

	.def	_ZN4core3f3221_$LT$impl$u20$f32$GT$9is_finite17h4fcfa9a0bf87995bE;
	.scl	3;
	.type	32;
	.endef
	.globl	__real@7f800000
	.section	.rdata,"dr",discard,__real@7f800000
	.p2align	2, 0x0
__real@7f800000:
	.long	0x7f800000
	.section	.text,"xr",one_only,_ZN4core3f3221_$LT$impl$u20$f32$GT$9is_finite17h4fcfa9a0bf87995bE
	.p2align	4, 0x90
_ZN4core3f3221_$LT$impl$u20$f32$GT$9is_finite17h4fcfa9a0bf87995bE:
	vmovd	%xmm0, %eax
	andl	$2147483647, %eax
	vmovd	%eax, %xmm1
	vmovss	__real@7f800000(%rip), %xmm0
	vucomiss	%xmm1, %xmm0
	seta	%al
	andb	$1, %al
	movzbl	%al, %eax
	retq

	.def	_ZN4core3f6421_$LT$impl$u20$f64$GT$9is_finite17h6c538e20fe5573c3E;
	.scl	3;
	.type	32;
	.endef
	.globl	__real@7ff0000000000000
	.section	.rdata,"dr",discard,__real@7ff0000000000000
	.p2align	3, 0x0
__real@7ff0000000000000:
	.quad	0x7ff0000000000000
	.section	.text,"xr",one_only,_ZN4core3f6421_$LT$impl$u20$f64$GT$9is_finite17h6c538e20fe5573c3E
	.p2align	4, 0x90
_ZN4core3f6421_$LT$impl$u20$f64$GT$9is_finite17h6c538e20fe5573c3E:
	vmovq	%xmm0, %rax
	movabsq	$9223372036854775807, %rcx
	andq	%rcx, %rax
	vmovq	%rax, %xmm1
	vmovsd	__real@7ff0000000000000(%rip), %xmm0
	vucomisd	%xmm1, %xmm0
	seta	%al
	andb	$1, %al
	movzbl	%al, %eax
	retq

	.def	_ZN4core3fmt3num52_$LT$impl$u20$core..fmt..Debug$u20$for$u20$usize$GT$3fmt17hc6eaffa64f408983E;
	.scl	3;
	.type	32;
	.endef
	.section	.text,"xr",one_only,_ZN4core3fmt3num52_$LT$impl$u20$core..fmt..Debug$u20$for$u20$usize$GT$3fmt17hc6eaffa64f408983E
	.p2align	4, 0x90
_ZN4core3fmt3num52_$LT$impl$u20$core..fmt..Debug$u20$for$u20$usize$GT$3fmt17hc6eaffa64f408983E:
.seh_proc _ZN4core3fmt3num52_$LT$impl$u20$core..fmt..Debug$u20$for$u20$usize$GT$3fmt17hc6eaffa64f408983E
	subq	$56, %rsp
	.seh_stackalloc 56
	.seh_endprologue
	movq	%rdx, 32(%rsp)
	movq	%rcx, 40(%rsp)
	movl	52(%rdx), %eax
	andl	$16, %eax
	cmpl	$0, %eax
	jne	.LBB99_2
	movq	32(%rsp), %rax
	movl	52(%rax), %eax
	andl	$32, %eax
	cmpl	$0, %eax
	je	.LBB99_3
	jmp	.LBB99_4
.LBB99_2:
	movq	32(%rsp), %rdx
	movq	40(%rsp), %rcx
	callq	_ZN4core3fmt3num55_$LT$impl$u20$core..fmt..LowerHex$u20$for$u20$usize$GT$3fmt17h4d796772892b498fE
	andb	$1, %al
	movb	%al, 55(%rsp)
	jmp	.LBB99_5
.LBB99_3:
	movq	32(%rsp), %rdx
	movq	40(%rsp), %rcx
	callq	_ZN4core3fmt3num3imp54_$LT$impl$u20$core..fmt..Display$u20$for$u20$usize$GT$3fmt17h334fec8f020c9fa2E
	andb	$1, %al
	movb	%al, 55(%rsp)
	jmp	.LBB99_5
.LBB99_4:
	movq	32(%rsp), %rdx
	movq	40(%rsp), %rcx
	callq	_ZN4core3fmt3num55_$LT$impl$u20$core..fmt..UpperHex$u20$for$u20$usize$GT$3fmt17h3a78c4308ed307f9E
	andb	$1, %al
	movb	%al, 55(%rsp)
.LBB99_5:
	movb	55(%rsp), %al
	andb	$1, %al
	movzbl	%al, %eax
	addq	$56, %rsp
	retq
	.seh_endproc

	.def	_ZN4core3fmt5Write9write_fmt17h5a4569cf40d20549E;
	.scl	2;
	.type	32;
	.endef
	.section	.text,"xr",one_only,_ZN4core3fmt5Write9write_fmt17h5a4569cf40d20549E
	.globl	_ZN4core3fmt5Write9write_fmt17h5a4569cf40d20549E
	.p2align	4, 0x90
_ZN4core3fmt5Write9write_fmt17h5a4569cf40d20549E:
.seh_proc _ZN4core3fmt5Write9write_fmt17h5a4569cf40d20549E
	subq	$40, %rsp
	.seh_stackalloc 40
	.seh_endprologue
	callq	_ZN75_$LT$$RF$mut$u20$W$u20$as$u20$core..fmt..Write..write_fmt..SpecWriteFmt$GT$14spec_write_fmt17hd51ecc39d113de8eE
	andb	$1, %al
	movzbl	%al, %eax
	addq	$40, %rsp
	retq
	.seh_endproc

	.def	_ZN4core3fmt8builders9DebugList7entries17h3d0b5669c6cec13aE;
	.scl	2;
	.type	32;
	.endef
	.section	.text,"xr",one_only,_ZN4core3fmt8builders9DebugList7entries17h3d0b5669c6cec13aE
	.globl	_ZN4core3fmt8builders9DebugList7entries17h3d0b5669c6cec13aE
	.p2align	4, 0x90
_ZN4core3fmt8builders9DebugList7entries17h3d0b5669c6cec13aE:
.Lfunc_begin30:
.seh_proc _ZN4core3fmt8builders9DebugList7entries17h3d0b5669c6cec13aE
	.seh_handler __CxxFrameHandler3, @unwind, @except
	pushq	%rbp
	.seh_pushreg %rbp
	subq	$208, %rsp
	.seh_stackalloc 208
	leaq	128(%rsp), %rbp
	.seh_setframe %rbp, 128
	.seh_endprologue
	movq	$-2, 72(%rbp)
	movq	%rcx, -88(%rbp)
	leaq	-80(%rbp), %rcx
	callq	_ZN63_$LT$I$u20$as$u20$core..iter..traits..collect..IntoIterator$GT$9into_iter17hc7e2d5f420267734E
	leaq	-40(%rbp), %rcx
	leaq	-80(%rbp), %rdx
	movl	$40, %r8d
	callq	memcpy
.LBB101_1:
.Ltmp110:
	movq	%rbp, %rcx
	leaq	-40(%rbp), %rdx
	callq	_ZN94_$LT$proc_macro2..token_stream..IntoIter$u20$as$u20$core..iter..traits..iterator..Iterator$GT$4next17he0a2d43ff269a459E
.Ltmp111:
	jmp	.LBB101_3
.LBB101_3:
	movabsq	$-9223372036854775803, %rax
	cmpq	%rax, (%rbp)
	sete	%al
	testb	$1, %al
	jne	.LBB101_4
	jmp	.LBB101_5
.LBB101_4:
	leaq	-40(%rbp), %rcx
	callq	_ZN4core3ptr56drop_in_place$LT$proc_macro2..token_stream..IntoIter$GT$17h3edd90e42a506b9eE
	movq	-88(%rbp), %rax
	addq	$208, %rsp
	popq	%rbp
	retq
.LBB101_5:
	movq	-88(%rbp), %rcx
	vmovups	(%rbp), %ymm0
	vmovups	%ymm0, 32(%rbp)
.Ltmp112:
	leaq	__unnamed_10(%rip), %r8
	leaq	32(%rbp), %rdx
	vzeroupper
	callq	_ZN4core3fmt8builders9DebugList5entry17h75fd9ceef8dbb3c3E
.Ltmp113:
	jmp	.LBB101_7
.LBB101_7:
.Ltmp114:
	leaq	32(%rbp), %rcx
	callq	_ZN4core3ptr43drop_in_place$LT$proc_macro2..TokenTree$GT$17h427ef5d73f62dffcE
.Ltmp115:
	jmp	.LBB101_8
.LBB101_8:
	jmp	.LBB101_1
	.seh_handlerdata
	.long	($cppxdata$_ZN4core3fmt8builders9DebugList7entries17h3d0b5669c6cec13aE)@IMGREL
	.section	.text,"xr",one_only,_ZN4core3fmt8builders9DebugList7entries17h3d0b5669c6cec13aE
	.seh_endproc
	.def	"?dtor$2@?0?_ZN4core3fmt8builders9DebugList7entries17h3d0b5669c6cec13aE@4HA";
	.scl	3;
	.type	32;
	.endef
	.p2align	4, 0x90
"?dtor$2@?0?_ZN4core3fmt8builders9DebugList7entries17h3d0b5669c6cec13aE@4HA":
.seh_proc "?dtor$2@?0?_ZN4core3fmt8builders9DebugList7entries17h3d0b5669c6cec13aE@4HA"
.LBB101_2:
	movq	%rdx, 16(%rsp)
	pushq	%rbp
	.seh_pushreg %rbp
	subq	$32, %rsp
	.seh_stackalloc 32
	leaq	128(%rdx), %rbp
	.seh_endprologue
	leaq	-40(%rbp), %rcx
	callq	_ZN4core3ptr56drop_in_place$LT$proc_macro2..token_stream..IntoIter$GT$17h3edd90e42a506b9eE
	nop
	addq	$32, %rsp
	popq	%rbp
	retq
	.seh_handlerdata
	.section	.text,"xr",one_only,_ZN4core3fmt8builders9DebugList7entries17h3d0b5669c6cec13aE
	.seh_endproc
	.def	"?dtor$6@?0?_ZN4core3fmt8builders9DebugList7entries17h3d0b5669c6cec13aE@4HA";
	.scl	3;
	.type	32;
	.endef
	.p2align	4, 0x90
"?dtor$6@?0?_ZN4core3fmt8builders9DebugList7entries17h3d0b5669c6cec13aE@4HA":
.seh_proc "?dtor$6@?0?_ZN4core3fmt8builders9DebugList7entries17h3d0b5669c6cec13aE@4HA"
.LBB101_6:
	movq	%rdx, 16(%rsp)
	pushq	%rbp
	.seh_pushreg %rbp
	subq	$32, %rsp
	.seh_stackalloc 32
	leaq	128(%rdx), %rbp
	.seh_endprologue
	leaq	32(%rbp), %rcx
	callq	_ZN4core3ptr43drop_in_place$LT$proc_macro2..TokenTree$GT$17h427ef5d73f62dffcE
	nop
	addq	$32, %rsp
	popq	%rbp
	retq
.Lfunc_end30:
	.seh_handlerdata
	.section	.text,"xr",one_only,_ZN4core3fmt8builders9DebugList7entries17h3d0b5669c6cec13aE
	.seh_endproc
	.section	.xdata,"dr",associative,_ZN4core3fmt8builders9DebugList7entries17h3d0b5669c6cec13aE
	.p2align	2, 0x0
$cppxdata$_ZN4core3fmt8builders9DebugList7entries17h3d0b5669c6cec13aE:
	.long	429065506
	.long	2
	.long	($stateUnwindMap$_ZN4core3fmt8builders9DebugList7entries17h3d0b5669c6cec13aE)@IMGREL
	.long	0
	.long	0
	.long	6
	.long	($ip2state$_ZN4core3fmt8builders9DebugList7entries17h3d0b5669c6cec13aE)@IMGREL
	.long	200
	.long	0
	.long	1
$stateUnwindMap$_ZN4core3fmt8builders9DebugList7entries17h3d0b5669c6cec13aE:
	.long	-1
	.long	"?dtor$2@?0?_ZN4core3fmt8builders9DebugList7entries17h3d0b5669c6cec13aE@4HA"@IMGREL
	.long	0
	.long	"?dtor$6@?0?_ZN4core3fmt8builders9DebugList7entries17h3d0b5669c6cec13aE@4HA"@IMGREL
$ip2state$_ZN4core3fmt8builders9DebugList7entries17h3d0b5669c6cec13aE:
	.long	.Lfunc_begin30@IMGREL
	.long	-1
	.long	.Ltmp110@IMGREL+1
	.long	0
	.long	.Ltmp111@IMGREL+1
	.long	-1
	.long	.Ltmp112@IMGREL+1
	.long	1
	.long	.Ltmp114@IMGREL+1
	.long	0
	.long	.Ltmp115@IMGREL+1
	.long	-1
	.section	.text,"xr",one_only,_ZN4core3fmt8builders9DebugList7entries17h3d0b5669c6cec13aE

	.def	_ZN4core3fmt8builders9DebugList7entries17ha72453f319d36afdE;
	.scl	2;
	.type	32;
	.endef
	.section	.text,"xr",one_only,_ZN4core3fmt8builders9DebugList7entries17ha72453f319d36afdE
	.globl	_ZN4core3fmt8builders9DebugList7entries17ha72453f319d36afdE
	.p2align	4, 0x90
_ZN4core3fmt8builders9DebugList7entries17ha72453f319d36afdE:
.Lfunc_begin31:
.seh_proc _ZN4core3fmt8builders9DebugList7entries17ha72453f319d36afdE
	.seh_handler __CxxFrameHandler3, @unwind, @except
	pushq	%rbp
	.seh_pushreg %rbp
	subq	$192, %rsp
	.seh_stackalloc 192
	leaq	128(%rsp), %rbp
	.seh_setframe %rbp, 128
	.seh_endprologue
	movq	$-2, 56(%rbp)
	movq	%rcx, -88(%rbp)
	leaq	-80(%rbp), %rcx
	callq	_ZN96_$LT$proc_macro2..fallback..TokenStream$u20$as$u20$core..iter..traits..collect..IntoIterator$GT$9into_iter17h605b6bb9a1eb2b25E
	movq	-80(%rbp), %rax
	movq	%rax, -48(%rbp)
	movq	-72(%rbp), %rax
	movq	%rax, -40(%rbp)
	movq	-64(%rbp), %rax
	movq	%rax, -32(%rbp)
	movq	-56(%rbp), %rax
	movq	%rax, -24(%rbp)
.LBB102_1:
.Ltmp116:
	leaq	-16(%rbp), %rcx
	leaq	-48(%rbp), %rdx
	callq	_ZN101_$LT$proc_macro2..rcvec..RcVecIntoIter$LT$T$GT$$u20$as$u20$core..iter..traits..iterator..Iterator$GT$4next17h41531fa4f8564da2E
.Ltmp117:
	jmp	.LBB102_3
.LBB102_3:
	movabsq	$-9223372036854775803, %rax
	cmpq	%rax, -16(%rbp)
	sete	%al
	testb	$1, %al
	jne	.LBB102_4
	jmp	.LBB102_5
.LBB102_4:
	leaq	-48(%rbp), %rcx
	callq	_ZN4core3ptr84drop_in_place$LT$proc_macro2..rcvec..RcVecIntoIter$LT$proc_macro2..TokenTree$GT$$GT$17h04c9fe2375bdc03aE
	movq	-88(%rbp), %rax
	addq	$192, %rsp
	popq	%rbp
	retq
.LBB102_5:
	movq	-88(%rbp), %rcx
	vmovups	-16(%rbp), %ymm0
	vmovups	%ymm0, 16(%rbp)
.Ltmp118:
	leaq	__unnamed_10(%rip), %r8
	leaq	16(%rbp), %rdx
	vzeroupper
	callq	_ZN4core3fmt8builders9DebugList5entry17h75fd9ceef8dbb3c3E
.Ltmp119:
	jmp	.LBB102_7
.LBB102_7:
.Ltmp120:
	leaq	16(%rbp), %rcx
	callq	_ZN4core3ptr43drop_in_place$LT$proc_macro2..TokenTree$GT$17h427ef5d73f62dffcE
.Ltmp121:
	jmp	.LBB102_8
.LBB102_8:
	jmp	.LBB102_1
	.seh_handlerdata
	.long	($cppxdata$_ZN4core3fmt8builders9DebugList7entries17ha72453f319d36afdE)@IMGREL
	.section	.text,"xr",one_only,_ZN4core3fmt8builders9DebugList7entries17ha72453f319d36afdE
	.seh_endproc
	.def	"?dtor$2@?0?_ZN4core3fmt8builders9DebugList7entries17ha72453f319d36afdE@4HA";
	.scl	3;
	.type	32;
	.endef
	.p2align	4, 0x90
"?dtor$2@?0?_ZN4core3fmt8builders9DebugList7entries17ha72453f319d36afdE@4HA":
.seh_proc "?dtor$2@?0?_ZN4core3fmt8builders9DebugList7entries17ha72453f319d36afdE@4HA"
.LBB102_2:
	movq	%rdx, 16(%rsp)
	pushq	%rbp
	.seh_pushreg %rbp
	subq	$32, %rsp
	.seh_stackalloc 32
	leaq	128(%rdx), %rbp
	.seh_endprologue
	leaq	-48(%rbp), %rcx
	callq	_ZN4core3ptr84drop_in_place$LT$proc_macro2..rcvec..RcVecIntoIter$LT$proc_macro2..TokenTree$GT$$GT$17h04c9fe2375bdc03aE
	nop
	addq	$32, %rsp
	popq	%rbp
	retq
	.seh_handlerdata
	.section	.text,"xr",one_only,_ZN4core3fmt8builders9DebugList7entries17ha72453f319d36afdE
	.seh_endproc
	.def	"?dtor$6@?0?_ZN4core3fmt8builders9DebugList7entries17ha72453f319d36afdE@4HA";
	.scl	3;
	.type	32;
	.endef
	.p2align	4, 0x90
"?dtor$6@?0?_ZN4core3fmt8builders9DebugList7entries17ha72453f319d36afdE@4HA":
.seh_proc "?dtor$6@?0?_ZN4core3fmt8builders9DebugList7entries17ha72453f319d36afdE@4HA"
.LBB102_6:
	movq	%rdx, 16(%rsp)
	pushq	%rbp
	.seh_pushreg %rbp
	subq	$32, %rsp
	.seh_stackalloc 32
	leaq	128(%rdx), %rbp
	.seh_endprologue
	leaq	16(%rbp), %rcx
	callq	_ZN4core3ptr43drop_in_place$LT$proc_macro2..TokenTree$GT$17h427ef5d73f62dffcE
	nop
	addq	$32, %rsp
	popq	%rbp
	retq
.Lfunc_end31:
	.seh_handlerdata
	.section	.text,"xr",one_only,_ZN4core3fmt8builders9DebugList7entries17ha72453f319d36afdE
	.seh_endproc
	.section	.xdata,"dr",associative,_ZN4core3fmt8builders9DebugList7entries17ha72453f319d36afdE
	.p2align	2, 0x0
$cppxdata$_ZN4core3fmt8builders9DebugList7entries17ha72453f319d36afdE:
	.long	429065506
	.long	2
	.long	($stateUnwindMap$_ZN4core3fmt8builders9DebugList7entries17ha72453f319d36afdE)@IMGREL
	.long	0
	.long	0
	.long	6
	.long	($ip2state$_ZN4core3fmt8builders9DebugList7entries17ha72453f319d36afdE)@IMGREL
	.long	184
	.long	0
	.long	1
$stateUnwindMap$_ZN4core3fmt8builders9DebugList7entries17ha72453f319d36afdE:
	.long	-1
	.long	"?dtor$2@?0?_ZN4core3fmt8builders9DebugList7entries17ha72453f319d36afdE@4HA"@IMGREL
	.long	0
	.long	"?dtor$6@?0?_ZN4core3fmt8builders9DebugList7entries17ha72453f319d36afdE@4HA"@IMGREL
$ip2state$_ZN4core3fmt8builders9DebugList7entries17ha72453f319d36afdE:
	.long	.Lfunc_begin31@IMGREL
	.long	-1
	.long	.Ltmp116@IMGREL+1
	.long	0
	.long	.Ltmp117@IMGREL+1
	.long	-1
	.long	.Ltmp118@IMGREL+1
	.long	1
	.long	.Ltmp120@IMGREL+1
	.long	0
	.long	.Ltmp121@IMGREL+1
	.long	-1
	.section	.text,"xr",one_only,_ZN4core3fmt8builders9DebugList7entries17ha72453f319d36afdE

	.def	_ZN4core3fmt9Arguments16new_v1_formatted17h006ae63093fd6c2bE;
	.scl	3;
	.type	32;
	.endef
	.section	.text,"xr",one_only,_ZN4core3fmt9Arguments16new_v1_formatted17h006ae63093fd6c2bE
	.p2align	4, 0x90
_ZN4core3fmt9Arguments16new_v1_formatted17h006ae63093fd6c2bE:
.seh_proc _ZN4core3fmt9Arguments16new_v1_formatted17h006ae63093fd6c2bE
	pushq	%rsi
	.seh_pushreg %rsi
	subq	$16, %rsp
	.seh_stackalloc 16
	.seh_endprologue
	movq	%rdx, %r10
	movq	%rcx, %rax
	movq	80(%rsp), %r11
	movq	72(%rsp), %rsi
	movq	64(%rsp), %rdx
	movq	%rsi, (%rsp)
	movq	%r11, 8(%rsp)
	movq	%r10, (%rcx)
	movq	%r8, 8(%rcx)
	movq	(%rsp), %r10
	movq	8(%rsp), %r8
	movq	%r10, 32(%rcx)
	movq	%r8, 40(%rcx)
	movq	%r9, 16(%rcx)
	movq	%rdx, 24(%rcx)
	addq	$16, %rsp
	popq	%rsi
	retq
	.seh_endproc

	.def	_ZN4core3fmt9Arguments6new_v117h2c5ac9bd7a8e1f5aE;
	.scl	3;
	.type	32;
	.endef
	.section	.text,"xr",one_only,_ZN4core3fmt9Arguments6new_v117h2c5ac9bd7a8e1f5aE
	.p2align	4, 0x90
_ZN4core3fmt9Arguments6new_v117h2c5ac9bd7a8e1f5aE:
.seh_proc _ZN4core3fmt9Arguments6new_v117h2c5ac9bd7a8e1f5aE
	subq	$168, %rsp
	.seh_stackalloc 168
	.seh_endprologue
	movq	%r9, 40(%rsp)
	movq	%r8, 48(%rsp)
	movq	%rdx, 56(%rsp)
	movq	%rcx, 64(%rsp)
	movq	%rcx, 72(%rsp)
	movq	208(%rsp), %rax
	movq	%rax, 80(%rsp)
	cmpq	%rax, %r8
	jb	.LBB104_2
	movq	48(%rsp), %rax
	movq	80(%rsp), %rcx
	addq	$1, %rcx
	cmpq	%rcx, %rax
	ja	.LBB104_4
	jmp	.LBB104_3
.LBB104_2:
	jmp	.LBB104_4
.LBB104_3:
	movq	72(%rsp), %rax
	movq	64(%rsp), %rcx
	movq	80(%rsp), %rdx
	movq	40(%rsp), %r8
	movq	48(%rsp), %r9
	movq	56(%rsp), %r10
	movq	$0, 136(%rsp)
	movq	%r10, (%rcx)
	movq	%r9, 8(%rcx)
	movq	136(%rsp), %r10
	movq	144(%rsp), %r9
	movq	%r10, 32(%rcx)
	movq	%r9, 40(%rcx)
	movq	%r8, 16(%rcx)
	movq	%rdx, 24(%rcx)
	addq	$168, %rsp
	retq
.LBB104_4:
	movq	$0, 152(%rsp)
	leaq	__unnamed_11(%rip), %rax
	movq	%rax, 88(%rsp)
	movq	$1, 96(%rsp)
	movq	152(%rsp), %rcx
	movq	160(%rsp), %rax
	movq	%rcx, 120(%rsp)
	movq	%rax, 128(%rsp)
	leaq	__unnamed_12(%rip), %rax
	movq	%rax, 104(%rsp)
	movq	$0, 112(%rsp)
	leaq	__unnamed_13(%rip), %rdx
	leaq	88(%rsp), %rcx
	callq	_ZN4core9panicking9panic_fmt17hdbb75bebc22f3408E
	int3
	.seh_endproc

	.def	_ZN4core3fmt9Arguments9new_const17h9f314b06cac70433E;
	.scl	3;
	.type	32;
	.endef
	.section	.text,"xr",one_only,_ZN4core3fmt9Arguments9new_const17h9f314b06cac70433E
	.p2align	4, 0x90
_ZN4core3fmt9Arguments9new_const17h9f314b06cac70433E:
.seh_proc _ZN4core3fmt9Arguments9new_const17h9f314b06cac70433E
	subq	$136, %rsp
	.seh_stackalloc 136
	.seh_endprologue
	movq	%r8, 40(%rsp)
	movq	%rdx, 48(%rsp)
	movq	%rcx, 56(%rsp)
	movq	%rcx, 64(%rsp)
	cmpq	$1, %r8
	ja	.LBB105_2
	movq	64(%rsp), %rax
	movq	56(%rsp), %rcx
	movq	40(%rsp), %rdx
	movq	48(%rsp), %r8
	movq	$0, 120(%rsp)
	movq	%r8, (%rcx)
	movq	%rdx, 8(%rcx)
	movq	120(%rsp), %r8
	movq	128(%rsp), %rdx
	movq	%r8, 32(%rcx)
	movq	%rdx, 40(%rcx)
	leaq	__unnamed_12(%rip), %rdx
	movq	%rdx, 16(%rcx)
	movq	$0, 24(%rcx)
	addq	$136, %rsp
	retq
.LBB105_2:
	leaq	__unnamed_11(%rip), %rdx
	leaq	72(%rsp), %rcx
	movq	%rcx, 32(%rsp)
	movl	$1, %r8d
	callq	_ZN4core3fmt9Arguments9new_const17h9f314b06cac70433E
	movq	32(%rsp), %rcx
	leaq	__unnamed_14(%rip), %rdx
	callq	_ZN4core9panicking9panic_fmt17hdbb75bebc22f3408E
	int3
	.seh_endproc

	.def	_ZN4core3mem4take17hb3afbbbdb94d7e75E;
	.scl	2;
	.type	32;
	.endef
	.section	.text,"xr",one_only,_ZN4core3mem4take17hb3afbbbdb94d7e75E
	.globl	_ZN4core3mem4take17hb3afbbbdb94d7e75E
	.p2align	4, 0x90
_ZN4core3mem4take17hb3afbbbdb94d7e75E:
.seh_proc _ZN4core3mem4take17hb3afbbbdb94d7e75E
	subq	$88, %rsp
	.seh_stackalloc 88
	.seh_endprologue
	movq	%rdx, 48(%rsp)
	movq	%rcx, 40(%rsp)
	movq	%rcx, 56(%rsp)
	leaq	64(%rsp), %rcx
	callq	_ZN67_$LT$alloc..vec..Vec$LT$T$GT$$u20$as$u20$core..default..Default$GT$7default17hdea5583672a3936cE
	movq	40(%rsp), %rcx
	movq	48(%rsp), %rdx
	movq	56(%rsp), %rax
	movq	(%rdx), %r8
	movq	%r8, (%rcx)
	movq	8(%rdx), %r8
	movq	%r8, 8(%rcx)
	movq	16(%rdx), %r8
	movq	%r8, 16(%rcx)
	movq	64(%rsp), %rcx
	movq	%rcx, (%rdx)
	movq	72(%rsp), %rcx
	movq	%rcx, 8(%rdx)
	movq	80(%rsp), %rcx
	movq	%rcx, 16(%rdx)
	addq	$88, %rsp
	retq
	.seh_endproc

	.def	_ZN4core3num20_$LT$impl$u20$u8$GT$8is_ascii17h09765cc231fb5a28E;
	.scl	3;
	.type	32;
	.endef
	.section	.text,"xr",one_only,_ZN4core3num20_$LT$impl$u20$u8$GT$8is_ascii17h09765cc231fb5a28E
	.p2align	4, 0x90
_ZN4core3num20_$LT$impl$u20$u8$GT$8is_ascii17h09765cc231fb5a28E:
	cmpb	$127, (%rcx)
	setbe	%al
	andb	$1, %al
	movzbl	%al, %eax
	retq

	.def	_ZN4core3ops8function6FnOnce40call_once$u7b$$u7b$vtable.shim$u7d$$u7d$17h8621160162734297E;
	.scl	3;
	.type	32;
	.endef
	.section	.text,"xr",one_only,_ZN4core3ops8function6FnOnce40call_once$u7b$$u7b$vtable.shim$u7d$$u7d$17h8621160162734297E
	.p2align	4, 0x90
_ZN4core3ops8function6FnOnce40call_once$u7b$$u7b$vtable.shim$u7d$$u7d$17h8621160162734297E:
.seh_proc _ZN4core3ops8function6FnOnce40call_once$u7b$$u7b$vtable.shim$u7d$$u7d$17h8621160162734297E
	subq	$40, %rsp
	.seh_stackalloc 40
	.seh_endprologue
	movq	%rdx, 32(%rsp)
	movq	(%rcx), %rcx
	movq	32(%rsp), %rdx
	callq	_ZN4core3ops8function6FnOnce9call_once17he619aee0f0f0d34eE
	nop
	addq	$40, %rsp
	retq
	.seh_endproc

	.def	_ZN4core3ops8function6FnOnce9call_once17h07f80fa53a59195aE;
	.scl	3;
	.type	32;
	.endef
	.section	.text,"xr",one_only,_ZN4core3ops8function6FnOnce9call_once17h07f80fa53a59195aE
	.p2align	4, 0x90
_ZN4core3ops8function6FnOnce9call_once17h07f80fa53a59195aE:
.seh_proc _ZN4core3ops8function6FnOnce9call_once17h07f80fa53a59195aE
	subq	$40, %rsp
	.seh_stackalloc 40
	.seh_endprologue
	callq	_ZN11proc_macro23imp8LexError8Compiler17h0820ddce75c26ad9E
	andb	$1, %al
	movzbl	%al, %eax
	addq	$40, %rsp
	retq
	.seh_endproc

	.def	_ZN4core3ops8function6FnOnce9call_once17h10f7e01144e4d607E;
	.scl	3;
	.type	32;
	.endef
	.section	.text,"xr",one_only,_ZN4core3ops8function6FnOnce9call_once17h10f7e01144e4d607E
	.p2align	4, 0x90
_ZN4core3ops8function6FnOnce9call_once17h10f7e01144e4d607E:
.seh_proc _ZN4core3ops8function6FnOnce9call_once17h10f7e01144e4d607E
	subq	$56, %rsp
	.seh_stackalloc 56
	.seh_endprologue
	movq	%rcx, 40(%rsp)
	movq	%rdx, 48(%rsp)
	movq	40(%rsp), %rcx
	movq	48(%rsp), %rdx
	callq	_ZN4core3cmp5impls50_$LT$impl$u20$core..cmp..Ord$u20$for$u20$usize$GT$3cmp17hf2a2f1ceb25456eeE
	nop
	addq	$56, %rsp
	retq
	.seh_endproc

	.def	_ZN4core3ops8function6FnOnce9call_once17h542a90ede8453d00E;
	.scl	3;
	.type	32;
	.endef
	.section	.text,"xr",one_only,_ZN4core3ops8function6FnOnce9call_once17h542a90ede8453d00E
	.p2align	4, 0x90
_ZN4core3ops8function6FnOnce9call_once17h542a90ede8453d00E:
.seh_proc _ZN4core3ops8function6FnOnce9call_once17h542a90ede8453d00E
	subq	$56, %rsp
	.seh_stackalloc 56
	.seh_endprologue
	movq	%rcx, %rax
	movq	%rax, 32(%rsp)
	movq	%rdx, 40(%rsp)
	movq	%r8, 48(%rsp)
	movq	40(%rsp), %rdx
	movq	48(%rsp), %r8
	callq	_ZN5alloc3str56_$LT$impl$u20$alloc..borrow..ToOwned$u20$for$u20$str$GT$8to_owned17h3f55ad2e7036cc24E
	movq	32(%rsp), %rax
	addq	$56, %rsp
	retq
	.seh_endproc

	.def	_ZN4core3ops8function6FnOnce9call_once17h7a8dc8dfb008ebf4E;
	.scl	3;
	.type	32;
	.endef
	.section	.text,"xr",one_only,_ZN4core3ops8function6FnOnce9call_once17h7a8dc8dfb008ebf4E
	.p2align	4, 0x90
_ZN4core3ops8function6FnOnce9call_once17h7a8dc8dfb008ebf4E:
.seh_proc _ZN4core3ops8function6FnOnce9call_once17h7a8dc8dfb008ebf4E
	subq	$72, %rsp
	.seh_stackalloc 72
	.seh_endprologue
	movq	%rcx, %rax
	movq	%rax, 40(%rsp)
	movq	(%rdx), %rax
	movq	%rax, 48(%rsp)
	movq	8(%rdx), %rax
	movq	%rax, 56(%rsp)
	movq	16(%rdx), %rax
	movq	%rax, 64(%rsp)
	leaq	48(%rsp), %rdx
	callq	_ZN11proc_macro27Literal4_new17hcdcaf70c1cee8de7E
	movq	40(%rsp), %rax
	addq	$72, %rsp
	retq
	.seh_endproc

	.def	_ZN4core3ops8function6FnOnce9call_once17h7b7b1eb223ea94ddE;
	.scl	3;
	.type	32;
	.endef
	.section	.text,"xr",one_only,_ZN4core3ops8function6FnOnce9call_once17h7b7b1eb223ea94ddE
	.p2align	4, 0x90
_ZN4core3ops8function6FnOnce9call_once17h7b7b1eb223ea94ddE:
.seh_proc _ZN4core3ops8function6FnOnce9call_once17h7b7b1eb223ea94ddE
	subq	$40, %rsp
	.seh_stackalloc 40
	.seh_endprologue
	movl	%ecx, 36(%rsp)
	movl	36(%rsp), %ecx
	callq	_ZN11proc_macro24Span4_new17ha9999e95f0c180aaE
	nop
	addq	$40, %rsp
	retq
	.seh_endproc

	.def	_ZN4core3ops8function6FnOnce9call_once17h9d1d02e291ad9505E;
	.scl	3;
	.type	32;
	.endef
	.section	.text,"xr",one_only,_ZN4core3ops8function6FnOnce9call_once17h9d1d02e291ad9505E
	.p2align	4, 0x90
_ZN4core3ops8function6FnOnce9call_once17h9d1d02e291ad9505E:
.seh_proc _ZN4core3ops8function6FnOnce9call_once17h9d1d02e291ad9505E
	subq	$40, %rsp
	.seh_stackalloc 40
	.seh_endprologue
	callq	_ZN11proc_macro29detection10initialize17h1cca151d9ef219d5E
	nop
	addq	$40, %rsp
	retq
	.seh_endproc

	.def	_ZN4core3ops8function6FnOnce9call_once17he619aee0f0f0d34eE;
	.scl	3;
	.type	32;
	.endef
	.section	.text,"xr",one_only,_ZN4core3ops8function6FnOnce9call_once17he619aee0f0f0d34eE
	.p2align	4, 0x90
_ZN4core3ops8function6FnOnce9call_once17he619aee0f0f0d34eE:
.Lfunc_begin32:
.seh_proc _ZN4core3ops8function6FnOnce9call_once17he619aee0f0f0d34eE
	.seh_handler __CxxFrameHandler3, @unwind, @except
	pushq	%rbp
	.seh_pushreg %rbp
	subq	$64, %rsp
	.seh_stackalloc 64
	leaq	64(%rsp), %rbp
	.seh_setframe %rbp, 64
	.seh_endprologue
	movq	$-2, -8(%rbp)
	movq	%rcx, -24(%rbp)
	movq	%rdx, -16(%rbp)
	movq	-16(%rbp), %rdx
.Ltmp122:
	leaq	-24(%rbp), %rcx
	callq	_ZN3std4sync4once4Once9call_once28_$u7b$$u7b$closure$u7d$$u7d$17h908b745646f281e9E
.Ltmp123:
	jmp	.LBB115_2
.LBB115_2:
	addq	$64, %rsp
	popq	%rbp
	retq
	.seh_handlerdata
	.long	($cppxdata$_ZN4core3ops8function6FnOnce9call_once17he619aee0f0f0d34eE)@IMGREL
	.section	.text,"xr",one_only,_ZN4core3ops8function6FnOnce9call_once17he619aee0f0f0d34eE
	.seh_endproc
	.def	"?dtor$1@?0?_ZN4core3ops8function6FnOnce9call_once17he619aee0f0f0d34eE@4HA";
	.scl	3;
	.type	32;
	.endef
	.p2align	4, 0x90
"?dtor$1@?0?_ZN4core3ops8function6FnOnce9call_once17he619aee0f0f0d34eE@4HA":
.seh_proc "?dtor$1@?0?_ZN4core3ops8function6FnOnce9call_once17he619aee0f0f0d34eE@4HA"
.LBB115_1:
	movq	%rdx, 16(%rsp)
	pushq	%rbp
	.seh_pushreg %rbp
	subq	$32, %rsp
	.seh_stackalloc 32
	leaq	64(%rdx), %rbp
	.seh_endprologue
	addq	$32, %rsp
	popq	%rbp
	retq
.Lfunc_end32:
	.seh_handlerdata
	.section	.text,"xr",one_only,_ZN4core3ops8function6FnOnce9call_once17he619aee0f0f0d34eE
	.seh_endproc
	.section	.xdata,"dr",associative,_ZN4core3ops8function6FnOnce9call_once17he619aee0f0f0d34eE
	.p2align	2, 0x0
$cppxdata$_ZN4core3ops8function6FnOnce9call_once17he619aee0f0f0d34eE:
	.long	429065506
	.long	1
	.long	($stateUnwindMap$_ZN4core3ops8function6FnOnce9call_once17he619aee0f0f0d34eE)@IMGREL
	.long	0
	.long	0
	.long	3
	.long	($ip2state$_ZN4core3ops8function6FnOnce9call_once17he619aee0f0f0d34eE)@IMGREL
	.long	56
	.long	0
	.long	1
$stateUnwindMap$_ZN4core3ops8function6FnOnce9call_once17he619aee0f0f0d34eE:
	.long	-1
	.long	"?dtor$1@?0?_ZN4core3ops8function6FnOnce9call_once17he619aee0f0f0d34eE@4HA"@IMGREL
$ip2state$_ZN4core3ops8function6FnOnce9call_once17he619aee0f0f0d34eE:
	.long	.Lfunc_begin32@IMGREL
	.long	-1
	.long	.Ltmp122@IMGREL+1
	.long	0
	.long	.Ltmp123@IMGREL+1
	.long	-1
	.section	.text,"xr",one_only,_ZN4core3ops8function6FnOnce9call_once17he619aee0f0f0d34eE

	.def	_ZN4core3ops8function6FnOnce9call_once17he770065fb565ff84E;
	.scl	3;
	.type	32;
	.endef
	.section	.text,"xr",one_only,_ZN4core3ops8function6FnOnce9call_once17he770065fb565ff84E
	.p2align	4, 0x90
_ZN4core3ops8function6FnOnce9call_once17he770065fb565ff84E:
.seh_proc _ZN4core3ops8function6FnOnce9call_once17he770065fb565ff84E
	subq	$40, %rsp
	.seh_stackalloc 40
	.seh_endprologue
	movb	%cl, 39(%rsp)
	movb	39(%rsp), %cl
	callq	_ZN4core4char7convert64_$LT$impl$u20$core..convert..From$LT$u8$GT$$u20$for$u20$char$GT$4from17h97417d6c5db557f8E
	nop
	addq	$40, %rsp
	retq
	.seh_endproc

	.def	_ZN4core3ptr105drop_in_place$LT$$u5b$$LP$proc_macro2..Delimiter$C$proc_macro2..fallback..TokenStreamBuilder$RP$$u5d$$GT$17h0bda228c5ad9ed34E;
	.scl	2;
	.type	32;
	.endef
	.section	.text,"xr",one_only,_ZN4core3ptr105drop_in_place$LT$$u5b$$LP$proc_macro2..Delimiter$C$proc_macro2..fallback..TokenStreamBuilder$RP$$u5d$$GT$17h0bda228c5ad9ed34E
	.globl	_ZN4core3ptr105drop_in_place$LT$$u5b$$LP$proc_macro2..Delimiter$C$proc_macro2..fallback..TokenStreamBuilder$RP$$u5d$$GT$17h0bda228c5ad9ed34E
	.p2align	4, 0x90
_ZN4core3ptr105drop_in_place$LT$$u5b$$LP$proc_macro2..Delimiter$C$proc_macro2..fallback..TokenStreamBuilder$RP$$u5d$$GT$17h0bda228c5ad9ed34E:
.Lfunc_begin33:
.seh_proc _ZN4core3ptr105drop_in_place$LT$$u5b$$LP$proc_macro2..Delimiter$C$proc_macro2..fallback..TokenStreamBuilder$RP$$u5d$$GT$17h0bda228c5ad9ed34E
	.seh_handler __CxxFrameHandler3, @unwind, @except
	pushq	%rbp
	.seh_pushreg %rbp
	subq	$64, %rsp
	.seh_stackalloc 64
	leaq	64(%rsp), %rbp
	.seh_setframe %rbp, 64
	.seh_endprologue
	movq	$-2, -8(%rbp)
	movq	%rdx, -32(%rbp)
	movq	%rcx, -24(%rbp)
	movq	$0, -16(%rbp)
.LBB117_1:
	movq	-32(%rbp), %rax
	cmpq	%rax, -16(%rbp)
	je	.LBB117_3
	movq	-24(%rbp), %rcx
	movq	-16(%rbp), %rax
	movq	%rax, %rdx
	shlq	$5, %rdx
	addq	%rdx, %rcx
	incq	%rax
	movq	%rax, -16(%rbp)
.Ltmp124:
	callq	_ZN4core3ptr95drop_in_place$LT$$LP$proc_macro2..Delimiter$C$proc_macro2..fallback..TokenStreamBuilder$RP$$GT$17h909ce5f4860962ddE
.Ltmp125:
	jmp	.LBB117_1
.LBB117_3:
	addq	$64, %rsp
	popq	%rbp
	retq
.LBB117_4:
	movq	-32(%rbp), %rax
	cmpq	%rax, -16(%rbp)
	je	.LBB117_7
	jmp	.LBB117_6
	.seh_handlerdata
	.long	($cppxdata$_ZN4core3ptr105drop_in_place$LT$$u5b$$LP$proc_macro2..Delimiter$C$proc_macro2..fallback..TokenStreamBuilder$RP$$u5d$$GT$17h0bda228c5ad9ed34E)@IMGREL
	.section	.text,"xr",one_only,_ZN4core3ptr105drop_in_place$LT$$u5b$$LP$proc_macro2..Delimiter$C$proc_macro2..fallback..TokenStreamBuilder$RP$$u5d$$GT$17h0bda228c5ad9ed34E
	.seh_endproc
	.def	"?dtor$5@?0?_ZN4core3ptr105drop_in_place$LT$$u5b$$LP$proc_macro2..Delimiter$C$proc_macro2..fallback..TokenStreamBuilder$RP$$u5d$$GT$17h0bda228c5ad9ed34E@4HA";
	.scl	3;
	.type	32;
	.endef
	.p2align	4, 0x90
"?dtor$5@?0?_ZN4core3ptr105drop_in_place$LT$$u5b$$LP$proc_macro2..Delimiter$C$proc_macro2..fallback..TokenStreamBuilder$RP$$u5d$$GT$17h0bda228c5ad9ed34E@4HA":
.seh_proc "?dtor$5@?0?_ZN4core3ptr105drop_in_place$LT$$u5b$$LP$proc_macro2..Delimiter$C$proc_macro2..fallback..TokenStreamBuilder$RP$$u5d$$GT$17h0bda228c5ad9ed34E@4HA"
.LBB117_5:
	movq	%rdx, 16(%rsp)
	pushq	%rbp
	.seh_pushreg %rbp
	subq	$32, %rsp
	.seh_stackalloc 32
	leaq	64(%rdx), %rbp
	.seh_endprologue
	jmp	.LBB117_4
.LBB117_6:
	movq	-24(%rbp), %rcx
	movq	-16(%rbp), %rax
	shlq	$5, %rax
	addq	%rax, %rcx
	movq	-16(%rbp), %rax
	addq	$1, %rax
	movq	%rax, -16(%rbp)
	callq	_ZN4core3ptr95drop_in_place$LT$$LP$proc_macro2..Delimiter$C$proc_macro2..fallback..TokenStreamBuilder$RP$$GT$17h909ce5f4860962ddE
	jmp	.LBB117_4
.LBB117_7:
	addq	$32, %rsp
	popq	%rbp
	retq
.Lfunc_end33:
	.seh_handlerdata
	.section	.text,"xr",one_only,_ZN4core3ptr105drop_in_place$LT$$u5b$$LP$proc_macro2..Delimiter$C$proc_macro2..fallback..TokenStreamBuilder$RP$$u5d$$GT$17h0bda228c5ad9ed34E
	.seh_endproc
	.section	.xdata,"dr",associative,_ZN4core3ptr105drop_in_place$LT$$u5b$$LP$proc_macro2..Delimiter$C$proc_macro2..fallback..TokenStreamBuilder$RP$$u5d$$GT$17h0bda228c5ad9ed34E
	.p2align	2, 0x0
$cppxdata$_ZN4core3ptr105drop_in_place$LT$$u5b$$LP$proc_macro2..Delimiter$C$proc_macro2..fallback..TokenStreamBuilder$RP$$u5d$$GT$17h0bda228c5ad9ed34E:
	.long	429065506
	.long	1
	.long	($stateUnwindMap$_ZN4core3ptr105drop_in_place$LT$$u5b$$LP$proc_macro2..Delimiter$C$proc_macro2..fallback..TokenStreamBuilder$RP$$u5d$$GT$17h0bda228c5ad9ed34E)@IMGREL
	.long	0
	.long	0
	.long	3
	.long	($ip2state$_ZN4core3ptr105drop_in_place$LT$$u5b$$LP$proc_macro2..Delimiter$C$proc_macro2..fallback..TokenStreamBuilder$RP$$u5d$$GT$17h0bda228c5ad9ed34E)@IMGREL
	.long	56
	.long	0
	.long	1
$stateUnwindMap$_ZN4core3ptr105drop_in_place$LT$$u5b$$LP$proc_macro2..Delimiter$C$proc_macro2..fallback..TokenStreamBuilder$RP$$u5d$$GT$17h0bda228c5ad9ed34E:
	.long	-1
	.long	"?dtor$5@?0?_ZN4core3ptr105drop_in_place$LT$$u5b$$LP$proc_macro2..Delimiter$C$proc_macro2..fallback..TokenStreamBuilder$RP$$u5d$$GT$17h0bda228c5ad9ed34E@4HA"@IMGREL
$ip2state$_ZN4core3ptr105drop_in_place$LT$$u5b$$LP$proc_macro2..Delimiter$C$proc_macro2..fallback..TokenStreamBuilder$RP$$u5d$$GT$17h0bda228c5ad9ed34E:
	.long	.Lfunc_begin33@IMGREL
	.long	-1
	.long	.Ltmp124@IMGREL+1
	.long	0
	.long	.Ltmp125@IMGREL+1
	.long	-1
	.section	.text,"xr",one_only,_ZN4core3ptr105drop_in_place$LT$$u5b$$LP$proc_macro2..Delimiter$C$proc_macro2..fallback..TokenStreamBuilder$RP$$u5d$$GT$17h0bda228c5ad9ed34E

	.def	_ZN4core3ptr118drop_in_place$LT$alloc..vec..Vec$LT$$LP$proc_macro2..Delimiter$C$proc_macro2..fallback..TokenStreamBuilder$RP$$GT$$GT$17h644119dd2785ef82E;
	.scl	2;
	.type	32;
	.endef
	.section	.text,"xr",one_only,_ZN4core3ptr118drop_in_place$LT$alloc..vec..Vec$LT$$LP$proc_macro2..Delimiter$C$proc_macro2..fallback..TokenStreamBuilder$RP$$GT$$GT$17h644119dd2785ef82E
	.globl	_ZN4core3ptr118drop_in_place$LT$alloc..vec..Vec$LT$$LP$proc_macro2..Delimiter$C$proc_macro2..fallback..TokenStreamBuilder$RP$$GT$$GT$17h644119dd2785ef82E
	.p2align	4, 0x90
_ZN4core3ptr118drop_in_place$LT$alloc..vec..Vec$LT$$LP$proc_macro2..Delimiter$C$proc_macro2..fallback..TokenStreamBuilder$RP$$GT$$GT$17h644119dd2785ef82E:
.Lfunc_begin34:
.seh_proc _ZN4core3ptr118drop_in_place$LT$alloc..vec..Vec$LT$$LP$proc_macro2..Delimiter$C$proc_macro2..fallback..TokenStreamBuilder$RP$$GT$$GT$17h644119dd2785ef82E
	.seh_handler __CxxFrameHandler3, @unwind, @except
	pushq	%rbp
	.seh_pushreg %rbp
	subq	$48, %rsp
	.seh_stackalloc 48
	leaq	48(%rsp), %rbp
	.seh_setframe %rbp, 48
	.seh_endprologue
	movq	$-2, -8(%rbp)
	movq	%rcx, -16(%rbp)
.Ltmp126:
	callq	_ZN70_$LT$alloc..vec..Vec$LT$T$C$A$GT$$u20$as$u20$core..ops..drop..Drop$GT$4drop17h3bd6c221edb49b3cE
.Ltmp127:
	jmp	.LBB118_2
.LBB118_2:
	movq	-16(%rbp), %rcx
	callq	_ZN4core3ptr125drop_in_place$LT$alloc..raw_vec..RawVec$LT$$LP$proc_macro2..Delimiter$C$proc_macro2..fallback..TokenStreamBuilder$RP$$GT$$GT$17h052d264781e1bf91E
	nop
	addq	$48, %rsp
	popq	%rbp
	retq
	.seh_handlerdata
	.long	($cppxdata$_ZN4core3ptr118drop_in_place$LT$alloc..vec..Vec$LT$$LP$proc_macro2..Delimiter$C$proc_macro2..fallback..TokenStreamBuilder$RP$$GT$$GT$17h644119dd2785ef82E)@IMGREL
	.section	.text,"xr",one_only,_ZN4core3ptr118drop_in_place$LT$alloc..vec..Vec$LT$$LP$proc_macro2..Delimiter$C$proc_macro2..fallback..TokenStreamBuilder$RP$$GT$$GT$17h644119dd2785ef82E
	.seh_endproc
	.def	"?dtor$1@?0?_ZN4core3ptr118drop_in_place$LT$alloc..vec..Vec$LT$$LP$proc_macro2..Delimiter$C$proc_macro2..fallback..TokenStreamBuilder$RP$$GT$$GT$17h644119dd2785ef82E@4HA";
	.scl	3;
	.type	32;
	.endef
	.p2align	4, 0x90
"?dtor$1@?0?_ZN4core3ptr118drop_in_place$LT$alloc..vec..Vec$LT$$LP$proc_macro2..Delimiter$C$proc_macro2..fallback..TokenStreamBuilder$RP$$GT$$GT$17h644119dd2785ef82E@4HA":
.seh_proc "?dtor$1@?0?_ZN4core3ptr118drop_in_place$LT$alloc..vec..Vec$LT$$LP$proc_macro2..Delimiter$C$proc_macro2..fallback..TokenStreamBuilder$RP$$GT$$GT$17h644119dd2785ef82E@4HA"
.LBB118_1:
	movq	%rdx, 16(%rsp)
	pushq	%rbp
	.seh_pushreg %rbp
	subq	$32, %rsp
	.seh_stackalloc 32
	leaq	48(%rdx), %rbp
	.seh_endprologue
	movq	-16(%rbp), %rcx
	callq	_ZN4core3ptr125drop_in_place$LT$alloc..raw_vec..RawVec$LT$$LP$proc_macro2..Delimiter$C$proc_macro2..fallback..TokenStreamBuilder$RP$$GT$$GT$17h052d264781e1bf91E
	nop
	addq	$32, %rsp
	popq	%rbp
	retq
.Lfunc_end34:
	.seh_handlerdata
	.section	.text,"xr",one_only,_ZN4core3ptr118drop_in_place$LT$alloc..vec..Vec$LT$$LP$proc_macro2..Delimiter$C$proc_macro2..fallback..TokenStreamBuilder$RP$$GT$$GT$17h644119dd2785ef82E
	.seh_endproc
	.section	.xdata,"dr",associative,_ZN4core3ptr118drop_in_place$LT$alloc..vec..Vec$LT$$LP$proc_macro2..Delimiter$C$proc_macro2..fallback..TokenStreamBuilder$RP$$GT$$GT$17h644119dd2785ef82E
	.p2align	2, 0x0
$cppxdata$_ZN4core3ptr118drop_in_place$LT$alloc..vec..Vec$LT$$LP$proc_macro2..Delimiter$C$proc_macro2..fallback..TokenStreamBuilder$RP$$GT$$GT$17h644119dd2785ef82E:
	.long	429065506
	.long	1
	.long	($stateUnwindMap$_ZN4core3ptr118drop_in_place$LT$alloc..vec..Vec$LT$$LP$proc_macro2..Delimiter$C$proc_macro2..fallback..TokenStreamBuilder$RP$$GT$$GT$17h644119dd2785ef82E)@IMGREL
	.long	0
	.long	0
	.long	3
	.long	($ip2state$_ZN4core3ptr118drop_in_place$LT$alloc..vec..Vec$LT$$LP$proc_macro2..Delimiter$C$proc_macro2..fallback..TokenStreamBuilder$RP$$GT$$GT$17h644119dd2785ef82E)@IMGREL
	.long	40
	.long	0
	.long	1
$stateUnwindMap$_ZN4core3ptr118drop_in_place$LT$alloc..vec..Vec$LT$$LP$proc_macro2..Delimiter$C$proc_macro2..fallback..TokenStreamBuilder$RP$$GT$$GT$17h644119dd2785ef82E:
	.long	-1
	.long	"?dtor$1@?0?_ZN4core3ptr118drop_in_place$LT$alloc..vec..Vec$LT$$LP$proc_macro2..Delimiter$C$proc_macro2..fallback..TokenStreamBuilder$RP$$GT$$GT$17h644119dd2785ef82E@4HA"@IMGREL
$ip2state$_ZN4core3ptr118drop_in_place$LT$alloc..vec..Vec$LT$$LP$proc_macro2..Delimiter$C$proc_macro2..fallback..TokenStreamBuilder$RP$$GT$$GT$17h644119dd2785ef82E:
	.long	.Lfunc_begin34@IMGREL
	.long	-1
	.long	.Ltmp126@IMGREL+1
	.long	0
	.long	.Ltmp127@IMGREL+1
	.long	-1
	.section	.text,"xr",one_only,_ZN4core3ptr118drop_in_place$LT$alloc..vec..Vec$LT$$LP$proc_macro2..Delimiter$C$proc_macro2..fallback..TokenStreamBuilder$RP$$GT$$GT$17h644119dd2785ef82E

	.def	_ZN4core3ptr124drop_in_place$LT$std..sync..once..Once..call_once$LT$proc_macro2..detection..initialize$GT$..$u7b$$u7b$closure$u7d$$u7d$$GT$17he5b93940f9470f04E;
	.scl	3;
	.type	32;
	.endef
	.section	.text,"xr",one_only,_ZN4core3ptr124drop_in_place$LT$std..sync..once..Once..call_once$LT$proc_macro2..detection..initialize$GT$..$u7b$$u7b$closure$u7d$$u7d$$GT$17he5b93940f9470f04E
	.p2align	4, 0x90
_ZN4core3ptr124drop_in_place$LT$std..sync..once..Once..call_once$LT$proc_macro2..detection..initialize$GT$..$u7b$$u7b$closure$u7d$$u7d$$GT$17he5b93940f9470f04E:
	retq

	.def	_ZN4core3ptr125drop_in_place$LT$alloc..raw_vec..RawVec$LT$$LP$proc_macro2..Delimiter$C$proc_macro2..fallback..TokenStreamBuilder$RP$$GT$$GT$17h052d264781e1bf91E;
	.scl	2;
	.type	32;
	.endef
	.section	.text,"xr",one_only,_ZN4core3ptr125drop_in_place$LT$alloc..raw_vec..RawVec$LT$$LP$proc_macro2..Delimiter$C$proc_macro2..fallback..TokenStreamBuilder$RP$$GT$$GT$17h052d264781e1bf91E
	.globl	_ZN4core3ptr125drop_in_place$LT$alloc..raw_vec..RawVec$LT$$LP$proc_macro2..Delimiter$C$proc_macro2..fallback..TokenStreamBuilder$RP$$GT$$GT$17h052d264781e1bf91E
	.p2align	4, 0x90
_ZN4core3ptr125drop_in_place$LT$alloc..raw_vec..RawVec$LT$$LP$proc_macro2..Delimiter$C$proc_macro2..fallback..TokenStreamBuilder$RP$$GT$$GT$17h052d264781e1bf91E:
.seh_proc _ZN4core3ptr125drop_in_place$LT$alloc..raw_vec..RawVec$LT$$LP$proc_macro2..Delimiter$C$proc_macro2..fallback..TokenStreamBuilder$RP$$GT$$GT$17h052d264781e1bf91E
	subq	$40, %rsp
	.seh_stackalloc 40
	.seh_endprologue
	callq	_ZN77_$LT$alloc..raw_vec..RawVec$LT$T$C$A$GT$$u20$as$u20$core..ops..drop..Drop$GT$4drop17h374f39f1834db178E
	nop
	addq	$40, %rsp
	retq
	.seh_endproc

	.def	_ZN4core3ptr128drop_in_place$LT$proc_macro..bridge..Group$LT$proc_macro..bridge..client..TokenStream$C$proc_macro..bridge..client..Span$GT$$GT$17h847bac4eed1bfea4E;
	.scl	2;
	.type	32;
	.endef
	.section	.text,"xr",one_only,_ZN4core3ptr128drop_in_place$LT$proc_macro..bridge..Group$LT$proc_macro..bridge..client..TokenStream$C$proc_macro..bridge..client..Span$GT$$GT$17h847bac4eed1bfea4E
	.globl	_ZN4core3ptr128drop_in_place$LT$proc_macro..bridge..Group$LT$proc_macro..bridge..client..TokenStream$C$proc_macro..bridge..client..Span$GT$$GT$17h847bac4eed1bfea4E
	.p2align	4, 0x90
_ZN4core3ptr128drop_in_place$LT$proc_macro..bridge..Group$LT$proc_macro..bridge..client..TokenStream$C$proc_macro..bridge..client..Span$GT$$GT$17h847bac4eed1bfea4E:
.seh_proc _ZN4core3ptr128drop_in_place$LT$proc_macro..bridge..Group$LT$proc_macro..bridge..client..TokenStream$C$proc_macro..bridge..client..Span$GT$$GT$17h847bac4eed1bfea4E
	subq	$40, %rsp
	.seh_stackalloc 40
	.seh_endprologue
	addq	$12, %rcx
	callq	_ZN4core3ptr88drop_in_place$LT$core..option..Option$LT$proc_macro..bridge..client..TokenStream$GT$$GT$17hb33811a5d558b4c7E
	nop
	addq	$40, %rsp
	retq
	.seh_endproc

	.def	_ZN4core3ptr133drop_in_place$LT$core..result..Result$LT$$LP$proc_macro2..parse..Cursor$C$proc_macro2..Ident$RP$$C$proc_macro2..parse..Reject$GT$$GT$17habbde6c653029ddaE;
	.scl	2;
	.type	32;
	.endef
	.section	.text,"xr",one_only,_ZN4core3ptr133drop_in_place$LT$core..result..Result$LT$$LP$proc_macro2..parse..Cursor$C$proc_macro2..Ident$RP$$C$proc_macro2..parse..Reject$GT$$GT$17habbde6c653029ddaE
	.globl	_ZN4core3ptr133drop_in_place$LT$core..result..Result$LT$$LP$proc_macro2..parse..Cursor$C$proc_macro2..Ident$RP$$C$proc_macro2..parse..Reject$GT$$GT$17habbde6c653029ddaE
	.p2align	4, 0x90
_ZN4core3ptr133drop_in_place$LT$core..result..Result$LT$$LP$proc_macro2..parse..Cursor$C$proc_macro2..Ident$RP$$C$proc_macro2..parse..Reject$GT$$GT$17habbde6c653029ddaE:
.seh_proc _ZN4core3ptr133drop_in_place$LT$core..result..Result$LT$$LP$proc_macro2..parse..Cursor$C$proc_macro2..Ident$RP$$C$proc_macro2..parse..Reject$GT$$GT$17habbde6c653029ddaE
	subq	$40, %rsp
	.seh_stackalloc 40
	.seh_endprologue
	movq	%rcx, %rdx
	movq	%rdx, 32(%rsp)
	movabsq	$-9223372036854775807, %r8
	xorl	%eax, %eax
	movl	$1, %ecx
	cmpq	%r8, 16(%rdx)
	cmoveq	%rcx, %rax
	cmpq	$0, %rax
	jne	.LBB122_2
	movq	32(%rsp), %rcx
	callq	_ZN4core3ptr76drop_in_place$LT$$LP$proc_macro2..parse..Cursor$C$proc_macro2..Ident$RP$$GT$17hcc24f2abc3cb5c0eE
.LBB122_2:
	nop
	addq	$40, %rsp
	retq
	.seh_endproc

	.def	_ZN4core3ptr143drop_in_place$LT$$LT$T$u20$as$u20$alloc..slice..hack..ConvertVec$GT$..to_vec..DropGuard$LT$proc_macro..TokenTree$C$alloc..alloc..Global$GT$$GT$17h636653084023a20eE;
	.scl	2;
	.type	32;
	.endef
	.section	.text,"xr",one_only,_ZN4core3ptr143drop_in_place$LT$$LT$T$u20$as$u20$alloc..slice..hack..ConvertVec$GT$..to_vec..DropGuard$LT$proc_macro..TokenTree$C$alloc..alloc..Global$GT$$GT$17h636653084023a20eE
	.globl	_ZN4core3ptr143drop_in_place$LT$$LT$T$u20$as$u20$alloc..slice..hack..ConvertVec$GT$..to_vec..DropGuard$LT$proc_macro..TokenTree$C$alloc..alloc..Global$GT$$GT$17h636653084023a20eE
	.p2align	4, 0x90
_ZN4core3ptr143drop_in_place$LT$$LT$T$u20$as$u20$alloc..slice..hack..ConvertVec$GT$..to_vec..DropGuard$LT$proc_macro..TokenTree$C$alloc..alloc..Global$GT$$GT$17h636653084023a20eE:
.seh_proc _ZN4core3ptr143drop_in_place$LT$$LT$T$u20$as$u20$alloc..slice..hack..ConvertVec$GT$..to_vec..DropGuard$LT$proc_macro..TokenTree$C$alloc..alloc..Global$GT$$GT$17h636653084023a20eE
	subq	$40, %rsp
	.seh_stackalloc 40
	.seh_endprologue
	callq	_ZN125_$LT$$LT$T$u20$as$u20$alloc..slice..hack..ConvertVec$GT$..to_vec..DropGuard$LT$T$C$A$GT$$u20$as$u20$core..ops..drop..Drop$GT$4drop17hd1589d169d8febc0E
	nop
	addq	$40, %rsp
	retq
	.seh_endproc

	.def	_ZN4core3ptr144drop_in_place$LT$$LT$T$u20$as$u20$alloc..slice..hack..ConvertVec$GT$..to_vec..DropGuard$LT$proc_macro2..TokenTree$C$alloc..alloc..Global$GT$$GT$17hd1a0232c54c8d535E;
	.scl	2;
	.type	32;
	.endef
	.section	.text,"xr",one_only,_ZN4core3ptr144drop_in_place$LT$$LT$T$u20$as$u20$alloc..slice..hack..ConvertVec$GT$..to_vec..DropGuard$LT$proc_macro2..TokenTree$C$alloc..alloc..Global$GT$$GT$17hd1a0232c54c8d535E
	.globl	_ZN4core3ptr144drop_in_place$LT$$LT$T$u20$as$u20$alloc..slice..hack..ConvertVec$GT$..to_vec..DropGuard$LT$proc_macro2..TokenTree$C$alloc..alloc..Global$GT$$GT$17hd1a0232c54c8d535E
	.p2align	4, 0x90
_ZN4core3ptr144drop_in_place$LT$$LT$T$u20$as$u20$alloc..slice..hack..ConvertVec$GT$..to_vec..DropGuard$LT$proc_macro2..TokenTree$C$alloc..alloc..Global$GT$$GT$17hd1a0232c54c8d535E:
.seh_proc _ZN4core3ptr144drop_in_place$LT$$LT$T$u20$as$u20$alloc..slice..hack..ConvertVec$GT$..to_vec..DropGuard$LT$proc_macro2..TokenTree$C$alloc..alloc..Global$GT$$GT$17hd1a0232c54c8d535E
	subq	$40, %rsp
	.seh_stackalloc 40
	.seh_endprologue
	callq	_ZN125_$LT$$LT$T$u20$as$u20$alloc..slice..hack..ConvertVec$GT$..to_vec..DropGuard$LT$T$C$A$GT$$u20$as$u20$core..ops..drop..Drop$GT$4drop17h75d6bf2480586ef7E
	nop
	addq	$40, %rsp
	retq
	.seh_endproc

	.def	_ZN4core3ptr168drop_in_place$LT$$LT$alloc..vec..drain..Drain$LT$T$C$A$GT$$u20$as$u20$core..ops..drop..Drop$GT$..drop..DropGuard$LT$proc_macro..TokenTree$C$alloc..alloc..Global$GT$$GT$17h5c49de329ed7fbcfE;
	.scl	2;
	.type	32;
	.endef
	.section	.text,"xr",one_only,_ZN4core3ptr168drop_in_place$LT$$LT$alloc..vec..drain..Drain$LT$T$C$A$GT$$u20$as$u20$core..ops..drop..Drop$GT$..drop..DropGuard$LT$proc_macro..TokenTree$C$alloc..alloc..Global$GT$$GT$17h5c49de329ed7fbcfE
	.globl	_ZN4core3ptr168drop_in_place$LT$$LT$alloc..vec..drain..Drain$LT$T$C$A$GT$$u20$as$u20$core..ops..drop..Drop$GT$..drop..DropGuard$LT$proc_macro..TokenTree$C$alloc..alloc..Global$GT$$GT$17h5c49de329ed7fbcfE
	.p2align	4, 0x90
_ZN4core3ptr168drop_in_place$LT$$LT$alloc..vec..drain..Drain$LT$T$C$A$GT$$u20$as$u20$core..ops..drop..Drop$GT$..drop..DropGuard$LT$proc_macro..TokenTree$C$alloc..alloc..Global$GT$$GT$17h5c49de329ed7fbcfE:
.seh_proc _ZN4core3ptr168drop_in_place$LT$$LT$alloc..vec..drain..Drain$LT$T$C$A$GT$$u20$as$u20$core..ops..drop..Drop$GT$..drop..DropGuard$LT$proc_macro..TokenTree$C$alloc..alloc..Global$GT$$GT$17h5c49de329ed7fbcfE
	subq	$40, %rsp
	.seh_stackalloc 40
	.seh_endprologue
	callq	_ZN150_$LT$$LT$alloc..vec..drain..Drain$LT$T$C$A$GT$$u20$as$u20$core..ops..drop..Drop$GT$..drop..DropGuard$LT$T$C$A$GT$$u20$as$u20$core..ops..drop..Drop$GT$4drop17h07c56c51b1a60ebaE
	nop
	addq	$40, %rsp
	retq
	.seh_endproc

	.def	_ZN4core3ptr169drop_in_place$LT$proc_macro..bridge..TokenTree$LT$proc_macro..bridge..client..TokenStream$C$proc_macro..bridge..client..Span$C$proc_macro..bridge..symbol..Symbol$GT$$GT$17h6d5bb39961944193E;
	.scl	2;
	.type	32;
	.endef
	.section	.text,"xr",one_only,_ZN4core3ptr169drop_in_place$LT$proc_macro..bridge..TokenTree$LT$proc_macro..bridge..client..TokenStream$C$proc_macro..bridge..client..Span$C$proc_macro..bridge..symbol..Symbol$GT$$GT$17h6d5bb39961944193E
	.globl	_ZN4core3ptr169drop_in_place$LT$proc_macro..bridge..TokenTree$LT$proc_macro..bridge..client..TokenStream$C$proc_macro..bridge..client..Span$C$proc_macro..bridge..symbol..Symbol$GT$$GT$17h6d5bb39961944193E
	.p2align	4, 0x90
_ZN4core3ptr169drop_in_place$LT$proc_macro..bridge..TokenTree$LT$proc_macro..bridge..client..TokenStream$C$proc_macro..bridge..client..Span$C$proc_macro..bridge..symbol..Symbol$GT$$GT$17h6d5bb39961944193E:
.seh_proc _ZN4core3ptr169drop_in_place$LT$proc_macro..bridge..TokenTree$LT$proc_macro..bridge..client..TokenStream$C$proc_macro..bridge..client..Span$C$proc_macro..bridge..symbol..Symbol$GT$$GT$17h6d5bb39961944193E
	subq	$56, %rsp
	.seh_stackalloc 56
	.seh_endprologue
	movq	%rcx, 40(%rsp)
	movb	16(%rcx), %dl
	addb	$-4, %dl
	movzbl	%dl, %eax
	movl	%eax, %ecx
	incq	%rcx
	xorl	%eax, %eax
	subb	$3, %dl
	cmovbq	%rcx, %rax
	movq	%rax, 48(%rsp)
	testq	%rax, %rax
	je	.LBB126_2
	jmp	.LBB126_3
.LBB126_3:
	movq	48(%rsp), %rax
	decq	%rax
	subq	$1, %rax
	ja	.LBB126_1
	jmp	.LBB126_1
.LBB126_1:
	addq	$56, %rsp
	retq
.LBB126_2:
	movq	40(%rsp), %rcx
	callq	_ZN4core3ptr128drop_in_place$LT$proc_macro..bridge..Group$LT$proc_macro..bridge..client..TokenStream$C$proc_macro..bridge..client..Span$GT$$GT$17h847bac4eed1bfea4E
	jmp	.LBB126_1
	.seh_endproc

	.def	_ZN4core3ptr176drop_in_place$LT$$LT$alloc..vec..into_iter..IntoIter$LT$T$C$A$GT$$u20$as$u20$core..ops..drop..Drop$GT$..drop..DropGuard$LT$proc_macro2..TokenTree$C$alloc..alloc..Global$GT$$GT$17h422f09fb7a09d8abE;
	.scl	2;
	.type	32;
	.endef
	.section	.text,"xr",one_only,_ZN4core3ptr176drop_in_place$LT$$LT$alloc..vec..into_iter..IntoIter$LT$T$C$A$GT$$u20$as$u20$core..ops..drop..Drop$GT$..drop..DropGuard$LT$proc_macro2..TokenTree$C$alloc..alloc..Global$GT$$GT$17h422f09fb7a09d8abE
	.globl	_ZN4core3ptr176drop_in_place$LT$$LT$alloc..vec..into_iter..IntoIter$LT$T$C$A$GT$$u20$as$u20$core..ops..drop..Drop$GT$..drop..DropGuard$LT$proc_macro2..TokenTree$C$alloc..alloc..Global$GT$$GT$17h422f09fb7a09d8abE
	.p2align	4, 0x90
_ZN4core3ptr176drop_in_place$LT$$LT$alloc..vec..into_iter..IntoIter$LT$T$C$A$GT$$u20$as$u20$core..ops..drop..Drop$GT$..drop..DropGuard$LT$proc_macro2..TokenTree$C$alloc..alloc..Global$GT$$GT$17h422f09fb7a09d8abE:
.seh_proc _ZN4core3ptr176drop_in_place$LT$$LT$alloc..vec..into_iter..IntoIter$LT$T$C$A$GT$$u20$as$u20$core..ops..drop..Drop$GT$..drop..DropGuard$LT$proc_macro2..TokenTree$C$alloc..alloc..Global$GT$$GT$17h422f09fb7a09d8abE
	subq	$40, %rsp
	.seh_stackalloc 40
	.seh_endprologue
	callq	_ZN157_$LT$$LT$alloc..vec..into_iter..IntoIter$LT$T$C$A$GT$$u20$as$u20$core..ops..drop..Drop$GT$..drop..DropGuard$LT$T$C$A$GT$$u20$as$u20$core..ops..drop..Drop$GT$4drop17h4b4e61e47fae2cf6E
	nop
	addq	$40, %rsp
	retq
	.seh_endproc

	.def	_ZN4core3ptr179drop_in_place$LT$$u5b$proc_macro..bridge..TokenTree$LT$proc_macro..bridge..client..TokenStream$C$proc_macro..bridge..client..Span$C$proc_macro..bridge..symbol..Symbol$GT$$u5d$$GT$17h93bc91fcf0639712E;
	.scl	2;
	.type	32;
	.endef
	.section	.text,"xr",one_only,_ZN4core3ptr179drop_in_place$LT$$u5b$proc_macro..bridge..TokenTree$LT$proc_macro..bridge..client..TokenStream$C$proc_macro..bridge..client..Span$C$proc_macro..bridge..symbol..Symbol$GT$$u5d$$GT$17h93bc91fcf0639712E
	.globl	_ZN4core3ptr179drop_in_place$LT$$u5b$proc_macro..bridge..TokenTree$LT$proc_macro..bridge..client..TokenStream$C$proc_macro..bridge..client..Span$C$proc_macro..bridge..symbol..Symbol$GT$$u5d$$GT$17h93bc91fcf0639712E
	.p2align	4, 0x90
_ZN4core3ptr179drop_in_place$LT$$u5b$proc_macro..bridge..TokenTree$LT$proc_macro..bridge..client..TokenStream$C$proc_macro..bridge..client..Span$C$proc_macro..bridge..symbol..Symbol$GT$$u5d$$GT$17h93bc91fcf0639712E:
.Lfunc_begin35:
.seh_proc _ZN4core3ptr179drop_in_place$LT$$u5b$proc_macro..bridge..TokenTree$LT$proc_macro..bridge..client..TokenStream$C$proc_macro..bridge..client..Span$C$proc_macro..bridge..symbol..Symbol$GT$$u5d$$GT$17h93bc91fcf0639712E
	.seh_handler __CxxFrameHandler3, @unwind, @except
	pushq	%rbp
	.seh_pushreg %rbp
	subq	$64, %rsp
	.seh_stackalloc 64
	leaq	64(%rsp), %rbp
	.seh_setframe %rbp, 64
	.seh_endprologue
	movq	$-2, -8(%rbp)
	movq	%rdx, -32(%rbp)
	movq	%rcx, -24(%rbp)
	movq	$0, -16(%rbp)
.LBB128_1:
	movq	-32(%rbp), %rax
	cmpq	%rax, -16(%rbp)
	je	.LBB128_3
	movq	-24(%rbp), %rcx
	movq	-16(%rbp), %rax
	leaq	(%rax,%rax,4), %rdx
	leaq	(%rcx,%rdx,4), %rcx
	incq	%rax
	movq	%rax, -16(%rbp)
.Ltmp128:
	callq	_ZN4core3ptr169drop_in_place$LT$proc_macro..bridge..TokenTree$LT$proc_macro..bridge..client..TokenStream$C$proc_macro..bridge..client..Span$C$proc_macro..bridge..symbol..Symbol$GT$$GT$17h6d5bb39961944193E
.Ltmp129:
	jmp	.LBB128_1
.LBB128_3:
	addq	$64, %rsp
	popq	%rbp
	retq
.LBB128_4:
	movq	-32(%rbp), %rax
	cmpq	%rax, -16(%rbp)
	je	.LBB128_7
	jmp	.LBB128_6
	.seh_handlerdata
	.long	($cppxdata$_ZN4core3ptr179drop_in_place$LT$$u5b$proc_macro..bridge..TokenTree$LT$proc_macro..bridge..client..TokenStream$C$proc_macro..bridge..client..Span$C$proc_macro..bridge..symbol..Symbol$GT$$u5d$$GT$17h93bc91fcf0639712E)@IMGREL
	.section	.text,"xr",one_only,_ZN4core3ptr179drop_in_place$LT$$u5b$proc_macro..bridge..TokenTree$LT$proc_macro..bridge..client..TokenStream$C$proc_macro..bridge..client..Span$C$proc_macro..bridge..symbol..Symbol$GT$$u5d$$GT$17h93bc91fcf0639712E
	.seh_endproc
	.def	"?dtor$5@?0?_ZN4core3ptr179drop_in_place$LT$$u5b$proc_macro..bridge..TokenTree$LT$proc_macro..bridge..client..TokenStream$C$proc_macro..bridge..client..Span$C$proc_macro..bridge..symbol..Symbol$GT$$u5d$$GT$17h93bc91fcf0639712E@4HA";
	.scl	3;
	.type	32;
	.endef
	.p2align	4, 0x90
"?dtor$5@?0?_ZN4core3ptr179drop_in_place$LT$$u5b$proc_macro..bridge..TokenTree$LT$proc_macro..bridge..client..TokenStream$C$proc_macro..bridge..client..Span$C$proc_macro..bridge..symbol..Symbol$GT$$u5d$$GT$17h93bc91fcf0639712E@4HA":
.seh_proc "?dtor$5@?0?_ZN4core3ptr179drop_in_place$LT$$u5b$proc_macro..bridge..TokenTree$LT$proc_macro..bridge..client..TokenStream$C$proc_macro..bridge..client..Span$C$proc_macro..bridge..symbol..Symbol$GT$$u5d$$GT$17h93bc91fcf0639712E@4HA"
.LBB128_5:
	movq	%rdx, 16(%rsp)
	pushq	%rbp
	.seh_pushreg %rbp
	subq	$32, %rsp
	.seh_stackalloc 32
	leaq	64(%rdx), %rbp
	.seh_endprologue
	jmp	.LBB128_4
.LBB128_6:
	movq	-24(%rbp), %rcx
	imulq	$20, -16(%rbp), %rax
	addq	%rax, %rcx
	movq	-16(%rbp), %rax
	addq	$1, %rax
	movq	%rax, -16(%rbp)
	callq	_ZN4core3ptr169drop_in_place$LT$proc_macro..bridge..TokenTree$LT$proc_macro..bridge..client..TokenStream$C$proc_macro..bridge..client..Span$C$proc_macro..bridge..symbol..Symbol$GT$$GT$17h6d5bb39961944193E
	jmp	.LBB128_4
.LBB128_7:
	addq	$32, %rsp
	popq	%rbp
	retq
.Lfunc_end35:
	.seh_handlerdata
	.section	.text,"xr",one_only,_ZN4core3ptr179drop_in_place$LT$$u5b$proc_macro..bridge..TokenTree$LT$proc_macro..bridge..client..TokenStream$C$proc_macro..bridge..client..Span$C$proc_macro..bridge..symbol..Symbol$GT$$u5d$$GT$17h93bc91fcf0639712E
	.seh_endproc
	.section	.xdata,"dr",associative,_ZN4core3ptr179drop_in_place$LT$$u5b$proc_macro..bridge..TokenTree$LT$proc_macro..bridge..client..TokenStream$C$proc_macro..bridge..client..Span$C$proc_macro..bridge..symbol..Symbol$GT$$u5d$$GT$17h93bc91fcf0639712E
	.p2align	2, 0x0
$cppxdata$_ZN4core3ptr179drop_in_place$LT$$u5b$proc_macro..bridge..TokenTree$LT$proc_macro..bridge..client..TokenStream$C$proc_macro..bridge..client..Span$C$proc_macro..bridge..symbol..Symbol$GT$$u5d$$GT$17h93bc91fcf0639712E:
	.long	429065506
	.long	1
	.long	($stateUnwindMap$_ZN4core3ptr179drop_in_place$LT$$u5b$proc_macro..bridge..TokenTree$LT$proc_macro..bridge..client..TokenStream$C$proc_macro..bridge..client..Span$C$proc_macro..bridge..symbol..Symbol$GT$$u5d$$GT$17h93bc91fcf0639712E)@IMGREL
	.long	0
	.long	0
	.long	3
	.long	($ip2state$_ZN4core3ptr179drop_in_place$LT$$u5b$proc_macro..bridge..TokenTree$LT$proc_macro..bridge..client..TokenStream$C$proc_macro..bridge..client..Span$C$proc_macro..bridge..symbol..Symbol$GT$$u5d$$GT$17h93bc91fcf0639712E)@IMGREL
	.long	56
	.long	0
	.long	1
$stateUnwindMap$_ZN4core3ptr179drop_in_place$LT$$u5b$proc_macro..bridge..TokenTree$LT$proc_macro..bridge..client..TokenStream$C$proc_macro..bridge..client..Span$C$proc_macro..bridge..symbol..Symbol$GT$$u5d$$GT$17h93bc91fcf0639712E:
	.long	-1
	.long	"?dtor$5@?0?_ZN4core3ptr179drop_in_place$LT$$u5b$proc_macro..bridge..TokenTree$LT$proc_macro..bridge..client..TokenStream$C$proc_macro..bridge..client..Span$C$proc_macro..bridge..symbol..Symbol$GT$$u5d$$GT$17h93bc91fcf0639712E@4HA"@IMGREL
$ip2state$_ZN4core3ptr179drop_in_place$LT$$u5b$proc_macro..bridge..TokenTree$LT$proc_macro..bridge..client..TokenStream$C$proc_macro..bridge..client..Span$C$proc_macro..bridge..symbol..Symbol$GT$$u5d$$GT$17h93bc91fcf0639712E:
	.long	.Lfunc_begin35@IMGREL
	.long	-1
	.long	.Ltmp128@IMGREL+1
	.long	0
	.long	.Ltmp129@IMGREL+1
	.long	-1
	.section	.text,"xr",one_only,_ZN4core3ptr179drop_in_place$LT$$u5b$proc_macro..bridge..TokenTree$LT$proc_macro..bridge..client..TokenStream$C$proc_macro..bridge..client..Span$C$proc_macro..bridge..symbol..Symbol$GT$$u5d$$GT$17h93bc91fcf0639712E

	.def	_ZN4core3ptr192drop_in_place$LT$alloc..vec..Vec$LT$proc_macro..bridge..TokenTree$LT$proc_macro..bridge..client..TokenStream$C$proc_macro..bridge..client..Span$C$proc_macro..bridge..symbol..Symbol$GT$$GT$$GT$17h02ee56896b81940cE;
	.scl	2;
	.type	32;
	.endef
	.section	.text,"xr",one_only,_ZN4core3ptr192drop_in_place$LT$alloc..vec..Vec$LT$proc_macro..bridge..TokenTree$LT$proc_macro..bridge..client..TokenStream$C$proc_macro..bridge..client..Span$C$proc_macro..bridge..symbol..Symbol$GT$$GT$$GT$17h02ee56896b81940cE
	.globl	_ZN4core3ptr192drop_in_place$LT$alloc..vec..Vec$LT$proc_macro..bridge..TokenTree$LT$proc_macro..bridge..client..TokenStream$C$proc_macro..bridge..client..Span$C$proc_macro..bridge..symbol..Symbol$GT$$GT$$GT$17h02ee56896b81940cE
	.p2align	4, 0x90
_ZN4core3ptr192drop_in_place$LT$alloc..vec..Vec$LT$proc_macro..bridge..TokenTree$LT$proc_macro..bridge..client..TokenStream$C$proc_macro..bridge..client..Span$C$proc_macro..bridge..symbol..Symbol$GT$$GT$$GT$17h02ee56896b81940cE:
.Lfunc_begin36:
.seh_proc _ZN4core3ptr192drop_in_place$LT$alloc..vec..Vec$LT$proc_macro..bridge..TokenTree$LT$proc_macro..bridge..client..TokenStream$C$proc_macro..bridge..client..Span$C$proc_macro..bridge..symbol..Symbol$GT$$GT$$GT$17h02ee56896b81940cE
	.seh_handler __CxxFrameHandler3, @unwind, @except
	pushq	%rbp
	.seh_pushreg %rbp
	subq	$48, %rsp
	.seh_stackalloc 48
	leaq	48(%rsp), %rbp
	.seh_setframe %rbp, 48
	.seh_endprologue
	movq	$-2, -8(%rbp)
	movq	%rcx, -16(%rbp)
.Ltmp130:
	callq	_ZN70_$LT$alloc..vec..Vec$LT$T$C$A$GT$$u20$as$u20$core..ops..drop..Drop$GT$4drop17hbd438cdc343be607E
.Ltmp131:
	jmp	.LBB129_2
.LBB129_2:
	movq	-16(%rbp), %rcx
	callq	_ZN4core3ptr199drop_in_place$LT$alloc..raw_vec..RawVec$LT$proc_macro..bridge..TokenTree$LT$proc_macro..bridge..client..TokenStream$C$proc_macro..bridge..client..Span$C$proc_macro..bridge..symbol..Symbol$GT$$GT$$GT$17h84283864e082683bE
	nop
	addq	$48, %rsp
	popq	%rbp
	retq
	.seh_handlerdata
	.long	($cppxdata$_ZN4core3ptr192drop_in_place$LT$alloc..vec..Vec$LT$proc_macro..bridge..TokenTree$LT$proc_macro..bridge..client..TokenStream$C$proc_macro..bridge..client..Span$C$proc_macro..bridge..symbol..Symbol$GT$$GT$$GT$17h02ee56896b81940cE)@IMGREL
