	.text
	.def	@feat.00;
	.scl	3;
	.type	0;
	.endef
	.globl	@feat.00
.set @feat.00, 0
	.file	"quote.22a851d08e38c73b-cgu.0"
	.def	_ZN100_$LT$alloc..string..String$u20$as$u20$core..ops..index..Index$LT$core..ops..range..RangeFull$GT$$GT$5index17hc1788192198a38a6E;
	.scl	3;
	.type	32;
	.endef
	.section	.text,"xr",one_only,_ZN100_$LT$alloc..string..String$u20$as$u20$core..ops..index..Index$LT$core..ops..range..RangeFull$GT$$GT$5index17hc1788192198a38a6E
	.p2align	4, 0x90
_ZN100_$LT$alloc..string..String$u20$as$u20$core..ops..index..Index$LT$core..ops..range..RangeFull$GT$$GT$5index17hc1788192198a38a6E:
.seh_proc _ZN100_$LT$alloc..string..String$u20$as$u20$core..ops..index..Index$LT$core..ops..range..RangeFull$GT$$GT$5index17hc1788192198a38a6E
	subq	$32, %rsp
	.seh_stackalloc 32
	.seh_endprologue
	movq	%rcx, %rax
	movq	8(%rax), %rcx
	movq	16(%rax), %rax
	movq	%rcx, 16(%rsp)
	movq	%rax, 24(%rsp)
	movq	16(%rsp), %rcx
	movq	24(%rsp), %rax
	movq	%rcx, (%rsp)
	movq	%rax, 8(%rsp)
	movq	(%rsp), %rax
	movq	8(%rsp), %rdx
	addq	$32, %rsp
	retq
	.seh_endproc

	.def	_ZN102_$LT$core..iter..adapters..map..Map$LT$I$C$F$GT$$u20$as$u20$core..iter..traits..iterator..Iterator$GT$4fold17h1c5ccf8609322215E;
	.scl	2;
	.type	32;
	.endef
	.section	.text,"xr",one_only,_ZN102_$LT$core..iter..adapters..map..Map$LT$I$C$F$GT$$u20$as$u20$core..iter..traits..iterator..Iterator$GT$4fold17h1c5ccf8609322215E
	.globl	_ZN102_$LT$core..iter..adapters..map..Map$LT$I$C$F$GT$$u20$as$u20$core..iter..traits..iterator..Iterator$GT$4fold17h1c5ccf8609322215E
	.p2align	4, 0x90
_ZN102_$LT$core..iter..adapters..map..Map$LT$I$C$F$GT$$u20$as$u20$core..iter..traits..iterator..Iterator$GT$4fold17h1c5ccf8609322215E:
.Lfunc_begin0:
.seh_proc _ZN102_$LT$core..iter..adapters..map..Map$LT$I$C$F$GT$$u20$as$u20$core..iter..traits..iterator..Iterator$GT$4fold17h1c5ccf8609322215E
	.seh_handler __CxxFrameHandler3, @unwind, @except
	pushq	%rbp
	.seh_pushreg %rbp
	subq	$96, %rsp
	.seh_stackalloc 96
	leaq	96(%rsp), %rbp
	.seh_setframe %rbp, 96
	.seh_endprologue
	movq	$-2, -8(%rbp)
	vmovups	(%rcx), %ymm0
	vmovups	16(%rcx), %ymm1
	vmovups	%ymm1, -48(%rbp)
	vmovups	%ymm0, -64(%rbp)
	movq	%rdx, -16(%rbp)
	movq	-16(%rbp), %rdx
.Ltmp0:
	leaq	-64(%rbp), %rcx
	vzeroupper
	callq	_ZN102_$LT$core..iter..adapters..map..Map$LT$I$C$F$GT$$u20$as$u20$core..iter..traits..iterator..Iterator$GT$4fold17h799a7bf2cba153c1E
.Ltmp1:
	jmp	.LBB1_2
.LBB1_2:
	addq	$96, %rsp
	popq	%rbp
	retq
	.seh_handlerdata
	.long	($cppxdata$_ZN102_$LT$core..iter..adapters..map..Map$LT$I$C$F$GT$$u20$as$u20$core..iter..traits..iterator..Iterator$GT$4fold17h1c5ccf8609322215E)@IMGREL
	.section	.text,"xr",one_only,_ZN102_$LT$core..iter..adapters..map..Map$LT$I$C$F$GT$$u20$as$u20$core..iter..traits..iterator..Iterator$GT$4fold17h1c5ccf8609322215E
	.seh_endproc
	.def	"?dtor$1@?0?_ZN102_$LT$core..iter..adapters..map..Map$LT$I$C$F$GT$$u20$as$u20$core..iter..traits..iterator..Iterator$GT$4fold17h1c5ccf8609322215E@4HA";
	.scl	3;
	.type	32;
	.endef
	.p2align	4, 0x90
"?dtor$1@?0?_ZN102_$LT$core..iter..adapters..map..Map$LT$I$C$F$GT$$u20$as$u20$core..iter..traits..iterator..Iterator$GT$4fold17h1c5ccf8609322215E@4HA":
.seh_proc "?dtor$1@?0?_ZN102_$LT$core..iter..adapters..map..Map$LT$I$C$F$GT$$u20$as$u20$core..iter..traits..iterator..Iterator$GT$4fold17h1c5ccf8609322215E@4HA"
.LBB1_1:
	movq	%rdx, 16(%rsp)
	pushq	%rbp
	.seh_pushreg %rbp
	subq	$32, %rsp
	.seh_stackalloc 32
	leaq	96(%rdx), %rbp
	.seh_endprologue
	addq	$32, %rsp
	popq	%rbp
	retq
.Lfunc_end0:
	.seh_handlerdata
	.section	.text,"xr",one_only,_ZN102_$LT$core..iter..adapters..map..Map$LT$I$C$F$GT$$u20$as$u20$core..iter..traits..iterator..Iterator$GT$4fold17h1c5ccf8609322215E
	.seh_endproc
	.section	.xdata,"dr",associative,_ZN102_$LT$core..iter..adapters..map..Map$LT$I$C$F$GT$$u20$as$u20$core..iter..traits..iterator..Iterator$GT$4fold17h1c5ccf8609322215E
	.p2align	2, 0x0
$cppxdata$_ZN102_$LT$core..iter..adapters..map..Map$LT$I$C$F$GT$$u20$as$u20$core..iter..traits..iterator..Iterator$GT$4fold17h1c5ccf8609322215E:
	.long	429065506
	.long	1
	.long	($stateUnwindMap$_ZN102_$LT$core..iter..adapters..map..Map$LT$I$C$F$GT$$u20$as$u20$core..iter..traits..iterator..Iterator$GT$4fold17h1c5ccf8609322215E)@IMGREL
	.long	0
	.long	0
	.long	3
	.long	($ip2state$_ZN102_$LT$core..iter..adapters..map..Map$LT$I$C$F$GT$$u20$as$u20$core..iter..traits..iterator..Iterator$GT$4fold17h1c5ccf8609322215E)@IMGREL
	.long	88
	.long	0
	.long	1
$stateUnwindMap$_ZN102_$LT$core..iter..adapters..map..Map$LT$I$C$F$GT$$u20$as$u20$core..iter..traits..iterator..Iterator$GT$4fold17h1c5ccf8609322215E:
	.long	-1
	.long	"?dtor$1@?0?_ZN102_$LT$core..iter..adapters..map..Map$LT$I$C$F$GT$$u20$as$u20$core..iter..traits..iterator..Iterator$GT$4fold17h1c5ccf8609322215E@4HA"@IMGREL
$ip2state$_ZN102_$LT$core..iter..adapters..map..Map$LT$I$C$F$GT$$u20$as$u20$core..iter..traits..iterator..Iterator$GT$4fold17h1c5ccf8609322215E:
	.long	.Lfunc_begin0@IMGREL
	.long	-1
	.long	.Ltmp0@IMGREL+1
	.long	0
	.long	.Ltmp1@IMGREL+1
	.long	-1
	.section	.text,"xr",one_only,_ZN102_$LT$core..iter..adapters..map..Map$LT$I$C$F$GT$$u20$as$u20$core..iter..traits..iterator..Iterator$GT$4fold17h1c5ccf8609322215E

	.def	_ZN102_$LT$core..iter..adapters..map..Map$LT$I$C$F$GT$$u20$as$u20$core..iter..traits..iterator..Iterator$GT$4fold17h3b39b87cd191c7dfE;
	.scl	2;
	.type	32;
	.endef
	.section	.text,"xr",one_only,_ZN102_$LT$core..iter..adapters..map..Map$LT$I$C$F$GT$$u20$as$u20$core..iter..traits..iterator..Iterator$GT$4fold17h3b39b87cd191c7dfE
	.globl	_ZN102_$LT$core..iter..adapters..map..Map$LT$I$C$F$GT$$u20$as$u20$core..iter..traits..iterator..Iterator$GT$4fold17h3b39b87cd191c7dfE
	.p2align	4, 0x90
_ZN102_$LT$core..iter..adapters..map..Map$LT$I$C$F$GT$$u20$as$u20$core..iter..traits..iterator..Iterator$GT$4fold17h3b39b87cd191c7dfE:
.Lfunc_begin1:
.seh_proc _ZN102_$LT$core..iter..adapters..map..Map$LT$I$C$F$GT$$u20$as$u20$core..iter..traits..iterator..Iterator$GT$4fold17h3b39b87cd191c7dfE
	.seh_handler __CxxFrameHandler3, @unwind, @except
	pushq	%rbp
	.seh_pushreg %rbp
	subq	$96, %rsp
	.seh_stackalloc 96
	leaq	96(%rsp), %rbp
	.seh_setframe %rbp, 96
	.seh_endprologue
	movq	$-2, -8(%rbp)
	movq	32(%rcx), %rax
	movq	%rax, -32(%rbp)
	vmovups	(%rcx), %ymm0
	vmovups	%ymm0, -64(%rbp)
	movq	40(%rcx), %rax
	movq	%rdx, -24(%rbp)
	movq	%rax, -16(%rbp)
	movq	-24(%rbp), %rdx
	movq	-16(%rbp), %r8
.Ltmp2:
	leaq	-64(%rbp), %rcx
	vzeroupper
	callq	_ZN4core4iter6traits8iterator8Iterator4fold17hc90d6f2d7dedf20fE
.Ltmp3:
	jmp	.LBB2_2
.LBB2_2:
	addq	$96, %rsp
	popq	%rbp
	retq
	.seh_handlerdata
	.long	($cppxdata$_ZN102_$LT$core..iter..adapters..map..Map$LT$I$C$F$GT$$u20$as$u20$core..iter..traits..iterator..Iterator$GT$4fold17h3b39b87cd191c7dfE)@IMGREL
	.section	.text,"xr",one_only,_ZN102_$LT$core..iter..adapters..map..Map$LT$I$C$F$GT$$u20$as$u20$core..iter..traits..iterator..Iterator$GT$4fold17h3b39b87cd191c7dfE
	.seh_endproc
	.def	"?dtor$1@?0?_ZN102_$LT$core..iter..adapters..map..Map$LT$I$C$F$GT$$u20$as$u20$core..iter..traits..iterator..Iterator$GT$4fold17h3b39b87cd191c7dfE@4HA";
	.scl	3;
	.type	32;
	.endef
	.p2align	4, 0x90
"?dtor$1@?0?_ZN102_$LT$core..iter..adapters..map..Map$LT$I$C$F$GT$$u20$as$u20$core..iter..traits..iterator..Iterator$GT$4fold17h3b39b87cd191c7dfE@4HA":
.seh_proc "?dtor$1@?0?_ZN102_$LT$core..iter..adapters..map..Map$LT$I$C$F$GT$$u20$as$u20$core..iter..traits..iterator..Iterator$GT$4fold17h3b39b87cd191c7dfE@4HA"
.LBB2_1:
	movq	%rdx, 16(%rsp)
	pushq	%rbp
	.seh_pushreg %rbp
	subq	$32, %rsp
	.seh_stackalloc 32
	leaq	96(%rdx), %rbp
	.seh_endprologue
	addq	$32, %rsp
	popq	%rbp
	retq
.Lfunc_end1:
	.seh_handlerdata
	.section	.text,"xr",one_only,_ZN102_$LT$core..iter..adapters..map..Map$LT$I$C$F$GT$$u20$as$u20$core..iter..traits..iterator..Iterator$GT$4fold17h3b39b87cd191c7dfE
	.seh_endproc
	.section	.xdata,"dr",associative,_ZN102_$LT$core..iter..adapters..map..Map$LT$I$C$F$GT$$u20$as$u20$core..iter..traits..iterator..Iterator$GT$4fold17h3b39b87cd191c7dfE
	.p2align	2, 0x0
$cppxdata$_ZN102_$LT$core..iter..adapters..map..Map$LT$I$C$F$GT$$u20$as$u20$core..iter..traits..iterator..Iterator$GT$4fold17h3b39b87cd191c7dfE:
	.long	429065506
	.long	1
	.long	($stateUnwindMap$_ZN102_$LT$core..iter..adapters..map..Map$LT$I$C$F$GT$$u20$as$u20$core..iter..traits..iterator..Iterator$GT$4fold17h3b39b87cd191c7dfE)@IMGREL
	.long	0
	.long	0
	.long	3
	.long	($ip2state$_ZN102_$LT$core..iter..adapters..map..Map$LT$I$C$F$GT$$u20$as$u20$core..iter..traits..iterator..Iterator$GT$4fold17h3b39b87cd191c7dfE)@IMGREL
	.long	88
	.long	0
	.long	1
$stateUnwindMap$_ZN102_$LT$core..iter..adapters..map..Map$LT$I$C$F$GT$$u20$as$u20$core..iter..traits..iterator..Iterator$GT$4fold17h3b39b87cd191c7dfE:
	.long	-1
	.long	"?dtor$1@?0?_ZN102_$LT$core..iter..adapters..map..Map$LT$I$C$F$GT$$u20$as$u20$core..iter..traits..iterator..Iterator$GT$4fold17h3b39b87cd191c7dfE@4HA"@IMGREL
$ip2state$_ZN102_$LT$core..iter..adapters..map..Map$LT$I$C$F$GT$$u20$as$u20$core..iter..traits..iterator..Iterator$GT$4fold17h3b39b87cd191c7dfE:
	.long	.Lfunc_begin1@IMGREL
	.long	-1
	.long	.Ltmp2@IMGREL+1
	.long	0
	.long	.Ltmp3@IMGREL+1
	.long	-1
	.section	.text,"xr",one_only,_ZN102_$LT$core..iter..adapters..map..Map$LT$I$C$F$GT$$u20$as$u20$core..iter..traits..iterator..Iterator$GT$4fold17h3b39b87cd191c7dfE

	.def	_ZN102_$LT$core..iter..adapters..map..Map$LT$I$C$F$GT$$u20$as$u20$core..iter..traits..iterator..Iterator$GT$4fold17h799a7bf2cba153c1E;
	.scl	2;
	.type	32;
	.endef
	.section	.text,"xr",one_only,_ZN102_$LT$core..iter..adapters..map..Map$LT$I$C$F$GT$$u20$as$u20$core..iter..traits..iterator..Iterator$GT$4fold17h799a7bf2cba153c1E
	.globl	_ZN102_$LT$core..iter..adapters..map..Map$LT$I$C$F$GT$$u20$as$u20$core..iter..traits..iterator..Iterator$GT$4fold17h799a7bf2cba153c1E
	.p2align	4, 0x90
_ZN102_$LT$core..iter..adapters..map..Map$LT$I$C$F$GT$$u20$as$u20$core..iter..traits..iterator..Iterator$GT$4fold17h799a7bf2cba153c1E:
.Lfunc_begin2:
.seh_proc _ZN102_$LT$core..iter..adapters..map..Map$LT$I$C$F$GT$$u20$as$u20$core..iter..traits..iterator..Iterator$GT$4fold17h799a7bf2cba153c1E
	.seh_handler __CxxFrameHandler3, @unwind, @except
	pushq	%rbp
	.seh_pushreg %rbp
	subq	$96, %rsp
	.seh_stackalloc 96
	leaq	96(%rsp), %rbp
	.seh_setframe %rbp, 96
	.seh_endprologue
	movq	$-2, -8(%rbp)
	movq	32(%rcx), %rax
	movq	%rax, -32(%rbp)
	vmovups	(%rcx), %ymm0
	vmovups	%ymm0, -64(%rbp)
	movq	40(%rcx), %rax
	movq	%rdx, -24(%rbp)
	movq	%rax, -16(%rbp)
	movq	-24(%rbp), %rdx
	movq	-16(%rbp), %r8
.Ltmp4:
	leaq	-64(%rbp), %rcx
	vzeroupper
	callq	_ZN4core4iter6traits8iterator8Iterator4fold17h436e22b4ded682acE
.Ltmp5:
	jmp	.LBB3_2
.LBB3_2:
	addq	$96, %rsp
	popq	%rbp
	retq
	.seh_handlerdata
	.long	($cppxdata$_ZN102_$LT$core..iter..adapters..map..Map$LT$I$C$F$GT$$u20$as$u20$core..iter..traits..iterator..Iterator$GT$4fold17h799a7bf2cba153c1E)@IMGREL
	.section	.text,"xr",one_only,_ZN102_$LT$core..iter..adapters..map..Map$LT$I$C$F$GT$$u20$as$u20$core..iter..traits..iterator..Iterator$GT$4fold17h799a7bf2cba153c1E
	.seh_endproc
	.def	"?dtor$1@?0?_ZN102_$LT$core..iter..adapters..map..Map$LT$I$C$F$GT$$u20$as$u20$core..iter..traits..iterator..Iterator$GT$4fold17h799a7bf2cba153c1E@4HA";
	.scl	3;
	.type	32;
	.endef
	.p2align	4, 0x90
"?dtor$1@?0?_ZN102_$LT$core..iter..adapters..map..Map$LT$I$C$F$GT$$u20$as$u20$core..iter..traits..iterator..Iterator$GT$4fold17h799a7bf2cba153c1E@4HA":
.seh_proc "?dtor$1@?0?_ZN102_$LT$core..iter..adapters..map..Map$LT$I$C$F$GT$$u20$as$u20$core..iter..traits..iterator..Iterator$GT$4fold17h799a7bf2cba153c1E@4HA"
.LBB3_1:
	movq	%rdx, 16(%rsp)
	pushq	%rbp
	.seh_pushreg %rbp
	subq	$32, %rsp
	.seh_stackalloc 32
	leaq	96(%rdx), %rbp
	.seh_endprologue
	addq	$32, %rsp
	popq	%rbp
	retq
.Lfunc_end2:
	.seh_handlerdata
	.section	.text,"xr",one_only,_ZN102_$LT$core..iter..adapters..map..Map$LT$I$C$F$GT$$u20$as$u20$core..iter..traits..iterator..Iterator$GT$4fold17h799a7bf2cba153c1E
	.seh_endproc
	.section	.xdata,"dr",associative,_ZN102_$LT$core..iter..adapters..map..Map$LT$I$C$F$GT$$u20$as$u20$core..iter..traits..iterator..Iterator$GT$4fold17h799a7bf2cba153c1E
	.p2align	2, 0x0
$cppxdata$_ZN102_$LT$core..iter..adapters..map..Map$LT$I$C$F$GT$$u20$as$u20$core..iter..traits..iterator..Iterator$GT$4fold17h799a7bf2cba153c1E:
	.long	429065506
	.long	1
	.long	($stateUnwindMap$_ZN102_$LT$core..iter..adapters..map..Map$LT$I$C$F$GT$$u20$as$u20$core..iter..traits..iterator..Iterator$GT$4fold17h799a7bf2cba153c1E)@IMGREL
	.long	0
	.long	0
	.long	3
	.long	($ip2state$_ZN102_$LT$core..iter..adapters..map..Map$LT$I$C$F$GT$$u20$as$u20$core..iter..traits..iterator..Iterator$GT$4fold17h799a7bf2cba153c1E)@IMGREL
	.long	88
	.long	0
	.long	1
$stateUnwindMap$_ZN102_$LT$core..iter..adapters..map..Map$LT$I$C$F$GT$$u20$as$u20$core..iter..traits..iterator..Iterator$GT$4fold17h799a7bf2cba153c1E:
	.long	-1
	.long	"?dtor$1@?0?_ZN102_$LT$core..iter..adapters..map..Map$LT$I$C$F$GT$$u20$as$u20$core..iter..traits..iterator..Iterator$GT$4fold17h799a7bf2cba153c1E@4HA"@IMGREL
$ip2state$_ZN102_$LT$core..iter..adapters..map..Map$LT$I$C$F$GT$$u20$as$u20$core..iter..traits..iterator..Iterator$GT$4fold17h799a7bf2cba153c1E:
	.long	.Lfunc_begin2@IMGREL
	.long	-1
	.long	.Ltmp4@IMGREL+1
	.long	0
	.long	.Ltmp5@IMGREL+1
	.long	-1
	.section	.text,"xr",one_only,_ZN102_$LT$core..iter..adapters..map..Map$LT$I$C$F$GT$$u20$as$u20$core..iter..traits..iterator..Iterator$GT$4fold17h799a7bf2cba153c1E

	.def	_ZN102_$LT$core..iter..adapters..map..Map$LT$I$C$F$GT$$u20$as$u20$core..iter..traits..iterator..Iterator$GT$4fold17h8b6571e3063cb86eE;
	.scl	2;
	.type	32;
	.endef
	.section	.text,"xr",one_only,_ZN102_$LT$core..iter..adapters..map..Map$LT$I$C$F$GT$$u20$as$u20$core..iter..traits..iterator..Iterator$GT$4fold17h8b6571e3063cb86eE
	.globl	_ZN102_$LT$core..iter..adapters..map..Map$LT$I$C$F$GT$$u20$as$u20$core..iter..traits..iterator..Iterator$GT$4fold17h8b6571e3063cb86eE
	.p2align	4, 0x90
_ZN102_$LT$core..iter..adapters..map..Map$LT$I$C$F$GT$$u20$as$u20$core..iter..traits..iterator..Iterator$GT$4fold17h8b6571e3063cb86eE:
.Lfunc_begin3:
.seh_proc _ZN102_$LT$core..iter..adapters..map..Map$LT$I$C$F$GT$$u20$as$u20$core..iter..traits..iterator..Iterator$GT$4fold17h8b6571e3063cb86eE
	.seh_handler __CxxFrameHandler3, @unwind, @except
	pushq	%rbp
	.seh_pushreg %rbp
	subq	$80, %rsp
	.seh_stackalloc 80
	leaq	80(%rsp), %rbp
	.seh_setframe %rbp, 80
	.seh_endprologue
	movq	$-2, -8(%rbp)
	vmovups	(%rcx), %ymm0
	vmovups	%ymm0, -48(%rbp)
	movq	%rdx, -16(%rbp)
	movq	-16(%rbp), %rdx
.Ltmp6:
	leaq	-48(%rbp), %rcx
	vzeroupper
	callq	_ZN102_$LT$core..iter..adapters..map..Map$LT$I$C$F$GT$$u20$as$u20$core..iter..traits..iterator..Iterator$GT$4fold17ha53d6fb01e84d9ebE
.Ltmp7:
	jmp	.LBB4_2
.LBB4_2:
	addq	$80, %rsp
	popq	%rbp
	retq
	.seh_handlerdata
	.long	($cppxdata$_ZN102_$LT$core..iter..adapters..map..Map$LT$I$C$F$GT$$u20$as$u20$core..iter..traits..iterator..Iterator$GT$4fold17h8b6571e3063cb86eE)@IMGREL
	.section	.text,"xr",one_only,_ZN102_$LT$core..iter..adapters..map..Map$LT$I$C$F$GT$$u20$as$u20$core..iter..traits..iterator..Iterator$GT$4fold17h8b6571e3063cb86eE
	.seh_endproc
	.def	"?dtor$1@?0?_ZN102_$LT$core..iter..adapters..map..Map$LT$I$C$F$GT$$u20$as$u20$core..iter..traits..iterator..Iterator$GT$4fold17h8b6571e3063cb86eE@4HA";
	.scl	3;
	.type	32;
	.endef
	.p2align	4, 0x90
"?dtor$1@?0?_ZN102_$LT$core..iter..adapters..map..Map$LT$I$C$F$GT$$u20$as$u20$core..iter..traits..iterator..Iterator$GT$4fold17h8b6571e3063cb86eE@4HA":
.seh_proc "?dtor$1@?0?_ZN102_$LT$core..iter..adapters..map..Map$LT$I$C$F$GT$$u20$as$u20$core..iter..traits..iterator..Iterator$GT$4fold17h8b6571e3063cb86eE@4HA"
.LBB4_1:
	movq	%rdx, 16(%rsp)
	pushq	%rbp
	.seh_pushreg %rbp
	subq	$32, %rsp
	.seh_stackalloc 32
	leaq	80(%rdx), %rbp
	.seh_endprologue
	addq	$32, %rsp
	popq	%rbp
	retq
.Lfunc_end3:
	.seh_handlerdata
	.section	.text,"xr",one_only,_ZN102_$LT$core..iter..adapters..map..Map$LT$I$C$F$GT$$u20$as$u20$core..iter..traits..iterator..Iterator$GT$4fold17h8b6571e3063cb86eE
	.seh_endproc
	.section	.xdata,"dr",associative,_ZN102_$LT$core..iter..adapters..map..Map$LT$I$C$F$GT$$u20$as$u20$core..iter..traits..iterator..Iterator$GT$4fold17h8b6571e3063cb86eE
	.p2align	2, 0x0
$cppxdata$_ZN102_$LT$core..iter..adapters..map..Map$LT$I$C$F$GT$$u20$as$u20$core..iter..traits..iterator..Iterator$GT$4fold17h8b6571e3063cb86eE:
	.long	429065506
	.long	1
	.long	($stateUnwindMap$_ZN102_$LT$core..iter..adapters..map..Map$LT$I$C$F$GT$$u20$as$u20$core..iter..traits..iterator..Iterator$GT$4fold17h8b6571e3063cb86eE)@IMGREL
	.long	0
	.long	0
	.long	3
	.long	($ip2state$_ZN102_$LT$core..iter..adapters..map..Map$LT$I$C$F$GT$$u20$as$u20$core..iter..traits..iterator..Iterator$GT$4fold17h8b6571e3063cb86eE)@IMGREL
	.long	72
	.long	0
	.long	1
$stateUnwindMap$_ZN102_$LT$core..iter..adapters..map..Map$LT$I$C$F$GT$$u20$as$u20$core..iter..traits..iterator..Iterator$GT$4fold17h8b6571e3063cb86eE:
	.long	-1
	.long	"?dtor$1@?0?_ZN102_$LT$core..iter..adapters..map..Map$LT$I$C$F$GT$$u20$as$u20$core..iter..traits..iterator..Iterator$GT$4fold17h8b6571e3063cb86eE@4HA"@IMGREL
$ip2state$_ZN102_$LT$core..iter..adapters..map..Map$LT$I$C$F$GT$$u20$as$u20$core..iter..traits..iterator..Iterator$GT$4fold17h8b6571e3063cb86eE:
	.long	.Lfunc_begin3@IMGREL
	.long	-1
	.long	.Ltmp6@IMGREL+1
	.long	0
	.long	.Ltmp7@IMGREL+1
	.long	-1
	.section	.text,"xr",one_only,_ZN102_$LT$core..iter..adapters..map..Map$LT$I$C$F$GT$$u20$as$u20$core..iter..traits..iterator..Iterator$GT$4fold17h8b6571e3063cb86eE

	.def	_ZN102_$LT$core..iter..adapters..map..Map$LT$I$C$F$GT$$u20$as$u20$core..iter..traits..iterator..Iterator$GT$4fold17ha53d6fb01e84d9ebE;
	.scl	2;
	.type	32;
	.endef
	.section	.text,"xr",one_only,_ZN102_$LT$core..iter..adapters..map..Map$LT$I$C$F$GT$$u20$as$u20$core..iter..traits..iterator..Iterator$GT$4fold17ha53d6fb01e84d9ebE
	.globl	_ZN102_$LT$core..iter..adapters..map..Map$LT$I$C$F$GT$$u20$as$u20$core..iter..traits..iterator..Iterator$GT$4fold17ha53d6fb01e84d9ebE
	.p2align	4, 0x90
_ZN102_$LT$core..iter..adapters..map..Map$LT$I$C$F$GT$$u20$as$u20$core..iter..traits..iterator..Iterator$GT$4fold17ha53d6fb01e84d9ebE:
.Lfunc_begin4:
.seh_proc _ZN102_$LT$core..iter..adapters..map..Map$LT$I$C$F$GT$$u20$as$u20$core..iter..traits..iterator..Iterator$GT$4fold17ha53d6fb01e84d9ebE
	.seh_handler __CxxFrameHandler3, @unwind, @except
	pushq	%rbp
	.seh_pushreg %rbp
	subq	$80, %rsp
	.seh_stackalloc 80
	leaq	80(%rsp), %rbp
	.seh_setframe %rbp, 80
	.seh_endprologue
	movq	$-2, -8(%rbp)
	vmovups	(%rcx), %ymm0
	vmovups	%ymm0, -48(%rbp)
	movq	%rdx, -16(%rbp)
	movq	-16(%rbp), %rdx
.Ltmp8:
	leaq	-48(%rbp), %rcx
	vzeroupper
	callq	_ZN4core4iter6traits8iterator8Iterator4fold17h6a02e645f496c322E
.Ltmp9:
	jmp	.LBB5_2
.LBB5_2:
	addq	$80, %rsp
	popq	%rbp
	retq
	.seh_handlerdata
	.long	($cppxdata$_ZN102_$LT$core..iter..adapters..map..Map$LT$I$C$F$GT$$u20$as$u20$core..iter..traits..iterator..Iterator$GT$4fold17ha53d6fb01e84d9ebE)@IMGREL
	.section	.text,"xr",one_only,_ZN102_$LT$core..iter..adapters..map..Map$LT$I$C$F$GT$$u20$as$u20$core..iter..traits..iterator..Iterator$GT$4fold17ha53d6fb01e84d9ebE
	.seh_endproc
	.def	"?dtor$1@?0?_ZN102_$LT$core..iter..adapters..map..Map$LT$I$C$F$GT$$u20$as$u20$core..iter..traits..iterator..Iterator$GT$4fold17ha53d6fb01e84d9ebE@4HA";
	.scl	3;
	.type	32;
	.endef
	.p2align	4, 0x90
"?dtor$1@?0?_ZN102_$LT$core..iter..adapters..map..Map$LT$I$C$F$GT$$u20$as$u20$core..iter..traits..iterator..Iterator$GT$4fold17ha53d6fb01e84d9ebE@4HA":
.seh_proc "?dtor$1@?0?_ZN102_$LT$core..iter..adapters..map..Map$LT$I$C$F$GT$$u20$as$u20$core..iter..traits..iterator..Iterator$GT$4fold17ha53d6fb01e84d9ebE@4HA"
.LBB5_1:
	movq	%rdx, 16(%rsp)
	pushq	%rbp
	.seh_pushreg %rbp
	subq	$32, %rsp
	.seh_stackalloc 32
	leaq	80(%rdx), %rbp
	.seh_endprologue
	addq	$32, %rsp
	popq	%rbp
	retq
.Lfunc_end4:
	.seh_handlerdata
	.section	.text,"xr",one_only,_ZN102_$LT$core..iter..adapters..map..Map$LT$I$C$F$GT$$u20$as$u20$core..iter..traits..iterator..Iterator$GT$4fold17ha53d6fb01e84d9ebE
	.seh_endproc
	.section	.xdata,"dr",associative,_ZN102_$LT$core..iter..adapters..map..Map$LT$I$C$F$GT$$u20$as$u20$core..iter..traits..iterator..Iterator$GT$4fold17ha53d6fb01e84d9ebE
	.p2align	2, 0x0
$cppxdata$_ZN102_$LT$core..iter..adapters..map..Map$LT$I$C$F$GT$$u20$as$u20$core..iter..traits..iterator..Iterator$GT$4fold17ha53d6fb01e84d9ebE:
	.long	429065506
	.long	1
	.long	($stateUnwindMap$_ZN102_$LT$core..iter..adapters..map..Map$LT$I$C$F$GT$$u20$as$u20$core..iter..traits..iterator..Iterator$GT$4fold17ha53d6fb01e84d9ebE)@IMGREL
	.long	0
	.long	0
	.long	3
	.long	($ip2state$_ZN102_$LT$core..iter..adapters..map..Map$LT$I$C$F$GT$$u20$as$u20$core..iter..traits..iterator..Iterator$GT$4fold17ha53d6fb01e84d9ebE)@IMGREL
	.long	72
	.long	0
	.long	1
$stateUnwindMap$_ZN102_$LT$core..iter..adapters..map..Map$LT$I$C$F$GT$$u20$as$u20$core..iter..traits..iterator..Iterator$GT$4fold17ha53d6fb01e84d9ebE:
	.long	-1
	.long	"?dtor$1@?0?_ZN102_$LT$core..iter..adapters..map..Map$LT$I$C$F$GT$$u20$as$u20$core..iter..traits..iterator..Iterator$GT$4fold17ha53d6fb01e84d9ebE@4HA"@IMGREL
$ip2state$_ZN102_$LT$core..iter..adapters..map..Map$LT$I$C$F$GT$$u20$as$u20$core..iter..traits..iterator..Iterator$GT$4fold17ha53d6fb01e84d9ebE:
	.long	.Lfunc_begin4@IMGREL
	.long	-1
	.long	.Ltmp8@IMGREL+1
	.long	0
	.long	.Ltmp9@IMGREL+1
	.long	-1
	.section	.text,"xr",one_only,_ZN102_$LT$core..iter..adapters..map..Map$LT$I$C$F$GT$$u20$as$u20$core..iter..traits..iterator..Iterator$GT$4fold17ha53d6fb01e84d9ebE

	.def	_ZN102_$LT$core..iter..adapters..map..Map$LT$I$C$F$GT$$u20$as$u20$core..iter..traits..iterator..Iterator$GT$4fold17ha95fb1fb03129738E;
	.scl	2;
	.type	32;
	.endef
	.section	.text,"xr",one_only,_ZN102_$LT$core..iter..adapters..map..Map$LT$I$C$F$GT$$u20$as$u20$core..iter..traits..iterator..Iterator$GT$4fold17ha95fb1fb03129738E
	.globl	_ZN102_$LT$core..iter..adapters..map..Map$LT$I$C$F$GT$$u20$as$u20$core..iter..traits..iterator..Iterator$GT$4fold17ha95fb1fb03129738E
	.p2align	4, 0x90
_ZN102_$LT$core..iter..adapters..map..Map$LT$I$C$F$GT$$u20$as$u20$core..iter..traits..iterator..Iterator$GT$4fold17ha95fb1fb03129738E:
.Lfunc_begin5:
.seh_proc _ZN102_$LT$core..iter..adapters..map..Map$LT$I$C$F$GT$$u20$as$u20$core..iter..traits..iterator..Iterator$GT$4fold17ha95fb1fb03129738E
	.seh_handler __CxxFrameHandler3, @unwind, @except
	pushq	%rbp
	.seh_pushreg %rbp
	subq	$96, %rsp
	.seh_stackalloc 96
	leaq	96(%rsp), %rbp
	.seh_setframe %rbp, 96
	.seh_endprologue
	movq	$-2, -8(%rbp)
	movq	32(%rcx), %rax
	movq	%rax, -32(%rbp)
	vmovups	(%rcx), %ymm0
	vmovups	%ymm0, -64(%rbp)
	movq	40(%rcx), %rax
	movq	%rdx, -24(%rbp)
	movq	%rax, -16(%rbp)
	movq	-24(%rbp), %rdx
	movq	-16(%rbp), %r8
.Ltmp10:
	leaq	-64(%rbp), %rcx
	vzeroupper
	callq	_ZN4core4iter6traits8iterator8Iterator4fold17h53c452ece101685dE
.Ltmp11:
	jmp	.LBB6_2
.LBB6_2:
	addq	$96, %rsp
	popq	%rbp
	retq
	.seh_handlerdata
	.long	($cppxdata$_ZN102_$LT$core..iter..adapters..map..Map$LT$I$C$F$GT$$u20$as$u20$core..iter..traits..iterator..Iterator$GT$4fold17ha95fb1fb03129738E)@IMGREL
	.section	.text,"xr",one_only,_ZN102_$LT$core..iter..adapters..map..Map$LT$I$C$F$GT$$u20$as$u20$core..iter..traits..iterator..Iterator$GT$4fold17ha95fb1fb03129738E
	.seh_endproc
	.def	"?dtor$1@?0?_ZN102_$LT$core..iter..adapters..map..Map$LT$I$C$F$GT$$u20$as$u20$core..iter..traits..iterator..Iterator$GT$4fold17ha95fb1fb03129738E@4HA";
	.scl	3;
	.type	32;
	.endef
	.p2align	4, 0x90
"?dtor$1@?0?_ZN102_$LT$core..iter..adapters..map..Map$LT$I$C$F$GT$$u20$as$u20$core..iter..traits..iterator..Iterator$GT$4fold17ha95fb1fb03129738E@4HA":
.seh_proc "?dtor$1@?0?_ZN102_$LT$core..iter..adapters..map..Map$LT$I$C$F$GT$$u20$as$u20$core..iter..traits..iterator..Iterator$GT$4fold17ha95fb1fb03129738E@4HA"
.LBB6_1:
	movq	%rdx, 16(%rsp)
	pushq	%rbp
	.seh_pushreg %rbp
	subq	$32, %rsp
	.seh_stackalloc 32
	leaq	96(%rdx), %rbp
	.seh_endprologue
	addq	$32, %rsp
	popq	%rbp
	retq
.Lfunc_end5:
	.seh_handlerdata
	.section	.text,"xr",one_only,_ZN102_$LT$core..iter..adapters..map..Map$LT$I$C$F$GT$$u20$as$u20$core..iter..traits..iterator..Iterator$GT$4fold17ha95fb1fb03129738E
	.seh_endproc
	.section	.xdata,"dr",associative,_ZN102_$LT$core..iter..adapters..map..Map$LT$I$C$F$GT$$u20$as$u20$core..iter..traits..iterator..Iterator$GT$4fold17ha95fb1fb03129738E
	.p2align	2, 0x0
$cppxdata$_ZN102_$LT$core..iter..adapters..map..Map$LT$I$C$F$GT$$u20$as$u20$core..iter..traits..iterator..Iterator$GT$4fold17ha95fb1fb03129738E:
	.long	429065506
	.long	1
	.long	($stateUnwindMap$_ZN102_$LT$core..iter..adapters..map..Map$LT$I$C$F$GT$$u20$as$u20$core..iter..traits..iterator..Iterator$GT$4fold17ha95fb1fb03129738E)@IMGREL
	.long	0
	.long	0
	.long	3
	.long	($ip2state$_ZN102_$LT$core..iter..adapters..map..Map$LT$I$C$F$GT$$u20$as$u20$core..iter..traits..iterator..Iterator$GT$4fold17ha95fb1fb03129738E)@IMGREL
	.long	88
	.long	0
	.long	1
$stateUnwindMap$_ZN102_$LT$core..iter..adapters..map..Map$LT$I$C$F$GT$$u20$as$u20$core..iter..traits..iterator..Iterator$GT$4fold17ha95fb1fb03129738E:
	.long	-1
	.long	"?dtor$1@?0?_ZN102_$LT$core..iter..adapters..map..Map$LT$I$C$F$GT$$u20$as$u20$core..iter..traits..iterator..Iterator$GT$4fold17ha95fb1fb03129738E@4HA"@IMGREL
$ip2state$_ZN102_$LT$core..iter..adapters..map..Map$LT$I$C$F$GT$$u20$as$u20$core..iter..traits..iterator..Iterator$GT$4fold17ha95fb1fb03129738E:
	.long	.Lfunc_begin5@IMGREL
	.long	-1
	.long	.Ltmp10@IMGREL+1
	.long	0
	.long	.Ltmp11@IMGREL+1
	.long	-1
	.section	.text,"xr",one_only,_ZN102_$LT$core..iter..adapters..map..Map$LT$I$C$F$GT$$u20$as$u20$core..iter..traits..iterator..Iterator$GT$4fold17ha95fb1fb03129738E

	.def	_ZN102_$LT$core..iter..adapters..map..Map$LT$I$C$F$GT$$u20$as$u20$core..iter..traits..iterator..Iterator$GT$4fold17hac90aa80a07823e4E;
	.scl	2;
	.type	32;
	.endef
	.section	.text,"xr",one_only,_ZN102_$LT$core..iter..adapters..map..Map$LT$I$C$F$GT$$u20$as$u20$core..iter..traits..iterator..Iterator$GT$4fold17hac90aa80a07823e4E
	.globl	_ZN102_$LT$core..iter..adapters..map..Map$LT$I$C$F$GT$$u20$as$u20$core..iter..traits..iterator..Iterator$GT$4fold17hac90aa80a07823e4E
	.p2align	4, 0x90
_ZN102_$LT$core..iter..adapters..map..Map$LT$I$C$F$GT$$u20$as$u20$core..iter..traits..iterator..Iterator$GT$4fold17hac90aa80a07823e4E:
.Lfunc_begin6:
.seh_proc _ZN102_$LT$core..iter..adapters..map..Map$LT$I$C$F$GT$$u20$as$u20$core..iter..traits..iterator..Iterator$GT$4fold17hac90aa80a07823e4E
	.seh_handler __CxxFrameHandler3, @unwind, @except
	pushq	%rbp
	.seh_pushreg %rbp
	subq	$96, %rsp
	.seh_stackalloc 96
	leaq	96(%rsp), %rbp
	.seh_setframe %rbp, 96
	.seh_endprologue
	movq	$-2, -8(%rbp)
	movq	32(%rcx), %rax
	movq	%rax, -16(%rbp)
	vmovups	(%rcx), %ymm0
	vmovups	%ymm0, -48(%rbp)
.Ltmp12:
	leaq	-48(%rbp), %rcx
	vzeroupper
	callq	_ZN4core4iter6traits8iterator8Iterator4fold17h68a8ab6f09abb2b1E
.Ltmp13:
	movl	%edx, -56(%rbp)
	movl	%eax, -52(%rbp)
	jmp	.LBB7_2
.LBB7_2:
	movl	-56(%rbp), %edx
	movl	-52(%rbp), %eax
	addq	$96, %rsp
	popq	%rbp
	retq
	.seh_handlerdata
	.long	($cppxdata$_ZN102_$LT$core..iter..adapters..map..Map$LT$I$C$F$GT$$u20$as$u20$core..iter..traits..iterator..Iterator$GT$4fold17hac90aa80a07823e4E)@IMGREL
	.section	.text,"xr",one_only,_ZN102_$LT$core..iter..adapters..map..Map$LT$I$C$F$GT$$u20$as$u20$core..iter..traits..iterator..Iterator$GT$4fold17hac90aa80a07823e4E
	.seh_endproc
	.def	"?dtor$1@?0?_ZN102_$LT$core..iter..adapters..map..Map$LT$I$C$F$GT$$u20$as$u20$core..iter..traits..iterator..Iterator$GT$4fold17hac90aa80a07823e4E@4HA";
	.scl	3;
	.type	32;
	.endef
	.p2align	4, 0x90
"?dtor$1@?0?_ZN102_$LT$core..iter..adapters..map..Map$LT$I$C$F$GT$$u20$as$u20$core..iter..traits..iterator..Iterator$GT$4fold17hac90aa80a07823e4E@4HA":
.seh_proc "?dtor$1@?0?_ZN102_$LT$core..iter..adapters..map..Map$LT$I$C$F$GT$$u20$as$u20$core..iter..traits..iterator..Iterator$GT$4fold17hac90aa80a07823e4E@4HA"
.LBB7_1:
	movq	%rdx, 16(%rsp)
	pushq	%rbp
	.seh_pushreg %rbp
	subq	$32, %rsp
	.seh_stackalloc 32
	leaq	96(%rdx), %rbp
	.seh_endprologue
	addq	$32, %rsp
	popq	%rbp
	retq
.Lfunc_end6:
	.seh_handlerdata
	.section	.text,"xr",one_only,_ZN102_$LT$core..iter..adapters..map..Map$LT$I$C$F$GT$$u20$as$u20$core..iter..traits..iterator..Iterator$GT$4fold17hac90aa80a07823e4E
	.seh_endproc
	.section	.xdata,"dr",associative,_ZN102_$LT$core..iter..adapters..map..Map$LT$I$C$F$GT$$u20$as$u20$core..iter..traits..iterator..Iterator$GT$4fold17hac90aa80a07823e4E
	.p2align	2, 0x0
$cppxdata$_ZN102_$LT$core..iter..adapters..map..Map$LT$I$C$F$GT$$u20$as$u20$core..iter..traits..iterator..Iterator$GT$4fold17hac90aa80a07823e4E:
	.long	429065506
	.long	1
	.long	($stateUnwindMap$_ZN102_$LT$core..iter..adapters..map..Map$LT$I$C$F$GT$$u20$as$u20$core..iter..traits..iterator..Iterator$GT$4fold17hac90aa80a07823e4E)@IMGREL
	.long	0
	.long	0
	.long	3
	.long	($ip2state$_ZN102_$LT$core..iter..adapters..map..Map$LT$I$C$F$GT$$u20$as$u20$core..iter..traits..iterator..Iterator$GT$4fold17hac90aa80a07823e4E)@IMGREL
	.long	88
	.long	0
	.long	1
$stateUnwindMap$_ZN102_$LT$core..iter..adapters..map..Map$LT$I$C$F$GT$$u20$as$u20$core..iter..traits..iterator..Iterator$GT$4fold17hac90aa80a07823e4E:
	.long	-1
	.long	"?dtor$1@?0?_ZN102_$LT$core..iter..adapters..map..Map$LT$I$C$F$GT$$u20$as$u20$core..iter..traits..iterator..Iterator$GT$4fold17hac90aa80a07823e4E@4HA"@IMGREL
$ip2state$_ZN102_$LT$core..iter..adapters..map..Map$LT$I$C$F$GT$$u20$as$u20$core..iter..traits..iterator..Iterator$GT$4fold17hac90aa80a07823e4E:
	.long	.Lfunc_begin6@IMGREL
	.long	-1
	.long	.Ltmp12@IMGREL+1
	.long	0
	.long	.Ltmp13@IMGREL+1
	.long	-1
	.section	.text,"xr",one_only,_ZN102_$LT$core..iter..adapters..map..Map$LT$I$C$F$GT$$u20$as$u20$core..iter..traits..iterator..Iterator$GT$4fold17hac90aa80a07823e4E

	.def	_ZN102_$LT$core..iter..adapters..map..Map$LT$I$C$F$GT$$u20$as$u20$core..iter..traits..iterator..Iterator$GT$4next17h3233e794deafb9f6E;
	.scl	2;
	.type	32;
	.endef
	.section	.text,"xr",one_only,_ZN102_$LT$core..iter..adapters..map..Map$LT$I$C$F$GT$$u20$as$u20$core..iter..traits..iterator..Iterator$GT$4next17h3233e794deafb9f6E
	.globl	_ZN102_$LT$core..iter..adapters..map..Map$LT$I$C$F$GT$$u20$as$u20$core..iter..traits..iterator..Iterator$GT$4next17h3233e794deafb9f6E
	.p2align	4, 0x90
_ZN102_$LT$core..iter..adapters..map..Map$LT$I$C$F$GT$$u20$as$u20$core..iter..traits..iterator..Iterator$GT$4next17h3233e794deafb9f6E:
.seh_proc _ZN102_$LT$core..iter..adapters..map..Map$LT$I$C$F$GT$$u20$as$u20$core..iter..traits..iterator..Iterator$GT$4next17h3233e794deafb9f6E
	subq	$152, %rsp
	.seh_stackalloc 152
	.seh_endprologue
	movq	%rcx, %rdx
	movq	%rdx, 32(%rsp)
	leaq	56(%rsp), %rcx
	callq	_ZN94_$LT$proc_macro2..token_stream..IntoIter$u20$as$u20$core..iter..traits..iterator..Iterator$GT$4next17he0a2d43ff269a459E
	movq	32(%rsp), %rcx
	addq	$40, %rcx
	movq	%rcx, 40(%rsp)
	movabsq	$-9223372036854775803, %rdx
	movl	$1, %eax
	xorl	%ecx, %ecx
	cmpq	%rdx, 56(%rsp)
	cmoveq	%rcx, %rax
	cmpq	$0, %rax
	jne	.LBB8_2
	movl	$0, 48(%rsp)
	jmp	.LBB8_3
.LBB8_2:
	movq	40(%rsp), %rcx
	movq	56(%rsp), %rax
	movq	%rax, 88(%rsp)
	movq	64(%rsp), %rax
	movq	%rax, 96(%rsp)
	movq	72(%rsp), %rax
	movq	%rax, 104(%rsp)
	movq	80(%rsp), %rax
	movq	%rax, 112(%rsp)
	movq	88(%rsp), %rax
	movq	%rax, 120(%rsp)
	movq	96(%rsp), %rax
	movq	%rax, 128(%rsp)
	movq	104(%rsp), %rax
	movq	%rax, 136(%rsp)
	movq	112(%rsp), %rax
	movq	%rax, 144(%rsp)
	leaq	120(%rsp), %rdx
	callq	_ZN4core3ops8function5impls80_$LT$impl$u20$core..ops..function..FnOnce$LT$A$GT$$u20$for$u20$$RF$mut$u20$F$GT$9call_once17hcc520377558a25e3E
	movl	%eax, 52(%rsp)
	movl	$1, 48(%rsp)
.LBB8_3:
	movl	48(%rsp), %eax
	movl	52(%rsp), %edx
	addq	$152, %rsp
	retq
	.seh_endproc

	.def	_ZN102_$LT$core..iter..adapters..map..Map$LT$I$C$F$GT$$u20$as$u20$core..iter..traits..iterator..Iterator$GT$4next17h778b0c940135877bE;
	.scl	2;
	.type	32;
	.endef
	.section	.text,"xr",one_only,_ZN102_$LT$core..iter..adapters..map..Map$LT$I$C$F$GT$$u20$as$u20$core..iter..traits..iterator..Iterator$GT$4next17h778b0c940135877bE
	.globl	_ZN102_$LT$core..iter..adapters..map..Map$LT$I$C$F$GT$$u20$as$u20$core..iter..traits..iterator..Iterator$GT$4next17h778b0c940135877bE
	.p2align	4, 0x90
_ZN102_$LT$core..iter..adapters..map..Map$LT$I$C$F$GT$$u20$as$u20$core..iter..traits..iterator..Iterator$GT$4next17h778b0c940135877bE:
.seh_proc _ZN102_$LT$core..iter..adapters..map..Map$LT$I$C$F$GT$$u20$as$u20$core..iter..traits..iterator..Iterator$GT$4next17h778b0c940135877bE
	subq	$200, %rsp
	.seh_stackalloc 200
	.seh_endprologue
	movq	%rdx, 56(%rsp)
	movq	%rcx, 40(%rsp)
	movq	%rcx, 48(%rsp)
	leaq	72(%rsp), %rcx
	callq	_ZN94_$LT$proc_macro2..token_stream..IntoIter$u20$as$u20$core..iter..traits..iterator..Iterator$GT$4next17he0a2d43ff269a459E
	movq	56(%rsp), %rdx
	addq	$40, %rdx
	movq	%rdx, 64(%rsp)
	movabsq	$-9223372036854775803, %rdx
	movl	$1, %eax
	xorl	%ecx, %ecx
	cmpq	%rdx, 72(%rsp)
	cmoveq	%rcx, %rax
	cmpq	$0, %rax
	jne	.LBB9_2
	movq	40(%rsp), %rax
	movabsq	$-9223372036854775803, %rcx
	movq	%rcx, (%rax)
	jmp	.LBB9_3
.LBB9_2:
	movq	64(%rsp), %rdx
	movq	72(%rsp), %rax
	movq	%rax, 104(%rsp)
	movq	80(%rsp), %rax
	movq	%rax, 112(%rsp)
	movq	88(%rsp), %rax
	movq	%rax, 120(%rsp)
	movq	96(%rsp), %rax
	movq	%rax, 128(%rsp)
	movq	104(%rsp), %rax
	movq	%rax, 168(%rsp)
	movq	112(%rsp), %rax
	movq	%rax, 176(%rsp)
	movq	120(%rsp), %rax
	movq	%rax, 184(%rsp)
	movq	128(%rsp), %rax
	movq	%rax, 192(%rsp)
	leaq	136(%rsp), %rcx
	leaq	168(%rsp), %r8
	callq	_ZN4core3ops8function5impls80_$LT$impl$u20$core..ops..function..FnOnce$LT$A$GT$$u20$for$u20$$RF$mut$u20$F$GT$9call_once17h26d92ed1169fb7adE
	movq	40(%rsp), %rax
	movq	136(%rsp), %rcx
	movq	%rcx, (%rax)
	movq	144(%rsp), %rcx
	movq	%rcx, 8(%rax)
	movq	152(%rsp), %rcx
	movq	%rcx, 16(%rax)
	movq	160(%rsp), %rcx
	movq	%rcx, 24(%rax)
.LBB9_3:
	movq	48(%rsp), %rax
	addq	$200, %rsp
	retq
	.seh_endproc

	.def	_ZN102_$LT$core..iter..adapters..map..Map$LT$I$C$F$GT$$u20$as$u20$core..iter..traits..iterator..Iterator$GT$4next17hcfba49ab6c6945c9E;
	.scl	2;
	.type	32;
	.endef
	.section	.text,"xr",one_only,_ZN102_$LT$core..iter..adapters..map..Map$LT$I$C$F$GT$$u20$as$u20$core..iter..traits..iterator..Iterator$GT$4next17hcfba49ab6c6945c9E
	.globl	_ZN102_$LT$core..iter..adapters..map..Map$LT$I$C$F$GT$$u20$as$u20$core..iter..traits..iterator..Iterator$GT$4next17hcfba49ab6c6945c9E
	.p2align	4, 0x90
_ZN102_$LT$core..iter..adapters..map..Map$LT$I$C$F$GT$$u20$as$u20$core..iter..traits..iterator..Iterator$GT$4next17hcfba49ab6c6945c9E:
.seh_proc _ZN102_$LT$core..iter..adapters..map..Map$LT$I$C$F$GT$$u20$as$u20$core..iter..traits..iterator..Iterator$GT$4next17hcfba49ab6c6945c9E
	subq	$152, %rsp
	.seh_stackalloc 152
	.seh_endprologue
	movq	%rcx, %rdx
	movq	%rdx, 32(%rsp)
	leaq	56(%rsp), %rcx
	callq	_ZN102_$LT$core..iter..adapters..map..Map$LT$I$C$F$GT$$u20$as$u20$core..iter..traits..iterator..Iterator$GT$4next17hec141d5f0d181d5eE
	movq	32(%rsp), %rcx
	addq	$32, %rcx
	movq	%rcx, 40(%rsp)
	movabsq	$-9223372036854775807, %rdx
	movl	$1, %eax
	xorl	%ecx, %ecx
	cmpq	%rdx, 56(%rsp)
	cmoveq	%rcx, %rax
	cmpq	$0, %rax
	jne	.LBB10_2
	movq	$0, 48(%rsp)
	jmp	.LBB10_3
.LBB10_2:
	movq	40(%rsp), %rcx
	movq	56(%rsp), %rax
	movq	%rax, 88(%rsp)
	movq	64(%rsp), %rax
	movq	%rax, 96(%rsp)
	movq	72(%rsp), %rax
	movq	%rax, 104(%rsp)
	movq	80(%rsp), %rax
	movq	%rax, 112(%rsp)
	movq	88(%rsp), %rax
	movq	%rax, 120(%rsp)
	movq	96(%rsp), %rax
	movq	%rax, 128(%rsp)
	movq	104(%rsp), %rax
	movq	%rax, 136(%rsp)
	movq	112(%rsp), %rax
	movq	%rax, 144(%rsp)
	leaq	120(%rsp), %rdx
	callq	_ZN4core3ops8function5impls80_$LT$impl$u20$core..ops..function..FnOnce$LT$A$GT$$u20$for$u20$$RF$mut$u20$F$GT$9call_once17h98ffa1c9233e6da5E
	movq	%rax, 48(%rsp)
.LBB10_3:
	movq	48(%rsp), %rax
	addq	$152, %rsp
	retq
	.seh_endproc

	.def	_ZN102_$LT$core..iter..adapters..map..Map$LT$I$C$F$GT$$u20$as$u20$core..iter..traits..iterator..Iterator$GT$4next17hec141d5f0d181d5eE;
	.scl	2;
	.type	32;
	.endef
	.section	.text,"xr",one_only,_ZN102_$LT$core..iter..adapters..map..Map$LT$I$C$F$GT$$u20$as$u20$core..iter..traits..iterator..Iterator$GT$4next17hec141d5f0d181d5eE
	.globl	_ZN102_$LT$core..iter..adapters..map..Map$LT$I$C$F$GT$$u20$as$u20$core..iter..traits..iterator..Iterator$GT$4next17hec141d5f0d181d5eE
	.p2align	4, 0x90
_ZN102_$LT$core..iter..adapters..map..Map$LT$I$C$F$GT$$u20$as$u20$core..iter..traits..iterator..Iterator$GT$4next17hec141d5f0d181d5eE:
.seh_proc _ZN102_$LT$core..iter..adapters..map..Map$LT$I$C$F$GT$$u20$as$u20$core..iter..traits..iterator..Iterator$GT$4next17hec141d5f0d181d5eE
	subq	$200, %rsp
	.seh_stackalloc 200
	.seh_endprologue
	movq	%rdx, 56(%rsp)
	movq	%rcx, 40(%rsp)
	movq	%rcx, 48(%rsp)
	leaq	72(%rsp), %rcx
	callq	_ZN99_$LT$core..iter..sources..once..Once$LT$T$GT$$u20$as$u20$core..iter..traits..iterator..Iterator$GT$4next17h902df55e88533f50E
	movq	56(%rsp), %rdx
	addq	$32, %rdx
	movq	%rdx, 64(%rsp)
	movabsq	$-9223372036854775807, %rdx
	movl	$1, %eax
	xorl	%ecx, %ecx
	cmpq	%rdx, 72(%rsp)
	cmoveq	%rcx, %rax
	cmpq	$0, %rax
	jne	.LBB11_2
	movq	40(%rsp), %rax
	movabsq	$-9223372036854775807, %rcx
	movq	%rcx, (%rax)
	jmp	.LBB11_3
.LBB11_2:
	movq	64(%rsp), %rdx
	movq	72(%rsp), %rax
	movq	%rax, 104(%rsp)
	movq	80(%rsp), %rax
	movq	%rax, 112(%rsp)
	movq	88(%rsp), %rax
	movq	%rax, 120(%rsp)
	movq	96(%rsp), %rax
	movq	%rax, 128(%rsp)
	movq	104(%rsp), %rax
	movq	%rax, 168(%rsp)
	movq	112(%rsp), %rax
	movq	%rax, 176(%rsp)
	movq	120(%rsp), %rax
	movq	%rax, 184(%rsp)
	movq	128(%rsp), %rax
	movq	%rax, 192(%rsp)
	leaq	136(%rsp), %rcx
	leaq	168(%rsp), %r8
	callq	_ZN4core3ops8function5impls80_$LT$impl$u20$core..ops..function..FnOnce$LT$A$GT$$u20$for$u20$$RF$mut$u20$F$GT$9call_once17hd6f9e7f41e25e53bE
	movq	40(%rsp), %rax
	movq	136(%rsp), %rcx
	movq	%rcx, (%rax)
	movq	144(%rsp), %rcx
	movq	%rcx, 8(%rax)
	movq	152(%rsp), %rcx
	movq	%rcx, 16(%rax)
	movq	160(%rsp), %rcx
	movq	%rcx, 24(%rax)
.LBB11_3:
	movq	48(%rsp), %rax
	addq	$200, %rsp
	retq
	.seh_endproc

	.def	_ZN102_$LT$core..iter..adapters..map..Map$LT$I$C$F$GT$$u20$as$u20$core..iter..traits..iterator..Iterator$GT$9size_hint17h46551c04fdcf22b7E;
	.scl	2;
	.type	32;
	.endef
	.section	.text,"xr",one_only,_ZN102_$LT$core..iter..adapters..map..Map$LT$I$C$F$GT$$u20$as$u20$core..iter..traits..iterator..Iterator$GT$9size_hint17h46551c04fdcf22b7E
	.globl	_ZN102_$LT$core..iter..adapters..map..Map$LT$I$C$F$GT$$u20$as$u20$core..iter..traits..iterator..Iterator$GT$9size_hint17h46551c04fdcf22b7E
	.p2align	4, 0x90
_ZN102_$LT$core..iter..adapters..map..Map$LT$I$C$F$GT$$u20$as$u20$core..iter..traits..iterator..Iterator$GT$9size_hint17h46551c04fdcf22b7E:
.seh_proc _ZN102_$LT$core..iter..adapters..map..Map$LT$I$C$F$GT$$u20$as$u20$core..iter..traits..iterator..Iterator$GT$9size_hint17h46551c04fdcf22b7E
	subq	$40, %rsp
	.seh_stackalloc 40
	.seh_endprologue
	movq	%rcx, %rax
	movq	%rax, 32(%rsp)
	callq	_ZN102_$LT$core..iter..adapters..map..Map$LT$I$C$F$GT$$u20$as$u20$core..iter..traits..iterator..Iterator$GT$9size_hint17ha942b958c26b3cf6E
	movq	32(%rsp), %rax
	addq	$40, %rsp
	retq
	.seh_endproc

	.def	_ZN102_$LT$core..iter..adapters..map..Map$LT$I$C$F$GT$$u20$as$u20$core..iter..traits..iterator..Iterator$GT$9size_hint17h54a4c8a131ed7947E;
	.scl	2;
	.type	32;
	.endef
	.section	.text,"xr",one_only,_ZN102_$LT$core..iter..adapters..map..Map$LT$I$C$F$GT$$u20$as$u20$core..iter..traits..iterator..Iterator$GT$9size_hint17h54a4c8a131ed7947E
	.globl	_ZN102_$LT$core..iter..adapters..map..Map$LT$I$C$F$GT$$u20$as$u20$core..iter..traits..iterator..Iterator$GT$9size_hint17h54a4c8a131ed7947E
	.p2align	4, 0x90
_ZN102_$LT$core..iter..adapters..map..Map$LT$I$C$F$GT$$u20$as$u20$core..iter..traits..iterator..Iterator$GT$9size_hint17h54a4c8a131ed7947E:
.seh_proc _ZN102_$LT$core..iter..adapters..map..Map$LT$I$C$F$GT$$u20$as$u20$core..iter..traits..iterator..Iterator$GT$9size_hint17h54a4c8a131ed7947E
	subq	$40, %rsp
	.seh_stackalloc 40
	.seh_endprologue
	movq	%rcx, %rax
	movq	%rax, 32(%rsp)
	callq	_ZN102_$LT$core..iter..adapters..map..Map$LT$I$C$F$GT$$u20$as$u20$core..iter..traits..iterator..Iterator$GT$9size_hint17h8b87c221849df64fE
	movq	32(%rsp), %rax
	addq	$40, %rsp
	retq
	.seh_endproc

	.def	_ZN102_$LT$core..iter..adapters..map..Map$LT$I$C$F$GT$$u20$as$u20$core..iter..traits..iterator..Iterator$GT$9size_hint17h8b87c221849df64fE;
	.scl	2;
	.type	32;
	.endef
	.section	.text,"xr",one_only,_ZN102_$LT$core..iter..adapters..map..Map$LT$I$C$F$GT$$u20$as$u20$core..iter..traits..iterator..Iterator$GT$9size_hint17h8b87c221849df64fE
	.globl	_ZN102_$LT$core..iter..adapters..map..Map$LT$I$C$F$GT$$u20$as$u20$core..iter..traits..iterator..Iterator$GT$9size_hint17h8b87c221849df64fE
	.p2align	4, 0x90
_ZN102_$LT$core..iter..adapters..map..Map$LT$I$C$F$GT$$u20$as$u20$core..iter..traits..iterator..Iterator$GT$9size_hint17h8b87c221849df64fE:
.seh_proc _ZN102_$LT$core..iter..adapters..map..Map$LT$I$C$F$GT$$u20$as$u20$core..iter..traits..iterator..Iterator$GT$9size_hint17h8b87c221849df64fE
	subq	$40, %rsp
	.seh_stackalloc 40
	.seh_endprologue
	movq	%rcx, %rax
	movq	%rax, 32(%rsp)
	callq	_ZN94_$LT$proc_macro2..token_stream..IntoIter$u20$as$u20$core..iter..traits..iterator..Iterator$GT$9size_hint17h5efdfcb805dcc009E
	movq	32(%rsp), %rax
	addq	$40, %rsp
	retq
	.seh_endproc

	.def	_ZN102_$LT$core..iter..adapters..map..Map$LT$I$C$F$GT$$u20$as$u20$core..iter..traits..iterator..Iterator$GT$9size_hint17h8bd2d6caf7d70e89E;
	.scl	2;
	.type	32;
	.endef
	.section	.text,"xr",one_only,_ZN102_$LT$core..iter..adapters..map..Map$LT$I$C$F$GT$$u20$as$u20$core..iter..traits..iterator..Iterator$GT$9size_hint17h8bd2d6caf7d70e89E
	.globl	_ZN102_$LT$core..iter..adapters..map..Map$LT$I$C$F$GT$$u20$as$u20$core..iter..traits..iterator..Iterator$GT$9size_hint17h8bd2d6caf7d70e89E
	.p2align	4, 0x90
_ZN102_$LT$core..iter..adapters..map..Map$LT$I$C$F$GT$$u20$as$u20$core..iter..traits..iterator..Iterator$GT$9size_hint17h8bd2d6caf7d70e89E:
.seh_proc _ZN102_$LT$core..iter..adapters..map..Map$LT$I$C$F$GT$$u20$as$u20$core..iter..traits..iterator..Iterator$GT$9size_hint17h8bd2d6caf7d70e89E
	subq	$40, %rsp
	.seh_stackalloc 40
	.seh_endprologue
	movq	%rcx, %rax
	movq	%rax, 32(%rsp)
	callq	_ZN102_$LT$core..iter..adapters..map..Map$LT$I$C$F$GT$$u20$as$u20$core..iter..traits..iterator..Iterator$GT$9size_hint17ha942b958c26b3cf6E
	movq	32(%rsp), %rax
	addq	$40, %rsp
	retq
	.seh_endproc

	.def	_ZN102_$LT$core..iter..adapters..map..Map$LT$I$C$F$GT$$u20$as$u20$core..iter..traits..iterator..Iterator$GT$9size_hint17ha942b958c26b3cf6E;
	.scl	2;
	.type	32;
	.endef
	.section	.text,"xr",one_only,_ZN102_$LT$core..iter..adapters..map..Map$LT$I$C$F$GT$$u20$as$u20$core..iter..traits..iterator..Iterator$GT$9size_hint17ha942b958c26b3cf6E
	.globl	_ZN102_$LT$core..iter..adapters..map..Map$LT$I$C$F$GT$$u20$as$u20$core..iter..traits..iterator..Iterator$GT$9size_hint17ha942b958c26b3cf6E
	.p2align	4, 0x90
_ZN102_$LT$core..iter..adapters..map..Map$LT$I$C$F$GT$$u20$as$u20$core..iter..traits..iterator..Iterator$GT$9size_hint17ha942b958c26b3cf6E:
.seh_proc _ZN102_$LT$core..iter..adapters..map..Map$LT$I$C$F$GT$$u20$as$u20$core..iter..traits..iterator..Iterator$GT$9size_hint17ha942b958c26b3cf6E
	subq	$40, %rsp
	.seh_stackalloc 40
	.seh_endprologue
	movq	%rcx, %rax
	movq	%rax, 32(%rsp)
	callq	_ZN99_$LT$core..iter..sources..once..Once$LT$T$GT$$u20$as$u20$core..iter..traits..iterator..Iterator$GT$9size_hint17h04b79cc93cb42e3aE
	movq	32(%rsp), %rax
	addq	$40, %rsp
	retq
	.seh_endproc

	.def	_ZN106_$LT$core..iter..adapters..flatten..Flatten$LT$I$GT$$u20$as$u20$core..iter..traits..iterator..Iterator$GT$4next17h003893134d9f084dE;
	.scl	2;
	.type	32;
	.endef
	.section	.text,"xr",one_only,_ZN106_$LT$core..iter..adapters..flatten..Flatten$LT$I$GT$$u20$as$u20$core..iter..traits..iterator..Iterator$GT$4next17h003893134d9f084dE
	.globl	_ZN106_$LT$core..iter..adapters..flatten..Flatten$LT$I$GT$$u20$as$u20$core..iter..traits..iterator..Iterator$GT$4next17h003893134d9f084dE
	.p2align	4, 0x90
_ZN106_$LT$core..iter..adapters..flatten..Flatten$LT$I$GT$$u20$as$u20$core..iter..traits..iterator..Iterator$GT$4next17h003893134d9f084dE:
.seh_proc _ZN106_$LT$core..iter..adapters..flatten..Flatten$LT$I$GT$$u20$as$u20$core..iter..traits..iterator..Iterator$GT$4next17h003893134d9f084dE
	subq	$40, %rsp
	.seh_stackalloc 40
	.seh_endprologue
	movq	%rcx, %rax
	movq	%rax, 32(%rsp)
	callq	_ZN116_$LT$core..iter..adapters..flatten..FlattenCompat$LT$I$C$U$GT$$u20$as$u20$core..iter..traits..iterator..Iterator$GT$4next17hc077dfec022f9f80E
	movq	32(%rsp), %rax
	addq	$40, %rsp
	retq
	.seh_endproc

	.def	_ZN106_$LT$core..iter..adapters..flatten..Flatten$LT$I$GT$$u20$as$u20$core..iter..traits..iterator..Iterator$GT$9size_hint17ha7b61937cf39de44E;
	.scl	2;
	.type	32;
	.endef
	.section	.text,"xr",one_only,_ZN106_$LT$core..iter..adapters..flatten..Flatten$LT$I$GT$$u20$as$u20$core..iter..traits..iterator..Iterator$GT$9size_hint17ha7b61937cf39de44E
	.globl	_ZN106_$LT$core..iter..adapters..flatten..Flatten$LT$I$GT$$u20$as$u20$core..iter..traits..iterator..Iterator$GT$9size_hint17ha7b61937cf39de44E
	.p2align	4, 0x90
_ZN106_$LT$core..iter..adapters..flatten..Flatten$LT$I$GT$$u20$as$u20$core..iter..traits..iterator..Iterator$GT$9size_hint17ha7b61937cf39de44E:
.seh_proc _ZN106_$LT$core..iter..adapters..flatten..Flatten$LT$I$GT$$u20$as$u20$core..iter..traits..iterator..Iterator$GT$9size_hint17ha7b61937cf39de44E
	subq	$40, %rsp
	.seh_stackalloc 40
	.seh_endprologue
	movq	%rcx, %rax
	movq	%rax, 32(%rsp)
	callq	_ZN116_$LT$core..iter..adapters..flatten..FlattenCompat$LT$I$C$U$GT$$u20$as$u20$core..iter..traits..iterator..Iterator$GT$9size_hint17h82e0dbaecb6b1613E
	movq	32(%rsp), %rax
	addq	$40, %rsp
	retq
	.seh_endproc

	.def	_ZN107_$LT$core..iter..adapters..fuse..Fuse$LT$I$GT$$u20$as$u20$core..iter..adapters..fuse..FuseImpl$LT$I$GT$$GT$4next17hd67d1bb90cd1d0a4E;
	.scl	2;
	.type	32;
	.endef
	.section	.text,"xr",one_only,_ZN107_$LT$core..iter..adapters..fuse..Fuse$LT$I$GT$$u20$as$u20$core..iter..adapters..fuse..FuseImpl$LT$I$GT$$GT$4next17hd67d1bb90cd1d0a4E
	.globl	_ZN107_$LT$core..iter..adapters..fuse..Fuse$LT$I$GT$$u20$as$u20$core..iter..adapters..fuse..FuseImpl$LT$I$GT$$GT$4next17hd67d1bb90cd1d0a4E
	.p2align	4, 0x90
_ZN107_$LT$core..iter..adapters..fuse..Fuse$LT$I$GT$$u20$as$u20$core..iter..adapters..fuse..FuseImpl$LT$I$GT$$GT$4next17hd67d1bb90cd1d0a4E:
.seh_proc _ZN107_$LT$core..iter..adapters..fuse..Fuse$LT$I$GT$$u20$as$u20$core..iter..adapters..fuse..FuseImpl$LT$I$GT$$GT$4next17hd67d1bb90cd1d0a4E
	subq	$72, %rsp
	.seh_stackalloc 72
	.seh_endprologue
	movq	%rcx, %rdx
	movq	%rdx, 40(%rsp)
	movabsq	$-9223372036854775806, %r8
	movl	$1, %eax
	xorl	%ecx, %ecx
	cmpq	%r8, (%rdx)
	cmoveq	%rcx, %rax
	cmpq	$0, %rax
	jne	.LBB19_2
	movq	$0, 64(%rsp)
	jmp	.LBB19_3
.LBB19_2:
	movq	40(%rsp), %rax
	movq	%rax, 64(%rsp)
.LBB19_3:
	movq	64(%rsp), %rdx
	movl	$1, %eax
	xorl	%ecx, %ecx
	cmpq	$0, %rdx
	cmoveq	%rcx, %rax
	cmpq	$0, %rax
	jne	.LBB19_5
	movq	$0, 56(%rsp)
	jmp	.LBB19_6
.LBB19_5:
	movq	64(%rsp), %rax
	movq	%rax, 56(%rsp)
.LBB19_6:
	movq	56(%rsp), %rdx
	xorl	%eax, %eax
	movl	$1, %ecx
	cmpq	$0, %rdx
	cmoveq	%rcx, %rax
	cmpq	$0, %rax
	jne	.LBB19_8
	movq	56(%rsp), %rcx
	callq	_ZN102_$LT$core..iter..adapters..map..Map$LT$I$C$F$GT$$u20$as$u20$core..iter..traits..iterator..Iterator$GT$4next17hcfba49ab6c6945c9E
	movq	%rax, 48(%rsp)
	jmp	.LBB19_9
.LBB19_8:
	movq	$0, 48(%rsp)
.LBB19_9:
	movq	48(%rsp), %rax
	addq	$72, %rsp
	retq
	.seh_endproc

	.def	_ZN110_$LT$proc_macro..TokenStream$u20$as$u20$core..iter..traits..collect..Extend$LT$proc_macro..TokenStream$GT$$GT$6extend17h7c23e88d4cdd9f10E;
	.scl	2;
	.type	32;
	.endef
	.section	.text,"xr",one_only,_ZN110_$LT$proc_macro..TokenStream$u20$as$u20$core..iter..traits..collect..Extend$LT$proc_macro..TokenStream$GT$$GT$6extend17h7c23e88d4cdd9f10E
	.globl	_ZN110_$LT$proc_macro..TokenStream$u20$as$u20$core..iter..traits..collect..Extend$LT$proc_macro..TokenStream$GT$$GT$6extend17h7c23e88d4cdd9f10E
	.p2align	4, 0x90
_ZN110_$LT$proc_macro..TokenStream$u20$as$u20$core..iter..traits..collect..Extend$LT$proc_macro..TokenStream$GT$$GT$6extend17h7c23e88d4cdd9f10E:
.Lfunc_begin7:
.seh_proc _ZN110_$LT$proc_macro..TokenStream$u20$as$u20$core..iter..traits..collect..Extend$LT$proc_macro..TokenStream$GT$$GT$6extend17h7c23e88d4cdd9f10E
	.seh_handler __CxxFrameHandler3, @unwind, @except
	pushq	%rbp
	.seh_pushreg %rbp
	subq	$224, %rsp
	.seh_stackalloc 224
	leaq	128(%rsp), %rbp
	.seh_setframe %rbp, 128
	.seh_endprologue
	movq	$-2, 88(%rbp)
	movq	%rcx, -96(%rbp)
	leaq	-80(%rbp), %rcx
	movq	%rcx, -88(%rbp)
	callq	_ZN63_$LT$I$u20$as$u20$core..iter..traits..collect..IntoIterator$GT$9into_iter17hdf9b44d5560ef11eE
	movq	-88(%rbp), %rdx
	movb	$1, 87(%rbp)
.Ltmp14:
	leaq	-24(%rbp), %rcx
	callq	_ZN102_$LT$core..iter..adapters..map..Map$LT$I$C$F$GT$$u20$as$u20$core..iter..traits..iterator..Iterator$GT$9size_hint17h8bd2d6caf7d70e89E
.Ltmp15:
	jmp	.LBB20_2
.LBB20_2:
	movq	-24(%rbp), %rdx
.Ltmp16:
	leaq	-48(%rbp), %rcx
	callq	_ZN10proc_macro19ConcatStreamsHelper3new17h69951455cf02ff60E
.Ltmp17:
	jmp	.LBB20_3
.LBB20_3:
	movb	$1, 86(%rbp)
	movb	$0, 87(%rbp)
	vmovups	-80(%rbp), %ymm0
	vmovups	%ymm0, (%rbp)
	leaq	-48(%rbp), %rax
	movq	%rax, 40(%rbp)
	movq	40(%rbp), %rdx
.Ltmp18:
	movq	%rbp, %rcx
	vzeroupper
	callq	_ZN4core4iter6traits8iterator8Iterator8for_each17h41b776be831c2ee5E
.Ltmp19:
	jmp	.LBB20_5
.LBB20_5:
	movq	-96(%rbp), %rdx
	movb	$0, 86(%rbp)
	movq	-32(%rbp), %rax
	movq	%rax, 64(%rbp)
	vmovdqu	-48(%rbp), %xmm0
	vmovdqa	%xmm0, 48(%rbp)
.Ltmp20:
	leaq	48(%rbp), %rcx
	callq	_ZN10proc_macro19ConcatStreamsHelper9append_to17hdedc26657b61e9c4E
.Ltmp21:
	jmp	.LBB20_6
.LBB20_6:
	addq	$224, %rsp
	popq	%rbp
	retq
	.seh_handlerdata
	.long	($cppxdata$_ZN110_$LT$proc_macro..TokenStream$u20$as$u20$core..iter..traits..collect..Extend$LT$proc_macro..TokenStream$GT$$GT$6extend17h7c23e88d4cdd9f10E)@IMGREL
	.section	.text,"xr",one_only,_ZN110_$LT$proc_macro..TokenStream$u20$as$u20$core..iter..traits..collect..Extend$LT$proc_macro..TokenStream$GT$$GT$6extend17h7c23e88d4cdd9f10E
	.seh_endproc
	.def	"?dtor$1@?0?_ZN110_$LT$proc_macro..TokenStream$u20$as$u20$core..iter..traits..collect..Extend$LT$proc_macro..TokenStream$GT$$GT$6extend17h7c23e88d4cdd9f10E@4HA";
	.scl	3;
	.type	32;
	.endef
	.p2align	4, 0x90
"?dtor$1@?0?_ZN110_$LT$proc_macro..TokenStream$u20$as$u20$core..iter..traits..collect..Extend$LT$proc_macro..TokenStream$GT$$GT$6extend17h7c23e88d4cdd9f10E@4HA":
.seh_proc "?dtor$1@?0?_ZN110_$LT$proc_macro..TokenStream$u20$as$u20$core..iter..traits..collect..Extend$LT$proc_macro..TokenStream$GT$$GT$6extend17h7c23e88d4cdd9f10E@4HA"
.LBB20_1:
	movq	%rdx, 16(%rsp)
	pushq	%rbp
	.seh_pushreg %rbp
	subq	$32, %rsp
	.seh_stackalloc 32
	leaq	128(%rdx), %rbp
	.seh_endprologue
	testb	$1, 87(%rbp)
	jne	.LBB20_10
	jmp	.LBB20_9
.LBB20_9:
	addq	$32, %rsp
	popq	%rbp
	retq
.LBB20_10:
	leaq	-80(%rbp), %rcx
	callq	_ZN4core3ptr430drop_in_place$LT$core..iter..adapters..map..Map$LT$core..iter..adapters..map..Map$LT$core..iter..sources..once..Once$LT$proc_macro2..TokenStream$GT$$C$$LT$proc_macro2..TokenStream$u20$as$u20$core..iter..traits..collect..Extend$LT$proc_macro2..TokenStream$GT$$GT$..extend$LT$core..iter..sources..once..Once$LT$proc_macro2..TokenStream$GT$$GT$..$u7b$$u7b$closure$u7d$$u7d$$GT$$C$proc_macro2..imp..TokenStream..unwrap_nightly$GT$$GT$17hf79d20ab3f945dc9E
	jmp	.LBB20_9
	.seh_handlerdata
	.section	.text,"xr",one_only,_ZN110_$LT$proc_macro..TokenStream$u20$as$u20$core..iter..traits..collect..Extend$LT$proc_macro..TokenStream$GT$$GT$6extend17h7c23e88d4cdd9f10E
	.seh_endproc
	.def	"?dtor$4@?0?_ZN110_$LT$proc_macro..TokenStream$u20$as$u20$core..iter..traits..collect..Extend$LT$proc_macro..TokenStream$GT$$GT$6extend17h7c23e88d4cdd9f10E@4HA";
	.scl	3;
	.type	32;
	.endef
	.p2align	4, 0x90
"?dtor$4@?0?_ZN110_$LT$proc_macro..TokenStream$u20$as$u20$core..iter..traits..collect..Extend$LT$proc_macro..TokenStream$GT$$GT$6extend17h7c23e88d4cdd9f10E@4HA":
.seh_proc "?dtor$4@?0?_ZN110_$LT$proc_macro..TokenStream$u20$as$u20$core..iter..traits..collect..Extend$LT$proc_macro..TokenStream$GT$$GT$6extend17h7c23e88d4cdd9f10E@4HA"
.LBB20_4:
	movq	%rdx, 16(%rsp)
	pushq	%rbp
	.seh_pushreg %rbp
	subq	$32, %rsp
	.seh_stackalloc 32
	leaq	128(%rdx), %rbp
	.seh_endprologue
	testb	$1, 86(%rbp)
	jne	.LBB20_8
	jmp	.LBB20_7
.LBB20_7:
	addq	$32, %rsp
	popq	%rbp
	retq
.LBB20_8:
	leaq	-48(%rbp), %rcx
	callq	_ZN4core3ptr52drop_in_place$LT$proc_macro..ConcatStreamsHelper$GT$17h4a6ca0351d9b5425E
	nop
	addq	$32, %rsp
	popq	%rbp
	retq
.Lfunc_end7:
	.seh_handlerdata
	.section	.text,"xr",one_only,_ZN110_$LT$proc_macro..TokenStream$u20$as$u20$core..iter..traits..collect..Extend$LT$proc_macro..TokenStream$GT$$GT$6extend17h7c23e88d4cdd9f10E
	.seh_endproc
	.section	.xdata,"dr",associative,_ZN110_$LT$proc_macro..TokenStream$u20$as$u20$core..iter..traits..collect..Extend$LT$proc_macro..TokenStream$GT$$GT$6extend17h7c23e88d4cdd9f10E
	.p2align	2, 0x0
$cppxdata$_ZN110_$LT$proc_macro..TokenStream$u20$as$u20$core..iter..traits..collect..Extend$LT$proc_macro..TokenStream$GT$$GT$6extend17h7c23e88d4cdd9f10E:
	.long	429065506
	.long	2
	.long	($stateUnwindMap$_ZN110_$LT$proc_macro..TokenStream$u20$as$u20$core..iter..traits..collect..Extend$LT$proc_macro..TokenStream$GT$$GT$6extend17h7c23e88d4cdd9f10E)@IMGREL
	.long	0
	.long	0
	.long	4
	.long	($ip2state$_ZN110_$LT$proc_macro..TokenStream$u20$as$u20$core..iter..traits..collect..Extend$LT$proc_macro..TokenStream$GT$$GT$6extend17h7c23e88d4cdd9f10E)@IMGREL
	.long	216
	.long	0
	.long	1
$stateUnwindMap$_ZN110_$LT$proc_macro..TokenStream$u20$as$u20$core..iter..traits..collect..Extend$LT$proc_macro..TokenStream$GT$$GT$6extend17h7c23e88d4cdd9f10E:
	.long	-1
	.long	"?dtor$1@?0?_ZN110_$LT$proc_macro..TokenStream$u20$as$u20$core..iter..traits..collect..Extend$LT$proc_macro..TokenStream$GT$$GT$6extend17h7c23e88d4cdd9f10E@4HA"@IMGREL
	.long	0
	.long	"?dtor$4@?0?_ZN110_$LT$proc_macro..TokenStream$u20$as$u20$core..iter..traits..collect..Extend$LT$proc_macro..TokenStream$GT$$GT$6extend17h7c23e88d4cdd9f10E@4HA"@IMGREL
$ip2state$_ZN110_$LT$proc_macro..TokenStream$u20$as$u20$core..iter..traits..collect..Extend$LT$proc_macro..TokenStream$GT$$GT$6extend17h7c23e88d4cdd9f10E:
	.long	.Lfunc_begin7@IMGREL
	.long	-1
	.long	.Ltmp14@IMGREL+1
	.long	0
	.long	.Ltmp18@IMGREL+1
	.long	1
	.long	.Ltmp21@IMGREL+1
	.long	-1
	.section	.text,"xr",one_only,_ZN110_$LT$proc_macro..TokenStream$u20$as$u20$core..iter..traits..collect..Extend$LT$proc_macro..TokenStream$GT$$GT$6extend17h7c23e88d4cdd9f10E

	.def	_ZN110_$LT$proc_macro..TokenStream$u20$as$u20$core..iter..traits..collect..Extend$LT$proc_macro..TokenStream$GT$$GT$6extend28_$u7b$$u7b$closure$u7d$$u7d$17h5a861789d72e4141E;
	.scl	2;
	.type	32;
	.endef
	.section	.text,"xr",one_only,_ZN110_$LT$proc_macro..TokenStream$u20$as$u20$core..iter..traits..collect..Extend$LT$proc_macro..TokenStream$GT$$GT$6extend28_$u7b$$u7b$closure$u7d$$u7d$17h5a861789d72e4141E
	.globl	_ZN110_$LT$proc_macro..TokenStream$u20$as$u20$core..iter..traits..collect..Extend$LT$proc_macro..TokenStream$GT$$GT$6extend28_$u7b$$u7b$closure$u7d$$u7d$17h5a861789d72e4141E
	.p2align	4, 0x90
_ZN110_$LT$proc_macro..TokenStream$u20$as$u20$core..iter..traits..collect..Extend$LT$proc_macro..TokenStream$GT$$GT$6extend28_$u7b$$u7b$closure$u7d$$u7d$17h5a861789d72e4141E:
.seh_proc _ZN110_$LT$proc_macro..TokenStream$u20$as$u20$core..iter..traits..collect..Extend$LT$proc_macro..TokenStream$GT$$GT$6extend28_$u7b$$u7b$closure$u7d$$u7d$17h5a861789d72e4141E
	subq	$40, %rsp
	.seh_stackalloc 40
	.seh_endprologue
	movq	(%rcx), %rcx
	callq	_ZN10proc_macro19ConcatStreamsHelper4push17hacd458624f9d87d5E
	nop
	addq	$40, %rsp
	retq
	.seh_endproc

	.def	_ZN110_$LT$proc_macro2..TokenStream$u20$as$u20$core..iter..traits..collect..Extend$LT$proc_macro2..TokenTree$GT$$GT$6extend17h3e5b7e82866e9cf0E;
	.scl	2;
	.type	32;
	.endef
	.section	.text,"xr",one_only,_ZN110_$LT$proc_macro2..TokenStream$u20$as$u20$core..iter..traits..collect..Extend$LT$proc_macro2..TokenTree$GT$$GT$6extend17h3e5b7e82866e9cf0E
	.globl	_ZN110_$LT$proc_macro2..TokenStream$u20$as$u20$core..iter..traits..collect..Extend$LT$proc_macro2..TokenTree$GT$$GT$6extend17h3e5b7e82866e9cf0E
	.p2align	4, 0x90
_ZN110_$LT$proc_macro2..TokenStream$u20$as$u20$core..iter..traits..collect..Extend$LT$proc_macro2..TokenTree$GT$$GT$6extend17h3e5b7e82866e9cf0E:
.seh_proc _ZN110_$LT$proc_macro2..TokenStream$u20$as$u20$core..iter..traits..collect..Extend$LT$proc_macro2..TokenTree$GT$$GT$6extend17h3e5b7e82866e9cf0E
	subq	$40, %rsp
	.seh_stackalloc 40
	.seh_endprologue
	callq	_ZN115_$LT$proc_macro2..imp..TokenStream$u20$as$u20$core..iter..traits..collect..Extend$LT$proc_macro2..TokenTree$GT$$GT$6extend17heedd8cfd3df6194aE
	nop
	addq	$40, %rsp
	retq
	.seh_endproc

	.def	_ZN110_$LT$proc_macro2..TokenStream$u20$as$u20$core..iter..traits..collect..Extend$LT$proc_macro2..TokenTree$GT$$GT$6extend17h47d72c497db35939E;
	.scl	2;
	.type	32;
	.endef
	.section	.text,"xr",one_only,_ZN110_$LT$proc_macro2..TokenStream$u20$as$u20$core..iter..traits..collect..Extend$LT$proc_macro2..TokenTree$GT$$GT$6extend17h47d72c497db35939E
	.globl	_ZN110_$LT$proc_macro2..TokenStream$u20$as$u20$core..iter..traits..collect..Extend$LT$proc_macro2..TokenTree$GT$$GT$6extend17h47d72c497db35939E
	.p2align	4, 0x90
_ZN110_$LT$proc_macro2..TokenStream$u20$as$u20$core..iter..traits..collect..Extend$LT$proc_macro2..TokenTree$GT$$GT$6extend17h47d72c497db35939E:
.seh_proc _ZN110_$LT$proc_macro2..TokenStream$u20$as$u20$core..iter..traits..collect..Extend$LT$proc_macro2..TokenTree$GT$$GT$6extend17h47d72c497db35939E
	subq	$40, %rsp
	.seh_stackalloc 40
	.seh_endprologue
	callq	_ZN115_$LT$proc_macro2..imp..TokenStream$u20$as$u20$core..iter..traits..collect..Extend$LT$proc_macro2..TokenTree$GT$$GT$6extend17h7e452064eda074cfE
	nop
	addq	$40, %rsp
	retq
	.seh_endproc

	.def	_ZN110_$LT$proc_macro2..TokenStream$u20$as$u20$core..iter..traits..collect..Extend$LT$proc_macro2..TokenTree$GT$$GT$6extend17ha8e8af8006d40360E;
	.scl	2;
	.type	32;
	.endef
	.section	.text,"xr",one_only,_ZN110_$LT$proc_macro2..TokenStream$u20$as$u20$core..iter..traits..collect..Extend$LT$proc_macro2..TokenTree$GT$$GT$6extend17ha8e8af8006d40360E
	.globl	_ZN110_$LT$proc_macro2..TokenStream$u20$as$u20$core..iter..traits..collect..Extend$LT$proc_macro2..TokenTree$GT$$GT$6extend17ha8e8af8006d40360E
	.p2align	4, 0x90
_ZN110_$LT$proc_macro2..TokenStream$u20$as$u20$core..iter..traits..collect..Extend$LT$proc_macro2..TokenTree$GT$$GT$6extend17ha8e8af8006d40360E:
.seh_proc _ZN110_$LT$proc_macro2..TokenStream$u20$as$u20$core..iter..traits..collect..Extend$LT$proc_macro2..TokenTree$GT$$GT$6extend17ha8e8af8006d40360E
	subq	$40, %rsp
	.seh_stackalloc 40
	.seh_endprologue
	callq	_ZN115_$LT$proc_macro2..imp..TokenStream$u20$as$u20$core..iter..traits..collect..Extend$LT$proc_macro2..TokenTree$GT$$GT$6extend17hb35b748ab3aedf1eE
	nop
	addq	$40, %rsp
	retq
	.seh_endproc

	.def	_ZN110_$LT$proc_macro2..TokenStream$u20$as$u20$core..iter..traits..collect..Extend$LT$proc_macro2..TokenTree$GT$$GT$6extend17hfbb437193a77d6efE;
	.scl	2;
	.type	32;
	.endef
	.section	.text,"xr",one_only,_ZN110_$LT$proc_macro2..TokenStream$u20$as$u20$core..iter..traits..collect..Extend$LT$proc_macro2..TokenTree$GT$$GT$6extend17hfbb437193a77d6efE
	.globl	_ZN110_$LT$proc_macro2..TokenStream$u20$as$u20$core..iter..traits..collect..Extend$LT$proc_macro2..TokenTree$GT$$GT$6extend17hfbb437193a77d6efE
	.p2align	4, 0x90
_ZN110_$LT$proc_macro2..TokenStream$u20$as$u20$core..iter..traits..collect..Extend$LT$proc_macro2..TokenTree$GT$$GT$6extend17hfbb437193a77d6efE:
.seh_proc _ZN110_$LT$proc_macro2..TokenStream$u20$as$u20$core..iter..traits..collect..Extend$LT$proc_macro2..TokenTree$GT$$GT$6extend17hfbb437193a77d6efE
	subq	$40, %rsp
	.seh_stackalloc 40
	.seh_endprologue
	callq	_ZN115_$LT$proc_macro2..imp..TokenStream$u20$as$u20$core..iter..traits..collect..Extend$LT$proc_macro2..TokenTree$GT$$GT$6extend17h159f256853f22af8E
	nop
	addq	$40, %rsp
	retq
	.seh_endproc

	.def	_ZN112_$LT$proc_macro2..TokenStream$u20$as$u20$core..iter..traits..collect..Extend$LT$proc_macro2..TokenStream$GT$$GT$6extend17hc0c41c5ff00af12cE;
	.scl	2;
	.type	32;
	.endef
	.section	.text,"xr",one_only,_ZN112_$LT$proc_macro2..TokenStream$u20$as$u20$core..iter..traits..collect..Extend$LT$proc_macro2..TokenStream$GT$$GT$6extend17hc0c41c5ff00af12cE
	.globl	_ZN112_$LT$proc_macro2..TokenStream$u20$as$u20$core..iter..traits..collect..Extend$LT$proc_macro2..TokenStream$GT$$GT$6extend17hc0c41c5ff00af12cE
	.p2align	4, 0x90
_ZN112_$LT$proc_macro2..TokenStream$u20$as$u20$core..iter..traits..collect..Extend$LT$proc_macro2..TokenStream$GT$$GT$6extend17hc0c41c5ff00af12cE:
.seh_proc _ZN112_$LT$proc_macro2..TokenStream$u20$as$u20$core..iter..traits..collect..Extend$LT$proc_macro2..TokenStream$GT$$GT$6extend17hc0c41c5ff00af12cE
	subq	$104, %rsp
	.seh_stackalloc 104
	.seh_endprologue
	movq	%rcx, 32(%rsp)
	leaq	72(%rsp), %rcx
	callq	_ZN63_$LT$I$u20$as$u20$core..iter..traits..collect..IntoIterator$GT$9into_iter17hb7a81a1cb133f9d0E
	leaq	40(%rsp), %rcx
	leaq	72(%rsp), %rdx
	callq	_ZN4core4iter6traits8iterator8Iterator3map17hb89fbadd6564c848E
	movq	32(%rsp), %rcx
	leaq	40(%rsp), %rdx
	callq	_ZN122_$LT$proc_macro2..imp..TokenStream$u20$as$u20$core..iter..traits..collect..Extend$LT$proc_macro2..imp..TokenStream$GT$$GT$6extend17h8c07621fd7abb015E
	nop
	addq	$104, %rsp
	retq
	.seh_endproc

	.def	_ZN112_$LT$proc_macro2..TokenStream$u20$as$u20$core..iter..traits..collect..Extend$LT$proc_macro2..TokenStream$GT$$GT$6extend28_$u7b$$u7b$closure$u7d$$u7d$17h5593ecac0a6ebd29E;
	.scl	2;
	.type	32;
	.endef
	.section	.text,"xr",one_only,_ZN112_$LT$proc_macro2..TokenStream$u20$as$u20$core..iter..traits..collect..Extend$LT$proc_macro2..TokenStream$GT$$GT$6extend28_$u7b$$u7b$closure$u7d$$u7d$17h5593ecac0a6ebd29E
	.globl	_ZN112_$LT$proc_macro2..TokenStream$u20$as$u20$core..iter..traits..collect..Extend$LT$proc_macro2..TokenStream$GT$$GT$6extend28_$u7b$$u7b$closure$u7d$$u7d$17h5593ecac0a6ebd29E
	.p2align	4, 0x90
_ZN112_$LT$proc_macro2..TokenStream$u20$as$u20$core..iter..traits..collect..Extend$LT$proc_macro2..TokenStream$GT$$GT$6extend28_$u7b$$u7b$closure$u7d$$u7d$17h5593ecac0a6ebd29E:
	movq	%rcx, %rax
	movq	(%r8), %rdx
	movq	%rdx, (%rcx)
	movq	8(%r8), %rdx
	movq	%rdx, 8(%rcx)
	movq	16(%r8), %rdx
	movq	%rdx, 16(%rcx)
	movq	24(%r8), %rdx
	movq	%rdx, 24(%rcx)
	retq

	.def	_ZN114_$LT$proc_macro..TokenStream$u20$as$u20$core..iter..traits..collect..FromIterator$LT$proc_macro..TokenTree$GT$$GT$9from_iter17h546ceaff8cdabefdE;
	.scl	2;
	.type	32;
	.endef
	.section	.text,"xr",one_only,_ZN114_$LT$proc_macro..TokenStream$u20$as$u20$core..iter..traits..collect..FromIterator$LT$proc_macro..TokenTree$GT$$GT$9from_iter17h546ceaff8cdabefdE
	.globl	_ZN114_$LT$proc_macro..TokenStream$u20$as$u20$core..iter..traits..collect..FromIterator$LT$proc_macro..TokenTree$GT$$GT$9from_iter17h546ceaff8cdabefdE
	.p2align	4, 0x90
_ZN114_$LT$proc_macro..TokenStream$u20$as$u20$core..iter..traits..collect..FromIterator$LT$proc_macro..TokenTree$GT$$GT$9from_iter17h546ceaff8cdabefdE:
.Lfunc_begin8:
.seh_proc _ZN114_$LT$proc_macro..TokenStream$u20$as$u20$core..iter..traits..collect..FromIterator$LT$proc_macro..TokenTree$GT$$GT$9from_iter17h546ceaff8cdabefdE
	.seh_handler __CxxFrameHandler3, @unwind, @except
	pushq	%rbp
	.seh_pushreg %rbp
	subq	$256, %rsp
	.seh_stackalloc 256
	leaq	128(%rsp), %rbp
	.seh_setframe %rbp, 128
	.seh_endprologue
	movq	$-2, 120(%rbp)
	movq	%rcx, %rdx
	leaq	-80(%rbp), %rcx
	movq	%rcx, -88(%rbp)
	callq	_ZN63_$LT$I$u20$as$u20$core..iter..traits..collect..IntoIterator$GT$9into_iter17h807d309c4bf1ee42E
	movq	-88(%rbp), %rdx
	movb	$1, 119(%rbp)
.Ltmp22:
	leaq	-8(%rbp), %rcx
	callq	_ZN102_$LT$core..iter..adapters..map..Map$LT$I$C$F$GT$$u20$as$u20$core..iter..traits..iterator..Iterator$GT$9size_hint17h54a4c8a131ed7947E
.Ltmp23:
	jmp	.LBB28_2
.LBB28_2:
	movq	-8(%rbp), %rdx
.Ltmp24:
	leaq	-32(%rbp), %rcx
	callq	_ZN10proc_macro17ConcatTreesHelper3new17hf250303e7840629bE
.Ltmp25:
	jmp	.LBB28_3
.LBB28_3:
	movb	$1, 118(%rbp)
	movb	$0, 119(%rbp)
	vmovups	-80(%rbp), %ymm0
	vmovups	-64(%rbp), %ymm1
	vmovups	%ymm1, 32(%rbp)
	vmovups	%ymm0, 16(%rbp)
	leaq	-32(%rbp), %rax
	movq	%rax, 72(%rbp)
	movq	72(%rbp), %rdx
.Ltmp26:
	leaq	16(%rbp), %rcx
	vzeroupper
	callq	_ZN4core4iter6traits8iterator8Iterator8for_each17h4aca1bfd9d5228dcE
.Ltmp27:
	jmp	.LBB28_5
.LBB28_5:
	movb	$0, 118(%rbp)
	movq	-16(%rbp), %rax
	movq	%rax, 96(%rbp)
	vmovdqu	-32(%rbp), %xmm0
	vmovdqa	%xmm0, 80(%rbp)
.Ltmp28:
	leaq	80(%rbp), %rcx
	callq	_ZN10proc_macro17ConcatTreesHelper5build17h6a96e05896b89e87E
.Ltmp29:
	movl	%eax, -92(%rbp)
	jmp	.LBB28_6
.LBB28_6:
	movl	-92(%rbp), %eax
	addq	$256, %rsp
	popq	%rbp
	retq
	.seh_handlerdata
	.long	($cppxdata$_ZN114_$LT$proc_macro..TokenStream$u20$as$u20$core..iter..traits..collect..FromIterator$LT$proc_macro..TokenTree$GT$$GT$9from_iter17h546ceaff8cdabefdE)@IMGREL
	.section	.text,"xr",one_only,_ZN114_$LT$proc_macro..TokenStream$u20$as$u20$core..iter..traits..collect..FromIterator$LT$proc_macro..TokenTree$GT$$GT$9from_iter17h546ceaff8cdabefdE
	.seh_endproc
	.def	"?dtor$1@?0?_ZN114_$LT$proc_macro..TokenStream$u20$as$u20$core..iter..traits..collect..FromIterator$LT$proc_macro..TokenTree$GT$$GT$9from_iter17h546ceaff8cdabefdE@4HA";
	.scl	3;
	.type	32;
	.endef
	.p2align	4, 0x90
"?dtor$1@?0?_ZN114_$LT$proc_macro..TokenStream$u20$as$u20$core..iter..traits..collect..FromIterator$LT$proc_macro..TokenTree$GT$$GT$9from_iter17h546ceaff8cdabefdE@4HA":
.seh_proc "?dtor$1@?0?_ZN114_$LT$proc_macro..TokenStream$u20$as$u20$core..iter..traits..collect..FromIterator$LT$proc_macro..TokenTree$GT$$GT$9from_iter17h546ceaff8cdabefdE@4HA"
.LBB28_1:
	movq	%rdx, 16(%rsp)
	pushq	%rbp
	.seh_pushreg %rbp
	subq	$32, %rsp
	.seh_stackalloc 32
	leaq	128(%rdx), %rbp
	.seh_endprologue
	testb	$1, 119(%rbp)
	jne	.LBB28_10
	jmp	.LBB28_9
.LBB28_9:
	addq	$32, %rsp
	popq	%rbp
	retq
.LBB28_10:
	leaq	-80(%rbp), %rcx
	callq	_ZN4core3ptr239drop_in_place$LT$core..iter..adapters..map..Map$LT$core..iter..adapters..map..Map$LT$proc_macro2..token_stream..IntoIter$C$quote..__private..respan_token_tree..$u7b$$u7b$closure$u7d$$u7d$$GT$$C$proc_macro2..imp..into_compiler_token$GT$$GT$17h95c61f63d64263ddE
	jmp	.LBB28_9
	.seh_handlerdata
	.section	.text,"xr",one_only,_ZN114_$LT$proc_macro..TokenStream$u20$as$u20$core..iter..traits..collect..FromIterator$LT$proc_macro..TokenTree$GT$$GT$9from_iter17h546ceaff8cdabefdE
	.seh_endproc
	.def	"?dtor$4@?0?_ZN114_$LT$proc_macro..TokenStream$u20$as$u20$core..iter..traits..collect..FromIterator$LT$proc_macro..TokenTree$GT$$GT$9from_iter17h546ceaff8cdabefdE@4HA";
	.scl	3;
	.type	32;
	.endef
	.p2align	4, 0x90
"?dtor$4@?0?_ZN114_$LT$proc_macro..TokenStream$u20$as$u20$core..iter..traits..collect..FromIterator$LT$proc_macro..TokenTree$GT$$GT$9from_iter17h546ceaff8cdabefdE@4HA":
.seh_proc "?dtor$4@?0?_ZN114_$LT$proc_macro..TokenStream$u20$as$u20$core..iter..traits..collect..FromIterator$LT$proc_macro..TokenTree$GT$$GT$9from_iter17h546ceaff8cdabefdE@4HA"
.LBB28_4:
	movq	%rdx, 16(%rsp)
	pushq	%rbp
	.seh_pushreg %rbp
	subq	$32, %rsp
	.seh_stackalloc 32
	leaq	128(%rdx), %rbp
	.seh_endprologue
	testb	$1, 118(%rbp)
	jne	.LBB28_8
	jmp	.LBB28_7
.LBB28_7:
	addq	$32, %rsp
	popq	%rbp
	retq
.LBB28_8:
	leaq	-32(%rbp), %rcx
	callq	_ZN4core3ptr50drop_in_place$LT$proc_macro..ConcatTreesHelper$GT$17h24c7b41ca1214b09E
	nop
	addq	$32, %rsp
	popq	%rbp
	retq
.Lfunc_end8:
	.seh_handlerdata
	.section	.text,"xr",one_only,_ZN114_$LT$proc_macro..TokenStream$u20$as$u20$core..iter..traits..collect..FromIterator$LT$proc_macro..TokenTree$GT$$GT$9from_iter17h546ceaff8cdabefdE
	.seh_endproc
	.section	.xdata,"dr",associative,_ZN114_$LT$proc_macro..TokenStream$u20$as$u20$core..iter..traits..collect..FromIterator$LT$proc_macro..TokenTree$GT$$GT$9from_iter17h546ceaff8cdabefdE
	.p2align	2, 0x0
$cppxdata$_ZN114_$LT$proc_macro..TokenStream$u20$as$u20$core..iter..traits..collect..FromIterator$LT$proc_macro..TokenTree$GT$$GT$9from_iter17h546ceaff8cdabefdE:
	.long	429065506
	.long	2
	.long	($stateUnwindMap$_ZN114_$LT$proc_macro..TokenStream$u20$as$u20$core..iter..traits..collect..FromIterator$LT$proc_macro..TokenTree$GT$$GT$9from_iter17h546ceaff8cdabefdE)@IMGREL
	.long	0
	.long	0
	.long	4
	.long	($ip2state$_ZN114_$LT$proc_macro..TokenStream$u20$as$u20$core..iter..traits..collect..FromIterator$LT$proc_macro..TokenTree$GT$$GT$9from_iter17h546ceaff8cdabefdE)@IMGREL
	.long	248
	.long	0
	.long	1
$stateUnwindMap$_ZN114_$LT$proc_macro..TokenStream$u20$as$u20$core..iter..traits..collect..FromIterator$LT$proc_macro..TokenTree$GT$$GT$9from_iter17h546ceaff8cdabefdE:
	.long	-1
	.long	"?dtor$1@?0?_ZN114_$LT$proc_macro..TokenStream$u20$as$u20$core..iter..traits..collect..FromIterator$LT$proc_macro..TokenTree$GT$$GT$9from_iter17h546ceaff8cdabefdE@4HA"@IMGREL
	.long	0
	.long	"?dtor$4@?0?_ZN114_$LT$proc_macro..TokenStream$u20$as$u20$core..iter..traits..collect..FromIterator$LT$proc_macro..TokenTree$GT$$GT$9from_iter17h546ceaff8cdabefdE@4HA"@IMGREL
$ip2state$_ZN114_$LT$proc_macro..TokenStream$u20$as$u20$core..iter..traits..collect..FromIterator$LT$proc_macro..TokenTree$GT$$GT$9from_iter17h546ceaff8cdabefdE:
	.long	.Lfunc_begin8@IMGREL
	.long	-1
	.long	.Ltmp22@IMGREL+1
	.long	0
	.long	.Ltmp26@IMGREL+1
	.long	1
	.long	.Ltmp29@IMGREL+1
	.long	-1
	.section	.text,"xr",one_only,_ZN114_$LT$proc_macro..TokenStream$u20$as$u20$core..iter..traits..collect..FromIterator$LT$proc_macro..TokenTree$GT$$GT$9from_iter17h546ceaff8cdabefdE

	.def	_ZN114_$LT$proc_macro..TokenStream$u20$as$u20$core..iter..traits..collect..FromIterator$LT$proc_macro..TokenTree$GT$$GT$9from_iter28_$u7b$$u7b$closure$u7d$$u7d$17h122c8f7b8b49240eE;
	.scl	2;
	.type	32;
	.endef
	.section	.text,"xr",one_only,_ZN114_$LT$proc_macro..TokenStream$u20$as$u20$core..iter..traits..collect..FromIterator$LT$proc_macro..TokenTree$GT$$GT$9from_iter28_$u7b$$u7b$closure$u7d$$u7d$17h122c8f7b8b49240eE
	.globl	_ZN114_$LT$proc_macro..TokenStream$u20$as$u20$core..iter..traits..collect..FromIterator$LT$proc_macro..TokenTree$GT$$GT$9from_iter28_$u7b$$u7b$closure$u7d$$u7d$17h122c8f7b8b49240eE
	.p2align	4, 0x90
_ZN114_$LT$proc_macro..TokenStream$u20$as$u20$core..iter..traits..collect..FromIterator$LT$proc_macro..TokenTree$GT$$GT$9from_iter28_$u7b$$u7b$closure$u7d$$u7d$17h122c8f7b8b49240eE:
.seh_proc _ZN114_$LT$proc_macro..TokenStream$u20$as$u20$core..iter..traits..collect..FromIterator$LT$proc_macro..TokenTree$GT$$GT$9from_iter28_$u7b$$u7b$closure$u7d$$u7d$17h122c8f7b8b49240eE
	subq	$40, %rsp
	.seh_stackalloc 40
	.seh_endprologue
	movq	(%rcx), %rcx
	callq	_ZN10proc_macro17ConcatTreesHelper4push17hd61df02577967d59E
	nop
	addq	$40, %rsp
	retq
	.seh_endproc

	.def	_ZN115_$LT$proc_macro2..imp..TokenStream$u20$as$u20$core..iter..traits..collect..Extend$LT$proc_macro2..TokenTree$GT$$GT$6extend17h159f256853f22af8E;
	.scl	2;
	.type	32;
	.endef
	.section	.text,"xr",one_only,_ZN115_$LT$proc_macro2..imp..TokenStream$u20$as$u20$core..iter..traits..collect..Extend$LT$proc_macro2..TokenTree$GT$$GT$6extend17h159f256853f22af8E
	.globl	_ZN115_$LT$proc_macro2..imp..TokenStream$u20$as$u20$core..iter..traits..collect..Extend$LT$proc_macro2..TokenTree$GT$$GT$6extend17h159f256853f22af8E
	.p2align	4, 0x90
_ZN115_$LT$proc_macro2..imp..TokenStream$u20$as$u20$core..iter..traits..collect..Extend$LT$proc_macro2..TokenTree$GT$$GT$6extend17h159f256853f22af8E:
.Lfunc_begin9:
.seh_proc _ZN115_$LT$proc_macro2..imp..TokenStream$u20$as$u20$core..iter..traits..collect..Extend$LT$proc_macro2..TokenTree$GT$$GT$6extend17h159f256853f22af8E
	.seh_handler __CxxFrameHandler3, @unwind, @except
	pushq	%rbp
	.seh_pushreg %rbp
	subq	$240, %rsp
	.seh_stackalloc 240
	leaq	128(%rsp), %rbp
	.seh_setframe %rbp, 128
	.seh_endprologue
	movq	$-2, 104(%rbp)
	movq	%rdx, -96(%rbp)
	movq	%rcx, %rdx
	movq	%rdx, -88(%rbp)
	movabsq	$-9223372036854775808, %r8
	xorl	%eax, %eax
	movl	$1, %ecx
	cmpq	%r8, (%rdx)
	cmoveq	%rcx, %rax
	cmpq	$0, %rax
	jne	.LBB30_2
	movq	-96(%rbp), %rdx
	leaq	-80(%rbp), %rcx
	callq	_ZN63_$LT$I$u20$as$u20$core..iter..traits..collect..IntoIterator$GT$9into_iter17h2bad29ef39a49cc5E
	leaq	-32(%rbp), %rcx
	leaq	-80(%rbp), %rdx
	movl	$48, %r8d
	callq	memcpy
	jmp	.LBB30_3
.LBB30_2:
	movq	-96(%rbp), %rdx
	movq	-88(%rbp), %rcx
	addq	$8, %rcx
	callq	_ZN120_$LT$proc_macro2..fallback..TokenStream$u20$as$u20$core..iter..traits..collect..Extend$LT$proc_macro2..TokenTree$GT$$GT$6extend17h4170955ffda5b72bE
	jmp	.LBB30_8
.LBB30_3:
.Ltmp30:
	leaq	16(%rbp), %rcx
	leaq	-32(%rbp), %rdx
	callq	_ZN102_$LT$core..iter..adapters..map..Map$LT$I$C$F$GT$$u20$as$u20$core..iter..traits..iterator..Iterator$GT$4next17h778b0c940135877bE
.Ltmp31:
	jmp	.LBB30_5
.LBB30_5:
	movabsq	$-9223372036854775803, %rax
	cmpq	%rax, 16(%rbp)
	sete	%al
	testb	$1, %al
	jne	.LBB30_6
	jmp	.LBB30_7
.LBB30_6:
	leaq	-32(%rbp), %rcx
	callq	_ZN4core3ptr157drop_in_place$LT$core..iter..adapters..map..Map$LT$proc_macro2..token_stream..IntoIter$C$quote..__private..parse_spanned..$u7b$$u7b$closure$u7d$$u7d$$GT$$GT$17h24ee1bc772e766c4E
	jmp	.LBB30_8
.LBB30_7:
	vmovups	16(%rbp), %ymm0
	vmovups	%ymm0, 48(%rbp)
.Ltmp32:
	leaq	84(%rbp), %rcx
	leaq	48(%rbp), %rdx
	vzeroupper
	callq	_ZN11proc_macro23imp19into_compiler_token17h20ba3c03a89edf13E
.Ltmp33:
	jmp	.LBB30_9
.LBB30_8:
	addq	$240, %rsp
	popq	%rbp
	retq
.LBB30_9:
.Ltmp34:
	movq	-88(%rbp), %rcx
	leaq	84(%rbp), %rdx
	callq	_ZN5alloc3vec16Vec$LT$T$C$A$GT$4push17h41fa810100b89776E
.Ltmp35:
	jmp	.LBB30_10
.LBB30_10:
	jmp	.LBB30_3
	.seh_handlerdata
	.long	($cppxdata$_ZN115_$LT$proc_macro2..imp..TokenStream$u20$as$u20$core..iter..traits..collect..Extend$LT$proc_macro2..TokenTree$GT$$GT$6extend17h159f256853f22af8E)@IMGREL
	.section	.text,"xr",one_only,_ZN115_$LT$proc_macro2..imp..TokenStream$u20$as$u20$core..iter..traits..collect..Extend$LT$proc_macro2..TokenTree$GT$$GT$6extend17h159f256853f22af8E
	.seh_endproc
	.def	"?dtor$4@?0?_ZN115_$LT$proc_macro2..imp..TokenStream$u20$as$u20$core..iter..traits..collect..Extend$LT$proc_macro2..TokenTree$GT$$GT$6extend17h159f256853f22af8E@4HA";
	.scl	3;
	.type	32;
	.endef
	.p2align	4, 0x90
"?dtor$4@?0?_ZN115_$LT$proc_macro2..imp..TokenStream$u20$as$u20$core..iter..traits..collect..Extend$LT$proc_macro2..TokenTree$GT$$GT$6extend17h159f256853f22af8E@4HA":
.seh_proc "?dtor$4@?0?_ZN115_$LT$proc_macro2..imp..TokenStream$u20$as$u20$core..iter..traits..collect..Extend$LT$proc_macro2..TokenTree$GT$$GT$6extend17h159f256853f22af8E@4HA"
.LBB30_4:
	movq	%rdx, 16(%rsp)
	pushq	%rbp
	.seh_pushreg %rbp
	subq	$32, %rsp
	.seh_stackalloc 32
	leaq	128(%rdx), %rbp
	.seh_endprologue
	leaq	-32(%rbp), %rcx
	callq	_ZN4core3ptr157drop_in_place$LT$core..iter..adapters..map..Map$LT$proc_macro2..token_stream..IntoIter$C$quote..__private..parse_spanned..$u7b$$u7b$closure$u7d$$u7d$$GT$$GT$17h24ee1bc772e766c4E
	nop
	addq	$32, %rsp
	popq	%rbp
	retq
.Lfunc_end9:
	.seh_handlerdata
	.section	.text,"xr",one_only,_ZN115_$LT$proc_macro2..imp..TokenStream$u20$as$u20$core..iter..traits..collect..Extend$LT$proc_macro2..TokenTree$GT$$GT$6extend17h159f256853f22af8E
	.seh_endproc
	.section	.xdata,"dr",associative,_ZN115_$LT$proc_macro2..imp..TokenStream$u20$as$u20$core..iter..traits..collect..Extend$LT$proc_macro2..TokenTree$GT$$GT$6extend17h159f256853f22af8E
	.p2align	2, 0x0
$cppxdata$_ZN115_$LT$proc_macro2..imp..TokenStream$u20$as$u20$core..iter..traits..collect..Extend$LT$proc_macro2..TokenTree$GT$$GT$6extend17h159f256853f22af8E:
	.long	429065506
	.long	1
	.long	($stateUnwindMap$_ZN115_$LT$proc_macro2..imp..TokenStream$u20$as$u20$core..iter..traits..collect..Extend$LT$proc_macro2..TokenTree$GT$$GT$6extend17h159f256853f22af8E)@IMGREL
	.long	0
	.long	0
	.long	5
	.long	($ip2state$_ZN115_$LT$proc_macro2..imp..TokenStream$u20$as$u20$core..iter..traits..collect..Extend$LT$proc_macro2..TokenTree$GT$$GT$6extend17h159f256853f22af8E)@IMGREL
	.long	232
	.long	0
	.long	1
$stateUnwindMap$_ZN115_$LT$proc_macro2..imp..TokenStream$u20$as$u20$core..iter..traits..collect..Extend$LT$proc_macro2..TokenTree$GT$$GT$6extend17h159f256853f22af8E:
	.long	-1
	.long	"?dtor$4@?0?_ZN115_$LT$proc_macro2..imp..TokenStream$u20$as$u20$core..iter..traits..collect..Extend$LT$proc_macro2..TokenTree$GT$$GT$6extend17h159f256853f22af8E@4HA"@IMGREL
$ip2state$_ZN115_$LT$proc_macro2..imp..TokenStream$u20$as$u20$core..iter..traits..collect..Extend$LT$proc_macro2..TokenTree$GT$$GT$6extend17h159f256853f22af8E:
	.long	.Lfunc_begin9@IMGREL
	.long	-1
	.long	.Ltmp30@IMGREL+1
	.long	0
	.long	.Ltmp31@IMGREL+1
	.long	-1
	.long	.Ltmp32@IMGREL+1
	.long	0
	.long	.Ltmp35@IMGREL+1
	.long	-1
	.section	.text,"xr",one_only,_ZN115_$LT$proc_macro2..imp..TokenStream$u20$as$u20$core..iter..traits..collect..Extend$LT$proc_macro2..TokenTree$GT$$GT$6extend17h159f256853f22af8E

	.def	_ZN115_$LT$proc_macro2..imp..TokenStream$u20$as$u20$core..iter..traits..collect..Extend$LT$proc_macro2..TokenTree$GT$$GT$6extend17h7e452064eda074cfE;
	.scl	2;
	.type	32;
	.endef
	.section	.text,"xr",one_only,_ZN115_$LT$proc_macro2..imp..TokenStream$u20$as$u20$core..iter..traits..collect..Extend$LT$proc_macro2..TokenTree$GT$$GT$6extend17h7e452064eda074cfE
	.globl	_ZN115_$LT$proc_macro2..imp..TokenStream$u20$as$u20$core..iter..traits..collect..Extend$LT$proc_macro2..TokenTree$GT$$GT$6extend17h7e452064eda074cfE
	.p2align	4, 0x90
_ZN115_$LT$proc_macro2..imp..TokenStream$u20$as$u20$core..iter..traits..collect..Extend$LT$proc_macro2..TokenTree$GT$$GT$6extend17h7e452064eda074cfE:
.Lfunc_begin10:
.seh_proc _ZN115_$LT$proc_macro2..imp..TokenStream$u20$as$u20$core..iter..traits..collect..Extend$LT$proc_macro2..TokenTree$GT$$GT$6extend17h7e452064eda074cfE
	.seh_handler __CxxFrameHandler3, @unwind, @except
	pushq	%rbp
	.seh_pushreg %rbp
	subq	$208, %rsp
	.seh_stackalloc 208
	leaq	128(%rsp), %rbp
	.seh_setframe %rbp, 128
	.seh_endprologue
	movq	$-2, 72(%rbp)
	movq	%rdx, -96(%rbp)
	movq	%rcx, %rdx
	movq	%rdx, -88(%rbp)
	movabsq	$-9223372036854775808, %r8
	xorl	%eax, %eax
	movl	$1, %ecx
	cmpq	%r8, (%rdx)
	cmoveq	%rcx, %rax
	cmpq	$0, %rax
	jne	.LBB31_2
	movq	-96(%rbp), %rdx
	leaq	-80(%rbp), %rcx
	callq	_ZN63_$LT$I$u20$as$u20$core..iter..traits..collect..IntoIterator$GT$9into_iter17hf44ce168a171edd0E
	movq	-80(%rbp), %rax
	movq	%rax, -48(%rbp)
	movq	-72(%rbp), %rax
	movq	%rax, -40(%rbp)
	movq	-64(%rbp), %rax
	movq	%rax, -32(%rbp)
	movq	-56(%rbp), %rax
	movq	%rax, -24(%rbp)
	jmp	.LBB31_3
.LBB31_2:
	movq	-96(%rbp), %rdx
	movq	-88(%rbp), %rcx
	addq	$8, %rcx
	callq	_ZN120_$LT$proc_macro2..fallback..TokenStream$u20$as$u20$core..iter..traits..collect..Extend$LT$proc_macro2..TokenTree$GT$$GT$6extend17h34b38d03d4dbd660E
	jmp	.LBB31_8
.LBB31_3:
.Ltmp36:
	leaq	-16(%rbp), %rcx
	leaq	-48(%rbp), %rdx
	callq	_ZN99_$LT$core..iter..sources..once..Once$LT$T$GT$$u20$as$u20$core..iter..traits..iterator..Iterator$GT$4next17hdb2d098628d06926E
.Ltmp37:
	jmp	.LBB31_5
.LBB31_5:
	movabsq	$-9223372036854775803, %rax
	cmpq	%rax, -16(%rbp)
	sete	%al
	testb	$1, %al
	jne	.LBB31_6
	jmp	.LBB31_7
.LBB31_6:
	leaq	-48(%rbp), %rcx
	callq	_ZN4core3ptr82drop_in_place$LT$core..iter..sources..once..Once$LT$proc_macro2..TokenTree$GT$$GT$17h373e320e736b2ce2E
	jmp	.LBB31_8
.LBB31_7:
	vmovups	-16(%rbp), %ymm0
	vmovups	%ymm0, 16(%rbp)
.Ltmp38:
	leaq	52(%rbp), %rcx
	leaq	16(%rbp), %rdx
	vzeroupper
	callq	_ZN11proc_macro23imp19into_compiler_token17h20ba3c03a89edf13E
.Ltmp39:
	jmp	.LBB31_9
.LBB31_8:
	addq	$208, %rsp
	popq	%rbp
	retq
.LBB31_9:
.Ltmp40:
	movq	-88(%rbp), %rcx
	leaq	52(%rbp), %rdx
	callq	_ZN5alloc3vec16Vec$LT$T$C$A$GT$4push17h41fa810100b89776E
.Ltmp41:
	jmp	.LBB31_10
.LBB31_10:
	jmp	.LBB31_3
	.seh_handlerdata
	.long	($cppxdata$_ZN115_$LT$proc_macro2..imp..TokenStream$u20$as$u20$core..iter..traits..collect..Extend$LT$proc_macro2..TokenTree$GT$$GT$6extend17h7e452064eda074cfE)@IMGREL
	.section	.text,"xr",one_only,_ZN115_$LT$proc_macro2..imp..TokenStream$u20$as$u20$core..iter..traits..collect..Extend$LT$proc_macro2..TokenTree$GT$$GT$6extend17h7e452064eda074cfE
	.seh_endproc
	.def	"?dtor$4@?0?_ZN115_$LT$proc_macro2..imp..TokenStream$u20$as$u20$core..iter..traits..collect..Extend$LT$proc_macro2..TokenTree$GT$$GT$6extend17h7e452064eda074cfE@4HA";
	.scl	3;
	.type	32;
	.endef
	.p2align	4, 0x90
"?dtor$4@?0?_ZN115_$LT$proc_macro2..imp..TokenStream$u20$as$u20$core..iter..traits..collect..Extend$LT$proc_macro2..TokenTree$GT$$GT$6extend17h7e452064eda074cfE@4HA":
.seh_proc "?dtor$4@?0?_ZN115_$LT$proc_macro2..imp..TokenStream$u20$as$u20$core..iter..traits..collect..Extend$LT$proc_macro2..TokenTree$GT$$GT$6extend17h7e452064eda074cfE@4HA"
.LBB31_4:
	movq	%rdx, 16(%rsp)
	pushq	%rbp
	.seh_pushreg %rbp
	subq	$32, %rsp
	.seh_stackalloc 32
	leaq	128(%rdx), %rbp
	.seh_endprologue
	leaq	-48(%rbp), %rcx
	callq	_ZN4core3ptr82drop_in_place$LT$core..iter..sources..once..Once$LT$proc_macro2..TokenTree$GT$$GT$17h373e320e736b2ce2E
	nop
	addq	$32, %rsp
	popq	%rbp
	retq
.Lfunc_end10:
	.seh_handlerdata
	.section	.text,"xr",one_only,_ZN115_$LT$proc_macro2..imp..TokenStream$u20$as$u20$core..iter..traits..collect..Extend$LT$proc_macro2..TokenTree$GT$$GT$6extend17h7e452064eda074cfE
	.seh_endproc
	.section	.xdata,"dr",associative,_ZN115_$LT$proc_macro2..imp..TokenStream$u20$as$u20$core..iter..traits..collect..Extend$LT$proc_macro2..TokenTree$GT$$GT$6extend17h7e452064eda074cfE
	.p2align	2, 0x0
$cppxdata$_ZN115_$LT$proc_macro2..imp..TokenStream$u20$as$u20$core..iter..traits..collect..Extend$LT$proc_macro2..TokenTree$GT$$GT$6extend17h7e452064eda074cfE:
	.long	429065506
	.long	1
	.long	($stateUnwindMap$_ZN115_$LT$proc_macro2..imp..TokenStream$u20$as$u20$core..iter..traits..collect..Extend$LT$proc_macro2..TokenTree$GT$$GT$6extend17h7e452064eda074cfE)@IMGREL
	.long	0
	.long	0
	.long	5
	.long	($ip2state$_ZN115_$LT$proc_macro2..imp..TokenStream$u20$as$u20$core..iter..traits..collect..Extend$LT$proc_macro2..TokenTree$GT$$GT$6extend17h7e452064eda074cfE)@IMGREL
	.long	200
	.long	0
	.long	1
$stateUnwindMap$_ZN115_$LT$proc_macro2..imp..TokenStream$u20$as$u20$core..iter..traits..collect..Extend$LT$proc_macro2..TokenTree$GT$$GT$6extend17h7e452064eda074cfE:
	.long	-1
	.long	"?dtor$4@?0?_ZN115_$LT$proc_macro2..imp..TokenStream$u20$as$u20$core..iter..traits..collect..Extend$LT$proc_macro2..TokenTree$GT$$GT$6extend17h7e452064eda074cfE@4HA"@IMGREL
$ip2state$_ZN115_$LT$proc_macro2..imp..TokenStream$u20$as$u20$core..iter..traits..collect..Extend$LT$proc_macro2..TokenTree$GT$$GT$6extend17h7e452064eda074cfE:
	.long	.Lfunc_begin10@IMGREL
	.long	-1
	.long	.Ltmp36@IMGREL+1
	.long	0
	.long	.Ltmp37@IMGREL+1
	.long	-1
	.long	.Ltmp38@IMGREL+1
	.long	0
	.long	.Ltmp41@IMGREL+1
	.long	-1
	.section	.text,"xr",one_only,_ZN115_$LT$proc_macro2..imp..TokenStream$u20$as$u20$core..iter..traits..collect..Extend$LT$proc_macro2..TokenTree$GT$$GT$6extend17h7e452064eda074cfE

	.def	_ZN115_$LT$proc_macro2..imp..TokenStream$u20$as$u20$core..iter..traits..collect..Extend$LT$proc_macro2..TokenTree$GT$$GT$6extend17hb35b748ab3aedf1eE;
	.scl	2;
	.type	32;
	.endef
	.section	.text,"xr",one_only,_ZN115_$LT$proc_macro2..imp..TokenStream$u20$as$u20$core..iter..traits..collect..Extend$LT$proc_macro2..TokenTree$GT$$GT$6extend17hb35b748ab3aedf1eE
	.globl	_ZN115_$LT$proc_macro2..imp..TokenStream$u20$as$u20$core..iter..traits..collect..Extend$LT$proc_macro2..TokenTree$GT$$GT$6extend17hb35b748ab3aedf1eE
	.p2align	4, 0x90
_ZN115_$LT$proc_macro2..imp..TokenStream$u20$as$u20$core..iter..traits..collect..Extend$LT$proc_macro2..TokenTree$GT$$GT$6extend17hb35b748ab3aedf1eE:
.Lfunc_begin11:
.seh_proc _ZN115_$LT$proc_macro2..imp..TokenStream$u20$as$u20$core..iter..traits..collect..Extend$LT$proc_macro2..TokenTree$GT$$GT$6extend17hb35b748ab3aedf1eE
	.seh_handler __CxxFrameHandler3, @unwind, @except
	pushq	%rbp
	.seh_pushreg %rbp
	subq	$192, %rsp
	.seh_stackalloc 192
	leaq	128(%rsp), %rbp
	.seh_setframe %rbp, 128
	.seh_endprologue
	movq	$-2, 56(%rbp)
	movq	%rdx, -96(%rbp)
	movq	%rcx, %rdx
	movq	%rdx, -88(%rbp)
	movabsq	$-9223372036854775808, %r8
	xorl	%eax, %eax
	movl	$1, %ecx
	cmpq	%r8, (%rdx)
	cmoveq	%rcx, %rax
	cmpq	$0, %rax
	jne	.LBB32_2
	movq	-96(%rbp), %rdx
	leaq	-80(%rbp), %rcx
	callq	_ZN63_$LT$I$u20$as$u20$core..iter..traits..collect..IntoIterator$GT$9into_iter17h7dbbf9bdff186490E
	movq	-80(%rbp), %rax
	movq	%rax, -56(%rbp)
	movq	-72(%rbp), %rax
	movq	%rax, -48(%rbp)
	movq	-64(%rbp), %rax
	movq	%rax, -40(%rbp)
	jmp	.LBB32_3
.LBB32_2:
	movq	-96(%rbp), %rdx
	movq	-88(%rbp), %rcx
	addq	$8, %rcx
	callq	_ZN120_$LT$proc_macro2..fallback..TokenStream$u20$as$u20$core..iter..traits..collect..Extend$LT$proc_macro2..TokenTree$GT$$GT$6extend17h3df6c9fa752a8611E
	jmp	.LBB32_8
.LBB32_3:
.Ltmp42:
	leaq	-32(%rbp), %rcx
	leaq	-56(%rbp), %rdx
	callq	_ZN100_$LT$quote..__private..push_lifetime..Lifetime$u20$as$u20$core..iter..traits..iterator..Iterator$GT$4next17hd8dd172ef492bff6E
.Ltmp43:
	jmp	.LBB32_5
.LBB32_5:
	movabsq	$-9223372036854775803, %rax
	cmpq	%rax, -32(%rbp)
	sete	%al
	testb	$1, %al
	jne	.LBB32_6
	jmp	.LBB32_7
.LBB32_6:
	jmp	.LBB32_8
.LBB32_7:
	vmovups	-32(%rbp), %ymm0
	vmovups	%ymm0, (%rbp)
.Ltmp44:
	leaq	36(%rbp), %rcx
	movq	%rbp, %rdx
	vzeroupper
	callq	_ZN11proc_macro23imp19into_compiler_token17h20ba3c03a89edf13E
.Ltmp45:
	jmp	.LBB32_9
.LBB32_8:
	addq	$192, %rsp
	popq	%rbp
	retq
.LBB32_9:
.Ltmp46:
	movq	-88(%rbp), %rcx
	leaq	36(%rbp), %rdx
	callq	_ZN5alloc3vec16Vec$LT$T$C$A$GT$4push17h41fa810100b89776E
.Ltmp47:
	jmp	.LBB32_10
.LBB32_10:
	jmp	.LBB32_3
	.seh_handlerdata
	.long	($cppxdata$_ZN115_$LT$proc_macro2..imp..TokenStream$u20$as$u20$core..iter..traits..collect..Extend$LT$proc_macro2..TokenTree$GT$$GT$6extend17hb35b748ab3aedf1eE)@IMGREL
	.section	.text,"xr",one_only,_ZN115_$LT$proc_macro2..imp..TokenStream$u20$as$u20$core..iter..traits..collect..Extend$LT$proc_macro2..TokenTree$GT$$GT$6extend17hb35b748ab3aedf1eE
	.seh_endproc
	.def	"?dtor$4@?0?_ZN115_$LT$proc_macro2..imp..TokenStream$u20$as$u20$core..iter..traits..collect..Extend$LT$proc_macro2..TokenTree$GT$$GT$6extend17hb35b748ab3aedf1eE@4HA";
	.scl	3;
	.type	32;
	.endef
	.p2align	4, 0x90
"?dtor$4@?0?_ZN115_$LT$proc_macro2..imp..TokenStream$u20$as$u20$core..iter..traits..collect..Extend$LT$proc_macro2..TokenTree$GT$$GT$6extend17hb35b748ab3aedf1eE@4HA":
.seh_proc "?dtor$4@?0?_ZN115_$LT$proc_macro2..imp..TokenStream$u20$as$u20$core..iter..traits..collect..Extend$LT$proc_macro2..TokenTree$GT$$GT$6extend17hb35b748ab3aedf1eE@4HA"
.LBB32_4:
	movq	%rdx, 16(%rsp)
	pushq	%rbp
	.seh_pushreg %rbp
	subq	$32, %rsp
	.seh_stackalloc 32
	leaq	128(%rdx), %rbp
	.seh_endprologue
	addq	$32, %rsp
	popq	%rbp
	retq
.Lfunc_end11:
	.seh_handlerdata
	.section	.text,"xr",one_only,_ZN115_$LT$proc_macro2..imp..TokenStream$u20$as$u20$core..iter..traits..collect..Extend$LT$proc_macro2..TokenTree$GT$$GT$6extend17hb35b748ab3aedf1eE
	.seh_endproc
	.section	.xdata,"dr",associative,_ZN115_$LT$proc_macro2..imp..TokenStream$u20$as$u20$core..iter..traits..collect..Extend$LT$proc_macro2..TokenTree$GT$$GT$6extend17hb35b748ab3aedf1eE
	.p2align	2, 0x0
$cppxdata$_ZN115_$LT$proc_macro2..imp..TokenStream$u20$as$u20$core..iter..traits..collect..Extend$LT$proc_macro2..TokenTree$GT$$GT$6extend17hb35b748ab3aedf1eE:
	.long	429065506
	.long	1
	.long	($stateUnwindMap$_ZN115_$LT$proc_macro2..imp..TokenStream$u20$as$u20$core..iter..traits..collect..Extend$LT$proc_macro2..TokenTree$GT$$GT$6extend17hb35b748ab3aedf1eE)@IMGREL
	.long	0
	.long	0
	.long	3
	.long	($ip2state$_ZN115_$LT$proc_macro2..imp..TokenStream$u20$as$u20$core..iter..traits..collect..Extend$LT$proc_macro2..TokenTree$GT$$GT$6extend17hb35b748ab3aedf1eE)@IMGREL
	.long	184
	.long	0
	.long	1
$stateUnwindMap$_ZN115_$LT$proc_macro2..imp..TokenStream$u20$as$u20$core..iter..traits..collect..Extend$LT$proc_macro2..TokenTree$GT$$GT$6extend17hb35b748ab3aedf1eE:
	.long	-1
	.long	"?dtor$4@?0?_ZN115_$LT$proc_macro2..imp..TokenStream$u20$as$u20$core..iter..traits..collect..Extend$LT$proc_macro2..TokenTree$GT$$GT$6extend17hb35b748ab3aedf1eE@4HA"@IMGREL
$ip2state$_ZN115_$LT$proc_macro2..imp..TokenStream$u20$as$u20$core..iter..traits..collect..Extend$LT$proc_macro2..TokenTree$GT$$GT$6extend17hb35b748ab3aedf1eE:
	.long	.Lfunc_begin11@IMGREL
	.long	-1
	.long	.Ltmp42@IMGREL+1
	.long	0
	.long	.Ltmp47@IMGREL+1
	.long	-1
	.section	.text,"xr",one_only,_ZN115_$LT$proc_macro2..imp..TokenStream$u20$as$u20$core..iter..traits..collect..Extend$LT$proc_macro2..TokenTree$GT$$GT$6extend17hb35b748ab3aedf1eE

	.def	_ZN115_$LT$proc_macro2..imp..TokenStream$u20$as$u20$core..iter..traits..collect..Extend$LT$proc_macro2..TokenTree$GT$$GT$6extend17heedd8cfd3df6194aE;
	.scl	2;
	.type	32;
	.endef
	.section	.text,"xr",one_only,_ZN115_$LT$proc_macro2..imp..TokenStream$u20$as$u20$core..iter..traits..collect..Extend$LT$proc_macro2..TokenTree$GT$$GT$6extend17heedd8cfd3df6194aE
	.globl	_ZN115_$LT$proc_macro2..imp..TokenStream$u20$as$u20$core..iter..traits..collect..Extend$LT$proc_macro2..TokenTree$GT$$GT$6extend17heedd8cfd3df6194aE
	.p2align	4, 0x90
_ZN115_$LT$proc_macro2..imp..TokenStream$u20$as$u20$core..iter..traits..collect..Extend$LT$proc_macro2..TokenTree$GT$$GT$6extend17heedd8cfd3df6194aE:
.Lfunc_begin12:
.seh_proc _ZN115_$LT$proc_macro2..imp..TokenStream$u20$as$u20$core..iter..traits..collect..Extend$LT$proc_macro2..TokenTree$GT$$GT$6extend17heedd8cfd3df6194aE
	.seh_handler __CxxFrameHandler3, @unwind, @except
	pushq	%rbp
	.seh_pushreg %rbp
	subq	$192, %rsp
	.seh_stackalloc 192
	leaq	128(%rsp), %rbp
	.seh_setframe %rbp, 128
	.seh_endprologue
	movq	$-2, 56(%rbp)
	movq	%rdx, -96(%rbp)
	movq	%rcx, %rdx
	movq	%rdx, -88(%rbp)
	movabsq	$-9223372036854775808, %r8
	xorl	%eax, %eax
	movl	$1, %ecx
	cmpq	%r8, (%rdx)
	cmoveq	%rcx, %rax
	cmpq	$0, %rax
	jne	.LBB33_2
	movq	-96(%rbp), %rdx
	leaq	-80(%rbp), %rcx
	callq	_ZN63_$LT$I$u20$as$u20$core..iter..traits..collect..IntoIterator$GT$9into_iter17hfb46ac2b11cef4edE
	movq	-80(%rbp), %rax
	movq	%rax, -56(%rbp)
	movq	-72(%rbp), %rax
	movq	%rax, -48(%rbp)
	movq	-64(%rbp), %rax
	movq	%rax, -40(%rbp)
	jmp	.LBB33_3
.LBB33_2:
	movq	-96(%rbp), %rdx
	movq	-88(%rbp), %rcx
	addq	$8, %rcx
	callq	_ZN120_$LT$proc_macro2..fallback..TokenStream$u20$as$u20$core..iter..traits..collect..Extend$LT$proc_macro2..TokenTree$GT$$GT$6extend17hf3dcf34ed28502fdE
	jmp	.LBB33_8
.LBB33_3:
.Ltmp48:
	leaq	-32(%rbp), %rcx
	leaq	-56(%rbp), %rdx
	callq	_ZN108_$LT$quote..__private..push_lifetime_spanned..Lifetime$u20$as$u20$core..iter..traits..iterator..Iterator$GT$4next17hcb18c95189432af7E
.Ltmp49:
	jmp	.LBB33_5
.LBB33_5:
	movabsq	$-9223372036854775803, %rax
	cmpq	%rax, -32(%rbp)
	sete	%al
	testb	$1, %al
	jne	.LBB33_6
	jmp	.LBB33_7
.LBB33_6:
	jmp	.LBB33_8
.LBB33_7:
	vmovups	-32(%rbp), %ymm0
	vmovups	%ymm0, (%rbp)
.Ltmp50:
	leaq	36(%rbp), %rcx
	movq	%rbp, %rdx
	vzeroupper
	callq	_ZN11proc_macro23imp19into_compiler_token17h20ba3c03a89edf13E
.Ltmp51:
	jmp	.LBB33_9
.LBB33_8:
	addq	$192, %rsp
	popq	%rbp
	retq
.LBB33_9:
.Ltmp52:
	movq	-88(%rbp), %rcx
	leaq	36(%rbp), %rdx
	callq	_ZN5alloc3vec16Vec$LT$T$C$A$GT$4push17h41fa810100b89776E
.Ltmp53:
	jmp	.LBB33_10
.LBB33_10:
	jmp	.LBB33_3
	.seh_handlerdata
	.long	($cppxdata$_ZN115_$LT$proc_macro2..imp..TokenStream$u20$as$u20$core..iter..traits..collect..Extend$LT$proc_macro2..TokenTree$GT$$GT$6extend17heedd8cfd3df6194aE)@IMGREL
	.section	.text,"xr",one_only,_ZN115_$LT$proc_macro2..imp..TokenStream$u20$as$u20$core..iter..traits..collect..Extend$LT$proc_macro2..TokenTree$GT$$GT$6extend17heedd8cfd3df6194aE
	.seh_endproc
	.def	"?dtor$4@?0?_ZN115_$LT$proc_macro2..imp..TokenStream$u20$as$u20$core..iter..traits..collect..Extend$LT$proc_macro2..TokenTree$GT$$GT$6extend17heedd8cfd3df6194aE@4HA";
	.scl	3;
	.type	32;
	.endef
	.p2align	4, 0x90
"?dtor$4@?0?_ZN115_$LT$proc_macro2..imp..TokenStream$u20$as$u20$core..iter..traits..collect..Extend$LT$proc_macro2..TokenTree$GT$$GT$6extend17heedd8cfd3df6194aE@4HA":
.seh_proc "?dtor$4@?0?_ZN115_$LT$proc_macro2..imp..TokenStream$u20$as$u20$core..iter..traits..collect..Extend$LT$proc_macro2..TokenTree$GT$$GT$6extend17heedd8cfd3df6194aE@4HA"
.LBB33_4:
	movq	%rdx, 16(%rsp)
	pushq	%rbp
	.seh_pushreg %rbp
	subq	$32, %rsp
	.seh_stackalloc 32
	leaq	128(%rdx), %rbp
	.seh_endprologue
	addq	$32, %rsp
	popq	%rbp
	retq
.Lfunc_end12:
	.seh_handlerdata
	.section	.text,"xr",one_only,_ZN115_$LT$proc_macro2..imp..TokenStream$u20$as$u20$core..iter..traits..collect..Extend$LT$proc_macro2..TokenTree$GT$$GT$6extend17heedd8cfd3df6194aE
	.seh_endproc
	.section	.xdata,"dr",associative,_ZN115_$LT$proc_macro2..imp..TokenStream$u20$as$u20$core..iter..traits..collect..Extend$LT$proc_macro2..TokenTree$GT$$GT$6extend17heedd8cfd3df6194aE
	.p2align	2, 0x0
$cppxdata$_ZN115_$LT$proc_macro2..imp..TokenStream$u20$as$u20$core..iter..traits..collect..Extend$LT$proc_macro2..TokenTree$GT$$GT$6extend17heedd8cfd3df6194aE:
	.long	429065506
	.long	1
	.long	($stateUnwindMap$_ZN115_$LT$proc_macro2..imp..TokenStream$u20$as$u20$core..iter..traits..collect..Extend$LT$proc_macro2..TokenTree$GT$$GT$6extend17heedd8cfd3df6194aE)@IMGREL
	.long	0
	.long	0
	.long	3
	.long	($ip2state$_ZN115_$LT$proc_macro2..imp..TokenStream$u20$as$u20$core..iter..traits..collect..Extend$LT$proc_macro2..TokenTree$GT$$GT$6extend17heedd8cfd3df6194aE)@IMGREL
	.long	184
	.long	0
	.long	1
$stateUnwindMap$_ZN115_$LT$proc_macro2..imp..TokenStream$u20$as$u20$core..iter..traits..collect..Extend$LT$proc_macro2..TokenTree$GT$$GT$6extend17heedd8cfd3df6194aE:
	.long	-1
	.long	"?dtor$4@?0?_ZN115_$LT$proc_macro2..imp..TokenStream$u20$as$u20$core..iter..traits..collect..Extend$LT$proc_macro2..TokenTree$GT$$GT$6extend17heedd8cfd3df6194aE@4HA"@IMGREL
$ip2state$_ZN115_$LT$proc_macro2..imp..TokenStream$u20$as$u20$core..iter..traits..collect..Extend$LT$proc_macro2..TokenTree$GT$$GT$6extend17heedd8cfd3df6194aE:
	.long	.Lfunc_begin12@IMGREL
	.long	-1
	.long	.Ltmp48@IMGREL+1
	.long	0
	.long	.Ltmp53@IMGREL+1
	.long	-1
	.section	.text,"xr",one_only,_ZN115_$LT$proc_macro2..imp..TokenStream$u20$as$u20$core..iter..traits..collect..Extend$LT$proc_macro2..TokenTree$GT$$GT$6extend17heedd8cfd3df6194aE

	.def	_ZN116_$LT$core..iter..adapters..flatten..FlattenCompat$LT$I$C$U$GT$$u20$as$u20$core..iter..traits..iterator..Iterator$GT$4next17hc077dfec022f9f80E;
	.scl	2;
	.type	32;
	.endef
	.section	.text,"xr",one_only,_ZN116_$LT$core..iter..adapters..flatten..FlattenCompat$LT$I$C$U$GT$$u20$as$u20$core..iter..traits..iterator..Iterator$GT$4next17hc077dfec022f9f80E
	.globl	_ZN116_$LT$core..iter..adapters..flatten..FlattenCompat$LT$I$C$U$GT$$u20$as$u20$core..iter..traits..iterator..Iterator$GT$4next17hc077dfec022f9f80E
	.p2align	4, 0x90
_ZN116_$LT$core..iter..adapters..flatten..FlattenCompat$LT$I$C$U$GT$$u20$as$u20$core..iter..traits..iterator..Iterator$GT$4next17hc077dfec022f9f80E:
.Lfunc_begin13:
.seh_proc _ZN116_$LT$core..iter..adapters..flatten..FlattenCompat$LT$I$C$U$GT$$u20$as$u20$core..iter..traits..iterator..Iterator$GT$4next17hc077dfec022f9f80E
	.seh_handler __CxxFrameHandler3, @unwind, @except
	pushq	%rbp
	.seh_pushreg %rbp
	subq	$208, %rsp
	.seh_stackalloc 208
	leaq	128(%rsp), %rbp
	.seh_setframe %rbp, 128
	.seh_endprologue
	movq	$-2, 72(%rbp)
	movq	%rdx, -96(%rbp)
	movq	%rcx, -88(%rbp)
	movq	%rcx, -80(%rbp)
.LBB34_1:
	movq	-96(%rbp), %rdx
	addq	$32, %rdx
	leaq	-72(%rbp), %rcx
	callq	_ZN4core4iter8adapters7flatten17and_then_or_clear17h80457eabfc9a14acE
	movabsq	$-9223372036854775803, %rdx
	movl	$1, %eax
	xorl	%ecx, %ecx
	cmpq	%rdx, -72(%rbp)
	cmoveq	%rcx, %rax
	cmpq	$1, %rax
	jne	.LBB34_3
	movq	-88(%rbp), %rax
	movq	-72(%rbp), %rcx
	movq	%rcx, -40(%rbp)
	movq	-64(%rbp), %rcx
	movq	%rcx, -32(%rbp)
	movq	-56(%rbp), %rcx
	movq	%rcx, -24(%rbp)
	movq	-48(%rbp), %rcx
	movq	%rcx, -16(%rbp)
	movq	-40(%rbp), %rcx
	movq	%rcx, (%rax)
	movq	-32(%rbp), %rcx
	movq	%rcx, 8(%rax)
	movq	-24(%rbp), %rcx
	movq	%rcx, 16(%rax)
	movq	-16(%rbp), %rcx
	movq	%rcx, 24(%rax)
	jmp	.LBB34_4
.LBB34_3:
	leaq	-72(%rbp), %rcx
	callq	_ZN4core3ptr71drop_in_place$LT$core..option..Option$LT$proc_macro2..TokenTree$GT$$GT$17h1fea60868e1a31c3E
	movq	-96(%rbp), %rcx
	callq	_ZN107_$LT$core..iter..adapters..fuse..Fuse$LT$I$GT$$u20$as$u20$core..iter..adapters..fuse..FuseImpl$LT$I$GT$$GT$4next17hd67d1bb90cd1d0a4E
	movq	%rax, -8(%rbp)
	movq	-8(%rbp), %rax
	cmpq	$0, %rax
	sete	%al
	testb	$1, %al
	jne	.LBB34_5
	jmp	.LBB34_6
.LBB34_4:
	movq	-80(%rbp), %rax
	addq	$208, %rsp
	popq	%rbp
	retq
.LBB34_5:
	movq	-88(%rbp), %rcx
	movq	-96(%rbp), %rdx
	addq	$64, %rdx
	callq	_ZN4core4iter8adapters7flatten17and_then_or_clear17h80457eabfc9a14acE
	jmp	.LBB34_4
.LBB34_6:
	movq	-8(%rbp), %rdx
	leaq	40(%rbp), %rcx
	callq	_ZN96_$LT$proc_macro2..fallback..TokenStream$u20$as$u20$core..iter..traits..collect..IntoIterator$GT$9into_iter17h605b6bb9a1eb2b25E
	movq	-96(%rbp), %rcx
	vmovups	40(%rbp), %ymm0
	vmovups	%ymm0, (%rbp)
	addq	$32, %rcx
.Ltmp54:
	vzeroupper
	callq	_ZN4core3ptr112drop_in_place$LT$core..option..Option$LT$proc_macro2..rcvec..RcVecIntoIter$LT$proc_macro2..TokenTree$GT$$GT$$GT$17h95a9626bbbb11b2dE
.Ltmp55:
	jmp	.LBB34_8
.LBB34_8:
	movq	-96(%rbp), %rax
	movq	(%rbp), %rcx
	movq	%rcx, 32(%rax)
	movq	8(%rbp), %rcx
	movq	%rcx, 40(%rax)
	movq	16(%rbp), %rcx
	movq	%rcx, 48(%rax)
	movq	24(%rbp), %rcx
	movq	%rcx, 56(%rax)
	jmp	.LBB34_1
	.seh_handlerdata
	.long	($cppxdata$_ZN116_$LT$core..iter..adapters..flatten..FlattenCompat$LT$I$C$U$GT$$u20$as$u20$core..iter..traits..iterator..Iterator$GT$4next17hc077dfec022f9f80E)@IMGREL
	.section	.text,"xr",one_only,_ZN116_$LT$core..iter..adapters..flatten..FlattenCompat$LT$I$C$U$GT$$u20$as$u20$core..iter..traits..iterator..Iterator$GT$4next17hc077dfec022f9f80E
	.seh_endproc
	.def	"?dtor$7@?0?_ZN116_$LT$core..iter..adapters..flatten..FlattenCompat$LT$I$C$U$GT$$u20$as$u20$core..iter..traits..iterator..Iterator$GT$4next17hc077dfec022f9f80E@4HA";
	.scl	3;
	.type	32;
	.endef
	.p2align	4, 0x90
"?dtor$7@?0?_ZN116_$LT$core..iter..adapters..flatten..FlattenCompat$LT$I$C$U$GT$$u20$as$u20$core..iter..traits..iterator..Iterator$GT$4next17hc077dfec022f9f80E@4HA":
.seh_proc "?dtor$7@?0?_ZN116_$LT$core..iter..adapters..flatten..FlattenCompat$LT$I$C$U$GT$$u20$as$u20$core..iter..traits..iterator..Iterator$GT$4next17hc077dfec022f9f80E@4HA"
.LBB34_7:
	movq	%rdx, 16(%rsp)
	pushq	%rbp
	.seh_pushreg %rbp
	subq	$32, %rsp
	.seh_stackalloc 32
	leaq	128(%rdx), %rbp
	.seh_endprologue
	movq	-96(%rbp), %rax
	vmovups	(%rbp), %ymm0
	vmovups	%ymm0, 32(%rax)
	addq	$32, %rsp
	popq	%rbp
	vzeroupper
	retq
.Lfunc_end13:
	.seh_handlerdata
	.section	.text,"xr",one_only,_ZN116_$LT$core..iter..adapters..flatten..FlattenCompat$LT$I$C$U$GT$$u20$as$u20$core..iter..traits..iterator..Iterator$GT$4next17hc077dfec022f9f80E
	.seh_endproc
	.section	.xdata,"dr",associative,_ZN116_$LT$core..iter..adapters..flatten..FlattenCompat$LT$I$C$U$GT$$u20$as$u20$core..iter..traits..iterator..Iterator$GT$4next17hc077dfec022f9f80E
	.p2align	2, 0x0
$cppxdata$_ZN116_$LT$core..iter..adapters..flatten..FlattenCompat$LT$I$C$U$GT$$u20$as$u20$core..iter..traits..iterator..Iterator$GT$4next17hc077dfec022f9f80E:
	.long	429065506
	.long	1
	.long	($stateUnwindMap$_ZN116_$LT$core..iter..adapters..flatten..FlattenCompat$LT$I$C$U$GT$$u20$as$u20$core..iter..traits..iterator..Iterator$GT$4next17hc077dfec022f9f80E)@IMGREL
	.long	0
	.long	0
	.long	3
	.long	($ip2state$_ZN116_$LT$core..iter..adapters..flatten..FlattenCompat$LT$I$C$U$GT$$u20$as$u20$core..iter..traits..iterator..Iterator$GT$4next17hc077dfec022f9f80E)@IMGREL
	.long	200
	.long	0
	.long	1
$stateUnwindMap$_ZN116_$LT$core..iter..adapters..flatten..FlattenCompat$LT$I$C$U$GT$$u20$as$u20$core..iter..traits..iterator..Iterator$GT$4next17hc077dfec022f9f80E:
	.long	-1
	.long	"?dtor$7@?0?_ZN116_$LT$core..iter..adapters..flatten..FlattenCompat$LT$I$C$U$GT$$u20$as$u20$core..iter..traits..iterator..Iterator$GT$4next17hc077dfec022f9f80E@4HA"@IMGREL
$ip2state$_ZN116_$LT$core..iter..adapters..flatten..FlattenCompat$LT$I$C$U$GT$$u20$as$u20$core..iter..traits..iterator..Iterator$GT$4next17hc077dfec022f9f80E:
	.long	.Lfunc_begin13@IMGREL
	.long	-1
	.long	.Ltmp54@IMGREL+1
	.long	0
	.long	.Ltmp55@IMGREL+1
	.long	-1
	.section	.text,"xr",one_only,_ZN116_$LT$core..iter..adapters..flatten..FlattenCompat$LT$I$C$U$GT$$u20$as$u20$core..iter..traits..iterator..Iterator$GT$4next17hc077dfec022f9f80E

	.def	_ZN116_$LT$core..iter..adapters..flatten..FlattenCompat$LT$I$C$U$GT$$u20$as$u20$core..iter..traits..iterator..Iterator$GT$9size_hint17h82e0dbaecb6b1613E;
	.scl	2;
	.type	32;
	.endef
	.section	.text,"xr",one_only,_ZN116_$LT$core..iter..adapters..flatten..FlattenCompat$LT$I$C$U$GT$$u20$as$u20$core..iter..traits..iterator..Iterator$GT$9size_hint17h82e0dbaecb6b1613E
	.globl	_ZN116_$LT$core..iter..adapters..flatten..FlattenCompat$LT$I$C$U$GT$$u20$as$u20$core..iter..traits..iterator..Iterator$GT$9size_hint17h82e0dbaecb6b1613E
	.p2align	4, 0x90
_ZN116_$LT$core..iter..adapters..flatten..FlattenCompat$LT$I$C$U$GT$$u20$as$u20$core..iter..traits..iterator..Iterator$GT$9size_hint17h82e0dbaecb6b1613E:
.seh_proc _ZN116_$LT$core..iter..adapters..flatten..FlattenCompat$LT$I$C$U$GT$$u20$as$u20$core..iter..traits..iterator..Iterator$GT$9size_hint17h82e0dbaecb6b1613E
	subq	$664, %rsp
	.seh_stackalloc 664
	.seh_endprologue
	movq	%rdx, 120(%rsp)
	movq	%rcx, 128(%rsp)
	movq	%rcx, 136(%rsp)
	movq	32(%rdx), %rdx
	movl	$1, %eax
	xorl	%ecx, %ecx
	cmpq	$0, %rdx
	cmoveq	%rcx, %rax
	cmpq	$0, %rax
	jne	.LBB35_2
	movq	$0, 184(%rsp)
	jmp	.LBB35_3
.LBB35_2:
	movq	120(%rsp), %rax
	addq	$32, %rax
	movq	%rax, 184(%rsp)
.LBB35_3:
	movq	$0, 224(%rsp)
	movq	$1, 216(%rsp)
	movq	$0, 192(%rsp)
	movq	216(%rsp), %rcx
	movq	224(%rsp), %rax
	movq	%rcx, 200(%rsp)
	movq	%rax, 208(%rsp)
	movq	184(%rsp), %rdx
	leaq	160(%rsp), %rcx
	leaq	192(%rsp), %r8
	callq	_ZN4core6option15Option$LT$T$GT$6map_or17h14bf90f09ab10e60E
	movq	120(%rsp), %rax
	movq	160(%rsp), %rcx
	movq	%rcx, 112(%rsp)
	movq	168(%rsp), %rdx
	movq	176(%rsp), %rcx
	movq	%rdx, 144(%rsp)
	movq	%rcx, 152(%rsp)
	movq	64(%rax), %rdx
	movl	$1, %eax
	xorl	%ecx, %ecx
	cmpq	$0, %rdx
	cmoveq	%rcx, %rax
	cmpq	$0, %rax
	jne	.LBB35_5
	movq	$0, 272(%rsp)
	jmp	.LBB35_6
.LBB35_5:
	movq	120(%rsp), %rax
	addq	$64, %rax
	movq	%rax, 272(%rsp)
.LBB35_6:
	movq	$0, 312(%rsp)
	movq	$1, 304(%rsp)
	movq	$0, 280(%rsp)
	movq	304(%rsp), %rcx
	movq	312(%rsp), %rax
	movq	%rcx, 288(%rsp)
	movq	%rax, 296(%rsp)
	movq	272(%rsp), %rdx
	leaq	248(%rsp), %rcx
	leaq	280(%rsp), %r8
	callq	_ZN4core6option15Option$LT$T$GT$6map_or17h14bf90f09ab10e60E
	movq	112(%rsp), %rax
	movq	248(%rsp), %rcx
	movq	256(%rsp), %r8
	movq	264(%rsp), %rdx
	movq	%r8, 232(%rsp)
	movq	%rdx, 240(%rsp)
	addq	%rcx, %rax
	movq	$-1, %rcx
	cmovbq	%rcx, %rax
	movq	%rax, 640(%rsp)
	movq	640(%rsp), %rax
	movq	%rax, 104(%rsp)
	callq	_ZN74_$LT$T$u20$as$u20$core..iter..adapters..flatten..ConstSizeIntoIterator$GT$4size17h7d685ce85d48af75E
	movq	%rdx, 328(%rsp)
	movq	%rax, 320(%rsp)
	cmpq	$1, 320(%rsp)
	jne	.LBB35_8
	movq	120(%rsp), %rdx
	movq	328(%rsp), %rax
	movq	%rax, 96(%rsp)
	movabsq	$-9223372036854775806, %r8
	movl	$1, %eax
	xorl	%ecx, %ecx
	cmpq	%r8, (%rdx)
	cmoveq	%rcx, %rax
	cmpq	$0, %rax
	je	.LBB35_9
	jmp	.LBB35_10
.LBB35_8:
	movq	120(%rsp), %rdx
	movabsq	$-9223372036854775806, %r8
	movl	$1, %eax
	xorl	%ecx, %ecx
	cmpq	%r8, (%rdx)
	cmoveq	%rcx, %rax
	cmpq	$0, %rax
	je	.LBB35_55
	jmp	.LBB35_56
.LBB35_9:
	movq	$0, 600(%rsp)
	movq	$1, 592(%rsp)
	movq	$0, 352(%rsp)
	movq	592(%rsp), %rcx
	movq	600(%rsp), %rax
	movq	%rcx, 360(%rsp)
	movq	%rax, 368(%rsp)
	jmp	.LBB35_11
.LBB35_10:
	movq	120(%rsp), %rdx
	leaq	352(%rsp), %rcx
	callq	_ZN102_$LT$core..iter..adapters..map..Map$LT$I$C$F$GT$$u20$as$u20$core..iter..traits..iterator..Iterator$GT$9size_hint17h46551c04fdcf22b7E
.LBB35_11:
	movq	96(%rsp), %rdx
	movq	352(%rsp), %rcx
	movq	360(%rsp), %r8
	movq	368(%rsp), %rax
	movq	%r8, 336(%rsp)
	movq	%rax, 344(%rsp)
	callq	_ZN4core3num23_$LT$impl$u20$usize$GT$14saturating_mul17hac3c91f48ba4a3bdE
	movq	104(%rsp), %rcx
	addq	%rcx, %rax
	movq	$-1, %rcx
	cmovbq	%rcx, %rax
	movq	%rax, 648(%rsp)
	movq	648(%rsp), %rax
	movq	%rax, 88(%rsp)
	cmpq	$0, 144(%rsp)
	jne	.LBB35_13
	movq	$1, 456(%rsp)
	jmp	.LBB35_14
.LBB35_13:
	movq	152(%rsp), %rax
	movq	%rax, 464(%rsp)
	movq	$0, 456(%rsp)
.LBB35_14:
	cmpq	$0, 456(%rsp)
	jne	.LBB35_16
	movq	464(%rsp), %rax
	movq	%rax, 80(%rsp)
	cmpq	$0, 232(%rsp)
	je	.LBB35_17
	jmp	.LBB35_18
.LBB35_16:
	movq	$0, 376(%rsp)
	jmp	.LBB35_53
.LBB35_17:
	movq	$1, 472(%rsp)
	jmp	.LBB35_19
.LBB35_18:
	movq	240(%rsp), %rax
	movq	%rax, 480(%rsp)
	movq	$0, 472(%rsp)
.LBB35_19:
	cmpq	$0, 472(%rsp)
	jne	.LBB35_21
	movq	80(%rsp), %rax
	addq	480(%rsp), %rax
	movq	%rax, 72(%rsp)
	setb	%al
	andb	$1, %al
	movb	%al, 660(%rsp)
	testb	$1, 660(%rsp)
	jne	.LBB35_23
	jmp	.LBB35_22
.LBB35_21:
	movq	$0, 376(%rsp)
	jmp	.LBB35_53
.LBB35_22:
	movq	72(%rsp), %rax
	movq	%rax, 448(%rsp)
	movq	$1, 440(%rsp)
	jmp	.LBB35_24
.LBB35_23:
	movq	$0, 440(%rsp)
.LBB35_24:
	cmpq	$0, 440(%rsp)
	jne	.LBB35_26
	movq	$1, 424(%rsp)
	jmp	.LBB35_27
.LBB35_26:
	movq	448(%rsp), %rax
	movq	%rax, 432(%rsp)
	movq	$0, 424(%rsp)
.LBB35_27:
	cmpq	$0, 424(%rsp)
	jne	.LBB35_29
	movq	432(%rsp), %rax
	movq	%rax, 64(%rsp)
	cmpq	$0, 336(%rsp)
	je	.LBB35_30
	jmp	.LBB35_31
.LBB35_29:
	movq	$0, 376(%rsp)
	jmp	.LBB35_52
.LBB35_30:
	movq	$1, 520(%rsp)
	jmp	.LBB35_32
.LBB35_31:
	movq	344(%rsp), %rax
	movq	%rax, 528(%rsp)
	movq	$0, 520(%rsp)
.LBB35_32:
	cmpq	$0, 520(%rsp)
	jne	.LBB35_34
	movq	96(%rsp), %rax
	mulq	528(%rsp)
	movq	%rax, 56(%rsp)
	seto	%al
	andb	$1, %al
	movb	%al, 661(%rsp)
	testb	$1, 661(%rsp)
	jne	.LBB35_36
	jmp	.LBB35_35
.LBB35_34:
	movq	$0, 376(%rsp)
	jmp	.LBB35_52
.LBB35_35:
	movq	56(%rsp), %rax
	movq	%rax, 512(%rsp)
	movq	$1, 504(%rsp)
	jmp	.LBB35_37
.LBB35_36:
	movq	$0, 504(%rsp)
.LBB35_37:
	cmpq	$0, 504(%rsp)
	jne	.LBB35_39
	movq	$1, 488(%rsp)
	jmp	.LBB35_40
.LBB35_39:
	movq	512(%rsp), %rax
	movq	%rax, 496(%rsp)
	movq	$0, 488(%rsp)
.LBB35_40:
	cmpq	$0, 488(%rsp)
	jne	.LBB35_42
	movq	64(%rsp), %rax
	addq	496(%rsp), %rax
	movq	%rax, 48(%rsp)
	setb	%al
	andb	$1, %al
	movb	%al, 662(%rsp)
	testb	$1, 662(%rsp)
	jne	.LBB35_44
	jmp	.LBB35_43
.LBB35_42:
	movq	$0, 376(%rsp)
	jmp	.LBB35_52
.LBB35_43:
	movq	48(%rsp), %rax
	movq	%rax, 416(%rsp)
	movq	$1, 408(%rsp)
	jmp	.LBB35_45
.LBB35_44:
	movq	$0, 408(%rsp)
.LBB35_45:
	cmpq	$0, 408(%rsp)
	jne	.LBB35_47
	movq	$1, 392(%rsp)
	jmp	.LBB35_48
.LBB35_47:
	movq	416(%rsp), %rax
	movq	%rax, 400(%rsp)
	movq	$0, 392(%rsp)
.LBB35_48:
	cmpq	$0, 392(%rsp)
	jne	.LBB35_50
	movq	400(%rsp), %rax
	movq	%rax, 384(%rsp)
	movq	$1, 376(%rsp)
	jmp	.LBB35_51
.LBB35_50:
	movq	$0, 376(%rsp)
.LBB35_51:
	movq	128(%rsp), %rax
	movq	88(%rsp), %r8
	movq	376(%rsp), %rdx
	movq	384(%rsp), %rcx
	movq	%r8, (%rax)
	movq	%rdx, 8(%rax)
	movq	%rcx, 16(%rax)
	jmp	.LBB35_54
.LBB35_52:
	jmp	.LBB35_51
.LBB35_53:
	jmp	.LBB35_52
.LBB35_54:
	movq	136(%rsp), %rax
	addq	$664, %rsp
	retq
.LBB35_55:
	movq	$0, 616(%rsp)
	movq	$1, 608(%rsp)
	movq	$0, 536(%rsp)
	movq	608(%rsp), %rcx
	movq	616(%rsp), %rax
	movq	%rcx, 544(%rsp)
	movq	%rax, 552(%rsp)
	jmp	.LBB35_57
.LBB35_56:
	movq	120(%rsp), %rdx
	leaq	536(%rsp), %rcx
	callq	_ZN102_$LT$core..iter..adapters..map..Map$LT$I$C$F$GT$$u20$as$u20$core..iter..traits..iterator..Iterator$GT$9size_hint17h46551c04fdcf22b7E
.LBB35_57:
	movq	536(%rsp), %rax
	movq	544(%rsp), %rdx
	movq	552(%rsp), %rcx
	movq	%rdx, 624(%rsp)
	movq	%rcx, 632(%rsp)
	cmpq	$0, %rax
	jne	.LBB35_59
	cmpq	$1, 624(%rsp)
	je	.LBB35_60
.LBB35_59:
	movq	128(%rsp), %rax
	movq	104(%rsp), %rcx
	movq	$0, 576(%rsp)
	movq	%rcx, (%rax)
	movq	576(%rsp), %rdx
	movq	584(%rsp), %rcx
	movq	%rdx, 8(%rax)
	movq	%rcx, 16(%rax)
	jmp	.LBB35_67
.LBB35_60:
	cmpq	$1, 144(%rsp)
	jne	.LBB35_59
	cmpq	$1, 232(%rsp)
	jne	.LBB35_59
	cmpq	$0, 632(%rsp)
	jne	.LBB35_59
	movq	152(%rsp), %rax
	addq	240(%rsp), %rax
	movq	%rax, 40(%rsp)
	setb	%al
	andb	$1, %al
	movb	%al, 663(%rsp)
	testb	$1, 663(%rsp)
	jne	.LBB35_65
	movq	40(%rsp), %rax
	movq	%rax, 568(%rsp)
	movq	$1, 560(%rsp)
	jmp	.LBB35_66
.LBB35_65:
	movq	$0, 560(%rsp)
.LBB35_66:
	movq	128(%rsp), %rax
	movq	104(%rsp), %rcx
	movq	%rcx, (%rax)
	movq	560(%rsp), %rdx
	movq	568(%rsp), %rcx
	movq	%rdx, 8(%rax)
	movq	%rcx, 16(%rax)
.LBB35_67:
	jmp	.LBB35_54
	.seh_endproc

	.def	_ZN116_$LT$proc_macro2..TokenStream$u20$as$u20$core..iter..traits..collect..FromIterator$LT$proc_macro2..TokenTree$GT$$GT$9from_iter17h3caed4b6775ba0c7E;
	.scl	2;
	.type	32;
	.endef
	.section	.text,"xr",one_only,_ZN116_$LT$proc_macro2..TokenStream$u20$as$u20$core..iter..traits..collect..FromIterator$LT$proc_macro2..TokenTree$GT$$GT$9from_iter17h3caed4b6775ba0c7E
	.globl	_ZN116_$LT$proc_macro2..TokenStream$u20$as$u20$core..iter..traits..collect..FromIterator$LT$proc_macro2..TokenTree$GT$$GT$9from_iter17h3caed4b6775ba0c7E
	.p2align	4, 0x90
_ZN116_$LT$proc_macro2..TokenStream$u20$as$u20$core..iter..traits..collect..FromIterator$LT$proc_macro2..TokenTree$GT$$GT$9from_iter17h3caed4b6775ba0c7E:
.seh_proc _ZN116_$LT$proc_macro2..TokenStream$u20$as$u20$core..iter..traits..collect..FromIterator$LT$proc_macro2..TokenTree$GT$$GT$9from_iter17h3caed4b6775ba0c7E
	subq	$136, %rsp
	.seh_stackalloc 136
	.seh_endprologue
	movq	%rcx, 40(%rsp)
	movq	%rcx, 48(%rsp)
	leaq	88(%rsp), %rcx
	callq	_ZN63_$LT$I$u20$as$u20$core..iter..traits..collect..IntoIterator$GT$9into_iter17h4aa9e6377ce578fbE
	leaq	56(%rsp), %rcx
	leaq	88(%rsp), %rdx
	callq	_ZN4core4iter6traits8iterator8Iterator7collect17h951a60acc9b57976E
	movq	40(%rsp), %rcx
	leaq	56(%rsp), %rdx
	callq	_ZN11proc_macro211TokenStream4_new17hee8327268bd840bcE
	movq	48(%rsp), %rax
	addq	$136, %rsp
	retq
	.seh_endproc

	.def	_ZN11proc_macro25rcvec14RcVec$LT$T$GT$8make_mut17h3578bdcc6fe36399E;
	.scl	2;
	.type	32;
	.endef
	.section	.text,"xr",one_only,_ZN11proc_macro25rcvec14RcVec$LT$T$GT$8make_mut17h3578bdcc6fe36399E
	.globl	_ZN11proc_macro25rcvec14RcVec$LT$T$GT$8make_mut17h3578bdcc6fe36399E
	.p2align	4, 0x90
_ZN11proc_macro25rcvec14RcVec$LT$T$GT$8make_mut17h3578bdcc6fe36399E:
.seh_proc _ZN11proc_macro25rcvec14RcVec$LT$T$GT$8make_mut17h3578bdcc6fe36399E
	subq	$40, %rsp
	.seh_stackalloc 40
	.seh_endprologue
	callq	_ZN5alloc2rc15Rc$LT$T$C$A$GT$8make_mut17h96ef5da90c86e4fcE
	movq	%rax, 32(%rsp)
	movq	32(%rsp), %rax
	addq	$40, %rsp
	retq
	.seh_endproc

	.def	_ZN11proc_macro25rcvec17RcVecMut$LT$T$GT$6as_mut17h1b6060cbb25379e4E;
	.scl	2;
	.type	32;
	.endef
	.section	.text,"xr",one_only,_ZN11proc_macro25rcvec17RcVecMut$LT$T$GT$6as_mut17h1b6060cbb25379e4E
	.globl	_ZN11proc_macro25rcvec17RcVecMut$LT$T$GT$6as_mut17h1b6060cbb25379e4E
	.p2align	4, 0x90
_ZN11proc_macro25rcvec17RcVecMut$LT$T$GT$6as_mut17h1b6060cbb25379e4E:
.seh_proc _ZN11proc_macro25rcvec17RcVecMut$LT$T$GT$6as_mut17h1b6060cbb25379e4E
	pushq	%rax
	.seh_stackalloc 8
	.seh_endprologue
	movq	(%rcx), %rax
	movq	%rax, (%rsp)
	movq	(%rsp), %rax
	popq	%rcx
	retq
	.seh_endproc

	.def	_ZN11proc_macro25rcvec17RcVecMut$LT$T$GT$6extend17h78f7956d4e33108eE;
	.scl	2;
	.type	32;
	.endef
	.section	.text,"xr",one_only,_ZN11proc_macro25rcvec17RcVecMut$LT$T$GT$6extend17h78f7956d4e33108eE
	.globl	_ZN11proc_macro25rcvec17RcVecMut$LT$T$GT$6extend17h78f7956d4e33108eE
	.p2align	4, 0x90
_ZN11proc_macro25rcvec17RcVecMut$LT$T$GT$6extend17h78f7956d4e33108eE:
.seh_proc _ZN11proc_macro25rcvec17RcVecMut$LT$T$GT$6extend17h78f7956d4e33108eE
	subq	$40, %rsp
	.seh_stackalloc 40
	.seh_endprologue
	movq	(%rcx), %rcx
	callq	_ZN93_$LT$alloc..vec..Vec$LT$T$C$A$GT$$u20$as$u20$core..iter..traits..collect..Extend$LT$T$GT$$GT$6extend17h3d83df427ef1d918E
	nop
	addq	$40, %rsp
	retq
	.seh_endproc

	.def	_ZN120_$LT$proc_macro2..fallback..TokenStream$u20$as$u20$core..iter..traits..collect..Extend$LT$proc_macro2..TokenTree$GT$$GT$6extend17h07965b84c805d8c7E;
	.scl	2;
	.type	32;
	.endef
	.section	.text,"xr",one_only,_ZN120_$LT$proc_macro2..fallback..TokenStream$u20$as$u20$core..iter..traits..collect..Extend$LT$proc_macro2..TokenTree$GT$$GT$6extend17h07965b84c805d8c7E
	.globl	_ZN120_$LT$proc_macro2..fallback..TokenStream$u20$as$u20$core..iter..traits..collect..Extend$LT$proc_macro2..TokenTree$GT$$GT$6extend17h07965b84c805d8c7E
	.p2align	4, 0x90
_ZN120_$LT$proc_macro2..fallback..TokenStream$u20$as$u20$core..iter..traits..collect..Extend$LT$proc_macro2..TokenTree$GT$$GT$6extend17h07965b84c805d8c7E:
.Lfunc_begin14:
.seh_proc _ZN120_$LT$proc_macro2..fallback..TokenStream$u20$as$u20$core..iter..traits..collect..Extend$LT$proc_macro2..TokenTree$GT$$GT$6extend17h07965b84c805d8c7E
	.seh_handler __CxxFrameHandler3, @unwind, @except
	pushq	%rbp
	.seh_pushreg %rbp
	subq	$192, %rsp
	.seh_stackalloc 192
	leaq	128(%rsp), %rbp
	.seh_setframe %rbp, 128
	.seh_endprologue
	movq	$-2, 56(%rbp)
	movq	%rdx, -88(%rbp)
	movb	$0, 55(%rbp)
	movb	$1, 55(%rbp)
.Ltmp56:
	callq	_ZN11proc_macro25rcvec14RcVec$LT$T$GT$8make_mut17h3578bdcc6fe36399E
.Ltmp57:
	movq	%rax, -80(%rbp)
	jmp	.LBB40_2
.LBB40_2:
	movq	-88(%rbp), %rax
	movq	-80(%rbp), %rcx
	movq	%rcx, -72(%rbp)
	movb	$0, 55(%rbp)
	vmovups	(%rax), %ymm0
	vmovups	16(%rax), %ymm1
	vmovups	%ymm1, (%rbp)
	vmovups	%ymm0, -16(%rbp)
.Ltmp58:
	leaq	-64(%rbp), %rcx
	leaq	-16(%rbp), %rdx
	vzeroupper
	callq	_ZN63_$LT$I$u20$as$u20$core..iter..traits..collect..IntoIterator$GT$9into_iter17h4aa9e6377ce578fbE
.Ltmp59:
	jmp	.LBB40_3
.LBB40_3:
	leaq	-72(%rbp), %rax
	movq	%rax, 40(%rbp)
	movq	40(%rbp), %rdx
.Ltmp60:
	leaq	-64(%rbp), %rcx
	callq	_ZN4core4iter6traits8iterator8Iterator8for_each17h4271949fefbf4caeE
.Ltmp61:
	jmp	.LBB40_4
.LBB40_4:
	addq	$192, %rsp
	popq	%rbp
	retq
	.seh_handlerdata
	.long	($cppxdata$_ZN120_$LT$proc_macro2..fallback..TokenStream$u20$as$u20$core..iter..traits..collect..Extend$LT$proc_macro2..TokenTree$GT$$GT$6extend17h07965b84c805d8c7E)@IMGREL
	.section	.text,"xr",one_only,_ZN120_$LT$proc_macro2..fallback..TokenStream$u20$as$u20$core..iter..traits..collect..Extend$LT$proc_macro2..TokenTree$GT$$GT$6extend17h07965b84c805d8c7E
	.seh_endproc
	.def	"?dtor$1@?0?_ZN120_$LT$proc_macro2..fallback..TokenStream$u20$as$u20$core..iter..traits..collect..Extend$LT$proc_macro2..TokenTree$GT$$GT$6extend17h07965b84c805d8c7E@4HA";
	.scl	3;
	.type	32;
	.endef
	.p2align	4, 0x90
"?dtor$1@?0?_ZN120_$LT$proc_macro2..fallback..TokenStream$u20$as$u20$core..iter..traits..collect..Extend$LT$proc_macro2..TokenTree$GT$$GT$6extend17h07965b84c805d8c7E@4HA":
.seh_proc "?dtor$1@?0?_ZN120_$LT$proc_macro2..fallback..TokenStream$u20$as$u20$core..iter..traits..collect..Extend$LT$proc_macro2..TokenTree$GT$$GT$6extend17h07965b84c805d8c7E@4HA"
.LBB40_1:
	movq	%rdx, 16(%rsp)
	pushq	%rbp
	.seh_pushreg %rbp
	subq	$32, %rsp
	.seh_stackalloc 32
	leaq	128(%rdx), %rbp
	.seh_endprologue
	testb	$1, 55(%rbp)
	jne	.LBB40_6
	jmp	.LBB40_5
.LBB40_5:
	addq	$32, %rsp
	popq	%rbp
	retq
.LBB40_6:
	movq	-88(%rbp), %rcx
	callq	_ZN4core3ptr161drop_in_place$LT$core..iter..adapters..map..Map$LT$proc_macro2..token_stream..IntoIter$C$quote..__private..respan_token_tree..$u7b$$u7b$closure$u7d$$u7d$$GT$$GT$17h271ad6f41fe1fce7E
	jmp	.LBB40_5
.Lfunc_end14:
	.seh_handlerdata
	.section	.text,"xr",one_only,_ZN120_$LT$proc_macro2..fallback..TokenStream$u20$as$u20$core..iter..traits..collect..Extend$LT$proc_macro2..TokenTree$GT$$GT$6extend17h07965b84c805d8c7E
	.seh_endproc
	.section	.xdata,"dr",associative,_ZN120_$LT$proc_macro2..fallback..TokenStream$u20$as$u20$core..iter..traits..collect..Extend$LT$proc_macro2..TokenTree$GT$$GT$6extend17h07965b84c805d8c7E
	.p2align	2, 0x0
$cppxdata$_ZN120_$LT$proc_macro2..fallback..TokenStream$u20$as$u20$core..iter..traits..collect..Extend$LT$proc_macro2..TokenTree$GT$$GT$6extend17h07965b84c805d8c7E:
	.long	429065506
	.long	1
	.long	($stateUnwindMap$_ZN120_$LT$proc_macro2..fallback..TokenStream$u20$as$u20$core..iter..traits..collect..Extend$LT$proc_macro2..TokenTree$GT$$GT$6extend17h07965b84c805d8c7E)@IMGREL
	.long	0
	.long	0
	.long	3
	.long	($ip2state$_ZN120_$LT$proc_macro2..fallback..TokenStream$u20$as$u20$core..iter..traits..collect..Extend$LT$proc_macro2..TokenTree$GT$$GT$6extend17h07965b84c805d8c7E)@IMGREL
	.long	184
	.long	0
	.long	1
$stateUnwindMap$_ZN120_$LT$proc_macro2..fallback..TokenStream$u20$as$u20$core..iter..traits..collect..Extend$LT$proc_macro2..TokenTree$GT$$GT$6extend17h07965b84c805d8c7E:
	.long	-1
	.long	"?dtor$1@?0?_ZN120_$LT$proc_macro2..fallback..TokenStream$u20$as$u20$core..iter..traits..collect..Extend$LT$proc_macro2..TokenTree$GT$$GT$6extend17h07965b84c805d8c7E@4HA"@IMGREL
$ip2state$_ZN120_$LT$proc_macro2..fallback..TokenStream$u20$as$u20$core..iter..traits..collect..Extend$LT$proc_macro2..TokenTree$GT$$GT$6extend17h07965b84c805d8c7E:
	.long	.Lfunc_begin14@IMGREL
	.long	-1
	.long	.Ltmp56@IMGREL+1
	.long	0
	.long	.Ltmp61@IMGREL+1
	.long	-1
	.section	.text,"xr",one_only,_ZN120_$LT$proc_macro2..fallback..TokenStream$u20$as$u20$core..iter..traits..collect..Extend$LT$proc_macro2..TokenTree$GT$$GT$6extend17h07965b84c805d8c7E

	.def	_ZN120_$LT$proc_macro2..fallback..TokenStream$u20$as$u20$core..iter..traits..collect..Extend$LT$proc_macro2..TokenTree$GT$$GT$6extend17h34b38d03d4dbd660E;
	.scl	2;
	.type	32;
	.endef
	.section	.text,"xr",one_only,_ZN120_$LT$proc_macro2..fallback..TokenStream$u20$as$u20$core..iter..traits..collect..Extend$LT$proc_macro2..TokenTree$GT$$GT$6extend17h34b38d03d4dbd660E
	.globl	_ZN120_$LT$proc_macro2..fallback..TokenStream$u20$as$u20$core..iter..traits..collect..Extend$LT$proc_macro2..TokenTree$GT$$GT$6extend17h34b38d03d4dbd660E
	.p2align	4, 0x90
_ZN120_$LT$proc_macro2..fallback..TokenStream$u20$as$u20$core..iter..traits..collect..Extend$LT$proc_macro2..TokenTree$GT$$GT$6extend17h34b38d03d4dbd660E:
.Lfunc_begin15:
.seh_proc _ZN120_$LT$proc_macro2..fallback..TokenStream$u20$as$u20$core..iter..traits..collect..Extend$LT$proc_macro2..TokenTree$GT$$GT$6extend17h34b38d03d4dbd660E
	.seh_handler __CxxFrameHandler3, @unwind, @except
	pushq	%rbp
	.seh_pushreg %rbp
	subq	$160, %rsp
	.seh_stackalloc 160
	leaq	128(%rsp), %rbp
	.seh_setframe %rbp, 128
	.seh_endprologue
	movq	$-2, 24(%rbp)
	movq	%rdx, -88(%rbp)
	movb	$0, 23(%rbp)
	movb	$1, 23(%rbp)
.Ltmp62:
	callq	_ZN11proc_macro25rcvec14RcVec$LT$T$GT$8make_mut17h3578bdcc6fe36399E
.Ltmp63:
	movq	%rax, -80(%rbp)
	jmp	.LBB41_2
.LBB41_2:
	movq	-88(%rbp), %rax
	movq	-80(%rbp), %rcx
	movq	%rcx, -72(%rbp)
	movb	$0, 23(%rbp)
	vmovups	(%rax), %ymm0
	vmovups	%ymm0, -32(%rbp)
.Ltmp64:
	leaq	-64(%rbp), %rcx
	leaq	-32(%rbp), %rdx
	vzeroupper
	callq	_ZN63_$LT$I$u20$as$u20$core..iter..traits..collect..IntoIterator$GT$9into_iter17hf44ce168a171edd0E
.Ltmp65:
	jmp	.LBB41_3
.LBB41_3:
	leaq	-72(%rbp), %rax
	movq	%rax, 8(%rbp)
	movq	8(%rbp), %rdx
.Ltmp66:
	leaq	-64(%rbp), %rcx
	callq	_ZN4core4iter6traits8iterator8Iterator8for_each17h98a81c8e0b8ea712E
.Ltmp67:
	jmp	.LBB41_4
.LBB41_4:
	addq	$160, %rsp
	popq	%rbp
	retq
	.seh_handlerdata
	.long	($cppxdata$_ZN120_$LT$proc_macro2..fallback..TokenStream$u20$as$u20$core..iter..traits..collect..Extend$LT$proc_macro2..TokenTree$GT$$GT$6extend17h34b38d03d4dbd660E)@IMGREL
	.section	.text,"xr",one_only,_ZN120_$LT$proc_macro2..fallback..TokenStream$u20$as$u20$core..iter..traits..collect..Extend$LT$proc_macro2..TokenTree$GT$$GT$6extend17h34b38d03d4dbd660E
	.seh_endproc
	.def	"?dtor$1@?0?_ZN120_$LT$proc_macro2..fallback..TokenStream$u20$as$u20$core..iter..traits..collect..Extend$LT$proc_macro2..TokenTree$GT$$GT$6extend17h34b38d03d4dbd660E@4HA";
	.scl	3;
	.type	32;
	.endef
	.p2align	4, 0x90
"?dtor$1@?0?_ZN120_$LT$proc_macro2..fallback..TokenStream$u20$as$u20$core..iter..traits..collect..Extend$LT$proc_macro2..TokenTree$GT$$GT$6extend17h34b38d03d4dbd660E@4HA":
.seh_proc "?dtor$1@?0?_ZN120_$LT$proc_macro2..fallback..TokenStream$u20$as$u20$core..iter..traits..collect..Extend$LT$proc_macro2..TokenTree$GT$$GT$6extend17h34b38d03d4dbd660E@4HA"
.LBB41_1:
	movq	%rdx, 16(%rsp)
	pushq	%rbp
	.seh_pushreg %rbp
	subq	$32, %rsp
	.seh_stackalloc 32
	leaq	128(%rdx), %rbp
	.seh_endprologue
	testb	$1, 23(%rbp)
	jne	.LBB41_6
	jmp	.LBB41_5
.LBB41_5:
	addq	$32, %rsp
	popq	%rbp
	retq
.LBB41_6:
	movq	-88(%rbp), %rcx
	callq	_ZN4core3ptr82drop_in_place$LT$core..iter..sources..once..Once$LT$proc_macro2..TokenTree$GT$$GT$17h373e320e736b2ce2E
	jmp	.LBB41_5
.Lfunc_end15:
	.seh_handlerdata
	.section	.text,"xr",one_only,_ZN120_$LT$proc_macro2..fallback..TokenStream$u20$as$u20$core..iter..traits..collect..Extend$LT$proc_macro2..TokenTree$GT$$GT$6extend17h34b38d03d4dbd660E
	.seh_endproc
	.section	.xdata,"dr",associative,_ZN120_$LT$proc_macro2..fallback..TokenStream$u20$as$u20$core..iter..traits..collect..Extend$LT$proc_macro2..TokenTree$GT$$GT$6extend17h34b38d03d4dbd660E
	.p2align	2, 0x0
$cppxdata$_ZN120_$LT$proc_macro2..fallback..TokenStream$u20$as$u20$core..iter..traits..collect..Extend$LT$proc_macro2..TokenTree$GT$$GT$6extend17h34b38d03d4dbd660E:
	.long	429065506
	.long	1
	.long	($stateUnwindMap$_ZN120_$LT$proc_macro2..fallback..TokenStream$u20$as$u20$core..iter..traits..collect..Extend$LT$proc_macro2..TokenTree$GT$$GT$6extend17h34b38d03d4dbd660E)@IMGREL
	.long	0
	.long	0
	.long	3
	.long	($ip2state$_ZN120_$LT$proc_macro2..fallback..TokenStream$u20$as$u20$core..iter..traits..collect..Extend$LT$proc_macro2..TokenTree$GT$$GT$6extend17h34b38d03d4dbd660E)@IMGREL
	.long	152
	.long	0
	.long	1
$stateUnwindMap$_ZN120_$LT$proc_macro2..fallback..TokenStream$u20$as$u20$core..iter..traits..collect..Extend$LT$proc_macro2..TokenTree$GT$$GT$6extend17h34b38d03d4dbd660E:
	.long	-1
	.long	"?dtor$1@?0?_ZN120_$LT$proc_macro2..fallback..TokenStream$u20$as$u20$core..iter..traits..collect..Extend$LT$proc_macro2..TokenTree$GT$$GT$6extend17h34b38d03d4dbd660E@4HA"@IMGREL
$ip2state$_ZN120_$LT$proc_macro2..fallback..TokenStream$u20$as$u20$core..iter..traits..collect..Extend$LT$proc_macro2..TokenTree$GT$$GT$6extend17h34b38d03d4dbd660E:
	.long	.Lfunc_begin15@IMGREL
	.long	-1
	.long	.Ltmp62@IMGREL+1
	.long	0
	.long	.Ltmp67@IMGREL+1
	.long	-1
	.section	.text,"xr",one_only,_ZN120_$LT$proc_macro2..fallback..TokenStream$u20$as$u20$core..iter..traits..collect..Extend$LT$proc_macro2..TokenTree$GT$$GT$6extend17h34b38d03d4dbd660E

	.def	_ZN120_$LT$proc_macro2..fallback..TokenStream$u20$as$u20$core..iter..traits..collect..Extend$LT$proc_macro2..TokenTree$GT$$GT$6extend17h3df6c9fa752a8611E;
	.scl	2;
	.type	32;
	.endef
	.section	.text,"xr",one_only,_ZN120_$LT$proc_macro2..fallback..TokenStream$u20$as$u20$core..iter..traits..collect..Extend$LT$proc_macro2..TokenTree$GT$$GT$6extend17h3df6c9fa752a8611E
	.globl	_ZN120_$LT$proc_macro2..fallback..TokenStream$u20$as$u20$core..iter..traits..collect..Extend$LT$proc_macro2..TokenTree$GT$$GT$6extend17h3df6c9fa752a8611E
	.p2align	4, 0x90
_ZN120_$LT$proc_macro2..fallback..TokenStream$u20$as$u20$core..iter..traits..collect..Extend$LT$proc_macro2..TokenTree$GT$$GT$6extend17h3df6c9fa752a8611E:
.Lfunc_begin16:
.seh_proc _ZN120_$LT$proc_macro2..fallback..TokenStream$u20$as$u20$core..iter..traits..collect..Extend$LT$proc_macro2..TokenTree$GT$$GT$6extend17h3df6c9fa752a8611E
	.seh_handler __CxxFrameHandler3, @unwind, @except
	pushq	%rbp
	.seh_pushreg %rbp
	subq	$128, %rsp
	.seh_stackalloc 128
	leaq	128(%rsp), %rbp
	.seh_setframe %rbp, 128
	.seh_endprologue
	movq	$-2, -8(%rbp)
	movq	%rdx, -96(%rbp)
	movb	$0, -9(%rbp)
	movb	$1, -9(%rbp)
.Ltmp68:
	callq	_ZN11proc_macro25rcvec14RcVec$LT$T$GT$8make_mut17h3578bdcc6fe36399E
.Ltmp69:
	movq	%rax, -88(%rbp)
	jmp	.LBB42_2
.LBB42_2:
	movq	-96(%rbp), %rax
	movq	-88(%rbp), %rcx
	movq	%rcx, -80(%rbp)
	movb	$0, -9(%rbp)
	movq	16(%rax), %rcx
	movq	%rcx, -32(%rbp)
	vmovdqu	(%rax), %xmm0
	vmovdqa	%xmm0, -48(%rbp)
.Ltmp70:
	leaq	-72(%rbp), %rcx
	leaq	-48(%rbp), %rdx
	callq	_ZN63_$LT$I$u20$as$u20$core..iter..traits..collect..IntoIterator$GT$9into_iter17h7dbbf9bdff186490E
.Ltmp71:
	jmp	.LBB42_3
.LBB42_3:
	leaq	-80(%rbp), %rax
	movq	%rax, -24(%rbp)
	movq	-24(%rbp), %rdx
.Ltmp72:
	leaq	-72(%rbp), %rcx
	callq	_ZN4core4iter6traits8iterator8Iterator8for_each17h600e4c1061857a40E
.Ltmp73:
	jmp	.LBB42_4
.LBB42_4:
	addq	$128, %rsp
	popq	%rbp
	retq
	.seh_handlerdata
	.long	($cppxdata$_ZN120_$LT$proc_macro2..fallback..TokenStream$u20$as$u20$core..iter..traits..collect..Extend$LT$proc_macro2..TokenTree$GT$$GT$6extend17h3df6c9fa752a8611E)@IMGREL
	.section	.text,"xr",one_only,_ZN120_$LT$proc_macro2..fallback..TokenStream$u20$as$u20$core..iter..traits..collect..Extend$LT$proc_macro2..TokenTree$GT$$GT$6extend17h3df6c9fa752a8611E
	.seh_endproc
	.def	"?dtor$1@?0?_ZN120_$LT$proc_macro2..fallback..TokenStream$u20$as$u20$core..iter..traits..collect..Extend$LT$proc_macro2..TokenTree$GT$$GT$6extend17h3df6c9fa752a8611E@4HA";
	.scl	3;
	.type	32;
	.endef
	.p2align	4, 0x90
"?dtor$1@?0?_ZN120_$LT$proc_macro2..fallback..TokenStream$u20$as$u20$core..iter..traits..collect..Extend$LT$proc_macro2..TokenTree$GT$$GT$6extend17h3df6c9fa752a8611E@4HA":
.seh_proc "?dtor$1@?0?_ZN120_$LT$proc_macro2..fallback..TokenStream$u20$as$u20$core..iter..traits..collect..Extend$LT$proc_macro2..TokenTree$GT$$GT$6extend17h3df6c9fa752a8611E@4HA"
.LBB42_1:
	movq	%rdx, 16(%rsp)
	pushq	%rbp
	.seh_pushreg %rbp
	subq	$32, %rsp
	.seh_stackalloc 32
	leaq	128(%rdx), %rbp
	.seh_endprologue
	testb	$1, -9(%rbp)
	jne	.LBB42_6
	jmp	.LBB42_5
.LBB42_5:
	addq	$32, %rsp
	popq	%rbp
	retq
.LBB42_6:
	jmp	.LBB42_5
.Lfunc_end16:
	.seh_handlerdata
	.section	.text,"xr",one_only,_ZN120_$LT$proc_macro2..fallback..TokenStream$u20$as$u20$core..iter..traits..collect..Extend$LT$proc_macro2..TokenTree$GT$$GT$6extend17h3df6c9fa752a8611E
	.seh_endproc
	.section	.xdata,"dr",associative,_ZN120_$LT$proc_macro2..fallback..TokenStream$u20$as$u20$core..iter..traits..collect..Extend$LT$proc_macro2..TokenTree$GT$$GT$6extend17h3df6c9fa752a8611E
	.p2align	2, 0x0
$cppxdata$_ZN120_$LT$proc_macro2..fallback..TokenStream$u20$as$u20$core..iter..traits..collect..Extend$LT$proc_macro2..TokenTree$GT$$GT$6extend17h3df6c9fa752a8611E:
	.long	429065506
	.long	1
	.long	($stateUnwindMap$_ZN120_$LT$proc_macro2..fallback..TokenStream$u20$as$u20$core..iter..traits..collect..Extend$LT$proc_macro2..TokenTree$GT$$GT$6extend17h3df6c9fa752a8611E)@IMGREL
	.long	0
	.long	0
	.long	3
	.long	($ip2state$_ZN120_$LT$proc_macro2..fallback..TokenStream$u20$as$u20$core..iter..traits..collect..Extend$LT$proc_macro2..TokenTree$GT$$GT$6extend17h3df6c9fa752a8611E)@IMGREL
	.long	120
	.long	0
	.long	1
$stateUnwindMap$_ZN120_$LT$proc_macro2..fallback..TokenStream$u20$as$u20$core..iter..traits..collect..Extend$LT$proc_macro2..TokenTree$GT$$GT$6extend17h3df6c9fa752a8611E:
	.long	-1
	.long	"?dtor$1@?0?_ZN120_$LT$proc_macro2..fallback..TokenStream$u20$as$u20$core..iter..traits..collect..Extend$LT$proc_macro2..TokenTree$GT$$GT$6extend17h3df6c9fa752a8611E@4HA"@IMGREL
$ip2state$_ZN120_$LT$proc_macro2..fallback..TokenStream$u20$as$u20$core..iter..traits..collect..Extend$LT$proc_macro2..TokenTree$GT$$GT$6extend17h3df6c9fa752a8611E:
	.long	.Lfunc_begin16@IMGREL
	.long	-1
	.long	.Ltmp68@IMGREL+1
	.long	0
	.long	.Ltmp73@IMGREL+1
	.long	-1
	.section	.text,"xr",one_only,_ZN120_$LT$proc_macro2..fallback..TokenStream$u20$as$u20$core..iter..traits..collect..Extend$LT$proc_macro2..TokenTree$GT$$GT$6extend17h3df6c9fa752a8611E

	.def	_ZN120_$LT$proc_macro2..fallback..TokenStream$u20$as$u20$core..iter..traits..collect..Extend$LT$proc_macro2..TokenTree$GT$$GT$6extend17h4170955ffda5b72bE;
	.scl	2;
	.type	32;
	.endef
	.section	.text,"xr",one_only,_ZN120_$LT$proc_macro2..fallback..TokenStream$u20$as$u20$core..iter..traits..collect..Extend$LT$proc_macro2..TokenTree$GT$$GT$6extend17h4170955ffda5b72bE
	.globl	_ZN120_$LT$proc_macro2..fallback..TokenStream$u20$as$u20$core..iter..traits..collect..Extend$LT$proc_macro2..TokenTree$GT$$GT$6extend17h4170955ffda5b72bE
	.p2align	4, 0x90
_ZN120_$LT$proc_macro2..fallback..TokenStream$u20$as$u20$core..iter..traits..collect..Extend$LT$proc_macro2..TokenTree$GT$$GT$6extend17h4170955ffda5b72bE:
.Lfunc_begin17:
.seh_proc _ZN120_$LT$proc_macro2..fallback..TokenStream$u20$as$u20$core..iter..traits..collect..Extend$LT$proc_macro2..TokenTree$GT$$GT$6extend17h4170955ffda5b72bE
	.seh_handler __CxxFrameHandler3, @unwind, @except
	pushq	%rbp
	.seh_pushreg %rbp
	subq	$192, %rsp
	.seh_stackalloc 192
	leaq	128(%rsp), %rbp
	.seh_setframe %rbp, 128
	.seh_endprologue
	movq	$-2, 56(%rbp)
	movq	%rdx, -88(%rbp)
	movb	$0, 55(%rbp)
	movb	$1, 55(%rbp)
.Ltmp74:
	callq	_ZN11proc_macro25rcvec14RcVec$LT$T$GT$8make_mut17h3578bdcc6fe36399E
.Ltmp75:
	movq	%rax, -80(%rbp)
	jmp	.LBB43_2
.LBB43_2:
	movq	-88(%rbp), %rax
	movq	-80(%rbp), %rcx
	movq	%rcx, -72(%rbp)
	movb	$0, 55(%rbp)
	vmovups	(%rax), %ymm0
	vmovups	16(%rax), %ymm1
	vmovups	%ymm1, (%rbp)
	vmovups	%ymm0, -16(%rbp)
.Ltmp76:
	leaq	-64(%rbp), %rcx
	leaq	-16(%rbp), %rdx
	vzeroupper
	callq	_ZN63_$LT$I$u20$as$u20$core..iter..traits..collect..IntoIterator$GT$9into_iter17h2bad29ef39a49cc5E
.Ltmp77:
	jmp	.LBB43_3
.LBB43_3:
	leaq	-72(%rbp), %rax
	movq	%rax, 40(%rbp)
	movq	40(%rbp), %rdx
.Ltmp78:
	leaq	-64(%rbp), %rcx
	callq	_ZN4core4iter6traits8iterator8Iterator8for_each17h855570923e1b5e65E
.Ltmp79:
	jmp	.LBB43_4
.LBB43_4:
	addq	$192, %rsp
	popq	%rbp
	retq
	.seh_handlerdata
	.long	($cppxdata$_ZN120_$LT$proc_macro2..fallback..TokenStream$u20$as$u20$core..iter..traits..collect..Extend$LT$proc_macro2..TokenTree$GT$$GT$6extend17h4170955ffda5b72bE)@IMGREL
	.section	.text,"xr",one_only,_ZN120_$LT$proc_macro2..fallback..TokenStream$u20$as$u20$core..iter..traits..collect..Extend$LT$proc_macro2..TokenTree$GT$$GT$6extend17h4170955ffda5b72bE
	.seh_endproc
	.def	"?dtor$1@?0?_ZN120_$LT$proc_macro2..fallback..TokenStream$u20$as$u20$core..iter..traits..collect..Extend$LT$proc_macro2..TokenTree$GT$$GT$6extend17h4170955ffda5b72bE@4HA";
	.scl	3;
	.type	32;
	.endef
	.p2align	4, 0x90
"?dtor$1@?0?_ZN120_$LT$proc_macro2..fallback..TokenStream$u20$as$u20$core..iter..traits..collect..Extend$LT$proc_macro2..TokenTree$GT$$GT$6extend17h4170955ffda5b72bE@4HA":
.seh_proc "?dtor$1@?0?_ZN120_$LT$proc_macro2..fallback..TokenStream$u20$as$u20$core..iter..traits..collect..Extend$LT$proc_macro2..TokenTree$GT$$GT$6extend17h4170955ffda5b72bE@4HA"
.LBB43_1:
	movq	%rdx, 16(%rsp)
	pushq	%rbp
	.seh_pushreg %rbp
	subq	$32, %rsp
	.seh_stackalloc 32
	leaq	128(%rdx), %rbp
	.seh_endprologue
	testb	$1, 55(%rbp)
	jne	.LBB43_6
	jmp	.LBB43_5
.LBB43_5:
	addq	$32, %rsp
	popq	%rbp
	retq
.LBB43_6:
	movq	-88(%rbp), %rcx
	callq	_ZN4core3ptr157drop_in_place$LT$core..iter..adapters..map..Map$LT$proc_macro2..token_stream..IntoIter$C$quote..__private..parse_spanned..$u7b$$u7b$closure$u7d$$u7d$$GT$$GT$17h24ee1bc772e766c4E
	jmp	.LBB43_5
.Lfunc_end17:
	.seh_handlerdata
	.section	.text,"xr",one_only,_ZN120_$LT$proc_macro2..fallback..TokenStream$u20$as$u20$core..iter..traits..collect..Extend$LT$proc_macro2..TokenTree$GT$$GT$6extend17h4170955ffda5b72bE
	.seh_endproc
	.section	.xdata,"dr",associative,_ZN120_$LT$proc_macro2..fallback..TokenStream$u20$as$u20$core..iter..traits..collect..Extend$LT$proc_macro2..TokenTree$GT$$GT$6extend17h4170955ffda5b72bE
	.p2align	2, 0x0
$cppxdata$_ZN120_$LT$proc_macro2..fallback..TokenStream$u20$as$u20$core..iter..traits..collect..Extend$LT$proc_macro2..TokenTree$GT$$GT$6extend17h4170955ffda5b72bE:
	.long	429065506
	.long	1
	.long	($stateUnwindMap$_ZN120_$LT$proc_macro2..fallback..TokenStream$u20$as$u20$core..iter..traits..collect..Extend$LT$proc_macro2..TokenTree$GT$$GT$6extend17h4170955ffda5b72bE)@IMGREL
	.long	0
	.long	0
	.long	3
	.long	($ip2state$_ZN120_$LT$proc_macro2..fallback..TokenStream$u20$as$u20$core..iter..traits..collect..Extend$LT$proc_macro2..TokenTree$GT$$GT$6extend17h4170955ffda5b72bE)@IMGREL
	.long	184
	.long	0
	.long	1
$stateUnwindMap$_ZN120_$LT$proc_macro2..fallback..TokenStream$u20$as$u20$core..iter..traits..collect..Extend$LT$proc_macro2..TokenTree$GT$$GT$6extend17h4170955ffda5b72bE:
	.long	-1
	.long	"?dtor$1@?0?_ZN120_$LT$proc_macro2..fallback..TokenStream$u20$as$u20$core..iter..traits..collect..Extend$LT$proc_macro2..TokenTree$GT$$GT$6extend17h4170955ffda5b72bE@4HA"@IMGREL
$ip2state$_ZN120_$LT$proc_macro2..fallback..TokenStream$u20$as$u20$core..iter..traits..collect..Extend$LT$proc_macro2..TokenTree$GT$$GT$6extend17h4170955ffda5b72bE:
	.long	.Lfunc_begin17@IMGREL
	.long	-1
	.long	.Ltmp74@IMGREL+1
	.long	0
	.long	.Ltmp79@IMGREL+1
	.long	-1
	.section	.text,"xr",one_only,_ZN120_$LT$proc_macro2..fallback..TokenStream$u20$as$u20$core..iter..traits..collect..Extend$LT$proc_macro2..TokenTree$GT$$GT$6extend17h4170955ffda5b72bE

	.def	_ZN120_$LT$proc_macro2..fallback..TokenStream$u20$as$u20$core..iter..traits..collect..Extend$LT$proc_macro2..TokenTree$GT$$GT$6extend17hf3dcf34ed28502fdE;
	.scl	2;
	.type	32;
	.endef
	.section	.text,"xr",one_only,_ZN120_$LT$proc_macro2..fallback..TokenStream$u20$as$u20$core..iter..traits..collect..Extend$LT$proc_macro2..TokenTree$GT$$GT$6extend17hf3dcf34ed28502fdE
	.globl	_ZN120_$LT$proc_macro2..fallback..TokenStream$u20$as$u20$core..iter..traits..collect..Extend$LT$proc_macro2..TokenTree$GT$$GT$6extend17hf3dcf34ed28502fdE
	.p2align	4, 0x90
_ZN120_$LT$proc_macro2..fallback..TokenStream$u20$as$u20$core..iter..traits..collect..Extend$LT$proc_macro2..TokenTree$GT$$GT$6extend17hf3dcf34ed28502fdE:
.Lfunc_begin18:
.seh_proc _ZN120_$LT$proc_macro2..fallback..TokenStream$u20$as$u20$core..iter..traits..collect..Extend$LT$proc_macro2..TokenTree$GT$$GT$6extend17hf3dcf34ed28502fdE
	.seh_handler __CxxFrameHandler3, @unwind, @except
	pushq	%rbp
	.seh_pushreg %rbp
	subq	$128, %rsp
	.seh_stackalloc 128
	leaq	128(%rsp), %rbp
	.seh_setframe %rbp, 128
	.seh_endprologue
	movq	$-2, -8(%rbp)
	movq	%rdx, -96(%rbp)
	movb	$0, -9(%rbp)
	movb	$1, -9(%rbp)
.Ltmp80:
	callq	_ZN11proc_macro25rcvec14RcVec$LT$T$GT$8make_mut17h3578bdcc6fe36399E
.Ltmp81:
	movq	%rax, -88(%rbp)
	jmp	.LBB44_2
.LBB44_2:
	movq	-96(%rbp), %rax
	movq	-88(%rbp), %rcx
	movq	%rcx, -80(%rbp)
	movb	$0, -9(%rbp)
	movq	16(%rax), %rcx
	movq	%rcx, -32(%rbp)
	vmovdqu	(%rax), %xmm0
	vmovdqa	%xmm0, -48(%rbp)
.Ltmp82:
	leaq	-72(%rbp), %rcx
	leaq	-48(%rbp), %rdx
	callq	_ZN63_$LT$I$u20$as$u20$core..iter..traits..collect..IntoIterator$GT$9into_iter17hfb46ac2b11cef4edE
.Ltmp83:
	jmp	.LBB44_3
.LBB44_3:
	leaq	-80(%rbp), %rax
	movq	%rax, -24(%rbp)
	movq	-24(%rbp), %rdx
.Ltmp84:
	leaq	-72(%rbp), %rcx
	callq	_ZN4core4iter6traits8iterator8Iterator8for_each17h69ea1c1e6d582f91E
.Ltmp85:
	jmp	.LBB44_4
.LBB44_4:
	addq	$128, %rsp
	popq	%rbp
	retq
	.seh_handlerdata
	.long	($cppxdata$_ZN120_$LT$proc_macro2..fallback..TokenStream$u20$as$u20$core..iter..traits..collect..Extend$LT$proc_macro2..TokenTree$GT$$GT$6extend17hf3dcf34ed28502fdE)@IMGREL
	.section	.text,"xr",one_only,_ZN120_$LT$proc_macro2..fallback..TokenStream$u20$as$u20$core..iter..traits..collect..Extend$LT$proc_macro2..TokenTree$GT$$GT$6extend17hf3dcf34ed28502fdE
	.seh_endproc
	.def	"?dtor$1@?0?_ZN120_$LT$proc_macro2..fallback..TokenStream$u20$as$u20$core..iter..traits..collect..Extend$LT$proc_macro2..TokenTree$GT$$GT$6extend17hf3dcf34ed28502fdE@4HA";
	.scl	3;
	.type	32;
	.endef
	.p2align	4, 0x90
"?dtor$1@?0?_ZN120_$LT$proc_macro2..fallback..TokenStream$u20$as$u20$core..iter..traits..collect..Extend$LT$proc_macro2..TokenTree$GT$$GT$6extend17hf3dcf34ed28502fdE@4HA":
.seh_proc "?dtor$1@?0?_ZN120_$LT$proc_macro2..fallback..TokenStream$u20$as$u20$core..iter..traits..collect..Extend$LT$proc_macro2..TokenTree$GT$$GT$6extend17hf3dcf34ed28502fdE@4HA"
.LBB44_1:
	movq	%rdx, 16(%rsp)
	pushq	%rbp
	.seh_pushreg %rbp
	subq	$32, %rsp
	.seh_stackalloc 32
	leaq	128(%rdx), %rbp
	.seh_endprologue
	testb	$1, -9(%rbp)
	jne	.LBB44_6
	jmp	.LBB44_5
.LBB44_5:
	addq	$32, %rsp
	popq	%rbp
	retq
.LBB44_6:
	jmp	.LBB44_5
.Lfunc_end18:
	.seh_handlerdata
	.section	.text,"xr",one_only,_ZN120_$LT$proc_macro2..fallback..TokenStream$u20$as$u20$core..iter..traits..collect..Extend$LT$proc_macro2..TokenTree$GT$$GT$6extend17hf3dcf34ed28502fdE
	.seh_endproc
	.section	.xdata,"dr",associative,_ZN120_$LT$proc_macro2..fallback..TokenStream$u20$as$u20$core..iter..traits..collect..Extend$LT$proc_macro2..TokenTree$GT$$GT$6extend17hf3dcf34ed28502fdE
	.p2align	2, 0x0
$cppxdata$_ZN120_$LT$proc_macro2..fallback..TokenStream$u20$as$u20$core..iter..traits..collect..Extend$LT$proc_macro2..TokenTree$GT$$GT$6extend17hf3dcf34ed28502fdE:
	.long	429065506
	.long	1
	.long	($stateUnwindMap$_ZN120_$LT$proc_macro2..fallback..TokenStream$u20$as$u20$core..iter..traits..collect..Extend$LT$proc_macro2..TokenTree$GT$$GT$6extend17hf3dcf34ed28502fdE)@IMGREL
	.long	0
	.long	0
	.long	3
	.long	($ip2state$_ZN120_$LT$proc_macro2..fallback..TokenStream$u20$as$u20$core..iter..traits..collect..Extend$LT$proc_macro2..TokenTree$GT$$GT$6extend17hf3dcf34ed28502fdE)@IMGREL
	.long	120
	.long	0
	.long	1
$stateUnwindMap$_ZN120_$LT$proc_macro2..fallback..TokenStream$u20$as$u20$core..iter..traits..collect..Extend$LT$proc_macro2..TokenTree$GT$$GT$6extend17hf3dcf34ed28502fdE:
	.long	-1
	.long	"?dtor$1@?0?_ZN120_$LT$proc_macro2..fallback..TokenStream$u20$as$u20$core..iter..traits..collect..Extend$LT$proc_macro2..TokenTree$GT$$GT$6extend17hf3dcf34ed28502fdE@4HA"@IMGREL
$ip2state$_ZN120_$LT$proc_macro2..fallback..TokenStream$u20$as$u20$core..iter..traits..collect..Extend$LT$proc_macro2..TokenTree$GT$$GT$6extend17hf3dcf34ed28502fdE:
	.long	.Lfunc_begin18@IMGREL
	.long	-1
	.long	.Ltmp80@IMGREL+1
	.long	0
	.long	.Ltmp85@IMGREL+1
	.long	-1
	.section	.text,"xr",one_only,_ZN120_$LT$proc_macro2..fallback..TokenStream$u20$as$u20$core..iter..traits..collect..Extend$LT$proc_macro2..TokenTree$GT$$GT$6extend17hf3dcf34ed28502fdE

	.def	_ZN120_$LT$proc_macro2..fallback..TokenStream$u20$as$u20$core..iter..traits..collect..Extend$LT$proc_macro2..TokenTree$GT$$GT$6extend28_$u7b$$u7b$closure$u7d$$u7d$17h1fa0abc7fd1c3300E;
	.scl	2;
	.type	32;
	.endef
	.section	.text,"xr",one_only,_ZN120_$LT$proc_macro2..fallback..TokenStream$u20$as$u20$core..iter..traits..collect..Extend$LT$proc_macro2..TokenTree$GT$$GT$6extend28_$u7b$$u7b$closure$u7d$$u7d$17h1fa0abc7fd1c3300E
	.globl	_ZN120_$LT$proc_macro2..fallback..TokenStream$u20$as$u20$core..iter..traits..collect..Extend$LT$proc_macro2..TokenTree$GT$$GT$6extend28_$u7b$$u7b$closure$u7d$$u7d$17h1fa0abc7fd1c3300E
	.p2align	4, 0x90
_ZN120_$LT$proc_macro2..fallback..TokenStream$u20$as$u20$core..iter..traits..collect..Extend$LT$proc_macro2..TokenTree$GT$$GT$6extend28_$u7b$$u7b$closure$u7d$$u7d$17h1fa0abc7fd1c3300E:
.Lfunc_begin19:
.seh_proc _ZN120_$LT$proc_macro2..fallback..TokenStream$u20$as$u20$core..iter..traits..collect..Extend$LT$proc_macro2..TokenTree$GT$$GT$6extend28_$u7b$$u7b$closure$u7d$$u7d$17h1fa0abc7fd1c3300E
	.seh_handler __CxxFrameHandler3, @unwind, @except
	pushq	%rbp
	.seh_pushreg %rbp
	subq	$96, %rsp
	.seh_stackalloc 96
	leaq	96(%rsp), %rbp
	.seh_setframe %rbp, 96
	.seh_endprologue
	movq	$-2, -8(%rbp)
	movq	%rdx, -64(%rbp)
	movb	$0, -9(%rbp)
	movb	$1, -9(%rbp)
	movq	(%rcx), %rcx
.Ltmp86:
	callq	_ZN11proc_macro25rcvec17RcVecMut$LT$T$GT$6as_mut17h1b6060cbb25379e4E
.Ltmp87:
	movq	%rax, -56(%rbp)
	jmp	.LBB45_2
.LBB45_2:
	movq	-56(%rbp), %rcx
	movq	-64(%rbp), %rax
	movb	$0, -9(%rbp)
	vmovups	(%rax), %ymm0
	vmovups	%ymm0, -48(%rbp)
.Ltmp88:
	leaq	-48(%rbp), %rdx
	vzeroupper
	callq	_ZN11proc_macro28fallback26push_token_from_proc_macro17h4f22310231f314f3E
.Ltmp89:
	jmp	.LBB45_3
.LBB45_3:
	addq	$96, %rsp
	popq	%rbp
	retq
	.seh_handlerdata
	.long	($cppxdata$_ZN120_$LT$proc_macro2..fallback..TokenStream$u20$as$u20$core..iter..traits..collect..Extend$LT$proc_macro2..TokenTree$GT$$GT$6extend28_$u7b$$u7b$closure$u7d$$u7d$17h1fa0abc7fd1c3300E)@IMGREL
	.section	.text,"xr",one_only,_ZN120_$LT$proc_macro2..fallback..TokenStream$u20$as$u20$core..iter..traits..collect..Extend$LT$proc_macro2..TokenTree$GT$$GT$6extend28_$u7b$$u7b$closure$u7d$$u7d$17h1fa0abc7fd1c3300E
	.seh_endproc
	.def	"?dtor$1@?0?_ZN120_$LT$proc_macro2..fallback..TokenStream$u20$as$u20$core..iter..traits..collect..Extend$LT$proc_macro2..TokenTree$GT$$GT$6extend28_$u7b$$u7b$closure$u7d$$u7d$17h1fa0abc7fd1c3300E@4HA";
	.scl	3;
	.type	32;
	.endef
	.p2align	4, 0x90
"?dtor$1@?0?_ZN120_$LT$proc_macro2..fallback..TokenStream$u20$as$u20$core..iter..traits..collect..Extend$LT$proc_macro2..TokenTree$GT$$GT$6extend28_$u7b$$u7b$closure$u7d$$u7d$17h1fa0abc7fd1c3300E@4HA":
.seh_proc "?dtor$1@?0?_ZN120_$LT$proc_macro2..fallback..TokenStream$u20$as$u20$core..iter..traits..collect..Extend$LT$proc_macro2..TokenTree$GT$$GT$6extend28_$u7b$$u7b$closure$u7d$$u7d$17h1fa0abc7fd1c3300E@4HA"
.LBB45_1:
	movq	%rdx, 16(%rsp)
	pushq	%rbp
	.seh_pushreg %rbp
	subq	$32, %rsp
	.seh_stackalloc 32
	leaq	96(%rdx), %rbp
	.seh_endprologue
	testb	$1, -9(%rbp)
	jne	.LBB45_5
	jmp	.LBB45_4
.LBB45_4:
	addq	$32, %rsp
	popq	%rbp
	retq
.LBB45_5:
	movq	-64(%rbp), %rcx
	callq	_ZN4core3ptr43drop_in_place$LT$proc_macro2..TokenTree$GT$17h427ef5d73f62dffcE
	jmp	.LBB45_4
.Lfunc_end19:
	.seh_handlerdata
	.section	.text,"xr",one_only,_ZN120_$LT$proc_macro2..fallback..TokenStream$u20$as$u20$core..iter..traits..collect..Extend$LT$proc_macro2..TokenTree$GT$$GT$6extend28_$u7b$$u7b$closure$u7d$$u7d$17h1fa0abc7fd1c3300E
	.seh_endproc
	.section	.xdata,"dr",associative,_ZN120_$LT$proc_macro2..fallback..TokenStream$u20$as$u20$core..iter..traits..collect..Extend$LT$proc_macro2..TokenTree$GT$$GT$6extend28_$u7b$$u7b$closure$u7d$$u7d$17h1fa0abc7fd1c3300E
	.p2align	2, 0x0
$cppxdata$_ZN120_$LT$proc_macro2..fallback..TokenStream$u20$as$u20$core..iter..traits..collect..Extend$LT$proc_macro2..TokenTree$GT$$GT$6extend28_$u7b$$u7b$closure$u7d$$u7d$17h1fa0abc7fd1c3300E:
	.long	429065506
	.long	1
	.long	($stateUnwindMap$_ZN120_$LT$proc_macro2..fallback..TokenStream$u20$as$u20$core..iter..traits..collect..Extend$LT$proc_macro2..TokenTree$GT$$GT$6extend28_$u7b$$u7b$closure$u7d$$u7d$17h1fa0abc7fd1c3300E)@IMGREL
	.long	0
	.long	0
	.long	3
	.long	($ip2state$_ZN120_$LT$proc_macro2..fallback..TokenStream$u20$as$u20$core..iter..traits..collect..Extend$LT$proc_macro2..TokenTree$GT$$GT$6extend28_$u7b$$u7b$closure$u7d$$u7d$17h1fa0abc7fd1c3300E)@IMGREL
	.long	88
	.long	0
	.long	1
$stateUnwindMap$_ZN120_$LT$proc_macro2..fallback..TokenStream$u20$as$u20$core..iter..traits..collect..Extend$LT$proc_macro2..TokenTree$GT$$GT$6extend28_$u7b$$u7b$closure$u7d$$u7d$17h1fa0abc7fd1c3300E:
	.long	-1
	.long	"?dtor$1@?0?_ZN120_$LT$proc_macro2..fallback..TokenStream$u20$as$u20$core..iter..traits..collect..Extend$LT$proc_macro2..TokenTree$GT$$GT$6extend28_$u7b$$u7b$closure$u7d$$u7d$17h1fa0abc7fd1c3300E@4HA"@IMGREL
$ip2state$_ZN120_$LT$proc_macro2..fallback..TokenStream$u20$as$u20$core..iter..traits..collect..Extend$LT$proc_macro2..TokenTree$GT$$GT$6extend28_$u7b$$u7b$closure$u7d$$u7d$17h1fa0abc7fd1c3300E:
	.long	.Lfunc_begin19@IMGREL
	.long	-1
	.long	.Ltmp86@IMGREL+1
	.long	0
	.long	.Ltmp89@IMGREL+1
	.long	-1
	.section	.text,"xr",one_only,_ZN120_$LT$proc_macro2..fallback..TokenStream$u20$as$u20$core..iter..traits..collect..Extend$LT$proc_macro2..TokenTree$GT$$GT$6extend28_$u7b$$u7b$closure$u7d$$u7d$17h1fa0abc7fd1c3300E

	.def	_ZN120_$LT$proc_macro2..fallback..TokenStream$u20$as$u20$core..iter..traits..collect..Extend$LT$proc_macro2..TokenTree$GT$$GT$6extend28_$u7b$$u7b$closure$u7d$$u7d$17h26be6ec064b4df1eE;
	.scl	2;
	.type	32;
	.endef
	.section	.text,"xr",one_only,_ZN120_$LT$proc_macro2..fallback..TokenStream$u20$as$u20$core..iter..traits..collect..Extend$LT$proc_macro2..TokenTree$GT$$GT$6extend28_$u7b$$u7b$closure$u7d$$u7d$17h26be6ec064b4df1eE
	.globl	_ZN120_$LT$proc_macro2..fallback..TokenStream$u20$as$u20$core..iter..traits..collect..Extend$LT$proc_macro2..TokenTree$GT$$GT$6extend28_$u7b$$u7b$closure$u7d$$u7d$17h26be6ec064b4df1eE
	.p2align	4, 0x90
_ZN120_$LT$proc_macro2..fallback..TokenStream$u20$as$u20$core..iter..traits..collect..Extend$LT$proc_macro2..TokenTree$GT$$GT$6extend28_$u7b$$u7b$closure$u7d$$u7d$17h26be6ec064b4df1eE:
.Lfunc_begin20:
.seh_proc _ZN120_$LT$proc_macro2..fallback..TokenStream$u20$as$u20$core..iter..traits..collect..Extend$LT$proc_macro2..TokenTree$GT$$GT$6extend28_$u7b$$u7b$closure$u7d$$u7d$17h26be6ec064b4df1eE
	.seh_handler __CxxFrameHandler3, @unwind, @except
	pushq	%rbp
	.seh_pushreg %rbp
	subq	$96, %rsp
	.seh_stackalloc 96
	leaq	96(%rsp), %rbp
	.seh_setframe %rbp, 96
	.seh_endprologue
	movq	$-2, -8(%rbp)
	movq	%rdx, -64(%rbp)
	movb	$0, -9(%rbp)
	movb	$1, -9(%rbp)
	movq	(%rcx), %rcx
.Ltmp90:
	callq	_ZN11proc_macro25rcvec17RcVecMut$LT$T$GT$6as_mut17h1b6060cbb25379e4E
.Ltmp91:
	movq	%rax, -56(%rbp)
	jmp	.LBB46_2
.LBB46_2:
	movq	-56(%rbp), %rcx
	movq	-64(%rbp), %rax
	movb	$0, -9(%rbp)
	vmovups	(%rax), %ymm0
	vmovups	%ymm0, -48(%rbp)
.Ltmp92:
	leaq	-48(%rbp), %rdx
	vzeroupper
	callq	_ZN11proc_macro28fallback26push_token_from_proc_macro17h4f22310231f314f3E
.Ltmp93:
	jmp	.LBB46_3
.LBB46_3:
	addq	$96, %rsp
	popq	%rbp
	retq
	.seh_handlerdata
	.long	($cppxdata$_ZN120_$LT$proc_macro2..fallback..TokenStream$u20$as$u20$core..iter..traits..collect..Extend$LT$proc_macro2..TokenTree$GT$$GT$6extend28_$u7b$$u7b$closure$u7d$$u7d$17h26be6ec064b4df1eE)@IMGREL
	.section	.text,"xr",one_only,_ZN120_$LT$proc_macro2..fallback..TokenStream$u20$as$u20$core..iter..traits..collect..Extend$LT$proc_macro2..TokenTree$GT$$GT$6extend28_$u7b$$u7b$closure$u7d$$u7d$17h26be6ec064b4df1eE
	.seh_endproc
	.def	"?dtor$1@?0?_ZN120_$LT$proc_macro2..fallback..TokenStream$u20$as$u20$core..iter..traits..collect..Extend$LT$proc_macro2..TokenTree$GT$$GT$6extend28_$u7b$$u7b$closure$u7d$$u7d$17h26be6ec064b4df1eE@4HA";
	.scl	3;
	.type	32;
	.endef
	.p2align	4, 0x90
"?dtor$1@?0?_ZN120_$LT$proc_macro2..fallback..TokenStream$u20$as$u20$core..iter..traits..collect..Extend$LT$proc_macro2..TokenTree$GT$$GT$6extend28_$u7b$$u7b$closure$u7d$$u7d$17h26be6ec064b4df1eE@4HA":
.seh_proc "?dtor$1@?0?_ZN120_$LT$proc_macro2..fallback..TokenStream$u20$as$u20$core..iter..traits..collect..Extend$LT$proc_macro2..TokenTree$GT$$GT$6extend28_$u7b$$u7b$closure$u7d$$u7d$17h26be6ec064b4df1eE@4HA"
.LBB46_1:
	movq	%rdx, 16(%rsp)
	pushq	%rbp
	.seh_pushreg %rbp
	subq	$32, %rsp
	.seh_stackalloc 32
	leaq	96(%rdx), %rbp
	.seh_endprologue
	testb	$1, -9(%rbp)
	jne	.LBB46_5
	jmp	.LBB46_4
.LBB46_4:
	addq	$32, %rsp
	popq	%rbp
	retq
.LBB46_5:
	movq	-64(%rbp), %rcx
	callq	_ZN4core3ptr43drop_in_place$LT$proc_macro2..TokenTree$GT$17h427ef5d73f62dffcE
	jmp	.LBB46_4
.Lfunc_end20:
	.seh_handlerdata
	.section	.text,"xr",one_only,_ZN120_$LT$proc_macro2..fallback..TokenStream$u20$as$u20$core..iter..traits..collect..Extend$LT$proc_macro2..TokenTree$GT$$GT$6extend28_$u7b$$u7b$closure$u7d$$u7d$17h26be6ec064b4df1eE
	.seh_endproc
	.section	.xdata,"dr",associative,_ZN120_$LT$proc_macro2..fallback..TokenStream$u20$as$u20$core..iter..traits..collect..Extend$LT$proc_macro2..TokenTree$GT$$GT$6extend28_$u7b$$u7b$closure$u7d$$u7d$17h26be6ec064b4df1eE
	.p2align	2, 0x0
$cppxdata$_ZN120_$LT$proc_macro2..fallback..TokenStream$u20$as$u20$core..iter..traits..collect..Extend$LT$proc_macro2..TokenTree$GT$$GT$6extend28_$u7b$$u7b$closure$u7d$$u7d$17h26be6ec064b4df1eE:
	.long	429065506
	.long	1
	.long	($stateUnwindMap$_ZN120_$LT$proc_macro2..fallback..TokenStream$u20$as$u20$core..iter..traits..collect..Extend$LT$proc_macro2..TokenTree$GT$$GT$6extend28_$u7b$$u7b$closure$u7d$$u7d$17h26be6ec064b4df1eE)@IMGREL
	.long	0
	.long	0
	.long	3
	.long	($ip2state$_ZN120_$LT$proc_macro2..fallback..TokenStream$u20$as$u20$core..iter..traits..collect..Extend$LT$proc_macro2..TokenTree$GT$$GT$6extend28_$u7b$$u7b$closure$u7d$$u7d$17h26be6ec064b4df1eE)@IMGREL
	.long	88
	.long	0
	.long	1
$stateUnwindMap$_ZN120_$LT$proc_macro2..fallback..TokenStream$u20$as$u20$core..iter..traits..collect..Extend$LT$proc_macro2..TokenTree$GT$$GT$6extend28_$u7b$$u7b$closure$u7d$$u7d$17h26be6ec064b4df1eE:
	.long	-1
	.long	"?dtor$1@?0?_ZN120_$LT$proc_macro2..fallback..TokenStream$u20$as$u20$core..iter..traits..collect..Extend$LT$proc_macro2..TokenTree$GT$$GT$6extend28_$u7b$$u7b$closure$u7d$$u7d$17h26be6ec064b4df1eE@4HA"@IMGREL
$ip2state$_ZN120_$LT$proc_macro2..fallback..TokenStream$u20$as$u20$core..iter..traits..collect..Extend$LT$proc_macro2..TokenTree$GT$$GT$6extend28_$u7b$$u7b$closure$u7d$$u7d$17h26be6ec064b4df1eE:
	.long	.Lfunc_begin20@IMGREL
	.long	-1
	.long	.Ltmp90@IMGREL+1
	.long	0
	.long	.Ltmp93@IMGREL+1
	.long	-1
	.section	.text,"xr",one_only,_ZN120_$LT$proc_macro2..fallback..TokenStream$u20$as$u20$core..iter..traits..collect..Extend$LT$proc_macro2..TokenTree$GT$$GT$6extend28_$u7b$$u7b$closure$u7d$$u7d$17h26be6ec064b4df1eE

	.def	_ZN120_$LT$proc_macro2..fallback..TokenStream$u20$as$u20$core..iter..traits..collect..Extend$LT$proc_macro2..TokenTree$GT$$GT$6extend28_$u7b$$u7b$closure$u7d$$u7d$17h7577a34c99665eaaE;
	.scl	2;
	.type	32;
	.endef
	.section	.text,"xr",one_only,_ZN120_$LT$proc_macro2..fallback..TokenStream$u20$as$u20$core..iter..traits..collect..Extend$LT$proc_macro2..TokenTree$GT$$GT$6extend28_$u7b$$u7b$closure$u7d$$u7d$17h7577a34c99665eaaE
	.globl	_ZN120_$LT$proc_macro2..fallback..TokenStream$u20$as$u20$core..iter..traits..collect..Extend$LT$proc_macro2..TokenTree$GT$$GT$6extend28_$u7b$$u7b$closure$u7d$$u7d$17h7577a34c99665eaaE
	.p2align	4, 0x90
_ZN120_$LT$proc_macro2..fallback..TokenStream$u20$as$u20$core..iter..traits..collect..Extend$LT$proc_macro2..TokenTree$GT$$GT$6extend28_$u7b$$u7b$closure$u7d$$u7d$17h7577a34c99665eaaE:
.Lfunc_begin21:
.seh_proc _ZN120_$LT$proc_macro2..fallback..TokenStream$u20$as$u20$core..iter..traits..collect..Extend$LT$proc_macro2..TokenTree$GT$$GT$6extend28_$u7b$$u7b$closure$u7d$$u7d$17h7577a34c99665eaaE
	.seh_handler __CxxFrameHandler3, @unwind, @except
	pushq	%rbp
	.seh_pushreg %rbp
	subq	$96, %rsp
	.seh_stackalloc 96
	leaq	96(%rsp), %rbp
	.seh_setframe %rbp, 96
	.seh_endprologue
	movq	$-2, -8(%rbp)
	movq	%rdx, -64(%rbp)
	movb	$0, -9(%rbp)
	movb	$1, -9(%rbp)
	movq	(%rcx), %rcx
.Ltmp94:
	callq	_ZN11proc_macro25rcvec17RcVecMut$LT$T$GT$6as_mut17h1b6060cbb25379e4E
.Ltmp95:
	movq	%rax, -56(%rbp)
	jmp	.LBB47_2
.LBB47_2:
	movq	-56(%rbp), %rcx
	movq	-64(%rbp), %rax
	movb	$0, -9(%rbp)
	vmovups	(%rax), %ymm0
	vmovups	%ymm0, -48(%rbp)
.Ltmp96:
	leaq	-48(%rbp), %rdx
	vzeroupper
	callq	_ZN11proc_macro28fallback26push_token_from_proc_macro17h4f22310231f314f3E
.Ltmp97:
	jmp	.LBB47_3
.LBB47_3:
	addq	$96, %rsp
	popq	%rbp
	retq
	.seh_handlerdata
	.long	($cppxdata$_ZN120_$LT$proc_macro2..fallback..TokenStream$u20$as$u20$core..iter..traits..collect..Extend$LT$proc_macro2..TokenTree$GT$$GT$6extend28_$u7b$$u7b$closure$u7d$$u7d$17h7577a34c99665eaaE)@IMGREL
	.section	.text,"xr",one_only,_ZN120_$LT$proc_macro2..fallback..TokenStream$u20$as$u20$core..iter..traits..collect..Extend$LT$proc_macro2..TokenTree$GT$$GT$6extend28_$u7b$$u7b$closure$u7d$$u7d$17h7577a34c99665eaaE
	.seh_endproc
	.def	"?dtor$1@?0?_ZN120_$LT$proc_macro2..fallback..TokenStream$u20$as$u20$core..iter..traits..collect..Extend$LT$proc_macro2..TokenTree$GT$$GT$6extend28_$u7b$$u7b$closure$u7d$$u7d$17h7577a34c99665eaaE@4HA";
	.scl	3;
	.type	32;
	.endef
	.p2align	4, 0x90
"?dtor$1@?0?_ZN120_$LT$proc_macro2..fallback..TokenStream$u20$as$u20$core..iter..traits..collect..Extend$LT$proc_macro2..TokenTree$GT$$GT$6extend28_$u7b$$u7b$closure$u7d$$u7d$17h7577a34c99665eaaE@4HA":
.seh_proc "?dtor$1@?0?_ZN120_$LT$proc_macro2..fallback..TokenStream$u20$as$u20$core..iter..traits..collect..Extend$LT$proc_macro2..TokenTree$GT$$GT$6extend28_$u7b$$u7b$closure$u7d$$u7d$17h7577a34c99665eaaE@4HA"
.LBB47_1:
	movq	%rdx, 16(%rsp)
	pushq	%rbp
	.seh_pushreg %rbp
	subq	$32, %rsp
	.seh_stackalloc 32
	leaq	96(%rdx), %rbp
	.seh_endprologue
	testb	$1, -9(%rbp)
	jne	.LBB47_5
	jmp	.LBB47_4
.LBB47_4:
	addq	$32, %rsp
	popq	%rbp
	retq
.LBB47_5:
	movq	-64(%rbp), %rcx
	callq	_ZN4core3ptr43drop_in_place$LT$proc_macro2..TokenTree$GT$17h427ef5d73f62dffcE
	jmp	.LBB47_4
.Lfunc_end21:
	.seh_handlerdata
	.section	.text,"xr",one_only,_ZN120_$LT$proc_macro2..fallback..TokenStream$u20$as$u20$core..iter..traits..collect..Extend$LT$proc_macro2..TokenTree$GT$$GT$6extend28_$u7b$$u7b$closure$u7d$$u7d$17h7577a34c99665eaaE
	.seh_endproc
	.section	.xdata,"dr",associative,_ZN120_$LT$proc_macro2..fallback..TokenStream$u20$as$u20$core..iter..traits..collect..Extend$LT$proc_macro2..TokenTree$GT$$GT$6extend28_$u7b$$u7b$closure$u7d$$u7d$17h7577a34c99665eaaE
	.p2align	2, 0x0
$cppxdata$_ZN120_$LT$proc_macro2..fallback..TokenStream$u20$as$u20$core..iter..traits..collect..Extend$LT$proc_macro2..TokenTree$GT$$GT$6extend28_$u7b$$u7b$closure$u7d$$u7d$17h7577a34c99665eaaE:
	.long	429065506
	.long	1
	.long	($stateUnwindMap$_ZN120_$LT$proc_macro2..fallback..TokenStream$u20$as$u20$core..iter..traits..collect..Extend$LT$proc_macro2..TokenTree$GT$$GT$6extend28_$u7b$$u7b$closure$u7d$$u7d$17h7577a34c99665eaaE)@IMGREL
	.long	0
	.long	0
	.long	3
	.long	($ip2state$_ZN120_$LT$proc_macro2..fallback..TokenStream$u20$as$u20$core..iter..traits..collect..Extend$LT$proc_macro2..TokenTree$GT$$GT$6extend28_$u7b$$u7b$closure$u7d$$u7d$17h7577a34c99665eaaE)@IMGREL
	.long	88
	.long	0
	.long	1
$stateUnwindMap$_ZN120_$LT$proc_macro2..fallback..TokenStream$u20$as$u20$core..iter..traits..collect..Extend$LT$proc_macro2..TokenTree$GT$$GT$6extend28_$u7b$$u7b$closure$u7d$$u7d$17h7577a34c99665eaaE:
	.long	-1
	.long	"?dtor$1@?0?_ZN120_$LT$proc_macro2..fallback..TokenStream$u20$as$u20$core..iter..traits..collect..Extend$LT$proc_macro2..TokenTree$GT$$GT$6extend28_$u7b$$u7b$closure$u7d$$u7d$17h7577a34c99665eaaE@4HA"@IMGREL
$ip2state$_ZN120_$LT$proc_macro2..fallback..TokenStream$u20$as$u20$core..iter..traits..collect..Extend$LT$proc_macro2..TokenTree$GT$$GT$6extend28_$u7b$$u7b$closure$u7d$$u7d$17h7577a34c99665eaaE:
	.long	.Lfunc_begin21@IMGREL
	.long	-1
	.long	.Ltmp94@IMGREL+1
	.long	0
	.long	.Ltmp97@IMGREL+1
	.long	-1
	.section	.text,"xr",one_only,_ZN120_$LT$proc_macro2..fallback..TokenStream$u20$as$u20$core..iter..traits..collect..Extend$LT$proc_macro2..TokenTree$GT$$GT$6extend28_$u7b$$u7b$closure$u7d$$u7d$17h7577a34c99665eaaE

	.def	_ZN120_$LT$proc_macro2..fallback..TokenStream$u20$as$u20$core..iter..traits..collect..Extend$LT$proc_macro2..TokenTree$GT$$GT$6extend28_$u7b$$u7b$closure$u7d$$u7d$17h8c4121e275f5dc2cE;
	.scl	2;
	.type	32;
	.endef
	.section	.text,"xr",one_only,_ZN120_$LT$proc_macro2..fallback..TokenStream$u20$as$u20$core..iter..traits..collect..Extend$LT$proc_macro2..TokenTree$GT$$GT$6extend28_$u7b$$u7b$closure$u7d$$u7d$17h8c4121e275f5dc2cE
	.globl	_ZN120_$LT$proc_macro2..fallback..TokenStream$u20$as$u20$core..iter..traits..collect..Extend$LT$proc_macro2..TokenTree$GT$$GT$6extend28_$u7b$$u7b$closure$u7d$$u7d$17h8c4121e275f5dc2cE
	.p2align	4, 0x90
_ZN120_$LT$proc_macro2..fallback..TokenStream$u20$as$u20$core..iter..traits..collect..Extend$LT$proc_macro2..TokenTree$GT$$GT$6extend28_$u7b$$u7b$closure$u7d$$u7d$17h8c4121e275f5dc2cE:
.Lfunc_begin22:
.seh_proc _ZN120_$LT$proc_macro2..fallback..TokenStream$u20$as$u20$core..iter..traits..collect..Extend$LT$proc_macro2..TokenTree$GT$$GT$6extend28_$u7b$$u7b$closure$u7d$$u7d$17h8c4121e275f5dc2cE
	.seh_handler __CxxFrameHandler3, @unwind, @except
	pushq	%rbp
	.seh_pushreg %rbp
	subq	$96, %rsp
	.seh_stackalloc 96
	leaq	96(%rsp), %rbp
	.seh_setframe %rbp, 96
	.seh_endprologue
	movq	$-2, -8(%rbp)
	movq	%rdx, -64(%rbp)
	movb	$0, -9(%rbp)
	movb	$1, -9(%rbp)
	movq	(%rcx), %rcx
.Ltmp98:
	callq	_ZN11proc_macro25rcvec17RcVecMut$LT$T$GT$6as_mut17h1b6060cbb25379e4E
.Ltmp99:
	movq	%rax, -56(%rbp)
	jmp	.LBB48_2
.LBB48_2:
	movq	-56(%rbp), %rcx
	movq	-64(%rbp), %rax
	movb	$0, -9(%rbp)
	vmovups	(%rax), %ymm0
	vmovups	%ymm0, -48(%rbp)
.Ltmp100:
	leaq	-48(%rbp), %rdx
	vzeroupper
	callq	_ZN11proc_macro28fallback26push_token_from_proc_macro17h4f22310231f314f3E
.Ltmp101:
	jmp	.LBB48_3
.LBB48_3:
	addq	$96, %rsp
	popq	%rbp
	retq
	.seh_handlerdata
	.long	($cppxdata$_ZN120_$LT$proc_macro2..fallback..TokenStream$u20$as$u20$core..iter..traits..collect..Extend$LT$proc_macro2..TokenTree$GT$$GT$6extend28_$u7b$$u7b$closure$u7d$$u7d$17h8c4121e275f5dc2cE)@IMGREL
	.section	.text,"xr",one_only,_ZN120_$LT$proc_macro2..fallback..TokenStream$u20$as$u20$core..iter..traits..collect..Extend$LT$proc_macro2..TokenTree$GT$$GT$6extend28_$u7b$$u7b$closure$u7d$$u7d$17h8c4121e275f5dc2cE
	.seh_endproc
	.def	"?dtor$1@?0?_ZN120_$LT$proc_macro2..fallback..TokenStream$u20$as$u20$core..iter..traits..collect..Extend$LT$proc_macro2..TokenTree$GT$$GT$6extend28_$u7b$$u7b$closure$u7d$$u7d$17h8c4121e275f5dc2cE@4HA";
	.scl	3;
	.type	32;
	.endef
	.p2align	4, 0x90
"?dtor$1@?0?_ZN120_$LT$proc_macro2..fallback..TokenStream$u20$as$u20$core..iter..traits..collect..Extend$LT$proc_macro2..TokenTree$GT$$GT$6extend28_$u7b$$u7b$closure$u7d$$u7d$17h8c4121e275f5dc2cE@4HA":
.seh_proc "?dtor$1@?0?_ZN120_$LT$proc_macro2..fallback..TokenStream$u20$as$u20$core..iter..traits..collect..Extend$LT$proc_macro2..TokenTree$GT$$GT$6extend28_$u7b$$u7b$closure$u7d$$u7d$17h8c4121e275f5dc2cE@4HA"
.LBB48_1:
	movq	%rdx, 16(%rsp)
	pushq	%rbp
	.seh_pushreg %rbp
	subq	$32, %rsp
	.seh_stackalloc 32
	leaq	96(%rdx), %rbp
	.seh_endprologue
	testb	$1, -9(%rbp)
	jne	.LBB48_5
	jmp	.LBB48_4
.LBB48_4:
	addq	$32, %rsp
	popq	%rbp
	retq
.LBB48_5:
	movq	-64(%rbp), %rcx
	callq	_ZN4core3ptr43drop_in_place$LT$proc_macro2..TokenTree$GT$17h427ef5d73f62dffcE
	jmp	.LBB48_4
.Lfunc_end22:
	.seh_handlerdata
	.section	.text,"xr",one_only,_ZN120_$LT$proc_macro2..fallback..TokenStream$u20$as$u20$core..iter..traits..collect..Extend$LT$proc_macro2..TokenTree$GT$$GT$6extend28_$u7b$$u7b$closure$u7d$$u7d$17h8c4121e275f5dc2cE
	.seh_endproc
	.section	.xdata,"dr",associative,_ZN120_$LT$proc_macro2..fallback..TokenStream$u20$as$u20$core..iter..traits..collect..Extend$LT$proc_macro2..TokenTree$GT$$GT$6extend28_$u7b$$u7b$closure$u7d$$u7d$17h8c4121e275f5dc2cE
	.p2align	2, 0x0
$cppxdata$_ZN120_$LT$proc_macro2..fallback..TokenStream$u20$as$u20$core..iter..traits..collect..Extend$LT$proc_macro2..TokenTree$GT$$GT$6extend28_$u7b$$u7b$closure$u7d$$u7d$17h8c4121e275f5dc2cE:
	.long	429065506
	.long	1
	.long	($stateUnwindMap$_ZN120_$LT$proc_macro2..fallback..TokenStream$u20$as$u20$core..iter..traits..collect..Extend$LT$proc_macro2..TokenTree$GT$$GT$6extend28_$u7b$$u7b$closure$u7d$$u7d$17h8c4121e275f5dc2cE)@IMGREL
	.long	0
	.long	0
	.long	3
	.long	($ip2state$_ZN120_$LT$proc_macro2..fallback..TokenStream$u20$as$u20$core..iter..traits..collect..Extend$LT$proc_macro2..TokenTree$GT$$GT$6extend28_$u7b$$u7b$closure$u7d$$u7d$17h8c4121e275f5dc2cE)@IMGREL
	.long	88
	.long	0
	.long	1
$stateUnwindMap$_ZN120_$LT$proc_macro2..fallback..TokenStream$u20$as$u20$core..iter..traits..collect..Extend$LT$proc_macro2..TokenTree$GT$$GT$6extend28_$u7b$$u7b$closure$u7d$$u7d$17h8c4121e275f5dc2cE:
	.long	-1
	.long	"?dtor$1@?0?_ZN120_$LT$proc_macro2..fallback..TokenStream$u20$as$u20$core..iter..traits..collect..Extend$LT$proc_macro2..TokenTree$GT$$GT$6extend28_$u7b$$u7b$closure$u7d$$u7d$17h8c4121e275f5dc2cE@4HA"@IMGREL
$ip2state$_ZN120_$LT$proc_macro2..fallback..TokenStream$u20$as$u20$core..iter..traits..collect..Extend$LT$proc_macro2..TokenTree$GT$$GT$6extend28_$u7b$$u7b$closure$u7d$$u7d$17h8c4121e275f5dc2cE:
	.long	.Lfunc_begin22@IMGREL
	.long	-1
	.long	.Ltmp98@IMGREL+1
	.long	0
	.long	.Ltmp101@IMGREL+1
	.long	-1
	.section	.text,"xr",one_only,_ZN120_$LT$proc_macro2..fallback..TokenStream$u20$as$u20$core..iter..traits..collect..Extend$LT$proc_macro2..TokenTree$GT$$GT$6extend28_$u7b$$u7b$closure$u7d$$u7d$17h8c4121e275f5dc2cE

	.def	_ZN120_$LT$proc_macro2..fallback..TokenStream$u20$as$u20$core..iter..traits..collect..Extend$LT$proc_macro2..TokenTree$GT$$GT$6extend28_$u7b$$u7b$closure$u7d$$u7d$17ha07d85452b5be319E;
	.scl	2;
	.type	32;
	.endef
	.section	.text,"xr",one_only,_ZN120_$LT$proc_macro2..fallback..TokenStream$u20$as$u20$core..iter..traits..collect..Extend$LT$proc_macro2..TokenTree$GT$$GT$6extend28_$u7b$$u7b$closure$u7d$$u7d$17ha07d85452b5be319E
	.globl	_ZN120_$LT$proc_macro2..fallback..TokenStream$u20$as$u20$core..iter..traits..collect..Extend$LT$proc_macro2..TokenTree$GT$$GT$6extend28_$u7b$$u7b$closure$u7d$$u7d$17ha07d85452b5be319E
	.p2align	4, 0x90
_ZN120_$LT$proc_macro2..fallback..TokenStream$u20$as$u20$core..iter..traits..collect..Extend$LT$proc_macro2..TokenTree$GT$$GT$6extend28_$u7b$$u7b$closure$u7d$$u7d$17ha07d85452b5be319E:
.Lfunc_begin23:
.seh_proc _ZN120_$LT$proc_macro2..fallback..TokenStream$u20$as$u20$core..iter..traits..collect..Extend$LT$proc_macro2..TokenTree$GT$$GT$6extend28_$u7b$$u7b$closure$u7d$$u7d$17ha07d85452b5be319E
	.seh_handler __CxxFrameHandler3, @unwind, @except
	pushq	%rbp
	.seh_pushreg %rbp
	subq	$96, %rsp
	.seh_stackalloc 96
	leaq	96(%rsp), %rbp
	.seh_setframe %rbp, 96
	.seh_endprologue
	movq	$-2, -8(%rbp)
	movq	%rdx, -64(%rbp)
	movb	$0, -9(%rbp)
	movb	$1, -9(%rbp)
	movq	(%rcx), %rcx
.Ltmp102:
	callq	_ZN11proc_macro25rcvec17RcVecMut$LT$T$GT$6as_mut17h1b6060cbb25379e4E
.Ltmp103:
	movq	%rax, -56(%rbp)
	jmp	.LBB49_2
.LBB49_2:
	movq	-56(%rbp), %rcx
	movq	-64(%rbp), %rax
	movb	$0, -9(%rbp)
	vmovups	(%rax), %ymm0
	vmovups	%ymm0, -48(%rbp)
.Ltmp104:
	leaq	-48(%rbp), %rdx
	vzeroupper
	callq	_ZN11proc_macro28fallback26push_token_from_proc_macro17h4f22310231f314f3E
.Ltmp105:
	jmp	.LBB49_3
.LBB49_3:
	addq	$96, %rsp
	popq	%rbp
	retq
	.seh_handlerdata
	.long	($cppxdata$_ZN120_$LT$proc_macro2..fallback..TokenStream$u20$as$u20$core..iter..traits..collect..Extend$LT$proc_macro2..TokenTree$GT$$GT$6extend28_$u7b$$u7b$closure$u7d$$u7d$17ha07d85452b5be319E)@IMGREL
	.section	.text,"xr",one_only,_ZN120_$LT$proc_macro2..fallback..TokenStream$u20$as$u20$core..iter..traits..collect..Extend$LT$proc_macro2..TokenTree$GT$$GT$6extend28_$u7b$$u7b$closure$u7d$$u7d$17ha07d85452b5be319E
	.seh_endproc
	.def	"?dtor$1@?0?_ZN120_$LT$proc_macro2..fallback..TokenStream$u20$as$u20$core..iter..traits..collect..Extend$LT$proc_macro2..TokenTree$GT$$GT$6extend28_$u7b$$u7b$closure$u7d$$u7d$17ha07d85452b5be319E@4HA";
	.scl	3;
	.type	32;
	.endef
	.p2align	4, 0x90
"?dtor$1@?0?_ZN120_$LT$proc_macro2..fallback..TokenStream$u20$as$u20$core..iter..traits..collect..Extend$LT$proc_macro2..TokenTree$GT$$GT$6extend28_$u7b$$u7b$closure$u7d$$u7d$17ha07d85452b5be319E@4HA":
.seh_proc "?dtor$1@?0?_ZN120_$LT$proc_macro2..fallback..TokenStream$u20$as$u20$core..iter..traits..collect..Extend$LT$proc_macro2..TokenTree$GT$$GT$6extend28_$u7b$$u7b$closure$u7d$$u7d$17ha07d85452b5be319E@4HA"
.LBB49_1:
	movq	%rdx, 16(%rsp)
	pushq	%rbp
	.seh_pushreg %rbp
	subq	$32, %rsp
	.seh_stackalloc 32
	leaq	96(%rdx), %rbp
	.seh_endprologue
	testb	$1, -9(%rbp)
	jne	.LBB49_5
	jmp	.LBB49_4
.LBB49_4:
	addq	$32, %rsp
	popq	%rbp
	retq
.LBB49_5:
	movq	-64(%rbp), %rcx
	callq	_ZN4core3ptr43drop_in_place$LT$proc_macro2..TokenTree$GT$17h427ef5d73f62dffcE
	jmp	.LBB49_4
.Lfunc_end23:
	.seh_handlerdata
	.section	.text,"xr",one_only,_ZN120_$LT$proc_macro2..fallback..TokenStream$u20$as$u20$core..iter..traits..collect..Extend$LT$proc_macro2..TokenTree$GT$$GT$6extend28_$u7b$$u7b$closure$u7d$$u7d$17ha07d85452b5be319E
	.seh_endproc
	.section	.xdata,"dr",associative,_ZN120_$LT$proc_macro2..fallback..TokenStream$u20$as$u20$core..iter..traits..collect..Extend$LT$proc_macro2..TokenTree$GT$$GT$6extend28_$u7b$$u7b$closure$u7d$$u7d$17ha07d85452b5be319E
	.p2align	2, 0x0
$cppxdata$_ZN120_$LT$proc_macro2..fallback..TokenStream$u20$as$u20$core..iter..traits..collect..Extend$LT$proc_macro2..TokenTree$GT$$GT$6extend28_$u7b$$u7b$closure$u7d$$u7d$17ha07d85452b5be319E:
	.long	429065506
	.long	1
	.long	($stateUnwindMap$_ZN120_$LT$proc_macro2..fallback..TokenStream$u20$as$u20$core..iter..traits..collect..Extend$LT$proc_macro2..TokenTree$GT$$GT$6extend28_$u7b$$u7b$closure$u7d$$u7d$17ha07d85452b5be319E)@IMGREL
	.long	0
	.long	0
	.long	3
	.long	($ip2state$_ZN120_$LT$proc_macro2..fallback..TokenStream$u20$as$u20$core..iter..traits..collect..Extend$LT$proc_macro2..TokenTree$GT$$GT$6extend28_$u7b$$u7b$closure$u7d$$u7d$17ha07d85452b5be319E)@IMGREL
	.long	88
	.long	0
	.long	1
$stateUnwindMap$_ZN120_$LT$proc_macro2..fallback..TokenStream$u20$as$u20$core..iter..traits..collect..Extend$LT$proc_macro2..TokenTree$GT$$GT$6extend28_$u7b$$u7b$closure$u7d$$u7d$17ha07d85452b5be319E:
	.long	-1
	.long	"?dtor$1@?0?_ZN120_$LT$proc_macro2..fallback..TokenStream$u20$as$u20$core..iter..traits..collect..Extend$LT$proc_macro2..TokenTree$GT$$GT$6extend28_$u7b$$u7b$closure$u7d$$u7d$17ha07d85452b5be319E@4HA"@IMGREL
$ip2state$_ZN120_$LT$proc_macro2..fallback..TokenStream$u20$as$u20$core..iter..traits..collect..Extend$LT$proc_macro2..TokenTree$GT$$GT$6extend28_$u7b$$u7b$closure$u7d$$u7d$17ha07d85452b5be319E:
	.long	.Lfunc_begin23@IMGREL
	.long	-1
	.long	.Ltmp102@IMGREL+1
	.long	0
	.long	.Ltmp105@IMGREL+1
	.long	-1
	.section	.text,"xr",one_only,_ZN120_$LT$proc_macro2..fallback..TokenStream$u20$as$u20$core..iter..traits..collect..Extend$LT$proc_macro2..TokenTree$GT$$GT$6extend28_$u7b$$u7b$closure$u7d$$u7d$17ha07d85452b5be319E

	.def	_ZN121_$LT$proc_macro2..imp..TokenStream$u20$as$u20$core..iter..traits..collect..FromIterator$LT$proc_macro2..TokenTree$GT$$GT$9from_iter17h171e3c7b4f464c5cE;
	.scl	2;
	.type	32;
	.endef
	.section	.text,"xr",one_only,_ZN121_$LT$proc_macro2..imp..TokenStream$u20$as$u20$core..iter..traits..collect..FromIterator$LT$proc_macro2..TokenTree$GT$$GT$9from_iter17h171e3c7b4f464c5cE
	.globl	_ZN121_$LT$proc_macro2..imp..TokenStream$u20$as$u20$core..iter..traits..collect..FromIterator$LT$proc_macro2..TokenTree$GT$$GT$9from_iter17h171e3c7b4f464c5cE
	.p2align	4, 0x90
_ZN121_$LT$proc_macro2..imp..TokenStream$u20$as$u20$core..iter..traits..collect..FromIterator$LT$proc_macro2..TokenTree$GT$$GT$9from_iter17h171e3c7b4f464c5cE:
.Lfunc_begin24:
.seh_proc _ZN121_$LT$proc_macro2..imp..TokenStream$u20$as$u20$core..iter..traits..collect..FromIterator$LT$proc_macro2..TokenTree$GT$$GT$9from_iter17h171e3c7b4f464c5cE
	.seh_handler __CxxFrameHandler3, @unwind, @except
	pushq	%rbp
	.seh_pushreg %rbp
	subq	$368, %rsp
	.seh_stackalloc 368
	leaq	128(%rsp), %rbp
	.seh_setframe %rbp, 128
	.seh_endprologue
	movq	$-2, 232(%rbp)
	movq	%rdx, -80(%rbp)
	movq	%rcx, -72(%rbp)
	movq	%rcx, -64(%rbp)
	movb	$0, 231(%rbp)
	movb	$1, 231(%rbp)
.Ltmp106:
	callq	_ZN11proc_macro29detection17inside_proc_macro17h24be8ce0ef812637E
.Ltmp107:
	movb	%al, -49(%rbp)
	jmp	.LBB50_2
.LBB50_2:
	movb	-49(%rbp), %al
	testb	$1, %al
	jne	.LBB50_4
	jmp	.LBB50_3
.LBB50_3:
	movq	-80(%rbp), %rax
	movb	$0, 231(%rbp)
	vmovups	(%rax), %ymm0
	vmovups	16(%rax), %ymm1
	vmovups	%ymm1, 192(%rbp)
	vmovups	%ymm0, 176(%rbp)
.Ltmp108:
	leaq	128(%rbp), %rcx
	leaq	176(%rbp), %rdx
	vzeroupper
	callq	_ZN63_$LT$I$u20$as$u20$core..iter..traits..collect..IntoIterator$GT$9into_iter17h4aa9e6377ce578fbE
.Ltmp109:
	jmp	.LBB50_5
.LBB50_4:
	movq	-80(%rbp), %rax
	movb	$0, 231(%rbp)
	vmovups	(%rax), %ymm0
	vmovups	16(%rax), %ymm1
	vmovups	%ymm1, 96(%rbp)
	vmovups	%ymm0, 80(%rbp)
.Ltmp112:
	leaq	32(%rbp), %rcx
	leaq	80(%rbp), %rdx
	vzeroupper
	callq	_ZN63_$LT$I$u20$as$u20$core..iter..traits..collect..IntoIterator$GT$9into_iter17h4aa9e6377ce578fbE
.Ltmp113:
	jmp	.LBB50_8
.LBB50_5:
.Ltmp110:
	leaq	128(%rbp), %rcx
	callq	_ZN4core4iter6traits8iterator8Iterator7collect17hd4bcf4690856bfb3E
.Ltmp111:
	movq	%rax, -88(%rbp)
	jmp	.LBB50_6
.LBB50_6:
	movq	-72(%rbp), %rax
	movq	-88(%rbp), %rcx
	movq	%rcx, 8(%rax)
	movabsq	$-9223372036854775808, %rcx
	movq	%rcx, (%rax)
.LBB50_7:
	movq	-64(%rbp), %rax
	addq	$368, %rsp
	popq	%rbp
	retq
.LBB50_8:
.Ltmp114:
	leaq	-16(%rbp), %rcx
	leaq	32(%rbp), %rdx
	callq	_ZN4core4iter6traits8iterator8Iterator3map17hfda4c4cb0784d7f3E
.Ltmp115:
	jmp	.LBB50_9
.LBB50_9:
.Ltmp116:
	leaq	-16(%rbp), %rcx
	callq	_ZN4core4iter6traits8iterator8Iterator7collect17hc45c212fe2bc09a4E
.Ltmp117:
	movl	%eax, -92(%rbp)
	jmp	.LBB50_10
.LBB50_10:
.Ltmp118:
	movl	-92(%rbp), %edx
	leaq	-48(%rbp), %rcx
	callq	_ZN11proc_macro23imp19DeferredTokenStream3new17hb122fd974e6355aeE
.Ltmp119:
	jmp	.LBB50_11
.LBB50_11:
	movq	-72(%rbp), %rax
	movq	-48(%rbp), %rcx
	movq	%rcx, (%rax)
	movq	-40(%rbp), %rcx
	movq	%rcx, 8(%rax)
	movq	-32(%rbp), %rcx
	movq	%rcx, 16(%rax)
	movq	-24(%rbp), %rcx
	movq	%rcx, 24(%rax)
	jmp	.LBB50_7
	.seh_handlerdata
	.long	($cppxdata$_ZN121_$LT$proc_macro2..imp..TokenStream$u20$as$u20$core..iter..traits..collect..FromIterator$LT$proc_macro2..TokenTree$GT$$GT$9from_iter17h171e3c7b4f464c5cE)@IMGREL
	.section	.text,"xr",one_only,_ZN121_$LT$proc_macro2..imp..TokenStream$u20$as$u20$core..iter..traits..collect..FromIterator$LT$proc_macro2..TokenTree$GT$$GT$9from_iter17h171e3c7b4f464c5cE
	.seh_endproc
	.def	"?dtor$1@?0?_ZN121_$LT$proc_macro2..imp..TokenStream$u20$as$u20$core..iter..traits..collect..FromIterator$LT$proc_macro2..TokenTree$GT$$GT$9from_iter17h171e3c7b4f464c5cE@4HA";
	.scl	3;
	.type	32;
	.endef
	.p2align	4, 0x90
"?dtor$1@?0?_ZN121_$LT$proc_macro2..imp..TokenStream$u20$as$u20$core..iter..traits..collect..FromIterator$LT$proc_macro2..TokenTree$GT$$GT$9from_iter17h171e3c7b4f464c5cE@4HA":
.seh_proc "?dtor$1@?0?_ZN121_$LT$proc_macro2..imp..TokenStream$u20$as$u20$core..iter..traits..collect..FromIterator$LT$proc_macro2..TokenTree$GT$$GT$9from_iter17h171e3c7b4f464c5cE@4HA"
.LBB50_1:
	movq	%rdx, 16(%rsp)
	pushq	%rbp
	.seh_pushreg %rbp
	subq	$32, %rsp
	.seh_stackalloc 32
	leaq	128(%rdx), %rbp
	.seh_endprologue
	testb	$1, 231(%rbp)
	jne	.LBB50_13
	jmp	.LBB50_12
.LBB50_12:
	addq	$32, %rsp
	popq	%rbp
	retq
.LBB50_13:
	movq	-80(%rbp), %rcx
	callq	_ZN4core3ptr161drop_in_place$LT$core..iter..adapters..map..Map$LT$proc_macro2..token_stream..IntoIter$C$quote..__private..respan_token_tree..$u7b$$u7b$closure$u7d$$u7d$$GT$$GT$17h271ad6f41fe1fce7E
	jmp	.LBB50_12
.Lfunc_end24:
	.seh_handlerdata
	.section	.text,"xr",one_only,_ZN121_$LT$proc_macro2..imp..TokenStream$u20$as$u20$core..iter..traits..collect..FromIterator$LT$proc_macro2..TokenTree$GT$$GT$9from_iter17h171e3c7b4f464c5cE
	.seh_endproc
	.section	.xdata,"dr",associative,_ZN121_$LT$proc_macro2..imp..TokenStream$u20$as$u20$core..iter..traits..collect..FromIterator$LT$proc_macro2..TokenTree$GT$$GT$9from_iter17h171e3c7b4f464c5cE
	.p2align	2, 0x0
$cppxdata$_ZN121_$LT$proc_macro2..imp..TokenStream$u20$as$u20$core..iter..traits..collect..FromIterator$LT$proc_macro2..TokenTree$GT$$GT$9from_iter17h171e3c7b4f464c5cE:
	.long	429065506
	.long	1
	.long	($stateUnwindMap$_ZN121_$LT$proc_macro2..imp..TokenStream$u20$as$u20$core..iter..traits..collect..FromIterator$LT$proc_macro2..TokenTree$GT$$GT$9from_iter17h171e3c7b4f464c5cE)@IMGREL
	.long	0
	.long	0
	.long	3
	.long	($ip2state$_ZN121_$LT$proc_macro2..imp..TokenStream$u20$as$u20$core..iter..traits..collect..FromIterator$LT$proc_macro2..TokenTree$GT$$GT$9from_iter17h171e3c7b4f464c5cE)@IMGREL
	.long	360
	.long	0
	.long	1
$stateUnwindMap$_ZN121_$LT$proc_macro2..imp..TokenStream$u20$as$u20$core..iter..traits..collect..FromIterator$LT$proc_macro2..TokenTree$GT$$GT$9from_iter17h171e3c7b4f464c5cE:
	.long	-1
	.long	"?dtor$1@?0?_ZN121_$LT$proc_macro2..imp..TokenStream$u20$as$u20$core..iter..traits..collect..FromIterator$LT$proc_macro2..TokenTree$GT$$GT$9from_iter17h171e3c7b4f464c5cE@4HA"@IMGREL
$ip2state$_ZN121_$LT$proc_macro2..imp..TokenStream$u20$as$u20$core..iter..traits..collect..FromIterator$LT$proc_macro2..TokenTree$GT$$GT$9from_iter17h171e3c7b4f464c5cE:
	.long	.Lfunc_begin24@IMGREL
	.long	-1
	.long	.Ltmp106@IMGREL+1
	.long	0
	.long	.Ltmp119@IMGREL+1
	.long	-1
	.section	.text,"xr",one_only,_ZN121_$LT$proc_macro2..imp..TokenStream$u20$as$u20$core..iter..traits..collect..FromIterator$LT$proc_macro2..TokenTree$GT$$GT$9from_iter17h171e3c7b4f464c5cE

	.def	_ZN122_$LT$proc_macro2..imp..TokenStream$u20$as$u20$core..iter..traits..collect..Extend$LT$proc_macro2..imp..TokenStream$GT$$GT$6extend17h8c07621fd7abb015E;
	.scl	2;
	.type	32;
	.endef
	.section	.text,"xr",one_only,_ZN122_$LT$proc_macro2..imp..TokenStream$u20$as$u20$core..iter..traits..collect..Extend$LT$proc_macro2..imp..TokenStream$GT$$GT$6extend17h8c07621fd7abb015E
	.globl	_ZN122_$LT$proc_macro2..imp..TokenStream$u20$as$u20$core..iter..traits..collect..Extend$LT$proc_macro2..imp..TokenStream$GT$$GT$6extend17h8c07621fd7abb015E
	.p2align	4, 0x90
_ZN122_$LT$proc_macro2..imp..TokenStream$u20$as$u20$core..iter..traits..collect..Extend$LT$proc_macro2..imp..TokenStream$GT$$GT$6extend17h8c07621fd7abb015E:
.Lfunc_begin25:
.seh_proc _ZN122_$LT$proc_macro2..imp..TokenStream$u20$as$u20$core..iter..traits..collect..Extend$LT$proc_macro2..imp..TokenStream$GT$$GT$6extend17h8c07621fd7abb015E
	.seh_handler __CxxFrameHandler3, @unwind, @except
	pushq	%rbp
	.seh_pushreg %rbp
	subq	$272, %rsp
	.seh_stackalloc 272
	leaq	128(%rsp), %rbp
	.seh_setframe %rbp, 128
	.seh_endprologue
	movq	$-2, 136(%rbp)
	movq	%rdx, -80(%rbp)
	movq	%rcx, %rdx
	movq	%rdx, -72(%rbp)
	movb	$0, 135(%rbp)
	movb	$1, 135(%rbp)
	movabsq	$-9223372036854775808, %r8
	xorl	%eax, %eax
	movl	$1, %ecx
	cmpq	%r8, (%rdx)
	cmoveq	%rcx, %rax
	cmpq	$0, %rax
	jne	.LBB51_2
.Ltmp126:
	movq	-72(%rbp), %rcx
	callq	_ZN11proc_macro23imp19DeferredTokenStream12evaluate_now17hef044cf61a8a8a62E
.Ltmp127:
	jmp	.LBB51_4
.LBB51_2:
	movq	-80(%rbp), %rax
	movq	-72(%rbp), %rcx
	addq	$8, %rcx
	movq	%rcx, -88(%rbp)
	movb	$0, 135(%rbp)
	vmovups	(%rax), %ymm0
	vmovups	%ymm0, 96(%rbp)
.Ltmp120:
	leaq	64(%rbp), %rcx
	leaq	96(%rbp), %rdx
	vzeroupper
	callq	_ZN63_$LT$I$u20$as$u20$core..iter..traits..collect..IntoIterator$GT$9into_iter17h581b3e4c5a9d39a5E
.Ltmp121:
	jmp	.LBB51_9
.LBB51_4:
	movq	-80(%rbp), %rax
	movq	-72(%rbp), %rcx
	addq	$24, %rcx
	movq	%rcx, -96(%rbp)
	movb	$0, 135(%rbp)
	vmovups	(%rax), %ymm0
	vmovups	%ymm0, (%rbp)
.Ltmp128:
	leaq	-32(%rbp), %rcx
	movq	%rbp, %rdx
	vzeroupper
	callq	_ZN63_$LT$I$u20$as$u20$core..iter..traits..collect..IntoIterator$GT$9into_iter17h581b3e4c5a9d39a5E
.Ltmp129:
	jmp	.LBB51_5
.LBB51_5:
.Ltmp130:
	leaq	-64(%rbp), %rcx
	leaq	-32(%rbp), %rdx
	callq	_ZN4core4iter6traits8iterator8Iterator3map17h985d6b6cf5afbbcdE
.Ltmp131:
	jmp	.LBB51_6
.LBB51_6:
.Ltmp132:
	movq	-96(%rbp), %rcx
	leaq	-64(%rbp), %rdx
	callq	_ZN110_$LT$proc_macro..TokenStream$u20$as$u20$core..iter..traits..collect..Extend$LT$proc_macro..TokenStream$GT$$GT$6extend17h7c23e88d4cdd9f10E
.Ltmp133:
	jmp	.LBB51_7
.LBB51_7:
	jmp	.LBB51_8
.LBB51_8:
	addq	$272, %rsp
	popq	%rbp
	retq
.LBB51_9:
.Ltmp122:
	leaq	32(%rbp), %rcx
	leaq	64(%rbp), %rdx
	callq	_ZN4core4iter6traits8iterator8Iterator3map17h9e25226334e247dfE
.Ltmp123:
	jmp	.LBB51_10
.LBB51_10:
.Ltmp124:
	movq	-88(%rbp), %rcx
	leaq	32(%rbp), %rdx
	callq	_ZN132_$LT$proc_macro2..fallback..TokenStream$u20$as$u20$core..iter..traits..collect..Extend$LT$proc_macro2..fallback..TokenStream$GT$$GT$6extend17hea161a1c9c23689fE
.Ltmp125:
	jmp	.LBB51_11
.LBB51_11:
	jmp	.LBB51_8
	.seh_handlerdata
	.long	($cppxdata$_ZN122_$LT$proc_macro2..imp..TokenStream$u20$as$u20$core..iter..traits..collect..Extend$LT$proc_macro2..imp..TokenStream$GT$$GT$6extend17h8c07621fd7abb015E)@IMGREL
	.section	.text,"xr",one_only,_ZN122_$LT$proc_macro2..imp..TokenStream$u20$as$u20$core..iter..traits..collect..Extend$LT$proc_macro2..imp..TokenStream$GT$$GT$6extend17h8c07621fd7abb015E
	.seh_endproc
	.def	"?dtor$3@?0?_ZN122_$LT$proc_macro2..imp..TokenStream$u20$as$u20$core..iter..traits..collect..Extend$LT$proc_macro2..imp..TokenStream$GT$$GT$6extend17h8c07621fd7abb015E@4HA";
	.scl	3;
	.type	32;
	.endef
	.p2align	4, 0x90
"?dtor$3@?0?_ZN122_$LT$proc_macro2..imp..TokenStream$u20$as$u20$core..iter..traits..collect..Extend$LT$proc_macro2..imp..TokenStream$GT$$GT$6extend17h8c07621fd7abb015E@4HA":
.seh_proc "?dtor$3@?0?_ZN122_$LT$proc_macro2..imp..TokenStream$u20$as$u20$core..iter..traits..collect..Extend$LT$proc_macro2..imp..TokenStream$GT$$GT$6extend17h8c07621fd7abb015E@4HA"
.LBB51_3:
	movq	%rdx, 16(%rsp)
	pushq	%rbp
	.seh_pushreg %rbp
	subq	$32, %rsp
	.seh_stackalloc 32
	leaq	128(%rdx), %rbp
	.seh_endprologue
	testb	$1, 135(%rbp)
	jne	.LBB51_13
	jmp	.LBB51_12
.LBB51_12:
	addq	$32, %rsp
	popq	%rbp
	retq
.LBB51_13:
	movq	-80(%rbp), %rcx
	callq	_ZN4core3ptr344drop_in_place$LT$core..iter..adapters..map..Map$LT$core..iter..sources..once..Once$LT$proc_macro2..TokenStream$GT$$C$$LT$proc_macro2..TokenStream$u20$as$u20$core..iter..traits..collect..Extend$LT$proc_macro2..TokenStream$GT$$GT$..extend$LT$core..iter..sources..once..Once$LT$proc_macro2..TokenStream$GT$$GT$..$u7b$$u7b$closure$u7d$$u7d$$GT$$GT$17hd6dfb8c604f8dc45E
	jmp	.LBB51_12
.Lfunc_end25:
	.seh_handlerdata
	.section	.text,"xr",one_only,_ZN122_$LT$proc_macro2..imp..TokenStream$u20$as$u20$core..iter..traits..collect..Extend$LT$proc_macro2..imp..TokenStream$GT$$GT$6extend17h8c07621fd7abb015E
	.seh_endproc
	.section	.xdata,"dr",associative,_ZN122_$LT$proc_macro2..imp..TokenStream$u20$as$u20$core..iter..traits..collect..Extend$LT$proc_macro2..imp..TokenStream$GT$$GT$6extend17h8c07621fd7abb015E
	.p2align	2, 0x0
$cppxdata$_ZN122_$LT$proc_macro2..imp..TokenStream$u20$as$u20$core..iter..traits..collect..Extend$LT$proc_macro2..imp..TokenStream$GT$$GT$6extend17h8c07621fd7abb015E:
	.long	429065506
	.long	1
	.long	($stateUnwindMap$_ZN122_$LT$proc_macro2..imp..TokenStream$u20$as$u20$core..iter..traits..collect..Extend$LT$proc_macro2..imp..TokenStream$GT$$GT$6extend17h8c07621fd7abb015E)@IMGREL
	.long	0
	.long	0
	.long	3
	.long	($ip2state$_ZN122_$LT$proc_macro2..imp..TokenStream$u20$as$u20$core..iter..traits..collect..Extend$LT$proc_macro2..imp..TokenStream$GT$$GT$6extend17h8c07621fd7abb015E)@IMGREL
	.long	264
	.long	0
	.long	1
$stateUnwindMap$_ZN122_$LT$proc_macro2..imp..TokenStream$u20$as$u20$core..iter..traits..collect..Extend$LT$proc_macro2..imp..TokenStream$GT$$GT$6extend17h8c07621fd7abb015E:
	.long	-1
	.long	"?dtor$3@?0?_ZN122_$LT$proc_macro2..imp..TokenStream$u20$as$u20$core..iter..traits..collect..Extend$LT$proc_macro2..imp..TokenStream$GT$$GT$6extend17h8c07621fd7abb015E@4HA"@IMGREL
$ip2state$_ZN122_$LT$proc_macro2..imp..TokenStream$u20$as$u20$core..iter..traits..collect..Extend$LT$proc_macro2..imp..TokenStream$GT$$GT$6extend17h8c07621fd7abb015E:
	.long	.Lfunc_begin25@IMGREL
	.long	-1
	.long	.Ltmp126@IMGREL+1
	.long	0
	.long	.Ltmp125@IMGREL+1
	.long	-1
	.section	.text,"xr",one_only,_ZN122_$LT$proc_macro2..imp..TokenStream$u20$as$u20$core..iter..traits..collect..Extend$LT$proc_macro2..imp..TokenStream$GT$$GT$6extend17h8c07621fd7abb015E

	.def	_ZN126_$LT$proc_macro2..fallback..TokenStream$u20$as$u20$core..iter..traits..collect..FromIterator$LT$proc_macro2..TokenTree$GT$$GT$9from_iter17h1f11b8fcf389dff5E;
	.scl	2;
	.type	32;
	.endef
	.section	.text,"xr",one_only,_ZN126_$LT$proc_macro2..fallback..TokenStream$u20$as$u20$core..iter..traits..collect..FromIterator$LT$proc_macro2..TokenTree$GT$$GT$9from_iter17h1f11b8fcf389dff5E
	.globl	_ZN126_$LT$proc_macro2..fallback..TokenStream$u20$as$u20$core..iter..traits..collect..FromIterator$LT$proc_macro2..TokenTree$GT$$GT$9from_iter17h1f11b8fcf389dff5E
	.p2align	4, 0x90
_ZN126_$LT$proc_macro2..fallback..TokenStream$u20$as$u20$core..iter..traits..collect..FromIterator$LT$proc_macro2..TokenTree$GT$$GT$9from_iter17h1f11b8fcf389dff5E:
.Lfunc_begin26:
.seh_proc _ZN126_$LT$proc_macro2..fallback..TokenStream$u20$as$u20$core..iter..traits..collect..FromIterator$LT$proc_macro2..TokenTree$GT$$GT$9from_iter17h1f11b8fcf389dff5E
	.seh_handler __CxxFrameHandler3, @unwind, @except
	pushq	%rbp
	.seh_pushreg %rbp
	subq	$128, %rsp
	.seh_stackalloc 128
	leaq	128(%rsp), %rbp
	.seh_setframe %rbp, 128
	.seh_endprologue
	movq	$-2, -8(%rbp)
	movq	%rcx, -88(%rbp)
	movb	$0, -9(%rbp)
	movb	$1, -9(%rbp)
.Ltmp134:
	callq	_ZN11proc_macro28fallback11TokenStream3new17h44dc5f98328c97b0E
.Ltmp135:
	movq	%rax, -80(%rbp)
	jmp	.LBB52_2
.LBB52_2:
	movq	-88(%rbp), %rax
	movq	-80(%rbp), %rcx
	movq	%rcx, -72(%rbp)
	movb	$0, -9(%rbp)
	vmovups	(%rax), %ymm0
	vmovups	16(%rax), %ymm1
	vmovups	%ymm1, -48(%rbp)
	vmovups	%ymm0, -64(%rbp)
.Ltmp136:
	leaq	-72(%rbp), %rcx
	leaq	-64(%rbp), %rdx
	vzeroupper
	callq	_ZN120_$LT$proc_macro2..fallback..TokenStream$u20$as$u20$core..iter..traits..collect..Extend$LT$proc_macro2..TokenTree$GT$$GT$6extend17h07965b84c805d8c7E
.Ltmp137:
	jmp	.LBB52_4
.LBB52_4:
	movq	-72(%rbp), %rax
	addq	$128, %rsp
	popq	%rbp
	retq
	.seh_handlerdata
	.long	($cppxdata$_ZN126_$LT$proc_macro2..fallback..TokenStream$u20$as$u20$core..iter..traits..collect..FromIterator$LT$proc_macro2..TokenTree$GT$$GT$9from_iter17h1f11b8fcf389dff5E)@IMGREL
	.section	.text,"xr",one_only,_ZN126_$LT$proc_macro2..fallback..TokenStream$u20$as$u20$core..iter..traits..collect..FromIterator$LT$proc_macro2..TokenTree$GT$$GT$9from_iter17h1f11b8fcf389dff5E
	.seh_endproc
	.def	"?dtor$1@?0?_ZN126_$LT$proc_macro2..fallback..TokenStream$u20$as$u20$core..iter..traits..collect..FromIterator$LT$proc_macro2..TokenTree$GT$$GT$9from_iter17h1f11b8fcf389dff5E@4HA";
	.scl	3;
	.type	32;
	.endef
	.p2align	4, 0x90
"?dtor$1@?0?_ZN126_$LT$proc_macro2..fallback..TokenStream$u20$as$u20$core..iter..traits..collect..FromIterator$LT$proc_macro2..TokenTree$GT$$GT$9from_iter17h1f11b8fcf389dff5E@4HA":
.seh_proc "?dtor$1@?0?_ZN126_$LT$proc_macro2..fallback..TokenStream$u20$as$u20$core..iter..traits..collect..FromIterator$LT$proc_macro2..TokenTree$GT$$GT$9from_iter17h1f11b8fcf389dff5E@4HA"
.LBB52_1:
	movq	%rdx, 16(%rsp)
	pushq	%rbp
	.seh_pushreg %rbp
	subq	$32, %rsp
	.seh_stackalloc 32
	leaq	128(%rdx), %rbp
	.seh_endprologue
	testb	$1, -9(%rbp)
	jne	.LBB52_6
	jmp	.LBB52_5
.LBB52_5:
	addq	$32, %rsp
	popq	%rbp
	retq
.LBB52_6:
	movq	-88(%rbp), %rcx
	callq	_ZN4core3ptr161drop_in_place$LT$core..iter..adapters..map..Map$LT$proc_macro2..token_stream..IntoIter$C$quote..__private..respan_token_tree..$u7b$$u7b$closure$u7d$$u7d$$GT$$GT$17h271ad6f41fe1fce7E
	jmp	.LBB52_5
	.seh_handlerdata
	.section	.text,"xr",one_only,_ZN126_$LT$proc_macro2..fallback..TokenStream$u20$as$u20$core..iter..traits..collect..FromIterator$LT$proc_macro2..TokenTree$GT$$GT$9from_iter17h1f11b8fcf389dff5E
	.seh_endproc
	.def	"?dtor$3@?0?_ZN126_$LT$proc_macro2..fallback..TokenStream$u20$as$u20$core..iter..traits..collect..FromIterator$LT$proc_macro2..TokenTree$GT$$GT$9from_iter17h1f11b8fcf389dff5E@4HA";
	.scl	3;
	.type	32;
	.endef
	.p2align	4, 0x90
"?dtor$3@?0?_ZN126_$LT$proc_macro2..fallback..TokenStream$u20$as$u20$core..iter..traits..collect..FromIterator$LT$proc_macro2..TokenTree$GT$$GT$9from_iter17h1f11b8fcf389dff5E@4HA":
.seh_proc "?dtor$3@?0?_ZN126_$LT$proc_macro2..fallback..TokenStream$u20$as$u20$core..iter..traits..collect..FromIterator$LT$proc_macro2..TokenTree$GT$$GT$9from_iter17h1f11b8fcf389dff5E@4HA"
.LBB52_3:
	movq	%rdx, 16(%rsp)
	pushq	%rbp
	.seh_pushreg %rbp
	subq	$32, %rsp
	.seh_stackalloc 32
	leaq	128(%rdx), %rbp
	.seh_endprologue
	leaq	-72(%rbp), %rcx
	callq	_ZN4core3ptr55drop_in_place$LT$proc_macro2..fallback..TokenStream$GT$17h707208326c54341dE
	nop
	addq	$32, %rsp
	popq	%rbp
	retq
.Lfunc_end26:
	.seh_handlerdata
	.section	.text,"xr",one_only,_ZN126_$LT$proc_macro2..fallback..TokenStream$u20$as$u20$core..iter..traits..collect..FromIterator$LT$proc_macro2..TokenTree$GT$$GT$9from_iter17h1f11b8fcf389dff5E
	.seh_endproc
	.section	.xdata,"dr",associative,_ZN126_$LT$proc_macro2..fallback..TokenStream$u20$as$u20$core..iter..traits..collect..FromIterator$LT$proc_macro2..TokenTree$GT$$GT$9from_iter17h1f11b8fcf389dff5E
	.p2align	2, 0x0
$cppxdata$_ZN126_$LT$proc_macro2..fallback..TokenStream$u20$as$u20$core..iter..traits..collect..FromIterator$LT$proc_macro2..TokenTree$GT$$GT$9from_iter17h1f11b8fcf389dff5E:
	.long	429065506
	.long	2
	.long	($stateUnwindMap$_ZN126_$LT$proc_macro2..fallback..TokenStream$u20$as$u20$core..iter..traits..collect..FromIterator$LT$proc_macro2..TokenTree$GT$$GT$9from_iter17h1f11b8fcf389dff5E)@IMGREL
	.long	0
	.long	0
	.long	4
	.long	($ip2state$_ZN126_$LT$proc_macro2..fallback..TokenStream$u20$as$u20$core..iter..traits..collect..FromIterator$LT$proc_macro2..TokenTree$GT$$GT$9from_iter17h1f11b8fcf389dff5E)@IMGREL
	.long	120
	.long	0
	.long	1
$stateUnwindMap$_ZN126_$LT$proc_macro2..fallback..TokenStream$u20$as$u20$core..iter..traits..collect..FromIterator$LT$proc_macro2..TokenTree$GT$$GT$9from_iter17h1f11b8fcf389dff5E:
	.long	-1
	.long	"?dtor$1@?0?_ZN126_$LT$proc_macro2..fallback..TokenStream$u20$as$u20$core..iter..traits..collect..FromIterator$LT$proc_macro2..TokenTree$GT$$GT$9from_iter17h1f11b8fcf389dff5E@4HA"@IMGREL
	.long	0
	.long	"?dtor$3@?0?_ZN126_$LT$proc_macro2..fallback..TokenStream$u20$as$u20$core..iter..traits..collect..FromIterator$LT$proc_macro2..TokenTree$GT$$GT$9from_iter17h1f11b8fcf389dff5E@4HA"@IMGREL
$ip2state$_ZN126_$LT$proc_macro2..fallback..TokenStream$u20$as$u20$core..iter..traits..collect..FromIterator$LT$proc_macro2..TokenTree$GT$$GT$9from_iter17h1f11b8fcf389dff5E:
	.long	.Lfunc_begin26@IMGREL
	.long	-1
	.long	.Ltmp134@IMGREL+1
	.long	0
	.long	.Ltmp136@IMGREL+1
	.long	1
	.long	.Ltmp137@IMGREL+1
	.long	-1
	.section	.text,"xr",one_only,_ZN126_$LT$proc_macro2..fallback..TokenStream$u20$as$u20$core..iter..traits..collect..FromIterator$LT$proc_macro2..TokenTree$GT$$GT$9from_iter17h1f11b8fcf389dff5E

	.def	_ZN132_$LT$proc_macro2..fallback..TokenStream$u20$as$u20$core..iter..traits..collect..Extend$LT$proc_macro2..fallback..TokenStream$GT$$GT$6extend17hea161a1c9c23689fE;
	.scl	2;
	.type	32;
	.endef
	.section	.text,"xr",one_only,_ZN132_$LT$proc_macro2..fallback..TokenStream$u20$as$u20$core..iter..traits..collect..Extend$LT$proc_macro2..fallback..TokenStream$GT$$GT$6extend17hea161a1c9c23689fE
	.globl	_ZN132_$LT$proc_macro2..fallback..TokenStream$u20$as$u20$core..iter..traits..collect..Extend$LT$proc_macro2..fallback..TokenStream$GT$$GT$6extend17hea161a1c9c23689fE
	.p2align	4, 0x90
_ZN132_$LT$proc_macro2..fallback..TokenStream$u20$as$u20$core..iter..traits..collect..Extend$LT$proc_macro2..fallback..TokenStream$GT$$GT$6extend17hea161a1c9c23689fE:
.Lfunc_begin27:
.seh_proc _ZN132_$LT$proc_macro2..fallback..TokenStream$u20$as$u20$core..iter..traits..collect..Extend$LT$proc_macro2..fallback..TokenStream$GT$$GT$6extend17hea161a1c9c23689fE
	.seh_handler __CxxFrameHandler3, @unwind, @except
	pushq	%rbp
	.seh_pushreg %rbp
	subq	$240, %rsp
	.seh_stackalloc 240
	leaq	128(%rsp), %rbp
	.seh_setframe %rbp, 128
	.seh_endprologue
	movq	$-2, 104(%rbp)
	movq	%rdx, -88(%rbp)
	movb	$0, 103(%rbp)
	movb	$1, 103(%rbp)
.Ltmp138:
	callq	_ZN11proc_macro25rcvec14RcVec$LT$T$GT$8make_mut17h3578bdcc6fe36399E
.Ltmp139:
	movq	%rax, -80(%rbp)
	jmp	.LBB53_2
.LBB53_2:
	movq	-88(%rbp), %rax
	movq	-80(%rbp), %rcx
	movq	%rcx, -72(%rbp)
	movb	$0, 103(%rbp)
	vmovups	(%rax), %ymm0
	vmovups	%ymm0, 64(%rbp)
.Ltmp140:
	leaq	32(%rbp), %rcx
	leaq	64(%rbp), %rdx
	vzeroupper
	callq	_ZN63_$LT$I$u20$as$u20$core..iter..traits..collect..IntoIterator$GT$9into_iter17he9afbaa236699c0fE
.Ltmp141:
	jmp	.LBB53_3
.LBB53_3:
.Ltmp142:
	leaq	-64(%rbp), %rcx
	leaq	32(%rbp), %rdx
	callq	_ZN4core4iter6traits8iterator8Iterator7flatten17h89b8ffedadacf8c3E
.Ltmp143:
	jmp	.LBB53_4
.LBB53_4:
.Ltmp144:
	leaq	-72(%rbp), %rcx
	leaq	-64(%rbp), %rdx
	callq	_ZN11proc_macro25rcvec17RcVecMut$LT$T$GT$6extend17h78f7956d4e33108eE
.Ltmp145:
	jmp	.LBB53_5
.LBB53_5:
	addq	$240, %rsp
	popq	%rbp
	retq
	.seh_handlerdata
	.long	($cppxdata$_ZN132_$LT$proc_macro2..fallback..TokenStream$u20$as$u20$core..iter..traits..collect..Extend$LT$proc_macro2..fallback..TokenStream$GT$$GT$6extend17hea161a1c9c23689fE)@IMGREL
	.section	.text,"xr",one_only,_ZN132_$LT$proc_macro2..fallback..TokenStream$u20$as$u20$core..iter..traits..collect..Extend$LT$proc_macro2..fallback..TokenStream$GT$$GT$6extend17hea161a1c9c23689fE
	.seh_endproc
	.def	"?dtor$1@?0?_ZN132_$LT$proc_macro2..fallback..TokenStream$u20$as$u20$core..iter..traits..collect..Extend$LT$proc_macro2..fallback..TokenStream$GT$$GT$6extend17hea161a1c9c23689fE@4HA";
	.scl	3;
	.type	32;
	.endef
	.p2align	4, 0x90
"?dtor$1@?0?_ZN132_$LT$proc_macro2..fallback..TokenStream$u20$as$u20$core..iter..traits..collect..Extend$LT$proc_macro2..fallback..TokenStream$GT$$GT$6extend17hea161a1c9c23689fE@4HA":
.seh_proc "?dtor$1@?0?_ZN132_$LT$proc_macro2..fallback..TokenStream$u20$as$u20$core..iter..traits..collect..Extend$LT$proc_macro2..fallback..TokenStream$GT$$GT$6extend17hea161a1c9c23689fE@4HA"
.LBB53_1:
	movq	%rdx, 16(%rsp)
	pushq	%rbp
	.seh_pushreg %rbp
	subq	$32, %rsp
	.seh_stackalloc 32
	leaq	128(%rdx), %rbp
	.seh_endprologue
	testb	$1, 103(%rbp)
	jne	.LBB53_7
	jmp	.LBB53_6
.LBB53_6:
	addq	$32, %rsp
	popq	%rbp
	retq
.LBB53_7:
	movq	-88(%rbp), %rcx
	callq	_ZN4core3ptr429drop_in_place$LT$core..iter..adapters..map..Map$LT$core..iter..adapters..map..Map$LT$core..iter..sources..once..Once$LT$proc_macro2..TokenStream$GT$$C$$LT$proc_macro2..TokenStream$u20$as$u20$core..iter..traits..collect..Extend$LT$proc_macro2..TokenStream$GT$$GT$..extend$LT$core..iter..sources..once..Once$LT$proc_macro2..TokenStream$GT$$GT$..$u7b$$u7b$closure$u7d$$u7d$$GT$$C$proc_macro2..imp..TokenStream..unwrap_stable$GT$$GT$17h061047efe3727134E
	jmp	.LBB53_6
.Lfunc_end27:
	.seh_handlerdata
	.section	.text,"xr",one_only,_ZN132_$LT$proc_macro2..fallback..TokenStream$u20$as$u20$core..iter..traits..collect..Extend$LT$proc_macro2..fallback..TokenStream$GT$$GT$6extend17hea161a1c9c23689fE
	.seh_endproc
	.section	.xdata,"dr",associative,_ZN132_$LT$proc_macro2..fallback..TokenStream$u20$as$u20$core..iter..traits..collect..Extend$LT$proc_macro2..fallback..TokenStream$GT$$GT$6extend17hea161a1c9c23689fE
	.p2align	2, 0x0
$cppxdata$_ZN132_$LT$proc_macro2..fallback..TokenStream$u20$as$u20$core..iter..traits..collect..Extend$LT$proc_macro2..fallback..TokenStream$GT$$GT$6extend17hea161a1c9c23689fE:
	.long	429065506
	.long	1
	.long	($stateUnwindMap$_ZN132_$LT$proc_macro2..fallback..TokenStream$u20$as$u20$core..iter..traits..collect..Extend$LT$proc_macro2..fallback..TokenStream$GT$$GT$6extend17hea161a1c9c23689fE)@IMGREL
	.long	0
	.long	0
	.long	3
	.long	($ip2state$_ZN132_$LT$proc_macro2..fallback..TokenStream$u20$as$u20$core..iter..traits..collect..Extend$LT$proc_macro2..fallback..TokenStream$GT$$GT$6extend17hea161a1c9c23689fE)@IMGREL
	.long	232
	.long	0
	.long	1
$stateUnwindMap$_ZN132_$LT$proc_macro2..fallback..TokenStream$u20$as$u20$core..iter..traits..collect..Extend$LT$proc_macro2..fallback..TokenStream$GT$$GT$6extend17hea161a1c9c23689fE:
	.long	-1
	.long	"?dtor$1@?0?_ZN132_$LT$proc_macro2..fallback..TokenStream$u20$as$u20$core..iter..traits..collect..Extend$LT$proc_macro2..fallback..TokenStream$GT$$GT$6extend17hea161a1c9c23689fE@4HA"@IMGREL
$ip2state$_ZN132_$LT$proc_macro2..fallback..TokenStream$u20$as$u20$core..iter..traits..collect..Extend$LT$proc_macro2..fallback..TokenStream$GT$$GT$6extend17hea161a1c9c23689fE:
	.long	.Lfunc_begin27@IMGREL
	.long	-1
	.long	.Ltmp138@IMGREL+1
	.long	0
	.long	.Ltmp145@IMGREL+1
	.long	-1
	.section	.text,"xr",one_only,_ZN132_$LT$proc_macro2..fallback..TokenStream$u20$as$u20$core..iter..traits..collect..Extend$LT$proc_macro2..fallback..TokenStream$GT$$GT$6extend17hea161a1c9c23689fE

	.def	_ZN4core3num23_$LT$impl$u20$usize$GT$14saturating_mul17hac3c91f48ba4a3bdE;
	.scl	3;
	.type	32;
	.endef
	.section	.text,"xr",one_only,_ZN4core3num23_$LT$impl$u20$usize$GT$14saturating_mul17hac3c91f48ba4a3bdE
	.p2align	4, 0x90
_ZN4core3num23_$LT$impl$u20$usize$GT$14saturating_mul17hac3c91f48ba4a3bdE:
.seh_proc _ZN4core3num23_$LT$impl$u20$usize$GT$14saturating_mul17hac3c91f48ba4a3bdE
	subq	$40, %rsp
	.seh_stackalloc 40
	.seh_endprologue
	movq	%rcx, %rax
	mulq	%rdx
	movq	%rax, (%rsp)
	seto	%al
	andb	$1, %al
	movb	%al, 39(%rsp)
	testb	$1, 39(%rsp)
	jne	.LBB54_2
	movq	(%rsp), %rax
	movq	%rax, 24(%rsp)
	movq	$1, 16(%rsp)
	jmp	.LBB54_3
.LBB54_2:
	movq	$0, 16(%rsp)
.LBB54_3:
	cmpq	$0, 16(%rsp)
	jne	.LBB54_5
	movq	$-1, 8(%rsp)
	jmp	.LBB54_6
.LBB54_5:
	movq	24(%rsp), %rax
	movq	%rax, 8(%rsp)
.LBB54_6:
	movq	8(%rsp), %rax
	addq	$40, %rsp
	retq
	.seh_endproc

	.def	_ZN4core3ops8function5FnMut8call_mut17hca053c4d14fe74f7E;
	.scl	3;
	.type	32;
	.endef
	.section	.text,"xr",one_only,_ZN4core3ops8function5FnMut8call_mut17hca053c4d14fe74f7E
	.p2align	4, 0x90
_ZN4core3ops8function5FnMut8call_mut17hca053c4d14fe74f7E:
.seh_proc _ZN4core3ops8function5FnMut8call_mut17hca053c4d14fe74f7E
	subq	$72, %rsp
	.seh_stackalloc 72
	.seh_endprologue
	movq	(%rdx), %rax
	movq	%rax, 40(%rsp)
	movq	8(%rdx), %rax
	movq	%rax, 48(%rsp)
	movq	16(%rdx), %rax
	movq	%rax, 56(%rsp)
	movq	24(%rdx), %rax
	movq	%rax, 64(%rsp)
	leaq	40(%rsp), %rcx
	callq	_ZN11proc_macro23imp11TokenStream14unwrap_nightly17he9b39f7835e635dfE
	nop
	addq	$72, %rsp
	retq
	.seh_endproc

	.def	_ZN4core3ops8function5FnMut8call_mut17hddceeedd508d787aE;
	.scl	3;
	.type	32;
	.endef
	.section	.text,"xr",one_only,_ZN4core3ops8function5FnMut8call_mut17hddceeedd508d787aE
	.p2align	4, 0x90
_ZN4core3ops8function5FnMut8call_mut17hddceeedd508d787aE:
.seh_proc _ZN4core3ops8function5FnMut8call_mut17hddceeedd508d787aE
	subq	$72, %rsp
	.seh_stackalloc 72
	.seh_endprologue
	movq	%rcx, %rax
	movq	%rax, 32(%rsp)
	movq	(%r8), %rax
	movq	%rax, 40(%rsp)
	movq	8(%r8), %rax
	movq	%rax, 48(%rsp)
	movq	16(%r8), %rax
	movq	%rax, 56(%rsp)
	movq	24(%r8), %rax
	movq	%rax, 64(%rsp)
	leaq	40(%rsp), %rdx
	callq	_ZN11proc_macro23imp19into_compiler_token17h20ba3c03a89edf13E
	movq	32(%rsp), %rax
	addq	$72, %rsp
	retq
	.seh_endproc

	.def	_ZN4core3ops8function5FnMut8call_mut17hdfd88abe302423c3E;
	.scl	3;
	.type	32;
	.endef
	.section	.text,"xr",one_only,_ZN4core3ops8function5FnMut8call_mut17hdfd88abe302423c3E
	.p2align	4, 0x90
_ZN4core3ops8function5FnMut8call_mut17hdfd88abe302423c3E:
.seh_proc _ZN4core3ops8function5FnMut8call_mut17hdfd88abe302423c3E
	subq	$72, %rsp
	.seh_stackalloc 72
	.seh_endprologue
	movq	(%rdx), %rax
	movq	%rax, 40(%rsp)
	movq	8(%rdx), %rax
	movq	%rax, 48(%rsp)
	movq	16(%rdx), %rax
	movq	%rax, 56(%rsp)
	movq	24(%rdx), %rax
	movq	%rax, 64(%rsp)
	leaq	40(%rsp), %rcx
	callq	_ZN11proc_macro23imp11TokenStream13unwrap_stable17h197f03ae8c688765E
	nop
	addq	$72, %rsp
	retq
	.seh_endproc

	.def	_ZN4core3ops8function5impls80_$LT$impl$u20$core..ops..function..FnOnce$LT$A$GT$$u20$for$u20$$RF$mut$u20$F$GT$9call_once17h26d92ed1169fb7adE;
	.scl	2;
	.type	32;
	.endef
	.section	.text,"xr",one_only,_ZN4core3ops8function5impls80_$LT$impl$u20$core..ops..function..FnOnce$LT$A$GT$$u20$for$u20$$RF$mut$u20$F$GT$9call_once17h26d92ed1169fb7adE
	.globl	_ZN4core3ops8function5impls80_$LT$impl$u20$core..ops..function..FnOnce$LT$A$GT$$u20$for$u20$$RF$mut$u20$F$GT$9call_once17h26d92ed1169fb7adE
	.p2align	4, 0x90
_ZN4core3ops8function5impls80_$LT$impl$u20$core..ops..function..FnOnce$LT$A$GT$$u20$for$u20$$RF$mut$u20$F$GT$9call_once17h26d92ed1169fb7adE:
.seh_proc _ZN4core3ops8function5impls80_$LT$impl$u20$core..ops..function..FnOnce$LT$A$GT$$u20$for$u20$$RF$mut$u20$F$GT$9call_once17h26d92ed1169fb7adE
	subq	$72, %rsp
	.seh_stackalloc 72
	.seh_endprologue
	movq	%rcx, %rax
	movq	%rax, 32(%rsp)
	movq	(%r8), %rax
	movq	%rax, 40(%rsp)
	movq	8(%r8), %rax
	movq	%rax, 48(%rsp)
	movq	16(%r8), %rax
	movq	%rax, 56(%rsp)
	movq	24(%r8), %rax
	movq	%rax, 64(%rsp)
	leaq	40(%rsp), %r8
	callq	_ZN5quote9__private13parse_spanned28_$u7b$$u7b$closure$u7d$$u7d$17hc8b1658c5d15179aE
	movq	32(%rsp), %rax
	addq	$72, %rsp
	retq
	.seh_endproc

	.def	_ZN4core3ops8function5impls80_$LT$impl$u20$core..ops..function..FnOnce$LT$A$GT$$u20$for$u20$$RF$mut$u20$F$GT$9call_once17h98ffa1c9233e6da5E;
	.scl	2;
	.type	32;
	.endef
	.section	.text,"xr",one_only,_ZN4core3ops8function5impls80_$LT$impl$u20$core..ops..function..FnOnce$LT$A$GT$$u20$for$u20$$RF$mut$u20$F$GT$9call_once17h98ffa1c9233e6da5E
	.globl	_ZN4core3ops8function5impls80_$LT$impl$u20$core..ops..function..FnOnce$LT$A$GT$$u20$for$u20$$RF$mut$u20$F$GT$9call_once17h98ffa1c9233e6da5E
	.p2align	4, 0x90
_ZN4core3ops8function5impls80_$LT$impl$u20$core..ops..function..FnOnce$LT$A$GT$$u20$for$u20$$RF$mut$u20$F$GT$9call_once17h98ffa1c9233e6da5E:
.seh_proc _ZN4core3ops8function5impls80_$LT$impl$u20$core..ops..function..FnOnce$LT$A$GT$$u20$for$u20$$RF$mut$u20$F$GT$9call_once17h98ffa1c9233e6da5E
	subq	$72, %rsp
	.seh_stackalloc 72
	.seh_endprologue
	movq	(%rdx), %rax
	movq	%rax, 40(%rsp)
	movq	8(%rdx), %rax
	movq	%rax, 48(%rsp)
	movq	16(%rdx), %rax
	movq	%rax, 56(%rsp)
	movq	24(%rdx), %rax
	movq	%rax, 64(%rsp)
	leaq	40(%rsp), %rdx
	callq	_ZN4core3ops8function5FnMut8call_mut17hdfd88abe302423c3E
	nop
	addq	$72, %rsp
	retq
	.seh_endproc

	.def	_ZN4core3ops8function5impls80_$LT$impl$u20$core..ops..function..FnOnce$LT$A$GT$$u20$for$u20$$RF$mut$u20$F$GT$9call_once17hcc520377558a25e3E;
	.scl	2;
	.type	32;
	.endef
	.section	.text,"xr",one_only,_ZN4core3ops8function5impls80_$LT$impl$u20$core..ops..function..FnOnce$LT$A$GT$$u20$for$u20$$RF$mut$u20$F$GT$9call_once17hcc520377558a25e3E
	.globl	_ZN4core3ops8function5impls80_$LT$impl$u20$core..ops..function..FnOnce$LT$A$GT$$u20$for$u20$$RF$mut$u20$F$GT$9call_once17hcc520377558a25e3E
	.p2align	4, 0x90
_ZN4core3ops8function5impls80_$LT$impl$u20$core..ops..function..FnOnce$LT$A$GT$$u20$for$u20$$RF$mut$u20$F$GT$9call_once17hcc520377558a25e3E:
.seh_proc _ZN4core3ops8function5impls80_$LT$impl$u20$core..ops..function..FnOnce$LT$A$GT$$u20$for$u20$$RF$mut$u20$F$GT$9call_once17hcc520377558a25e3E
	subq	$72, %rsp
	.seh_stackalloc 72
	.seh_endprologue
	movq	(%rdx), %rax
	movq	%rax, 40(%rsp)
	movq	8(%rdx), %rax
	movq	%rax, 48(%rsp)
	movq	16(%rdx), %rax
	movq	%rax, 56(%rsp)
	movq	24(%rdx), %rax
	movq	%rax, 64(%rsp)
	leaq	40(%rsp), %rdx
	callq	_ZN5quote7spanned10join_spans28_$u7b$$u7b$closure$u7d$$u7d$17hfdef03d49e377c66E
	nop
	addq	$72, %rsp
	retq
	.seh_endproc

	.def	_ZN4core3ops8function5impls80_$LT$impl$u20$core..ops..function..FnOnce$LT$A$GT$$u20$for$u20$$RF$mut$u20$F$GT$9call_once17hd6f9e7f41e25e53bE;
	.scl	2;
	.type	32;
	.endef
	.section	.text,"xr",one_only,_ZN4core3ops8function5impls80_$LT$impl$u20$core..ops..function..FnOnce$LT$A$GT$$u20$for$u20$$RF$mut$u20$F$GT$9call_once17hd6f9e7f41e25e53bE
	.globl	_ZN4core3ops8function5impls80_$LT$impl$u20$core..ops..function..FnOnce$LT$A$GT$$u20$for$u20$$RF$mut$u20$F$GT$9call_once17hd6f9e7f41e25e53bE
	.p2align	4, 0x90
_ZN4core3ops8function5impls80_$LT$impl$u20$core..ops..function..FnOnce$LT$A$GT$$u20$for$u20$$RF$mut$u20$F$GT$9call_once17hd6f9e7f41e25e53bE:
.seh_proc _ZN4core3ops8function5impls80_$LT$impl$u20$core..ops..function..FnOnce$LT$A$GT$$u20$for$u20$$RF$mut$u20$F$GT$9call_once17hd6f9e7f41e25e53bE
	subq	$72, %rsp
	.seh_stackalloc 72
	.seh_endprologue
	movq	%rcx, %rax
	movq	%rax, 32(%rsp)
	movq	(%r8), %rax
	movq	%rax, 40(%rsp)
	movq	8(%r8), %rax
	movq	%rax, 48(%rsp)
	movq	16(%r8), %rax
	movq	%rax, 56(%rsp)
	movq	24(%r8), %rax
	movq	%rax, 64(%rsp)
	leaq	40(%rsp), %r8
	callq	_ZN112_$LT$proc_macro2..TokenStream$u20$as$u20$core..iter..traits..collect..Extend$LT$proc_macro2..TokenStream$GT$$GT$6extend28_$u7b$$u7b$closure$u7d$$u7d$17h5593ecac0a6ebd29E
	movq	32(%rsp), %rax
	addq	$72, %rsp
	retq
	.seh_endproc

	.def	_ZN4core3ops8function6FnOnce9call_once17h1494b3641bad028fE;
	.scl	3;
	.type	32;
	.endef
	.section	.text,"xr",one_only,_ZN4core3ops8function6FnOnce9call_once17h1494b3641bad028fE
	.p2align	4, 0x90
_ZN4core3ops8function6FnOnce9call_once17h1494b3641bad028fE:
.seh_proc _ZN4core3ops8function6FnOnce9call_once17h1494b3641bad028fE
	subq	$56, %rsp
	.seh_stackalloc 56
	.seh_endprologue
	movq	%rcx, %rax
	movq	%rax, 40(%rsp)
	movq	%rdx, 48(%rsp)
	movq	48(%rsp), %rdx
	callq	_ZN101_$LT$proc_macro2..rcvec..RcVecIntoIter$LT$T$GT$$u20$as$u20$core..iter..traits..iterator..Iterator$GT$4next17h41531fa4f8564da2E
	movq	40(%rsp), %rax
	addq	$56, %rsp
	retq
	.seh_endproc

	.def	_ZN4core3ops8function6FnOnce9call_once17h19638612fbf1edd4E;
	.scl	3;
	.type	32;
	.endef
	.section	.text,"xr",one_only,_ZN4core3ops8function6FnOnce9call_once17h19638612fbf1edd4E
	.p2align	4, 0x90
_ZN4core3ops8function6FnOnce9call_once17h19638612fbf1edd4E:
.seh_proc _ZN4core3ops8function6FnOnce9call_once17h19638612fbf1edd4E
	subq	$40, %rsp
	.seh_stackalloc 40
	.seh_endprologue
	callq	_ZN11proc_macro24Span9call_site17h94eb2a8878086079E
	nop
	addq	$40, %rsp
	retq
	.seh_endproc

	.def	_ZN4core3ops8function6FnOnce9call_once17h251ecb3dc2ac166dE;
	.scl	3;
	.type	32;
	.endef
	.section	.text,"xr",one_only,_ZN4core3ops8function6FnOnce9call_once17h251ecb3dc2ac166dE
	.p2align	4, 0x90
_ZN4core3ops8function6FnOnce9call_once17h251ecb3dc2ac166dE:
.seh_proc _ZN4core3ops8function6FnOnce9call_once17h251ecb3dc2ac166dE
	pushq	%rax
	.seh_stackalloc 8
	.seh_endprologue
	movq	%rcx, (%rsp)
	movq	(%rsp), %rax
	popq	%rcx
	retq
	.seh_endproc

	.def	_ZN4core3ops8function6FnOnce9call_once17hfaeed3750d9cdaa1E;
	.scl	3;
	.type	32;
	.endef
	.section	.text,"xr",one_only,_ZN4core3ops8function6FnOnce9call_once17hfaeed3750d9cdaa1E
	.p2align	4, 0x90
_ZN4core3ops8function6FnOnce9call_once17hfaeed3750d9cdaa1E:
.seh_proc _ZN4core3ops8function6FnOnce9call_once17hfaeed3750d9cdaa1E
	subq	$56, %rsp
	.seh_stackalloc 56
	.seh_endprologue
	movq	%rcx, %rax
	movq	%rax, 40(%rsp)
	movq	%rdx, 48(%rsp)
	movq	48(%rsp), %rdx
	callq	_ZN101_$LT$proc_macro2..rcvec..RcVecIntoIter$LT$T$GT$$u20$as$u20$core..iter..traits..iterator..Iterator$GT$9size_hint17h1559dbc36c67a4a0E
	movq	40(%rsp), %rax
	addq	$56, %rsp
	retq
	.seh_endproc

	.def	_ZN4core3ptr112drop_in_place$LT$core..option..Option$LT$proc_macro2..rcvec..RcVecIntoIter$LT$proc_macro2..TokenTree$GT$$GT$$GT$17h95a9626bbbb11b2dE;
	.scl	2;
	.type	32;
	.endef
	.section	.text,"xr",one_only,_ZN4core3ptr112drop_in_place$LT$core..option..Option$LT$proc_macro2..rcvec..RcVecIntoIter$LT$proc_macro2..TokenTree$GT$$GT$$GT$17h95a9626bbbb11b2dE
	.globl	_ZN4core3ptr112drop_in_place$LT$core..option..Option$LT$proc_macro2..rcvec..RcVecIntoIter$LT$proc_macro2..TokenTree$GT$$GT$$GT$17h95a9626bbbb11b2dE
	.p2align	4, 0x90
_ZN4core3ptr112drop_in_place$LT$core..option..Option$LT$proc_macro2..rcvec..RcVecIntoIter$LT$proc_macro2..TokenTree$GT$$GT$$GT$17h95a9626bbbb11b2dE:
.seh_proc _ZN4core3ptr112drop_in_place$LT$core..option..Option$LT$proc_macro2..rcvec..RcVecIntoIter$LT$proc_macro2..TokenTree$GT$$GT$$GT$17h95a9626bbbb11b2dE
	subq	$40, %rsp
	.seh_stackalloc 40
	.seh_endprologue
	movq	%rcx, 32(%rsp)
	movq	(%rcx), %rdx
	movl	$1, %eax
	xorl	%ecx, %ecx
	cmpq	$0, %rdx
	cmoveq	%rcx, %rax
	cmpq	$0, %rax
	jne	.LBB66_2
.LBB66_1:
	addq	$40, %rsp
	retq
.LBB66_2:
	movq	32(%rsp), %rcx
	callq	_ZN4core3ptr84drop_in_place$LT$proc_macro2..rcvec..RcVecIntoIter$LT$proc_macro2..TokenTree$GT$$GT$17h04c9fe2375bdc03aE
	jmp	.LBB66_1
	.seh_endproc

	.def	_ZN4core3ptr131drop_in_place$LT$alloc..rc..Rc$LT$core..mem..maybe_uninit..MaybeUninit$LT$alloc..vec..Vec$LT$proc_macro2..TokenTree$GT$$GT$$GT$$GT$17h5b39cf1de8ba5195E;
	.scl	2;
	.type	32;
	.endef
	.section	.text,"xr",one_only,_ZN4core3ptr131drop_in_place$LT$alloc..rc..Rc$LT$core..mem..maybe_uninit..MaybeUninit$LT$alloc..vec..Vec$LT$proc_macro2..TokenTree$GT$$GT$$GT$$GT$17h5b39cf1de8ba5195E
	.globl	_ZN4core3ptr131drop_in_place$LT$alloc..rc..Rc$LT$core..mem..maybe_uninit..MaybeUninit$LT$alloc..vec..Vec$LT$proc_macro2..TokenTree$GT$$GT$$GT$$GT$17h5b39cf1de8ba5195E
	.p2align	4, 0x90
_ZN4core3ptr131drop_in_place$LT$alloc..rc..Rc$LT$core..mem..maybe_uninit..MaybeUninit$LT$alloc..vec..Vec$LT$proc_macro2..TokenTree$GT$$GT$$GT$$GT$17h5b39cf1de8ba5195E:
.seh_proc _ZN4core3ptr131drop_in_place$LT$alloc..rc..Rc$LT$core..mem..maybe_uninit..MaybeUninit$LT$alloc..vec..Vec$LT$proc_macro2..TokenTree$GT$$GT$$GT$$GT$17h5b39cf1de8ba5195E
	subq	$40, %rsp
	.seh_stackalloc 40
	.seh_endprologue
	callq	_ZN68_$LT$alloc..rc..Rc$LT$T$C$A$GT$$u20$as$u20$core..ops..drop..Drop$GT$4drop17hcf30487dc67d02f6E
	nop
	addq	$40, %rsp
	retq
	.seh_endproc

	.def	_ZN4core3ptr152drop_in_place$LT$core..iter..adapters..map..Map$LT$proc_macro2..token_stream..IntoIter$C$quote..spanned..join_spans..$u7b$$u7b$closure$u7d$$u7d$$GT$$GT$17h73d277cbe830161fE;
	.scl	2;
	.type	32;
	.endef
	.section	.text,"xr",one_only,_ZN4core3ptr152drop_in_place$LT$core..iter..adapters..map..Map$LT$proc_macro2..token_stream..IntoIter$C$quote..spanned..join_spans..$u7b$$u7b$closure$u7d$$u7d$$GT$$GT$17h73d277cbe830161fE
	.globl	_ZN4core3ptr152drop_in_place$LT$core..iter..adapters..map..Map$LT$proc_macro2..token_stream..IntoIter$C$quote..spanned..join_spans..$u7b$$u7b$closure$u7d$$u7d$$GT$$GT$17h73d277cbe830161fE
	.p2align	4, 0x90
_ZN4core3ptr152drop_in_place$LT$core..iter..adapters..map..Map$LT$proc_macro2..token_stream..IntoIter$C$quote..spanned..join_spans..$u7b$$u7b$closure$u7d$$u7d$$GT$$GT$17h73d277cbe830161fE:
.seh_proc _ZN4core3ptr152drop_in_place$LT$core..iter..adapters..map..Map$LT$proc_macro2..token_stream..IntoIter$C$quote..spanned..join_spans..$u7b$$u7b$closure$u7d$$u7d$$GT$$GT$17h73d277cbe830161fE
	subq	$40, %rsp
	.seh_stackalloc 40
	.seh_endprologue
	callq	_ZN4core3ptr56drop_in_place$LT$proc_macro2..token_stream..IntoIter$GT$17h3edd90e42a506b9eE
	nop
	addq	$40, %rsp
	retq
	.seh_endproc

	.def	_ZN4core3ptr157drop_in_place$LT$core..iter..adapters..map..Map$LT$proc_macro2..token_stream..IntoIter$C$quote..__private..parse_spanned..$u7b$$u7b$closure$u7d$$u7d$$GT$$GT$17h24ee1bc772e766c4E;
	.scl	2;
	.type	32;
	.endef
	.section	.text,"xr",one_only,_ZN4core3ptr157drop_in_place$LT$core..iter..adapters..map..Map$LT$proc_macro2..token_stream..IntoIter$C$quote..__private..parse_spanned..$u7b$$u7b$closure$u7d$$u7d$$GT$$GT$17h24ee1bc772e766c4E
	.globl	_ZN4core3ptr157drop_in_place$LT$core..iter..adapters..map..Map$LT$proc_macro2..token_stream..IntoIter$C$quote..__private..parse_spanned..$u7b$$u7b$closure$u7d$$u7d$$GT$$GT$17h24ee1bc772e766c4E
	.p2align	4, 0x90
_ZN4core3ptr157drop_in_place$LT$core..iter..adapters..map..Map$LT$proc_macro2..token_stream..IntoIter$C$quote..__private..parse_spanned..$u7b$$u7b$closure$u7d$$u7d$$GT$$GT$17h24ee1bc772e766c4E:
.seh_proc _ZN4core3ptr157drop_in_place$LT$core..iter..adapters..map..Map$LT$proc_macro2..token_stream..IntoIter$C$quote..__private..parse_spanned..$u7b$$u7b$closure$u7d$$u7d$$GT$$GT$17h24ee1bc772e766c4E
	subq	$40, %rsp
	.seh_stackalloc 40
	.seh_endprologue
	callq	_ZN4core3ptr56drop_in_place$LT$proc_macro2..token_stream..IntoIter$GT$17h3edd90e42a506b9eE
	nop
	addq	$40, %rsp
	retq
	.seh_endproc

	.def	_ZN4core3ptr161drop_in_place$LT$core..iter..adapters..map..Map$LT$proc_macro2..token_stream..IntoIter$C$quote..__private..respan_token_tree..$u7b$$u7b$closure$u7d$$u7d$$GT$$GT$17h271ad6f41fe1fce7E;
	.scl	2;
	.type	32;
	.endef
	.section	.text,"xr",one_only,_ZN4core3ptr161drop_in_place$LT$core..iter..adapters..map..Map$LT$proc_macro2..token_stream..IntoIter$C$quote..__private..respan_token_tree..$u7b$$u7b$closure$u7d$$u7d$$GT$$GT$17h271ad6f41fe1fce7E
	.globl	_ZN4core3ptr161drop_in_place$LT$core..iter..adapters..map..Map$LT$proc_macro2..token_stream..IntoIter$C$quote..__private..respan_token_tree..$u7b$$u7b$closure$u7d$$u7d$$GT$$GT$17h271ad6f41fe1fce7E
	.p2align	4, 0x90
_ZN4core3ptr161drop_in_place$LT$core..iter..adapters..map..Map$LT$proc_macro2..token_stream..IntoIter$C$quote..__private..respan_token_tree..$u7b$$u7b$closure$u7d$$u7d$$GT$$GT$17h271ad6f41fe1fce7E:
.seh_proc _ZN4core3ptr161drop_in_place$LT$core..iter..adapters..map..Map$LT$proc_macro2..token_stream..IntoIter$C$quote..__private..respan_token_tree..$u7b$$u7b$closure$u7d$$u7d$$GT$$GT$17h271ad6f41fe1fce7E
	subq	$40, %rsp
	.seh_stackalloc 40
	.seh_endprologue
	callq	_ZN4core3ptr56drop_in_place$LT$proc_macro2..token_stream..IntoIter$GT$17h3edd90e42a506b9eE
	nop
	addq	$40, %rsp
	retq
	.seh_endproc

	.def	_ZN4core3ptr239drop_in_place$LT$core..iter..adapters..map..Map$LT$core..iter..adapters..map..Map$LT$proc_macro2..token_stream..IntoIter$C$quote..__private..respan_token_tree..$u7b$$u7b$closure$u7d$$u7d$$GT$$C$proc_macro2..imp..into_compiler_token$GT$$GT$17h95c61f63d64263ddE;
	.scl	2;
	.type	32;
	.endef
	.section	.text,"xr",one_only,_ZN4core3ptr239drop_in_place$LT$core..iter..adapters..map..Map$LT$core..iter..adapters..map..Map$LT$proc_macro2..token_stream..IntoIter$C$quote..__private..respan_token_tree..$u7b$$u7b$closure$u7d$$u7d$$GT$$C$proc_macro2..imp..into_compiler_token$GT$$GT$17h95c61f63d64263ddE
	.globl	_ZN4core3ptr239drop_in_place$LT$core..iter..adapters..map..Map$LT$core..iter..adapters..map..Map$LT$proc_macro2..token_stream..IntoIter$C$quote..__private..respan_token_tree..$u7b$$u7b$closure$u7d$$u7d$$GT$$C$proc_macro2..imp..into_compiler_token$GT$$GT$17h95c61f63d64263ddE
	.p2align	4, 0x90
_ZN4core3ptr239drop_in_place$LT$core..iter..adapters..map..Map$LT$core..iter..adapters..map..Map$LT$proc_macro2..token_stream..IntoIter$C$quote..__private..respan_token_tree..$u7b$$u7b$closure$u7d$$u7d$$GT$$C$proc_macro2..imp..into_compiler_token$GT$$GT$17h95c61f63d64263ddE:
.seh_proc _ZN4core3ptr239drop_in_place$LT$core..iter..adapters..map..Map$LT$core..iter..adapters..map..Map$LT$proc_macro2..token_stream..IntoIter$C$quote..__private..respan_token_tree..$u7b$$u7b$closure$u7d$$u7d$$GT$$C$proc_macro2..imp..into_compiler_token$GT$$GT$17h95c61f63d64263ddE
	subq	$40, %rsp
	.seh_stackalloc 40
	.seh_endprologue
	callq	_ZN4core3ptr161drop_in_place$LT$core..iter..adapters..map..Map$LT$proc_macro2..token_stream..IntoIter$C$quote..__private..respan_token_tree..$u7b$$u7b$closure$u7d$$u7d$$GT$$GT$17h271ad6f41fe1fce7E
	nop
	addq	$40, %rsp
	retq
	.seh_endproc

	.def	_ZN4core3ptr344drop_in_place$LT$core..iter..adapters..map..Map$LT$core..iter..sources..once..Once$LT$proc_macro2..TokenStream$GT$$C$$LT$proc_macro2..TokenStream$u20$as$u20$core..iter..traits..collect..Extend$LT$proc_macro2..TokenStream$GT$$GT$..extend$LT$core..iter..sources..once..Once$LT$proc_macro2..TokenStream$GT$$GT$..$u7b$$u7b$closure$u7d$$u7d$$GT$$GT$17hd6dfb8c604f8dc45E;
	.scl	2;
	.type	32;
	.endef
	.section	.text,"xr",one_only,_ZN4core3ptr344drop_in_place$LT$core..iter..adapters..map..Map$LT$core..iter..sources..once..Once$LT$proc_macro2..TokenStream$GT$$C$$LT$proc_macro2..TokenStream$u20$as$u20$core..iter..traits..collect..Extend$LT$proc_macro2..TokenStream$GT$$GT$..extend$LT$core..iter..sources..once..Once$LT$proc_macro2..TokenStream$GT$$GT$..$u7b$$u7b$closure$u7d$$u7d$$GT$$GT$17hd6dfb8c604f8dc45E
	.globl	_ZN4core3ptr344drop_in_place$LT$core..iter..adapters..map..Map$LT$core..iter..sources..once..Once$LT$proc_macro2..TokenStream$GT$$C$$LT$proc_macro2..TokenStream$u20$as$u20$core..iter..traits..collect..Extend$LT$proc_macro2..TokenStream$GT$$GT$..extend$LT$core..iter..sources..once..Once$LT$proc_macro2..TokenStream$GT$$GT$..$u7b$$u7b$closure$u7d$$u7d$$GT$$GT$17hd6dfb8c604f8dc45E
	.p2align	4, 0x90
_ZN4core3ptr344drop_in_place$LT$core..iter..adapters..map..Map$LT$core..iter..sources..once..Once$LT$proc_macro2..TokenStream$GT$$C$$LT$proc_macro2..TokenStream$u20$as$u20$core..iter..traits..collect..Extend$LT$proc_macro2..TokenStream$GT$$GT$..extend$LT$core..iter..sources..once..Once$LT$proc_macro2..TokenStream$GT$$GT$..$u7b$$u7b$closure$u7d$$u7d$$GT$$GT$17hd6dfb8c604f8dc45E:
.seh_proc _ZN4core3ptr344drop_in_place$LT$core..iter..adapters..map..Map$LT$core..iter..sources..once..Once$LT$proc_macro2..TokenStream$GT$$C$$LT$proc_macro2..TokenStream$u20$as$u20$core..iter..traits..collect..Extend$LT$proc_macro2..TokenStream$GT$$GT$..extend$LT$core..iter..sources..once..Once$LT$proc_macro2..TokenStream$GT$$GT$..$u7b$$u7b$closure$u7d$$u7d$$GT$$GT$17hd6dfb8c604f8dc45E
	subq	$40, %rsp
	.seh_stackalloc 40
	.seh_endprologue
	callq	_ZN4core3ptr84drop_in_place$LT$core..iter..sources..once..Once$LT$proc_macro2..TokenStream$GT$$GT$17hf84792b1aecb1529E
	nop
	addq	$40, %rsp
	retq
	.seh_endproc

	.def	_ZN4core3ptr429drop_in_place$LT$core..iter..adapters..map..Map$LT$core..iter..adapters..map..Map$LT$core..iter..sources..once..Once$LT$proc_macro2..TokenStream$GT$$C$$LT$proc_macro2..TokenStream$u20$as$u20$core..iter..traits..collect..Extend$LT$proc_macro2..TokenStream$GT$$GT$..extend$LT$core..iter..sources..once..Once$LT$proc_macro2..TokenStream$GT$$GT$..$u7b$$u7b$closure$u7d$$u7d$$GT$$C$proc_macro2..imp..TokenStream..unwrap_stable$GT$$GT$17h061047efe3727134E;
	.scl	2;
	.type	32;
	.endef
	.section	.text,"xr",one_only,_ZN4core3ptr429drop_in_place$LT$core..iter..adapters..map..Map$LT$core..iter..adapters..map..Map$LT$core..iter..sources..once..Once$LT$proc_macro2..TokenStream$GT$$C$$LT$proc_macro2..TokenStream$u20$as$u20$core..iter..traits..collect..Extend$LT$proc_macro2..TokenStream$GT$$GT$..extend$LT$core..iter..sources..once..Once$LT$proc_macro2..TokenStream$GT$$GT$..$u7b$$u7b$closure$u7d$$u7d$$GT$$C$proc_macro2..imp..TokenStream..unwrap_stable$GT$$GT$17h061047efe3727134E
	.globl	_ZN4core3ptr429drop_in_place$LT$core..iter..adapters..map..Map$LT$core..iter..adapters..map..Map$LT$core..iter..sources..once..Once$LT$proc_macro2..TokenStream$GT$$C$$LT$proc_macro2..TokenStream$u20$as$u20$core..iter..traits..collect..Extend$LT$proc_macro2..TokenStream$GT$$GT$..extend$LT$core..iter..sources..once..Once$LT$proc_macro2..TokenStream$GT$$GT$..$u7b$$u7b$closure$u7d$$u7d$$GT$$C$proc_macro2..imp..TokenStream..unwrap_stable$GT$$GT$17h061047efe3727134E
	.p2align	4, 0x90
_ZN4core3ptr429drop_in_place$LT$core..iter..adapters..map..Map$LT$core..iter..adapters..map..Map$LT$core..iter..sources..once..Once$LT$proc_macro2..TokenStream$GT$$C$$LT$proc_macro2..TokenStream$u20$as$u20$core..iter..traits..collect..Extend$LT$proc_macro2..TokenStream$GT$$GT$..extend$LT$core..iter..sources..once..Once$LT$proc_macro2..TokenStream$GT$$GT$..$u7b$$u7b$closure$u7d$$u7d$$GT$$C$proc_macro2..imp..TokenStream..unwrap_stable$GT$$GT$17h061047efe3727134E:
.seh_proc _ZN4core3ptr429drop_in_place$LT$core..iter..adapters..map..Map$LT$core..iter..adapters..map..Map$LT$core..iter..sources..once..Once$LT$proc_macro2..TokenStream$GT$$C$$LT$proc_macro2..TokenStream$u20$as$u20$core..iter..traits..collect..Extend$LT$proc_macro2..TokenStream$GT$$GT$..extend$LT$core..iter..sources..once..Once$LT$proc_macro2..TokenStream$GT$$GT$..$u7b$$u7b$closure$u7d$$u7d$$GT$$C$proc_macro2..imp..TokenStream..unwrap_stable$GT$$GT$17h061047efe3727134E
	subq	$40, %rsp
	.seh_stackalloc 40
	.seh_endprologue
	callq	_ZN4core3ptr344drop_in_place$LT$core..iter..adapters..map..Map$LT$core..iter..sources..once..Once$LT$proc_macro2..TokenStream$GT$$C$$LT$proc_macro2..TokenStream$u20$as$u20$core..iter..traits..collect..Extend$LT$proc_macro2..TokenStream$GT$$GT$..extend$LT$core..iter..sources..once..Once$LT$proc_macro2..TokenStream$GT$$GT$..$u7b$$u7b$closure$u7d$$u7d$$GT$$GT$17hd6dfb8c604f8dc45E
	nop
	addq	$40, %rsp
	retq
	.seh_endproc

	.def	_ZN4core3ptr42drop_in_place$LT$proc_macro2..LexError$GT$17h8408b12f77900d16E;
	.scl	3;
	.type	32;
	.endef
	.section	.text,"xr",one_only,_ZN4core3ptr42drop_in_place$LT$proc_macro2..LexError$GT$17h8408b12f77900d16E
	.p2align	4, 0x90
_ZN4core3ptr42drop_in_place$LT$proc_macro2..LexError$GT$17h8408b12f77900d16E:
	retq

	.def	_ZN4core3ptr430drop_in_place$LT$core..iter..adapters..map..Map$LT$core..iter..adapters..map..Map$LT$core..iter..sources..once..Once$LT$proc_macro2..TokenStream$GT$$C$$LT$proc_macro2..TokenStream$u20$as$u20$core..iter..traits..collect..Extend$LT$proc_macro2..TokenStream$GT$$GT$..extend$LT$core..iter..sources..once..Once$LT$proc_macro2..TokenStream$GT$$GT$..$u7b$$u7b$closure$u7d$$u7d$$GT$$C$proc_macro2..imp..TokenStream..unwrap_nightly$GT$$GT$17hf79d20ab3f945dc9E;
	.scl	2;
	.type	32;
	.endef
	.section	.text,"xr",one_only,_ZN4core3ptr430drop_in_place$LT$core..iter..adapters..map..Map$LT$core..iter..adapters..map..Map$LT$core..iter..sources..once..Once$LT$proc_macro2..TokenStream$GT$$C$$LT$proc_macro2..TokenStream$u20$as$u20$core..iter..traits..collect..Extend$LT$proc_macro2..TokenStream$GT$$GT$..extend$LT$core..iter..sources..once..Once$LT$proc_macro2..TokenStream$GT$$GT$..$u7b$$u7b$closure$u7d$$u7d$$GT$$C$proc_macro2..imp..TokenStream..unwrap_nightly$GT$$GT$17hf79d20ab3f945dc9E
	.globl	_ZN4core3ptr430drop_in_place$LT$core..iter..adapters..map..Map$LT$core..iter..adapters..map..Map$LT$core..iter..sources..once..Once$LT$proc_macro2..TokenStream$GT$$C$$LT$proc_macro2..TokenStream$u20$as$u20$core..iter..traits..collect..Extend$LT$proc_macro2..TokenStream$GT$$GT$..extend$LT$core..iter..sources..once..Once$LT$proc_macro2..TokenStream$GT$$GT$..$u7b$$u7b$closure$u7d$$u7d$$GT$$C$proc_macro2..imp..TokenStream..unwrap_nightly$GT$$GT$17hf79d20ab3f945dc9E
	.p2align	4, 0x90
_ZN4core3ptr430drop_in_place$LT$core..iter..adapters..map..Map$LT$core..iter..adapters..map..Map$LT$core..iter..sources..once..Once$LT$proc_macro2..TokenStream$GT$$C$$LT$proc_macro2..TokenStream$u20$as$u20$core..iter..traits..collect..Extend$LT$proc_macro2..TokenStream$GT$$GT$..extend$LT$core..iter..sources..once..Once$LT$proc_macro2..TokenStream$GT$$GT$..$u7b$$u7b$closure$u7d$$u7d$$GT$$C$proc_macro2..imp..TokenStream..unwrap_nightly$GT$$GT$17hf79d20ab3f945dc9E:
.seh_proc _ZN4core3ptr430drop_in_place$LT$core..iter..adapters..map..Map$LT$core..iter..adapters..map..Map$LT$core..iter..sources..once..Once$LT$proc_macro2..TokenStream$GT$$C$$LT$proc_macro2..TokenStream$u20$as$u20$core..iter..traits..collect..Extend$LT$proc_macro2..TokenStream$GT$$GT$..extend$LT$core..iter..sources..once..Once$LT$proc_macro2..TokenStream$GT$$GT$..$u7b$$u7b$closure$u7d$$u7d$$GT$$C$proc_macro2..imp..TokenStream..unwrap_nightly$GT$$GT$17hf79d20ab3f945dc9E
	subq	$40, %rsp
	.seh_stackalloc 40
	.seh_endprologue
	callq	_ZN4core3ptr344drop_in_place$LT$core..iter..adapters..map..Map$LT$core..iter..sources..once..Once$LT$proc_macro2..TokenStream$GT$$C$$LT$proc_macro2..TokenStream$u20$as$u20$core..iter..traits..collect..Extend$LT$proc_macro2..TokenStream$GT$$GT$..extend$LT$core..iter..sources..once..Once$LT$proc_macro2..TokenStream$GT$$GT$..$u7b$$u7b$closure$u7d$$u7d$$GT$$GT$17hd6dfb8c604f8dc45E
	nop
	addq	$40, %rsp
	retq
	.seh_endproc

	.def	_ZN4core3ptr457drop_in_place$LT$core..option..Option$LT$core..iter..adapters..map..Map$LT$core..iter..adapters..map..Map$LT$core..iter..sources..once..Once$LT$proc_macro2..TokenStream$GT$$C$$LT$proc_macro2..TokenStream$u20$as$u20$core..iter..traits..collect..Extend$LT$proc_macro2..TokenStream$GT$$GT$..extend$LT$core..iter..sources..once..Once$LT$proc_macro2..TokenStream$GT$$GT$..$u7b$$u7b$closure$u7d$$u7d$$GT$$C$proc_macro2..imp..TokenStream..unwrap_stable$GT$$GT$$GT$17h8cbaa58fab2f7999E;
	.scl	2;
	.type	32;
	.endef
	.section	.text,"xr",one_only,_ZN4core3ptr457drop_in_place$LT$core..option..Option$LT$core..iter..adapters..map..Map$LT$core..iter..adapters..map..Map$LT$core..iter..sources..once..Once$LT$proc_macro2..TokenStream$GT$$C$$LT$proc_macro2..TokenStream$u20$as$u20$core..iter..traits..collect..Extend$LT$proc_macro2..TokenStream$GT$$GT$..extend$LT$core..iter..sources..once..Once$LT$proc_macro2..TokenStream$GT$$GT$..$u7b$$u7b$closure$u7d$$u7d$$GT$$C$proc_macro2..imp..TokenStream..unwrap_stable$GT$$GT$$GT$17h8cbaa58fab2f7999E
	.globl	_ZN4core3ptr457drop_in_place$LT$core..option..Option$LT$core..iter..adapters..map..Map$LT$core..iter..adapters..map..Map$LT$core..iter..sources..once..Once$LT$proc_macro2..TokenStream$GT$$C$$LT$proc_macro2..TokenStream$u20$as$u20$core..iter..traits..collect..Extend$LT$proc_macro2..TokenStream$GT$$GT$..extend$LT$core..iter..sources..once..Once$LT$proc_macro2..TokenStream$GT$$GT$..$u7b$$u7b$closure$u7d$$u7d$$GT$$C$proc_macro2..imp..TokenStream..unwrap_stable$GT$$GT$$GT$17h8cbaa58fab2f7999E
	.p2align	4, 0x90
_ZN4core3ptr457drop_in_place$LT$core..option..Option$LT$core..iter..adapters..map..Map$LT$core..iter..adapters..map..Map$LT$core..iter..sources..once..Once$LT$proc_macro2..TokenStream$GT$$C$$LT$proc_macro2..TokenStream$u20$as$u20$core..iter..traits..collect..Extend$LT$proc_macro2..TokenStream$GT$$GT$..extend$LT$core..iter..sources..once..Once$LT$proc_macro2..TokenStream$GT$$GT$..$u7b$$u7b$closure$u7d$$u7d$$GT$$C$proc_macro2..imp..TokenStream..unwrap_stable$GT$$GT$$GT$17h8cbaa58fab2f7999E:
.seh_proc _ZN4core3ptr457drop_in_place$LT$core..option..Option$LT$core..iter..adapters..map..Map$LT$core..iter..adapters..map..Map$LT$core..iter..sources..once..Once$LT$proc_macro2..TokenStream$GT$$C$$LT$proc_macro2..TokenStream$u20$as$u20$core..iter..traits..collect..Extend$LT$proc_macro2..TokenStream$GT$$GT$..extend$LT$core..iter..sources..once..Once$LT$proc_macro2..TokenStream$GT$$GT$..$u7b$$u7b$closure$u7d$$u7d$$GT$$C$proc_macro2..imp..TokenStream..unwrap_stable$GT$$GT$$GT$17h8cbaa58fab2f7999E
	subq	$40, %rsp
	.seh_stackalloc 40
	.seh_endprologue
	movq	%rcx, %rdx
	movq	%rdx, 32(%rsp)
	movabsq	$-9223372036854775806, %r8
	movl	$1, %eax
	xorl	%ecx, %ecx
	cmpq	%r8, (%rdx)
	cmoveq	%rcx, %rax
	cmpq	$0, %rax
	jne	.LBB76_2
.LBB76_1:
	addq	$40, %rsp
	retq
.LBB76_2:
	movq	32(%rsp), %rcx
	callq	_ZN4core3ptr429drop_in_place$LT$core..iter..adapters..map..Map$LT$core..iter..adapters..map..Map$LT$core..iter..sources..once..Once$LT$proc_macro2..TokenStream$GT$$C$$LT$proc_macro2..TokenStream$u20$as$u20$core..iter..traits..collect..Extend$LT$proc_macro2..TokenStream$GT$$GT$..extend$LT$core..iter..sources..once..Once$LT$proc_macro2..TokenStream$GT$$GT$..$u7b$$u7b$closure$u7d$$u7d$$GT$$C$proc_macro2..imp..TokenStream..unwrap_stable$GT$$GT$17h061047efe3727134E
	jmp	.LBB76_1
	.seh_endproc

	.def	_ZN4core3ptr45drop_in_place$LT$proc_macro2..TokenStream$GT$17h76151ee8af67e01cE;
	.scl	2;
	.type	32;
	.endef
	.section	.text,"xr",one_only,_ZN4core3ptr45drop_in_place$LT$proc_macro2..TokenStream$GT$17h76151ee8af67e01cE
	.globl	_ZN4core3ptr45drop_in_place$LT$proc_macro2..TokenStream$GT$17h76151ee8af67e01cE
	.p2align	4, 0x90
_ZN4core3ptr45drop_in_place$LT$proc_macro2..TokenStream$GT$17h76151ee8af67e01cE:
.seh_proc _ZN4core3ptr45drop_in_place$LT$proc_macro2..TokenStream$GT$17h76151ee8af67e01cE
	subq	$40, %rsp
	.seh_stackalloc 40
	.seh_endprologue
	callq	_ZN4core3ptr50drop_in_place$LT$proc_macro2..imp..TokenStream$GT$17h6aa217c835937a0aE
	nop
	addq	$40, %rsp
	retq
	.seh_endproc

	.def	_ZN4core3ptr469drop_in_place$LT$core..iter..adapters..fuse..Fuse$LT$core..iter..adapters..map..Map$LT$core..iter..adapters..map..Map$LT$core..iter..sources..once..Once$LT$proc_macro2..TokenStream$GT$$C$$LT$proc_macro2..TokenStream$u20$as$u20$core..iter..traits..collect..Extend$LT$proc_macro2..TokenStream$GT$$GT$..extend$LT$core..iter..sources..once..Once$LT$proc_macro2..TokenStream$GT$$GT$..$u7b$$u7b$closure$u7d$$u7d$$GT$$C$proc_macro2..imp..TokenStream..unwrap_stable$GT$$GT$$GT$17hecd70d433a0ed630E;
	.scl	2;
	.type	32;
	.endef
	.section	.text,"xr",one_only,_ZN4core3ptr469drop_in_place$LT$core..iter..adapters..fuse..Fuse$LT$core..iter..adapters..map..Map$LT$core..iter..adapters..map..Map$LT$core..iter..sources..once..Once$LT$proc_macro2..TokenStream$GT$$C$$LT$proc_macro2..TokenStream$u20$as$u20$core..iter..traits..collect..Extend$LT$proc_macro2..TokenStream$GT$$GT$..extend$LT$core..iter..sources..once..Once$LT$proc_macro2..TokenStream$GT$$GT$..$u7b$$u7b$closure$u7d$$u7d$$GT$$C$proc_macro2..imp..TokenStream..unwrap_stable$GT$$GT$$GT$17hecd70d433a0ed630E
	.globl	_ZN4core3ptr469drop_in_place$LT$core..iter..adapters..fuse..Fuse$LT$core..iter..adapters..map..Map$LT$core..iter..adapters..map..Map$LT$core..iter..sources..once..Once$LT$proc_macro2..TokenStream$GT$$C$$LT$proc_macro2..TokenStream$u20$as$u20$core..iter..traits..collect..Extend$LT$proc_macro2..TokenStream$GT$$GT$..extend$LT$core..iter..sources..once..Once$LT$proc_macro2..TokenStream$GT$$GT$..$u7b$$u7b$closure$u7d$$u7d$$GT$$C$proc_macro2..imp..TokenStream..unwrap_stable$GT$$GT$$GT$17hecd70d433a0ed630E
	.p2align	4, 0x90
_ZN4core3ptr469drop_in_place$LT$core..iter..adapters..fuse..Fuse$LT$core..iter..adapters..map..Map$LT$core..iter..adapters..map..Map$LT$core..iter..sources..once..Once$LT$proc_macro2..TokenStream$GT$$C$$LT$proc_macro2..TokenStream$u20$as$u20$core..iter..traits..collect..Extend$LT$proc_macro2..TokenStream$GT$$GT$..extend$LT$core..iter..sources..once..Once$LT$proc_macro2..TokenStream$GT$$GT$..$u7b$$u7b$closure$u7d$$u7d$$GT$$C$proc_macro2..imp..TokenStream..unwrap_stable$GT$$GT$$GT$17hecd70d433a0ed630E:
.seh_proc _ZN4core3ptr469drop_in_place$LT$core..iter..adapters..fuse..Fuse$LT$core..iter..adapters..map..Map$LT$core..iter..adapters..map..Map$LT$core..iter..sources..once..Once$LT$proc_macro2..TokenStream$GT$$C$$LT$proc_macro2..TokenStream$u20$as$u20$core..iter..traits..collect..Extend$LT$proc_macro2..TokenStream$GT$$GT$..extend$LT$core..iter..sources..once..Once$LT$proc_macro2..TokenStream$GT$$GT$..$u7b$$u7b$closure$u7d$$u7d$$GT$$C$proc_macro2..imp..TokenStream..unwrap_stable$GT$$GT$$GT$17hecd70d433a0ed630E
	subq	$40, %rsp
	.seh_stackalloc 40
	.seh_endprologue
	callq	_ZN4core3ptr457drop_in_place$LT$core..option..Option$LT$core..iter..adapters..map..Map$LT$core..iter..adapters..map..Map$LT$core..iter..sources..once..Once$LT$proc_macro2..TokenStream$GT$$C$$LT$proc_macro2..TokenStream$u20$as$u20$core..iter..traits..collect..Extend$LT$proc_macro2..TokenStream$GT$$GT$..extend$LT$core..iter..sources..once..Once$LT$proc_macro2..TokenStream$GT$$GT$..$u7b$$u7b$closure$u7d$$u7d$$GT$$C$proc_macro2..imp..TokenStream..unwrap_stable$GT$$GT$$GT$17h8cbaa58fab2f7999E
	nop
	addq	$40, %rsp
	retq
	.seh_endproc

	.def	_ZN4core3ptr475drop_in_place$LT$core..iter..adapters..flatten..Flatten$LT$core..iter..adapters..map..Map$LT$core..iter..adapters..map..Map$LT$core..iter..sources..once..Once$LT$proc_macro2..TokenStream$GT$$C$$LT$proc_macro2..TokenStream$u20$as$u20$core..iter..traits..collect..Extend$LT$proc_macro2..TokenStream$GT$$GT$..extend$LT$core..iter..sources..once..Once$LT$proc_macro2..TokenStream$GT$$GT$..$u7b$$u7b$closure$u7d$$u7d$$GT$$C$proc_macro2..imp..TokenStream..unwrap_stable$GT$$GT$$GT$17he62937c5493f6992E;
	.scl	2;
	.type	32;
	.endef
	.section	.text,"xr",one_only,_ZN4core3ptr475drop_in_place$LT$core..iter..adapters..flatten..Flatten$LT$core..iter..adapters..map..Map$LT$core..iter..adapters..map..Map$LT$core..iter..sources..once..Once$LT$proc_macro2..TokenStream$GT$$C$$LT$proc_macro2..TokenStream$u20$as$u20$core..iter..traits..collect..Extend$LT$proc_macro2..TokenStream$GT$$GT$..extend$LT$core..iter..sources..once..Once$LT$proc_macro2..TokenStream$GT$$GT$..$u7b$$u7b$closure$u7d$$u7d$$GT$$C$proc_macro2..imp..TokenStream..unwrap_stable$GT$$GT$$GT$17he62937c5493f6992E
	.globl	_ZN4core3ptr475drop_in_place$LT$core..iter..adapters..flatten..Flatten$LT$core..iter..adapters..map..Map$LT$core..iter..adapters..map..Map$LT$core..iter..sources..once..Once$LT$proc_macro2..TokenStream$GT$$C$$LT$proc_macro2..TokenStream$u20$as$u20$core..iter..traits..collect..Extend$LT$proc_macro2..TokenStream$GT$$GT$..extend$LT$core..iter..sources..once..Once$LT$proc_macro2..TokenStream$GT$$GT$..$u7b$$u7b$closure$u7d$$u7d$$GT$$C$proc_macro2..imp..TokenStream..unwrap_stable$GT$$GT$$GT$17he62937c5493f6992E
	.p2align	4, 0x90
_ZN4core3ptr475drop_in_place$LT$core..iter..adapters..flatten..Flatten$LT$core..iter..adapters..map..Map$LT$core..iter..adapters..map..Map$LT$core..iter..sources..once..Once$LT$proc_macro2..TokenStream$GT$$C$$LT$proc_macro2..TokenStream$u20$as$u20$core..iter..traits..collect..Extend$LT$proc_macro2..TokenStream$GT$$GT$..extend$LT$core..iter..sources..once..Once$LT$proc_macro2..TokenStream$GT$$GT$..$u7b$$u7b$closure$u7d$$u7d$$GT$$C$proc_macro2..imp..TokenStream..unwrap_stable$GT$$GT$$GT$17he62937c5493f6992E:
.seh_proc _ZN4core3ptr475drop_in_place$LT$core..iter..adapters..flatten..Flatten$LT$core..iter..adapters..map..Map$LT$core..iter..adapters..map..Map$LT$core..iter..sources..once..Once$LT$proc_macro2..TokenStream$GT$$C$$LT$proc_macro2..TokenStream$u20$as$u20$core..iter..traits..collect..Extend$LT$proc_macro2..TokenStream$GT$$GT$..extend$LT$core..iter..sources..once..Once$LT$proc_macro2..TokenStream$GT$$GT$..$u7b$$u7b$closure$u7d$$u7d$$GT$$C$proc_macro2..imp..TokenStream..unwrap_stable$GT$$GT$$GT$17he62937c5493f6992E
	subq	$40, %rsp
	.seh_stackalloc 40
	.seh_endprologue
	callq	_ZN4core3ptr547drop_in_place$LT$core..iter..adapters..flatten..FlattenCompat$LT$core..iter..adapters..map..Map$LT$core..iter..adapters..map..Map$LT$core..iter..sources..once..Once$LT$proc_macro2..TokenStream$GT$$C$$LT$proc_macro2..TokenStream$u20$as$u20$core..iter..traits..collect..Extend$LT$proc_macro2..TokenStream$GT$$GT$..extend$LT$core..iter..sources..once..Once$LT$proc_macro2..TokenStream$GT$$GT$..$u7b$$u7b$closure$u7d$$u7d$$GT$$C$proc_macro2..imp..TokenStream..unwrap_stable$GT$$C$proc_macro2..rcvec..RcVecIntoIter$LT$proc_macro2..TokenTree$GT$$GT$$GT$17hca697ada78dfeca5E
	nop
	addq	$40, %rsp
	retq
	.seh_endproc

	.def	_ZN4core3ptr52drop_in_place$LT$proc_macro..ConcatStreamsHelper$GT$17h4a6ca0351d9b5425E;
	.scl	2;
	.type	32;
	.endef
	.section	.text,"xr",one_only,_ZN4core3ptr52drop_in_place$LT$proc_macro..ConcatStreamsHelper$GT$17h4a6ca0351d9b5425E
	.globl	_ZN4core3ptr52drop_in_place$LT$proc_macro..ConcatStreamsHelper$GT$17h4a6ca0351d9b5425E
	.p2align	4, 0x90
_ZN4core3ptr52drop_in_place$LT$proc_macro..ConcatStreamsHelper$GT$17h4a6ca0351d9b5425E:
.seh_proc _ZN4core3ptr52drop_in_place$LT$proc_macro..ConcatStreamsHelper$GT$17h4a6ca0351d9b5425E
	subq	$40, %rsp
	.seh_stackalloc 40
	.seh_endprologue
	callq	_ZN4core3ptr83drop_in_place$LT$alloc..vec..Vec$LT$proc_macro..bridge..client..TokenStream$GT$$GT$17h411d1e63f159e924E
	nop
	addq	$40, %rsp
	retq
	.seh_endproc

	.def	_ZN4core3ptr547drop_in_place$LT$core..iter..adapters..flatten..FlattenCompat$LT$core..iter..adapters..map..Map$LT$core..iter..adapters..map..Map$LT$core..iter..sources..once..Once$LT$proc_macro2..TokenStream$GT$$C$$LT$proc_macro2..TokenStream$u20$as$u20$core..iter..traits..collect..Extend$LT$proc_macro2..TokenStream$GT$$GT$..extend$LT$core..iter..sources..once..Once$LT$proc_macro2..TokenStream$GT$$GT$..$u7b$$u7b$closure$u7d$$u7d$$GT$$C$proc_macro2..imp..TokenStream..unwrap_stable$GT$$C$proc_macro2..rcvec..RcVecIntoIter$LT$proc_macro2..TokenTree$GT$$GT$$GT$17hca697ada78dfeca5E;
	.scl	2;
	.type	32;
	.endef
	.section	.text,"xr",one_only,_ZN4core3ptr547drop_in_place$LT$core..iter..adapters..flatten..FlattenCompat$LT$core..iter..adapters..map..Map$LT$core..iter..adapters..map..Map$LT$core..iter..sources..once..Once$LT$proc_macro2..TokenStream$GT$$C$$LT$proc_macro2..TokenStream$u20$as$u20$core..iter..traits..collect..Extend$LT$proc_macro2..TokenStream$GT$$GT$..extend$LT$core..iter..sources..once..Once$LT$proc_macro2..TokenStream$GT$$GT$..$u7b$$u7b$closure$u7d$$u7d$$GT$$C$proc_macro2..imp..TokenStream..unwrap_stable$GT$$C$proc_macro2..rcvec..RcVecIntoIter$LT$proc_macro2..TokenTree$GT$$GT$$GT$17hca697ada78dfeca5E
	.globl	_ZN4core3ptr547drop_in_place$LT$core..iter..adapters..flatten..FlattenCompat$LT$core..iter..adapters..map..Map$LT$core..iter..adapters..map..Map$LT$core..iter..sources..once..Once$LT$proc_macro2..TokenStream$GT$$C$$LT$proc_macro2..TokenStream$u20$as$u20$core..iter..traits..collect..Extend$LT$proc_macro2..TokenStream$GT$$GT$..extend$LT$core..iter..sources..once..Once$LT$proc_macro2..TokenStream$GT$$GT$..$u7b$$u7b$closure$u7d$$u7d$$GT$$C$proc_macro2..imp..TokenStream..unwrap_stable$GT$$C$proc_macro2..rcvec..RcVecIntoIter$LT$proc_macro2..TokenTree$GT$$GT$$GT$17hca697ada78dfeca5E
	.p2align	4, 0x90
_ZN4core3ptr547drop_in_place$LT$core..iter..adapters..flatten..FlattenCompat$LT$core..iter..adapters..map..Map$LT$core..iter..adapters..map..Map$LT$core..iter..sources..once..Once$LT$proc_macro2..TokenStream$GT$$C$$LT$proc_macro2..TokenStream$u20$as$u20$core..iter..traits..collect..Extend$LT$proc_macro2..TokenStream$GT$$GT$..extend$LT$core..iter..sources..once..Once$LT$proc_macro2..TokenStream$GT$$GT$..$u7b$$u7b$closure$u7d$$u7d$$GT$$C$proc_macro2..imp..TokenStream..unwrap_stable$GT$$C$proc_macro2..rcvec..RcVecIntoIter$LT$proc_macro2..TokenTree$GT$$GT$$GT$17hca697ada78dfeca5E:
.Lfunc_begin28:
.seh_proc _ZN4core3ptr547drop_in_place$LT$core..iter..adapters..flatten..FlattenCompat$LT$core..iter..adapters..map..Map$LT$core..iter..adapters..map..Map$LT$core..iter..sources..once..Once$LT$proc_macro2..TokenStream$GT$$C$$LT$proc_macro2..TokenStream$u20$as$u20$core..iter..traits..collect..Extend$LT$proc_macro2..TokenStream$GT$$GT$..extend$LT$core..iter..sources..once..Once$LT$proc_macro2..TokenStream$GT$$GT$..$u7b$$u7b$closure$u7d$$u7d$$GT$$C$proc_macro2..imp..TokenStream..unwrap_stable$GT$$C$proc_macro2..rcvec..RcVecIntoIter$LT$proc_macro2..TokenTree$GT$$GT$$GT$17hca697ada78dfeca5E
	.seh_handler __CxxFrameHandler3, @unwind, @except
	pushq	%rbp
	.seh_pushreg %rbp
	subq	$48, %rsp
	.seh_stackalloc 48
	leaq	48(%rsp), %rbp
	.seh_setframe %rbp, 48
	.seh_endprologue
	movq	$-2, -8(%rbp)
	movq	%rcx, -16(%rbp)
.Ltmp146:
	callq	_ZN4core3ptr469drop_in_place$LT$core..iter..adapters..fuse..Fuse$LT$core..iter..adapters..map..Map$LT$core..iter..adapters..map..Map$LT$core..iter..sources..once..Once$LT$proc_macro2..TokenStream$GT$$C$$LT$proc_macro2..TokenStream$u20$as$u20$core..iter..traits..collect..Extend$LT$proc_macro2..TokenStream$GT$$GT$..extend$LT$core..iter..sources..once..Once$LT$proc_macro2..TokenStream$GT$$GT$..$u7b$$u7b$closure$u7d$$u7d$$GT$$C$proc_macro2..imp..TokenStream..unwrap_stable$GT$$GT$$GT$17hecd70d433a0ed630E
.Ltmp147:
	jmp	.LBB81_2
.LBB81_2:
	movq	-16(%rbp), %rcx
	addq	$32, %rcx
.Ltmp148:
	callq	_ZN4core3ptr112drop_in_place$LT$core..option..Option$LT$proc_macro2..rcvec..RcVecIntoIter$LT$proc_macro2..TokenTree$GT$$GT$$GT$17h95a9626bbbb11b2dE
.Ltmp149:
	jmp	.LBB81_4
.LBB81_4:
	movq	-16(%rbp), %rcx
	addq	$64, %rcx
	callq	_ZN4core3ptr112drop_in_place$LT$core..option..Option$LT$proc_macro2..rcvec..RcVecIntoIter$LT$proc_macro2..TokenTree$GT$$GT$$GT$17h95a9626bbbb11b2dE
	nop
	addq	$48, %rsp
	popq	%rbp
	retq
	.seh_handlerdata
	.long	($cppxdata$_ZN4core3ptr547drop_in_place$LT$core..iter..adapters..flatten..FlattenCompat$LT$core..iter..adapters..map..Map$LT$core..iter..adapters..map..Map$LT$core..iter..sources..once..Once$LT$proc_macro2..TokenStream$GT$$C$$LT$proc_macro2..TokenStream$u20$as$u20$core..iter..traits..collect..Extend$LT$proc_macro2..TokenStream$GT$$GT$..extend$LT$core..iter..sources..once..Once$LT$proc_macro2..TokenStream$GT$$GT$..$u7b$$u7b$closure$u7d$$u7d$$GT$$C$proc_macro2..imp..TokenStream..unwrap_stable$GT$$C$proc_macro2..rcvec..RcVecIntoIter$LT$proc_macro2..TokenTree$GT$$GT$$GT$17hca697ada78dfeca5E)@IMGREL
	.section	.text,"xr",one_only,_ZN4core3ptr547drop_in_place$LT$core..iter..adapters..flatten..FlattenCompat$LT$core..iter..adapters..map..Map$LT$core..iter..adapters..map..Map$LT$core..iter..sources..once..Once$LT$proc_macro2..TokenStream$GT$$C$$LT$proc_macro2..TokenStream$u20$as$u20$core..iter..traits..collect..Extend$LT$proc_macro2..TokenStream$GT$$GT$..extend$LT$core..iter..sources..once..Once$LT$proc_macro2..TokenStream$GT$$GT$..$u7b$$u7b$closure$u7d$$u7d$$GT$$C$proc_macro2..imp..TokenStream..unwrap_stable$GT$$C$proc_macro2..rcvec..RcVecIntoIter$LT$proc_macro2..TokenTree$GT$$GT$$GT$17hca697ada78dfeca5E
	.seh_endproc
	.def	"?dtor$1@?0?_ZN4core3ptr547drop_in_place$LT$core..iter..adapters..flatten..FlattenCompat$LT$core..iter..adapters..map..Map$LT$core..iter..adapters..map..Map$LT$core..iter..sources..once..Once$LT$proc_macro2..TokenStream$GT$$C$$LT$proc_macro2..TokenStream$u20$as$u20$core..iter..traits..collect..Extend$LT$proc_macro2..TokenStream$GT$$GT$..extend$LT$core..iter..sources..once..Once$LT$proc_macro2..TokenStream$GT$$GT$..$u7b$$u7b$closure$u7d$$u7d$$GT$$C$proc_macro2..imp..TokenStream..unwrap_stable$GT$$C$proc_macro2..rcvec..RcVecIntoIter$LT$proc_macro2..TokenTree$GT$$GT$$GT$17hca697ada78dfeca5E@4HA";
	.scl	3;
	.type	32;
	.endef
	.p2align	4, 0x90
"?dtor$1@?0?_ZN4core3ptr547drop_in_place$LT$core..iter..adapters..flatten..FlattenCompat$LT$core..iter..adapters..map..Map$LT$core..iter..adapters..map..Map$LT$core..iter..sources..once..Once$LT$proc_macro2..TokenStream$GT$$C$$LT$proc_macro2..TokenStream$u20$as$u20$core..iter..traits..collect..Extend$LT$proc_macro2..TokenStream$GT$$GT$..extend$LT$core..iter..sources..once..Once$LT$proc_macro2..TokenStream$GT$$GT$..$u7b$$u7b$closure$u7d$$u7d$$GT$$C$proc_macro2..imp..TokenStream..unwrap_stable$GT$$C$proc_macro2..rcvec..RcVecIntoIter$LT$proc_macro2..TokenTree$GT$$GT$$GT$17hca697ada78dfeca5E@4HA":
.seh_proc "?dtor$1@?0?_ZN4core3ptr547drop_in_place$LT$core..iter..adapters..flatten..FlattenCompat$LT$core..iter..adapters..map..Map$LT$core..iter..adapters..map..Map$LT$core..iter..sources..once..Once$LT$proc_macro2..TokenStream$GT$$C$$LT$proc_macro2..TokenStream$u20$as$u20$core..iter..traits..collect..Extend$LT$proc_macro2..TokenStream$GT$$GT$..extend$LT$core..iter..sources..once..Once$LT$proc_macro2..TokenStream$GT$$GT$..$u7b$$u7b$closure$u7d$$u7d$$GT$$C$proc_macro2..imp..TokenStream..unwrap_stable$GT$$C$proc_macro2..rcvec..RcVecIntoIter$LT$proc_macro2..TokenTree$GT$$GT$$GT$17hca697ada78dfeca5E@4HA"
.LBB81_1:
	movq	%rdx, 16(%rsp)
	pushq	%rbp
	.seh_pushreg %rbp
	subq	$32, %rsp
	.seh_stackalloc 32
	leaq	48(%rdx), %rbp
	.seh_endprologue
	movq	-16(%rbp), %rcx
	addq	$32, %rcx
	callq	_ZN4core3ptr112drop_in_place$LT$core..option..Option$LT$proc_macro2..rcvec..RcVecIntoIter$LT$proc_macro2..TokenTree$GT$$GT$$GT$17h95a9626bbbb11b2dE
	nop
	addq	$32, %rsp
	popq	%rbp
	retq
	.seh_handlerdata
	.section	.text,"xr",one_only,_ZN4core3ptr547drop_in_place$LT$core..iter..adapters..flatten..FlattenCompat$LT$core..iter..adapters..map..Map$LT$core..iter..adapters..map..Map$LT$core..iter..sources..once..Once$LT$proc_macro2..TokenStream$GT$$C$$LT$proc_macro2..TokenStream$u20$as$u20$core..iter..traits..collect..Extend$LT$proc_macro2..TokenStream$GT$$GT$..extend$LT$core..iter..sources..once..Once$LT$proc_macro2..TokenStream$GT$$GT$..$u7b$$u7b$closure$u7d$$u7d$$GT$$C$proc_macro2..imp..TokenStream..unwrap_stable$GT$$C$proc_macro2..rcvec..RcVecIntoIter$LT$proc_macro2..TokenTree$GT$$GT$$GT$17hca697ada78dfeca5E
	.seh_endproc
	.def	"?dtor$3@?0?_ZN4core3ptr547drop_in_place$LT$core..iter..adapters..flatten..FlattenCompat$LT$core..iter..adapters..map..Map$LT$core..iter..adapters..map..Map$LT$core..iter..sources..once..Once$LT$proc_macro2..TokenStream$GT$$C$$LT$proc_macro2..TokenStream$u20$as$u20$core..iter..traits..collect..Extend$LT$proc_macro2..TokenStream$GT$$GT$..extend$LT$core..iter..sources..once..Once$LT$proc_macro2..TokenStream$GT$$GT$..$u7b$$u7b$closure$u7d$$u7d$$GT$$C$proc_macro2..imp..TokenStream..unwrap_stable$GT$$C$proc_macro2..rcvec..RcVecIntoIter$LT$proc_macro2..TokenTree$GT$$GT$$GT$17hca697ada78dfeca5E@4HA";
	.scl	3;
	.type	32;
	.endef
	.p2align	4, 0x90
"?dtor$3@?0?_ZN4core3ptr547drop_in_place$LT$core..iter..adapters..flatten..FlattenCompat$LT$core..iter..adapters..map..Map$LT$core..iter..adapters..map..Map$LT$core..iter..sources..once..Once$LT$proc_macro2..TokenStream$GT$$C$$LT$proc_macro2..TokenStream$u20$as$u20$core..iter..traits..collect..Extend$LT$proc_macro2..TokenStream$GT$$GT$..extend$LT$core..iter..sources..once..Once$LT$proc_macro2..TokenStream$GT$$GT$..$u7b$$u7b$closure$u7d$$u7d$$GT$$C$proc_macro2..imp..TokenStream..unwrap_stable$GT$$C$proc_macro2..rcvec..RcVecIntoIter$LT$proc_macro2..TokenTree$GT$$GT$$GT$17hca697ada78dfeca5E@4HA":
.seh_proc "?dtor$3@?0?_ZN4core3ptr547drop_in_place$LT$core..iter..adapters..flatten..FlattenCompat$LT$core..iter..adapters..map..Map$LT$core..iter..adapters..map..Map$LT$core..iter..sources..once..Once$LT$proc_macro2..TokenStream$GT$$C$$LT$proc_macro2..TokenStream$u20$as$u20$core..iter..traits..collect..Extend$LT$proc_macro2..TokenStream$GT$$GT$..extend$LT$core..iter..sources..once..Once$LT$proc_macro2..TokenStream$GT$$GT$..$u7b$$u7b$closure$u7d$$u7d$$GT$$C$proc_macro2..imp..TokenStream..unwrap_stable$GT$$C$proc_macro2..rcvec..RcVecIntoIter$LT$proc_macro2..TokenTree$GT$$GT$$GT$17hca697ada78dfeca5E@4HA"
.LBB81_3:
	movq	%rdx, 16(%rsp)
	pushq	%rbp
	.seh_pushreg %rbp
	subq	$32, %rsp
	.seh_stackalloc 32
	leaq	48(%rdx), %rbp
	.seh_endprologue
	movq	-16(%rbp), %rcx
	addq	$64, %rcx
	callq	_ZN4core3ptr112drop_in_place$LT$core..option..Option$LT$proc_macro2..rcvec..RcVecIntoIter$LT$proc_macro2..TokenTree$GT$$GT$$GT$17h95a9626bbbb11b2dE
	nop
	addq	$32, %rsp
	popq	%rbp
	retq
.Lfunc_end28:
	.seh_handlerdata
	.section	.text,"xr",one_only,_ZN4core3ptr547drop_in_place$LT$core..iter..adapters..flatten..FlattenCompat$LT$core..iter..adapters..map..Map$LT$core..iter..adapters..map..Map$LT$core..iter..sources..once..Once$LT$proc_macro2..TokenStream$GT$$C$$LT$proc_macro2..TokenStream$u20$as$u20$core..iter..traits..collect..Extend$LT$proc_macro2..TokenStream$GT$$GT$..extend$LT$core..iter..sources..once..Once$LT$proc_macro2..TokenStream$GT$$GT$..$u7b$$u7b$closure$u7d$$u7d$$GT$$C$proc_macro2..imp..TokenStream..unwrap_stable$GT$$C$proc_macro2..rcvec..RcVecIntoIter$LT$proc_macro2..TokenTree$GT$$GT$$GT$17hca697ada78dfeca5E
	.seh_endproc
	.section	.xdata,"dr",associative,_ZN4core3ptr547drop_in_place$LT$core..iter..adapters..flatten..FlattenCompat$LT$core..iter..adapters..map..Map$LT$core..iter..adapters..map..Map$LT$core..iter..sources..once..Once$LT$proc_macro2..TokenStream$GT$$C$$LT$proc_macro2..TokenStream$u20$as$u20$core..iter..traits..collect..Extend$LT$proc_macro2..TokenStream$GT$$GT$..extend$LT$core..iter..sources..once..Once$LT$proc_macro2..TokenStream$GT$$GT$..$u7b$$u7b$closure$u7d$$u7d$$GT$$C$proc_macro2..imp..TokenStream..unwrap_stable$GT$$C$proc_macro2..rcvec..RcVecIntoIter$LT$proc_macro2..TokenTree$GT$$GT$$GT$17hca697ada78dfeca5E
	.p2align	2, 0x0
$cppxdata$_ZN4core3ptr547drop_in_place$LT$core..iter..adapters..flatten..FlattenCompat$LT$core..iter..adapters..map..Map$LT$core..iter..adapters..map..Map$LT$core..iter..sources..once..Once$LT$proc_macro2..TokenStream$GT$$C$$LT$proc_macro2..TokenStream$u20$as$u20$core..iter..traits..collect..Extend$LT$proc_macro2..TokenStream$GT$$GT$..extend$LT$core..iter..sources..once..Once$LT$proc_macro2..TokenStream$GT$$GT$..$u7b$$u7b$closure$u7d$$u7d$$GT$$C$proc_macro2..imp..TokenStream..unwrap_stable$GT$$C$proc_macro2..rcvec..RcVecIntoIter$LT$proc_macro2..TokenTree$GT$$GT$$GT$17hca697ada78dfeca5E:
	.long	429065506
	.long	2
	.long	($stateUnwindMap$_ZN4core3ptr547drop_in_place$LT$core..iter..adapters..flatten..FlattenCompat$LT$core..iter..adapters..map..Map$LT$core..iter..adapters..map..Map$LT$core..iter..sources..once..Once$LT$proc_macro2..TokenStream$GT$$C$$LT$proc_macro2..TokenStream$u20$as$u20$core..iter..traits..collect..Extend$LT$proc_macro2..TokenStream$GT$$GT$..extend$LT$core..iter..sources..once..Once$LT$proc_macro2..TokenStream$GT$$GT$..$u7b$$u7b$closure$u7d$$u7d$$GT$$C$proc_macro2..imp..TokenStream..unwrap_stable$GT$$C$proc_macro2..rcvec..RcVecIntoIter$LT$proc_macro2..TokenTree$GT$$GT$$GT$17hca697ada78dfeca5E)@IMGREL
	.long	0
	.long	0
	.long	4
	.long	($ip2state$_ZN4core3ptr547drop_in_place$LT$core..iter..adapters..flatten..FlattenCompat$LT$core..iter..adapters..map..Map$LT$core..iter..adapters..map..Map$LT$core..iter..sources..once..Once$LT$proc_macro2..TokenStream$GT$$C$$LT$proc_macro2..TokenStream$u20$as$u20$core..iter..traits..collect..Extend$LT$proc_macro2..TokenStream$GT$$GT$..extend$LT$core..iter..sources..once..Once$LT$proc_macro2..TokenStream$GT$$GT$..$u7b$$u7b$closure$u7d$$u7d$$GT$$C$proc_macro2..imp..TokenStream..unwrap_stable$GT$$C$proc_macro2..rcvec..RcVecIntoIter$LT$proc_macro2..TokenTree$GT$$GT$$GT$17hca697ada78dfeca5E)@IMGREL
	.long	40
	.long	0
	.long	1
$stateUnwindMap$_ZN4core3ptr547drop_in_place$LT$core..iter..adapters..flatten..FlattenCompat$LT$core..iter..adapters..map..Map$LT$core..iter..adapters..map..Map$LT$core..iter..sources..once..Once$LT$proc_macro2..TokenStream$GT$$C$$LT$proc_macro2..TokenStream$u20$as$u20$core..iter..traits..collect..Extend$LT$proc_macro2..TokenStream$GT$$GT$..extend$LT$core..iter..sources..once..Once$LT$proc_macro2..TokenStream$GT$$GT$..$u7b$$u7b$closure$u7d$$u7d$$GT$$C$proc_macro2..imp..TokenStream..unwrap_stable$GT$$C$proc_macro2..rcvec..RcVecIntoIter$LT$proc_macro2..TokenTree$GT$$GT$$GT$17hca697ada78dfeca5E:
	.long	-1
	.long	"?dtor$3@?0?_ZN4core3ptr547drop_in_place$LT$core..iter..adapters..flatten..FlattenCompat$LT$core..iter..adapters..map..Map$LT$core..iter..adapters..map..Map$LT$core..iter..sources..once..Once$LT$proc_macro2..TokenStream$GT$$C$$LT$proc_macro2..TokenStream$u20$as$u20$core..iter..traits..collect..Extend$LT$proc_macro2..TokenStream$GT$$GT$..extend$LT$core..iter..sources..once..Once$LT$proc_macro2..TokenStream$GT$$GT$..$u7b$$u7b$closure$u7d$$u7d$$GT$$C$proc_macro2..imp..TokenStream..unwrap_stable$GT$$C$proc_macro2..rcvec..RcVecIntoIter$LT$proc_macro2..TokenTree$GT$$GT$$GT$17hca697ada78dfeca5E@4HA"@IMGREL
	.long	0
	.long	"?dtor$1@?0?_ZN4core3ptr547drop_in_place$LT$core..iter..adapters..flatten..FlattenCompat$LT$core..iter..adapters..map..Map$LT$core..iter..adapters..map..Map$LT$core..iter..sources..once..Once$LT$proc_macro2..TokenStream$GT$$C$$LT$proc_macro2..TokenStream$u20$as$u20$core..iter..traits..collect..Extend$LT$proc_macro2..TokenStream$GT$$GT$..extend$LT$core..iter..sources..once..Once$LT$proc_macro2..TokenStream$GT$$GT$..$u7b$$u7b$closure$u7d$$u7d$$GT$$C$proc_macro2..imp..TokenStream..unwrap_stable$GT$$C$proc_macro2..rcvec..RcVecIntoIter$LT$proc_macro2..TokenTree$GT$$GT$$GT$17hca697ada78dfeca5E@4HA"@IMGREL
$ip2state$_ZN4core3ptr547drop_in_place$LT$core..iter..adapters..flatten..FlattenCompat$LT$core..iter..adapters..map..Map$LT$core..iter..adapters..map..Map$LT$core..iter..sources..once..Once$LT$proc_macro2..TokenStream$GT$$C$$LT$proc_macro2..TokenStream$u20$as$u20$core..iter..traits..collect..Extend$LT$proc_macro2..TokenStream$GT$$GT$..extend$LT$core..iter..sources..once..Once$LT$proc_macro2..TokenStream$GT$$GT$..$u7b$$u7b$closure$u7d$$u7d$$GT$$C$proc_macro2..imp..TokenStream..unwrap_stable$GT$$C$proc_macro2..rcvec..RcVecIntoIter$LT$proc_macro2..TokenTree$GT$$GT$$GT$17hca697ada78dfeca5E:
	.long	.Lfunc_begin28@IMGREL
	.long	-1
	.long	.Ltmp146@IMGREL+1
	.long	1
	.long	.Ltmp148@IMGREL+1
	.long	0
	.long	.Ltmp149@IMGREL+1
	.long	-1
	.section	.text,"xr",one_only,_ZN4core3ptr547drop_in_place$LT$core..iter..adapters..flatten..FlattenCompat$LT$core..iter..adapters..map..Map$LT$core..iter..adapters..map..Map$LT$core..iter..sources..once..Once$LT$proc_macro2..TokenStream$GT$$C$$LT$proc_macro2..TokenStream$u20$as$u20$core..iter..traits..collect..Extend$LT$proc_macro2..TokenStream$GT$$GT$..extend$LT$core..iter..sources..once..Once$LT$proc_macro2..TokenStream$GT$$GT$..$u7b$$u7b$closure$u7d$$u7d$$GT$$C$proc_macro2..imp..TokenStream..unwrap_stable$GT$$C$proc_macro2..rcvec..RcVecIntoIter$LT$proc_macro2..TokenTree$GT$$GT$$GT$17hca697ada78dfeca5E

	.def	_ZN4core3ptr69drop_in_place$LT$core..option..Item$LT$proc_macro2..TokenTree$GT$$GT$17ha56ff72fc8b3002dE;
	.scl	2;
	.type	32;
	.endef
	.section	.text,"xr",one_only,_ZN4core3ptr69drop_in_place$LT$core..option..Item$LT$proc_macro2..TokenTree$GT$$GT$17ha56ff72fc8b3002dE
	.globl	_ZN4core3ptr69drop_in_place$LT$core..option..Item$LT$proc_macro2..TokenTree$GT$$GT$17ha56ff72fc8b3002dE
	.p2align	4, 0x90
_ZN4core3ptr69drop_in_place$LT$core..option..Item$LT$proc_macro2..TokenTree$GT$$GT$17ha56ff72fc8b3002dE:
.seh_proc _ZN4core3ptr69drop_in_place$LT$core..option..Item$LT$proc_macro2..TokenTree$GT$$GT$17ha56ff72fc8b3002dE
	subq	$40, %rsp
	.seh_stackalloc 40
	.seh_endprologue
	callq	_ZN4core3ptr71drop_in_place$LT$core..option..Option$LT$proc_macro2..TokenTree$GT$$GT$17h1fea60868e1a31c3E
	nop
	addq	$40, %rsp
	retq
	.seh_endproc

	.def	_ZN4core3ptr70drop_in_place$LT$$u5b$proc_macro..bridge..client..TokenStream$u5d$$GT$17h6c237184d422ea3bE;
	.scl	2;
	.type	32;
	.endef
	.section	.text,"xr",one_only,_ZN4core3ptr70drop_in_place$LT$$u5b$proc_macro..bridge..client..TokenStream$u5d$$GT$17h6c237184d422ea3bE
	.globl	_ZN4core3ptr70drop_in_place$LT$$u5b$proc_macro..bridge..client..TokenStream$u5d$$GT$17h6c237184d422ea3bE
	.p2align	4, 0x90
_ZN4core3ptr70drop_in_place$LT$$u5b$proc_macro..bridge..client..TokenStream$u5d$$GT$17h6c237184d422ea3bE:
.Lfunc_begin29:
.seh_proc _ZN4core3ptr70drop_in_place$LT$$u5b$proc_macro..bridge..client..TokenStream$u5d$$GT$17h6c237184d422ea3bE
	.seh_handler __CxxFrameHandler3, @unwind, @except
	pushq	%rbp
	.seh_pushreg %rbp
	subq	$64, %rsp
	.seh_stackalloc 64
	leaq	64(%rsp), %rbp
	.seh_setframe %rbp, 64
	.seh_endprologue
	movq	$-2, -8(%rbp)
	movq	%rdx, -32(%rbp)
	movq	%rcx, -24(%rbp)
	movq	$0, -16(%rbp)
.LBB83_1:
	movq	-32(%rbp), %rax
	cmpq	%rax, -16(%rbp)
	je	.LBB83_3
	movq	-24(%rbp), %rcx
	movq	-16(%rbp), %rax
	leaq	(%rcx,%rax,4), %rcx
	incq	%rax
	movq	%rax, -16(%rbp)
.Ltmp150:
	callq	_ZN4core3ptr60drop_in_place$LT$proc_macro..bridge..client..TokenStream$GT$17hf41aee5a97160356E
.Ltmp151:
	jmp	.LBB83_1
.LBB83_3:
	addq	$64, %rsp
	popq	%rbp
	retq
.LBB83_4:
	movq	-32(%rbp), %rax
	cmpq	%rax, -16(%rbp)
	je	.LBB83_7
	jmp	.LBB83_6
	.seh_handlerdata
	.long	($cppxdata$_ZN4core3ptr70drop_in_place$LT$$u5b$proc_macro..bridge..client..TokenStream$u5d$$GT$17h6c237184d422ea3bE)@IMGREL
	.section	.text,"xr",one_only,_ZN4core3ptr70drop_in_place$LT$$u5b$proc_macro..bridge..client..TokenStream$u5d$$GT$17h6c237184d422ea3bE
	.seh_endproc
	.def	"?dtor$5@?0?_ZN4core3ptr70drop_in_place$LT$$u5b$proc_macro..bridge..client..TokenStream$u5d$$GT$17h6c237184d422ea3bE@4HA";
	.scl	3;
	.type	32;
	.endef
	.p2align	4, 0x90
"?dtor$5@?0?_ZN4core3ptr70drop_in_place$LT$$u5b$proc_macro..bridge..client..TokenStream$u5d$$GT$17h6c237184d422ea3bE@4HA":
.seh_proc "?dtor$5@?0?_ZN4core3ptr70drop_in_place$LT$$u5b$proc_macro..bridge..client..TokenStream$u5d$$GT$17h6c237184d422ea3bE@4HA"
.LBB83_5:
	movq	%rdx, 16(%rsp)
	pushq	%rbp
	.seh_pushreg %rbp
	subq	$32, %rsp
	.seh_stackalloc 32
	leaq	64(%rdx), %rbp
	.seh_endprologue
	jmp	.LBB83_4
.LBB83_6:
	movq	-24(%rbp), %rcx
	movq	-16(%rbp), %rax
	shlq	$2, %rax
	addq	%rax, %rcx
	movq	-16(%rbp), %rax
	addq	$1, %rax
	movq	%rax, -16(%rbp)
	callq	_ZN4core3ptr60drop_in_place$LT$proc_macro..bridge..client..TokenStream$GT$17hf41aee5a97160356E
	jmp	.LBB83_4
.LBB83_7:
	addq	$32, %rsp
	popq	%rbp
	retq
.Lfunc_end29:
	.seh_handlerdata
	.section	.text,"xr",one_only,_ZN4core3ptr70drop_in_place$LT$$u5b$proc_macro..bridge..client..TokenStream$u5d$$GT$17h6c237184d422ea3bE
	.seh_endproc
	.section	.xdata,"dr",associative,_ZN4core3ptr70drop_in_place$LT$$u5b$proc_macro..bridge..client..TokenStream$u5d$$GT$17h6c237184d422ea3bE
	.p2align	2, 0x0
$cppxdata$_ZN4core3ptr70drop_in_place$LT$$u5b$proc_macro..bridge..client..TokenStream$u5d$$GT$17h6c237184d422ea3bE:
	.long	429065506
	.long	1
	.long	($stateUnwindMap$_ZN4core3ptr70drop_in_place$LT$$u5b$proc_macro..bridge..client..TokenStream$u5d$$GT$17h6c237184d422ea3bE)@IMGREL
	.long	0
	.long	0
	.long	3
	.long	($ip2state$_ZN4core3ptr70drop_in_place$LT$$u5b$proc_macro..bridge..client..TokenStream$u5d$$GT$17h6c237184d422ea3bE)@IMGREL
	.long	56
	.long	0
	.long	1
$stateUnwindMap$_ZN4core3ptr70drop_in_place$LT$$u5b$proc_macro..bridge..client..TokenStream$u5d$$GT$17h6c237184d422ea3bE:
	.long	-1
	.long	"?dtor$5@?0?_ZN4core3ptr70drop_in_place$LT$$u5b$proc_macro..bridge..client..TokenStream$u5d$$GT$17h6c237184d422ea3bE@4HA"@IMGREL
$ip2state$_ZN4core3ptr70drop_in_place$LT$$u5b$proc_macro..bridge..client..TokenStream$u5d$$GT$17h6c237184d422ea3bE:
	.long	.Lfunc_begin29@IMGREL
	.long	-1
	.long	.Ltmp150@IMGREL+1
	.long	0
	.long	.Ltmp151@IMGREL+1
	.long	-1
	.section	.text,"xr",one_only,_ZN4core3ptr70drop_in_place$LT$$u5b$proc_macro..bridge..client..TokenStream$u5d$$GT$17h6c237184d422ea3bE

	.def	_ZN4core3ptr71drop_in_place$LT$core..option..Item$LT$proc_macro2..TokenStream$GT$$GT$17h2057513ff1df0906E;
	.scl	2;
	.type	32;
	.endef
	.section	.text,"xr",one_only,_ZN4core3ptr71drop_in_place$LT$core..option..Item$LT$proc_macro2..TokenStream$GT$$GT$17h2057513ff1df0906E
	.globl	_ZN4core3ptr71drop_in_place$LT$core..option..Item$LT$proc_macro2..TokenStream$GT$$GT$17h2057513ff1df0906E
	.p2align	4, 0x90
_ZN4core3ptr71drop_in_place$LT$core..option..Item$LT$proc_macro2..TokenStream$GT$$GT$17h2057513ff1df0906E:
.seh_proc _ZN4core3ptr71drop_in_place$LT$core..option..Item$LT$proc_macro2..TokenStream$GT$$GT$17h2057513ff1df0906E
	subq	$40, %rsp
	.seh_stackalloc 40
	.seh_endprologue
	callq	_ZN4core3ptr73drop_in_place$LT$core..option..Option$LT$proc_macro2..TokenStream$GT$$GT$17hcfccb838c9502391E
	nop
	addq	$40, %rsp
	retq
	.seh_endproc

	.def	_ZN4core3ptr73drop_in_place$LT$core..option..IntoIter$LT$proc_macro2..TokenTree$GT$$GT$17hb543c012a1110c54E;
	.scl	2;
	.type	32;
	.endef
	.section	.text,"xr",one_only,_ZN4core3ptr73drop_in_place$LT$core..option..IntoIter$LT$proc_macro2..TokenTree$GT$$GT$17hb543c012a1110c54E
	.globl	_ZN4core3ptr73drop_in_place$LT$core..option..IntoIter$LT$proc_macro2..TokenTree$GT$$GT$17hb543c012a1110c54E
	.p2align	4, 0x90
_ZN4core3ptr73drop_in_place$LT$core..option..IntoIter$LT$proc_macro2..TokenTree$GT$$GT$17hb543c012a1110c54E:
.seh_proc _ZN4core3ptr73drop_in_place$LT$core..option..IntoIter$LT$proc_macro2..TokenTree$GT$$GT$17hb543c012a1110c54E
	subq	$40, %rsp
	.seh_stackalloc 40
	.seh_endprologue
	callq	_ZN4core3ptr69drop_in_place$LT$core..option..Item$LT$proc_macro2..TokenTree$GT$$GT$17ha56ff72fc8b3002dE
	nop
	addq	$40, %rsp
	retq
	.seh_endproc

