	.text
	.def	@feat.00;
	.scl	3;
	.type	0;
	.endef
	.globl	@feat.00
.set @feat.00, 0
	.file	"build_script_build.96237d18d0fe061c-cgu.0"
	.def	_ZN104_$LT$core..ops..control_flow..ControlFlow$LT$B$C$C$GT$$u20$as$u20$core..ops..try_trait..FromResidual$GT$13from_residual17h45aa896d6aff209bE;
	.scl	3;
	.type	32;
	.endef
	.section	.text,"xr",one_only,_ZN104_$LT$core..ops..control_flow..ControlFlow$LT$B$C$C$GT$$u20$as$u20$core..ops..try_trait..FromResidual$GT$13from_residual17h45aa896d6aff209bE
	.p2align	4, 0x90
_ZN104_$LT$core..ops..control_flow..ControlFlow$LT$B$C$C$GT$$u20$as$u20$core..ops..try_trait..FromResidual$GT$13from_residual17h45aa896d6aff209bE:
.seh_proc _ZN104_$LT$core..ops..control_flow..ControlFlow$LT$B$C$C$GT$$u20$as$u20$core..ops..try_trait..FromResidual$GT$13from_residual17h45aa896d6aff209bE
	pushq	%rax
	.seh_stackalloc 8
	.seh_endprologue
	movb	$1, 7(%rsp)
	movb	7(%rsp), %al
	andb	$1, %al
	movzbl	%al, %eax
	popq	%rcx
	retq
	.seh_endproc

	.def	_ZN104_$LT$core..ops..control_flow..ControlFlow$LT$B$C$C$GT$$u20$as$u20$core..ops..try_trait..FromResidual$GT$13from_residual17h9f6e5b9f19fbb082E;
	.scl	3;
	.type	32;
	.endef
	.section	.text,"xr",one_only,_ZN104_$LT$core..ops..control_flow..ControlFlow$LT$B$C$C$GT$$u20$as$u20$core..ops..try_trait..FromResidual$GT$13from_residual17h9f6e5b9f19fbb082E
	.p2align	4, 0x90
_ZN104_$LT$core..ops..control_flow..ControlFlow$LT$B$C$C$GT$$u20$as$u20$core..ops..try_trait..FromResidual$GT$13from_residual17h9f6e5b9f19fbb082E:
.seh_proc _ZN104_$LT$core..ops..control_flow..ControlFlow$LT$B$C$C$GT$$u20$as$u20$core..ops..try_trait..FromResidual$GT$13from_residual17h9f6e5b9f19fbb082E
	subq	$24, %rsp
	.seh_stackalloc 24
	.seh_endprologue
	movq	%rcx, (%rsp)
	movq	(%rsp), %rax
	movq	%rax, 16(%rsp)
	movq	$1, 8(%rsp)
	movq	8(%rsp), %rax
	movq	16(%rsp), %rdx
	addq	$24, %rsp
	retq
	.seh_endproc

	.def	_ZN106_$LT$core..ops..range..Range$LT$usize$GT$$u20$as$u20$core..slice..index..SliceIndex$LT$$u5b$T$u5d$$GT$$GT$3get17hc2d5d1bb5f98618bE;
	.scl	3;
	.type	32;
	.endef
	.section	.text,"xr",one_only,_ZN106_$LT$core..ops..range..Range$LT$usize$GT$$u20$as$u20$core..slice..index..SliceIndex$LT$$u5b$T$u5d$$GT$$GT$3get17hc2d5d1bb5f98618bE
	.p2align	4, 0x90
_ZN106_$LT$core..ops..range..Range$LT$usize$GT$$u20$as$u20$core..slice..index..SliceIndex$LT$$u5b$T$u5d$$GT$$GT$3get17hc2d5d1bb5f98618bE:
.seh_proc _ZN106_$LT$core..ops..range..Range$LT$usize$GT$$u20$as$u20$core..slice..index..SliceIndex$LT$$u5b$T$u5d$$GT$$GT$3get17hc2d5d1bb5f98618bE
	subq	$80, %rsp
	.seh_stackalloc 80
	.seh_endprologue
	movq	%r9, (%rsp)
	movq	%r8, 8(%rsp)
	movq	%rdx, 16(%rsp)
	movq	%rcx, 24(%rsp)
	cmpq	%rdx, %rcx
	ja	.LBB2_2
	movq	16(%rsp), %rax
	movq	(%rsp), %rcx
	cmpq	%rcx, %rax
	ja	.LBB2_4
	jmp	.LBB2_3
.LBB2_2:
	jmp	.LBB2_4
.LBB2_3:
	movq	24(%rsp), %rdx
	movq	8(%rsp), %rcx
	movq	16(%rsp), %rax
	subq	%rdx, %rax
	addq	%rdx, %rcx
	movq	%rcx, 64(%rsp)
	movq	%rax, 72(%rsp)
	movq	64(%rsp), %rcx
	movq	72(%rsp), %rax
	movq	%rcx, 48(%rsp)
	movq	%rax, 56(%rsp)
	movq	48(%rsp), %rcx
	movq	56(%rsp), %rax
	movq	%rcx, 32(%rsp)
	movq	%rax, 40(%rsp)
	jmp	.LBB2_5
.LBB2_4:
	movq	$0, 32(%rsp)
.LBB2_5:
	movq	32(%rsp), %rax
	movq	40(%rsp), %rdx
	addq	$80, %rsp
	retq
	.seh_endproc

	.def	_ZN106_$LT$core..ops..range..Range$LT$usize$GT$$u20$as$u20$core..slice..index..SliceIndex$LT$$u5b$T$u5d$$GT$$GT$5index17hca1a75e4bb81555bE;
	.scl	3;
	.type	32;
	.endef
	.section	.text,"xr",one_only,_ZN106_$LT$core..ops..range..Range$LT$usize$GT$$u20$as$u20$core..slice..index..SliceIndex$LT$$u5b$T$u5d$$GT$$GT$5index17hca1a75e4bb81555bE
	.p2align	4, 0x90
_ZN106_$LT$core..ops..range..Range$LT$usize$GT$$u20$as$u20$core..slice..index..SliceIndex$LT$$u5b$T$u5d$$GT$$GT$5index17hca1a75e4bb81555bE:
.seh_proc _ZN106_$LT$core..ops..range..Range$LT$usize$GT$$u20$as$u20$core..slice..index..SliceIndex$LT$$u5b$T$u5d$$GT$$GT$5index17hca1a75e4bb81555bE
	subq	$104, %rsp
	.seh_stackalloc 104
	.seh_endprologue
	movq	%r9, 32(%rsp)
	movq	%r8, 40(%rsp)
	movq	%rdx, 48(%rsp)
	movq	%rcx, 56(%rsp)
	movq	144(%rsp), %rax
	movq	%rax, 64(%rsp)
	cmpq	%rdx, %rcx
	ja	.LBB3_2
	movq	48(%rsp), %rax
	movq	32(%rsp), %rcx
	cmpq	%rcx, %rax
	ja	.LBB3_4
	jmp	.LBB3_3
.LBB3_2:
	movq	64(%rsp), %r8
	movq	48(%rsp), %rdx
	movq	56(%rsp), %rcx
	callq	_ZN4core5slice5index22slice_index_order_fail17h7ca406d2fb242740E
.LBB3_3:
	movq	56(%rsp), %rdx
	movq	40(%rsp), %rcx
	movq	48(%rsp), %rax
	subq	%rdx, %rax
	addq	%rdx, %rcx
	movq	%rcx, 88(%rsp)
	movq	%rax, 96(%rsp)
	movq	88(%rsp), %rcx
	movq	96(%rsp), %rax
	movq	%rcx, 72(%rsp)
	movq	%rax, 80(%rsp)
	movq	72(%rsp), %rax
	movq	80(%rsp), %rdx
	addq	$104, %rsp
	retq
.LBB3_4:
	movq	64(%rsp), %r8
	movq	32(%rsp), %rdx
	movq	48(%rsp), %rcx
	callq	_ZN4core5slice5index24slice_end_index_len_fail17h3bc272e480489ed9E
	int3
	.seh_endproc

	.def	_ZN106_$LT$core..ops..range..Range$LT$usize$GT$$u20$as$u20$core..slice..index..SliceIndex$LT$$u5b$T$u5d$$GT$$GT$9index_mut17h94f3e4fd45e334cbE;
	.scl	3;
	.type	32;
	.endef
	.section	.text,"xr",one_only,_ZN106_$LT$core..ops..range..Range$LT$usize$GT$$u20$as$u20$core..slice..index..SliceIndex$LT$$u5b$T$u5d$$GT$$GT$9index_mut17h94f3e4fd45e334cbE
	.p2align	4, 0x90
_ZN106_$LT$core..ops..range..Range$LT$usize$GT$$u20$as$u20$core..slice..index..SliceIndex$LT$$u5b$T$u5d$$GT$$GT$9index_mut17h94f3e4fd45e334cbE:
.seh_proc _ZN106_$LT$core..ops..range..Range$LT$usize$GT$$u20$as$u20$core..slice..index..SliceIndex$LT$$u5b$T$u5d$$GT$$GT$9index_mut17h94f3e4fd45e334cbE
	subq	$104, %rsp
	.seh_stackalloc 104
	.seh_endprologue
	movq	%r9, 32(%rsp)
	movq	%r8, 40(%rsp)
	movq	%rdx, 48(%rsp)
	movq	%rcx, 56(%rsp)
	movq	144(%rsp), %rax
	movq	%rax, 64(%rsp)
	cmpq	%rdx, %rcx
	ja	.LBB4_2
	movq	48(%rsp), %rax
	movq	32(%rsp), %rcx
	cmpq	%rcx, %rax
	ja	.LBB4_4
	jmp	.LBB4_3
.LBB4_2:
	movq	64(%rsp), %r8
	movq	48(%rsp), %rdx
	movq	56(%rsp), %rcx
	callq	_ZN4core5slice5index22slice_index_order_fail17h7ca406d2fb242740E
.LBB4_3:
	movq	56(%rsp), %rdx
	movq	40(%rsp), %rcx
	movq	48(%rsp), %rax
	subq	%rdx, %rax
	addq	%rdx, %rcx
	movq	%rcx, 88(%rsp)
	movq	%rax, 96(%rsp)
	movq	88(%rsp), %rcx
	movq	96(%rsp), %rax
	movq	%rcx, 72(%rsp)
	movq	%rax, 80(%rsp)
	movq	72(%rsp), %rax
	movq	80(%rsp), %rdx
	addq	$104, %rsp
	retq
.LBB4_4:
	movq	64(%rsp), %r8
	movq	32(%rsp), %rdx
	movq	48(%rsp), %rcx
	callq	_ZN4core5slice5index24slice_end_index_len_fail17h3bc272e480489ed9E
	int3
	.seh_endproc

	.def	_ZN111_$LT$core..iter..adapters..zip..Zip$LT$A$C$B$GT$$u20$as$u20$core..iter..adapters..zip..ZipImpl$LT$A$C$B$GT$$GT$3new17h67a2c87ba8e8af93E;
	.scl	3;
	.type	32;
	.endef
	.section	.text,"xr",one_only,_ZN111_$LT$core..iter..adapters..zip..Zip$LT$A$C$B$GT$$u20$as$u20$core..iter..adapters..zip..ZipImpl$LT$A$C$B$GT$$GT$3new17h67a2c87ba8e8af93E
	.p2align	4, 0x90
_ZN111_$LT$core..iter..adapters..zip..Zip$LT$A$C$B$GT$$u20$as$u20$core..iter..adapters..zip..ZipImpl$LT$A$C$B$GT$$GT$3new17h67a2c87ba8e8af93E:
.Lfunc_begin0:
.seh_proc _ZN111_$LT$core..iter..adapters..zip..Zip$LT$A$C$B$GT$$u20$as$u20$core..iter..adapters..zip..ZipImpl$LT$A$C$B$GT$$GT$3new17h67a2c87ba8e8af93E
	.seh_handler __CxxFrameHandler3, @unwind, @except
	pushq	%rbp
	.seh_pushreg %rbp
	pushq	%rsi
	.seh_pushreg %rsi
	subq	$120, %rsp
	.seh_stackalloc 120
	leaq	112(%rsp), %rbp
	.seh_setframe %rbp, 112
	.seh_endprologue
	movq	$-2, (%rbp)
	movq	%rcx, -56(%rbp)
	movq	%rcx, -48(%rbp)
	movq	64(%rbp), %rax
	movq	%rdx, -32(%rbp)
	movq	%r8, -24(%rbp)
	movq	%r9, -16(%rbp)
	movq	%rax, -8(%rbp)
.Ltmp0:
	leaq	-32(%rbp), %rcx
	callq	_ZN4core4iter8adapters3zip27TrustedRandomAccessNoCoerce4size17h969dd91cb252674cE
.Ltmp1:
	movq	%rax, -40(%rbp)
	jmp	.LBB5_2
.LBB5_2:
.Ltmp2:
	leaq	-16(%rbp), %rcx
	callq	_ZN4core4iter8adapters3zip27TrustedRandomAccessNoCoerce4size17h969dd91cb252674cE
.Ltmp3:
	movq	%rax, -64(%rbp)
	jmp	.LBB5_3
.LBB5_3:
.Ltmp4:
	movq	-64(%rbp), %rdx
	movq	-40(%rbp), %rcx
	callq	_ZN4core3cmp6min_by17h3e168e589c2e3530E
.Ltmp5:
	movq	%rax, -72(%rbp)
	jmp	.LBB5_4
.LBB5_4:
	movq	-48(%rbp), %rax
	movq	-56(%rbp), %rcx
	movq	-40(%rbp), %rdx
	movq	-72(%rbp), %r8
	movq	-32(%rbp), %rsi
	movq	-24(%rbp), %r11
	movq	-16(%rbp), %r10
	movq	-8(%rbp), %r9
	movq	%rsi, (%rcx)
	movq	%r11, 8(%rcx)
	movq	%r10, 16(%rcx)
	movq	%r9, 24(%rcx)
	movq	$0, 32(%rcx)
	movq	%r8, 40(%rcx)
	movq	%rdx, 48(%rcx)
	addq	$120, %rsp
	popq	%rsi
	popq	%rbp
	retq
	.seh_handlerdata
	.long	($cppxdata$_ZN111_$LT$core..iter..adapters..zip..Zip$LT$A$C$B$GT$$u20$as$u20$core..iter..adapters..zip..ZipImpl$LT$A$C$B$GT$$GT$3new17h67a2c87ba8e8af93E)@IMGREL
	.section	.text,"xr",one_only,_ZN111_$LT$core..iter..adapters..zip..Zip$LT$A$C$B$GT$$u20$as$u20$core..iter..adapters..zip..ZipImpl$LT$A$C$B$GT$$GT$3new17h67a2c87ba8e8af93E
	.seh_endproc
	.def	"?dtor$1@?0?_ZN111_$LT$core..iter..adapters..zip..Zip$LT$A$C$B$GT$$u20$as$u20$core..iter..adapters..zip..ZipImpl$LT$A$C$B$GT$$GT$3new17h67a2c87ba8e8af93E@4HA";
	.scl	3;
	.type	32;
	.endef
	.p2align	4, 0x90
"?dtor$1@?0?_ZN111_$LT$core..iter..adapters..zip..Zip$LT$A$C$B$GT$$u20$as$u20$core..iter..adapters..zip..ZipImpl$LT$A$C$B$GT$$GT$3new17h67a2c87ba8e8af93E@4HA":
.seh_proc "?dtor$1@?0?_ZN111_$LT$core..iter..adapters..zip..Zip$LT$A$C$B$GT$$u20$as$u20$core..iter..adapters..zip..ZipImpl$LT$A$C$B$GT$$GT$3new17h67a2c87ba8e8af93E@4HA"
.LBB5_1:
	movq	%rdx, 16(%rsp)
	pushq	%rbp
	.seh_pushreg %rbp
	pushq	%rsi
	.seh_pushreg %rsi
	subq	$40, %rsp
	.seh_stackalloc 40
	leaq	112(%rdx), %rbp
	.seh_endprologue
	addq	$40, %rsp
	popq	%rsi
	popq	%rbp
	retq
.Lfunc_end0:
	.seh_handlerdata
	.section	.text,"xr",one_only,_ZN111_$LT$core..iter..adapters..zip..Zip$LT$A$C$B$GT$$u20$as$u20$core..iter..adapters..zip..ZipImpl$LT$A$C$B$GT$$GT$3new17h67a2c87ba8e8af93E
	.seh_endproc
	.section	.xdata,"dr",associative,_ZN111_$LT$core..iter..adapters..zip..Zip$LT$A$C$B$GT$$u20$as$u20$core..iter..adapters..zip..ZipImpl$LT$A$C$B$GT$$GT$3new17h67a2c87ba8e8af93E
	.p2align	2, 0x0
$cppxdata$_ZN111_$LT$core..iter..adapters..zip..Zip$LT$A$C$B$GT$$u20$as$u20$core..iter..adapters..zip..ZipImpl$LT$A$C$B$GT$$GT$3new17h67a2c87ba8e8af93E:
	.long	429065506
	.long	1
	.long	($stateUnwindMap$_ZN111_$LT$core..iter..adapters..zip..Zip$LT$A$C$B$GT$$u20$as$u20$core..iter..adapters..zip..ZipImpl$LT$A$C$B$GT$$GT$3new17h67a2c87ba8e8af93E)@IMGREL
	.long	0
	.long	0
	.long	3
	.long	($ip2state$_ZN111_$LT$core..iter..adapters..zip..Zip$LT$A$C$B$GT$$u20$as$u20$core..iter..adapters..zip..ZipImpl$LT$A$C$B$GT$$GT$3new17h67a2c87ba8e8af93E)@IMGREL
	.long	112
	.long	0
	.long	1
$stateUnwindMap$_ZN111_$LT$core..iter..adapters..zip..Zip$LT$A$C$B$GT$$u20$as$u20$core..iter..adapters..zip..ZipImpl$LT$A$C$B$GT$$GT$3new17h67a2c87ba8e8af93E:
	.long	-1
	.long	"?dtor$1@?0?_ZN111_$LT$core..iter..adapters..zip..Zip$LT$A$C$B$GT$$u20$as$u20$core..iter..adapters..zip..ZipImpl$LT$A$C$B$GT$$GT$3new17h67a2c87ba8e8af93E@4HA"@IMGREL
$ip2state$_ZN111_$LT$core..iter..adapters..zip..Zip$LT$A$C$B$GT$$u20$as$u20$core..iter..adapters..zip..ZipImpl$LT$A$C$B$GT$$GT$3new17h67a2c87ba8e8af93E:
	.long	.Lfunc_begin0@IMGREL
	.long	-1
	.long	.Ltmp0@IMGREL+1
	.long	0
	.long	.Ltmp5@IMGREL+1
	.long	-1
	.section	.text,"xr",one_only,_ZN111_$LT$core..iter..adapters..zip..Zip$LT$A$C$B$GT$$u20$as$u20$core..iter..adapters..zip..ZipImpl$LT$A$C$B$GT$$GT$3new17h67a2c87ba8e8af93E

	.def	_ZN111_$LT$core..iter..adapters..zip..Zip$LT$A$C$B$GT$$u20$as$u20$core..iter..adapters..zip..ZipImpl$LT$A$C$B$GT$$GT$4next17h3ad978724036db37E;
	.scl	3;
	.type	32;
	.endef
	.section	.text,"xr",one_only,_ZN111_$LT$core..iter..adapters..zip..Zip$LT$A$C$B$GT$$u20$as$u20$core..iter..adapters..zip..ZipImpl$LT$A$C$B$GT$$GT$4next17h3ad978724036db37E
	.p2align	4, 0x90
_ZN111_$LT$core..iter..adapters..zip..Zip$LT$A$C$B$GT$$u20$as$u20$core..iter..adapters..zip..ZipImpl$LT$A$C$B$GT$$GT$4next17h3ad978724036db37E:
.Lfunc_begin1:
.seh_proc _ZN111_$LT$core..iter..adapters..zip..Zip$LT$A$C$B$GT$$u20$as$u20$core..iter..adapters..zip..ZipImpl$LT$A$C$B$GT$$GT$4next17h3ad978724036db37E
	.seh_handler __CxxFrameHandler3, @unwind, @except
	pushq	%rbp
	.seh_pushreg %rbp
	subq	$112, %rsp
	.seh_stackalloc 112
	leaq	112(%rsp), %rbp
	.seh_setframe %rbp, 112
	.seh_endprologue
	movq	$-2, -8(%rbp)
	movq	%rcx, -48(%rbp)
	movq	32(%rcx), %rax
	cmpq	40(%rcx), %rax
	jb	.LBB6_2
	movq	$0, -40(%rbp)
	jmp	.LBB6_3
.LBB6_2:
	movq	-48(%rbp), %rcx
	movq	32(%rcx), %rdx
	movq	%rdx, -72(%rbp)
	movq	%rdx, %rax
	incq	%rax
	movq	%rax, 32(%rcx)
	callq	_ZN91_$LT$core..slice..iter..Iter$LT$T$GT$$u20$as$u20$core..iter..traits..iterator..Iterator$GT$24__iterator_get_unchecked17h2ba43f14b988036cE
	movq	-48(%rbp), %rcx
	movq	-72(%rbp), %rdx
	movq	%rax, -64(%rbp)
	addq	$16, %rcx
.Ltmp6:
	callq	_ZN91_$LT$core..slice..iter..Iter$LT$T$GT$$u20$as$u20$core..iter..traits..iterator..Iterator$GT$24__iterator_get_unchecked17h2ba43f14b988036cE
.Ltmp7:
	movq	%rax, -56(%rbp)
	jmp	.LBB6_5
.LBB6_3:
	movq	-40(%rbp), %rax
	movq	-32(%rbp), %rdx
	addq	$112, %rsp
	popq	%rbp
	retq
.LBB6_5:
	movq	-56(%rbp), %rax
	movq	-64(%rbp), %rcx
	movq	%rcx, -24(%rbp)
	movq	%rax, -16(%rbp)
	movq	-24(%rbp), %rcx
	movq	-16(%rbp), %rax
	movq	%rcx, -40(%rbp)
	movq	%rax, -32(%rbp)
	jmp	.LBB6_3
	.seh_handlerdata
	.long	($cppxdata$_ZN111_$LT$core..iter..adapters..zip..Zip$LT$A$C$B$GT$$u20$as$u20$core..iter..adapters..zip..ZipImpl$LT$A$C$B$GT$$GT$4next17h3ad978724036db37E)@IMGREL
	.section	.text,"xr",one_only,_ZN111_$LT$core..iter..adapters..zip..Zip$LT$A$C$B$GT$$u20$as$u20$core..iter..adapters..zip..ZipImpl$LT$A$C$B$GT$$GT$4next17h3ad978724036db37E
	.seh_endproc
	.def	"?dtor$4@?0?_ZN111_$LT$core..iter..adapters..zip..Zip$LT$A$C$B$GT$$u20$as$u20$core..iter..adapters..zip..ZipImpl$LT$A$C$B$GT$$GT$4next17h3ad978724036db37E@4HA";
	.scl	3;
	.type	32;
	.endef
	.p2align	4, 0x90
"?dtor$4@?0?_ZN111_$LT$core..iter..adapters..zip..Zip$LT$A$C$B$GT$$u20$as$u20$core..iter..adapters..zip..ZipImpl$LT$A$C$B$GT$$GT$4next17h3ad978724036db37E@4HA":
.seh_proc "?dtor$4@?0?_ZN111_$LT$core..iter..adapters..zip..Zip$LT$A$C$B$GT$$u20$as$u20$core..iter..adapters..zip..ZipImpl$LT$A$C$B$GT$$GT$4next17h3ad978724036db37E@4HA"
.LBB6_4:
	movq	%rdx, 16(%rsp)
	pushq	%rbp
	.seh_pushreg %rbp
	subq	$32, %rsp
	.seh_stackalloc 32
	leaq	112(%rdx), %rbp
	.seh_endprologue
	addq	$32, %rsp
	popq	%rbp
	retq
.Lfunc_end1:
	.seh_handlerdata
	.section	.text,"xr",one_only,_ZN111_$LT$core..iter..adapters..zip..Zip$LT$A$C$B$GT$$u20$as$u20$core..iter..adapters..zip..ZipImpl$LT$A$C$B$GT$$GT$4next17h3ad978724036db37E
	.seh_endproc
	.section	.xdata,"dr",associative,_ZN111_$LT$core..iter..adapters..zip..Zip$LT$A$C$B$GT$$u20$as$u20$core..iter..adapters..zip..ZipImpl$LT$A$C$B$GT$$GT$4next17h3ad978724036db37E
	.p2align	2, 0x0
$cppxdata$_ZN111_$LT$core..iter..adapters..zip..Zip$LT$A$C$B$GT$$u20$as$u20$core..iter..adapters..zip..ZipImpl$LT$A$C$B$GT$$GT$4next17h3ad978724036db37E:
	.long	429065506
	.long	1
	.long	($stateUnwindMap$_ZN111_$LT$core..iter..adapters..zip..Zip$LT$A$C$B$GT$$u20$as$u20$core..iter..adapters..zip..ZipImpl$LT$A$C$B$GT$$GT$4next17h3ad978724036db37E)@IMGREL
	.long	0
	.long	0
	.long	3
	.long	($ip2state$_ZN111_$LT$core..iter..adapters..zip..Zip$LT$A$C$B$GT$$u20$as$u20$core..iter..adapters..zip..ZipImpl$LT$A$C$B$GT$$GT$4next17h3ad978724036db37E)@IMGREL
	.long	104
	.long	0
	.long	1
$stateUnwindMap$_ZN111_$LT$core..iter..adapters..zip..Zip$LT$A$C$B$GT$$u20$as$u20$core..iter..adapters..zip..ZipImpl$LT$A$C$B$GT$$GT$4next17h3ad978724036db37E:
	.long	-1
	.long	"?dtor$4@?0?_ZN111_$LT$core..iter..adapters..zip..Zip$LT$A$C$B$GT$$u20$as$u20$core..iter..adapters..zip..ZipImpl$LT$A$C$B$GT$$GT$4next17h3ad978724036db37E@4HA"@IMGREL
$ip2state$_ZN111_$LT$core..iter..adapters..zip..Zip$LT$A$C$B$GT$$u20$as$u20$core..iter..adapters..zip..ZipImpl$LT$A$C$B$GT$$GT$4next17h3ad978724036db37E:
	.long	.Lfunc_begin1@IMGREL
	.long	-1
	.long	.Ltmp6@IMGREL+1
	.long	0
	.long	.Ltmp7@IMGREL+1
	.long	-1
	.section	.text,"xr",one_only,_ZN111_$LT$core..iter..adapters..zip..Zip$LT$A$C$B$GT$$u20$as$u20$core..iter..adapters..zip..ZipImpl$LT$A$C$B$GT$$GT$4next17h3ad978724036db37E

	.def	_ZN119_$LT$alloc..collections..btree..map..BTreeMap$LT$K$C$V$C$A$GT$$u20$as$u20$core..iter..traits..collect..IntoIterator$GT$9into_iter17h72a0431a2d614fffE;
	.scl	3;
	.type	32;
	.endef
	.section	.text,"xr",one_only,_ZN119_$LT$alloc..collections..btree..map..BTreeMap$LT$K$C$V$C$A$GT$$u20$as$u20$core..iter..traits..collect..IntoIterator$GT$9into_iter17h72a0431a2d614fffE
	.p2align	4, 0x90
_ZN119_$LT$alloc..collections..btree..map..BTreeMap$LT$K$C$V$C$A$GT$$u20$as$u20$core..iter..traits..collect..IntoIterator$GT$9into_iter17h72a0431a2d614fffE:
.seh_proc _ZN119_$LT$alloc..collections..btree..map..BTreeMap$LT$K$C$V$C$A$GT$$u20$as$u20$core..iter..traits..collect..IntoIterator$GT$9into_iter17h72a0431a2d614fffE
	subq	$440, %rsp
	.seh_stackalloc 440
	.seh_endprologue
	movq	%rcx, 48(%rsp)
	movq	%rcx, 56(%rsp)
	movq	(%rdx), %rax
	movq	%rax, 64(%rsp)
	movq	8(%rdx), %rax
	movq	%rax, 72(%rsp)
	movq	16(%rdx), %rax
	movq	%rax, 80(%rsp)
	movq	$0, 248(%rsp)
	movq	64(%rsp), %rcx
	movq	72(%rsp), %rax
	movq	%rcx, 88(%rsp)
	movq	%rax, 96(%rsp)
	movq	248(%rsp), %rcx
	movq	256(%rsp), %rax
	movq	%rcx, 64(%rsp)
	movq	%rax, 72(%rsp)
	movq	88(%rsp), %rdx
	movl	$1, %eax
	xorl	%ecx, %ecx
	cmpq	$0, %rdx
	cmoveq	%rcx, %rax
	cmpq	$1, %rax
	jne	.LBB7_2
	movq	48(%rsp), %rcx
	movq	96(%rsp), %rdx
	movq	88(%rsp), %rax
	movq	%rdx, 176(%rsp)
	movq	%rax, 168(%rsp)
	movq	168(%rsp), %rdx
	movq	176(%rsp), %rax
	movq	168(%rsp), %r9
	movq	176(%rsp), %r8
	movq	%r9, 304(%rsp)
	movq	%r8, 312(%rsp)
	movq	$0, 296(%rsp)
	movq	296(%rsp), %r8
	movq	%r8, 272(%rsp)
	movq	304(%rsp), %r8
	movq	%r8, 280(%rsp)
	movq	312(%rsp), %r8
	movq	%r8, 288(%rsp)
	movq	$1, 264(%rsp)
	movq	%rdx, 360(%rsp)
	movq	%rax, 368(%rsp)
	movq	$0, 352(%rsp)
	movq	352(%rsp), %rax
	movq	%rax, 328(%rsp)
	movq	360(%rsp), %rax
	movq	%rax, 336(%rsp)
	movq	368(%rsp), %rax
	movq	%rax, 344(%rsp)
	movq	$1, 320(%rsp)
	movq	264(%rsp), %rax
	movq	%rax, 104(%rsp)
	movq	272(%rsp), %rax
	movq	%rax, 112(%rsp)
	movq	280(%rsp), %rax
	movq	%rax, 120(%rsp)
	movq	288(%rsp), %rax
	movq	%rax, 128(%rsp)
	movq	320(%rsp), %rax
	movq	%rax, 136(%rsp)
	movq	328(%rsp), %rax
	movq	%rax, 144(%rsp)
	movq	336(%rsp), %rax
	movq	%rax, 152(%rsp)
	movq	344(%rsp), %rax
	movq	%rax, 160(%rsp)
	movq	80(%rsp), %rax
	movq	%rax, 40(%rsp)
	leaq	104(%rsp), %rdx
	movl	$64, %r8d
	callq	memcpy
	movq	40(%rsp), %rcx
	movq	48(%rsp), %rax
	movq	%rcx, 64(%rax)
	jmp	.LBB7_3
.LBB7_2:
	movq	48(%rsp), %rcx
	movq	$0, 376(%rsp)
	movq	$0, 408(%rsp)
	movq	376(%rsp), %rax
	movq	%rax, 184(%rsp)
	movq	384(%rsp), %rax
	movq	%rax, 192(%rsp)
	movq	392(%rsp), %rax
	movq	%rax, 200(%rsp)
	movq	400(%rsp), %rax
	movq	%rax, 208(%rsp)
	movq	408(%rsp), %rax
	movq	%rax, 216(%rsp)
	movq	416(%rsp), %rax
	movq	%rax, 224(%rsp)
	movq	424(%rsp), %rax
	movq	%rax, 232(%rsp)
	movq	432(%rsp), %rax
	movq	%rax, 240(%rsp)
	leaq	184(%rsp), %rdx
	movl	$64, %r8d
	callq	memcpy
	movq	48(%rsp), %rax
	movq	$0, 64(%rax)
.LBB7_3:
	movq	56(%rsp), %rax
	addq	$440, %rsp
	retq
	.seh_endproc

	.def	_ZN119_$LT$alloc..collections..btree..map..BTreeMap$LT$K$C$V$C$A$GT$$u20$as$u20$core..iter..traits..collect..IntoIterator$GT$9into_iter17he218fce0bb3564daE;
	.scl	3;
	.type	32;
	.endef
	.section	.text,"xr",one_only,_ZN119_$LT$alloc..collections..btree..map..BTreeMap$LT$K$C$V$C$A$GT$$u20$as$u20$core..iter..traits..collect..IntoIterator$GT$9into_iter17he218fce0bb3564daE
	.p2align	4, 0x90
_ZN119_$LT$alloc..collections..btree..map..BTreeMap$LT$K$C$V$C$A$GT$$u20$as$u20$core..iter..traits..collect..IntoIterator$GT$9into_iter17he218fce0bb3564daE:
.seh_proc _ZN119_$LT$alloc..collections..btree..map..BTreeMap$LT$K$C$V$C$A$GT$$u20$as$u20$core..iter..traits..collect..IntoIterator$GT$9into_iter17he218fce0bb3564daE
	subq	$440, %rsp
	.seh_stackalloc 440
	.seh_endprologue
	movq	%rcx, 48(%rsp)
	movq	%rcx, 56(%rsp)
	movq	(%rdx), %rax
	movq	%rax, 64(%rsp)
	movq	8(%rdx), %rax
	movq	%rax, 72(%rsp)
	movq	16(%rdx), %rax
	movq	%rax, 80(%rsp)
	movq	$0, 248(%rsp)
	movq	64(%rsp), %rcx
	movq	72(%rsp), %rax
	movq	%rcx, 88(%rsp)
	movq	%rax, 96(%rsp)
	movq	248(%rsp), %rcx
	movq	256(%rsp), %rax
	movq	%rcx, 64(%rsp)
	movq	%rax, 72(%rsp)
	movq	88(%rsp), %rdx
	movl	$1, %eax
	xorl	%ecx, %ecx
	cmpq	$0, %rdx
	cmoveq	%rcx, %rax
	cmpq	$1, %rax
	jne	.LBB8_2
	movq	48(%rsp), %rcx
	movq	96(%rsp), %rdx
	movq	88(%rsp), %rax
	movq	%rdx, 176(%rsp)
	movq	%rax, 168(%rsp)
	movq	168(%rsp), %rdx
	movq	176(%rsp), %rax
	movq	168(%rsp), %r9
	movq	176(%rsp), %r8
	movq	%r9, 304(%rsp)
	movq	%r8, 312(%rsp)
	movq	$0, 296(%rsp)
	movq	296(%rsp), %r8
	movq	%r8, 272(%rsp)
	movq	304(%rsp), %r8
	movq	%r8, 280(%rsp)
	movq	312(%rsp), %r8
	movq	%r8, 288(%rsp)
	movq	$1, 264(%rsp)
	movq	%rdx, 360(%rsp)
	movq	%rax, 368(%rsp)
	movq	$0, 352(%rsp)
	movq	352(%rsp), %rax
	movq	%rax, 328(%rsp)
	movq	360(%rsp), %rax
	movq	%rax, 336(%rsp)
	movq	368(%rsp), %rax
	movq	%rax, 344(%rsp)
	movq	$1, 320(%rsp)
	movq	264(%rsp), %rax
	movq	%rax, 104(%rsp)
	movq	272(%rsp), %rax
	movq	%rax, 112(%rsp)
	movq	280(%rsp), %rax
	movq	%rax, 120(%rsp)
	movq	288(%rsp), %rax
	movq	%rax, 128(%rsp)
	movq	320(%rsp), %rax
	movq	%rax, 136(%rsp)
	movq	328(%rsp), %rax
	movq	%rax, 144(%rsp)
	movq	336(%rsp), %rax
	movq	%rax, 152(%rsp)
	movq	344(%rsp), %rax
	movq	%rax, 160(%rsp)
	movq	80(%rsp), %rax
	movq	%rax, 40(%rsp)
	leaq	104(%rsp), %rdx
	movl	$64, %r8d
	callq	memcpy
	movq	40(%rsp), %rcx
	movq	48(%rsp), %rax
	movq	%rcx, 64(%rax)
	jmp	.LBB8_3
.LBB8_2:
	movq	48(%rsp), %rcx
	movq	$0, 376(%rsp)
	movq	$0, 408(%rsp)
	movq	376(%rsp), %rax
	movq	%rax, 184(%rsp)
	movq	384(%rsp), %rax
	movq	%rax, 192(%rsp)
	movq	392(%rsp), %rax
	movq	%rax, 200(%rsp)
	movq	400(%rsp), %rax
	movq	%rax, 208(%rsp)
	movq	408(%rsp), %rax
	movq	%rax, 216(%rsp)
	movq	416(%rsp), %rax
	movq	%rax, 224(%rsp)
	movq	424(%rsp), %rax
	movq	%rax, 232(%rsp)
	movq	432(%rsp), %rax
	movq	%rax, 240(%rsp)
	leaq	184(%rsp), %rdx
	movl	$64, %r8d
	callq	memcpy
	movq	48(%rsp), %rax
	movq	$0, 64(%rax)
.LBB8_3:
	movq	56(%rsp), %rax
	addq	$440, %rsp
	retq
	.seh_endproc

	.def	_ZN174_$LT$$LT$alloc..collections..btree..map..IntoIter$LT$K$C$V$C$A$GT$$u20$as$u20$core..ops..drop..Drop$GT$..drop..DropGuard$LT$K$C$V$C$A$GT$$u20$as$u20$core..ops..drop..Drop$GT$4drop17h9a87809790e05963E;
	.scl	3;
	.type	32;
	.endef
	.section	.text,"xr",one_only,_ZN174_$LT$$LT$alloc..collections..btree..map..IntoIter$LT$K$C$V$C$A$GT$$u20$as$u20$core..ops..drop..Drop$GT$..drop..DropGuard$LT$K$C$V$C$A$GT$$u20$as$u20$core..ops..drop..Drop$GT$4drop17h9a87809790e05963E
	.p2align	4, 0x90
_ZN174_$LT$$LT$alloc..collections..btree..map..IntoIter$LT$K$C$V$C$A$GT$$u20$as$u20$core..ops..drop..Drop$GT$..drop..DropGuard$LT$K$C$V$C$A$GT$$u20$as$u20$core..ops..drop..Drop$GT$4drop17h9a87809790e05963E:
.seh_proc _ZN174_$LT$$LT$alloc..collections..btree..map..IntoIter$LT$K$C$V$C$A$GT$$u20$as$u20$core..ops..drop..Drop$GT$..drop..DropGuard$LT$K$C$V$C$A$GT$$u20$as$u20$core..ops..drop..Drop$GT$4drop17h9a87809790e05963E
	subq	$88, %rsp
	.seh_stackalloc 88
	.seh_endprologue
	movq	%rcx, 32(%rsp)
.LBB9_1:
	movq	32(%rsp), %rax
	movq	(%rax), %rdx
	leaq	40(%rsp), %rcx
	callq	_ZN5alloc11collections5btree3map25IntoIter$LT$K$C$V$C$A$GT$10dying_next17hc26c993b9f8ce38bE
	movq	40(%rsp), %rdx
	movl	$1, %eax
	xorl	%ecx, %ecx
	cmpq	$0, %rdx
	cmoveq	%rcx, %rax
	cmpq	$1, %rax
	jne	.LBB9_3
	movq	40(%rsp), %rax
	movq	%rax, 64(%rsp)
	movq	48(%rsp), %rax
	movq	%rax, 72(%rsp)
	movq	56(%rsp), %rax
	movq	%rax, 80(%rsp)
	leaq	64(%rsp), %rcx
	callq	_ZN5alloc11collections5btree4node173Handle$LT$alloc..collections..btree..node..NodeRef$LT$alloc..collections..btree..node..marker..Dying$C$K$C$V$C$NodeType$GT$$C$alloc..collections..btree..node..marker..KV$GT$12drop_key_val17h65577bab06ea3230E
	jmp	.LBB9_1
.LBB9_3:
	addq	$88, %rsp
	retq
	.seh_endproc

	.def	_ZN174_$LT$$LT$alloc..collections..btree..map..IntoIter$LT$K$C$V$C$A$GT$$u20$as$u20$core..ops..drop..Drop$GT$..drop..DropGuard$LT$K$C$V$C$A$GT$$u20$as$u20$core..ops..drop..Drop$GT$4drop17hb3dcd6d6e4387031E;
	.scl	3;
	.type	32;
	.endef
	.section	.text,"xr",one_only,_ZN174_$LT$$LT$alloc..collections..btree..map..IntoIter$LT$K$C$V$C$A$GT$$u20$as$u20$core..ops..drop..Drop$GT$..drop..DropGuard$LT$K$C$V$C$A$GT$$u20$as$u20$core..ops..drop..Drop$GT$4drop17hb3dcd6d6e4387031E
	.p2align	4, 0x90
_ZN174_$LT$$LT$alloc..collections..btree..map..IntoIter$LT$K$C$V$C$A$GT$$u20$as$u20$core..ops..drop..Drop$GT$..drop..DropGuard$LT$K$C$V$C$A$GT$$u20$as$u20$core..ops..drop..Drop$GT$4drop17hb3dcd6d6e4387031E:
.seh_proc _ZN174_$LT$$LT$alloc..collections..btree..map..IntoIter$LT$K$C$V$C$A$GT$$u20$as$u20$core..ops..drop..Drop$GT$..drop..DropGuard$LT$K$C$V$C$A$GT$$u20$as$u20$core..ops..drop..Drop$GT$4drop17hb3dcd6d6e4387031E
	subq	$88, %rsp
	.seh_stackalloc 88
	.seh_endprologue
	movq	%rcx, 32(%rsp)
.LBB10_1:
	movq	32(%rsp), %rax
	movq	(%rax), %rdx
	leaq	40(%rsp), %rcx
	callq	_ZN5alloc11collections5btree3map25IntoIter$LT$K$C$V$C$A$GT$10dying_next17he771ede5c66755ebE
	movq	40(%rsp), %rdx
	movl	$1, %eax
	xorl	%ecx, %ecx
	cmpq	$0, %rdx
	cmoveq	%rcx, %rax
	cmpq	$1, %rax
	jne	.LBB10_3
	movq	40(%rsp), %rax
	movq	%rax, 64(%rsp)
	movq	48(%rsp), %rax
	movq	%rax, 72(%rsp)
	movq	56(%rsp), %rax
	movq	%rax, 80(%rsp)
	leaq	64(%rsp), %rcx
	callq	_ZN5alloc11collections5btree4node173Handle$LT$alloc..collections..btree..node..NodeRef$LT$alloc..collections..btree..node..marker..Dying$C$K$C$V$C$NodeType$GT$$C$alloc..collections..btree..node..marker..KV$GT$12drop_key_val17h6e1f6e252c5fe6a0E
	jmp	.LBB10_1
.LBB10_3:
	addq	$88, %rsp
	retq
	.seh_endproc

	.def	_ZN3std10sys_common9backtrace28__rust_begin_short_backtrace17hf147a94c98c65b26E;
	.scl	3;
	.type	32;
	.endef
	.section	.text,"xr",one_only,_ZN3std10sys_common9backtrace28__rust_begin_short_backtrace17hf147a94c98c65b26E
	.p2align	4, 0x90
_ZN3std10sys_common9backtrace28__rust_begin_short_backtrace17hf147a94c98c65b26E:
.seh_proc _ZN3std10sys_common9backtrace28__rust_begin_short_backtrace17hf147a94c98c65b26E
	subq	$40, %rsp
	.seh_stackalloc 40
	.seh_endprologue
	callq	_ZN4core3ops8function6FnOnce9call_once17h932d93c1674bc8ceE
	#APP
	#NO_APP
	nop
	addq	$40, %rsp
	retq
	.seh_endproc

	.def	_ZN3std2io5error14repr_bitpacked11decode_repr17ha3f5ffbcfc0d8802E;
	.scl	3;
	.type	32;
	.endef
	.section	.text,"xr",one_only,_ZN3std2io5error14repr_bitpacked11decode_repr17ha3f5ffbcfc0d8802E
	.p2align	4, 0x90
_ZN3std2io5error14repr_bitpacked11decode_repr17ha3f5ffbcfc0d8802E:
.Lfunc_begin2:
.seh_proc _ZN3std2io5error14repr_bitpacked11decode_repr17ha3f5ffbcfc0d8802E
	.seh_handler __CxxFrameHandler3, @unwind, @except
	pushq	%rbp
	.seh_pushreg %rbp
	subq	$160, %rsp
	.seh_stackalloc 160
	leaq	128(%rsp), %rbp
	.seh_setframe %rbp, 128
	.seh_endprologue
	movq	$-2, 24(%rbp)
	movq	%rdx, -72(%rbp)
	movq	%rcx, -64(%rbp)
	movq	%rcx, -56(%rbp)
	movb	$1, -1(%rbp)
	movq	%rdx, -40(%rbp)
	movq	-40(%rbp), %rax
	andl	$3, %eax
	movq	%rax, -48(%rbp)
	subq	$3, %rax
	ja	.LBB12_1
	movq	-48(%rbp), %rax
	leaq	.LJTI12_0(%rip), %rcx
	movslq	(%rcx,%rax,4), %rax
	addq	%rcx, %rax
	jmpq	*%rax
.LBB12_1:
.Ltmp12:
	leaq	__unnamed_1(%rip), %rcx
	leaq	__unnamed_2(%rip), %r8
	movl	$40, %edx
	callq	_ZN4core9panicking5panic17hb11f2d409f96600eE
.Ltmp13:
	jmp	.LBB12_12
.LBB12_2:
	movq	-64(%rbp), %rax
	movq	-40(%rbp), %rcx
	sarq	$32, %rcx
	movl	%ecx, 4(%rax)
	movb	$0, (%rax)
	jmp	.LBB12_6
.LBB12_3:
	movl	-36(%rbp), %ecx
.Ltmp10:
	callq	_ZN3std2io5error14repr_bitpacked14kind_from_prim17ha481115c32b603fcE
.Ltmp11:
	movb	%al, -73(%rbp)
	jmp	.LBB12_8
.LBB12_4:
	movq	-64(%rbp), %rax
	movq	-72(%rbp), %rcx
	movq	%rcx, -24(%rbp)
	movq	-24(%rbp), %rcx
	movq	%rcx, 8(%rax)
	movb	$2, (%rax)
	jmp	.LBB12_6
.LBB12_5:
	movq	-72(%rbp), %rax
	decq	%rax
	movq	%rax, 16(%rbp)
	movq	16(%rbp), %rax
	movq	%rax, 8(%rbp)
	movq	8(%rbp), %rax
	movq	%rax, (%rbp)
	movq	(%rbp), %rax
	movb	$0, -1(%rbp)
	movq	%rax, -16(%rbp)
	movq	-16(%rbp), %rcx
.Ltmp8:
	callq	_ZN78_$LT$std..io..error..repr_bitpacked..Repr$u20$as$u20$core..ops..drop..Drop$GT$4drop28_$u7b$$u7b$closure$u7d$$u7d$17h93ab6ac7242a86acE
.Ltmp9:
	movq	%rax, -88(%rbp)
	jmp	.LBB12_9
.LBB12_6:
	testb	$1, -1(%rbp)
	jne	.LBB12_11
	jmp	.LBB12_10
.LBB12_8:
	movq	-64(%rbp), %rax
	movb	-73(%rbp), %cl
	movb	%cl, -25(%rbp)
	movb	-25(%rbp), %cl
	movb	%cl, 1(%rax)
	movb	$1, (%rax)
	jmp	.LBB12_6
.LBB12_9:
	movq	-64(%rbp), %rax
	movq	-88(%rbp), %rcx
	movq	%rcx, 8(%rax)
	movb	$3, (%rax)
	jmp	.LBB12_6
.LBB12_10:
	movq	-56(%rbp), %rax
	addq	$160, %rsp
	popq	%rbp
	retq
.LBB12_11:
	jmp	.LBB12_10
.LBB12_12:
	ud2
	.seh_handlerdata
	.long	($cppxdata$_ZN3std2io5error14repr_bitpacked11decode_repr17ha3f5ffbcfc0d8802E)@IMGREL
	.section	.text,"xr",one_only,_ZN3std2io5error14repr_bitpacked11decode_repr17ha3f5ffbcfc0d8802E
	.seh_endproc
	.def	"?dtor$7@?0?_ZN3std2io5error14repr_bitpacked11decode_repr17ha3f5ffbcfc0d8802E@4HA";
	.scl	3;
	.type	32;
	.endef
	.p2align	4, 0x90
"?dtor$7@?0?_ZN3std2io5error14repr_bitpacked11decode_repr17ha3f5ffbcfc0d8802E@4HA":
.seh_proc "?dtor$7@?0?_ZN3std2io5error14repr_bitpacked11decode_repr17ha3f5ffbcfc0d8802E@4HA"
.LBB12_7:
	movq	%rdx, 16(%rsp)
	pushq	%rbp
	.seh_pushreg %rbp
	subq	$32, %rsp
	.seh_stackalloc 32
	leaq	128(%rdx), %rbp
	.seh_endprologue
	testb	$1, -1(%rbp)
	jne	.LBB12_14
	jmp	.LBB12_13
.LBB12_13:
	addq	$32, %rsp
	popq	%rbp
	retq
.LBB12_14:
	jmp	.LBB12_13
.Lfunc_end2:
	.section	.rdata,"dr",associative,_ZN3std2io5error14repr_bitpacked11decode_repr17ha3f5ffbcfc0d8802E
	.p2align	2, 0x0
.LJTI12_0:
	.long	.LBB12_4-.LJTI12_0
	.long	.LBB12_5-.LJTI12_0
	.long	.LBB12_2-.LJTI12_0
	.long	.LBB12_3-.LJTI12_0
	.seh_handlerdata
	.section	.text,"xr",one_only,_ZN3std2io5error14repr_bitpacked11decode_repr17ha3f5ffbcfc0d8802E
	.seh_endproc
	.section	.xdata,"dr",associative,_ZN3std2io5error14repr_bitpacked11decode_repr17ha3f5ffbcfc0d8802E
	.p2align	2, 0x0
$cppxdata$_ZN3std2io5error14repr_bitpacked11decode_repr17ha3f5ffbcfc0d8802E:
	.long	429065506
	.long	1
	.long	($stateUnwindMap$_ZN3std2io5error14repr_bitpacked11decode_repr17ha3f5ffbcfc0d8802E)@IMGREL
	.long	0
	.long	0
	.long	3
	.long	($ip2state$_ZN3std2io5error14repr_bitpacked11decode_repr17ha3f5ffbcfc0d8802E)@IMGREL
	.long	152
	.long	0
	.long	1
$stateUnwindMap$_ZN3std2io5error14repr_bitpacked11decode_repr17ha3f5ffbcfc0d8802E:
	.long	-1
	.long	"?dtor$7@?0?_ZN3std2io5error14repr_bitpacked11decode_repr17ha3f5ffbcfc0d8802E@4HA"@IMGREL
$ip2state$_ZN3std2io5error14repr_bitpacked11decode_repr17ha3f5ffbcfc0d8802E:
	.long	.Lfunc_begin2@IMGREL
	.long	-1
	.long	.Ltmp12@IMGREL+1
	.long	0
	.long	.Ltmp9@IMGREL+1
	.long	-1
	.section	.text,"xr",one_only,_ZN3std2io5error14repr_bitpacked11decode_repr17ha3f5ffbcfc0d8802E

	.def	_ZN3std2io5error14repr_bitpacked14kind_from_prim17ha481115c32b603fcE;
	.scl	3;
	.type	32;
	.endef
	.section	.text,"xr",one_only,_ZN3std2io5error14repr_bitpacked14kind_from_prim17ha481115c32b603fcE
	.p2align	4, 0x90
_ZN3std2io5error14repr_bitpacked14kind_from_prim17ha481115c32b603fcE:
.seh_proc _ZN3std2io5error14repr_bitpacked14kind_from_prim17ha481115c32b603fcE
	pushq	%rax
	.seh_stackalloc 8
	.seh_endprologue
	movl	%ecx, (%rsp)
	cmpl	$0, (%rsp)
	jne	.LBB13_2
	movb	$0, 7(%rsp)
	jmp	.LBB13_3
.LBB13_2:
	cmpl	$1, (%rsp)
	je	.LBB13_4
	jmp	.LBB13_5
.LBB13_3:
	movb	7(%rsp), %al
	popq	%rcx
	retq
.LBB13_4:
	movb	$1, 7(%rsp)
	jmp	.LBB13_3
.LBB13_5:
	cmpl	$2, (%rsp)
	jne	.LBB13_7
	movb	$2, 7(%rsp)
	jmp	.LBB13_3
.LBB13_7:
	cmpl	$3, (%rsp)
	jne	.LBB13_9
	movb	$3, 7(%rsp)
	jmp	.LBB13_3
.LBB13_9:
	cmpl	$4, (%rsp)
	jne	.LBB13_11
	movb	$4, 7(%rsp)
	jmp	.LBB13_3
.LBB13_11:
	cmpl	$5, (%rsp)
	jne	.LBB13_13
	movb	$5, 7(%rsp)
	jmp	.LBB13_3
.LBB13_13:
	cmpl	$6, (%rsp)
	jne	.LBB13_15
	movb	$6, 7(%rsp)
	jmp	.LBB13_3
.LBB13_15:
	cmpl	$7, (%rsp)
	jne	.LBB13_17
	movb	$7, 7(%rsp)
	jmp	.LBB13_3
.LBB13_17:
	cmpl	$8, (%rsp)
	jne	.LBB13_19
	movb	$8, 7(%rsp)
	jmp	.LBB13_3
.LBB13_19:
	cmpl	$9, (%rsp)
	jne	.LBB13_21
	movb	$9, 7(%rsp)
	jmp	.LBB13_3
.LBB13_21:
	cmpl	$10, (%rsp)
	jne	.LBB13_23
	movb	$10, 7(%rsp)
	jmp	.LBB13_3
.LBB13_23:
	cmpl	$11, (%rsp)
	jne	.LBB13_25
	movb	$11, 7(%rsp)
	jmp	.LBB13_3
.LBB13_25:
	cmpl	$12, (%rsp)
	jne	.LBB13_27
	movb	$12, 7(%rsp)
	jmp	.LBB13_3
.LBB13_27:
	cmpl	$13, (%rsp)
	jne	.LBB13_29
	movb	$13, 7(%rsp)
	jmp	.LBB13_3
.LBB13_29:
	cmpl	$14, (%rsp)
	jne	.LBB13_31
	movb	$14, 7(%rsp)
	jmp	.LBB13_3
.LBB13_31:
	cmpl	$15, (%rsp)
	jne	.LBB13_33
	movb	$15, 7(%rsp)
	jmp	.LBB13_3
.LBB13_33:
	cmpl	$16, (%rsp)
	jne	.LBB13_35
	movb	$16, 7(%rsp)
	jmp	.LBB13_3
.LBB13_35:
	cmpl	$17, (%rsp)
	jne	.LBB13_37
	movb	$17, 7(%rsp)
	jmp	.LBB13_3
.LBB13_37:
	cmpl	$18, (%rsp)
	jne	.LBB13_39
	movb	$18, 7(%rsp)
	jmp	.LBB13_3
.LBB13_39:
	cmpl	$19, (%rsp)
	jne	.LBB13_41
	movb	$19, 7(%rsp)
	jmp	.LBB13_3
.LBB13_41:
	cmpl	$20, (%rsp)
	jne	.LBB13_43
	movb	$20, 7(%rsp)
	jmp	.LBB13_3
.LBB13_43:
	cmpl	$21, (%rsp)
	jne	.LBB13_45
	movb	$21, 7(%rsp)
	jmp	.LBB13_3
.LBB13_45:
	cmpl	$22, (%rsp)
	jne	.LBB13_47
	movb	$22, 7(%rsp)
	jmp	.LBB13_3
.LBB13_47:
	cmpl	$23, (%rsp)
	jne	.LBB13_49
	movb	$23, 7(%rsp)
	jmp	.LBB13_3
.LBB13_49:
	cmpl	$24, (%rsp)
	jne	.LBB13_51
	movb	$24, 7(%rsp)
	jmp	.LBB13_3
.LBB13_51:
	cmpl	$25, (%rsp)
	jne	.LBB13_53
	movb	$25, 7(%rsp)
	jmp	.LBB13_3
.LBB13_53:
	cmpl	$26, (%rsp)
	jne	.LBB13_55
	movb	$26, 7(%rsp)
	jmp	.LBB13_3
.LBB13_55:
	cmpl	$27, (%rsp)
	jne	.LBB13_57
	movb	$27, 7(%rsp)
	jmp	.LBB13_3
.LBB13_57:
	cmpl	$28, (%rsp)
	jne	.LBB13_59
	movb	$28, 7(%rsp)
	jmp	.LBB13_3
.LBB13_59:
	cmpl	$29, (%rsp)
	jne	.LBB13_61
	movb	$29, 7(%rsp)
	jmp	.LBB13_3
.LBB13_61:
	cmpl	$30, (%rsp)
	jne	.LBB13_63
	movb	$30, 7(%rsp)
	jmp	.LBB13_3
.LBB13_63:
	cmpl	$31, (%rsp)
	jne	.LBB13_65
	movb	$31, 7(%rsp)
	jmp	.LBB13_3
.LBB13_65:
	cmpl	$32, (%rsp)
	jne	.LBB13_67
	movb	$32, 7(%rsp)
	jmp	.LBB13_3
.LBB13_67:
	cmpl	$33, (%rsp)
	jne	.LBB13_69
	movb	$33, 7(%rsp)
	jmp	.LBB13_3
.LBB13_69:
	cmpl	$34, (%rsp)
	jne	.LBB13_71
	movb	$34, 7(%rsp)
	jmp	.LBB13_3
.LBB13_71:
	cmpl	$35, (%rsp)
	jne	.LBB13_73
	movb	$35, 7(%rsp)
	jmp	.LBB13_3
.LBB13_73:
	cmpl	$39, (%rsp)
	jne	.LBB13_75
	movb	$39, 7(%rsp)
	jmp	.LBB13_3
.LBB13_75:
	cmpl	$37, (%rsp)
	jne	.LBB13_77
	movb	$37, 7(%rsp)
	jmp	.LBB13_3
.LBB13_77:
	cmpl	$36, (%rsp)
	jne	.LBB13_79
	movb	$36, 7(%rsp)
	jmp	.LBB13_3
.LBB13_79:
	cmpl	$38, (%rsp)
	jne	.LBB13_81
	movb	$38, 7(%rsp)
	jmp	.LBB13_3
.LBB13_81:
	cmpl	$40, (%rsp)
	jne	.LBB13_83
	movb	$40, 7(%rsp)
	jmp	.LBB13_3
.LBB13_83:
	movb	$41, 7(%rsp)
	jmp	.LBB13_3
	.seh_endproc

	.def	_ZN3std2rt10lang_start17h230616a469fab351E;
	.scl	2;
	.type	32;
	.endef
	.section	.text,"xr",one_only,_ZN3std2rt10lang_start17h230616a469fab351E
	.globl	_ZN3std2rt10lang_start17h230616a469fab351E
	.p2align	4, 0x90
_ZN3std2rt10lang_start17h230616a469fab351E:
.seh_proc _ZN3std2rt10lang_start17h230616a469fab351E
	subq	$56, %rsp
	.seh_stackalloc 56
	.seh_endprologue
	movb	%r9b, %al
	movq	%r8, %r9
	movq	%rdx, %r8
	movq	%rcx, 48(%rsp)
	leaq	48(%rsp), %rcx
	leaq	__unnamed_3(%rip), %rdx
	movb	%al, 32(%rsp)
	callq	_ZN3std2rt19lang_start_internal17he5c31dcd30b804c6E
	movq	%rax, 40(%rsp)
	movq	40(%rsp), %rax
	addq	$56, %rsp
	retq
	.seh_endproc

	.def	_ZN3std2rt10lang_start28_$u7b$$u7b$closure$u7d$$u7d$17hdc87a3c0acf223abE;
	.scl	3;
	.type	32;
	.endef
	.section	.text,"xr",one_only,_ZN3std2rt10lang_start28_$u7b$$u7b$closure$u7d$$u7d$17hdc87a3c0acf223abE
	.p2align	4, 0x90
_ZN3std2rt10lang_start28_$u7b$$u7b$closure$u7d$$u7d$17hdc87a3c0acf223abE:
.seh_proc _ZN3std2rt10lang_start28_$u7b$$u7b$closure$u7d$$u7d$17hdc87a3c0acf223abE
	subq	$40, %rsp
	.seh_stackalloc 40
	.seh_endprologue
	movq	(%rcx), %rcx
	callq	_ZN3std10sys_common9backtrace28__rust_begin_short_backtrace17hf147a94c98c65b26E
	callq	_ZN54_$LT$$LP$$RP$$u20$as$u20$std..process..Termination$GT$6report17h8b8e083dcc4e909eE
	movl	%eax, 36(%rsp)
	movl	36(%rsp), %eax
	addq	$40, %rsp
	retq
	.seh_endproc

	.def	_ZN3std3env6var_os17h1968b8bf8480cef0E;
	.scl	3;
	.type	32;
	.endef
	.section	.text,"xr",one_only,_ZN3std3env6var_os17h1968b8bf8480cef0E
	.p2align	4, 0x90
_ZN3std3env6var_os17h1968b8bf8480cef0E:
.Lfunc_begin3:
.seh_proc _ZN3std3env6var_os17h1968b8bf8480cef0E
	.seh_handler __CxxFrameHandler3, @unwind, @except
	pushq	%rbp
	.seh_pushreg %rbp
	subq	$96, %rsp
	.seh_stackalloc 96
	leaq	96(%rsp), %rbp
	.seh_setframe %rbp, 96
	.seh_endprologue
	movq	$-2, -8(%rbp)
	movq	%rcx, -56(%rbp)
	movq	%rcx, -48(%rbp)
	movq	%rdx, -24(%rbp)
	movq	%r8, -16(%rbp)
.Ltmp14:
	leaq	-24(%rbp), %rcx
	callq	_ZN55_$LT$$RF$T$u20$as$u20$core..convert..AsRef$LT$U$GT$$GT$6as_ref17h1d7236a48d238540E
.Ltmp15:
	movq	%rdx, -40(%rbp)
	movq	%rax, -32(%rbp)
	jmp	.LBB16_2
.LBB16_2:
.Ltmp16:
	movq	-40(%rbp), %r8
	movq	-32(%rbp), %rdx
	movq	-56(%rbp), %rcx
	callq	_ZN3std3env7_var_os17heddb1dfbfba09422E
.Ltmp17:
	jmp	.LBB16_3
.LBB16_3:
	movq	-48(%rbp), %rax
	addq	$96, %rsp
	popq	%rbp
	retq
	.seh_handlerdata
	.long	($cppxdata$_ZN3std3env6var_os17h1968b8bf8480cef0E)@IMGREL
	.section	.text,"xr",one_only,_ZN3std3env6var_os17h1968b8bf8480cef0E
	.seh_endproc
	.def	"?dtor$1@?0?_ZN3std3env6var_os17h1968b8bf8480cef0E@4HA";
	.scl	3;
	.type	32;
	.endef
	.p2align	4, 0x90
"?dtor$1@?0?_ZN3std3env6var_os17h1968b8bf8480cef0E@4HA":
.seh_proc "?dtor$1@?0?_ZN3std3env6var_os17h1968b8bf8480cef0E@4HA"
.LBB16_1:
	movq	%rdx, 16(%rsp)
	pushq	%rbp
	.seh_pushreg %rbp
	subq	$32, %rsp
	.seh_stackalloc 32
	leaq	96(%rdx), %rbp
	.seh_endprologue
	addq	$32, %rsp
	popq	%rbp
	retq
.Lfunc_end3:
	.seh_handlerdata
	.section	.text,"xr",one_only,_ZN3std3env6var_os17h1968b8bf8480cef0E
	.seh_endproc
	.section	.xdata,"dr",associative,_ZN3std3env6var_os17h1968b8bf8480cef0E
	.p2align	2, 0x0
$cppxdata$_ZN3std3env6var_os17h1968b8bf8480cef0E:
	.long	429065506
	.long	1
	.long	($stateUnwindMap$_ZN3std3env6var_os17h1968b8bf8480cef0E)@IMGREL
	.long	0
	.long	0
	.long	3
	.long	($ip2state$_ZN3std3env6var_os17h1968b8bf8480cef0E)@IMGREL
	.long	88
	.long	0
	.long	1
$stateUnwindMap$_ZN3std3env6var_os17h1968b8bf8480cef0E:
	.long	-1
	.long	"?dtor$1@?0?_ZN3std3env6var_os17h1968b8bf8480cef0E@4HA"@IMGREL
$ip2state$_ZN3std3env6var_os17h1968b8bf8480cef0E:
	.long	.Lfunc_begin3@IMGREL
	.long	-1
	.long	.Ltmp14@IMGREL+1
	.long	0
	.long	.Ltmp17@IMGREL+1
	.long	-1
	.section	.text,"xr",one_only,_ZN3std3env6var_os17h1968b8bf8480cef0E

	.def	_ZN3std3ffi6os_str5OsStr15to_string_lossy17hc7e01767634b95d8E;
	.scl	3;
	.type	32;
	.endef
	.section	.text,"xr",one_only,_ZN3std3ffi6os_str5OsStr15to_string_lossy17hc7e01767634b95d8E
	.p2align	4, 0x90
_ZN3std3ffi6os_str5OsStr15to_string_lossy17hc7e01767634b95d8E:
.seh_proc _ZN3std3ffi6os_str5OsStr15to_string_lossy17hc7e01767634b95d8E
	subq	$40, %rsp
	.seh_stackalloc 40
	.seh_endprologue
	movq	%rcx, %rax
	movq	%rax, 32(%rsp)
	callq	_ZN3std3sys7windows6os_str5Slice15to_string_lossy17he596b32879238379E
	movq	32(%rsp), %rax
	addq	$40, %rsp
	retq
	.seh_endproc

	.def	_ZN3std3ffi6os_str85_$LT$impl$u20$core..convert..AsRef$LT$std..ffi..os_str..OsStr$GT$$u20$for$u20$str$GT$6as_ref17h0384061aaff8cee6E;
	.scl	3;
	.type	32;
	.endef
	.section	.text,"xr",one_only,_ZN3std3ffi6os_str85_$LT$impl$u20$core..convert..AsRef$LT$std..ffi..os_str..OsStr$GT$$u20$for$u20$str$GT$6as_ref17h0384061aaff8cee6E
	.p2align	4, 0x90
_ZN3std3ffi6os_str85_$LT$impl$u20$core..convert..AsRef$LT$std..ffi..os_str..OsStr$GT$$u20$for$u20$str$GT$6as_ref17h0384061aaff8cee6E:
	movq	%rcx, %rax
	retq

	.def	_ZN3std7process7Command3arg17hb730f3d349e63043E;
	.scl	3;
	.type	32;
	.endef
	.section	.text,"xr",one_only,_ZN3std7process7Command3arg17hb730f3d349e63043E
	.p2align	4, 0x90
_ZN3std7process7Command3arg17hb730f3d349e63043E:
.Lfunc_begin4:
.seh_proc _ZN3std7process7Command3arg17hb730f3d349e63043E
	.seh_handler __CxxFrameHandler3, @unwind, @except
	pushq	%rbp
	.seh_pushreg %rbp
	subq	$80, %rsp
	.seh_stackalloc 80
	leaq	80(%rsp), %rbp
	.seh_setframe %rbp, 80
	.seh_endprologue
	movq	$-2, -8(%rbp)
	movq	%rcx, -48(%rbp)
	movq	%rdx, -24(%rbp)
	movq	%r8, -16(%rbp)
.Ltmp18:
	leaq	-24(%rbp), %rcx
	callq	_ZN55_$LT$$RF$T$u20$as$u20$core..convert..AsRef$LT$U$GT$$GT$6as_ref17h1d7236a48d238540E
.Ltmp19:
	movq	%rdx, -40(%rbp)
	movq	%rax, -32(%rbp)
	jmp	.LBB19_2
.LBB19_2:
.Ltmp20:
	movq	-40(%rbp), %r8
	movq	-32(%rbp), %rdx
	movq	-48(%rbp), %rcx
	callq	_ZN3std3sys7windows7process7Command3arg17hc992cfd30a53c697E
.Ltmp21:
	jmp	.LBB19_3
.LBB19_3:
	movq	-48(%rbp), %rax
	addq	$80, %rsp
	popq	%rbp
	retq
	.seh_handlerdata
	.long	($cppxdata$_ZN3std7process7Command3arg17hb730f3d349e63043E)@IMGREL
	.section	.text,"xr",one_only,_ZN3std7process7Command3arg17hb730f3d349e63043E
	.seh_endproc
	.def	"?dtor$1@?0?_ZN3std7process7Command3arg17hb730f3d349e63043E@4HA";
	.scl	3;
	.type	32;
	.endef
	.p2align	4, 0x90
"?dtor$1@?0?_ZN3std7process7Command3arg17hb730f3d349e63043E@4HA":
.seh_proc "?dtor$1@?0?_ZN3std7process7Command3arg17hb730f3d349e63043E@4HA"
.LBB19_1:
	movq	%rdx, 16(%rsp)
	pushq	%rbp
	.seh_pushreg %rbp
	subq	$32, %rsp
	.seh_stackalloc 32
	leaq	80(%rdx), %rbp
	.seh_endprologue
	addq	$32, %rsp
	popq	%rbp
	retq
.Lfunc_end4:
	.seh_handlerdata
	.section	.text,"xr",one_only,_ZN3std7process7Command3arg17hb730f3d349e63043E
	.seh_endproc
	.section	.xdata,"dr",associative,_ZN3std7process7Command3arg17hb730f3d349e63043E
	.p2align	2, 0x0
$cppxdata$_ZN3std7process7Command3arg17hb730f3d349e63043E:
	.long	429065506
	.long	1
	.long	($stateUnwindMap$_ZN3std7process7Command3arg17hb730f3d349e63043E)@IMGREL
	.long	0
	.long	0
	.long	3
	.long	($ip2state$_ZN3std7process7Command3arg17hb730f3d349e63043E)@IMGREL
	.long	72
	.long	0
	.long	1
$stateUnwindMap$_ZN3std7process7Command3arg17hb730f3d349e63043E:
	.long	-1
	.long	"?dtor$1@?0?_ZN3std7process7Command3arg17hb730f3d349e63043E@4HA"@IMGREL
$ip2state$_ZN3std7process7Command3arg17hb730f3d349e63043E:
	.long	.Lfunc_begin4@IMGREL
	.long	-1
	.long	.Ltmp18@IMGREL+1
	.long	0
	.long	.Ltmp21@IMGREL+1
	.long	-1
	.section	.text,"xr",one_only,_ZN3std7process7Command3arg17hb730f3d349e63043E

	.def	_ZN3std7process7Command3new17h274a6b8b5488d0f7E;
	.scl	3;
	.type	32;
	.endef
	.section	.text,"xr",one_only,_ZN3std7process7Command3new17h274a6b8b5488d0f7E
	.p2align	4, 0x90
_ZN3std7process7Command3new17h274a6b8b5488d0f7E:
.Lfunc_begin5:
.seh_proc _ZN3std7process7Command3new17h274a6b8b5488d0f7E
	.seh_handler __CxxFrameHandler3, @unwind, @except
	pushq	%rbp
	.seh_pushreg %rbp
	subq	$288, %rsp
	.seh_stackalloc 288
	leaq	128(%rsp), %rbp
	.seh_setframe %rbp, 128
	.seh_endprologue
	movq	$-2, 152(%rbp)
	movq	%rdx, -88(%rbp)
	movq	%rcx, %rax
	movq	-88(%rbp), %rcx
	movq	%rax, -80(%rbp)
	movq	%rax, -72(%rbp)
.Ltmp22:
	callq	_ZN98_$LT$std..ffi..os_str..OsString$u20$as$u20$core..convert..AsRef$LT$std..ffi..os_str..OsStr$GT$$GT$6as_ref17h6d15a2d15fed7c5bE
.Ltmp23:
	movq	%rdx, -64(%rbp)
	movq	%rax, -56(%rbp)
	jmp	.LBB20_2
.LBB20_2:
.Ltmp24:
	movq	-64(%rbp), %r8
	movq	-56(%rbp), %rdx
	leaq	-48(%rbp), %rcx
	callq	_ZN3std3sys7windows7process7Command3new17h2610bb65b609f0b0E
.Ltmp25:
	jmp	.LBB20_3
.LBB20_3:
	movq	-80(%rbp), %rcx
	leaq	-48(%rbp), %rdx
	movl	$200, %r8d
	callq	memcpy
	movq	-88(%rbp), %rcx
	callq	_ZN4core3ptr47drop_in_place$LT$std..ffi..os_str..OsString$GT$17h8b7d435157225641E
	movq	-72(%rbp), %rax
	addq	$288, %rsp
	popq	%rbp
	retq
	.seh_handlerdata
	.long	($cppxdata$_ZN3std7process7Command3new17h274a6b8b5488d0f7E)@IMGREL
	.section	.text,"xr",one_only,_ZN3std7process7Command3new17h274a6b8b5488d0f7E
	.seh_endproc
	.def	"?dtor$1@?0?_ZN3std7process7Command3new17h274a6b8b5488d0f7E@4HA";
	.scl	3;
	.type	32;
	.endef
	.p2align	4, 0x90
"?dtor$1@?0?_ZN3std7process7Command3new17h274a6b8b5488d0f7E@4HA":
.seh_proc "?dtor$1@?0?_ZN3std7process7Command3new17h274a6b8b5488d0f7E@4HA"
.LBB20_1:
	movq	%rdx, 16(%rsp)
	pushq	%rbp
	.seh_pushreg %rbp
	subq	$32, %rsp
	.seh_stackalloc 32
	leaq	128(%rdx), %rbp
	.seh_endprologue
	movq	-88(%rbp), %rcx
	callq	_ZN4core3ptr47drop_in_place$LT$std..ffi..os_str..OsString$GT$17h8b7d435157225641E
	nop
	addq	$32, %rsp
	popq	%rbp
	retq
.Lfunc_end5:
	.seh_handlerdata
	.section	.text,"xr",one_only,_ZN3std7process7Command3new17h274a6b8b5488d0f7E
	.seh_endproc
	.section	.xdata,"dr",associative,_ZN3std7process7Command3new17h274a6b8b5488d0f7E
	.p2align	2, 0x0
$cppxdata$_ZN3std7process7Command3new17h274a6b8b5488d0f7E:
	.long	429065506
	.long	1
	.long	($stateUnwindMap$_ZN3std7process7Command3new17h274a6b8b5488d0f7E)@IMGREL
	.long	0
	.long	0
	.long	3
	.long	($ip2state$_ZN3std7process7Command3new17h274a6b8b5488d0f7E)@IMGREL
	.long	280
	.long	0
	.long	1
$stateUnwindMap$_ZN3std7process7Command3new17h274a6b8b5488d0f7E:
	.long	-1
	.long	"?dtor$1@?0?_ZN3std7process7Command3new17h274a6b8b5488d0f7E@4HA"@IMGREL
$ip2state$_ZN3std7process7Command3new17h274a6b8b5488d0f7E:
	.long	.Lfunc_begin5@IMGREL
	.long	-1
	.long	.Ltmp22@IMGREL+1
	.long	0
	.long	.Ltmp25@IMGREL+1
	.long	-1
	.section	.text,"xr",one_only,_ZN3std7process7Command3new17h274a6b8b5488d0f7E

	.def	_ZN49_$LT$usize$u20$as$u20$core..iter..range..Step$GT$17forward_unchecked17h8716c1e1d8e01e15E;
	.scl	3;
	.type	32;
	.endef
	.section	.text,"xr",one_only,_ZN49_$LT$usize$u20$as$u20$core..iter..range..Step$GT$17forward_unchecked17h8716c1e1d8e01e15E
	.p2align	4, 0x90
_ZN49_$LT$usize$u20$as$u20$core..iter..range..Step$GT$17forward_unchecked17h8716c1e1d8e01e15E:
	movq	%rcx, %rax
	addq	%rdx, %rax
	retq

	.def	_ZN49_$LT$usize$u20$as$u20$core..iter..range..Step$GT$18backward_unchecked17hb66ec9b478b2a585E;
	.scl	3;
	.type	32;
	.endef
	.section	.text,"xr",one_only,_ZN49_$LT$usize$u20$as$u20$core..iter..range..Step$GT$18backward_unchecked17hb66ec9b478b2a585E
	.p2align	4, 0x90
_ZN49_$LT$usize$u20$as$u20$core..iter..range..Step$GT$18backward_unchecked17hb66ec9b478b2a585E:
	movq	%rcx, %rax
	subq	%rdx, %rax
	retq

	.def	_ZN4core3cmp5impls50_$LT$impl$u20$core..cmp..Ord$u20$for$u20$usize$GT$3cmp17ha341a907b9ff28e4E;
	.scl	3;
	.type	32;
	.endef
	.section	.text,"xr",one_only,_ZN4core3cmp5impls50_$LT$impl$u20$core..cmp..Ord$u20$for$u20$usize$GT$3cmp17ha341a907b9ff28e4E
	.p2align	4, 0x90
_ZN4core3cmp5impls50_$LT$impl$u20$core..cmp..Ord$u20$for$u20$usize$GT$3cmp17ha341a907b9ff28e4E:
.seh_proc _ZN4core3cmp5impls50_$LT$impl$u20$core..cmp..Ord$u20$for$u20$usize$GT$3cmp17ha341a907b9ff28e4E
	subq	$24, %rsp
	.seh_stackalloc 24
	.seh_endprologue
	movq	%rdx, (%rsp)
	movq	%rcx, 8(%rsp)
	movq	(%rcx), %rax
	cmpq	(%rdx), %rax
	jb	.LBB23_2
	movq	(%rsp), %rcx
	movq	8(%rsp), %rax
	movq	(%rax), %rax
	cmpq	(%rcx), %rax
	je	.LBB23_4
	jmp	.LBB23_3
.LBB23_2:
	movb	$-1, 23(%rsp)
	jmp	.LBB23_6
.LBB23_3:
	movb	$1, 23(%rsp)
	jmp	.LBB23_5
.LBB23_4:
	movb	$0, 23(%rsp)
.LBB23_5:
	jmp	.LBB23_6
.LBB23_6:
	movb	23(%rsp), %al
	addq	$24, %rsp
	retq
	.seh_endproc

	.def	_ZN4core3cmp5impls59_$LT$impl$u20$core..cmp..PartialEq$u20$for$u20$$LP$$RP$$GT$2eq17h667e8afa7f0895b3E;
	.scl	3;
	.type	32;
	.endef
	.section	.text,"xr",one_only,_ZN4core3cmp5impls59_$LT$impl$u20$core..cmp..PartialEq$u20$for$u20$$LP$$RP$$GT$2eq17h667e8afa7f0895b3E
	.p2align	4, 0x90
_ZN4core3cmp5impls59_$LT$impl$u20$core..cmp..PartialEq$u20$for$u20$$LP$$RP$$GT$2eq17h667e8afa7f0895b3E:
	movb	$1, %al
	andb	$1, %al
	movzbl	%al, %eax
	retq

	.def	_ZN4core3cmp5impls69_$LT$impl$u20$core..cmp..PartialEq$LT$$RF$B$GT$$u20$for$u20$$RF$A$GT$2eq17h78692417196f59a6E;
	.scl	3;
	.type	32;
	.endef
	.section	.text,"xr",one_only,_ZN4core3cmp5impls69_$LT$impl$u20$core..cmp..PartialEq$LT$$RF$B$GT$$u20$for$u20$$RF$A$GT$2eq17h78692417196f59a6E
	.p2align	4, 0x90
_ZN4core3cmp5impls69_$LT$impl$u20$core..cmp..PartialEq$LT$$RF$B$GT$$u20$for$u20$$RF$A$GT$2eq17h78692417196f59a6E:
.seh_proc _ZN4core3cmp5impls69_$LT$impl$u20$core..cmp..PartialEq$LT$$RF$B$GT$$u20$for$u20$$RF$A$GT$2eq17h78692417196f59a6E
	subq	$40, %rsp
	.seh_stackalloc 40
	.seh_endprologue
	movq	%rdx, %rax
	movq	%rcx, %rdx
	movq	(%rdx), %rcx
	movq	8(%rdx), %rdx
	movq	(%rax), %r8
	movq	8(%rax), %r9
	callq	_ZN4core3str6traits54_$LT$impl$u20$core..cmp..PartialEq$u20$for$u20$str$GT$2eq17hde8e68b5ae6ee0d7E
	andb	$1, %al
	movzbl	%al, %eax
	addq	$40, %rsp
	retq
	.seh_endproc

	.def	_ZN4core3cmp6max_by17h43e0fe90a1f39210E;
	.scl	3;
	.type	32;
	.endef
	.section	.text,"xr",one_only,_ZN4core3cmp6max_by17h43e0fe90a1f39210E
	.p2align	4, 0x90
_ZN4core3cmp6max_by17h43e0fe90a1f39210E:
.Lfunc_begin6:
.seh_proc _ZN4core3cmp6max_by17h43e0fe90a1f39210E
	.seh_handler __CxxFrameHandler3, @unwind, @except
	pushq	%rbp
	.seh_pushreg %rbp
	subq	$112, %rsp
	.seh_stackalloc 112
	leaq	112(%rsp), %rbp
	.seh_setframe %rbp, 112
	.seh_endprologue
	movq	$-2, -8(%rbp)
	movq	%rcx, -64(%rbp)
	movq	%rdx, -56(%rbp)
	movb	$1, -9(%rbp)
	movb	$1, -10(%rbp)
	leaq	-64(%rbp), %rax
	movq	%rax, -32(%rbp)
	leaq	-56(%rbp), %rax
	movq	%rax, -24(%rbp)
	movq	-32(%rbp), %rcx
	movq	-24(%rbp), %rdx
.Ltmp26:
	callq	_ZN4core3ops8function6FnOnce9call_once17h8c8c2a49376ec1f6E
.Ltmp27:
	movb	%al, -65(%rbp)
	jmp	.LBB26_2
.LBB26_2:
	movb	-65(%rbp), %al
	movb	%al, -33(%rbp)
	movb	-33(%rbp), %al
	incb	%al
	subb	$2, %al
	jb	.LBB26_4
	jmp	.LBB26_14
.LBB26_14:
	jmp	.LBB26_5
	ud2
.LBB26_4:
	movb	$0, -10(%rbp)
	movq	-56(%rbp), %rax
	movq	%rax, -48(%rbp)
	jmp	.LBB26_6
.LBB26_5:
	movb	$0, -9(%rbp)
	movq	-64(%rbp), %rax
	movq	%rax, -48(%rbp)
.LBB26_6:
	testb	$1, -10(%rbp)
	jne	.LBB26_8
.LBB26_7:
	testb	$1, -9(%rbp)
	jne	.LBB26_10
	jmp	.LBB26_9
.LBB26_8:
	jmp	.LBB26_7
.LBB26_9:
	movq	-48(%rbp), %rax
	addq	$112, %rsp
	popq	%rbp
	retq
.LBB26_10:
	jmp	.LBB26_9
	.seh_handlerdata
	.long	($cppxdata$_ZN4core3cmp6max_by17h43e0fe90a1f39210E)@IMGREL
	.section	.text,"xr",one_only,_ZN4core3cmp6max_by17h43e0fe90a1f39210E
	.seh_endproc
	.def	"?dtor$1@?0?_ZN4core3cmp6max_by17h43e0fe90a1f39210E@4HA";
	.scl	3;
	.type	32;
	.endef
	.p2align	4, 0x90
"?dtor$1@?0?_ZN4core3cmp6max_by17h43e0fe90a1f39210E@4HA":
.seh_proc "?dtor$1@?0?_ZN4core3cmp6max_by17h43e0fe90a1f39210E@4HA"
.LBB26_1:
	movq	%rdx, 16(%rsp)
	pushq	%rbp
	.seh_pushreg %rbp
	subq	$32, %rsp
	.seh_stackalloc 32
	leaq	112(%rdx), %rbp
	.seh_endprologue
	addq	$32, %rsp
	popq	%rbp
	retq
	.seh_handlerdata
	.section	.text,"xr",one_only,_ZN4core3cmp6max_by17h43e0fe90a1f39210E
	.seh_endproc
	.def	"?dtor$11@?0?_ZN4core3cmp6max_by17h43e0fe90a1f39210E@4HA";
	.scl	3;
	.type	32;
	.endef
	.p2align	4, 0x90
"?dtor$11@?0?_ZN4core3cmp6max_by17h43e0fe90a1f39210E@4HA":
.seh_proc "?dtor$11@?0?_ZN4core3cmp6max_by17h43e0fe90a1f39210E@4HA"
.LBB26_11:
	movq	%rdx, 16(%rsp)
	pushq	%rbp
	.seh_pushreg %rbp
	subq	$32, %rsp
	.seh_stackalloc 32
	leaq	112(%rdx), %rbp
	.seh_endprologue
	testb	$1, -9(%rbp)
	jne	.LBB26_13
.LBB26_12:
	addq	$32, %rsp
	popq	%rbp
	retq
.LBB26_13:
	jmp	.LBB26_12
.Lfunc_end6:
	.seh_handlerdata
	.section	.text,"xr",one_only,_ZN4core3cmp6max_by17h43e0fe90a1f39210E
	.seh_endproc
	.section	.xdata,"dr",associative,_ZN4core3cmp6max_by17h43e0fe90a1f39210E
	.p2align	2, 0x0
$cppxdata$_ZN4core3cmp6max_by17h43e0fe90a1f39210E:
	.long	429065506
	.long	2
	.long	($stateUnwindMap$_ZN4core3cmp6max_by17h43e0fe90a1f39210E)@IMGREL
	.long	0
	.long	0
	.long	3
	.long	($ip2state$_ZN4core3cmp6max_by17h43e0fe90a1f39210E)@IMGREL
	.long	104
	.long	0
	.long	1
$stateUnwindMap$_ZN4core3cmp6max_by17h43e0fe90a1f39210E:
	.long	-1
	.long	"?dtor$11@?0?_ZN4core3cmp6max_by17h43e0fe90a1f39210E@4HA"@IMGREL
	.long	0
	.long	"?dtor$1@?0?_ZN4core3cmp6max_by17h43e0fe90a1f39210E@4HA"@IMGREL
$ip2state$_ZN4core3cmp6max_by17h43e0fe90a1f39210E:
	.long	.Lfunc_begin6@IMGREL
	.long	-1
	.long	.Ltmp26@IMGREL+1
	.long	1
	.long	.Ltmp27@IMGREL+1
	.long	-1
	.section	.text,"xr",one_only,_ZN4core3cmp6max_by17h43e0fe90a1f39210E

	.def	_ZN4core3cmp6min_by17h3e168e589c2e3530E;
	.scl	3;
	.type	32;
	.endef
	.section	.text,"xr",one_only,_ZN4core3cmp6min_by17h3e168e589c2e3530E
	.p2align	4, 0x90
_ZN4core3cmp6min_by17h3e168e589c2e3530E:
.Lfunc_begin7:
.seh_proc _ZN4core3cmp6min_by17h3e168e589c2e3530E
	.seh_handler __CxxFrameHandler3, @unwind, @except
	pushq	%rbp
	.seh_pushreg %rbp
	subq	$112, %rsp
	.seh_stackalloc 112
	leaq	112(%rsp), %rbp
	.seh_setframe %rbp, 112
	.seh_endprologue
	movq	$-2, -8(%rbp)
	movq	%rcx, -64(%rbp)
	movq	%rdx, -56(%rbp)
	movb	$1, -9(%rbp)
	movb	$1, -10(%rbp)
	leaq	-64(%rbp), %rax
	movq	%rax, -32(%rbp)
	leaq	-56(%rbp), %rax
	movq	%rax, -24(%rbp)
	movq	-32(%rbp), %rcx
	movq	-24(%rbp), %rdx
.Ltmp28:
	callq	_ZN4core3ops8function6FnOnce9call_once17h8c8c2a49376ec1f6E
.Ltmp29:
	movb	%al, -65(%rbp)
	jmp	.LBB27_2
.LBB27_2:
	movb	-65(%rbp), %al
	movb	%al, -33(%rbp)
	movb	-33(%rbp), %al
	incb	%al
	subb	$2, %al
	jb	.LBB27_4
	jmp	.LBB27_14
.LBB27_14:
	jmp	.LBB27_5
	ud2
.LBB27_4:
	movb	$0, -9(%rbp)
	movq	-64(%rbp), %rax
	movq	%rax, -48(%rbp)
	jmp	.LBB27_6
.LBB27_5:
	movb	$0, -10(%rbp)
	movq	-56(%rbp), %rax
	movq	%rax, -48(%rbp)
.LBB27_6:
	testb	$1, -10(%rbp)
	jne	.LBB27_8
.LBB27_7:
	testb	$1, -9(%rbp)
	jne	.LBB27_10
	jmp	.LBB27_9
.LBB27_8:
	jmp	.LBB27_7
.LBB27_9:
	movq	-48(%rbp), %rax
	addq	$112, %rsp
	popq	%rbp
	retq
.LBB27_10:
	jmp	.LBB27_9
	.seh_handlerdata
	.long	($cppxdata$_ZN4core3cmp6min_by17h3e168e589c2e3530E)@IMGREL
	.section	.text,"xr",one_only,_ZN4core3cmp6min_by17h3e168e589c2e3530E
	.seh_endproc
	.def	"?dtor$1@?0?_ZN4core3cmp6min_by17h3e168e589c2e3530E@4HA";
	.scl	3;
	.type	32;
	.endef
	.p2align	4, 0x90
"?dtor$1@?0?_ZN4core3cmp6min_by17h3e168e589c2e3530E@4HA":
.seh_proc "?dtor$1@?0?_ZN4core3cmp6min_by17h3e168e589c2e3530E@4HA"
.LBB27_1:
	movq	%rdx, 16(%rsp)
	pushq	%rbp
	.seh_pushreg %rbp
	subq	$32, %rsp
	.seh_stackalloc 32
	leaq	112(%rdx), %rbp
	.seh_endprologue
	addq	$32, %rsp
	popq	%rbp
	retq
	.seh_handlerdata
	.section	.text,"xr",one_only,_ZN4core3cmp6min_by17h3e168e589c2e3530E
	.seh_endproc
	.def	"?dtor$11@?0?_ZN4core3cmp6min_by17h3e168e589c2e3530E@4HA";
	.scl	3;
	.type	32;
	.endef
	.p2align	4, 0x90
"?dtor$11@?0?_ZN4core3cmp6min_by17h3e168e589c2e3530E@4HA":
.seh_proc "?dtor$11@?0?_ZN4core3cmp6min_by17h3e168e589c2e3530E@4HA"
.LBB27_11:
	movq	%rdx, 16(%rsp)
	pushq	%rbp
	.seh_pushreg %rbp
	subq	$32, %rsp
	.seh_stackalloc 32
	leaq	112(%rdx), %rbp
	.seh_endprologue
	testb	$1, -9(%rbp)
	jne	.LBB27_13
.LBB27_12:
	addq	$32, %rsp
	popq	%rbp
	retq
.LBB27_13:
	jmp	.LBB27_12
.Lfunc_end7:
	.seh_handlerdata
	.section	.text,"xr",one_only,_ZN4core3cmp6min_by17h3e168e589c2e3530E
	.seh_endproc
	.section	.xdata,"dr",associative,_ZN4core3cmp6min_by17h3e168e589c2e3530E
	.p2align	2, 0x0
$cppxdata$_ZN4core3cmp6min_by17h3e168e589c2e3530E:
	.long	429065506
	.long	2
	.long	($stateUnwindMap$_ZN4core3cmp6min_by17h3e168e589c2e3530E)@IMGREL
	.long	0
	.long	0
	.long	3
	.long	($ip2state$_ZN4core3cmp6min_by17h3e168e589c2e3530E)@IMGREL
	.long	104
	.long	0
	.long	1
$stateUnwindMap$_ZN4core3cmp6min_by17h3e168e589c2e3530E:
	.long	-1
	.long	"?dtor$11@?0?_ZN4core3cmp6min_by17h3e168e589c2e3530E@4HA"@IMGREL
	.long	0
	.long	"?dtor$1@?0?_ZN4core3cmp6min_by17h3e168e589c2e3530E@4HA"@IMGREL
$ip2state$_ZN4core3cmp6min_by17h3e168e589c2e3530E:
	.long	.Lfunc_begin7@IMGREL
	.long	-1
	.long	.Ltmp28@IMGREL+1
	.long	1
	.long	.Ltmp29@IMGREL+1
	.long	-1
	.section	.text,"xr",one_only,_ZN4core3cmp6min_by17h3e168e589c2e3530E

	.def	_ZN4core3cmp9PartialEq2ne17h019ba8ea865665b5E;
	.scl	3;
	.type	32;
	.endef
	.section	.text,"xr",one_only,_ZN4core3cmp9PartialEq2ne17h019ba8ea865665b5E
	.p2align	4, 0x90
_ZN4core3cmp9PartialEq2ne17h019ba8ea865665b5E:
.seh_proc _ZN4core3cmp9PartialEq2ne17h019ba8ea865665b5E
	subq	$40, %rsp
	.seh_stackalloc 40
	.seh_endprologue
	callq	_ZN70_$LT$core..option..Option$LT$T$GT$$u20$as$u20$core..cmp..PartialEq$GT$2eq17h216b86c18ca8def1E
	xorb	$-1, %al
	andb	$1, %al
	movzbl	%al, %eax
	addq	$40, %rsp
	retq
	.seh_endproc

	.def	_ZN4core3fmt9Arguments6new_v117h1df34898d17270b1E;
	.scl	3;
	.type	32;
	.endef
	.section	.text,"xr",one_only,_ZN4core3fmt9Arguments6new_v117h1df34898d17270b1E
	.p2align	4, 0x90
_ZN4core3fmt9Arguments6new_v117h1df34898d17270b1E:
.seh_proc _ZN4core3fmt9Arguments6new_v117h1df34898d17270b1E
	subq	$168, %rsp
	.seh_stackalloc 168
	.seh_endprologue
	movq	%r9, 40(%rsp)
	movq	%r8, 48(%rsp)
	movq	%rdx, 56(%rsp)
	movq	%rcx, 64(%rsp)
	movq	%rcx, 72(%rsp)
	movq	208(%rsp), %rax
	movq	%rax, 80(%rsp)
	cmpq	%rax, %r8
	jb	.LBB29_2
	movq	48(%rsp), %rax
	movq	80(%rsp), %rcx
	addq	$1, %rcx
	cmpq	%rcx, %rax
	ja	.LBB29_4
	jmp	.LBB29_3
.LBB29_2:
	jmp	.LBB29_4
.LBB29_3:
	movq	72(%rsp), %rax
	movq	64(%rsp), %rcx
	movq	80(%rsp), %rdx
	movq	40(%rsp), %r8
	movq	48(%rsp), %r9
	movq	56(%rsp), %r10
	movq	$0, 136(%rsp)
	movq	%r10, (%rcx)
	movq	%r9, 8(%rcx)
	movq	136(%rsp), %r10
	movq	144(%rsp), %r9
	movq	%r10, 32(%rcx)
	movq	%r9, 40(%rcx)
	movq	%r8, 16(%rcx)
	movq	%rdx, 24(%rcx)
	addq	$168, %rsp
	retq
.LBB29_4:
	movq	$0, 152(%rsp)
	leaq	__unnamed_4(%rip), %rax
	movq	%rax, 88(%rsp)
	movq	$1, 96(%rsp)
	movq	152(%rsp), %rcx
	movq	160(%rsp), %rax
	movq	%rcx, 120(%rsp)
	movq	%rax, 128(%rsp)
	leaq	__unnamed_5(%rip), %rax
	movq	%rax, 104(%rsp)
	movq	$0, 112(%rsp)
	leaq	__unnamed_6(%rip), %rdx
	leaq	88(%rsp), %rcx
	callq	_ZN4core9panicking9panic_fmt17hdbb75bebc22f3408E
	int3
	.seh_endproc

	.def	_ZN4core3fmt9Arguments9new_const17hf8e95474d26f3be3E;
	.scl	3;
	.type	32;
	.endef
	.section	.text,"xr",one_only,_ZN4core3fmt9Arguments9new_const17hf8e95474d26f3be3E
	.p2align	4, 0x90
_ZN4core3fmt9Arguments9new_const17hf8e95474d26f3be3E:
.seh_proc _ZN4core3fmt9Arguments9new_const17hf8e95474d26f3be3E
	subq	$136, %rsp
	.seh_stackalloc 136
	.seh_endprologue
	movq	%r8, 40(%rsp)
	movq	%rdx, 48(%rsp)
	movq	%rcx, 56(%rsp)
	movq	%rcx, 64(%rsp)
	cmpq	$1, %r8
	ja	.LBB30_2
	movq	64(%rsp), %rax
	movq	56(%rsp), %rcx
	movq	40(%rsp), %rdx
	movq	48(%rsp), %r8
	movq	$0, 120(%rsp)
	movq	%r8, (%rcx)
	movq	%rdx, 8(%rcx)
	movq	120(%rsp), %r8
	movq	128(%rsp), %rdx
	movq	%r8, 32(%rcx)
	movq	%rdx, 40(%rcx)
	leaq	__unnamed_5(%rip), %rdx
	movq	%rdx, 16(%rcx)
	movq	$0, 24(%rcx)
	addq	$136, %rsp
	retq
.LBB30_2:
	leaq	__unnamed_4(%rip), %rdx
	leaq	72(%rsp), %rcx
	movq	%rcx, 32(%rsp)
	movl	$1, %r8d
	callq	_ZN4core3fmt9Arguments9new_const17hf8e95474d26f3be3E
	movq	32(%rsp), %rcx
	leaq	__unnamed_7(%rip), %rdx
	callq	_ZN4core9panicking9panic_fmt17hdbb75bebc22f3408E
	int3
	.seh_endproc

	.def	_ZN4core3ops8function6FnOnce40call_once$u7b$$u7b$vtable.shim$u7d$$u7d$17h23a1df57fc80c26fE;
	.scl	3;
	.type	32;
	.endef
	.section	.text,"xr",one_only,_ZN4core3ops8function6FnOnce40call_once$u7b$$u7b$vtable.shim$u7d$$u7d$17h23a1df57fc80c26fE
	.p2align	4, 0x90
_ZN4core3ops8function6FnOnce40call_once$u7b$$u7b$vtable.shim$u7d$$u7d$17h23a1df57fc80c26fE:
.seh_proc _ZN4core3ops8function6FnOnce40call_once$u7b$$u7b$vtable.shim$u7d$$u7d$17h23a1df57fc80c26fE
	subq	$40, %rsp
	.seh_stackalloc 40
	.seh_endprologue
	movq	(%rcx), %rcx
	callq	_ZN4core3ops8function6FnOnce9call_once17h18f294558224fa65E
	nop
	addq	$40, %rsp
	retq
	.seh_endproc

	.def	_ZN4core3ops8function6FnOnce9call_once17h18f294558224fa65E;
	.scl	3;
	.type	32;
	.endef
	.section	.text,"xr",one_only,_ZN4core3ops8function6FnOnce9call_once17h18f294558224fa65E
	.p2align	4, 0x90
_ZN4core3ops8function6FnOnce9call_once17h18f294558224fa65E:
.Lfunc_begin8:
.seh_proc _ZN4core3ops8function6FnOnce9call_once17h18f294558224fa65E
	.seh_handler __CxxFrameHandler3, @unwind, @except
	pushq	%rbp
	.seh_pushreg %rbp
	subq	$64, %rsp
	.seh_stackalloc 64
	leaq	64(%rsp), %rbp
	.seh_setframe %rbp, 64
	.seh_endprologue
	movq	$-2, -8(%rbp)
	movq	%rcx, -16(%rbp)
.Ltmp30:
	leaq	-16(%rbp), %rcx
	callq	_ZN3std2rt10lang_start28_$u7b$$u7b$closure$u7d$$u7d$17hdc87a3c0acf223abE
.Ltmp31:
	movl	%eax, -20(%rbp)
	jmp	.LBB32_2
.LBB32_2:
	movl	-20(%rbp), %eax
	addq	$64, %rsp
	popq	%rbp
	retq
	.seh_handlerdata
	.long	($cppxdata$_ZN4core3ops8function6FnOnce9call_once17h18f294558224fa65E)@IMGREL
	.section	.text,"xr",one_only,_ZN4core3ops8function6FnOnce9call_once17h18f294558224fa65E
	.seh_endproc
	.def	"?dtor$1@?0?_ZN4core3ops8function6FnOnce9call_once17h18f294558224fa65E@4HA";
	.scl	3;
	.type	32;
	.endef
	.p2align	4, 0x90
"?dtor$1@?0?_ZN4core3ops8function6FnOnce9call_once17h18f294558224fa65E@4HA":
.seh_proc "?dtor$1@?0?_ZN4core3ops8function6FnOnce9call_once17h18f294558224fa65E@4HA"
.LBB32_1:
	movq	%rdx, 16(%rsp)
	pushq	%rbp
	.seh_pushreg %rbp
	subq	$32, %rsp
	.seh_stackalloc 32
	leaq	64(%rdx), %rbp
	.seh_endprologue
	addq	$32, %rsp
	popq	%rbp
	retq
.Lfunc_end8:
	.seh_handlerdata
	.section	.text,"xr",one_only,_ZN4core3ops8function6FnOnce9call_once17h18f294558224fa65E
	.seh_endproc
	.section	.xdata,"dr",associative,_ZN4core3ops8function6FnOnce9call_once17h18f294558224fa65E
	.p2align	2, 0x0
$cppxdata$_ZN4core3ops8function6FnOnce9call_once17h18f294558224fa65E:
	.long	429065506
	.long	1
	.long	($stateUnwindMap$_ZN4core3ops8function6FnOnce9call_once17h18f294558224fa65E)@IMGREL
	.long	0
	.long	0
	.long	3
	.long	($ip2state$_ZN4core3ops8function6FnOnce9call_once17h18f294558224fa65E)@IMGREL
	.long	56
	.long	0
	.long	1
$stateUnwindMap$_ZN4core3ops8function6FnOnce9call_once17h18f294558224fa65E:
	.long	-1
	.long	"?dtor$1@?0?_ZN4core3ops8function6FnOnce9call_once17h18f294558224fa65E@4HA"@IMGREL
$ip2state$_ZN4core3ops8function6FnOnce9call_once17h18f294558224fa65E:
	.long	.Lfunc_begin8@IMGREL
	.long	-1
	.long	.Ltmp30@IMGREL+1
	.long	0
	.long	.Ltmp31@IMGREL+1
	.long	-1
	.section	.text,"xr",one_only,_ZN4core3ops8function6FnOnce9call_once17h18f294558224fa65E

	.def	_ZN4core3ops8function6FnOnce9call_once17h8c8c2a49376ec1f6E;
	.scl	3;
	.type	32;
	.endef
	.section	.text,"xr",one_only,_ZN4core3ops8function6FnOnce9call_once17h8c8c2a49376ec1f6E
	.p2align	4, 0x90
_ZN4core3ops8function6FnOnce9call_once17h8c8c2a49376ec1f6E:
.seh_proc _ZN4core3ops8function6FnOnce9call_once17h8c8c2a49376ec1f6E
	subq	$56, %rsp
	.seh_stackalloc 56
	.seh_endprologue
	movq	%rcx, 40(%rsp)
	movq	%rdx, 48(%rsp)
	movq	40(%rsp), %rcx
	movq	48(%rsp), %rdx
	callq	_ZN4core3cmp5impls50_$LT$impl$u20$core..cmp..Ord$u20$for$u20$usize$GT$3cmp17ha341a907b9ff28e4E
	nop
	addq	$56, %rsp
	retq
	.seh_endproc

	.def	_ZN4core3ops8function6FnOnce9call_once17h932d93c1674bc8ceE;
	.scl	3;
	.type	32;
	.endef
	.section	.text,"xr",one_only,_ZN4core3ops8function6FnOnce9call_once17h932d93c1674bc8ceE
	.p2align	4, 0x90
_ZN4core3ops8function6FnOnce9call_once17h932d93c1674bc8ceE:
.seh_proc _ZN4core3ops8function6FnOnce9call_once17h932d93c1674bc8ceE
	subq	$40, %rsp
	.seh_stackalloc 40
	.seh_endprologue
	callq	*%rcx
	nop
	addq	$40, %rsp
	retq
	.seh_endproc

	.def	_ZN4core3ptr101drop_in_place$LT$std..io..error..ErrorData$LT$alloc..boxed..Box$LT$std..io..error..Custom$GT$$GT$$GT$17hfdd5b2a6c8ff3958E;
	.scl	3;
	.type	32;
	.endef
	.section	.text,"xr",one_only,_ZN4core3ptr101drop_in_place$LT$std..io..error..ErrorData$LT$alloc..boxed..Box$LT$std..io..error..Custom$GT$$GT$$GT$17hfdd5b2a6c8ff3958E
	.p2align	4, 0x90
_ZN4core3ptr101drop_in_place$LT$std..io..error..ErrorData$LT$alloc..boxed..Box$LT$std..io..error..Custom$GT$$GT$$GT$17hfdd5b2a6c8ff3958E:
.seh_proc _ZN4core3ptr101drop_in_place$LT$std..io..error..ErrorData$LT$alloc..boxed..Box$LT$std..io..error..Custom$GT$$GT$$GT$17hfdd5b2a6c8ff3958E
	subq	$40, %rsp
	.seh_stackalloc 40
	.seh_endprologue
	movq	%rcx, 32(%rsp)
	movb	(%rcx), %al
	subb	$3, %al
	jb	.LBB35_2
	jmp	.LBB35_1
.LBB35_1:
	movq	32(%rsp), %rcx
	addq	$8, %rcx
	callq	_ZN4core3ptr68drop_in_place$LT$alloc..boxed..Box$LT$std..io..error..Custom$GT$$GT$17h2d7e9d465946ed3fE
.LBB35_2:
	nop
	addq	$40, %rsp
	retq
	.seh_endproc

	.def	_ZN4core3ptr118drop_in_place$LT$alloc..boxed..Box$LT$dyn$u20$core..error..Error$u2b$core..marker..Send$u2b$core..marker..Sync$GT$$GT$17h4385df16d054a685E;
	.scl	3;
	.type	32;
	.endef
	.section	.text,"xr",one_only,_ZN4core3ptr118drop_in_place$LT$alloc..boxed..Box$LT$dyn$u20$core..error..Error$u2b$core..marker..Send$u2b$core..marker..Sync$GT$$GT$17h4385df16d054a685E
	.p2align	4, 0x90
_ZN4core3ptr118drop_in_place$LT$alloc..boxed..Box$LT$dyn$u20$core..error..Error$u2b$core..marker..Send$u2b$core..marker..Sync$GT$$GT$17h4385df16d054a685E:
.Lfunc_begin9:
.seh_proc _ZN4core3ptr118drop_in_place$LT$alloc..boxed..Box$LT$dyn$u20$core..error..Error$u2b$core..marker..Send$u2b$core..marker..Sync$GT$$GT$17h4385df16d054a685E
	.seh_handler __CxxFrameHandler3, @unwind, @except
	pushq	%rbp
	.seh_pushreg %rbp
	subq	$48, %rsp
	.seh_stackalloc 48
	leaq	48(%rsp), %rbp
	.seh_setframe %rbp, 48
	.seh_endprologue
	movq	$-2, -8(%rbp)
	movq	%rcx, %rax
	movq	%rax, -16(%rbp)
	movq	(%rax), %rcx
	movq	8(%rax), %rax
	movq	(%rax), %rax
.Ltmp32:
	callq	*%rax
.Ltmp33:
	jmp	.LBB36_2
.LBB36_2:
	movq	-16(%rbp), %rcx
	callq	_ZN72_$LT$alloc..boxed..Box$LT$T$C$A$GT$$u20$as$u20$core..ops..drop..Drop$GT$4drop17h2ff91362430c152fE
	nop
	addq	$48, %rsp
	popq	%rbp
	retq
	.seh_handlerdata
	.long	($cppxdata$_ZN4core3ptr118drop_in_place$LT$alloc..boxed..Box$LT$dyn$u20$core..error..Error$u2b$core..marker..Send$u2b$core..marker..Sync$GT$$GT$17h4385df16d054a685E)@IMGREL
	.section	.text,"xr",one_only,_ZN4core3ptr118drop_in_place$LT$alloc..boxed..Box$LT$dyn$u20$core..error..Error$u2b$core..marker..Send$u2b$core..marker..Sync$GT$$GT$17h4385df16d054a685E
	.seh_endproc
	.def	"?dtor$1@?0?_ZN4core3ptr118drop_in_place$LT$alloc..boxed..Box$LT$dyn$u20$core..error..Error$u2b$core..marker..Send$u2b$core..marker..Sync$GT$$GT$17h4385df16d054a685E@4HA";
	.scl	3;
	.type	32;
	.endef
	.p2align	4, 0x90
"?dtor$1@?0?_ZN4core3ptr118drop_in_place$LT$alloc..boxed..Box$LT$dyn$u20$core..error..Error$u2b$core..marker..Send$u2b$core..marker..Sync$GT$$GT$17h4385df16d054a685E@4HA":
.seh_proc "?dtor$1@?0?_ZN4core3ptr118drop_in_place$LT$alloc..boxed..Box$LT$dyn$u20$core..error..Error$u2b$core..marker..Send$u2b$core..marker..Sync$GT$$GT$17h4385df16d054a685E@4HA"
.LBB36_1:
	movq	%rdx, 16(%rsp)
	pushq	%rbp
	.seh_pushreg %rbp
	subq	$32, %rsp
	.seh_stackalloc 32
	leaq	48(%rdx), %rbp
	.seh_endprologue
	movq	-16(%rbp), %rcx
	callq	_ZN72_$LT$alloc..boxed..Box$LT$T$C$A$GT$$u20$as$u20$core..ops..drop..Drop$GT$4drop17h2ff91362430c152fE
	nop
	addq	$32, %rsp
	popq	%rbp
	retq
.Lfunc_end9:
	.seh_handlerdata
	.section	.text,"xr",one_only,_ZN4core3ptr118drop_in_place$LT$alloc..boxed..Box$LT$dyn$u20$core..error..Error$u2b$core..marker..Send$u2b$core..marker..Sync$GT$$GT$17h4385df16d054a685E
	.seh_endproc
	.section	.xdata,"dr",associative,_ZN4core3ptr118drop_in_place$LT$alloc..boxed..Box$LT$dyn$u20$core..error..Error$u2b$core..marker..Send$u2b$core..marker..Sync$GT$$GT$17h4385df16d054a685E
	.p2align	2, 0x0
$cppxdata$_ZN4core3ptr118drop_in_place$LT$alloc..boxed..Box$LT$dyn$u20$core..error..Error$u2b$core..marker..Send$u2b$core..marker..Sync$GT$$GT$17h4385df16d054a685E:
	.long	429065506
	.long	1
	.long	($stateUnwindMap$_ZN4core3ptr118drop_in_place$LT$alloc..boxed..Box$LT$dyn$u20$core..error..Error$u2b$core..marker..Send$u2b$core..marker..Sync$GT$$GT$17h4385df16d054a685E)@IMGREL
	.long	0
	.long	0
	.long	3
	.long	($ip2state$_ZN4core3ptr118drop_in_place$LT$alloc..boxed..Box$LT$dyn$u20$core..error..Error$u2b$core..marker..Send$u2b$core..marker..Sync$GT$$GT$17h4385df16d054a685E)@IMGREL
	.long	40
	.long	0
	.long	1
$stateUnwindMap$_ZN4core3ptr118drop_in_place$LT$alloc..boxed..Box$LT$dyn$u20$core..error..Error$u2b$core..marker..Send$u2b$core..marker..Sync$GT$$GT$17h4385df16d054a685E:
	.long	-1
	.long	"?dtor$1@?0?_ZN4core3ptr118drop_in_place$LT$alloc..boxed..Box$LT$dyn$u20$core..error..Error$u2b$core..marker..Send$u2b$core..marker..Sync$GT$$GT$17h4385df16d054a685E@4HA"@IMGREL
$ip2state$_ZN4core3ptr118drop_in_place$LT$alloc..boxed..Box$LT$dyn$u20$core..error..Error$u2b$core..marker..Send$u2b$core..marker..Sync$GT$$GT$17h4385df16d054a685E:
	.long	.Lfunc_begin9@IMGREL
	.long	-1
	.long	.Ltmp32@IMGREL+1
	.long	0
	.long	.Ltmp33@IMGREL+1
	.long	-1
	.section	.text,"xr",one_only,_ZN4core3ptr118drop_in_place$LT$alloc..boxed..Box$LT$dyn$u20$core..error..Error$u2b$core..marker..Send$u2b$core..marker..Sync$GT$$GT$17h4385df16d054a685E

	.def	_ZN4core3ptr129drop_in_place$LT$alloc..collections..btree..map..BTreeMap$LT$usize$C$std..sys..windows..process..ProcThreadAttributeValue$GT$$GT$17h023101faccca7c38E;
	.scl	3;
	.type	32;
	.endef
	.section	.text,"xr",one_only,_ZN4core3ptr129drop_in_place$LT$alloc..collections..btree..map..BTreeMap$LT$usize$C$std..sys..windows..process..ProcThreadAttributeValue$GT$$GT$17h023101faccca7c38E
	.p2align	4, 0x90
_ZN4core3ptr129drop_in_place$LT$alloc..collections..btree..map..BTreeMap$LT$usize$C$std..sys..windows..process..ProcThreadAttributeValue$GT$$GT$17h023101faccca7c38E:
.seh_proc _ZN4core3ptr129drop_in_place$LT$alloc..collections..btree..map..BTreeMap$LT$usize$C$std..sys..windows..process..ProcThreadAttributeValue$GT$$GT$17h023101faccca7c38E
	subq	$40, %rsp
	.seh_stackalloc 40
	.seh_endprologue
	callq	_ZN99_$LT$alloc..collections..btree..map..BTreeMap$LT$K$C$V$C$A$GT$$u20$as$u20$core..ops..drop..Drop$GT$4drop17haf53b8bebb69c511E
	nop
	addq	$40, %rsp
	retq
	.seh_endproc

	.def	_ZN4core3ptr129drop_in_place$LT$alloc..collections..btree..map..IntoIter$LT$usize$C$std..sys..windows..process..ProcThreadAttributeValue$GT$$GT$17hba322bdff81c62f9E;
	.scl	3;
	.type	32;
	.endef
	.section	.text,"xr",one_only,_ZN4core3ptr129drop_in_place$LT$alloc..collections..btree..map..IntoIter$LT$usize$C$std..sys..windows..process..ProcThreadAttributeValue$GT$$GT$17hba322bdff81c62f9E
	.p2align	4, 0x90
_ZN4core3ptr129drop_in_place$LT$alloc..collections..btree..map..IntoIter$LT$usize$C$std..sys..windows..process..ProcThreadAttributeValue$GT$$GT$17hba322bdff81c62f9E:
.seh_proc _ZN4core3ptr129drop_in_place$LT$alloc..collections..btree..map..IntoIter$LT$usize$C$std..sys..windows..process..ProcThreadAttributeValue$GT$$GT$17hba322bdff81c62f9E
	subq	$40, %rsp
	.seh_stackalloc 40
	.seh_endprologue
	callq	_ZN99_$LT$alloc..collections..btree..map..IntoIter$LT$K$C$V$C$A$GT$$u20$as$u20$core..ops..drop..Drop$GT$4drop17hed6726984e39ec93E
	nop
	addq	$40, %rsp
	retq
	.seh_endproc

	.def	_ZN4core3ptr160drop_in_place$LT$alloc..collections..btree..map..BTreeMap$LT$std..sys..windows..process..EnvKey$C$core..option..Option$LT$std..ffi..os_str..OsString$GT$$GT$$GT$17h1ebbe0995113b25dE;
	.scl	3;
	.type	32;
	.endef
	.section	.text,"xr",one_only,_ZN4core3ptr160drop_in_place$LT$alloc..collections..btree..map..BTreeMap$LT$std..sys..windows..process..EnvKey$C$core..option..Option$LT$std..ffi..os_str..OsString$GT$$GT$$GT$17h1ebbe0995113b25dE
	.p2align	4, 0x90
_ZN4core3ptr160drop_in_place$LT$alloc..collections..btree..map..BTreeMap$LT$std..sys..windows..process..EnvKey$C$core..option..Option$LT$std..ffi..os_str..OsString$GT$$GT$$GT$17h1ebbe0995113b25dE:
.seh_proc _ZN4core3ptr160drop_in_place$LT$alloc..collections..btree..map..BTreeMap$LT$std..sys..windows..process..EnvKey$C$core..option..Option$LT$std..ffi..os_str..OsString$GT$$GT$$GT$17h1ebbe0995113b25dE
	subq	$40, %rsp
	.seh_stackalloc 40
	.seh_endprologue
	callq	_ZN99_$LT$alloc..collections..btree..map..BTreeMap$LT$K$C$V$C$A$GT$$u20$as$u20$core..ops..drop..Drop$GT$4drop17h931f75fbf90c353bE
	nop
	addq	$40, %rsp
	retq
	.seh_endproc

	.def	_ZN4core3ptr160drop_in_place$LT$alloc..collections..btree..map..IntoIter$LT$std..sys..windows..process..EnvKey$C$core..option..Option$LT$std..ffi..os_str..OsString$GT$$GT$$GT$17h5b548816333e50bfE;
	.scl	3;
	.type	32;
	.endef
	.section	.text,"xr",one_only,_ZN4core3ptr160drop_in_place$LT$alloc..collections..btree..map..IntoIter$LT$std..sys..windows..process..EnvKey$C$core..option..Option$LT$std..ffi..os_str..OsString$GT$$GT$$GT$17h5b548816333e50bfE
	.p2align	4, 0x90
_ZN4core3ptr160drop_in_place$LT$alloc..collections..btree..map..IntoIter$LT$std..sys..windows..process..EnvKey$C$core..option..Option$LT$std..ffi..os_str..OsString$GT$$GT$$GT$17h5b548816333e50bfE:
.seh_proc _ZN4core3ptr160drop_in_place$LT$alloc..collections..btree..map..IntoIter$LT$std..sys..windows..process..EnvKey$C$core..option..Option$LT$std..ffi..os_str..OsString$GT$$GT$$GT$17h5b548816333e50bfE
	subq	$40, %rsp
	.seh_stackalloc 40
	.seh_endprologue
	callq	_ZN99_$LT$alloc..collections..btree..map..IntoIter$LT$K$C$V$C$A$GT$$u20$as$u20$core..ops..drop..Drop$GT$4drop17hc67fafb01624bb6aE
	nop
	addq	$40, %rsp
	retq
	.seh_endproc

	.def	_ZN4core3ptr227drop_in_place$LT$$LT$alloc..collections..btree..map..IntoIter$LT$K$C$V$C$A$GT$$u20$as$u20$core..ops..drop..Drop$GT$..drop..DropGuard$LT$usize$C$std..sys..windows..process..ProcThreadAttributeValue$C$alloc..alloc..Global$GT$$GT$17h62bca9eab42ac482E;
	.scl	3;
	.type	32;
	.endef
	.section	.text,"xr",one_only,_ZN4core3ptr227drop_in_place$LT$$LT$alloc..collections..btree..map..IntoIter$LT$K$C$V$C$A$GT$$u20$as$u20$core..ops..drop..Drop$GT$..drop..DropGuard$LT$usize$C$std..sys..windows..process..ProcThreadAttributeValue$C$alloc..alloc..Global$GT$$GT$17h62bca9eab42ac482E
	.p2align	4, 0x90
_ZN4core3ptr227drop_in_place$LT$$LT$alloc..collections..btree..map..IntoIter$LT$K$C$V$C$A$GT$$u20$as$u20$core..ops..drop..Drop$GT$..drop..DropGuard$LT$usize$C$std..sys..windows..process..ProcThreadAttributeValue$C$alloc..alloc..Global$GT$$GT$17h62bca9eab42ac482E:
.seh_proc _ZN4core3ptr227drop_in_place$LT$$LT$alloc..collections..btree..map..IntoIter$LT$K$C$V$C$A$GT$$u20$as$u20$core..ops..drop..Drop$GT$..drop..DropGuard$LT$usize$C$std..sys..windows..process..ProcThreadAttributeValue$C$alloc..alloc..Global$GT$$GT$17h62bca9eab42ac482E
	subq	$40, %rsp
	.seh_stackalloc 40
	.seh_endprologue
	callq	_ZN174_$LT$$LT$alloc..collections..btree..map..IntoIter$LT$K$C$V$C$A$GT$$u20$as$u20$core..ops..drop..Drop$GT$..drop..DropGuard$LT$K$C$V$C$A$GT$$u20$as$u20$core..ops..drop..Drop$GT$4drop17h9a87809790e05963E
	nop
	addq	$40, %rsp
	retq
	.seh_endproc

	.def	_ZN4core3ptr258drop_in_place$LT$$LT$alloc..collections..btree..map..IntoIter$LT$K$C$V$C$A$GT$$u20$as$u20$core..ops..drop..Drop$GT$..drop..DropGuard$LT$std..sys..windows..process..EnvKey$C$core..option..Option$LT$std..ffi..os_str..OsString$GT$$C$alloc..alloc..Global$GT$$GT$17h4584c296f046c387E;
	.scl	3;
	.type	32;
	.endef
	.section	.text,"xr",one_only,_ZN4core3ptr258drop_in_place$LT$$LT$alloc..collections..btree..map..IntoIter$LT$K$C$V$C$A$GT$$u20$as$u20$core..ops..drop..Drop$GT$..drop..DropGuard$LT$std..sys..windows..process..EnvKey$C$core..option..Option$LT$std..ffi..os_str..OsString$GT$$C$alloc..alloc..Global$GT$$GT$17h4584c296f046c387E
	.p2align	4, 0x90
_ZN4core3ptr258drop_in_place$LT$$LT$alloc..collections..btree..map..IntoIter$LT$K$C$V$C$A$GT$$u20$as$u20$core..ops..drop..Drop$GT$..drop..DropGuard$LT$std..sys..windows..process..EnvKey$C$core..option..Option$LT$std..ffi..os_str..OsString$GT$$C$alloc..alloc..Global$GT$$GT$17h4584c296f046c387E:
.seh_proc _ZN4core3ptr258drop_in_place$LT$$LT$alloc..collections..btree..map..IntoIter$LT$K$C$V$C$A$GT$$u20$as$u20$core..ops..drop..Drop$GT$..drop..DropGuard$LT$std..sys..windows..process..EnvKey$C$core..option..Option$LT$std..ffi..os_str..OsString$GT$$C$alloc..alloc..Global$GT$$GT$17h4584c296f046c387E
	subq	$40, %rsp
	.seh_stackalloc 40
	.seh_endprologue
	callq	_ZN174_$LT$$LT$alloc..collections..btree..map..IntoIter$LT$K$C$V$C$A$GT$$u20$as$u20$core..ops..drop..Drop$GT$..drop..DropGuard$LT$K$C$V$C$A$GT$$u20$as$u20$core..ops..drop..Drop$GT$4drop17hb3dcd6d6e4387031E
	nop
	addq	$40, %rsp
	retq
	.seh_endproc

	.def	_ZN4core3ptr41drop_in_place$LT$std..process..Output$GT$17h04d9089dddfff39cE;
	.scl	3;
	.type	32;
	.endef
	.section	.text,"xr",one_only,_ZN4core3ptr41drop_in_place$LT$std..process..Output$GT$17h04d9089dddfff39cE
	.p2align	4, 0x90
_ZN4core3ptr41drop_in_place$LT$std..process..Output$GT$17h04d9089dddfff39cE:
.Lfunc_begin10:
.seh_proc _ZN4core3ptr41drop_in_place$LT$std..process..Output$GT$17h04d9089dddfff39cE
	.seh_handler __CxxFrameHandler3, @unwind, @except
	pushq	%rbp
	.seh_pushreg %rbp
	subq	$48, %rsp
	.seh_stackalloc 48
	leaq	48(%rsp), %rbp
	.seh_setframe %rbp, 48
	.seh_endprologue
	movq	$-2, -8(%rbp)
	movq	%rcx, -16(%rbp)
.Ltmp34:
	callq	_ZN4core3ptr46drop_in_place$LT$alloc..vec..Vec$LT$u8$GT$$GT$17hddd8d873d7a4fab7E
.Ltmp35:
	jmp	.LBB43_2
.LBB43_2:
	movq	-16(%rbp), %rcx
	addq	$24, %rcx
	callq	_ZN4core3ptr46drop_in_place$LT$alloc..vec..Vec$LT$u8$GT$$GT$17hddd8d873d7a4fab7E
	nop
	addq	$48, %rsp
	popq	%rbp
	retq
	.seh_handlerdata
	.long	($cppxdata$_ZN4core3ptr41drop_in_place$LT$std..process..Output$GT$17h04d9089dddfff39cE)@IMGREL
	.section	.text,"xr",one_only,_ZN4core3ptr41drop_in_place$LT$std..process..Output$GT$17h04d9089dddfff39cE
	.seh_endproc
	.def	"?dtor$1@?0?_ZN4core3ptr41drop_in_place$LT$std..process..Output$GT$17h04d9089dddfff39cE@4HA";
	.scl	3;
	.type	32;
	.endef
	.p2align	4, 0x90
"?dtor$1@?0?_ZN4core3ptr41drop_in_place$LT$std..process..Output$GT$17h04d9089dddfff39cE@4HA":
.seh_proc "?dtor$1@?0?_ZN4core3ptr41drop_in_place$LT$std..process..Output$GT$17h04d9089dddfff39cE@4HA"
.LBB43_1:
	movq	%rdx, 16(%rsp)
	pushq	%rbp
	.seh_pushreg %rbp
	subq	$32, %rsp
	.seh_stackalloc 32
	leaq	48(%rdx), %rbp
	.seh_endprologue
	movq	-16(%rbp), %rcx
	addq	$24, %rcx
	callq	_ZN4core3ptr46drop_in_place$LT$alloc..vec..Vec$LT$u8$GT$$GT$17hddd8d873d7a4fab7E
	nop
	addq	$32, %rsp
	popq	%rbp
	retq
.Lfunc_end10:
	.seh_handlerdata
	.section	.text,"xr",one_only,_ZN4core3ptr41drop_in_place$LT$std..process..Output$GT$17h04d9089dddfff39cE
	.seh_endproc
	.section	.xdata,"dr",associative,_ZN4core3ptr41drop_in_place$LT$std..process..Output$GT$17h04d9089dddfff39cE
	.p2align	2, 0x0
$cppxdata$_ZN4core3ptr41drop_in_place$LT$std..process..Output$GT$17h04d9089dddfff39cE:
	.long	429065506
	.long	1
	.long	($stateUnwindMap$_ZN4core3ptr41drop_in_place$LT$std..process..Output$GT$17h04d9089dddfff39cE)@IMGREL
	.long	0
	.long	0
	.long	3
	.long	($ip2state$_ZN4core3ptr41drop_in_place$LT$std..process..Output$GT$17h04d9089dddfff39cE)@IMGREL
	.long	40
	.long	0
	.long	1
$stateUnwindMap$_ZN4core3ptr41drop_in_place$LT$std..process..Output$GT$17h04d9089dddfff39cE:
	.long	-1
	.long	"?dtor$1@?0?_ZN4core3ptr41drop_in_place$LT$std..process..Output$GT$17h04d9089dddfff39cE@4HA"@IMGREL
$ip2state$_ZN4core3ptr41drop_in_place$LT$std..process..Output$GT$17h04d9089dddfff39cE:
	.long	.Lfunc_begin10@IMGREL
	.long	-1
	.long	.Ltmp34@IMGREL+1
	.long	0
	.long	.Ltmp35@IMGREL+1
	.long	-1
	.section	.text,"xr",one_only,_ZN4core3ptr41drop_in_place$LT$std..process..Output$GT$17h04d9089dddfff39cE

	.def	_ZN4core3ptr42drop_in_place$LT$alloc..string..String$GT$17h88a649be7814c0b9E;
	.scl	3;
	.type	32;
	.endef
	.section	.text,"xr",one_only,_ZN4core3ptr42drop_in_place$LT$alloc..string..String$GT$17h88a649be7814c0b9E
	.p2align	4, 0x90
_ZN4core3ptr42drop_in_place$LT$alloc..string..String$GT$17h88a649be7814c0b9E:
.seh_proc _ZN4core3ptr42drop_in_place$LT$alloc..string..String$GT$17h88a649be7814c0b9E
	subq	$40, %rsp
	.seh_stackalloc 40
	.seh_endprologue
	callq	_ZN4core3ptr46drop_in_place$LT$alloc..vec..Vec$LT$u8$GT$$GT$17hddd8d873d7a4fab7E
	nop
	addq	$40, %rsp
	retq
	.seh_endproc

	.def	_ZN4core3ptr42drop_in_place$LT$std..io..error..Error$GT$17h666c4a9a1d1508fcE;
	.scl	3;
	.type	32;
	.endef
	.section	.text,"xr",one_only,_ZN4core3ptr42drop_in_place$LT$std..io..error..Error$GT$17h666c4a9a1d1508fcE
	.p2align	4, 0x90
_ZN4core3ptr42drop_in_place$LT$std..io..error..Error$GT$17h666c4a9a1d1508fcE:
.seh_proc _ZN4core3ptr42drop_in_place$LT$std..io..error..Error$GT$17h666c4a9a1d1508fcE
	subq	$40, %rsp
	.seh_stackalloc 40
	.seh_endprologue
	callq	_ZN4core3ptr57drop_in_place$LT$std..io..error..repr_bitpacked..Repr$GT$17h189149eacee231dcE
	nop
	addq	$40, %rsp
	retq
	.seh_endproc

	.def	_ZN4core3ptr42drop_in_place$LT$std..process..Command$GT$17he6cdeb0d106e662bE;
	.scl	3;
	.type	32;
	.endef
	.section	.text,"xr",one_only,_ZN4core3ptr42drop_in_place$LT$std..process..Command$GT$17he6cdeb0d106e662bE
	.p2align	4, 0x90
_ZN4core3ptr42drop_in_place$LT$std..process..Command$GT$17he6cdeb0d106e662bE:
.seh_proc _ZN4core3ptr42drop_in_place$LT$std..process..Command$GT$17he6cdeb0d106e662bE
	subq	$40, %rsp
	.seh_stackalloc 40
	.seh_endprologue
	callq	_ZN4core3ptr56drop_in_place$LT$std..sys..windows..process..Command$GT$17h1e50b883c0f15335E
	nop
	addq	$40, %rsp
	retq
	.seh_endproc

	.def	_ZN4core3ptr43drop_in_place$LT$std..io..error..Custom$GT$17ha01c3bad2808073eE;
	.scl	3;
	.type	32;
	.endef
	.section	.text,"xr",one_only,_ZN4core3ptr43drop_in_place$LT$std..io..error..Custom$GT$17ha01c3bad2808073eE
	.p2align	4, 0x90
_ZN4core3ptr43drop_in_place$LT$std..io..error..Custom$GT$17ha01c3bad2808073eE:
.seh_proc _ZN4core3ptr43drop_in_place$LT$std..io..error..Custom$GT$17ha01c3bad2808073eE
	subq	$40, %rsp
	.seh_stackalloc 40
	.seh_endprologue
	callq	_ZN4core3ptr118drop_in_place$LT$alloc..boxed..Box$LT$dyn$u20$core..error..Error$u2b$core..marker..Send$u2b$core..marker..Sync$GT$$GT$17h4385df16d054a685E
	nop
	addq	$40, %rsp
	retq
	.seh_endproc

	.def	_ZN4core3ptr46drop_in_place$LT$alloc..vec..Vec$LT$u8$GT$$GT$17hddd8d873d7a4fab7E;
	.scl	3;
	.type	32;
	.endef
	.section	.text,"xr",one_only,_ZN4core3ptr46drop_in_place$LT$alloc..vec..Vec$LT$u8$GT$$GT$17hddd8d873d7a4fab7E
	.p2align	4, 0x90
_ZN4core3ptr46drop_in_place$LT$alloc..vec..Vec$LT$u8$GT$$GT$17hddd8d873d7a4fab7E:
.Lfunc_begin11:
.seh_proc _ZN4core3ptr46drop_in_place$LT$alloc..vec..Vec$LT$u8$GT$$GT$17hddd8d873d7a4fab7E
	.seh_handler __CxxFrameHandler3, @unwind, @except
	pushq	%rbp
	.seh_pushreg %rbp
	subq	$48, %rsp
	.seh_stackalloc 48
	leaq	48(%rsp), %rbp
	.seh_setframe %rbp, 48
	.seh_endprologue
	movq	$-2, -8(%rbp)
	movq	%rcx, -16(%rbp)
.Ltmp36:
	callq	_ZN70_$LT$alloc..vec..Vec$LT$T$C$A$GT$$u20$as$u20$core..ops..drop..Drop$GT$4drop17h40890ae44fc98500E
.Ltmp37:
	jmp	.LBB48_2
.LBB48_2:
	movq	-16(%rbp), %rcx
	callq	_ZN4core3ptr53drop_in_place$LT$alloc..raw_vec..RawVec$LT$u8$GT$$GT$17hba2a2690ecd2111fE
	nop
	addq	$48, %rsp
	popq	%rbp
	retq
	.seh_handlerdata
	.long	($cppxdata$_ZN4core3ptr46drop_in_place$LT$alloc..vec..Vec$LT$u8$GT$$GT$17hddd8d873d7a4fab7E)@IMGREL
	.section	.text,"xr",one_only,_ZN4core3ptr46drop_in_place$LT$alloc..vec..Vec$LT$u8$GT$$GT$17hddd8d873d7a4fab7E
	.seh_endproc
	.def	"?dtor$1@?0?_ZN4core3ptr46drop_in_place$LT$alloc..vec..Vec$LT$u8$GT$$GT$17hddd8d873d7a4fab7E@4HA";
	.scl	3;
	.type	32;
	.endef
	.p2align	4, 0x90
"?dtor$1@?0?_ZN4core3ptr46drop_in_place$LT$alloc..vec..Vec$LT$u8$GT$$GT$17hddd8d873d7a4fab7E@4HA":
.seh_proc "?dtor$1@?0?_ZN4core3ptr46drop_in_place$LT$alloc..vec..Vec$LT$u8$GT$$GT$17hddd8d873d7a4fab7E@4HA"
.LBB48_1:
	movq	%rdx, 16(%rsp)
	pushq	%rbp
	.seh_pushreg %rbp
	subq	$32, %rsp
	.seh_stackalloc 32
	leaq	48(%rdx), %rbp
	.seh_endprologue
	movq	-16(%rbp), %rcx
	callq	_ZN4core3ptr53drop_in_place$LT$alloc..raw_vec..RawVec$LT$u8$GT$$GT$17hba2a2690ecd2111fE
	nop
	addq	$32, %rsp
	popq	%rbp
	retq
.Lfunc_end11:
	.seh_handlerdata
	.section	.text,"xr",one_only,_ZN4core3ptr46drop_in_place$LT$alloc..vec..Vec$LT$u8$GT$$GT$17hddd8d873d7a4fab7E
	.seh_endproc
	.section	.xdata,"dr",associative,_ZN4core3ptr46drop_in_place$LT$alloc..vec..Vec$LT$u8$GT$$GT$17hddd8d873d7a4fab7E
	.p2align	2, 0x0
$cppxdata$_ZN4core3ptr46drop_in_place$LT$alloc..vec..Vec$LT$u8$GT$$GT$17hddd8d873d7a4fab7E:
	.long	429065506
	.long	1
	.long	($stateUnwindMap$_ZN4core3ptr46drop_in_place$LT$alloc..vec..Vec$LT$u8$GT$$GT$17hddd8d873d7a4fab7E)@IMGREL
	.long	0
	.long	0
	.long	3
	.long	($ip2state$_ZN4core3ptr46drop_in_place$LT$alloc..vec..Vec$LT$u8$GT$$GT$17hddd8d873d7a4fab7E)@IMGREL
	.long	40
	.long	0
	.long	1
$stateUnwindMap$_ZN4core3ptr46drop_in_place$LT$alloc..vec..Vec$LT$u8$GT$$GT$17hddd8d873d7a4fab7E:
	.long	-1
	.long	"?dtor$1@?0?_ZN4core3ptr46drop_in_place$LT$alloc..vec..Vec$LT$u8$GT$$GT$17hddd8d873d7a4fab7E@4HA"@IMGREL
$ip2state$_ZN4core3ptr46drop_in_place$LT$alloc..vec..Vec$LT$u8$GT$$GT$17hddd8d873d7a4fab7E:
	.long	.Lfunc_begin11@IMGREL
	.long	-1
	.long	.Ltmp36@IMGREL+1
	.long	0
	.long	.Ltmp37@IMGREL+1
	.long	-1
	.section	.text,"xr",one_only,_ZN4core3ptr46drop_in_place$LT$alloc..vec..Vec$LT$u8$GT$$GT$17hddd8d873d7a4fab7E

	.def	_ZN4core3ptr47drop_in_place$LT$alloc..vec..Vec$LT$u16$GT$$GT$17h35754b9f711fc8a1E;
	.scl	3;
	.type	32;
	.endef
	.section	.text,"xr",one_only,_ZN4core3ptr47drop_in_place$LT$alloc..vec..Vec$LT$u16$GT$$GT$17h35754b9f711fc8a1E
	.p2align	4, 0x90
_ZN4core3ptr47drop_in_place$LT$alloc..vec..Vec$LT$u16$GT$$GT$17h35754b9f711fc8a1E:
.Lfunc_begin12:
.seh_proc _ZN4core3ptr47drop_in_place$LT$alloc..vec..Vec$LT$u16$GT$$GT$17h35754b9f711fc8a1E
	.seh_handler __CxxFrameHandler3, @unwind, @except
	pushq	%rbp
	.seh_pushreg %rbp
	subq	$48, %rsp
	.seh_stackalloc 48
	leaq	48(%rsp), %rbp
	.seh_setframe %rbp, 48
	.seh_endprologue
	movq	$-2, -8(%rbp)
	movq	%rcx, -16(%rbp)
.Ltmp38:
	callq	_ZN70_$LT$alloc..vec..Vec$LT$T$C$A$GT$$u20$as$u20$core..ops..drop..Drop$GT$4drop17hdc08a53b3cbeb9faE
.Ltmp39:
	jmp	.LBB49_2
.LBB49_2:
	movq	-16(%rbp), %rcx
	callq	_ZN4core3ptr54drop_in_place$LT$alloc..raw_vec..RawVec$LT$u16$GT$$GT$17h6bf236cb89c967bfE
	nop
	addq	$48, %rsp
	popq	%rbp
	retq
	.seh_handlerdata
	.long	($cppxdata$_ZN4core3ptr47drop_in_place$LT$alloc..vec..Vec$LT$u16$GT$$GT$17h35754b9f711fc8a1E)@IMGREL
	.section	.text,"xr",one_only,_ZN4core3ptr47drop_in_place$LT$alloc..vec..Vec$LT$u16$GT$$GT$17h35754b9f711fc8a1E
	.seh_endproc
	.def	"?dtor$1@?0?_ZN4core3ptr47drop_in_place$LT$alloc..vec..Vec$LT$u16$GT$$GT$17h35754b9f711fc8a1E@4HA";
	.scl	3;
	.type	32;
	.endef
	.p2align	4, 0x90
"?dtor$1@?0?_ZN4core3ptr47drop_in_place$LT$alloc..vec..Vec$LT$u16$GT$$GT$17h35754b9f711fc8a1E@4HA":
.seh_proc "?dtor$1@?0?_ZN4core3ptr47drop_in_place$LT$alloc..vec..Vec$LT$u16$GT$$GT$17h35754b9f711fc8a1E@4HA"
.LBB49_1:
	movq	%rdx, 16(%rsp)
	pushq	%rbp
	.seh_pushreg %rbp
	subq	$32, %rsp
	.seh_stackalloc 32
	leaq	48(%rdx), %rbp
	.seh_endprologue
	movq	-16(%rbp), %rcx
	callq	_ZN4core3ptr54drop_in_place$LT$alloc..raw_vec..RawVec$LT$u16$GT$$GT$17h6bf236cb89c967bfE
	nop
	addq	$32, %rsp
	popq	%rbp
	retq
.Lfunc_end12:
	.seh_handlerdata
	.section	.text,"xr",one_only,_ZN4core3ptr47drop_in_place$LT$alloc..vec..Vec$LT$u16$GT$$GT$17h35754b9f711fc8a1E
	.seh_endproc
	.section	.xdata,"dr",associative,_ZN4core3ptr47drop_in_place$LT$alloc..vec..Vec$LT$u16$GT$$GT$17h35754b9f711fc8a1E
	.p2align	2, 0x0
$cppxdata$_ZN4core3ptr47drop_in_place$LT$alloc..vec..Vec$LT$u16$GT$$GT$17h35754b9f711fc8a1E:
	.long	429065506
	.long	1
	.long	($stateUnwindMap$_ZN4core3ptr47drop_in_place$LT$alloc..vec..Vec$LT$u16$GT$$GT$17h35754b9f711fc8a1E)@IMGREL
	.long	0
	.long	0
	.long	3
	.long	($ip2state$_ZN4core3ptr47drop_in_place$LT$alloc..vec..Vec$LT$u16$GT$$GT$17h35754b9f711fc8a1E)@IMGREL
	.long	40
	.long	0
	.long	1
$stateUnwindMap$_ZN4core3ptr47drop_in_place$LT$alloc..vec..Vec$LT$u16$GT$$GT$17h35754b9f711fc8a1E:
	.long	-1
	.long	"?dtor$1@?0?_ZN4core3ptr47drop_in_place$LT$alloc..vec..Vec$LT$u16$GT$$GT$17h35754b9f711fc8a1E@4HA"@IMGREL
$ip2state$_ZN4core3ptr47drop_in_place$LT$alloc..vec..Vec$LT$u16$GT$$GT$17h35754b9f711fc8a1E:
	.long	.Lfunc_begin12@IMGREL
	.long	-1
	.long	.Ltmp38@IMGREL+1
	.long	0
	.long	.Ltmp39@IMGREL+1
	.long	-1
	.section	.text,"xr",one_only,_ZN4core3ptr47drop_in_place$LT$alloc..vec..Vec$LT$u16$GT$$GT$17h35754b9f711fc8a1E

	.def	_ZN4core3ptr47drop_in_place$LT$std..ffi..os_str..OsString$GT$17h8b7d435157225641E;
	.scl	3;
	.type	32;
	.endef
	.section	.text,"xr",one_only,_ZN4core3ptr47drop_in_place$LT$std..ffi..os_str..OsString$GT$17h8b7d435157225641E
	.p2align	4, 0x90
_ZN4core3ptr47drop_in_place$LT$std..ffi..os_str..OsString$GT$17h8b7d435157225641E:
.seh_proc _ZN4core3ptr47drop_in_place$LT$std..ffi..os_str..OsString$GT$17h8b7d435157225641E
	subq	$40, %rsp
	.seh_stackalloc 40
	.seh_endprologue
	callq	_ZN4core3ptr51drop_in_place$LT$std..sys..windows..os_str..Buf$GT$17he1df5d5816bceb95E
	nop
	addq	$40, %rsp
	retq
	.seh_endproc

	.def	_ZN4core3ptr49drop_in_place$LT$std..sys..windows..args..Arg$GT$17hdb59ee2d5233a42eE;
	.scl	3;
	.type	32;
	.endef
	.section	.text,"xr",one_only,_ZN4core3ptr49drop_in_place$LT$std..sys..windows..args..Arg$GT$17hdb59ee2d5233a42eE
	.p2align	4, 0x90
_ZN4core3ptr49drop_in_place$LT$std..sys..windows..args..Arg$GT$17hdb59ee2d5233a42eE:
.seh_proc _ZN4core3ptr49drop_in_place$LT$std..sys..windows..args..Arg$GT$17hdb59ee2d5233a42eE
	subq	$40, %rsp
	.seh_stackalloc 40
	.seh_endprologue
	movq	%rcx, 32(%rsp)
	cmpq	$0, (%rcx)
	jne	.LBB51_2
	movq	32(%rsp), %rcx
	addq	$8, %rcx
	callq	_ZN4core3ptr47drop_in_place$LT$std..ffi..os_str..OsString$GT$17h8b7d435157225641E
	jmp	.LBB51_3
.LBB51_2:
	movq	32(%rsp), %rcx
	addq	$8, %rcx
	callq	_ZN4core3ptr47drop_in_place$LT$std..ffi..os_str..OsString$GT$17h8b7d435157225641E
.LBB51_3:
	nop
	addq	$40, %rsp
	retq
	.seh_endproc

	.def	_ZN4core3ptr50drop_in_place$LT$alloc..borrow..Cow$LT$str$GT$$GT$17h681bcbcbd25bdc9bE;
	.scl	3;
	.type	32;
	.endef
	.section	.text,"xr",one_only,_ZN4core3ptr50drop_in_place$LT$alloc..borrow..Cow$LT$str$GT$$GT$17h681bcbcbd25bdc9bE
	.p2align	4, 0x90
_ZN4core3ptr50drop_in_place$LT$alloc..borrow..Cow$LT$str$GT$$GT$17h681bcbcbd25bdc9bE:
.seh_proc _ZN4core3ptr50drop_in_place$LT$alloc..borrow..Cow$LT$str$GT$$GT$17h681bcbcbd25bdc9bE
	subq	$40, %rsp
	.seh_stackalloc 40
	.seh_endprologue
	movq	%rcx, %rdx
	movq	%rdx, 32(%rsp)
	movabsq	$-9223372036854775808, %r8
	movl	$1, %eax
	xorl	%ecx, %ecx
	cmpq	%r8, (%rdx)
	cmoveq	%rcx, %rax
	cmpq	$0, %rax
	jne	.LBB52_2
.LBB52_1:
	addq	$40, %rsp
	retq
.LBB52_2:
	movq	32(%rsp), %rcx
	callq	_ZN4core3ptr42drop_in_place$LT$alloc..string..String$GT$17h88a649be7814c0b9E
	jmp	.LBB52_1
	.seh_endproc

	.def	_ZN4core3ptr51drop_in_place$LT$std..sys..windows..os_str..Buf$GT$17he1df5d5816bceb95E;
	.scl	3;
	.type	32;
	.endef
	.section	.text,"xr",one_only,_ZN4core3ptr51drop_in_place$LT$std..sys..windows..os_str..Buf$GT$17he1df5d5816bceb95E
	.p2align	4, 0x90
_ZN4core3ptr51drop_in_place$LT$std..sys..windows..os_str..Buf$GT$17he1df5d5816bceb95E:
.seh_proc _ZN4core3ptr51drop_in_place$LT$std..sys..windows..os_str..Buf$GT$17he1df5d5816bceb95E
	subq	$40, %rsp
	.seh_stackalloc 40
	.seh_endprologue
	callq	_ZN4core3ptr51drop_in_place$LT$std..sys_common..wtf8..Wtf8Buf$GT$17h3f53d3d5ef079148E
	nop
	addq	$40, %rsp
	retq
	.seh_endproc

	.def	_ZN4core3ptr51drop_in_place$LT$std..sys_common..wtf8..Wtf8Buf$GT$17h3f53d3d5ef079148E;
	.scl	3;
	.type	32;
	.endef
	.section	.text,"xr",one_only,_ZN4core3ptr51drop_in_place$LT$std..sys_common..wtf8..Wtf8Buf$GT$17h3f53d3d5ef079148E
	.p2align	4, 0x90
_ZN4core3ptr51drop_in_place$LT$std..sys_common..wtf8..Wtf8Buf$GT$17h3f53d3d5ef079148E:
.seh_proc _ZN4core3ptr51drop_in_place$LT$std..sys_common..wtf8..Wtf8Buf$GT$17h3f53d3d5ef079148E
	subq	$40, %rsp
	.seh_stackalloc 40
	.seh_endprologue
	callq	_ZN4core3ptr46drop_in_place$LT$alloc..vec..Vec$LT$u8$GT$$GT$17hddd8d873d7a4fab7E
	nop
	addq	$40, %rsp
	retq
	.seh_endproc

	.def	_ZN4core3ptr53drop_in_place$LT$alloc..raw_vec..RawVec$LT$u8$GT$$GT$17hba2a2690ecd2111fE;
	.scl	3;
	.type	32;
	.endef
	.section	.text,"xr",one_only,_ZN4core3ptr53drop_in_place$LT$alloc..raw_vec..RawVec$LT$u8$GT$$GT$17hba2a2690ecd2111fE
	.p2align	4, 0x90
_ZN4core3ptr53drop_in_place$LT$alloc..raw_vec..RawVec$LT$u8$GT$$GT$17hba2a2690ecd2111fE:
.seh_proc _ZN4core3ptr53drop_in_place$LT$alloc..raw_vec..RawVec$LT$u8$GT$$GT$17hba2a2690ecd2111fE
	subq	$40, %rsp
	.seh_stackalloc 40
	.seh_endprologue
	callq	_ZN77_$LT$alloc..raw_vec..RawVec$LT$T$C$A$GT$$u20$as$u20$core..ops..drop..Drop$GT$4drop17h867313999d1fa2d3E
	nop
	addq	$40, %rsp
	retq
	.seh_endproc

	.def	_ZN4core3ptr54drop_in_place$LT$alloc..raw_vec..RawVec$LT$u16$GT$$GT$17h6bf236cb89c967bfE;
	.scl	3;
	.type	32;
	.endef
	.section	.text,"xr",one_only,_ZN4core3ptr54drop_in_place$LT$alloc..raw_vec..RawVec$LT$u16$GT$$GT$17h6bf236cb89c967bfE
	.p2align	4, 0x90
_ZN4core3ptr54drop_in_place$LT$alloc..raw_vec..RawVec$LT$u16$GT$$GT$17h6bf236cb89c967bfE:
.seh_proc _ZN4core3ptr54drop_in_place$LT$alloc..raw_vec..RawVec$LT$u16$GT$$GT$17h6bf236cb89c967bfE
	subq	$40, %rsp
	.seh_stackalloc 40
	.seh_endprologue
	callq	_ZN77_$LT$alloc..raw_vec..RawVec$LT$T$C$A$GT$$u20$as$u20$core..ops..drop..Drop$GT$4drop17h8bf22ed40a8890d8E
	nop
	addq	$40, %rsp
	retq
	.seh_endproc

	.def	_ZN4core3ptr54drop_in_place$LT$std..sys..windows..handle..Handle$GT$17h5ac97a03c26e67b6E;
	.scl	3;
	.type	32;
	.endef
	.section	.text,"xr",one_only,_ZN4core3ptr54drop_in_place$LT$std..sys..windows..handle..Handle$GT$17h5ac97a03c26e67b6E
	.p2align	4, 0x90
_ZN4core3ptr54drop_in_place$LT$std..sys..windows..handle..Handle$GT$17h5ac97a03c26e67b6E:
.seh_proc _ZN4core3ptr54drop_in_place$LT$std..sys..windows..handle..Handle$GT$17h5ac97a03c26e67b6E
	subq	$40, %rsp
	.seh_stackalloc 40
	.seh_endprologue
	callq	_ZN4core3ptr62drop_in_place$LT$std..os..windows..io..handle..OwnedHandle$GT$17h709ce5830a560440E
	nop
	addq	$40, %rsp
	retq
	.seh_endproc

	.def	_ZN4core3ptr54drop_in_place$LT$std..sys..windows..pipe..AnonPipe$GT$17hb595bc9f90abc176E;
	.scl	3;
	.type	32;
	.endef
	.section	.text,"xr",one_only,_ZN4core3ptr54drop_in_place$LT$std..sys..windows..pipe..AnonPipe$GT$17hb595bc9f90abc176E
	.p2align	4, 0x90
_ZN4core3ptr54drop_in_place$LT$std..sys..windows..pipe..AnonPipe$GT$17hb595bc9f90abc176E:
.seh_proc _ZN4core3ptr54drop_in_place$LT$std..sys..windows..pipe..AnonPipe$GT$17hb595bc9f90abc176E
	subq	$40, %rsp
	.seh_stackalloc 40
	.seh_endprologue
	callq	_ZN4core3ptr54drop_in_place$LT$std..sys..windows..handle..Handle$GT$17h5ac97a03c26e67b6E
	nop
	addq	$40, %rsp
	retq
	.seh_endproc

	.def	_ZN4core3ptr54drop_in_place$LT$std..sys..windows..process..Stdio$GT$17he788c62e43f4a7ecE;
	.scl	3;
	.type	32;
	.endef
	.section	.text,"xr",one_only,_ZN4core3ptr54drop_in_place$LT$std..sys..windows..process..Stdio$GT$17he788c62e43f4a7ecE
	.p2align	4, 0x90
_ZN4core3ptr54drop_in_place$LT$std..sys..windows..process..Stdio$GT$17he788c62e43f4a7ecE:
.seh_proc _ZN4core3ptr54drop_in_place$LT$std..sys..windows..process..Stdio$GT$17he788c62e43f4a7ecE
	subq	$56, %rsp
	.seh_stackalloc 56
	.seh_endprologue
	movq	%rcx, 40(%rsp)
	movl	(%rcx), %eax
	movq	%rax, 48(%rsp)
	subq	$4, %rax
	jb	.LBB59_2
	jmp	.LBB59_4
.LBB59_4:
	movq	48(%rsp), %rax
	subq	$4, %rax
	je	.LBB59_3
	jmp	.LBB59_1
.LBB59_1:
	movq	40(%rsp), %rcx
	addq	$8, %rcx
	callq	_ZN4core3ptr54drop_in_place$LT$std..sys..windows..handle..Handle$GT$17h5ac97a03c26e67b6E
.LBB59_2:
	nop
	addq	$56, %rsp
	retq
.LBB59_3:
	movq	40(%rsp), %rcx
	addq	$8, %rcx
	callq	_ZN4core3ptr54drop_in_place$LT$std..sys..windows..pipe..AnonPipe$GT$17hb595bc9f90abc176E
	jmp	.LBB59_2
	.seh_endproc

	.def	_ZN4core3ptr55drop_in_place$LT$std..sys..windows..process..EnvKey$GT$17h92227b38033aff90E;
	.scl	3;
	.type	32;
	.endef
	.section	.text,"xr",one_only,_ZN4core3ptr55drop_in_place$LT$std..sys..windows..process..EnvKey$GT$17h92227b38033aff90E
	.p2align	4, 0x90
_ZN4core3ptr55drop_in_place$LT$std..sys..windows..process..EnvKey$GT$17h92227b38033aff90E:
.Lfunc_begin13:
.seh_proc _ZN4core3ptr55drop_in_place$LT$std..sys..windows..process..EnvKey$GT$17h92227b38033aff90E
	.seh_handler __CxxFrameHandler3, @unwind, @except
	pushq	%rbp
	.seh_pushreg %rbp
	subq	$48, %rsp
	.seh_stackalloc 48
	leaq	48(%rsp), %rbp
	.seh_setframe %rbp, 48
	.seh_endprologue
	movq	$-2, -8(%rbp)
	movq	%rcx, -16(%rbp)
.Ltmp40:
	callq	_ZN4core3ptr47drop_in_place$LT$std..ffi..os_str..OsString$GT$17h8b7d435157225641E
.Ltmp41:
	jmp	.LBB60_2
.LBB60_2:
	movq	-16(%rbp), %rcx
	addq	$32, %rcx
	callq	_ZN4core3ptr47drop_in_place$LT$alloc..vec..Vec$LT$u16$GT$$GT$17h35754b9f711fc8a1E
	nop
	addq	$48, %rsp
	popq	%rbp
	retq
	.seh_handlerdata
	.long	($cppxdata$_ZN4core3ptr55drop_in_place$LT$std..sys..windows..process..EnvKey$GT$17h92227b38033aff90E)@IMGREL
	.section	.text,"xr",one_only,_ZN4core3ptr55drop_in_place$LT$std..sys..windows..process..EnvKey$GT$17h92227b38033aff90E
	.seh_endproc
	.def	"?dtor$1@?0?_ZN4core3ptr55drop_in_place$LT$std..sys..windows..process..EnvKey$GT$17h92227b38033aff90E@4HA";
	.scl	3;
	.type	32;
	.endef
	.p2align	4, 0x90
"?dtor$1@?0?_ZN4core3ptr55drop_in_place$LT$std..sys..windows..process..EnvKey$GT$17h92227b38033aff90E@4HA":
.seh_proc "?dtor$1@?0?_ZN4core3ptr55drop_in_place$LT$std..sys..windows..process..EnvKey$GT$17h92227b38033aff90E@4HA"
.LBB60_1:
	movq	%rdx, 16(%rsp)
	pushq	%rbp
	.seh_pushreg %rbp
	subq	$32, %rsp
	.seh_stackalloc 32
	leaq	48(%rdx), %rbp
	.seh_endprologue
	movq	-16(%rbp), %rcx
	addq	$32, %rcx
	callq	_ZN4core3ptr47drop_in_place$LT$alloc..vec..Vec$LT$u16$GT$$GT$17h35754b9f711fc8a1E
	nop
	addq	$32, %rsp
	popq	%rbp
	retq
.Lfunc_end13:
	.seh_handlerdata
	.section	.text,"xr",one_only,_ZN4core3ptr55drop_in_place$LT$std..sys..windows..process..EnvKey$GT$17h92227b38033aff90E
	.seh_endproc
	.section	.xdata,"dr",associative,_ZN4core3ptr55drop_in_place$LT$std..sys..windows..process..EnvKey$GT$17h92227b38033aff90E
	.p2align	2, 0x0
$cppxdata$_ZN4core3ptr55drop_in_place$LT$std..sys..windows..process..EnvKey$GT$17h92227b38033aff90E:
	.long	429065506
	.long	1
	.long	($stateUnwindMap$_ZN4core3ptr55drop_in_place$LT$std..sys..windows..process..EnvKey$GT$17h92227b38033aff90E)@IMGREL
	.long	0
	.long	0
	.long	3
	.long	($ip2state$_ZN4core3ptr55drop_in_place$LT$std..sys..windows..process..EnvKey$GT$17h92227b38033aff90E)@IMGREL
	.long	40
	.long	0
	.long	1
$stateUnwindMap$_ZN4core3ptr55drop_in_place$LT$std..sys..windows..process..EnvKey$GT$17h92227b38033aff90E:
	.long	-1
	.long	"?dtor$1@?0?_ZN4core3ptr55drop_in_place$LT$std..sys..windows..process..EnvKey$GT$17h92227b38033aff90E@4HA"@IMGREL
$ip2state$_ZN4core3ptr55drop_in_place$LT$std..sys..windows..process..EnvKey$GT$17h92227b38033aff90E:
	.long	.Lfunc_begin13@IMGREL
	.long	-1
	.long	.Ltmp40@IMGREL+1
	.long	0
	.long	.Ltmp41@IMGREL+1
	.long	-1
	.section	.text,"xr",one_only,_ZN4core3ptr55drop_in_place$LT$std..sys..windows..process..EnvKey$GT$17h92227b38033aff90E

	.def	_ZN4core3ptr56drop_in_place$LT$std..sys..windows..process..Command$GT$17h1e50b883c0f15335E;
	.scl	3;
	.type	32;
	.endef
	.section	.text,"xr",one_only,_ZN4core3ptr56drop_in_place$LT$std..sys..windows..process..Command$GT$17h1e50b883c0f15335E
	.p2align	4, 0x90
_ZN4core3ptr56drop_in_place$LT$std..sys..windows..process..Command$GT$17h1e50b883c0f15335E:
.Lfunc_begin14:
.seh_proc _ZN4core3ptr56drop_in_place$LT$std..sys..windows..process..Command$GT$17h1e50b883c0f15335E
	.seh_handler __CxxFrameHandler3, @unwind, @except
	pushq	%rbp
	.seh_pushreg %rbp
	subq	$48, %rsp
	.seh_stackalloc 48
	leaq	48(%rsp), %rbp
	.seh_setframe %rbp, 48
	.seh_endprologue
	movq	$-2, -8(%rbp)
	movq	%rcx, -16(%rbp)
.Ltmp42:
	callq	_ZN4core3ptr47drop_in_place$LT$std..ffi..os_str..OsString$GT$17h8b7d435157225641E
.Ltmp43:
	jmp	.LBB61_2
.LBB61_2:
	movq	-16(%rbp), %rcx
	addq	$32, %rcx
.Ltmp44:
	callq	_ZN4core3ptr72drop_in_place$LT$alloc..vec..Vec$LT$std..sys..windows..args..Arg$GT$$GT$17h15bc1ab4c74a7214E
.Ltmp45:
	jmp	.LBB61_4
.LBB61_4:
	movq	-16(%rbp), %rcx
	addq	$136, %rcx
.Ltmp46:
	callq	_ZN4core3ptr57drop_in_place$LT$std..sys_common..process..CommandEnv$GT$17h290124c9f270c257E
.Ltmp47:
	jmp	.LBB61_6
.LBB61_6:
	movq	-16(%rbp), %rcx
	addq	$56, %rcx
.Ltmp48:
	callq	_ZN4core3ptr75drop_in_place$LT$core..option..Option$LT$std..ffi..os_str..OsString$GT$$GT$17hbe4ce703b7d26a1eE
.Ltmp49:
	jmp	.LBB61_8
.LBB61_8:
	movq	-16(%rbp), %rcx
	addq	$88, %rcx
.Ltmp50:
	callq	_ZN4core3ptr82drop_in_place$LT$core..option..Option$LT$std..sys..windows..process..Stdio$GT$$GT$17h6db9057cb7083fecE
.Ltmp51:
	jmp	.LBB61_10
.LBB61_10:
	movq	-16(%rbp), %rcx
	addq	$104, %rcx
.Ltmp52:
	callq	_ZN4core3ptr82drop_in_place$LT$core..option..Option$LT$std..sys..windows..process..Stdio$GT$$GT$17h6db9057cb7083fecE
.Ltmp53:
	jmp	.LBB61_12
.LBB61_12:
	movq	-16(%rbp), %rcx
	addq	$120, %rcx
.Ltmp54:
	callq	_ZN4core3ptr82drop_in_place$LT$core..option..Option$LT$std..sys..windows..process..Stdio$GT$$GT$17h6db9057cb7083fecE
.Ltmp55:
	jmp	.LBB61_14
.LBB61_14:
	movq	-16(%rbp), %rcx
	addq	$168, %rcx
	callq	_ZN4core3ptr129drop_in_place$LT$alloc..collections..btree..map..BTreeMap$LT$usize$C$std..sys..windows..process..ProcThreadAttributeValue$GT$$GT$17h023101faccca7c38E
	nop
	addq	$48, %rsp
	popq	%rbp
	retq
	.seh_handlerdata
	.long	($cppxdata$_ZN4core3ptr56drop_in_place$LT$std..sys..windows..process..Command$GT$17h1e50b883c0f15335E)@IMGREL
	.section	.text,"xr",one_only,_ZN4core3ptr56drop_in_place$LT$std..sys..windows..process..Command$GT$17h1e50b883c0f15335E
	.seh_endproc
	.def	"?dtor$1@?0?_ZN4core3ptr56drop_in_place$LT$std..sys..windows..process..Command$GT$17h1e50b883c0f15335E@4HA";
	.scl	3;
	.type	32;
	.endef
	.p2align	4, 0x90
"?dtor$1@?0?_ZN4core3ptr56drop_in_place$LT$std..sys..windows..process..Command$GT$17h1e50b883c0f15335E@4HA":
.seh_proc "?dtor$1@?0?_ZN4core3ptr56drop_in_place$LT$std..sys..windows..process..Command$GT$17h1e50b883c0f15335E@4HA"
.LBB61_1:
	movq	%rdx, 16(%rsp)
	pushq	%rbp
	.seh_pushreg %rbp
	subq	$32, %rsp
	.seh_stackalloc 32
	leaq	48(%rdx), %rbp
	.seh_endprologue
	movq	-16(%rbp), %rcx
	addq	$32, %rcx
	callq	_ZN4core3ptr72drop_in_place$LT$alloc..vec..Vec$LT$std..sys..windows..args..Arg$GT$$GT$17h15bc1ab4c74a7214E
	nop
	addq	$32, %rsp
	popq	%rbp
	retq
	.seh_handlerdata
	.section	.text,"xr",one_only,_ZN4core3ptr56drop_in_place$LT$std..sys..windows..process..Command$GT$17h1e50b883c0f15335E
	.seh_endproc
	.def	"?dtor$3@?0?_ZN4core3ptr56drop_in_place$LT$std..sys..windows..process..Command$GT$17h1e50b883c0f15335E@4HA";
	.scl	3;
	.type	32;
	.endef
	.p2align	4, 0x90
"?dtor$3@?0?_ZN4core3ptr56drop_in_place$LT$std..sys..windows..process..Command$GT$17h1e50b883c0f15335E@4HA":
.seh_proc "?dtor$3@?0?_ZN4core3ptr56drop_in_place$LT$std..sys..windows..process..Command$GT$17h1e50b883c0f15335E@4HA"
.LBB61_3:
	movq	%rdx, 16(%rsp)
	pushq	%rbp
	.seh_pushreg %rbp
	subq	$32, %rsp
	.seh_stackalloc 32
	leaq	48(%rdx), %rbp
	.seh_endprologue
	movq	-16(%rbp), %rcx
	addq	$136, %rcx
	callq	_ZN4core3ptr57drop_in_place$LT$std..sys_common..process..CommandEnv$GT$17h290124c9f270c257E
	nop
	addq	$32, %rsp
	popq	%rbp
	retq
	.seh_handlerdata
	.section	.text,"xr",one_only,_ZN4core3ptr56drop_in_place$LT$std..sys..windows..process..Command$GT$17h1e50b883c0f15335E
	.seh_endproc
	.def	"?dtor$5@?0?_ZN4core3ptr56drop_in_place$LT$std..sys..windows..process..Command$GT$17h1e50b883c0f15335E@4HA";
	.scl	3;
	.type	32;
	.endef
	.p2align	4, 0x90
"?dtor$5@?0?_ZN4core3ptr56drop_in_place$LT$std..sys..windows..process..Command$GT$17h1e50b883c0f15335E@4HA":
.seh_proc "?dtor$5@?0?_ZN4core3ptr56drop_in_place$LT$std..sys..windows..process..Command$GT$17h1e50b883c0f15335E@4HA"
.LBB61_5:
	movq	%rdx, 16(%rsp)
	pushq	%rbp
	.seh_pushreg %rbp
	subq	$32, %rsp
	.seh_stackalloc 32
	leaq	48(%rdx), %rbp
	.seh_endprologue
	movq	-16(%rbp), %rcx
	addq	$56, %rcx
	callq	_ZN4core3ptr75drop_in_place$LT$core..option..Option$LT$std..ffi..os_str..OsString$GT$$GT$17hbe4ce703b7d26a1eE
	nop
	addq	$32, %rsp
	popq	%rbp
	retq
	.seh_handlerdata
	.section	.text,"xr",one_only,_ZN4core3ptr56drop_in_place$LT$std..sys..windows..process..Command$GT$17h1e50b883c0f15335E
	.seh_endproc
	.def	"?dtor$7@?0?_ZN4core3ptr56drop_in_place$LT$std..sys..windows..process..Command$GT$17h1e50b883c0f15335E@4HA";
	.scl	3;
	.type	32;
	.endef
	.p2align	4, 0x90
"?dtor$7@?0?_ZN4core3ptr56drop_in_place$LT$std..sys..windows..process..Command$GT$17h1e50b883c0f15335E@4HA":
.seh_proc "?dtor$7@?0?_ZN4core3ptr56drop_in_place$LT$std..sys..windows..process..Command$GT$17h1e50b883c0f15335E@4HA"
.LBB61_7:
	movq	%rdx, 16(%rsp)
	pushq	%rbp
	.seh_pushreg %rbp
	subq	$32, %rsp
	.seh_stackalloc 32
	leaq	48(%rdx), %rbp
	.seh_endprologue
	movq	-16(%rbp), %rcx
	addq	$88, %rcx
	callq	_ZN4core3ptr82drop_in_place$LT$core..option..Option$LT$std..sys..windows..process..Stdio$GT$$GT$17h6db9057cb7083fecE
	nop
	addq	$32, %rsp
	popq	%rbp
	retq
	.seh_handlerdata
	.section	.text,"xr",one_only,_ZN4core3ptr56drop_in_place$LT$std..sys..windows..process..Command$GT$17h1e50b883c0f15335E
	.seh_endproc
	.def	"?dtor$9@?0?_ZN4core3ptr56drop_in_place$LT$std..sys..windows..process..Command$GT$17h1e50b883c0f15335E@4HA";
	.scl	3;
	.type	32;
	.endef
	.p2align	4, 0x90
"?dtor$9@?0?_ZN4core3ptr56drop_in_place$LT$std..sys..windows..process..Command$GT$17h1e50b883c0f15335E@4HA":
.seh_proc "?dtor$9@?0?_ZN4core3ptr56drop_in_place$LT$std..sys..windows..process..Command$GT$17h1e50b883c0f15335E@4HA"
.LBB61_9:
	movq	%rdx, 16(%rsp)
	pushq	%rbp
	.seh_pushreg %rbp
	subq	$32, %rsp
	.seh_stackalloc 32
	leaq	48(%rdx), %rbp
	.seh_endprologue
	movq	-16(%rbp), %rcx
	addq	$104, %rcx
	callq	_ZN4core3ptr82drop_in_place$LT$core..option..Option$LT$std..sys..windows..process..Stdio$GT$$GT$17h6db9057cb7083fecE
	nop
	addq	$32, %rsp
	popq	%rbp
	retq
	.seh_handlerdata
	.section	.text,"xr",one_only,_ZN4core3ptr56drop_in_place$LT$std..sys..windows..process..Command$GT$17h1e50b883c0f15335E
	.seh_endproc
	.def	"?dtor$11@?0?_ZN4core3ptr56drop_in_place$LT$std..sys..windows..process..Command$GT$17h1e50b883c0f15335E@4HA";
	.scl	3;
	.type	32;
	.endef
	.p2align	4, 0x90
"?dtor$11@?0?_ZN4core3ptr56drop_in_place$LT$std..sys..windows..process..Command$GT$17h1e50b883c0f15335E@4HA":
.seh_proc "?dtor$11@?0?_ZN4core3ptr56drop_in_place$LT$std..sys..windows..process..Command$GT$17h1e50b883c0f15335E@4HA"
.LBB61_11:
	movq	%rdx, 16(%rsp)
	pushq	%rbp
	.seh_pushreg %rbp
	subq	$32, %rsp
	.seh_stackalloc 32
	leaq	48(%rdx), %rbp
	.seh_endprologue
	movq	-16(%rbp), %rcx
	addq	$120, %rcx
	callq	_ZN4core3ptr82drop_in_place$LT$core..option..Option$LT$std..sys..windows..process..Stdio$GT$$GT$17h6db9057cb7083fecE
	nop
	addq	$32, %rsp
	popq	%rbp
	retq
	.seh_handlerdata
	.section	.text,"xr",one_only,_ZN4core3ptr56drop_in_place$LT$std..sys..windows..process..Command$GT$17h1e50b883c0f15335E
	.seh_endproc
	.def	"?dtor$13@?0?_ZN4core3ptr56drop_in_place$LT$std..sys..windows..process..Command$GT$17h1e50b883c0f15335E@4HA";
	.scl	3;
	.type	32;
	.endef
	.p2align	4, 0x90
"?dtor$13@?0?_ZN4core3ptr56drop_in_place$LT$std..sys..windows..process..Command$GT$17h1e50b883c0f15335E@4HA":
.seh_proc "?dtor$13@?0?_ZN4core3ptr56drop_in_place$LT$std..sys..windows..process..Command$GT$17h1e50b883c0f15335E@4HA"
.LBB61_13:
	movq	%rdx, 16(%rsp)
	pushq	%rbp
	.seh_pushreg %rbp
	subq	$32, %rsp
	.seh_stackalloc 32
	leaq	48(%rdx), %rbp
	.seh_endprologue
	movq	-16(%rbp), %rcx
	addq	$168, %rcx
	callq	_ZN4core3ptr129drop_in_place$LT$alloc..collections..btree..map..BTreeMap$LT$usize$C$std..sys..windows..process..ProcThreadAttributeValue$GT$$GT$17h023101faccca7c38E
	nop
	addq	$32, %rsp
	popq	%rbp
	retq
.Lfunc_end14:
	.seh_handlerdata
	.section	.text,"xr",one_only,_ZN4core3ptr56drop_in_place$LT$std..sys..windows..process..Command$GT$17h1e50b883c0f15335E
	.seh_endproc
	.section	.xdata,"dr",associative,_ZN4core3ptr56drop_in_place$LT$std..sys..windows..process..Command$GT$17h1e50b883c0f15335E
	.p2align	2, 0x0
$cppxdata$_ZN4core3ptr56drop_in_place$LT$std..sys..windows..process..Command$GT$17h1e50b883c0f15335E:
	.long	429065506
	.long	7
	.long	($stateUnwindMap$_ZN4core3ptr56drop_in_place$LT$std..sys..windows..process..Command$GT$17h1e50b883c0f15335E)@IMGREL
	.long	0
	.long	0
	.long	9
	.long	($ip2state$_ZN4core3ptr56drop_in_place$LT$std..sys..windows..process..Command$GT$17h1e50b883c0f15335E)@IMGREL
	.long	40
	.long	0
	.long	1
$stateUnwindMap$_ZN4core3ptr56drop_in_place$LT$std..sys..windows..process..Command$GT$17h1e50b883c0f15335E:
	.long	-1
	.long	"?dtor$13@?0?_ZN4core3ptr56drop_in_place$LT$std..sys..windows..process..Command$GT$17h1e50b883c0f15335E@4HA"@IMGREL
	.long	0
	.long	"?dtor$11@?0?_ZN4core3ptr56drop_in_place$LT$std..sys..windows..process..Command$GT$17h1e50b883c0f15335E@4HA"@IMGREL
	.long	1
	.long	"?dtor$9@?0?_ZN4core3ptr56drop_in_place$LT$std..sys..windows..process..Command$GT$17h1e50b883c0f15335E@4HA"@IMGREL
	.long	2
	.long	"?dtor$7@?0?_ZN4core3ptr56drop_in_place$LT$std..sys..windows..process..Command$GT$17h1e50b883c0f15335E@4HA"@IMGREL
	.long	3
	.long	"?dtor$5@?0?_ZN4core3ptr56drop_in_place$LT$std..sys..windows..process..Command$GT$17h1e50b883c0f15335E@4HA"@IMGREL
	.long	4
	.long	"?dtor$3@?0?_ZN4core3ptr56drop_in_place$LT$std..sys..windows..process..Command$GT$17h1e50b883c0f15335E@4HA"@IMGREL
	.long	5
	.long	"?dtor$1@?0?_ZN4core3ptr56drop_in_place$LT$std..sys..windows..process..Command$GT$17h1e50b883c0f15335E@4HA"@IMGREL
$ip2state$_ZN4core3ptr56drop_in_place$LT$std..sys..windows..process..Command$GT$17h1e50b883c0f15335E:
	.long	.Lfunc_begin14@IMGREL
	.long	-1
	.long	.Ltmp42@IMGREL+1
	.long	6
	.long	.Ltmp44@IMGREL+1
	.long	5
	.long	.Ltmp46@IMGREL+1
	.long	4
	.long	.Ltmp48@IMGREL+1
	.long	3
	.long	.Ltmp50@IMGREL+1
	.long	2
	.long	.Ltmp52@IMGREL+1
	.long	1
	.long	.Ltmp54@IMGREL+1
	.long	0
	.long	.Ltmp55@IMGREL+1
	.long	-1
	.section	.text,"xr",one_only,_ZN4core3ptr56drop_in_place$LT$std..sys..windows..process..Command$GT$17h1e50b883c0f15335E

	.def	_ZN4core3ptr57drop_in_place$LT$std..io..error..repr_bitpacked..Repr$GT$17h189149eacee231dcE;
	.scl	3;
	.type	32;
	.endef
	.section	.text,"xr",one_only,_ZN4core3ptr57drop_in_place$LT$std..io..error..repr_bitpacked..Repr$GT$17h189149eacee231dcE
	.p2align	4, 0x90
_ZN4core3ptr57drop_in_place$LT$std..io..error..repr_bitpacked..Repr$GT$17h189149eacee231dcE:
.seh_proc _ZN4core3ptr57drop_in_place$LT$std..io..error..repr_bitpacked..Repr$GT$17h189149eacee231dcE
	subq	$40, %rsp
	.seh_stackalloc 40
	.seh_endprologue
	callq	_ZN78_$LT$std..io..error..repr_bitpacked..Repr$u20$as$u20$core..ops..drop..Drop$GT$4drop17h121a9cc8bb0bae73E
	nop
	addq	$40, %rsp
	retq
	.seh_endproc

	.def	_ZN4core3ptr57drop_in_place$LT$std..sys_common..process..CommandEnv$GT$17h290124c9f270c257E;
	.scl	3;
	.type	32;
	.endef
	.section	.text,"xr",one_only,_ZN4core3ptr57drop_in_place$LT$std..sys_common..process..CommandEnv$GT$17h290124c9f270c257E
	.p2align	4, 0x90
_ZN4core3ptr57drop_in_place$LT$std..sys_common..process..CommandEnv$GT$17h290124c9f270c257E:
.seh_proc _ZN4core3ptr57drop_in_place$LT$std..sys_common..process..CommandEnv$GT$17h290124c9f270c257E
	subq	$40, %rsp
	.seh_stackalloc 40
	.seh_endprologue
	callq	_ZN4core3ptr160drop_in_place$LT$alloc..collections..btree..map..BTreeMap$LT$std..sys..windows..process..EnvKey$C$core..option..Option$LT$std..ffi..os_str..OsString$GT$$GT$$GT$17h1ebbe0995113b25dE
	nop
	addq	$40, %rsp
	retq
	.seh_endproc

	.def	_ZN4core3ptr59drop_in_place$LT$$u5b$std..sys..windows..args..Arg$u5d$$GT$17he1298ff63f45fe23E;
	.scl	3;
	.type	32;
	.endef
	.section	.text,"xr",one_only,_ZN4core3ptr59drop_in_place$LT$$u5b$std..sys..windows..args..Arg$u5d$$GT$17he1298ff63f45fe23E
	.p2align	4, 0x90
_ZN4core3ptr59drop_in_place$LT$$u5b$std..sys..windows..args..Arg$u5d$$GT$17he1298ff63f45fe23E:
.Lfunc_begin15:
.seh_proc _ZN4core3ptr59drop_in_place$LT$$u5b$std..sys..windows..args..Arg$u5d$$GT$17he1298ff63f45fe23E
	.seh_handler __CxxFrameHandler3, @unwind, @except
	pushq	%rbp
	.seh_pushreg %rbp
	subq	$64, %rsp
	.seh_stackalloc 64
	leaq	64(%rsp), %rbp
	.seh_setframe %rbp, 64
	.seh_endprologue
	movq	$-2, -8(%rbp)
	movq	%rdx, -32(%rbp)
	movq	%rcx, -24(%rbp)
	movq	$0, -16(%rbp)
.LBB64_1:
	movq	-32(%rbp), %rax
	cmpq	%rax, -16(%rbp)
	je	.LBB64_3
	movq	-24(%rbp), %rcx
	movq	-16(%rbp), %rax
	leaq	(%rax,%rax,4), %rdx
	leaq	(%rcx,%rdx,8), %rcx
	incq	%rax
	movq	%rax, -16(%rbp)
.Ltmp56:
	callq	_ZN4core3ptr49drop_in_place$LT$std..sys..windows..args..Arg$GT$17hdb59ee2d5233a42eE
.Ltmp57:
	jmp	.LBB64_1
.LBB64_3:
	addq	$64, %rsp
	popq	%rbp
	retq
.LBB64_4:
	movq	-32(%rbp), %rax
	cmpq	%rax, -16(%rbp)
	je	.LBB64_7
	jmp	.LBB64_6
	.seh_handlerdata
	.long	($cppxdata$_ZN4core3ptr59drop_in_place$LT$$u5b$std..sys..windows..args..Arg$u5d$$GT$17he1298ff63f45fe23E)@IMGREL
	.section	.text,"xr",one_only,_ZN4core3ptr59drop_in_place$LT$$u5b$std..sys..windows..args..Arg$u5d$$GT$17he1298ff63f45fe23E
	.seh_endproc
	.def	"?dtor$5@?0?_ZN4core3ptr59drop_in_place$LT$$u5b$std..sys..windows..args..Arg$u5d$$GT$17he1298ff63f45fe23E@4HA";
	.scl	3;
	.type	32;
	.endef
	.p2align	4, 0x90
"?dtor$5@?0?_ZN4core3ptr59drop_in_place$LT$$u5b$std..sys..windows..args..Arg$u5d$$GT$17he1298ff63f45fe23E@4HA":
.seh_proc "?dtor$5@?0?_ZN4core3ptr59drop_in_place$LT$$u5b$std..sys..windows..args..Arg$u5d$$GT$17he1298ff63f45fe23E@4HA"
.LBB64_5:
	movq	%rdx, 16(%rsp)
	pushq	%rbp
	.seh_pushreg %rbp
	subq	$32, %rsp
	.seh_stackalloc 32
	leaq	64(%rdx), %rbp
	.seh_endprologue
	jmp	.LBB64_4
.LBB64_6:
	movq	-24(%rbp), %rcx
	imulq	$40, -16(%rbp), %rax
	addq	%rax, %rcx
	movq	-16(%rbp), %rax
	addq	$1, %rax
	movq	%rax, -16(%rbp)
	callq	_ZN4core3ptr49drop_in_place$LT$std..sys..windows..args..Arg$GT$17hdb59ee2d5233a42eE
	jmp	.LBB64_4
.LBB64_7:
	addq	$32, %rsp
	popq	%rbp
	retq
.Lfunc_end15:
	.seh_handlerdata
	.section	.text,"xr",one_only,_ZN4core3ptr59drop_in_place$LT$$u5b$std..sys..windows..args..Arg$u5d$$GT$17he1298ff63f45fe23E
	.seh_endproc
	.section	.xdata,"dr",associative,_ZN4core3ptr59drop_in_place$LT$$u5b$std..sys..windows..args..Arg$u5d$$GT$17he1298ff63f45fe23E
	.p2align	2, 0x0
$cppxdata$_ZN4core3ptr59drop_in_place$LT$$u5b$std..sys..windows..args..Arg$u5d$$GT$17he1298ff63f45fe23E:
	.long	429065506
	.long	1
	.long	($stateUnwindMap$_ZN4core3ptr59drop_in_place$LT$$u5b$std..sys..windows..args..Arg$u5d$$GT$17he1298ff63f45fe23E)@IMGREL
	.long	0
	.long	0
	.long	3
	.long	($ip2state$_ZN4core3ptr59drop_in_place$LT$$u5b$std..sys..windows..args..Arg$u5d$$GT$17he1298ff63f45fe23E)@IMGREL
	.long	56
	.long	0
	.long	1
$stateUnwindMap$_ZN4core3ptr59drop_in_place$LT$$u5b$std..sys..windows..args..Arg$u5d$$GT$17he1298ff63f45fe23E:
	.long	-1
	.long	"?dtor$5@?0?_ZN4core3ptr59drop_in_place$LT$$u5b$std..sys..windows..args..Arg$u5d$$GT$17he1298ff63f45fe23E@4HA"@IMGREL
$ip2state$_ZN4core3ptr59drop_in_place$LT$$u5b$std..sys..windows..args..Arg$u5d$$GT$17he1298ff63f45fe23E:
	.long	.Lfunc_begin15@IMGREL
	.long	-1
	.long	.Ltmp56@IMGREL+1
	.long	0
	.long	.Ltmp57@IMGREL+1
	.long	-1
	.section	.text,"xr",one_only,_ZN4core3ptr59drop_in_place$LT$$u5b$std..sys..windows..args..Arg$u5d$$GT$17he1298ff63f45fe23E

	.def	_ZN4core3ptr62drop_in_place$LT$std..os..windows..io..handle..OwnedHandle$GT$17h709ce5830a560440E;
	.scl	3;
	.type	32;
	.endef
	.section	.text,"xr",one_only,_ZN4core3ptr62drop_in_place$LT$std..os..windows..io..handle..OwnedHandle$GT$17h709ce5830a560440E
	.p2align	4, 0x90
_ZN4core3ptr62drop_in_place$LT$std..os..windows..io..handle..OwnedHandle$GT$17h709ce5830a560440E:
.seh_proc _ZN4core3ptr62drop_in_place$LT$std..os..windows..io..handle..OwnedHandle$GT$17h709ce5830a560440E
	subq	$40, %rsp
	.seh_stackalloc 40
	.seh_endprologue
	callq	_ZN83_$LT$std..os..windows..io..handle..OwnedHandle$u20$as$u20$core..ops..drop..Drop$GT$4drop17h7b858062d595f880E
	nop
	addq	$40, %rsp
	retq
	.seh_endproc

	.def	_ZN4core3ptr68drop_in_place$LT$alloc..boxed..Box$LT$std..io..error..Custom$GT$$GT$17h2d7e9d465946ed3fE;
	.scl	3;
	.type	32;
	.endef
	.section	.text,"xr",one_only,_ZN4core3ptr68drop_in_place$LT$alloc..boxed..Box$LT$std..io..error..Custom$GT$$GT$17h2d7e9d465946ed3fE
	.p2align	4, 0x90
_ZN4core3ptr68drop_in_place$LT$alloc..boxed..Box$LT$std..io..error..Custom$GT$$GT$17h2d7e9d465946ed3fE:
.Lfunc_begin16:
.seh_proc _ZN4core3ptr68drop_in_place$LT$alloc..boxed..Box$LT$std..io..error..Custom$GT$$GT$17h2d7e9d465946ed3fE
	.seh_handler __CxxFrameHandler3, @unwind, @except
	pushq	%rbp
	.seh_pushreg %rbp
	subq	$48, %rsp
	.seh_stackalloc 48
	leaq	48(%rsp), %rbp
	.seh_setframe %rbp, 48
	.seh_endprologue
	movq	$-2, -8(%rbp)
	movq	%rcx, -16(%rbp)
	movq	(%rcx), %rcx
.Ltmp58:
	callq	_ZN4core3ptr43drop_in_place$LT$std..io..error..Custom$GT$17ha01c3bad2808073eE
.Ltmp59:
	jmp	.LBB66_2
.LBB66_2:
	movq	-16(%rbp), %rcx
	callq	_ZN72_$LT$alloc..boxed..Box$LT$T$C$A$GT$$u20$as$u20$core..ops..drop..Drop$GT$4drop17h95c9a71fb9bb2375E
	nop
	addq	$48, %rsp
	popq	%rbp
	retq
	.seh_handlerdata
	.long	($cppxdata$_ZN4core3ptr68drop_in_place$LT$alloc..boxed..Box$LT$std..io..error..Custom$GT$$GT$17h2d7e9d465946ed3fE)@IMGREL
	.section	.text,"xr",one_only,_ZN4core3ptr68drop_in_place$LT$alloc..boxed..Box$LT$std..io..error..Custom$GT$$GT$17h2d7e9d465946ed3fE
	.seh_endproc
	.def	"?dtor$1@?0?_ZN4core3ptr68drop_in_place$LT$alloc..boxed..Box$LT$std..io..error..Custom$GT$$GT$17h2d7e9d465946ed3fE@4HA";
	.scl	3;
	.type	32;
	.endef
	.p2align	4, 0x90
"?dtor$1@?0?_ZN4core3ptr68drop_in_place$LT$alloc..boxed..Box$LT$std..io..error..Custom$GT$$GT$17h2d7e9d465946ed3fE@4HA":
.seh_proc "?dtor$1@?0?_ZN4core3ptr68drop_in_place$LT$alloc..boxed..Box$LT$std..io..error..Custom$GT$$GT$17h2d7e9d465946ed3fE@4HA"
.LBB66_1:
	movq	%rdx, 16(%rsp)
	pushq	%rbp
	.seh_pushreg %rbp
	subq	$32, %rsp
	.seh_stackalloc 32
	leaq	48(%rdx), %rbp
	.seh_endprologue
	movq	-16(%rbp), %rcx
	callq	_ZN72_$LT$alloc..boxed..Box$LT$T$C$A$GT$$u20$as$u20$core..ops..drop..Drop$GT$4drop17h95c9a71fb9bb2375E
	nop
	addq	$32, %rsp
	popq	%rbp
	retq
.Lfunc_end16:
	.seh_handlerdata
	.section	.text,"xr",one_only,_ZN4core3ptr68drop_in_place$LT$alloc..boxed..Box$LT$std..io..error..Custom$GT$$GT$17h2d7e9d465946ed3fE
	.seh_endproc
	.section	.xdata,"dr",associative,_ZN4core3ptr68drop_in_place$LT$alloc..boxed..Box$LT$std..io..error..Custom$GT$$GT$17h2d7e9d465946ed3fE
	.p2align	2, 0x0
$cppxdata$_ZN4core3ptr68drop_in_place$LT$alloc..boxed..Box$LT$std..io..error..Custom$GT$$GT$17h2d7e9d465946ed3fE:
	.long	429065506
	.long	1
	.long	($stateUnwindMap$_ZN4core3ptr68drop_in_place$LT$alloc..boxed..Box$LT$std..io..error..Custom$GT$$GT$17h2d7e9d465946ed3fE)@IMGREL
	.long	0
	.long	0
	.long	3
	.long	($ip2state$_ZN4core3ptr68drop_in_place$LT$alloc..boxed..Box$LT$std..io..error..Custom$GT$$GT$17h2d7e9d465946ed3fE)@IMGREL
	.long	40
	.long	0
	.long	1
$stateUnwindMap$_ZN4core3ptr68drop_in_place$LT$alloc..boxed..Box$LT$std..io..error..Custom$GT$$GT$17h2d7e9d465946ed3fE:
	.long	-1
	.long	"?dtor$1@?0?_ZN4core3ptr68drop_in_place$LT$alloc..boxed..Box$LT$std..io..error..Custom$GT$$GT$17h2d7e9d465946ed3fE@4HA"@IMGREL
$ip2state$_ZN4core3ptr68drop_in_place$LT$alloc..boxed..Box$LT$std..io..error..Custom$GT$$GT$17h2d7e9d465946ed3fE:
	.long	.Lfunc_begin16@IMGREL
	.long	-1
	.long	.Ltmp58@IMGREL+1
	.long	0
	.long	.Ltmp59@IMGREL+1
	.long	-1
	.section	.text,"xr",one_only,_ZN4core3ptr68drop_in_place$LT$alloc..boxed..Box$LT$std..io..error..Custom$GT$$GT$17h2d7e9d465946ed3fE

	.def	_ZN4core3ptr70drop_in_place$LT$dyn$u20$core..marker..Send$u2b$core..marker..Sync$GT$17h0d8654aad07a103bE;
	.scl	3;
	.type	32;
	.endef
	.section	.text,"xr",one_only,_ZN4core3ptr70drop_in_place$LT$dyn$u20$core..marker..Send$u2b$core..marker..Sync$GT$17h0d8654aad07a103bE
	.p2align	4, 0x90
_ZN4core3ptr70drop_in_place$LT$dyn$u20$core..marker..Send$u2b$core..marker..Sync$GT$17h0d8654aad07a103bE:
.seh_proc _ZN4core3ptr70drop_in_place$LT$dyn$u20$core..marker..Send$u2b$core..marker..Sync$GT$17h0d8654aad07a103bE
	subq	$40, %rsp
	.seh_stackalloc 40
	.seh_endprologue
	callq	*(%rdx)
	nop
	addq	$40, %rsp
	retq
	.seh_endproc

	.def	_ZN4core3ptr72drop_in_place$LT$alloc..collections..btree..mem..replace..PanicGuard$GT$17h565372fa44a4b6c9E;
	.scl	3;
	.type	32;
	.endef
	.section	.text,"xr",one_only,_ZN4core3ptr72drop_in_place$LT$alloc..collections..btree..mem..replace..PanicGuard$GT$17h565372fa44a4b6c9E
	.p2align	4, 0x90
_ZN4core3ptr72drop_in_place$LT$alloc..collections..btree..mem..replace..PanicGuard$GT$17h565372fa44a4b6c9E:
.seh_proc _ZN4core3ptr72drop_in_place$LT$alloc..collections..btree..mem..replace..PanicGuard$GT$17h565372fa44a4b6c9E
	subq	$40, %rsp
	.seh_stackalloc 40
	.seh_endprologue
	callq	_ZN93_$LT$alloc..collections..btree..mem..replace..PanicGuard$u20$as$u20$core..ops..drop..Drop$GT$4drop17h630be0d53067586cE
	nop
	addq	$40, %rsp
	retq
	.seh_endproc

	.def	_ZN4core3ptr72drop_in_place$LT$alloc..vec..Vec$LT$std..sys..windows..args..Arg$GT$$GT$17h15bc1ab4c74a7214E;
	.scl	3;
	.type	32;
	.endef
	.section	.text,"xr",one_only,_ZN4core3ptr72drop_in_place$LT$alloc..vec..Vec$LT$std..sys..windows..args..Arg$GT$$GT$17h15bc1ab4c74a7214E
	.p2align	4, 0x90
_ZN4core3ptr72drop_in_place$LT$alloc..vec..Vec$LT$std..sys..windows..args..Arg$GT$$GT$17h15bc1ab4c74a7214E:
.Lfunc_begin17:
.seh_proc _ZN4core3ptr72drop_in_place$LT$alloc..vec..Vec$LT$std..sys..windows..args..Arg$GT$$GT$17h15bc1ab4c74a7214E
	.seh_handler __CxxFrameHandler3, @unwind, @except
	pushq	%rbp
	.seh_pushreg %rbp
	subq	$48, %rsp
	.seh_stackalloc 48
	leaq	48(%rsp), %rbp
	.seh_setframe %rbp, 48
	.seh_endprologue
	movq	$-2, -8(%rbp)
	movq	%rcx, -16(%rbp)
.Ltmp60:
	callq	_ZN70_$LT$alloc..vec..Vec$LT$T$C$A$GT$$u20$as$u20$core..ops..drop..Drop$GT$4drop17h15a925e92b7101efE
.Ltmp61:
	jmp	.LBB69_2
.LBB69_2:
	movq	-16(%rbp), %rcx
	callq	_ZN4core3ptr79drop_in_place$LT$alloc..raw_vec..RawVec$LT$std..sys..windows..args..Arg$GT$$GT$17h6f76f601ee471cbbE
	nop
	addq	$48, %rsp
	popq	%rbp
	retq
	.seh_handlerdata
	.long	($cppxdata$_ZN4core3ptr72drop_in_place$LT$alloc..vec..Vec$LT$std..sys..windows..args..Arg$GT$$GT$17h15bc1ab4c74a7214E)@IMGREL
	.section	.text,"xr",one_only,_ZN4core3ptr72drop_in_place$LT$alloc..vec..Vec$LT$std..sys..windows..args..Arg$GT$$GT$17h15bc1ab4c74a7214E
	.seh_endproc
	.def	"?dtor$1@?0?_ZN4core3ptr72drop_in_place$LT$alloc..vec..Vec$LT$std..sys..windows..args..Arg$GT$$GT$17h15bc1ab4c74a7214E@4HA";
	.scl	3;
	.type	32;
	.endef
	.p2align	4, 0x90
"?dtor$1@?0?_ZN4core3ptr72drop_in_place$LT$alloc..vec..Vec$LT$std..sys..windows..args..Arg$GT$$GT$17h15bc1ab4c74a7214E@4HA":
.seh_proc "?dtor$1@?0?_ZN4core3ptr72drop_in_place$LT$alloc..vec..Vec$LT$std..sys..windows..args..Arg$GT$$GT$17h15bc1ab4c74a7214E@4HA"
.LBB69_1:
	movq	%rdx, 16(%rsp)
	pushq	%rbp
	.seh_pushreg %rbp
	subq	$32, %rsp
	.seh_stackalloc 32
	leaq	48(%rdx), %rbp
	.seh_endprologue
	movq	-16(%rbp), %rcx
	callq	_ZN4core3ptr79drop_in_place$LT$alloc..raw_vec..RawVec$LT$std..sys..windows..args..Arg$GT$$GT$17h6f76f601ee471cbbE
	nop
	addq	$32, %rsp
	popq	%rbp
	retq
.Lfunc_end17:
	.seh_handlerdata
	.section	.text,"xr",one_only,_ZN4core3ptr72drop_in_place$LT$alloc..vec..Vec$LT$std..sys..windows..args..Arg$GT$$GT$17h15bc1ab4c74a7214E
	.seh_endproc
	.section	.xdata,"dr",associative,_ZN4core3ptr72drop_in_place$LT$alloc..vec..Vec$LT$std..sys..windows..args..Arg$GT$$GT$17h15bc1ab4c74a7214E
	.p2align	2, 0x0
$cppxdata$_ZN4core3ptr72drop_in_place$LT$alloc..vec..Vec$LT$std..sys..windows..args..Arg$GT$$GT$17h15bc1ab4c74a7214E:
	.long	429065506
	.long	1
	.long	($stateUnwindMap$_ZN4core3ptr72drop_in_place$LT$alloc..vec..Vec$LT$std..sys..windows..args..Arg$GT$$GT$17h15bc1ab4c74a7214E)@IMGREL
	.long	0
	.long	0
	.long	3
	.long	($ip2state$_ZN4core3ptr72drop_in_place$LT$alloc..vec..Vec$LT$std..sys..windows..args..Arg$GT$$GT$17h15bc1ab4c74a7214E)@IMGREL
	.long	40
	.long	0
	.long	1
$stateUnwindMap$_ZN4core3ptr72drop_in_place$LT$alloc..vec..Vec$LT$std..sys..windows..args..Arg$GT$$GT$17h15bc1ab4c74a7214E:
	.long	-1
	.long	"?dtor$1@?0?_ZN4core3ptr72drop_in_place$LT$alloc..vec..Vec$LT$std..sys..windows..args..Arg$GT$$GT$17h15bc1ab4c74a7214E@4HA"@IMGREL
$ip2state$_ZN4core3ptr72drop_in_place$LT$alloc..vec..Vec$LT$std..sys..windows..args..Arg$GT$$GT$17h15bc1ab4c74a7214E:
	.long	.Lfunc_begin17@IMGREL
	.long	-1
	.long	.Ltmp60@IMGREL+1
	.long	0
	.long	.Ltmp61@IMGREL+1
	.long	-1
	.section	.text,"xr",one_only,_ZN4core3ptr72drop_in_place$LT$alloc..vec..Vec$LT$std..sys..windows..args..Arg$GT$$GT$17h15bc1ab4c74a7214E

	.def	_ZN4core3ptr73drop_in_place$LT$std..sys..windows..process..ProcThreadAttributeValue$GT$17h64b0b88ba65b9ae4E;
	.scl	3;
	.type	32;
	.endef
	.section	.text,"xr",one_only,_ZN4core3ptr73drop_in_place$LT$std..sys..windows..process..ProcThreadAttributeValue$GT$17h64b0b88ba65b9ae4E
	.p2align	4, 0x90
_ZN4core3ptr73drop_in_place$LT$std..sys..windows..process..ProcThreadAttributeValue$GT$17h64b0b88ba65b9ae4E:
.seh_proc _ZN4core3ptr73drop_in_place$LT$std..sys..windows..process..ProcThreadAttributeValue$GT$17h64b0b88ba65b9ae4E
	subq	$40, %rsp
	.seh_stackalloc 40
	.seh_endprologue
	callq	_ZN4core3ptr95drop_in_place$LT$alloc..boxed..Box$LT$dyn$u20$core..marker..Send$u2b$core..marker..Sync$GT$$GT$17hf6e68248e93d6b6fE
	nop
	addq	$40, %rsp
	retq
	.seh_endproc

	.def	_ZN4core3ptr75drop_in_place$LT$core..option..Option$LT$std..ffi..os_str..OsString$GT$$GT$17hbe4ce703b7d26a1eE;
	.scl	3;
	.type	32;
	.endef
	.section	.text,"xr",one_only,_ZN4core3ptr75drop_in_place$LT$core..option..Option$LT$std..ffi..os_str..OsString$GT$$GT$17hbe4ce703b7d26a1eE
	.p2align	4, 0x90
_ZN4core3ptr75drop_in_place$LT$core..option..Option$LT$std..ffi..os_str..OsString$GT$$GT$17hbe4ce703b7d26a1eE:
.seh_proc _ZN4core3ptr75drop_in_place$LT$core..option..Option$LT$std..ffi..os_str..OsString$GT$$GT$17hbe4ce703b7d26a1eE
	subq	$40, %rsp
	.seh_stackalloc 40
	.seh_endprologue
	movq	%rcx, %rdx
	movq	%rdx, 32(%rsp)
	movabsq	$-9223372036854775808, %r8
	movl	$1, %eax
	xorl	%ecx, %ecx
	cmpq	%r8, (%rdx)
	cmoveq	%rcx, %rax
	cmpq	$0, %rax
	jne	.LBB71_2
.LBB71_1:
	addq	$40, %rsp
	retq
.LBB71_2:
	movq	32(%rsp), %rcx
	callq	_ZN4core3ptr47drop_in_place$LT$std..ffi..os_str..OsString$GT$17h8b7d435157225641E
	jmp	.LBB71_1
	.seh_endproc

	.def	_ZN4core3ptr79drop_in_place$LT$alloc..raw_vec..RawVec$LT$std..sys..windows..args..Arg$GT$$GT$17h6f76f601ee471cbbE;
	.scl	3;
	.type	32;
	.endef
	.section	.text,"xr",one_only,_ZN4core3ptr79drop_in_place$LT$alloc..raw_vec..RawVec$LT$std..sys..windows..args..Arg$GT$$GT$17h6f76f601ee471cbbE
	.p2align	4, 0x90
_ZN4core3ptr79drop_in_place$LT$alloc..raw_vec..RawVec$LT$std..sys..windows..args..Arg$GT$$GT$17h6f76f601ee471cbbE:
.seh_proc _ZN4core3ptr79drop_in_place$LT$alloc..raw_vec..RawVec$LT$std..sys..windows..args..Arg$GT$$GT$17h6f76f601ee471cbbE
	subq	$40, %rsp
	.seh_stackalloc 40
	.seh_endprologue
	callq	_ZN77_$LT$alloc..raw_vec..RawVec$LT$T$C$A$GT$$u20$as$u20$core..ops..drop..Drop$GT$4drop17h65b9d7a6e596066bE
	nop
	addq	$40, %rsp
	retq
	.seh_endproc

	.def	_ZN4core3ptr82drop_in_place$LT$core..option..Option$LT$std..sys..windows..process..Stdio$GT$$GT$17h6db9057cb7083fecE;
	.scl	3;
	.type	32;
	.endef
	.section	.text,"xr",one_only,_ZN4core3ptr82drop_in_place$LT$core..option..Option$LT$std..sys..windows..process..Stdio$GT$$GT$17h6db9057cb7083fecE
	.p2align	4, 0x90
_ZN4core3ptr82drop_in_place$LT$core..option..Option$LT$std..sys..windows..process..Stdio$GT$$GT$17h6db9057cb7083fecE:
.seh_proc _ZN4core3ptr82drop_in_place$LT$core..option..Option$LT$std..sys..windows..process..Stdio$GT$$GT$17h6db9057cb7083fecE
	subq	$40, %rsp
	.seh_stackalloc 40
	.seh_endprologue
	movq	%rcx, %rdx
	movq	%rdx, 32(%rsp)
	movl	$1, %eax
	xorl	%ecx, %ecx
	cmpl	$6, (%rdx)
	cmoveq	%rcx, %rax
	cmpq	$0, %rax
	jne	.LBB73_2
.LBB73_1:
	addq	$40, %rsp
	retq
.LBB73_2:
	movq	32(%rsp), %rcx
	callq	_ZN4core3ptr54drop_in_place$LT$std..sys..windows..process..Stdio$GT$17he788c62e43f4a7ecE
	jmp	.LBB73_1
	.seh_endproc

	.def	_ZN4core3ptr85drop_in_place$LT$std..rt..lang_start$LT$$LP$$RP$$GT$..$u7b$$u7b$closure$u7d$$u7d$$GT$17hf802628fe4242836E;
	.scl	3;
	.type	32;
	.endef
	.section	.text,"xr",one_only,_ZN4core3ptr85drop_in_place$LT$std..rt..lang_start$LT$$LP$$RP$$GT$..$u7b$$u7b$closure$u7d$$u7d$$GT$17hf802628fe4242836E
	.p2align	4, 0x90
_ZN4core3ptr85drop_in_place$LT$std..rt..lang_start$LT$$LP$$RP$$GT$..$u7b$$u7b$closure$u7d$$u7d$$GT$17hf802628fe4242836E:
	retq

	.def	_ZN4core3ptr93drop_in_place$LT$core..result..Result$LT$std..process..Output$C$std..io..error..Error$GT$$GT$17haf6238463d311c35E;
	.scl	3;
	.type	32;
	.endef
	.section	.text,"xr",one_only,_ZN4core3ptr93drop_in_place$LT$core..result..Result$LT$std..process..Output$C$std..io..error..Error$GT$$GT$17haf6238463d311c35E
	.p2align	4, 0x90
_ZN4core3ptr93drop_in_place$LT$core..result..Result$LT$std..process..Output$C$std..io..error..Error$GT$$GT$17haf6238463d311c35E:
.seh_proc _ZN4core3ptr93drop_in_place$LT$core..result..Result$LT$std..process..Output$C$std..io..error..Error$GT$$GT$17haf6238463d311c35E
	subq	$40, %rsp
	.seh_stackalloc 40
	.seh_endprologue
	movq	%rcx, %rdx
	movq	%rdx, 32(%rsp)
	movabsq	$-9223372036854775808, %r8
	xorl	%eax, %eax
	movl	$1, %ecx
	cmpq	%r8, (%rdx)
	cmoveq	%rcx, %rax
	cmpq	$0, %rax
	jne	.LBB75_2
	movq	32(%rsp), %rcx
	callq	_ZN4core3ptr41drop_in_place$LT$std..process..Output$GT$17h04d9089dddfff39cE
	jmp	.LBB75_3
.LBB75_2:
	movq	32(%rsp), %rcx
	addq	$8, %rcx
	callq	_ZN4core3ptr42drop_in_place$LT$std..io..error..Error$GT$17h666c4a9a1d1508fcE
.LBB75_3:
	nop
	addq	$40, %rsp
	retq
	.seh_endproc

	.def	_ZN4core3ptr93drop_in_place$LT$dyn$u20$core..error..Error$u2b$core..marker..Send$u2b$core..marker..Sync$GT$17h6dbc0752f081e535E;
	.scl	3;
	.type	32;
	.endef
	.section	.text,"xr",one_only,_ZN4core3ptr93drop_in_place$LT$dyn$u20$core..error..Error$u2b$core..marker..Send$u2b$core..marker..Sync$GT$17h6dbc0752f081e535E
	.p2align	4, 0x90
_ZN4core3ptr93drop_in_place$LT$dyn$u20$core..error..Error$u2b$core..marker..Send$u2b$core..marker..Sync$GT$17h6dbc0752f081e535E:
.seh_proc _ZN4core3ptr93drop_in_place$LT$dyn$u20$core..error..Error$u2b$core..marker..Send$u2b$core..marker..Sync$GT$17h6dbc0752f081e535E
	subq	$40, %rsp
	.seh_stackalloc 40
	.seh_endprologue
	callq	*(%rdx)
	nop
	addq	$40, %rsp
	retq
	.seh_endproc

	.def	_ZN4core3ptr95drop_in_place$LT$alloc..boxed..Box$LT$dyn$u20$core..marker..Send$u2b$core..marker..Sync$GT$$GT$17hf6e68248e93d6b6fE;
	.scl	3;
	.type	32;
	.endef
	.section	.text,"xr",one_only,_ZN4core3ptr95drop_in_place$LT$alloc..boxed..Box$LT$dyn$u20$core..marker..Send$u2b$core..marker..Sync$GT$$GT$17hf6e68248e93d6b6fE
	.p2align	4, 0x90
_ZN4core3ptr95drop_in_place$LT$alloc..boxed..Box$LT$dyn$u20$core..marker..Send$u2b$core..marker..Sync$GT$$GT$17hf6e68248e93d6b6fE:
.Lfunc_begin18:
.seh_proc _ZN4core3ptr95drop_in_place$LT$alloc..boxed..Box$LT$dyn$u20$core..marker..Send$u2b$core..marker..Sync$GT$$GT$17hf6e68248e93d6b6fE
	.seh_handler __CxxFrameHandler3, @unwind, @except
	pushq	%rbp
	.seh_pushreg %rbp
	subq	$48, %rsp
	.seh_stackalloc 48
	leaq	48(%rsp), %rbp
	.seh_setframe %rbp, 48
	.seh_endprologue
	movq	$-2, -8(%rbp)
	movq	%rcx, %rax
	movq	%rax, -16(%rbp)
	movq	(%rax), %rcx
	movq	8(%rax), %rax
	movq	(%rax), %rax
.Ltmp62:
	callq	*%rax
.Ltmp63:
	jmp	.LBB77_2
.LBB77_2:
	movq	-16(%rbp), %rcx
	callq	_ZN72_$LT$alloc..boxed..Box$LT$T$C$A$GT$$u20$as$u20$core..ops..drop..Drop$GT$4drop17hdd4f891242a63ec9E
	nop
	addq	$48, %rsp
	popq	%rbp
	retq
	.seh_handlerdata
	.long	($cppxdata$_ZN4core3ptr95drop_in_place$LT$alloc..boxed..Box$LT$dyn$u20$core..marker..Send$u2b$core..marker..Sync$GT$$GT$17hf6e68248e93d6b6fE)@IMGREL
	.section	.text,"xr",one_only,_ZN4core3ptr95drop_in_place$LT$alloc..boxed..Box$LT$dyn$u20$core..marker..Send$u2b$core..marker..Sync$GT$$GT$17hf6e68248e93d6b6fE
	.seh_endproc
	.def	"?dtor$1@?0?_ZN4core3ptr95drop_in_place$LT$alloc..boxed..Box$LT$dyn$u20$core..marker..Send$u2b$core..marker..Sync$GT$$GT$17hf6e68248e93d6b6fE@4HA";
	.scl	3;
	.type	32;
	.endef
	.p2align	4, 0x90
"?dtor$1@?0?_ZN4core3ptr95drop_in_place$LT$alloc..boxed..Box$LT$dyn$u20$core..marker..Send$u2b$core..marker..Sync$GT$$GT$17hf6e68248e93d6b6fE@4HA":
.seh_proc "?dtor$1@?0?_ZN4core3ptr95drop_in_place$LT$alloc..boxed..Box$LT$dyn$u20$core..marker..Send$u2b$core..marker..Sync$GT$$GT$17hf6e68248e93d6b6fE@4HA"
.LBB77_1:
	movq	%rdx, 16(%rsp)
	pushq	%rbp
	.seh_pushreg %rbp
	subq	$32, %rsp
	.seh_stackalloc 32
	leaq	48(%rdx), %rbp
	.seh_endprologue
	movq	-16(%rbp), %rcx
	callq	_ZN72_$LT$alloc..boxed..Box$LT$T$C$A$GT$$u20$as$u20$core..ops..drop..Drop$GT$4drop17hdd4f891242a63ec9E
	nop
	addq	$32, %rsp
	popq	%rbp
	retq
.Lfunc_end18:
	.seh_handlerdata
	.section	.text,"xr",one_only,_ZN4core3ptr95drop_in_place$LT$alloc..boxed..Box$LT$dyn$u20$core..marker..Send$u2b$core..marker..Sync$GT$$GT$17hf6e68248e93d6b6fE
	.seh_endproc
	.section	.xdata,"dr",associative,_ZN4core3ptr95drop_in_place$LT$alloc..boxed..Box$LT$dyn$u20$core..marker..Send$u2b$core..marker..Sync$GT$$GT$17hf6e68248e93d6b6fE
	.p2align	2, 0x0
$cppxdata$_ZN4core3ptr95drop_in_place$LT$alloc..boxed..Box$LT$dyn$u20$core..marker..Send$u2b$core..marker..Sync$GT$$GT$17hf6e68248e93d6b6fE:
	.long	429065506
	.long	1
	.long	($stateUnwindMap$_ZN4core3ptr95drop_in_place$LT$alloc..boxed..Box$LT$dyn$u20$core..marker..Send$u2b$core..marker..Sync$GT$$GT$17hf6e68248e93d6b6fE)@IMGREL
	.long	0
	.long	0
	.long	3
	.long	($ip2state$_ZN4core3ptr95drop_in_place$LT$alloc..boxed..Box$LT$dyn$u20$core..marker..Send$u2b$core..marker..Sync$GT$$GT$17hf6e68248e93d6b6fE)@IMGREL
	.long	40
	.long	0
	.long	1
$stateUnwindMap$_ZN4core3ptr95drop_in_place$LT$alloc..boxed..Box$LT$dyn$u20$core..marker..Send$u2b$core..marker..Sync$GT$$GT$17hf6e68248e93d6b6fE:
	.long	-1
	.long	"?dtor$1@?0?_ZN4core3ptr95drop_in_place$LT$alloc..boxed..Box$LT$dyn$u20$core..marker..Send$u2b$core..marker..Sync$GT$$GT$17hf6e68248e93d6b6fE@4HA"@IMGREL
$ip2state$_ZN4core3ptr95drop_in_place$LT$alloc..boxed..Box$LT$dyn$u20$core..marker..Send$u2b$core..marker..Sync$GT$$GT$17hf6e68248e93d6b6fE:
	.long	.Lfunc_begin18@IMGREL
	.long	-1
	.long	.Ltmp62@IMGREL+1
	.long	0
	.long	.Ltmp63@IMGREL+1
	.long	-1
	.section	.text,"xr",one_only,_ZN4core3ptr95drop_in_place$LT$alloc..boxed..Box$LT$dyn$u20$core..marker..Send$u2b$core..marker..Sync$GT$$GT$17hf6e68248e93d6b6fE

	.def	_ZN4core3str11validations15next_code_point17ha58b454571bd33abE;
	.scl	3;
	.type	32;
	.endef
	.section	.text,"xr",one_only,_ZN4core3str11validations15next_code_point17ha58b454571bd33abE
	.p2align	4, 0x90
_ZN4core3str11validations15next_code_point17ha58b454571bd33abE:
.seh_proc _ZN4core3str11validations15next_code_point17ha58b454571bd33abE
	subq	$120, %rsp
	.seh_stackalloc 120
	.seh_endprologue
	movq	%rcx, 56(%rsp)
	callq	_ZN91_$LT$core..slice..iter..Iter$LT$T$GT$$u20$as$u20$core..iter..traits..iterator..Iterator$GT$4next17h80071ba81214245dE
	movq	%rax, 80(%rsp)
	movq	80(%rsp), %rdx
	movl	$1, %eax
	xorl	%ecx, %ecx
	cmpq	$0, %rdx
	cmoveq	%rcx, %rax
	cmpq	$0, %rax
	jne	.LBB78_2
	movq	$0, 72(%rsp)
	jmp	.LBB78_3
.LBB78_2:
	movq	80(%rsp), %rax
	movq	%rax, 72(%rsp)
.LBB78_3:
	movq	72(%rsp), %rdx
	xorl	%eax, %eax
	movl	$1, %ecx
	cmpq	$0, %rdx
	cmoveq	%rcx, %rax
	cmpq	$0, %rax
	jne	.LBB78_5
	movq	72(%rsp), %rax
	movb	(%rax), %al
	movb	%al, 55(%rsp)
	cmpb	$-128, %al
	jb	.LBB78_7
	jmp	.LBB78_6
.LBB78_5:
	movl	$0, 64(%rsp)
	jmp	.LBB78_12
.LBB78_6:
	movb	55(%rsp), %al
	movq	56(%rsp), %rcx
	andb	$31, %al
	movzbl	%al, %eax
	movl	%eax, 48(%rsp)
	callq	_ZN91_$LT$core..slice..iter..Iter$LT$T$GT$$u20$as$u20$core..iter..traits..iterator..Iterator$GT$4next17h80071ba81214245dE
	movl	48(%rsp), %ecx
	movq	%rax, %rdx
	movb	55(%rsp), %al
	movq	%rdx, 88(%rsp)
	movq	88(%rsp), %rdx
	movb	(%rdx), %dl
	movb	%dl, 54(%rsp)
	shll	$6, %ecx
	andb	$63, %dl
	movzbl	%dl, %edx
	orl	%edx, %ecx
	movl	%ecx, 100(%rsp)
	cmpb	$-32, %al
	jae	.LBB78_9
	jmp	.LBB78_8
.LBB78_7:
	movb	55(%rsp), %al
	movzbl	%al, %eax
	movl	%eax, 68(%rsp)
	movl	$1, 64(%rsp)
	jmp	.LBB78_12
.LBB78_8:
	movl	100(%rsp), %eax
	movl	%eax, 68(%rsp)
	movl	$1, 64(%rsp)
	jmp	.LBB78_12
.LBB78_9:
	movq	56(%rsp), %rcx
	callq	_ZN91_$LT$core..slice..iter..Iter$LT$T$GT$$u20$as$u20$core..iter..traits..iterator..Iterator$GT$4next17h80071ba81214245dE
	movb	54(%rsp), %dl
	movl	48(%rsp), %ecx
	movq	%rax, %r8
	movb	55(%rsp), %al
	movq	%r8, 104(%rsp)
	movq	104(%rsp), %r8
	movb	(%r8), %r8b
	andb	$63, %dl
	movzbl	%dl, %edx
	shll	$6, %edx
	andb	$63, %r8b
	movzbl	%r8b, %r8d
	orl	%r8d, %edx
	movl	%edx, 44(%rsp)
	shll	$12, %ecx
	orl	%edx, %ecx
	movl	%ecx, 100(%rsp)
	cmpb	$-16, %al
	jae	.LBB78_11
.LBB78_10:
	jmp	.LBB78_8
.LBB78_11:
	movq	56(%rsp), %rcx
	callq	_ZN91_$LT$core..slice..iter..Iter$LT$T$GT$$u20$as$u20$core..iter..traits..iterator..Iterator$GT$4next17h80071ba81214245dE
	movl	44(%rsp), %ecx
	movq	%rax, %rdx
	movl	48(%rsp), %eax
	movq	%rdx, 112(%rsp)
	movq	112(%rsp), %rdx
	movb	(%rdx), %dl
	andl	$7, %eax
	shll	$18, %eax
	shll	$6, %ecx
	andb	$63, %dl
	movzbl	%dl, %edx
	orl	%edx, %ecx
	orl	%ecx, %eax
	movl	%eax, 100(%rsp)
	jmp	.LBB78_10
.LBB78_12:
	movl	64(%rsp), %eax
	movl	68(%rsp), %edx
	addq	$120, %rsp
	retq
	.seh_endproc

	.def	_ZN4core3str21_$LT$impl$u20$str$GT$11starts_with17hbe3f25909c3d2771E;
	.scl	3;
	.type	32;
	.endef
	.section	.text,"xr",one_only,_ZN4core3str21_$LT$impl$u20$str$GT$11starts_with17hbe3f25909c3d2771E
	.p2align	4, 0x90
_ZN4core3str21_$LT$impl$u20$str$GT$11starts_with17hbe3f25909c3d2771E:
.seh_proc _ZN4core3str21_$LT$impl$u20$str$GT$11starts_with17hbe3f25909c3d2771E
	subq	$56, %rsp
	.seh_stackalloc 56
	.seh_endprologue
	movq	%r9, 40(%rsp)
	movq	%r8, 48(%rsp)
	movq	%rdx, %r9
	movq	40(%rsp), %rdx
	movq	%rcx, %r8
	movq	48(%rsp), %rcx
	callq	_ZN55_$LT$$RF$str$u20$as$u20$core..str..pattern..Pattern$GT$12is_prefix_of17hd8c72630cfb07edaE
	andb	$1, %al
	movzbl	%al, %eax
	addq	$56, %rsp
	retq
	.seh_endproc

	.def	_ZN4core3str21_$LT$impl$u20$str$GT$16is_char_boundary17h920215343d7c0335E;
	.scl	3;
	.type	32;
	.endef
	.section	.text,"xr",one_only,_ZN4core3str21_$LT$impl$u20$str$GT$16is_char_boundary17h920215343d7c0335E
	.p2align	4, 0x90
_ZN4core3str21_$LT$impl$u20$str$GT$16is_char_boundary17h920215343d7c0335E:
.seh_proc _ZN4core3str21_$LT$impl$u20$str$GT$16is_char_boundary17h920215343d7c0335E
	subq	$56, %rsp
	.seh_stackalloc 56
	.seh_endprologue
	movq	%r8, (%rsp)
	movq	%rdx, 8(%rsp)
	movq	%rcx, 16(%rsp)
	cmpq	$0, %r8
	jne	.LBB80_2
	movb	$1, 31(%rsp)
	jmp	.LBB80_3
.LBB80_2:
	movq	(%rsp), %rax
	movq	8(%rsp), %rcx
	cmpq	%rcx, %rax
	jb	.LBB80_5
	jmp	.LBB80_4
.LBB80_3:
	movb	31(%rsp), %al
	andb	$1, %al
	movzbl	%al, %eax
	addq	$56, %rsp
	retq
.LBB80_4:
	movq	$0, 32(%rsp)
	jmp	.LBB80_6
.LBB80_5:
	movq	(%rsp), %rcx
	movq	16(%rsp), %rax
	movq	8(%rsp), %rdx
	movq	%rax, 40(%rsp)
	movq	%rdx, 48(%rsp)
	addq	%rcx, %rax
	movq	%rax, 32(%rsp)
.LBB80_6:
	movq	32(%rsp), %rdx
	movl	$1, %eax
	xorl	%ecx, %ecx
	cmpq	$0, %rdx
	cmoveq	%rcx, %rax
	cmpq	$0, %rax
	jne	.LBB80_8
	movq	(%rsp), %rax
	movq	8(%rsp), %rcx
	cmpq	%rcx, %rax
	sete	%al
	andb	$1, %al
	movb	%al, 31(%rsp)
	jmp	.LBB80_9
.LBB80_8:
	movq	32(%rsp), %rax
	cmpb	$-64, (%rax)
	setge	%al
	andb	$1, %al
	movb	%al, 31(%rsp)
.LBB80_9:
	jmp	.LBB80_3
	.seh_endproc

	.def	_ZN4core3str21_$LT$impl$u20$str$GT$3len17hd681d07d0f5d4834E;
	.scl	3;
	.type	32;
	.endef
	.section	.text,"xr",one_only,_ZN4core3str21_$LT$impl$u20$str$GT$3len17hd681d07d0f5d4834E
	.p2align	4, 0x90
_ZN4core3str21_$LT$impl$u20$str$GT$3len17hd681d07d0f5d4834E:
	movq	%rdx, %rax
	retq

	.def	_ZN4core3str21_$LT$impl$u20$str$GT$5parse17hebae7c1f6f361373E;
	.scl	3;
	.type	32;
	.endef
	.section	.text,"xr",one_only,_ZN4core3str21_$LT$impl$u20$str$GT$5parse17hebae7c1f6f361373E
	.p2align	4, 0x90
_ZN4core3str21_$LT$impl$u20$str$GT$5parse17hebae7c1f6f361373E:
.seh_proc _ZN4core3str21_$LT$impl$u20$str$GT$5parse17hebae7c1f6f361373E
	subq	$56, %rsp
	.seh_stackalloc 56
	.seh_endprologue
	callq	_ZN4core3num60_$LT$impl$u20$core..str..traits..FromStr$u20$for$u20$u32$GT$8from_str17hda6be47f786e041aE
	movq	%rax, 48(%rsp)
	movq	48(%rsp), %rax
	movq	%rax, 40(%rsp)
	movq	40(%rsp), %rax
	addq	$56, %rsp
	retq
	.seh_endproc

	.def	_ZN4core3str21_$LT$impl$u20$str$GT$5split17h635339c50dadb5ecE;
	.scl	3;
	.type	32;
	.endef
	.section	.text,"xr",one_only,_ZN4core3str21_$LT$impl$u20$str$GT$5split17h635339c50dadb5ecE
	.p2align	4, 0x90
_ZN4core3str21_$LT$impl$u20$str$GT$5split17h635339c50dadb5ecE:
.Lfunc_begin19:
.seh_proc _ZN4core3str21_$LT$impl$u20$str$GT$5split17h635339c50dadb5ecE
	.seh_handler __CxxFrameHandler3, @unwind, @except
	pushq	%rbp
	.seh_pushreg %rbp
	subq	$192, %rsp
	.seh_stackalloc 192
	leaq	128(%rsp), %rbp
	.seh_setframe %rbp, 128
	.seh_endprologue
	movq	$-2, 56(%rbp)
	movl	%r9d, -84(%rbp)
	movq	%r8, %r9
	movq	%r9, -96(%rbp)
	movq	%rdx, %r8
	movl	-84(%rbp), %edx
	movq	%rcx, -80(%rbp)
	movq	%rcx, -72(%rbp)
.Ltmp64:
	leaq	8(%rbp), %rcx
	callq	_ZN52_$LT$char$u20$as$u20$core..str..pattern..Pattern$GT$13into_searcher17h78acb9ee437e3ed2E
.Ltmp65:
	jmp	.LBB83_2
.LBB83_2:
	movq	-96(%rbp), %rax
	movq	$0, -64(%rbp)
	movq	%rax, -56(%rbp)
	leaq	-64(%rbp), %rcx
	addq	$16, %rcx
	leaq	8(%rbp), %rdx
	movl	$48, %r8d
	callq	memcpy
	movq	-80(%rbp), %rcx
	movb	$1, (%rbp)
	movb	$0, 1(%rbp)
	leaq	-64(%rbp), %rdx
	movl	$72, %r8d
	callq	memcpy
	movq	-72(%rbp), %rax
	addq	$192, %rsp
	popq	%rbp
	retq
	.seh_handlerdata
	.long	($cppxdata$_ZN4core3str21_$LT$impl$u20$str$GT$5split17h635339c50dadb5ecE)@IMGREL
	.section	.text,"xr",one_only,_ZN4core3str21_$LT$impl$u20$str$GT$5split17h635339c50dadb5ecE
	.seh_endproc
	.def	"?dtor$1@?0?_ZN4core3str21_$LT$impl$u20$str$GT$5split17h635339c50dadb5ecE@4HA";
	.scl	3;
	.type	32;
	.endef
	.p2align	4, 0x90
"?dtor$1@?0?_ZN4core3str21_$LT$impl$u20$str$GT$5split17h635339c50dadb5ecE@4HA":
.seh_proc "?dtor$1@?0?_ZN4core3str21_$LT$impl$u20$str$GT$5split17h635339c50dadb5ecE@4HA"
.LBB83_1:
	movq	%rdx, 16(%rsp)
	pushq	%rbp
	.seh_pushreg %rbp
	subq	$32, %rsp
	.seh_stackalloc 32
	leaq	128(%rdx), %rbp
	.seh_endprologue
	addq	$32, %rsp
	popq	%rbp
	retq
.Lfunc_end19:
	.seh_handlerdata
	.section	.text,"xr",one_only,_ZN4core3str21_$LT$impl$u20$str$GT$5split17h635339c50dadb5ecE
	.seh_endproc
	.section	.xdata,"dr",associative,_ZN4core3str21_$LT$impl$u20$str$GT$5split17h635339c50dadb5ecE
	.p2align	2, 0x0
$cppxdata$_ZN4core3str21_$LT$impl$u20$str$GT$5split17h635339c50dadb5ecE:
	.long	429065506
	.long	1
	.long	($stateUnwindMap$_ZN4core3str21_$LT$impl$u20$str$GT$5split17h635339c50dadb5ecE)@IMGREL
	.long	0
	.long	0
	.long	3
	.long	($ip2state$_ZN4core3str21_$LT$impl$u20$str$GT$5split17h635339c50dadb5ecE)@IMGREL
	.long	184
	.long	0
	.long	1
$stateUnwindMap$_ZN4core3str21_$LT$impl$u20$str$GT$5split17h635339c50dadb5ecE:
	.long	-1
	.long	"?dtor$1@?0?_ZN4core3str21_$LT$impl$u20$str$GT$5split17h635339c50dadb5ecE@4HA"@IMGREL
$ip2state$_ZN4core3str21_$LT$impl$u20$str$GT$5split17h635339c50dadb5ecE:
	.long	.Lfunc_begin19@IMGREL
	.long	-1
	.long	.Ltmp64@IMGREL+1
	.long	0
	.long	.Ltmp65@IMGREL+1
	.long	-1
	.section	.text,"xr",one_only,_ZN4core3str21_$LT$impl$u20$str$GT$5split17h635339c50dadb5ecE

	.def	_ZN4core3str21_$LT$impl$u20$str$GT$8contains17h106170f96ff3f9fcE;
	.scl	3;
	.type	32;
	.endef
	.section	.text,"xr",one_only,_ZN4core3str21_$LT$impl$u20$str$GT$8contains17h106170f96ff3f9fcE
	.p2align	4, 0x90
_ZN4core3str21_$LT$impl$u20$str$GT$8contains17h106170f96ff3f9fcE:
.seh_proc _ZN4core3str21_$LT$impl$u20$str$GT$8contains17h106170f96ff3f9fcE
	subq	$56, %rsp
	.seh_stackalloc 56
	.seh_endprologue
	movq	%r9, 40(%rsp)
	movq	%r8, 48(%rsp)
	movq	%rdx, %r9
	movq	40(%rsp), %rdx
	movq	%rcx, %r8
	movq	48(%rsp), %rcx
	callq	_ZN55_$LT$$RF$str$u20$as$u20$core..str..pattern..Pattern$GT$15is_contained_in17he73907d3adb42944E
	andb	$1, %al
	movzbl	%al, %eax
	addq	$56, %rsp
	retq
	.seh_endproc

	.def	_ZN4core3str4iter22SplitInternal$LT$P$GT$4next17h4456a868d9a39ee8E;
	.scl	3;
	.type	32;
	.endef
	.section	.text,"xr",one_only,_ZN4core3str4iter22SplitInternal$LT$P$GT$4next17h4456a868d9a39ee8E
	.p2align	4, 0x90
_ZN4core3str4iter22SplitInternal$LT$P$GT$4next17h4456a868d9a39ee8E:
.seh_proc _ZN4core3str4iter22SplitInternal$LT$P$GT$4next17h4456a868d9a39ee8E
	subq	$120, %rsp
	.seh_stackalloc 120
	.seh_endprologue
	movq	%rcx, 40(%rsp)
	testb	$1, 65(%rcx)
	jne	.LBB85_2
	movq	40(%rsp), %rcx
	addq	$16, %rcx
	callq	_ZN81_$LT$core..str..pattern..CharSearcher$u20$as$u20$core..str..pattern..Searcher$GT$8haystack17hf93bc46c997f292aE
	movq	%rax, 32(%rsp)
	movq	40(%rsp), %rdx
	addq	$16, %rdx
	leaq	64(%rsp), %rcx
	callq	_ZN81_$LT$core..str..pattern..CharSearcher$u20$as$u20$core..str..pattern..Searcher$GT$10next_match17h917189ccd541a322E
	cmpq	$0, 64(%rsp)
	je	.LBB85_3
	jmp	.LBB85_4
.LBB85_2:
	movq	$0, 48(%rsp)
	jmp	.LBB85_6
.LBB85_3:
	movq	40(%rsp), %rcx
	callq	_ZN4core3str4iter22SplitInternal$LT$P$GT$7get_end17hb394530b25d86aa1E
	movq	%rdx, 56(%rsp)
	movq	%rax, 48(%rsp)
	jmp	.LBB85_5
.LBB85_4:
	movq	40(%rsp), %rdx
	movq	32(%rsp), %rcx
	movq	72(%rsp), %rax
	movq	80(%rsp), %r8
	movq	(%rdx), %r9
	addq	%r9, %rcx
	subq	%r9, %rax
	movq	%rcx, 104(%rsp)
	movq	%rax, 112(%rsp)
	movq	104(%rsp), %rcx
	movq	112(%rsp), %rax
	movq	%rcx, 88(%rsp)
	movq	%rax, 96(%rsp)
	movq	88(%rsp), %rcx
	movq	96(%rsp), %rax
	movq	%r8, (%rdx)
	movq	%rcx, 48(%rsp)
	movq	%rax, 56(%rsp)
.LBB85_5:
	jmp	.LBB85_6
.LBB85_6:
	movq	48(%rsp), %rax
	movq	56(%rsp), %rdx
	addq	$120, %rsp
	retq
	.seh_endproc

	.def	_ZN4core3str4iter22SplitInternal$LT$P$GT$7get_end17hb394530b25d86aa1E;
	.scl	3;
	.type	32;
	.endef
	.section	.text,"xr",one_only,_ZN4core3str4iter22SplitInternal$LT$P$GT$7get_end17hb394530b25d86aa1E
	.p2align	4, 0x90
_ZN4core3str4iter22SplitInternal$LT$P$GT$7get_end17hb394530b25d86aa1E:
.seh_proc _ZN4core3str4iter22SplitInternal$LT$P$GT$7get_end17hb394530b25d86aa1E
	subq	$88, %rsp
	.seh_stackalloc 88
	.seh_endprologue
	movq	%rcx, 32(%rsp)
	testb	$1, 65(%rcx)
	jne	.LBB86_2
	movq	32(%rsp), %rax
	movb	$1, 65(%rax)
	testb	$1, 64(%rax)
	jne	.LBB86_4
	jmp	.LBB86_3
.LBB86_2:
	movq	$0, 40(%rsp)
	jmp	.LBB86_6
.LBB86_3:
	movq	32(%rsp), %rcx
	movq	8(%rcx), %rax
	subq	(%rcx), %rax
	cmpq	$0, %rax
	jbe	.LBB86_5
.LBB86_4:
	movq	32(%rsp), %rcx
	addq	$16, %rcx
	callq	_ZN81_$LT$core..str..pattern..CharSearcher$u20$as$u20$core..str..pattern..Searcher$GT$8haystack17hf93bc46c997f292aE
	movq	%rax, %rcx
	movq	32(%rsp), %rax
	movq	(%rax), %rdx
	movq	8(%rax), %rax
	addq	%rdx, %rcx
	subq	%rdx, %rax
	movq	%rcx, 72(%rsp)
	movq	%rax, 80(%rsp)
	movq	72(%rsp), %rcx
	movq	80(%rsp), %rax
	movq	%rcx, 56(%rsp)
	movq	%rax, 64(%rsp)
	movq	56(%rsp), %rcx
	movq	64(%rsp), %rax
	movq	%rcx, 40(%rsp)
	movq	%rax, 48(%rsp)
	jmp	.LBB86_6
.LBB86_5:
	jmp	.LBB86_2
.LBB86_6:
	movq	40(%rsp), %rax
	movq	48(%rsp), %rdx
	addq	$88, %rsp
	retq
	.seh_endproc

	.def	_ZN4core3str6traits112_$LT$impl$u20$core..slice..index..SliceIndex$LT$str$GT$$u20$for$u20$core..ops..range..RangeFrom$LT$usize$GT$$GT$3get17hff23d911ee785f07E;
	.scl	3;
	.type	32;
	.endef
	.section	.text,"xr",one_only,_ZN4core3str6traits112_$LT$impl$u20$core..slice..index..SliceIndex$LT$str$GT$$u20$for$u20$core..ops..range..RangeFrom$LT$usize$GT$$GT$3get17hff23d911ee785f07E
	.p2align	4, 0x90
_ZN4core3str6traits112_$LT$impl$u20$core..slice..index..SliceIndex$LT$str$GT$$u20$for$u20$core..ops..range..RangeFrom$LT$usize$GT$$GT$3get17hff23d911ee785f07E:
.seh_proc _ZN4core3str6traits112_$LT$impl$u20$core..slice..index..SliceIndex$LT$str$GT$$u20$for$u20$core..ops..range..RangeFrom$LT$usize$GT$$GT$3get17hff23d911ee785f07E
	subq	$120, %rsp
	.seh_stackalloc 120
	.seh_endprologue
	movq	%r8, 32(%rsp)
	movq	%rdx, %rax
	movq	32(%rsp), %rdx
	movq	%rax, 40(%rsp)
	movq	%rcx, %r8
	movq	40(%rsp), %rcx
	movq	%r8, 48(%rsp)
	callq	_ZN4core3str21_$LT$impl$u20$str$GT$16is_char_boundary17h920215343d7c0335E
	testb	$1, %al
	jne	.LBB87_2
	movq	$0, 56(%rsp)
	jmp	.LBB87_3
.LBB87_2:
	movq	48(%rsp), %rdx
	movq	40(%rsp), %rcx
	movq	32(%rsp), %rax
	movq	%rcx, 72(%rsp)
	movq	%rax, 80(%rsp)
	movq	80(%rsp), %rax
	addq	%rdx, %rcx
	subq	%rdx, %rax
	movq	%rcx, 104(%rsp)
	movq	%rax, 112(%rsp)
	movq	104(%rsp), %rcx
	movq	112(%rsp), %rax
	movq	%rcx, 88(%rsp)
	movq	%rax, 96(%rsp)
	movq	88(%rsp), %rcx
	movq	96(%rsp), %rax
	movq	%rcx, 56(%rsp)
	movq	%rax, 64(%rsp)
.LBB87_3:
	movq	56(%rsp), %rax
	movq	64(%rsp), %rdx
	addq	$120, %rsp
	retq
	.seh_endproc

	.def	_ZN4core3str6traits112_$LT$impl$u20$core..slice..index..SliceIndex$LT$str$GT$$u20$for$u20$core..ops..range..RangeFrom$LT$usize$GT$$GT$5index17h0fd64766b9b86b88E;
	.scl	3;
	.type	32;
	.endef
	.section	.text,"xr",one_only,_ZN4core3str6traits112_$LT$impl$u20$core..slice..index..SliceIndex$LT$str$GT$$u20$for$u20$core..ops..range..RangeFrom$LT$usize$GT$$GT$5index17h0fd64766b9b86b88E
	.p2align	4, 0x90
_ZN4core3str6traits112_$LT$impl$u20$core..slice..index..SliceIndex$LT$str$GT$$u20$for$u20$core..ops..range..RangeFrom$LT$usize$GT$$GT$5index17h0fd64766b9b86b88E:
.seh_proc _ZN4core3str6traits112_$LT$impl$u20$core..slice..index..SliceIndex$LT$str$GT$$u20$for$u20$core..ops..range..RangeFrom$LT$usize$GT$$GT$5index17h0fd64766b9b86b88E
	subq	$88, %rsp
	.seh_stackalloc 88
	.seh_endprologue
	movq	%r9, 40(%rsp)
	movq	%r8, 48(%rsp)
	movq	%rdx, 56(%rsp)
	movq	%rcx, 64(%rsp)
	callq	_ZN4core3str6traits112_$LT$impl$u20$core..slice..index..SliceIndex$LT$str$GT$$u20$for$u20$core..ops..range..RangeFrom$LT$usize$GT$$GT$3get17hff23d911ee785f07E
	movq	%rdx, 80(%rsp)
	movq	%rax, 72(%rsp)
	movq	72(%rsp), %rdx
	movl	$1, %eax
	xorl	%ecx, %ecx
	cmpq	$0, %rdx
	cmoveq	%rcx, %rax
	cmpq	$0, %rax
	jne	.LBB88_2
	movq	48(%rsp), %r9
	movq	64(%rsp), %r8
	movq	56(%rsp), %rcx
	movq	40(%rsp), %rdx
	movq	%rsp, %rax
	movq	%rdx, 32(%rax)
	movq	%r9, %rdx
	callq	_ZN4core3str16slice_error_fail17h1fda531fa5713a2aE
.LBB88_2:
	movq	72(%rsp), %rax
	movq	80(%rsp), %rdx
	addq	$88, %rsp
	retq
	.seh_endproc

	.def	_ZN4core3str6traits54_$LT$impl$u20$core..cmp..PartialEq$u20$for$u20$str$GT$2eq17hde8e68b5ae6ee0d7E;
	.scl	3;
	.type	32;
	.endef
	.section	.text,"xr",one_only,_ZN4core3str6traits54_$LT$impl$u20$core..cmp..PartialEq$u20$for$u20$str$GT$2eq17hde8e68b5ae6ee0d7E
	.p2align	4, 0x90
_ZN4core3str6traits54_$LT$impl$u20$core..cmp..PartialEq$u20$for$u20$str$GT$2eq17hde8e68b5ae6ee0d7E:
.seh_proc _ZN4core3str6traits54_$LT$impl$u20$core..cmp..PartialEq$u20$for$u20$str$GT$2eq17hde8e68b5ae6ee0d7E
	subq	$72, %rsp
	.seh_stackalloc 72
	.seh_endprologue
	movq	%rcx, 40(%rsp)
	movq	%rdx, 48(%rsp)
	movq	%r8, 56(%rsp)
	movq	%r9, 64(%rsp)
	movq	40(%rsp), %rcx
	movq	48(%rsp), %rdx
	movq	56(%rsp), %r8
	movq	64(%rsp), %r9
	callq	_ZN73_$LT$$u5b$A$u5d$$u20$as$u20$core..slice..cmp..SlicePartialEq$LT$B$GT$$GT$5equal17h7fdc621190a0b157E
	andb	$1, %al
	movzbl	%al, %eax
	addq	$72, %rsp
	retq
	.seh_endproc

	.def	_ZN4core3str6traits66_$LT$impl$u20$core..ops..index..Index$LT$I$GT$$u20$for$u20$str$GT$5index17hf908410976005aa5E;
	.scl	3;
	.type	32;
	.endef
	.section	.text,"xr",one_only,_ZN4core3str6traits66_$LT$impl$u20$core..ops..index..Index$LT$I$GT$$u20$for$u20$str$GT$5index17hf908410976005aa5E
	.p2align	4, 0x90
_ZN4core3str6traits66_$LT$impl$u20$core..ops..index..Index$LT$I$GT$$u20$for$u20$str$GT$5index17hf908410976005aa5E:
.seh_proc _ZN4core3str6traits66_$LT$impl$u20$core..ops..index..Index$LT$I$GT$$u20$for$u20$str$GT$5index17hf908410976005aa5E
	subq	$40, %rsp
	.seh_stackalloc 40
	.seh_endprologue
	movq	%r8, 32(%rsp)
	movq	%rdx, %r8
	movq	%rcx, %rdx
	movq	32(%rsp), %rcx
	callq	_ZN4core3str6traits112_$LT$impl$u20$core..slice..index..SliceIndex$LT$str$GT$$u20$for$u20$core..ops..range..RangeFrom$LT$usize$GT$$GT$5index17h0fd64766b9b86b88E
	nop
	addq	$40, %rsp
	retq
	.seh_endproc

	.def	_ZN4core3str7pattern13simd_contains17h296497b1f165ac13E;
	.scl	3;
	.type	32;
	.endef
	.section	.text,"xr",one_only,_ZN4core3str7pattern13simd_contains17h296497b1f165ac13E
	.p2align	4, 0x90
_ZN4core3str7pattern13simd_contains17h296497b1f165ac13E:
.seh_proc _ZN4core3str7pattern13simd_contains17h296497b1f165ac13E
	subq	$712, %rsp
	.seh_stackalloc 712
	.seh_endprologue
	movq	%r9, 152(%rsp)
	movq	%r8, 160(%rsp)
	movq	%rcx, 184(%rsp)
	movq	%rdx, 192(%rsp)
	movq	192(%rsp), %rcx
	movq	%rcx, 168(%rsp)
	xorl	%eax, %eax
	cmpq	%rcx, %rax
	setb	%al
	testb	$1, %al
	jne	.LBB91_1
	jmp	.LBB91_2
.LBB91_1:
	movq	184(%rsp), %rax
	movb	(%rax), %al
	movb	%al, 207(%rsp)
	movq	192(%rsp), %rax
	subq	$1, %rax
	movq	%rax, 144(%rsp)
	cmpq	$2, 192(%rsp)
	je	.LBB91_3
	jmp	.LBB91_4
.LBB91_2:
	movq	168(%rsp), %rdx
	leaq	__unnamed_8(%rip), %r8
	xorl	%eax, %eax
	movl	%eax, %ecx
	callq	_ZN4core9panicking18panic_bounds_check17hda6b295b4a93eea5E
.LBB91_3:
	movq	$1, 208(%rsp)
	jmp	.LBB91_5
.LBB91_4:
	movq	192(%rsp), %rax
	xorl	%ecx, %ecx
	subq	$4, %rax
	cmovbq	%rcx, %rax
	movq	%rax, 704(%rsp)
	movq	704(%rsp), %rcx
	movq	192(%rsp), %rax
	movq	%rcx, 232(%rsp)
	movq	%rax, 240(%rsp)
	movq	184(%rsp), %rcx
	movq	192(%rsp), %rax
	movq	%rcx, 248(%rsp)
	movq	%rax, 256(%rsp)
	leaq	207(%rsp), %rax
	movq	%rax, 264(%rsp)
	movq	264(%rsp), %rax
	movq	%rax, 608(%rsp)
	vmovdqu	248(%rsp), %xmm0
	vmovdqa	%xmm0, 592(%rsp)
	leaq	232(%rsp), %rcx
	leaq	592(%rsp), %rdx
	callq	_ZN4core4iter6traits12double_ended19DoubleEndedIterator9try_rfold17h6ec926b0b4a8f028E
	movq	%rdx, 584(%rsp)
	movq	%rax, 576(%rsp)
	cmpq	$0, 576(%rsp)
	je	.LBB91_6
	jmp	.LBB91_7
.LBB91_5:
	movq	152(%rsp), %rax
	movq	144(%rsp), %rcx
	addq	$16, %rcx
	cmpq	%rcx, %rax
	jb	.LBB91_12
	jmp	.LBB91_11
.LBB91_6:
	movq	$0, 216(%rsp)
	jmp	.LBB91_8
.LBB91_7:
	movq	584(%rsp), %rax
	movq	%rax, 224(%rsp)
	movq	$1, 216(%rsp)
.LBB91_8:
	cmpq	$1, 216(%rsp)
	jne	.LBB91_10
	movq	224(%rsp), %rax
	movq	%rax, 208(%rsp)
	jmp	.LBB91_5
.LBB91_10:
	movb	$2, 183(%rsp)
	jmp	.LBB91_55
.LBB91_11:
	movb	207(%rsp), %al
	movb	%al, 650(%rsp)
	movb	650(%rsp), %al
	movb	%al, 651(%rsp)
	movb	651(%rsp), %al
	movb	%al, 652(%rsp)
	vpbroadcastb	652(%rsp), %xmm0
	vmovdqa	%xmm0, 304(%rsp)
	movq	208(%rsp), %rax
	movq	%rax, 128(%rsp)
	movq	192(%rsp), %rcx
	movq	%rcx, 136(%rsp)
	cmpq	%rcx, %rax
	setb	%al
	testb	$1, %al
	jne	.LBB91_13
	jmp	.LBB91_14
.LBB91_12:
	movq	192(%rsp), %rax
	movq	%rax, 120(%rsp)
	cmpq	$0, %rax
	je	.LBB91_50
	jmp	.LBB91_51
.LBB91_13:
	movq	128(%rsp), %rcx
	movq	184(%rsp), %rax
	movb	(%rax,%rcx), %al
	movb	%al, 653(%rsp)
	movb	653(%rsp), %al
	movb	%al, 654(%rsp)
	movb	654(%rsp), %al
	movb	%al, 655(%rsp)
	vpbroadcastb	655(%rsp), %xmm0
	vmovdqa	%xmm0, 320(%rsp)
	movq	184(%rsp), %rax
	movq	%rax, 104(%rsp)
	movq	192(%rsp), %rcx
	movq	%rcx, 112(%rsp)
	movl	$1, %eax
	cmpq	%rcx, %rax
	ja	.LBB91_16
	jmp	.LBB91_15
.LBB91_14:
	movq	136(%rsp), %rdx
	movq	128(%rsp), %rcx
	leaq	__unnamed_9(%rip), %r8
	callq	_ZN4core9panicking18panic_bounds_check17hda6b295b4a93eea5E
.LBB91_15:
	movq	152(%rsp), %rax
	movq	160(%rsp), %rcx
	movq	104(%rsp), %r8
	movq	112(%rsp), %rdx
	movq	%r8, 656(%rsp)
	movq	%rdx, 664(%rsp)
	movq	664(%rsp), %rdx
	subq	$1, %rdx
	addq	$1, %r8
	movq	%r8, 688(%rsp)
	movq	%rdx, 696(%rsp)
	movq	688(%rsp), %r8
	movq	696(%rsp), %rdx
	movq	%r8, 672(%rsp)
	movq	%rdx, 680(%rsp)
	movq	672(%rsp), %r8
	movq	680(%rsp), %rdx
	movq	%rcx, 344(%rsp)
	movq	%rax, 352(%rsp)
	movq	%r8, 360(%rsp)
	movq	%rdx, 368(%rsp)
	movq	%rcx, 376(%rsp)
	movq	%rax, 384(%rsp)
	leaq	208(%rsp), %rax
	movq	%rax, 392(%rsp)
	leaq	304(%rsp), %rax
	movq	%rax, 400(%rsp)
	leaq	320(%rsp), %rax
	movq	%rax, 408(%rsp)
	movq	$0, 416(%rsp)
	movb	$0, 431(%rsp)
	jmp	.LBB91_17
.LBB91_16:
	movq	112(%rsp), %rdx
	leaq	__unnamed_10(%rip), %r8
	movl	$1, %ecx
	callq	_ZN4core5slice5index26slice_start_index_len_fail17h5655819e24520b3aE
.LBB91_17:
	movq	152(%rsp), %rcx
	movq	144(%rsp), %rax
	addq	416(%rsp), %rax
	addq	$64, %rax
	cmpq	%rcx, %rax
	jb	.LBB91_19
	jmp	.LBB91_20
.LBB91_19:
	testb	$1, 431(%rsp)
	je	.LBB91_21
.LBB91_20:
	jmp	.LBB91_40
.LBB91_21:
	leaq	432(%rsp), %rcx
	xorl	%edx, %edx
	movl	$8, %r8d
	callq	memset
	movq	$0, 440(%rsp)
	movq	$4, 448(%rsp)
.LBB91_22:
	movq	440(%rsp), %rax
	cmpq	448(%rsp), %rax
	jb	.LBB91_24
	movq	$0, 456(%rsp)
	jmp	.LBB91_25
.LBB91_24:
	movq	440(%rsp), %rcx
	movq	%rcx, 96(%rsp)
	movl	$1, %edx
	callq	_ZN49_$LT$usize$u20$as$u20$core..iter..range..Step$GT$17forward_unchecked17h8716c1e1d8e01e15E
	movq	%rax, %rcx
	movq	96(%rsp), %rax
	movq	%rcx, 440(%rsp)
	movq	%rax, 464(%rsp)
	movq	$1, 456(%rsp)
.LBB91_25:
	cmpq	$0, 456(%rsp)
	jne	.LBB91_27
	movq	$0, 480(%rsp)
	movq	$4, 488(%rsp)
	jmp	.LBB91_28
.LBB91_27:
	movq	464(%rsp), %rcx
	movq	%rcx, 80(%rsp)
	movq	416(%rsp), %rax
	shlq	$4, %rcx
	addq	%rcx, %rax
	movq	%rax, 472(%rsp)
	movq	472(%rsp), %rdx
	leaq	376(%rsp), %rcx
	callq	_ZN4core3str7pattern13simd_contains28_$u7b$$u7b$closure$u7d$$u7d$17hd149de9ffe3b3d51E
	movw	%ax, %cx
	movq	80(%rsp), %rax
	movw	%cx, 94(%rsp)
	cmpq	$4, %rax
	setb	%al
	testb	$1, %al
	jne	.LBB91_38
	jmp	.LBB91_39
.LBB91_28:
	movq	480(%rsp), %rax
	cmpq	488(%rsp), %rax
	jb	.LBB91_30
	movq	$0, 496(%rsp)
	jmp	.LBB91_31
.LBB91_30:
	movq	480(%rsp), %rcx
	movq	%rcx, 72(%rsp)
	movl	$1, %edx
	callq	_ZN49_$LT$usize$u20$as$u20$core..iter..range..Step$GT$17forward_unchecked17h8716c1e1d8e01e15E
	movq	%rax, %rcx
	movq	72(%rsp), %rax
	movq	%rcx, 480(%rsp)
	movq	%rax, 504(%rsp)
	movq	$1, 496(%rsp)
.LBB91_31:
	cmpq	$0, 496(%rsp)
	jne	.LBB91_33
	movq	416(%rsp), %rax
	addq	$64, %rax
	movq	%rax, 416(%rsp)
	jmp	.LBB91_17
.LBB91_33:
	movq	504(%rsp), %rax
	movq	%rax, 64(%rsp)
	cmpq	$4, %rax
	setb	%al
	testb	$1, %al
	jne	.LBB91_34
	jmp	.LBB91_35
.LBB91_34:
	movq	64(%rsp), %rax
	movw	432(%rsp,%rax,2), %ax
	movw	%ax, 62(%rsp)
	cmpw	$0, %ax
	je	.LBB91_36
	jmp	.LBB91_37
.LBB91_35:
	movq	64(%rsp), %rcx
	leaq	__unnamed_11(%rip), %r8
	movl	$4, %edx
	callq	_ZN4core9panicking18panic_bounds_check17hda6b295b4a93eea5E
.LBB91_36:
	jmp	.LBB91_28
.LBB91_37:
	movw	62(%rsp), %cx
	movq	64(%rsp), %rax
	movq	416(%rsp), %rdx
	shlq	$4, %rax
	addq	%rax, %rdx
	movb	431(%rsp), %al
	movq	%rdx, 512(%rsp)
	movw	%cx, 520(%rsp)
	andb	$1, %al
	movb	%al, 522(%rsp)
	movq	512(%rsp), %rdx
	movw	520(%rsp), %r8w
	movb	522(%rsp), %r9b
	leaq	344(%rsp), %rcx
	andb	$1, %r9b
	callq	_ZN4core3str7pattern13simd_contains28_$u7b$$u7b$closure$u7d$$u7d$17h35b22a5610efb885E
	movb	%al, %cl
	movb	431(%rsp), %al
	orb	%cl, %al
	andb	$1, %al
	movb	%al, 431(%rsp)
	jmp	.LBB91_36
.LBB91_38:
	movq	80(%rsp), %rax
	movw	94(%rsp), %cx
	movw	%cx, 432(%rsp,%rax,2)
	jmp	.LBB91_22
.LBB91_39:
	movq	80(%rsp), %rcx
	leaq	__unnamed_12(%rip), %r8
	movl	$4, %edx
	callq	_ZN4core9panicking18panic_bounds_check17hda6b295b4a93eea5E
.LBB91_40:
	movq	152(%rsp), %rcx
	movq	144(%rsp), %rax
	addq	416(%rsp), %rax
	addq	$16, %rax
	cmpq	%rcx, %rax
	jb	.LBB91_42
	jmp	.LBB91_43
.LBB91_42:
	testb	$1, 431(%rsp)
	je	.LBB91_44
.LBB91_43:
	movq	144(%rsp), %rcx
	movq	152(%rsp), %rax
	subq	%rcx, %rax
	subq	$16, %rax
	movq	%rax, 48(%rsp)
	movq	%rax, 552(%rsp)
	movq	552(%rsp), %rdx
	leaq	376(%rsp), %rcx
	callq	_ZN4core3str7pattern13simd_contains28_$u7b$$u7b$closure$u7d$$u7d$17hd149de9ffe3b3d51E
	movw	%ax, 60(%rsp)
	cmpw	$0, %ax
	je	.LBB91_47
	jmp	.LBB91_48
.LBB91_44:
	movq	416(%rsp), %rax
	movq	%rax, 528(%rsp)
	movq	528(%rsp), %rdx
	leaq	376(%rsp), %rcx
	callq	_ZN4core3str7pattern13simd_contains28_$u7b$$u7b$closure$u7d$$u7d$17hd149de9ffe3b3d51E
	movw	%ax, 46(%rsp)
	cmpw	$0, %ax
	jne	.LBB91_46
.LBB91_45:
	movq	416(%rsp), %rax
	addq	$16, %rax
	movq	%rax, 416(%rsp)
	jmp	.LBB91_40
.LBB91_46:
	movw	46(%rsp), %cx
	movq	416(%rsp), %rdx
	movb	431(%rsp), %al
	movq	%rdx, 536(%rsp)
	movw	%cx, 544(%rsp)
	andb	$1, %al
	movb	%al, 546(%rsp)
	movq	536(%rsp), %rdx
	movw	544(%rsp), %r8w
	movb	546(%rsp), %r9b
	leaq	344(%rsp), %rcx
	andb	$1, %r9b
	callq	_ZN4core3str7pattern13simd_contains28_$u7b$$u7b$closure$u7d$$u7d$17h35b22a5610efb885E
	movb	%al, %cl
	movb	431(%rsp), %al
	orb	%cl, %al
	andb	$1, %al
	movb	%al, 431(%rsp)
	jmp	.LBB91_45
.LBB91_47:
	movb	431(%rsp), %al
	andb	$1, %al
	movb	%al, 183(%rsp)
	jmp	.LBB91_49
.LBB91_48:
	movw	60(%rsp), %cx
	movq	48(%rsp), %rdx
	movb	431(%rsp), %al
	movq	%rdx, 560(%rsp)
	movw	%cx, 568(%rsp)
	andb	$1, %al
	movb	%al, 570(%rsp)
	movq	560(%rsp), %rdx
	movw	568(%rsp), %r8w
	movb	570(%rsp), %r9b
	leaq	344(%rsp), %rcx
	andb	$1, %r9b
	callq	_ZN4core3str7pattern13simd_contains28_$u7b$$u7b$closure$u7d$$u7d$17h35b22a5610efb885E
	movb	%al, %cl
	movb	431(%rsp), %al
	orb	%cl, %al
	andb	$1, %al
	movb	%al, 431(%rsp)
	jmp	.LBB91_47
.LBB91_49:
	movb	183(%rsp), %al
	addq	$712, %rsp
	retq
.LBB91_50:
	movq	$0, 616(%rsp)
	jmp	.LBB91_52
.LBB91_51:
	movq	120(%rsp), %rax
	movq	%rax, 624(%rsp)
	movq	624(%rsp), %rax
	movq	%rax, 616(%rsp)
.LBB91_52:
	movl	$1, %eax
	xorl	%ecx, %ecx
	cmpq	$0, 616(%rsp)
	cmoveq	%rcx, %rax
	cmpq	$0, %rax
	jne	.LBB91_54
	leaq	__unnamed_13(%rip), %rcx
	leaq	__unnamed_14(%rip), %r8
	movl	$28, %edx
	callq	_ZN4core6option13expect_failed17h70fb8b4f16dbc12aE
.LBB91_54:
	movq	152(%rsp), %rcx
	movq	160(%rsp), %rdx
	movq	616(%rsp), %rax
	movq	%rdx, 272(%rsp)
	movq	%rcx, 280(%rsp)
	movq	%rax, 288(%rsp)
	leaq	184(%rsp), %rax
	movq	%rax, 296(%rsp)
	movq	296(%rsp), %rax
	movq	%rax, 640(%rsp)
	movq	640(%rsp), %rdx
	leaq	272(%rsp), %rcx
	callq	_ZN4core4iter6traits8iterator8Iterator8try_fold17hfd1f9654729f4546E
	andb	$1, %al
	movb	%al, 639(%rsp)
	leaq	639(%rsp), %rcx
	leaq	__unnamed_15(%rip), %rdx
	callq	_ZN90_$LT$core..ops..control_flow..ControlFlow$LT$B$C$C$GT$$u20$as$u20$core..cmp..PartialEq$GT$2eq17h3777fb8d5ed9c772E
	andb	$1, %al
	movb	%al, 183(%rsp)
.LBB91_55:
	jmp	.LBB91_49
	.seh_endproc

	.def	_ZN4core3str7pattern13simd_contains28_$u7b$$u7b$closure$u7d$$u7d$17h35b22a5610efb885E;
	.scl	3;
	.type	32;
	.endef
	.section	.text,"xr",one_only,_ZN4core3str7pattern13simd_contains28_$u7b$$u7b$closure$u7d$$u7d$17h35b22a5610efb885E
	.p2align	4, 0x90
_ZN4core3str7pattern13simd_contains28_$u7b$$u7b$closure$u7d$$u7d$17h35b22a5610efb885E:
.seh_proc _ZN4core3str7pattern13simd_contains28_$u7b$$u7b$closure$u7d$$u7d$17h35b22a5610efb885E
	subq	$152, %rsp
	.seh_stackalloc 152
	.seh_endprologue
	movw	%r8w, 38(%rsp)
	movq	%rdx, 40(%rsp)
	movq	%rcx, 48(%rsp)
	testb	$1, %r9b
	jne	.LBB92_2
	movw	38(%rsp), %ax
	movw	%ax, 62(%rsp)
	jmp	.LBB92_3
.LBB92_2:
	movb	$0, 61(%rsp)
	jmp	.LBB92_9
.LBB92_3:
	cmpw	$0, 62(%rsp)
	jne	.LBB92_5
	movb	$0, 61(%rsp)
	jmp	.LBB92_6
.LBB92_5:
	movq	48(%rsp), %rax
	movq	40(%rsp), %r8
	movw	62(%rsp), %dx
	movw	%dx, %cx
	orl	$65536, %ecx
	tzcntl	%ecx, %ecx
	movw	%cx, 150(%rsp)
	movzwl	150(%rsp), %ecx
	movl	%ecx, 32(%rsp)
	movl	%ecx, %ecx
	addq	%rcx, %r8
	addq	$1, %r8
	movq	(%rax), %rdx
	movq	8(%rax), %rcx
	movq	%rdx, 64(%rsp)
	movq	%rcx, 72(%rsp)
	movq	72(%rsp), %rcx
	subq	%r8, %rcx
	addq	%r8, %rdx
	movq	%rdx, 96(%rsp)
	movq	%rcx, 104(%rsp)
	movq	96(%rsp), %rdx
	movq	104(%rsp), %rcx
	movq	%rdx, 80(%rsp)
	movq	%rcx, 88(%rsp)
	movq	80(%rsp), %rdx
	movq	24(%rax), %rcx
	subq	$0, %rcx
	movq	%rdx, 128(%rsp)
	movq	%rcx, 136(%rsp)
	movq	128(%rsp), %rdx
	movq	136(%rsp), %rcx
	movq	%rdx, 112(%rsp)
	movq	%rcx, 120(%rsp)
	movq	112(%rsp), %rcx
	movq	120(%rsp), %rdx
	movq	16(%rax), %r8
	movq	24(%rax), %r9
	callq	_ZN4core3str7pattern14small_slice_eq17h4ac5e083cf600888E
	testb	$1, %al
	jne	.LBB92_8
	jmp	.LBB92_7
.LBB92_6:
	jmp	.LBB92_9
.LBB92_7:
	movl	32(%rsp), %eax
	movw	%ax, %cx
	andw	$15, %cx
	movw	$1, %ax
	shlw	%cl, %ax
	xorw	$-1, %ax
	andw	62(%rsp), %ax
	movw	%ax, 62(%rsp)
	jmp	.LBB92_3
.LBB92_8:
	movb	$1, 61(%rsp)
	jmp	.LBB92_6
.LBB92_9:
	movb	61(%rsp), %al
	andb	$1, %al
	movzbl	%al, %eax
	addq	$152, %rsp
	retq
	.seh_endproc

	.def	_ZN4core3str7pattern13simd_contains28_$u7b$$u7b$closure$u7d$$u7d$17h677dc2db4f02dc02E;
	.scl	3;
	.type	32;
	.endef
	.section	.text,"xr",one_only,_ZN4core3str7pattern13simd_contains28_$u7b$$u7b$closure$u7d$$u7d$17h677dc2db4f02dc02E
	.p2align	4, 0x90
_ZN4core3str7pattern13simd_contains28_$u7b$$u7b$closure$u7d$$u7d$17h677dc2db4f02dc02E:
.seh_proc _ZN4core3str7pattern13simd_contains28_$u7b$$u7b$closure$u7d$$u7d$17h677dc2db4f02dc02E
	subq	$56, %rsp
	.seh_stackalloc 56
	.seh_endprologue
	movq	%rcx, 32(%rsp)
	movq	(%rdx), %rax
	movq	%rax, 40(%rsp)
	movq	8(%rcx), %rcx
	movq	%rcx, 48(%rsp)
	cmpq	%rcx, %rax
	setb	%al
	testb	$1, %al
	jne	.LBB93_1
	jmp	.LBB93_2
.LBB93_1:
	movq	32(%rsp), %rcx
	movq	40(%rsp), %rdx
	movq	(%rcx), %rax
	movb	(%rax,%rdx), %al
	movq	16(%rcx), %rcx
	cmpb	(%rcx), %al
	setne	%al
	andb	$1, %al
	movzbl	%al, %eax
	addq	$56, %rsp
	retq
.LBB93_2:
	movq	48(%rsp), %rdx
	movq	40(%rsp), %rcx
	leaq	__unnamed_16(%rip), %r8
	callq	_ZN4core9panicking18panic_bounds_check17hda6b295b4a93eea5E
	int3
	.seh_endproc

	.def	_ZN4core3str7pattern13simd_contains28_$u7b$$u7b$closure$u7d$$u7d$17ha0d6990955d114e0E;
	.scl	3;
	.type	32;
	.endef
	.section	.text,"xr",one_only,_ZN4core3str7pattern13simd_contains28_$u7b$$u7b$closure$u7d$$u7d$17ha0d6990955d114e0E
	.p2align	4, 0x90
_ZN4core3str7pattern13simd_contains28_$u7b$$u7b$closure$u7d$$u7d$17ha0d6990955d114e0E:
.seh_proc _ZN4core3str7pattern13simd_contains28_$u7b$$u7b$closure$u7d$$u7d$17ha0d6990955d114e0E
	subq	$56, %rsp
	.seh_stackalloc 56
	.seh_endprologue
	movq	%rdx, 40(%rsp)
	movq	%r8, 48(%rsp)
	movq	(%rcx), %rax
	movq	40(%rsp), %rcx
	movq	48(%rsp), %rdx
	movq	(%rax), %r8
	movq	8(%rax), %r9
	callq	_ZN73_$LT$$u5b$A$u5d$$u20$as$u20$core..slice..cmp..SlicePartialEq$LT$B$GT$$GT$5equal17h7fdc621190a0b157E
	andb	$1, %al
	movzbl	%al, %eax
	addq	$56, %rsp
	retq
	.seh_endproc

	.def	_ZN4core3str7pattern13simd_contains28_$u7b$$u7b$closure$u7d$$u7d$17hd149de9ffe3b3d51E;
	.scl	3;
	.type	32;
	.endef
	.section	.text,"xr",one_only,_ZN4core3str7pattern13simd_contains28_$u7b$$u7b$closure$u7d$$u7d$17hd149de9ffe3b3d51E
	.p2align	4, 0x90
_ZN4core3str7pattern13simd_contains28_$u7b$$u7b$closure$u7d$$u7d$17hd149de9ffe3b3d51E:
.seh_proc _ZN4core3str7pattern13simd_contains28_$u7b$$u7b$closure$u7d$$u7d$17hd149de9ffe3b3d51E
	subq	$152, %rsp
	.seh_stackalloc 152
	.seh_endprologue
	movq	%rdx, %r8
	movq	(%rcx), %rax
	vmovdqu	(%rax,%r8), %xmm0
	vmovdqa	%xmm0, 32(%rsp)
	vmovdqa	32(%rsp), %xmm0
	movq	(%rcx), %rdx
	movq	16(%rcx), %rax
	addq	%r8, %rdx
	movq	(%rax), %rax
	vmovdqu	(%rax,%rdx), %xmm1
	vmovdqa	%xmm1, 48(%rsp)
	vmovdqa	48(%rsp), %xmm1
	movq	24(%rcx), %rax
	vmovdqa	(%rax), %xmm2
	vpcmpeqb	%xmm2, %xmm0, %xmm0
	vmovdqa	%xmm0, 80(%rsp)
	vmovdqa	80(%rsp), %xmm0
	movq	32(%rcx), %rax
	vmovdqa	(%rax), %xmm2
	vpcmpeqb	%xmm2, %xmm1, %xmm1
	vmovdqa	%xmm1, 96(%rsp)
	vpand	96(%rsp), %xmm0, %xmm0
	vmovdqa	%xmm0, 112(%rsp)
	vmovdqa	112(%rsp), %xmm0
	vmovdqa	%xmm0, 64(%rsp)
	vmovdqa	64(%rsp), %xmm0
	vmovdqa	%xmm0, 128(%rsp)
	leaq	128(%rsp), %rcx
	callq	_ZN4core9core_simd5masks9mask_impl17Mask$LT$T$C$_$GT$18to_bitmask_integer17h72fecc4be6a93377E
	nop
	addq	$152, %rsp
	retq
	.seh_endproc

	.def	_ZN4core3str7pattern14TwoWaySearcher4next17h535375694416f8f3E;
	.scl	3;
	.type	32;
	.endef
	.section	.text,"xr",one_only,_ZN4core3str7pattern14TwoWaySearcher4next17h535375694416f8f3E
	.p2align	4, 0x90
_ZN4core3str7pattern14TwoWaySearcher4next17h535375694416f8f3E:
.seh_proc _ZN4core3str7pattern14TwoWaySearcher4next17h535375694416f8f3E
	subq	$344, %rsp
	.seh_stackalloc 344
	.seh_endprologue
	movq	%r9, 112(%rsp)
	movq	%r8, 120(%rsp)
	movq	%rdx, 128(%rsp)
	movq	%rcx, 136(%rsp)
	movq	%rcx, 144(%rsp)
	movb	400(%rsp), %al
	movb	%al, 159(%rsp)
	movq	392(%rsp), %rax
	movq	%rax, 160(%rsp)
	movq	384(%rsp), %rcx
	movq	%rcx, 168(%rsp)
	movq	32(%rdx), %rcx
	movq	%rcx, 176(%rsp)
	subq	$1, %rax
	movq	%rax, 184(%rsp)
.LBB96_1:
	movq	112(%rsp), %rcx
	movq	128(%rsp), %rdx
	movq	184(%rsp), %rax
	addq	32(%rdx), %rax
	movq	%rax, 104(%rsp)
	cmpq	%rcx, %rax
	jb	.LBB96_3
	movq	$0, 192(%rsp)
	jmp	.LBB96_4
.LBB96_3:
	movq	104(%rsp), %rcx
	movq	120(%rsp), %rax
	movq	112(%rsp), %rdx
	movq	%rax, 328(%rsp)
	movq	%rdx, 336(%rsp)
	addq	%rcx, %rax
	movq	%rax, 192(%rsp)
.LBB96_4:
	movq	192(%rsp), %rdx
	movl	$1, %eax
	xorl	%ecx, %ecx
	cmpq	$0, %rdx
	cmoveq	%rcx, %rax
	cmpq	$0, %rax
	jne	.LBB96_6
	movq	176(%rsp), %rdx
	movq	136(%rsp), %rcx
	movq	128(%rsp), %rax
	movq	112(%rsp), %r8
	movq	%r8, 32(%rax)
	movq	32(%rax), %r8
	callq	_ZN89_$LT$core..str..pattern..RejectAndMatch$u20$as$u20$core..str..pattern..TwoWayStrategy$GT$9rejecting17h39c0fff5d125258cE
	jmp	.LBB96_7
.LBB96_6:
	movq	192(%rsp), %rax
	movb	(%rax), %al
	movb	%al, 103(%rsp)
	callq	_ZN89_$LT$core..str..pattern..RejectAndMatch$u20$as$u20$core..str..pattern..TwoWayStrategy$GT$16use_early_reject17h20df5f92f9763c19E
	testb	$1, %al
	jne	.LBB96_9
	jmp	.LBB96_8
.LBB96_7:
	movq	144(%rsp), %rax
	addq	$344, %rsp
	retq
.LBB96_8:
	movb	103(%rsp), %cl
	movq	128(%rsp), %rax
	movq	24(%rax), %rax
	andb	$63, %cl
	movzbl	%cl, %ecx
	andq	$63, %rcx
	shrq	%cl, %rax
	andq	$1, %rax
	cmpq	$0, %rax
	je	.LBB96_12
	jmp	.LBB96_13
.LBB96_9:
	movq	176(%rsp), %rax
	movq	128(%rsp), %rcx
	cmpq	32(%rcx), %rax
	jne	.LBB96_11
	jmp	.LBB96_8
.LBB96_11:
	movq	176(%rsp), %rdx
	movq	136(%rsp), %rcx
	movq	128(%rsp), %rax
	movq	32(%rax), %r8
	callq	_ZN89_$LT$core..str..pattern..RejectAndMatch$u20$as$u20$core..str..pattern..TwoWayStrategy$GT$9rejecting17h39c0fff5d125258cE
	jmp	.LBB96_7
.LBB96_12:
	movb	159(%rsp), %al
	movq	128(%rsp), %rcx
	movq	160(%rsp), %rdx
	addq	32(%rcx), %rdx
	movq	%rdx, 32(%rcx)
	testb	$1, %al
	jne	.LBB96_1
	jmp	.LBB96_14
.LBB96_13:
	movb	159(%rsp), %al
	testb	$1, %al
	jne	.LBB96_16
	jmp	.LBB96_15
.LBB96_14:
	movq	128(%rsp), %rax
	movq	$0, 48(%rax)
	jmp	.LBB96_1
.LBB96_15:
	movq	128(%rsp), %rax
	movq	(%rax), %rcx
	movq	48(%rax), %rdx
	callq	_ZN4core3cmp6max_by17h43e0fe90a1f39210E
	movq	%rax, 200(%rsp)
	jmp	.LBB96_17
.LBB96_16:
	movq	128(%rsp), %rax
	movq	(%rax), %rax
	movq	%rax, 200(%rsp)
.LBB96_17:
	movq	160(%rsp), %rax
	movq	200(%rsp), %rcx
	movq	%rcx, 208(%rsp)
	movq	%rax, 216(%rsp)
	movq	208(%rsp), %rcx
	movq	216(%rsp), %rax
	movq	%rcx, 224(%rsp)
	movq	%rax, 232(%rsp)
.LBB96_18:
	movq	224(%rsp), %rax
	cmpq	232(%rsp), %rax
	jb	.LBB96_20
	movq	$0, 240(%rsp)
	jmp	.LBB96_21
.LBB96_20:
	movq	224(%rsp), %rcx
	movq	%rcx, 88(%rsp)
	movl	$1, %edx
	callq	_ZN49_$LT$usize$u20$as$u20$core..iter..range..Step$GT$17forward_unchecked17h8716c1e1d8e01e15E
	movq	%rax, %rcx
	movq	88(%rsp), %rax
	movq	%rcx, 224(%rsp)
	movq	%rax, 248(%rsp)
	movq	$1, 240(%rsp)
.LBB96_21:
	cmpq	$0, 240(%rsp)
	jne	.LBB96_23
	movb	159(%rsp), %al
	testb	$1, %al
	jne	.LBB96_25
	jmp	.LBB96_24
.LBB96_23:
	movq	160(%rsp), %rcx
	movq	248(%rsp), %rax
	movq	%rax, 80(%rsp)
	cmpq	%rcx, %rax
	setb	%al
	testb	$1, %al
	jne	.LBB96_41
	jmp	.LBB96_42
.LBB96_24:
	movq	128(%rsp), %rax
	movq	48(%rax), %rax
	movq	%rax, 256(%rsp)
	jmp	.LBB96_26
.LBB96_25:
	movq	$0, 256(%rsp)
.LBB96_26:
	movq	128(%rsp), %rax
	movq	256(%rsp), %rcx
	movq	(%rax), %rax
	movq	%rcx, 280(%rsp)
	movq	%rax, 288(%rsp)
	movq	280(%rsp), %rcx
	movq	288(%rsp), %rax
	movq	%rcx, 264(%rsp)
	movq	%rax, 272(%rsp)
	movq	264(%rsp), %rcx
	movq	272(%rsp), %rax
	movq	%rcx, 296(%rsp)
	movq	%rax, 304(%rsp)
.LBB96_27:
	leaq	296(%rsp), %rcx
	callq	_ZN89_$LT$core..ops..range..Range$LT$T$GT$$u20$as$u20$core..iter..range..RangeIteratorImpl$GT$14spec_next_back17hc682a084abee1afaE
	movq	%rdx, 320(%rsp)
	movq	%rax, 312(%rsp)
	cmpq	$0, 312(%rsp)
	jne	.LBB96_29
	movb	159(%rsp), %al
	movq	128(%rsp), %rcx
	movq	160(%rsp), %rdx
	movq	32(%rcx), %r8
	movq	%r8, 72(%rsp)
	addq	32(%rcx), %rdx
	movq	%rdx, 32(%rcx)
	testb	$1, %al
	jne	.LBB96_31
	jmp	.LBB96_30
.LBB96_29:
	movq	160(%rsp), %rcx
	movq	320(%rsp), %rax
	movq	%rax, 64(%rsp)
	cmpq	%rcx, %rax
	setb	%al
	testb	$1, %al
	jne	.LBB96_32
	jmp	.LBB96_33
.LBB96_30:
	movq	128(%rsp), %rax
	movq	$0, 48(%rax)
.LBB96_31:
	movq	72(%rsp), %rdx
	movq	136(%rsp), %rcx
	movq	160(%rsp), %rax
	movq	%rdx, %r8
	addq	%rax, %r8
	callq	_ZN89_$LT$core..str..pattern..RejectAndMatch$u20$as$u20$core..str..pattern..TwoWayStrategy$GT$8matching17hfcbaa0e6c3b35090E
	jmp	.LBB96_7
.LBB96_32:
	movq	112(%rsp), %rcx
	movq	128(%rsp), %rdx
	movq	64(%rsp), %rax
	movq	168(%rsp), %r8
	movb	(%r8,%rax), %r8b
	movb	%r8b, 55(%rsp)
	addq	32(%rdx), %rax
	movq	%rax, 56(%rsp)
	cmpq	%rcx, %rax
	setb	%al
	testb	$1, %al
	jne	.LBB96_34
	jmp	.LBB96_35
.LBB96_33:
	movq	160(%rsp), %rdx
	movq	64(%rsp), %rcx
	leaq	__unnamed_17(%rip), %r8
	callq	_ZN4core9panicking18panic_bounds_check17hda6b295b4a93eea5E
.LBB96_34:
	movb	55(%rsp), %al
	movq	120(%rsp), %rcx
	movq	56(%rsp), %rdx
	cmpb	(%rcx,%rdx), %al
	jne	.LBB96_37
	jmp	.LBB96_36
.LBB96_35:
	movq	112(%rsp), %rdx
	movq	56(%rsp), %rcx
	leaq	__unnamed_18(%rip), %r8
	callq	_ZN4core9panicking18panic_bounds_check17hda6b295b4a93eea5E
.LBB96_36:
	jmp	.LBB96_27
.LBB96_37:
	movb	159(%rsp), %al
	movq	128(%rsp), %rcx
	movq	16(%rcx), %rdx
	addq	32(%rcx), %rdx
	movq	%rdx, 32(%rcx)
	testb	$1, %al
	jne	.LBB96_39
	movq	128(%rsp), %rax
	movq	160(%rsp), %rcx
	subq	16(%rax), %rcx
	movq	%rcx, 48(%rax)
.LBB96_39:
	jmp	.LBB96_40
.LBB96_40:
	jmp	.LBB96_1
.LBB96_41:
	movq	112(%rsp), %rcx
	movq	128(%rsp), %rdx
	movq	80(%rsp), %rax
	movq	168(%rsp), %r8
	movb	(%r8,%rax), %r8b
	movb	%r8b, 39(%rsp)
	addq	32(%rdx), %rax
	movq	%rax, 40(%rsp)
	cmpq	%rcx, %rax
	setb	%al
	testb	$1, %al
	jne	.LBB96_43
	jmp	.LBB96_44
.LBB96_42:
	movq	160(%rsp), %rdx
	movq	80(%rsp), %rcx
	leaq	__unnamed_19(%rip), %r8
	callq	_ZN4core9panicking18panic_bounds_check17hda6b295b4a93eea5E
.LBB96_43:
	movb	39(%rsp), %al
	movq	120(%rsp), %rcx
	movq	40(%rsp), %rdx
	cmpb	(%rcx,%rdx), %al
	jne	.LBB96_46
	jmp	.LBB96_45
.LBB96_44:
	movq	112(%rsp), %rdx
	movq	40(%rsp), %rcx
	leaq	__unnamed_20(%rip), %r8
	callq	_ZN4core9panicking18panic_bounds_check17hda6b295b4a93eea5E
.LBB96_45:
	jmp	.LBB96_18
.LBB96_46:
	movb	159(%rsp), %al
	movq	128(%rsp), %rcx
	movq	80(%rsp), %rdx
	subq	(%rcx), %rdx
	addq	$1, %rdx
	addq	32(%rcx), %rdx
	movq	%rdx, 32(%rcx)
	testb	$1, %al
	jne	.LBB96_48
	movq	128(%rsp), %rax
	movq	$0, 48(%rax)
.LBB96_48:
	jmp	.LBB96_40
	.seh_endproc

	.def	_ZN4core3str7pattern14TwoWaySearcher4next17h9af8d426659fc4fcE;
	.scl	3;
	.type	32;
	.endef
	.section	.text,"xr",one_only,_ZN4core3str7pattern14TwoWaySearcher4next17h9af8d426659fc4fcE
	.p2align	4, 0x90
_ZN4core3str7pattern14TwoWaySearcher4next17h9af8d426659fc4fcE:
.seh_proc _ZN4core3str7pattern14TwoWaySearcher4next17h9af8d426659fc4fcE
	subq	$344, %rsp
	.seh_stackalloc 344
	.seh_endprologue
	movq	%r9, 112(%rsp)
	movq	%r8, 120(%rsp)
	movq	%rdx, 128(%rsp)
	movq	%rcx, 136(%rsp)
	movq	%rcx, 144(%rsp)
	movb	400(%rsp), %al
	movb	%al, 159(%rsp)
	movq	392(%rsp), %rax
	movq	%rax, 160(%rsp)
	movq	384(%rsp), %rcx
	movq	%rcx, 168(%rsp)
	movq	32(%rdx), %rcx
	movq	%rcx, 176(%rsp)
	subq	$1, %rax
	movq	%rax, 184(%rsp)
.LBB97_1:
	movq	112(%rsp), %rcx
	movq	128(%rsp), %rdx
	movq	184(%rsp), %rax
	addq	32(%rdx), %rax
	movq	%rax, 104(%rsp)
	cmpq	%rcx, %rax
	jb	.LBB97_3
	movq	$0, 192(%rsp)
	jmp	.LBB97_4
.LBB97_3:
	movq	104(%rsp), %rcx
	movq	120(%rsp), %rax
	movq	112(%rsp), %rdx
	movq	%rax, 328(%rsp)
	movq	%rdx, 336(%rsp)
	addq	%rcx, %rax
	movq	%rax, 192(%rsp)
.LBB97_4:
	movq	192(%rsp), %rdx
	movl	$1, %eax
	xorl	%ecx, %ecx
	cmpq	$0, %rdx
	cmoveq	%rcx, %rax
	cmpq	$0, %rax
	jne	.LBB97_6
	movq	176(%rsp), %rdx
	movq	136(%rsp), %rcx
	movq	128(%rsp), %rax
	movq	112(%rsp), %r8
	movq	%r8, 32(%rax)
	movq	32(%rax), %r8
	callq	_ZN84_$LT$core..str..pattern..MatchOnly$u20$as$u20$core..str..pattern..TwoWayStrategy$GT$9rejecting17hb845f32753d18bbdE
	jmp	.LBB97_7
.LBB97_6:
	movq	192(%rsp), %rax
	movb	(%rax), %al
	movb	%al, 103(%rsp)
	callq	_ZN84_$LT$core..str..pattern..MatchOnly$u20$as$u20$core..str..pattern..TwoWayStrategy$GT$16use_early_reject17h72a445121d2147d8E
	testb	$1, %al
	jne	.LBB97_9
	jmp	.LBB97_8
.LBB97_7:
	movq	144(%rsp), %rax
	addq	$344, %rsp
	retq
.LBB97_8:
	movb	103(%rsp), %cl
	movq	128(%rsp), %rax
	movq	24(%rax), %rax
	andb	$63, %cl
	movzbl	%cl, %ecx
	andq	$63, %rcx
	shrq	%cl, %rax
	andq	$1, %rax
	cmpq	$0, %rax
	je	.LBB97_12
	jmp	.LBB97_13
.LBB97_9:
	movq	176(%rsp), %rax
	movq	128(%rsp), %rcx
	cmpq	32(%rcx), %rax
	jne	.LBB97_11
	jmp	.LBB97_8
.LBB97_11:
	movq	176(%rsp), %rdx
	movq	136(%rsp), %rcx
	movq	128(%rsp), %rax
	movq	32(%rax), %r8
	callq	_ZN84_$LT$core..str..pattern..MatchOnly$u20$as$u20$core..str..pattern..TwoWayStrategy$GT$9rejecting17hb845f32753d18bbdE
	jmp	.LBB97_7
.LBB97_12:
	movb	159(%rsp), %al
	movq	128(%rsp), %rcx
	movq	160(%rsp), %rdx
	addq	32(%rcx), %rdx
	movq	%rdx, 32(%rcx)
	testb	$1, %al
	jne	.LBB97_1
	jmp	.LBB97_14
.LBB97_13:
	movb	159(%rsp), %al
	testb	$1, %al
	jne	.LBB97_16
	jmp	.LBB97_15
.LBB97_14:
	movq	128(%rsp), %rax
	movq	$0, 48(%rax)
	jmp	.LBB97_1
.LBB97_15:
	movq	128(%rsp), %rax
	movq	(%rax), %rcx
	movq	48(%rax), %rdx
	callq	_ZN4core3cmp6max_by17h43e0fe90a1f39210E
	movq	%rax, 200(%rsp)
	jmp	.LBB97_17
.LBB97_16:
	movq	128(%rsp), %rax
	movq	(%rax), %rax
	movq	%rax, 200(%rsp)
.LBB97_17:
	movq	160(%rsp), %rax
	movq	200(%rsp), %rcx
	movq	%rcx, 208(%rsp)
	movq	%rax, 216(%rsp)
	movq	208(%rsp), %rcx
	movq	216(%rsp), %rax
	movq	%rcx, 224(%rsp)
	movq	%rax, 232(%rsp)
.LBB97_18:
	movq	224(%rsp), %rax
	cmpq	232(%rsp), %rax
	jb	.LBB97_20
	movq	$0, 240(%rsp)
	jmp	.LBB97_21
.LBB97_20:
	movq	224(%rsp), %rcx
	movq	%rcx, 88(%rsp)
	movl	$1, %edx
	callq	_ZN49_$LT$usize$u20$as$u20$core..iter..range..Step$GT$17forward_unchecked17h8716c1e1d8e01e15E
	movq	%rax, %rcx
	movq	88(%rsp), %rax
	movq	%rcx, 224(%rsp)
	movq	%rax, 248(%rsp)
	movq	$1, 240(%rsp)
.LBB97_21:
	cmpq	$0, 240(%rsp)
	jne	.LBB97_23
	movb	159(%rsp), %al
	testb	$1, %al
	jne	.LBB97_25
	jmp	.LBB97_24
.LBB97_23:
	movq	160(%rsp), %rcx
	movq	248(%rsp), %rax
	movq	%rax, 80(%rsp)
	cmpq	%rcx, %rax
	setb	%al
	testb	$1, %al
	jne	.LBB97_41
	jmp	.LBB97_42
.LBB97_24:
	movq	128(%rsp), %rax
	movq	48(%rax), %rax
	movq	%rax, 256(%rsp)
	jmp	.LBB97_26
.LBB97_25:
	movq	$0, 256(%rsp)
.LBB97_26:
	movq	128(%rsp), %rax
	movq	256(%rsp), %rcx
	movq	(%rax), %rax
	movq	%rcx, 280(%rsp)
	movq	%rax, 288(%rsp)
	movq	280(%rsp), %rcx
	movq	288(%rsp), %rax
	movq	%rcx, 264(%rsp)
	movq	%rax, 272(%rsp)
	movq	264(%rsp), %rcx
	movq	272(%rsp), %rax
	movq	%rcx, 296(%rsp)
	movq	%rax, 304(%rsp)
.LBB97_27:
	leaq	296(%rsp), %rcx
	callq	_ZN89_$LT$core..ops..range..Range$LT$T$GT$$u20$as$u20$core..iter..range..RangeIteratorImpl$GT$14spec_next_back17hc682a084abee1afaE
	movq	%rdx, 320(%rsp)
	movq	%rax, 312(%rsp)
	cmpq	$0, 312(%rsp)
	jne	.LBB97_29
	movb	159(%rsp), %al
	movq	128(%rsp), %rcx
	movq	160(%rsp), %rdx
	movq	32(%rcx), %r8
	movq	%r8, 72(%rsp)
	addq	32(%rcx), %rdx
	movq	%rdx, 32(%rcx)
	testb	$1, %al
	jne	.LBB97_31
	jmp	.LBB97_30
.LBB97_29:
	movq	160(%rsp), %rcx
	movq	320(%rsp), %rax
	movq	%rax, 64(%rsp)
	cmpq	%rcx, %rax
	setb	%al
	testb	$1, %al
	jne	.LBB97_32
	jmp	.LBB97_33
.LBB97_30:
	movq	128(%rsp), %rax
	movq	$0, 48(%rax)
.LBB97_31:
	movq	72(%rsp), %rdx
	movq	136(%rsp), %rcx
	movq	160(%rsp), %rax
	movq	%rdx, %r8
	addq	%rax, %r8
	callq	_ZN84_$LT$core..str..pattern..MatchOnly$u20$as$u20$core..str..pattern..TwoWayStrategy$GT$8matching17h8a0036c2cdd22549E
	jmp	.LBB97_7
.LBB97_32:
	movq	112(%rsp), %rcx
	movq	128(%rsp), %rdx
	movq	64(%rsp), %rax
	movq	168(%rsp), %r8
	movb	(%r8,%rax), %r8b
	movb	%r8b, 55(%rsp)
	addq	32(%rdx), %rax
	movq	%rax, 56(%rsp)
	cmpq	%rcx, %rax
	setb	%al
	testb	$1, %al
	jne	.LBB97_34
	jmp	.LBB97_35
.LBB97_33:
	movq	160(%rsp), %rdx
	movq	64(%rsp), %rcx
	leaq	__unnamed_17(%rip), %r8
	callq	_ZN4core9panicking18panic_bounds_check17hda6b295b4a93eea5E
.LBB97_34:
	movb	55(%rsp), %al
	movq	120(%rsp), %rcx
	movq	56(%rsp), %rdx
	cmpb	(%rcx,%rdx), %al
	jne	.LBB97_37
	jmp	.LBB97_36
.LBB97_35:
	movq	112(%rsp), %rdx
	movq	56(%rsp), %rcx
	leaq	__unnamed_18(%rip), %r8
	callq	_ZN4core9panicking18panic_bounds_check17hda6b295b4a93eea5E
.LBB97_36:
	jmp	.LBB97_27
.LBB97_37:
	movb	159(%rsp), %al
	movq	128(%rsp), %rcx
	movq	16(%rcx), %rdx
	addq	32(%rcx), %rdx
	movq	%rdx, 32(%rcx)
	testb	$1, %al
	jne	.LBB97_39
	movq	128(%rsp), %rax
	movq	160(%rsp), %rcx
	subq	16(%rax), %rcx
	movq	%rcx, 48(%rax)
.LBB97_39:
	jmp	.LBB97_40
.LBB97_40:
	jmp	.LBB97_1
.LBB97_41:
	movq	112(%rsp), %rcx
	movq	128(%rsp), %rdx
	movq	80(%rsp), %rax
	movq	168(%rsp), %r8
	movb	(%r8,%rax), %r8b
	movb	%r8b, 39(%rsp)
	addq	32(%rdx), %rax
	movq	%rax, 40(%rsp)
	cmpq	%rcx, %rax
	setb	%al
	testb	$1, %al
	jne	.LBB97_43
	jmp	.LBB97_44
.LBB97_42:
	movq	160(%rsp), %rdx
	movq	80(%rsp), %rcx
	leaq	__unnamed_19(%rip), %r8
	callq	_ZN4core9panicking18panic_bounds_check17hda6b295b4a93eea5E
.LBB97_43:
	movb	39(%rsp), %al
	movq	120(%rsp), %rcx
	movq	40(%rsp), %rdx
	cmpb	(%rcx,%rdx), %al
	jne	.LBB97_46
	jmp	.LBB97_45
.LBB97_44:
	movq	112(%rsp), %rdx
	movq	40(%rsp), %rcx
	leaq	__unnamed_20(%rip), %r8
	callq	_ZN4core9panicking18panic_bounds_check17hda6b295b4a93eea5E
.LBB97_45:
	jmp	.LBB97_18
.LBB97_46:
	movb	159(%rsp), %al
	movq	128(%rsp), %rcx
	movq	80(%rsp), %rdx
	subq	(%rcx), %rdx
	addq	$1, %rdx
	addq	32(%rcx), %rdx
	movq	%rdx, 32(%rcx)
	testb	$1, %al
	jne	.LBB97_48
	movq	128(%rsp), %rax
	movq	$0, 48(%rax)
.LBB97_48:
	jmp	.LBB97_40
	.seh_endproc

	.def	_ZN4core3str7pattern14small_slice_eq17h4ac5e083cf600888E;
	.scl	3;
	.type	32;
	.endef
	.section	.text,"xr",one_only,_ZN4core3str7pattern14small_slice_eq17h4ac5e083cf600888E
	.p2align	4, 0x90
_ZN4core3str7pattern14small_slice_eq17h4ac5e083cf600888E:
.seh_proc _ZN4core3str7pattern14small_slice_eq17h4ac5e083cf600888E
	subq	$280, %rsp
	.seh_stackalloc 280
	.seh_endprologue
	movq	%r9, 56(%rsp)
	movq	%r8, 64(%rsp)
	movq	%rdx, 72(%rsp)
	movq	%rcx, 80(%rsp)
	cmpq	$4, %rdx
	jb	.LBB98_2
	movq	56(%rsp), %rcx
	movq	72(%rsp), %rdx
	movq	64(%rsp), %rax
	movq	80(%rsp), %r8
	movq	%r8, 240(%rsp)
	movq	%rax, 248(%rsp)
	movq	240(%rsp), %rax
	subq	$4, %rdx
	addq	%rdx, %rax
	movq	%rax, 40(%rsp)
	movq	248(%rsp), %rax
	subq	$4, %rcx
	addq	%rcx, %rax
	movq	%rax, 48(%rsp)
	jmp	.LBB98_3
.LBB98_2:
	movq	56(%rsp), %rax
	movq	64(%rsp), %r9
	movq	80(%rsp), %rdx
	movq	72(%rsp), %r8
	movq	%rdx, %rcx
	addq	%r8, %rcx
	movq	%rdx, 256(%rsp)
	movq	256(%rsp), %rdx
	movq	%rdx, 152(%rsp)
	movq	%rcx, 160(%rsp)
	movq	152(%rsp), %rdx
	movq	160(%rsp), %r8
	leaq	96(%rsp), %rcx
	movq	%rax, 32(%rsp)
	callq	_ZN4core4iter6traits8iterator8Iterator3zip17h6797f89a165c6715E
	leaq	168(%rsp), %rcx
	leaq	96(%rsp), %rdx
	movl	$56, %r8d
	callq	memcpy
	jmp	.LBB98_9
.LBB98_3:
	movq	40(%rsp), %rax
	cmpq	%rax, 240(%rsp)
	jb	.LBB98_5
	movq	48(%rsp), %rcx
	movq	40(%rsp), %rax
	movl	(%rax), %eax
	movl	%eax, 272(%rsp)
	movl	272(%rsp), %eax
	movl	(%rcx), %ecx
	movl	%ecx, 276(%rsp)
	cmpl	276(%rsp), %eax
	sete	%al
	andb	$1, %al
	movb	%al, 95(%rsp)
	jmp	.LBB98_6
.LBB98_5:
	movq	240(%rsp), %rax
	movl	(%rax), %eax
	movl	%eax, 264(%rsp)
	movl	264(%rsp), %eax
	movq	248(%rsp), %rcx
	movl	(%rcx), %ecx
	movl	%ecx, 268(%rsp)
	cmpl	268(%rsp), %eax
	jne	.LBB98_8
	jmp	.LBB98_7
.LBB98_6:
	movb	95(%rsp), %al
	andb	$1, %al
	movzbl	%al, %eax
	addq	$280, %rsp
	retq
.LBB98_7:
	movq	240(%rsp), %rax
	addq	$4, %rax
	movq	%rax, 240(%rsp)
	movq	248(%rsp), %rax
	addq	$4, %rax
	movq	%rax, 248(%rsp)
	jmp	.LBB98_3
.LBB98_8:
	movb	$0, 95(%rsp)
	jmp	.LBB98_6
.LBB98_9:
	leaq	168(%rsp), %rcx
	callq	_ZN111_$LT$core..iter..adapters..zip..Zip$LT$A$C$B$GT$$u20$as$u20$core..iter..adapters..zip..ZipImpl$LT$A$C$B$GT$$GT$4next17h3ad978724036db37E
	movq	%rdx, 232(%rsp)
	movq	%rax, 224(%rsp)
	movq	224(%rsp), %rdx
	movl	$1, %eax
	xorl	%ecx, %ecx
	cmpq	$0, %rdx
	cmoveq	%rcx, %rax
	cmpq	$0, %rax
	jne	.LBB98_11
	movb	$1, 95(%rsp)
	jmp	.LBB98_12
.LBB98_11:
	movq	224(%rsp), %rax
	movb	(%rax), %al
	movq	232(%rsp), %rcx
	cmpb	(%rcx), %al
	jne	.LBB98_14
	jmp	.LBB98_13
.LBB98_12:
	jmp	.LBB98_6
.LBB98_13:
	jmp	.LBB98_9
.LBB98_14:
	movb	$0, 95(%rsp)
	jmp	.LBB98_12
	.seh_endproc

	.def	_ZN4core4char7methods15encode_utf8_raw17h85cdbbd16ad6f597E;
	.scl	3;
	.type	32;
	.endef
	.section	.text,"xr",one_only,_ZN4core4char7methods15encode_utf8_raw17h85cdbbd16ad6f597E
	.p2align	4, 0x90
_ZN4core4char7methods15encode_utf8_raw17h85cdbbd16ad6f597E:
.seh_proc _ZN4core4char7methods15encode_utf8_raw17h85cdbbd16ad6f597E
	subq	$264, %rsp
	.seh_stackalloc 264
	.seh_endprologue
	movq	%r8, 64(%rsp)
	movq	%rdx, 72(%rsp)
	movl	%ecx, 84(%rsp)
	movl	84(%rsp), %eax
	movl	%eax, 80(%rsp)
	cmpl	$128, %eax
	jb	.LBB99_2
	movl	80(%rsp), %eax
	cmpl	$2048, %eax
	jb	.LBB99_4
	jmp	.LBB99_3
.LBB99_2:
	movq	$1, 88(%rsp)
	jmp	.LBB99_9
.LBB99_3:
	movl	80(%rsp), %eax
	cmpl	$65536, %eax
	jb	.LBB99_6
	jmp	.LBB99_5
.LBB99_4:
	movq	$2, 88(%rsp)
	jmp	.LBB99_8
.LBB99_5:
	movq	$4, 88(%rsp)
	jmp	.LBB99_7
.LBB99_6:
	movq	$3, 88(%rsp)
.LBB99_7:
	jmp	.LBB99_8
.LBB99_8:
	jmp	.LBB99_9
.LBB99_9:
	movq	88(%rsp), %rax
	decq	%rax
	movq	%rax, 56(%rsp)
	subq	$3, %rax
	ja	.LBB99_10
	movq	56(%rsp), %rax
	leaq	.LJTI99_0(%rip), %rcx
	movslq	(%rcx,%rax,4), %rax
	addq	%rcx, %rax
	jmpq	*%rax
.LBB99_10:
	movq	64(%rsp), %rcx
	leaq	88(%rsp), %rax
	movq	%rax, 192(%rsp)
	leaq	_ZN4core3fmt3num3imp54_$LT$impl$u20$core..fmt..Display$u20$for$u20$usize$GT$3fmt17h334fec8f020c9fa2E(%rip), %rax
	movq	%rax, 200(%rsp)
	leaq	84(%rsp), %rdx
	movq	%rdx, 208(%rsp)
	leaq	_ZN4core3fmt3num53_$LT$impl$u20$core..fmt..UpperHex$u20$for$u20$u32$GT$3fmt17h4fcc2219c1650e82E(%rip), %rdx
	movq	%rdx, 216(%rsp)
	movq	%rcx, 240(%rsp)
	leaq	240(%rsp), %rcx
	movq	%rcx, 224(%rsp)
	movq	%rax, 232(%rsp)
	movq	192(%rsp), %rcx
	movq	200(%rsp), %rax
	movq	%rcx, 144(%rsp)
	movq	%rax, 152(%rsp)
	movq	208(%rsp), %rcx
	movq	216(%rsp), %rax
	movq	%rcx, 160(%rsp)
	movq	%rax, 168(%rsp)
	movq	224(%rsp), %rcx
	movq	232(%rsp), %rax
	movq	%rcx, 176(%rsp)
	movq	%rax, 184(%rsp)
	movq	%rsp, %rax
	movq	$3, 32(%rax)
	leaq	__unnamed_21(%rip), %rdx
	leaq	96(%rsp), %rcx
	movq	%rcx, 48(%rsp)
	movl	$3, %r8d
	leaq	144(%rsp), %r9
	callq	_ZN4core3fmt9Arguments6new_v117h1df34898d17270b1E
	movq	48(%rsp), %rcx
	leaq	__unnamed_22(%rip), %rdx
	callq	_ZN4core9panicking9panic_fmt17hdbb75bebc22f3408E
.LBB99_11:
	movq	64(%rsp), %rax
	cmpq	$1, %rax
	jae	.LBB99_15
	jmp	.LBB99_10
.LBB99_12:
	movq	64(%rsp), %rax
	cmpq	$2, %rax
	jae	.LBB99_17
	jmp	.LBB99_10
.LBB99_13:
	movq	64(%rsp), %rax
	cmpq	$3, %rax
	jae	.LBB99_18
	jmp	.LBB99_10
.LBB99_14:
	movq	64(%rsp), %rax
	cmpq	$4, %rax
	jae	.LBB99_19
	jmp	.LBB99_10
.LBB99_15:
	movq	72(%rsp), %rax
	movl	84(%rsp), %ecx
	movb	%cl, (%rax)
.LBB99_16:
	movq	64(%rsp), %r9
	movq	72(%rsp), %r8
	movq	88(%rsp), %rax
	movq	$0, 248(%rsp)
	movq	%rax, 256(%rsp)
	movq	248(%rsp), %rcx
	movq	256(%rsp), %rdx
	leaq	__unnamed_23(%rip), %r10
	movq	%rsp, %rax
	movq	%r10, 32(%rax)
	callq	_ZN106_$LT$core..ops..range..Range$LT$usize$GT$$u20$as$u20$core..slice..index..SliceIndex$LT$$u5b$T$u5d$$GT$$GT$9index_mut17h94f3e4fd45e334cbE
	nop
	addq	$264, %rsp
	retq
.LBB99_17:
	movq	72(%rsp), %rax
	movl	84(%rsp), %ecx
	shrl	$6, %ecx
	andl	$31, %ecx
	orb	$-64, %cl
	movb	%cl, (%rax)
	movl	84(%rsp), %ecx
	andl	$63, %ecx
	orb	$-128, %cl
	movb	%cl, 1(%rax)
	jmp	.LBB99_16
.LBB99_18:
	movq	72(%rsp), %rax
	movl	84(%rsp), %ecx
	shrl	$12, %ecx
	andl	$15, %ecx
	orb	$-32, %cl
	movb	%cl, (%rax)
	movl	84(%rsp), %ecx
	shrl	$6, %ecx
	andl	$63, %ecx
	orb	$-128, %cl
	movb	%cl, 1(%rax)
	movl	84(%rsp), %ecx
	andl	$63, %ecx
	orb	$-128, %cl
	movb	%cl, 2(%rax)
	jmp	.LBB99_16
.LBB99_19:
	movq	72(%rsp), %rax
	movl	84(%rsp), %ecx
	shrl	$18, %ecx
	andl	$7, %ecx
	orb	$-16, %cl
	movb	%cl, (%rax)
	movl	84(%rsp), %ecx
	shrl	$12, %ecx
	andl	$63, %ecx
	orb	$-128, %cl
	movb	%cl, 1(%rax)
	movl	84(%rsp), %ecx
	shrl	$6, %ecx
	andl	$63, %ecx
	orb	$-128, %cl
	movb	%cl, 2(%rax)
	movl	84(%rsp), %ecx
	andl	$63, %ecx
	orb	$-128, %cl
	movb	%cl, 3(%rax)
	jmp	.LBB99_16
	.section	.rdata,"dr",associative,_ZN4core4char7methods15encode_utf8_raw17h85cdbbd16ad6f597E
	.p2align	2, 0x0
.LJTI99_0:
	.long	.LBB99_11-.LJTI99_0
	.long	.LBB99_12-.LJTI99_0
	.long	.LBB99_13-.LJTI99_0
	.long	.LBB99_14-.LJTI99_0
	.section	.text,"xr",one_only,_ZN4core4char7methods15encode_utf8_raw17h85cdbbd16ad6f597E
	.seh_endproc

	.def	_ZN4core4iter5range116_$LT$impl$u20$core..iter..traits..double_ended..DoubleEndedIterator$u20$for$u20$core..ops..range..Range$LT$A$GT$$GT$9next_back17ha229981074859d28E;
	.scl	3;
	.type	32;
	.endef
	.section	.text,"xr",one_only,_ZN4core4iter5range116_$LT$impl$u20$core..iter..traits..double_ended..DoubleEndedIterator$u20$for$u20$core..ops..range..Range$LT$A$GT$$GT$9next_back17ha229981074859d28E
	.p2align	4, 0x90
_ZN4core4iter5range116_$LT$impl$u20$core..iter..traits..double_ended..DoubleEndedIterator$u20$for$u20$core..ops..range..Range$LT$A$GT$$GT$9next_back17ha229981074859d28E:
.seh_proc _ZN4core4iter5range116_$LT$impl$u20$core..iter..traits..double_ended..DoubleEndedIterator$u20$for$u20$core..ops..range..Range$LT$A$GT$$GT$9next_back17ha229981074859d28E
	subq	$40, %rsp
	.seh_stackalloc 40
	.seh_endprologue
	callq	_ZN89_$LT$core..ops..range..Range$LT$T$GT$$u20$as$u20$core..iter..range..RangeIteratorImpl$GT$14spec_next_back17hc682a084abee1afaE
	nop
	addq	$40, %rsp
	retq
	.seh_endproc

	.def	_ZN4core4iter6traits12double_ended19DoubleEndedIterator5rfind5check28_$u7b$$u7b$closure$u7d$$u7d$17h48199d5610d62406E;
	.scl	3;
	.type	32;
	.endef
	.section	.text,"xr",one_only,_ZN4core4iter6traits12double_ended19DoubleEndedIterator5rfind5check28_$u7b$$u7b$closure$u7d$$u7d$17h48199d5610d62406E
	.p2align	4, 0x90
_ZN4core4iter6traits12double_ended19DoubleEndedIterator5rfind5check28_$u7b$$u7b$closure$u7d$$u7d$17h48199d5610d62406E:
.Lfunc_begin20:
.seh_proc _ZN4core4iter6traits12double_ended19DoubleEndedIterator5rfind5check28_$u7b$$u7b$closure$u7d$$u7d$17h48199d5610d62406E
	.seh_handler __CxxFrameHandler3, @unwind, @except
	pushq	%rbp
	.seh_pushreg %rbp
	subq	$96, %rsp
	.seh_stackalloc 96
	leaq	96(%rsp), %rbp
	.seh_setframe %rbp, 96
	.seh_endprologue
	movq	$-2, -8(%rbp)
	movq	%rdx, -48(%rbp)
	movb	$1, -9(%rbp)
	leaq	-48(%rbp), %rax
	movq	%rax, -24(%rbp)
	movq	-24(%rbp), %rdx
.Ltmp66:
	callq	_ZN4core3str7pattern13simd_contains28_$u7b$$u7b$closure$u7d$$u7d$17h677dc2db4f02dc02E
.Ltmp67:
	movb	%al, -49(%rbp)
	jmp	.LBB101_2
.LBB101_2:
	movb	-49(%rbp), %al
	testb	$1, %al
	jne	.LBB101_4
	jmp	.LBB101_3
.LBB101_3:
	movq	$0, -40(%rbp)
	jmp	.LBB101_5
.LBB101_4:
	movb	$0, -9(%rbp)
	movq	-48(%rbp), %rax
	movq	%rax, -32(%rbp)
	movq	$1, -40(%rbp)
.LBB101_5:
	testb	$1, -9(%rbp)
	jne	.LBB101_7
.LBB101_6:
	movq	-40(%rbp), %rax
	movq	-32(%rbp), %rdx
	addq	$96, %rsp
	popq	%rbp
	retq
.LBB101_7:
	jmp	.LBB101_6
	.seh_handlerdata
	.long	($cppxdata$_ZN4core4iter6traits12double_ended19DoubleEndedIterator5rfind5check28_$u7b$$u7b$closure$u7d$$u7d$17h48199d5610d62406E)@IMGREL
	.section	.text,"xr",one_only,_ZN4core4iter6traits12double_ended19DoubleEndedIterator5rfind5check28_$u7b$$u7b$closure$u7d$$u7d$17h48199d5610d62406E
	.seh_endproc
	.def	"?dtor$1@?0?_ZN4core4iter6traits12double_ended19DoubleEndedIterator5rfind5check28_$u7b$$u7b$closure$u7d$$u7d$17h48199d5610d62406E@4HA";
	.scl	3;
	.type	32;
	.endef
	.p2align	4, 0x90
"?dtor$1@?0?_ZN4core4iter6traits12double_ended19DoubleEndedIterator5rfind5check28_$u7b$$u7b$closure$u7d$$u7d$17h48199d5610d62406E@4HA":
.seh_proc "?dtor$1@?0?_ZN4core4iter6traits12double_ended19DoubleEndedIterator5rfind5check28_$u7b$$u7b$closure$u7d$$u7d$17h48199d5610d62406E@4HA"
.LBB101_1:
	movq	%rdx, 16(%rsp)
	pushq	%rbp
	.seh_pushreg %rbp
	subq	$32, %rsp
	.seh_stackalloc 32
	leaq	96(%rdx), %rbp
	.seh_endprologue
	addq	$32, %rsp
	popq	%rbp
	retq
.Lfunc_end20:
	.seh_handlerdata
	.section	.text,"xr",one_only,_ZN4core4iter6traits12double_ended19DoubleEndedIterator5rfind5check28_$u7b$$u7b$closure$u7d$$u7d$17h48199d5610d62406E
	.seh_endproc
	.section	.xdata,"dr",associative,_ZN4core4iter6traits12double_ended19DoubleEndedIterator5rfind5check28_$u7b$$u7b$closure$u7d$$u7d$17h48199d5610d62406E
	.p2align	2, 0x0
$cppxdata$_ZN4core4iter6traits12double_ended19DoubleEndedIterator5rfind5check28_$u7b$$u7b$closure$u7d$$u7d$17h48199d5610d62406E:
	.long	429065506
	.long	1
	.long	($stateUnwindMap$_ZN4core4iter6traits12double_ended19DoubleEndedIterator5rfind5check28_$u7b$$u7b$closure$u7d$$u7d$17h48199d5610d62406E)@IMGREL
	.long	0
	.long	0
	.long	3
	.long	($ip2state$_ZN4core4iter6traits12double_ended19DoubleEndedIterator5rfind5check28_$u7b$$u7b$closure$u7d$$u7d$17h48199d5610d62406E)@IMGREL
	.long	88
	.long	0
	.long	1
$stateUnwindMap$_ZN4core4iter6traits12double_ended19DoubleEndedIterator5rfind5check28_$u7b$$u7b$closure$u7d$$u7d$17h48199d5610d62406E:
	.long	-1
	.long	"?dtor$1@?0?_ZN4core4iter6traits12double_ended19DoubleEndedIterator5rfind5check28_$u7b$$u7b$closure$u7d$$u7d$17h48199d5610d62406E@4HA"@IMGREL
$ip2state$_ZN4core4iter6traits12double_ended19DoubleEndedIterator5rfind5check28_$u7b$$u7b$closure$u7d$$u7d$17h48199d5610d62406E:
	.long	.Lfunc_begin20@IMGREL
	.long	-1
	.long	.Ltmp66@IMGREL+1
	.long	0
	.long	.Ltmp67@IMGREL+1
	.long	-1
	.section	.text,"xr",one_only,_ZN4core4iter6traits12double_ended19DoubleEndedIterator5rfind5check28_$u7b$$u7b$closure$u7d$$u7d$17h48199d5610d62406E

	.def	_ZN4core4iter6traits12double_ended19DoubleEndedIterator9try_rfold17h6ec926b0b4a8f028E;
	.scl	3;
	.type	32;
	.endef
	.section	.text,"xr",one_only,_ZN4core4iter6traits12double_ended19DoubleEndedIterator9try_rfold17h6ec926b0b4a8f028E
	.p2align	4, 0x90
_ZN4core4iter6traits12double_ended19DoubleEndedIterator9try_rfold17h6ec926b0b4a8f028E:
.Lfunc_begin21:
.seh_proc _ZN4core4iter6traits12double_ended19DoubleEndedIterator9try_rfold17h6ec926b0b4a8f028E
	.seh_handler __CxxFrameHandler3, @unwind, @except
	pushq	%rbp
	.seh_pushreg %rbp
	subq	$208, %rsp
	.seh_stackalloc 208
	leaq	128(%rsp), %rbp
	.seh_setframe %rbp, 128
	.seh_endprologue
	movq	$-2, 72(%rbp)
	movq	%rdx, -8(%rbp)
	movq	%rcx, (%rbp)
	movb	$1, 71(%rbp)
.LBB102_1:
.Ltmp68:
	movq	(%rbp), %rcx
	callq	_ZN4core4iter5range116_$LT$impl$u20$core..iter..traits..double_ended..DoubleEndedIterator$u20$for$u20$core..ops..range..Range$LT$A$GT$$GT$9next_back17ha229981074859d28E
.Ltmp69:
	movq	%rdx, -24(%rbp)
	movq	%rax, -16(%rbp)
	jmp	.LBB102_3
.LBB102_3:
	movq	-24(%rbp), %rax
	movq	-16(%rbp), %rcx
	movq	%rcx, 24(%rbp)
	movq	%rax, 32(%rbp)
	cmpq	$1, 24(%rbp)
	jne	.LBB102_5
	movq	-8(%rbp), %rcx
	movq	32(%rbp), %rax
	movb	$0, 71(%rbp)
	movq	%rax, 56(%rbp)
	movq	56(%rbp), %rdx
.Ltmp72:
	callq	_ZN4core4iter6traits12double_ended19DoubleEndedIterator5rfind5check28_$u7b$$u7b$closure$u7d$$u7d$17h48199d5610d62406E
.Ltmp73:
	movq	%rdx, -40(%rbp)
	movq	%rax, -32(%rbp)
	jmp	.LBB102_6
.LBB102_5:
	movb	$0, 71(%rbp)
.Ltmp70:
	callq	_ZN95_$LT$core..ops..control_flow..ControlFlow$LT$B$C$C$GT$$u20$as$u20$core..ops..try_trait..Try$GT$11from_output17h610e1a47d4c6e3fcE
.Ltmp71:
	movq	%rdx, -56(%rbp)
	movq	%rax, -48(%rbp)
	jmp	.LBB102_12
.LBB102_6:
.Ltmp74:
	movq	-40(%rbp), %rdx
	movq	-32(%rbp), %rcx
	callq	_ZN95_$LT$core..ops..control_flow..ControlFlow$LT$B$C$C$GT$$u20$as$u20$core..ops..try_trait..Try$GT$6branch17ha6d99192115f2e77E
.Ltmp75:
	movq	%rdx, -72(%rbp)
	movq	%rax, -64(%rbp)
	jmp	.LBB102_7
.LBB102_7:
	movq	-72(%rbp), %rax
	movq	-64(%rbp), %rcx
	movq	%rcx, 40(%rbp)
	movq	%rax, 48(%rbp)
	cmpq	$0, 40(%rbp)
	jne	.LBB102_9
	movb	$1, 71(%rbp)
	jmp	.LBB102_1
.LBB102_9:
	movq	48(%rbp), %rcx
.Ltmp76:
	callq	_ZN104_$LT$core..ops..control_flow..ControlFlow$LT$B$C$C$GT$$u20$as$u20$core..ops..try_trait..FromResidual$GT$13from_residual17h9f6e5b9f19fbb082E
.Ltmp77:
	movq	%rdx, -88(%rbp)
	movq	%rax, -80(%rbp)
	jmp	.LBB102_10
.LBB102_10:
	movq	-88(%rbp), %rax
	movq	-80(%rbp), %rcx
	movq	%rcx, 8(%rbp)
	movq	%rax, 16(%rbp)
.LBB102_11:
	movq	8(%rbp), %rax
	movq	16(%rbp), %rdx
	addq	$208, %rsp
	popq	%rbp
	retq
.LBB102_12:
	movq	-56(%rbp), %rax
	movq	-48(%rbp), %rcx
	movq	%rcx, 8(%rbp)
	movq	%rax, 16(%rbp)
	jmp	.LBB102_11
	.seh_handlerdata
	.long	($cppxdata$_ZN4core4iter6traits12double_ended19DoubleEndedIterator9try_rfold17h6ec926b0b4a8f028E)@IMGREL
	.section	.text,"xr",one_only,_ZN4core4iter6traits12double_ended19DoubleEndedIterator9try_rfold17h6ec926b0b4a8f028E
	.seh_endproc
	.def	"?dtor$2@?0?_ZN4core4iter6traits12double_ended19DoubleEndedIterator9try_rfold17h6ec926b0b4a8f028E@4HA";
	.scl	3;
	.type	32;
	.endef
	.p2align	4, 0x90
"?dtor$2@?0?_ZN4core4iter6traits12double_ended19DoubleEndedIterator9try_rfold17h6ec926b0b4a8f028E@4HA":
.seh_proc "?dtor$2@?0?_ZN4core4iter6traits12double_ended19DoubleEndedIterator9try_rfold17h6ec926b0b4a8f028E@4HA"
.LBB102_2:
	movq	%rdx, 16(%rsp)
	pushq	%rbp
	.seh_pushreg %rbp
	subq	$32, %rsp
	.seh_stackalloc 32
	leaq	128(%rdx), %rbp
	.seh_endprologue
	testb	$1, 71(%rbp)
	jne	.LBB102_14
	jmp	.LBB102_13
.LBB102_13:
	addq	$32, %rsp
	popq	%rbp
	retq
.LBB102_14:
	jmp	.LBB102_13
.Lfunc_end21:
	.seh_handlerdata
	.section	.text,"xr",one_only,_ZN4core4iter6traits12double_ended19DoubleEndedIterator9try_rfold17h6ec926b0b4a8f028E
	.seh_endproc
	.section	.xdata,"dr",associative,_ZN4core4iter6traits12double_ended19DoubleEndedIterator9try_rfold17h6ec926b0b4a8f028E
	.p2align	2, 0x0
$cppxdata$_ZN4core4iter6traits12double_ended19DoubleEndedIterator9try_rfold17h6ec926b0b4a8f028E:
	.long	429065506
	.long	1
	.long	($stateUnwindMap$_ZN4core4iter6traits12double_ended19DoubleEndedIterator9try_rfold17h6ec926b0b4a8f028E)@IMGREL
	.long	0
	.long	0
	.long	3
	.long	($ip2state$_ZN4core4iter6traits12double_ended19DoubleEndedIterator9try_rfold17h6ec926b0b4a8f028E)@IMGREL
	.long	200
	.long	0
	.long	1
$stateUnwindMap$_ZN4core4iter6traits12double_ended19DoubleEndedIterator9try_rfold17h6ec926b0b4a8f028E:
	.long	-1
	.long	"?dtor$2@?0?_ZN4core4iter6traits12double_ended19DoubleEndedIterator9try_rfold17h6ec926b0b4a8f028E@4HA"@IMGREL
$ip2state$_ZN4core4iter6traits12double_ended19DoubleEndedIterator9try_rfold17h6ec926b0b4a8f028E:
	.long	.Lfunc_begin21@IMGREL
	.long	-1
	.long	.Ltmp68@IMGREL+1
	.long	0
	.long	.Ltmp77@IMGREL+1
	.long	-1
	.section	.text,"xr",one_only,_ZN4core4iter6traits12double_ended19DoubleEndedIterator9try_rfold17h6ec926b0b4a8f028E

	.def	_ZN4core4iter6traits8iterator8Iterator3any17h5072f3cdd5797786E;
	.scl	3;
	.type	32;
	.endef
	.section	.text,"xr",one_only,_ZN4core4iter6traits8iterator8Iterator3any17h5072f3cdd5797786E
	.p2align	4, 0x90
_ZN4core4iter6traits8iterator8Iterator3any17h5072f3cdd5797786E:
.seh_proc _ZN4core4iter6traits8iterator8Iterator3any17h5072f3cdd5797786E
	subq	$56, %rsp
	.seh_stackalloc 56
	.seh_endprologue
	movq	%rdx, 48(%rsp)
	movq	48(%rsp), %rdx
	callq	_ZN4core4iter6traits8iterator8Iterator8try_fold17h7ce966fd09977a94E
	andb	$1, %al
	movb	%al, 47(%rsp)
	leaq	47(%rsp), %rcx
	leaq	__unnamed_15(%rip), %rdx
	callq	_ZN90_$LT$core..ops..control_flow..ControlFlow$LT$B$C$C$GT$$u20$as$u20$core..cmp..PartialEq$GT$2eq17h3777fb8d5ed9c772E
	andb	$1, %al
	movzbl	%al, %eax
	addq	$56, %rsp
	retq
	.seh_endproc

	.def	_ZN4core4iter6traits8iterator8Iterator3any5check28_$u7b$$u7b$closure$u7d$$u7d$17h232eb804b00be57aE;
	.scl	3;
	.type	32;
	.endef
	.section	.text,"xr",one_only,_ZN4core4iter6traits8iterator8Iterator3any5check28_$u7b$$u7b$closure$u7d$$u7d$17h232eb804b00be57aE
	.p2align	4, 0x90
_ZN4core4iter6traits8iterator8Iterator3any5check28_$u7b$$u7b$closure$u7d$$u7d$17h232eb804b00be57aE:
.seh_proc _ZN4core4iter6traits8iterator8Iterator3any5check28_$u7b$$u7b$closure$u7d$$u7d$17h232eb804b00be57aE
	subq	$56, %rsp
	.seh_stackalloc 56
	.seh_endprologue
	movq	%rdx, 40(%rsp)
	movq	%r8, 48(%rsp)
	movq	40(%rsp), %rdx
	movq	48(%rsp), %r8
	callq	_ZN4core3str7pattern13simd_contains28_$u7b$$u7b$closure$u7d$$u7d$17ha0d6990955d114e0E
	testb	$1, %al
	jne	.LBB104_2
	movb	$0, 39(%rsp)
	jmp	.LBB104_3
.LBB104_2:
	movb	$1, 39(%rsp)
.LBB104_3:
	movb	39(%rsp), %al
	andb	$1, %al
	movzbl	%al, %eax
	addq	$56, %rsp
	retq
	.seh_endproc

	.def	_ZN4core4iter6traits8iterator8Iterator3any5check28_$u7b$$u7b$closure$u7d$$u7d$17h69f193ada2bc7307E;
	.scl	3;
	.type	32;
	.endef
	.section	.text,"xr",one_only,_ZN4core4iter6traits8iterator8Iterator3any5check28_$u7b$$u7b$closure$u7d$$u7d$17h69f193ada2bc7307E
	.p2align	4, 0x90
_ZN4core4iter6traits8iterator8Iterator3any5check28_$u7b$$u7b$closure$u7d$$u7d$17h69f193ada2bc7307E:
.seh_proc _ZN4core4iter6traits8iterator8Iterator3any5check28_$u7b$$u7b$closure$u7d$$u7d$17h69f193ada2bc7307E
	subq	$56, %rsp
	.seh_stackalloc 56
	.seh_endprologue
	movq	%rdx, 40(%rsp)
	movq	%r8, 48(%rsp)
	movq	40(%rsp), %rdx
	movq	48(%rsp), %r8
	callq	_ZN18build_script_build15feature_allowed28_$u7b$$u7b$closure$u7d$$u7d$17h1596124343db721dE
	testb	$1, %al
	jne	.LBB105_2
	movb	$0, 39(%rsp)
	jmp	.LBB105_3
.LBB105_2:
	movb	$1, 39(%rsp)
.LBB105_3:
	movb	39(%rsp), %al
	andb	$1, %al
	movzbl	%al, %eax
	addq	$56, %rsp
	retq
	.seh_endproc

	.def	_ZN4core4iter6traits8iterator8Iterator3zip17h6797f89a165c6715E;
	.scl	3;
	.type	32;
	.endef
	.section	.text,"xr",one_only,_ZN4core4iter6traits8iterator8Iterator3zip17h6797f89a165c6715E
	.p2align	4, 0x90
_ZN4core4iter6traits8iterator8Iterator3zip17h6797f89a165c6715E:
.Lfunc_begin22:
.seh_proc _ZN4core4iter6traits8iterator8Iterator3zip17h6797f89a165c6715E
	.seh_handler __CxxFrameHandler3, @unwind, @except
	pushq	%rbp
	.seh_pushreg %rbp
	subq	$112, %rsp
	.seh_stackalloc 112
	leaq	112(%rsp), %rbp
	.seh_setframe %rbp, 112
	.seh_endprologue
	movq	$-2, -8(%rbp)
	movq	%r9, -56(%rbp)
	movq	%r8, -72(%rbp)
	movq	%rdx, -64(%rbp)
	movq	%rcx, %rax
	movq	-56(%rbp), %rcx
	movq	%rax, -48(%rbp)
	movq	%rax, -40(%rbp)
	movq	48(%rbp), %rdx
	movb	$1, -9(%rbp)
.Ltmp78:
	callq	_ZN4core5slice4iter87_$LT$impl$u20$core..iter..traits..collect..IntoIterator$u20$for$u20$$RF$$u5b$T$u5d$$GT$9into_iter17h82c902470c4886eeE
.Ltmp79:
	movq	%rdx, -32(%rbp)
	movq	%rax, -24(%rbp)
	jmp	.LBB106_2
.LBB106_2:
	movq	-24(%rbp), %r9
	movq	-72(%rbp), %r8
	movq	-64(%rbp), %rdx
	movq	-48(%rbp), %rcx
	movq	-32(%rbp), %r10
	movb	$0, -9(%rbp)
.Ltmp80:
	movq	%rsp, %rax
	movq	%r10, 32(%rax)
	callq	_ZN111_$LT$core..iter..adapters..zip..Zip$LT$A$C$B$GT$$u20$as$u20$core..iter..adapters..zip..ZipImpl$LT$A$C$B$GT$$GT$3new17h67a2c87ba8e8af93E
.Ltmp81:
	jmp	.LBB106_3
.LBB106_3:
	movq	-40(%rbp), %rax
	addq	$112, %rsp
	popq	%rbp
	retq
	.seh_handlerdata
	.long	($cppxdata$_ZN4core4iter6traits8iterator8Iterator3zip17h6797f89a165c6715E)@IMGREL
	.section	.text,"xr",one_only,_ZN4core4iter6traits8iterator8Iterator3zip17h6797f89a165c6715E
	.seh_endproc
	.def	"?dtor$1@?0?_ZN4core4iter6traits8iterator8Iterator3zip17h6797f89a165c6715E@4HA";
	.scl	3;
	.type	32;
	.endef
	.p2align	4, 0x90
"?dtor$1@?0?_ZN4core4iter6traits8iterator8Iterator3zip17h6797f89a165c6715E@4HA":
.seh_proc "?dtor$1@?0?_ZN4core4iter6traits8iterator8Iterator3zip17h6797f89a165c6715E@4HA"
.LBB106_1:
	movq	%rdx, 16(%rsp)
	pushq	%rbp
	.seh_pushreg %rbp
	subq	$48, %rsp
	.seh_stackalloc 48
	leaq	112(%rdx), %rbp
	.seh_endprologue
	testb	$1, -9(%rbp)
	jne	.LBB106_5
	jmp	.LBB106_4
.LBB106_4:
	addq	$48, %rsp
	popq	%rbp
	retq
.LBB106_5:
	jmp	.LBB106_4
.Lfunc_end22:
	.seh_handlerdata
	.section	.text,"xr",one_only,_ZN4core4iter6traits8iterator8Iterator3zip17h6797f89a165c6715E
	.seh_endproc
	.section	.xdata,"dr",associative,_ZN4core4iter6traits8iterator8Iterator3zip17h6797f89a165c6715E
	.p2align	2, 0x0
$cppxdata$_ZN4core4iter6traits8iterator8Iterator3zip17h6797f89a165c6715E:
	.long	429065506
	.long	1
	.long	($stateUnwindMap$_ZN4core4iter6traits8iterator8Iterator3zip17h6797f89a165c6715E)@IMGREL
	.long	0
	.long	0
	.long	3
	.long	($ip2state$_ZN4core4iter6traits8iterator8Iterator3zip17h6797f89a165c6715E)@IMGREL
	.long	104
	.long	0
	.long	1
$stateUnwindMap$_ZN4core4iter6traits8iterator8Iterator3zip17h6797f89a165c6715E:
	.long	-1
	.long	"?dtor$1@?0?_ZN4core4iter6traits8iterator8Iterator3zip17h6797f89a165c6715E@4HA"@IMGREL
$ip2state$_ZN4core4iter6traits8iterator8Iterator3zip17h6797f89a165c6715E:
	.long	.Lfunc_begin22@IMGREL
	.long	-1
	.long	.Ltmp78@IMGREL+1
	.long	0
	.long	.Ltmp81@IMGREL+1
	.long	-1
	.section	.text,"xr",one_only,_ZN4core4iter6traits8iterator8Iterator3zip17h6797f89a165c6715E

	.def	_ZN4core4iter6traits8iterator8Iterator8try_fold17h7ce966fd09977a94E;
	.scl	3;
	.type	32;
	.endef
	.section	.text,"xr",one_only,_ZN4core4iter6traits8iterator8Iterator8try_fold17h7ce966fd09977a94E
	.p2align	4, 0x90
_ZN4core4iter6traits8iterator8Iterator8try_fold17h7ce966fd09977a94E:
.Lfunc_begin23:
.seh_proc _ZN4core4iter6traits8iterator8Iterator8try_fold17h7ce966fd09977a94E
	.seh_handler __CxxFrameHandler3, @unwind, @except
	pushq	%rbp
	.seh_pushreg %rbp
	subq	$144, %rsp
	.seh_stackalloc 144
	leaq	128(%rsp), %rbp
	.seh_setframe %rbp, 128
	.seh_endprologue
	movq	$-2, 8(%rbp)
	movq	%rcx, -64(%rbp)
	movq	%rdx, -56(%rbp)
	movb	$1, 7(%rbp)
.LBB107_1:
.Ltmp82:
	movq	-64(%rbp), %rcx
	callq	_ZN90_$LT$core..str..iter..Split$LT$P$GT$$u20$as$u20$core..iter..traits..iterator..Iterator$GT$4next17h3cff0bde6ba6449aE
.Ltmp83:
	movq	%rdx, -80(%rbp)
	movq	%rax, -72(%rbp)
	jmp	.LBB107_3
.LBB107_3:
	movq	-80(%rbp), %rax
	movq	-72(%rbp), %rcx
	movq	%rcx, -40(%rbp)
	movq	%rax, -32(%rbp)
	movq	-40(%rbp), %rdx
	movl	$1, %eax
	xorl	%ecx, %ecx
	cmpq	$0, %rdx
	cmoveq	%rcx, %rax
	cmpq	$1, %rax
	jne	.LBB107_5
	movq	-40(%rbp), %rcx
	movq	-32(%rbp), %rax
	movb	$0, 7(%rbp)
	movq	%rcx, -16(%rbp)
	movq	%rax, -8(%rbp)
	movq	-16(%rbp), %rdx
	movq	-8(%rbp), %r8
.Ltmp86:
	leaq	-56(%rbp), %rcx
	callq	_ZN4core4iter6traits8iterator8Iterator3any5check28_$u7b$$u7b$closure$u7d$$u7d$17h69f193ada2bc7307E
.Ltmp87:
	movb	%al, -81(%rbp)
	jmp	.LBB107_6
.LBB107_5:
	movb	$0, 7(%rbp)
.Ltmp84:
	callq	_ZN95_$LT$core..ops..control_flow..ControlFlow$LT$B$C$C$GT$$u20$as$u20$core..ops..try_trait..Try$GT$11from_output17h6f8934e1c6e85c80E
.Ltmp85:
	movb	%al, -82(%rbp)
	jmp	.LBB107_12
.LBB107_6:
.Ltmp88:
	movb	-81(%rbp), %cl
	andb	$1, %cl
	callq	_ZN95_$LT$core..ops..control_flow..ControlFlow$LT$B$C$C$GT$$u20$as$u20$core..ops..try_trait..Try$GT$6branch17h90e32879626f9b01E
.Ltmp89:
	movb	%al, -83(%rbp)
	jmp	.LBB107_7
.LBB107_7:
	movb	-83(%rbp), %al
	andb	$1, %al
	movb	%al, -17(%rbp)
	movb	-17(%rbp), %al
	andb	$1, %al
	movzbl	%al, %eax
	cmpq	$0, %rax
	jne	.LBB107_9
	movb	$1, 7(%rbp)
	jmp	.LBB107_1
.LBB107_9:
.Ltmp90:
	callq	_ZN104_$LT$core..ops..control_flow..ControlFlow$LT$B$C$C$GT$$u20$as$u20$core..ops..try_trait..FromResidual$GT$13from_residual17h45aa896d6aff209bE
.Ltmp91:
	movb	%al, -84(%rbp)
	jmp	.LBB107_10
.LBB107_10:
	movb	-84(%rbp), %al
	andb	$1, %al
	movb	%al, -41(%rbp)
.LBB107_11:
	movb	-41(%rbp), %al
	andb	$1, %al
	movzbl	%al, %eax
	addq	$144, %rsp
	popq	%rbp
	retq
.LBB107_12:
	movb	-82(%rbp), %al
	andb	$1, %al
	movb	%al, -41(%rbp)
	jmp	.LBB107_11
	.seh_handlerdata
	.long	($cppxdata$_ZN4core4iter6traits8iterator8Iterator8try_fold17h7ce966fd09977a94E)@IMGREL
	.section	.text,"xr",one_only,_ZN4core4iter6traits8iterator8Iterator8try_fold17h7ce966fd09977a94E
	.seh_endproc
	.def	"?dtor$2@?0?_ZN4core4iter6traits8iterator8Iterator8try_fold17h7ce966fd09977a94E@4HA";
	.scl	3;
	.type	32;
	.endef
	.p2align	4, 0x90
"?dtor$2@?0?_ZN4core4iter6traits8iterator8Iterator8try_fold17h7ce966fd09977a94E@4HA":
.seh_proc "?dtor$2@?0?_ZN4core4iter6traits8iterator8Iterator8try_fold17h7ce966fd09977a94E@4HA"
.LBB107_2:
	movq	%rdx, 16(%rsp)
	pushq	%rbp
	.seh_pushreg %rbp
	subq	$32, %rsp
	.seh_stackalloc 32
	leaq	128(%rdx), %rbp
	.seh_endprologue
	testb	$1, 7(%rbp)
	jne	.LBB107_14
	jmp	.LBB107_13
.LBB107_13:
	addq	$32, %rsp
	popq	%rbp
	retq
.LBB107_14:
	jmp	.LBB107_13
.Lfunc_end23:
	.seh_handlerdata
	.section	.text,"xr",one_only,_ZN4core4iter6traits8iterator8Iterator8try_fold17h7ce966fd09977a94E
	.seh_endproc
	.section	.xdata,"dr",associative,_ZN4core4iter6traits8iterator8Iterator8try_fold17h7ce966fd09977a94E
	.p2align	2, 0x0
$cppxdata$_ZN4core4iter6traits8iterator8Iterator8try_fold17h7ce966fd09977a94E:
	.long	429065506
	.long	1
	.long	($stateUnwindMap$_ZN4core4iter6traits8iterator8Iterator8try_fold17h7ce966fd09977a94E)@IMGREL
	.long	0
	.long	0
	.long	3
	.long	($ip2state$_ZN4core4iter6traits8iterator8Iterator8try_fold17h7ce966fd09977a94E)@IMGREL
	.long	136
	.long	0
	.long	1
$stateUnwindMap$_ZN4core4iter6traits8iterator8Iterator8try_fold17h7ce966fd09977a94E:
	.long	-1
	.long	"?dtor$2@?0?_ZN4core4iter6traits8iterator8Iterator8try_fold17h7ce966fd09977a94E@4HA"@IMGREL
$ip2state$_ZN4core4iter6traits8iterator8Iterator8try_fold17h7ce966fd09977a94E:
	.long	.Lfunc_begin23@IMGREL
	.long	-1
	.long	.Ltmp82@IMGREL+1
	.long	0
	.long	.Ltmp91@IMGREL+1
	.long	-1
	.section	.text,"xr",one_only,_ZN4core4iter6traits8iterator8Iterator8try_fold17h7ce966fd09977a94E

	.def	_ZN4core4iter6traits8iterator8Iterator8try_fold17hfd1f9654729f4546E;
	.scl	3;
	.type	32;
	.endef
	.section	.text,"xr",one_only,_ZN4core4iter6traits8iterator8Iterator8try_fold17hfd1f9654729f4546E
	.p2align	4, 0x90
_ZN4core4iter6traits8iterator8Iterator8try_fold17hfd1f9654729f4546E:
.Lfunc_begin24:
.seh_proc _ZN4core4iter6traits8iterator8Iterator8try_fold17hfd1f9654729f4546E
	.seh_handler __CxxFrameHandler3, @unwind, @except
	pushq	%rbp
	.seh_pushreg %rbp
	subq	$144, %rsp
	.seh_stackalloc 144
	leaq	128(%rsp), %rbp
	.seh_setframe %rbp, 128
	.seh_endprologue
	movq	$-2, 8(%rbp)
	movq	%rcx, -64(%rbp)
	movq	%rdx, -56(%rbp)
	movb	$1, 7(%rbp)
.LBB108_1:
.Ltmp92:
	movq	-64(%rbp), %rcx
	callq	_ZN94_$LT$core..slice..iter..Windows$LT$T$GT$$u20$as$u20$core..iter..traits..iterator..Iterator$GT$4next17h2d8679e7550da602E
.Ltmp93:
	movq	%rdx, -80(%rbp)
	movq	%rax, -72(%rbp)
	jmp	.LBB108_3
.LBB108_3:
	movq	-80(%rbp), %rax
	movq	-72(%rbp), %rcx
	movq	%rcx, -40(%rbp)
	movq	%rax, -32(%rbp)
	movq	-40(%rbp), %rdx
	movl	$1, %eax
	xorl	%ecx, %ecx
	cmpq	$0, %rdx
	cmoveq	%rcx, %rax
	cmpq	$1, %rax
	jne	.LBB108_5
	movq	-40(%rbp), %rcx
	movq	-32(%rbp), %rax
	movb	$0, 7(%rbp)
	movq	%rcx, -16(%rbp)
	movq	%rax, -8(%rbp)
	movq	-16(%rbp), %rdx
	movq	-8(%rbp), %r8
.Ltmp96:
	leaq	-56(%rbp), %rcx
	callq	_ZN4core4iter6traits8iterator8Iterator3any5check28_$u7b$$u7b$closure$u7d$$u7d$17h232eb804b00be57aE
.Ltmp97:
	movb	%al, -81(%rbp)
	jmp	.LBB108_6
.LBB108_5:
	movb	$0, 7(%rbp)
.Ltmp94:
	callq	_ZN95_$LT$core..ops..control_flow..ControlFlow$LT$B$C$C$GT$$u20$as$u20$core..ops..try_trait..Try$GT$11from_output17h6f8934e1c6e85c80E
.Ltmp95:
	movb	%al, -82(%rbp)
	jmp	.LBB108_12
.LBB108_6:
.Ltmp98:
	movb	-81(%rbp), %cl
	andb	$1, %cl
	callq	_ZN95_$LT$core..ops..control_flow..ControlFlow$LT$B$C$C$GT$$u20$as$u20$core..ops..try_trait..Try$GT$6branch17h90e32879626f9b01E
.Ltmp99:
	movb	%al, -83(%rbp)
	jmp	.LBB108_7
.LBB108_7:
	movb	-83(%rbp), %al
	andb	$1, %al
	movb	%al, -17(%rbp)
	movb	-17(%rbp), %al
	andb	$1, %al
	movzbl	%al, %eax
	cmpq	$0, %rax
	jne	.LBB108_9
	movb	$1, 7(%rbp)
	jmp	.LBB108_1
.LBB108_9:
.Ltmp100:
	callq	_ZN104_$LT$core..ops..control_flow..ControlFlow$LT$B$C$C$GT$$u20$as$u20$core..ops..try_trait..FromResidual$GT$13from_residual17h45aa896d6aff209bE
.Ltmp101:
	movb	%al, -84(%rbp)
	jmp	.LBB108_10
.LBB108_10:
	movb	-84(%rbp), %al
	andb	$1, %al
	movb	%al, -41(%rbp)
.LBB108_11:
	movb	-41(%rbp), %al
	andb	$1, %al
	movzbl	%al, %eax
	addq	$144, %rsp
	popq	%rbp
	retq
.LBB108_12:
	movb	-82(%rbp), %al
	andb	$1, %al
	movb	%al, -41(%rbp)
	jmp	.LBB108_11
	.seh_handlerdata
	.long	($cppxdata$_ZN4core4iter6traits8iterator8Iterator8try_fold17hfd1f9654729f4546E)@IMGREL
	.section	.text,"xr",one_only,_ZN4core4iter6traits8iterator8Iterator8try_fold17hfd1f9654729f4546E
	.seh_endproc
	.def	"?dtor$2@?0?_ZN4core4iter6traits8iterator8Iterator8try_fold17hfd1f9654729f4546E@4HA";
	.scl	3;
	.type	32;
	.endef
	.p2align	4, 0x90
"?dtor$2@?0?_ZN4core4iter6traits8iterator8Iterator8try_fold17hfd1f9654729f4546E@4HA":
.seh_proc "?dtor$2@?0?_ZN4core4iter6traits8iterator8Iterator8try_fold17hfd1f9654729f4546E@4HA"
.LBB108_2:
	movq	%rdx, 16(%rsp)
	pushq	%rbp
	.seh_pushreg %rbp
	subq	$32, %rsp
	.seh_stackalloc 32
	leaq	128(%rdx), %rbp
	.seh_endprologue
	testb	$1, 7(%rbp)
	jne	.LBB108_14
	jmp	.LBB108_13
.LBB108_13:
	addq	$32, %rsp
	popq	%rbp
	retq
.LBB108_14:
	jmp	.LBB108_13
.Lfunc_end24:
	.seh_handlerdata
	.section	.text,"xr",one_only,_ZN4core4iter6traits8iterator8Iterator8try_fold17hfd1f9654729f4546E
	.seh_endproc
	.section	.xdata,"dr",associative,_ZN4core4iter6traits8iterator8Iterator8try_fold17hfd1f9654729f4546E
	.p2align	2, 0x0
$cppxdata$_ZN4core4iter6traits8iterator8Iterator8try_fold17hfd1f9654729f4546E:
	.long	429065506
	.long	1
	.long	($stateUnwindMap$_ZN4core4iter6traits8iterator8Iterator8try_fold17hfd1f9654729f4546E)@IMGREL
	.long	0
	.long	0
	.long	3
	.long	($ip2state$_ZN4core4iter6traits8iterator8Iterator8try_fold17hfd1f9654729f4546E)@IMGREL
	.long	136
	.long	0
	.long	1
$stateUnwindMap$_ZN4core4iter6traits8iterator8Iterator8try_fold17hfd1f9654729f4546E:
	.long	-1
	.long	"?dtor$2@?0?_ZN4core4iter6traits8iterator8Iterator8try_fold17hfd1f9654729f4546E@4HA"@IMGREL
$ip2state$_ZN4core4iter6traits8iterator8Iterator8try_fold17hfd1f9654729f4546E:
	.long	.Lfunc_begin24@IMGREL
	.long	-1
	.long	.Ltmp92@IMGREL+1
	.long	0
	.long	.Ltmp101@IMGREL+1
	.long	-1
	.section	.text,"xr",one_only,_ZN4core4iter6traits8iterator8Iterator8try_fold17hfd1f9654729f4546E

	.def	_ZN4core4iter8adapters3zip27TrustedRandomAccessNoCoerce4size17h969dd91cb252674cE;
	.scl	3;
	.type	32;
	.endef
	.section	.text,"xr",one_only,_ZN4core4iter8adapters3zip27TrustedRandomAccessNoCoerce4size17h969dd91cb252674cE
	.p2align	4, 0x90
_ZN4core4iter8adapters3zip27TrustedRandomAccessNoCoerce4size17h969dd91cb252674cE:
.seh_proc _ZN4core4iter8adapters3zip27TrustedRandomAccessNoCoerce4size17h969dd91cb252674cE
	subq	$56, %rsp
	.seh_stackalloc 56
	.seh_endprologue
	movq	%rcx, %rdx
	leaq	32(%rsp), %rcx
	callq	_ZN91_$LT$core..slice..iter..Iter$LT$T$GT$$u20$as$u20$core..iter..traits..iterator..Iterator$GT$9size_hint17h30173022679c8e67E
	movq	32(%rsp), %rax
	addq	$56, %rsp
	retq
	.seh_endproc

	.def	_ZN4core5slice29_$LT$impl$u20$$u5b$T$u5d$$GT$11starts_with17hc4d2e762583c59f2E;
	.scl	3;
	.type	32;
	.endef
	.section	.text,"xr",one_only,_ZN4core5slice29_$LT$impl$u20$$u5b$T$u5d$$GT$11starts_with17hc4d2e762583c59f2E
	.p2align	4, 0x90
_ZN4core5slice29_$LT$impl$u20$$u5b$T$u5d$$GT$11starts_with17hc4d2e762583c59f2E:
.seh_proc _ZN4core5slice29_$LT$impl$u20$$u5b$T$u5d$$GT$11starts_with17hc4d2e762583c59f2E
	subq	$120, %rsp
	.seh_stackalloc 120
	.seh_endprologue
	movq	%rdx, 40(%rsp)
	movq	%rcx, 48(%rsp)
	movq	%r8, 64(%rsp)
	movq	%r9, 72(%rsp)
	movq	72(%rsp), %rax
	movq	%rax, 56(%rsp)
	cmpq	%rax, %rdx
	jae	.LBB110_2
	movb	$0, 87(%rsp)
	jmp	.LBB110_3
.LBB110_2:
	movq	40(%rsp), %r9
	movq	48(%rsp), %r8
	movq	56(%rsp), %rax
	movq	$0, 104(%rsp)
	movq	%rax, 112(%rsp)
	movq	104(%rsp), %rcx
	movq	112(%rsp), %rdx
	leaq	__unnamed_24(%rip), %rax
	movq	%rax, 32(%rsp)
	callq	_ZN106_$LT$core..ops..range..Range$LT$usize$GT$$u20$as$u20$core..slice..index..SliceIndex$LT$$u5b$T$u5d$$GT$$GT$5index17hca1a75e4bb81555bE
	movq	%rax, 88(%rsp)
	movq	%rdx, 96(%rsp)
	movq	64(%rsp), %rcx
	movq	72(%rsp), %rdx
	movq	88(%rsp), %r8
	movq	96(%rsp), %r9
	callq	_ZN73_$LT$$u5b$A$u5d$$u20$as$u20$core..slice..cmp..SlicePartialEq$LT$B$GT$$GT$5equal17h7fdc621190a0b157E
	andb	$1, %al
	movb	%al, 87(%rsp)
.LBB110_3:
	movb	87(%rsp), %al
	andb	$1, %al
	movzbl	%al, %eax
	addq	$120, %rsp
	retq
	.seh_endproc

	.def	_ZN4core5slice4iter87_$LT$impl$u20$core..iter..traits..collect..IntoIterator$u20$for$u20$$RF$$u5b$T$u5d$$GT$9into_iter17h82c902470c4886eeE;
	.scl	3;
	.type	32;
	.endef
	.section	.text,"xr",one_only,_ZN4core5slice4iter87_$LT$impl$u20$core..iter..traits..collect..IntoIterator$u20$for$u20$$RF$$u5b$T$u5d$$GT$9into_iter17h82c902470c4886eeE
	.p2align	4, 0x90
_ZN4core5slice4iter87_$LT$impl$u20$core..iter..traits..collect..IntoIterator$u20$for$u20$$RF$$u5b$T$u5d$$GT$9into_iter17h82c902470c4886eeE:
.seh_proc _ZN4core5slice4iter87_$LT$impl$u20$core..iter..traits..collect..IntoIterator$u20$for$u20$$RF$$u5b$T$u5d$$GT$9into_iter17h82c902470c4886eeE
	subq	$48, %rsp
	.seh_stackalloc 48
	.seh_endprologue
	movq	%rdx, (%rsp)
	movq	%rcx, 8(%rsp)
	xorl	%eax, %eax
	testb	$1, %al
	jne	.LBB111_2
	movq	(%rsp), %rcx
	movq	8(%rsp), %rax
	addq	%rcx, %rax
	movq	%rax, 32(%rsp)
	jmp	.LBB111_3
.LBB111_2:
	movq	(%rsp), %rax
	movq	%rax, 32(%rsp)
.LBB111_3:
	movq	8(%rsp), %rax
	movq	%rax, 40(%rsp)
	movq	32(%rsp), %rax
	movq	40(%rsp), %rcx
	movq	%rcx, 16(%rsp)
	movq	%rax, 24(%rsp)
	movq	16(%rsp), %rax
	movq	24(%rsp), %rdx
	addq	$48, %rsp
	retq
	.seh_endproc

	.def	_ZN4core5slice6memchr12memchr_naive17h85d24145da4dd83fE;
	.scl	3;
	.type	32;
	.endef
	.section	.text,"xr",one_only,_ZN4core5slice6memchr12memchr_naive17h85d24145da4dd83fE
	.p2align	4, 0x90
_ZN4core5slice6memchr12memchr_naive17h85d24145da4dd83fE:
.seh_proc _ZN4core5slice6memchr12memchr_naive17h85d24145da4dd83fE
	subq	$88, %rsp
	.seh_stackalloc 88
	.seh_endprologue
	movq	%r8, 40(%rsp)
	movq	%rdx, 48(%rsp)
	movb	%cl, 63(%rsp)
	movq	$0, 80(%rsp)
.LBB112_1:
	movq	40(%rsp), %rax
	cmpq	%rax, 80(%rsp)
	jb	.LBB112_3
	movq	$0, 64(%rsp)
	jmp	.LBB112_4
.LBB112_3:
	movq	40(%rsp), %rcx
	movq	80(%rsp), %rax
	movq	%rax, 32(%rsp)
	cmpq	%rcx, %rax
	setb	%al
	testb	$1, %al
	jne	.LBB112_5
	jmp	.LBB112_6
.LBB112_4:
	movq	64(%rsp), %rax
	movq	72(%rsp), %rdx
	addq	$88, %rsp
	retq
.LBB112_5:
	movq	48(%rsp), %rax
	movq	32(%rsp), %rcx
	movb	63(%rsp), %dl
	cmpb	%dl, (%rax,%rcx)
	je	.LBB112_8
	jmp	.LBB112_7
.LBB112_6:
	movq	40(%rsp), %rdx
	movq	32(%rsp), %rcx
	leaq	__unnamed_25(%rip), %r8
	callq	_ZN4core9panicking18panic_bounds_check17hda6b295b4a93eea5E
.LBB112_7:
	movq	80(%rsp), %rax
	addq	$1, %rax
	movq	%rax, 80(%rsp)
	jmp	.LBB112_1
.LBB112_8:
	movq	80(%rsp), %rax
	movq	%rax, 72(%rsp)
	movq	$1, 64(%rsp)
	jmp	.LBB112_4
	.seh_endproc

	.def	_ZN4core6option15Option$LT$T$GT$7is_some17h1d049f64e2614873E;
	.scl	3;
	.type	32;
	.endef
	.section	.text,"xr",one_only,_ZN4core6option15Option$LT$T$GT$7is_some17h1d049f64e2614873E
	.p2align	4, 0x90
_ZN4core6option15Option$LT$T$GT$7is_some17h1d049f64e2614873E:
	movq	%rcx, %rdx
	movabsq	$-9223372036854775808, %r8
	movl	$1, %eax
	xorl	%ecx, %ecx
	cmpq	%r8, (%rdx)
	cmoveq	%rcx, %rax
	cmpq	$1, %rax
	sete	%al
	andb	$1, %al
	movzbl	%al, %eax
	retq

	.def	_ZN4core6option15Option$LT$T$GT$9unwrap_or17h0afe52541fb6a0d5E;
	.scl	3;
	.type	32;
	.endef
	.section	.text,"xr",one_only,_ZN4core6option15Option$LT$T$GT$9unwrap_or17h0afe52541fb6a0d5E
	.p2align	4, 0x90
_ZN4core6option15Option$LT$T$GT$9unwrap_or17h0afe52541fb6a0d5E:
.seh_proc _ZN4core6option15Option$LT$T$GT$9unwrap_or17h0afe52541fb6a0d5E
	subq	$32, %rsp
	.seh_stackalloc 32
	.seh_endprologue
	movl	%r8d, 4(%rsp)
	movb	%r9b, 11(%rsp)
	movl	%ecx, 12(%rsp)
	movb	%dl, 16(%rsp)
	movb	$1, 31(%rsp)
	movl	$1, %eax
	xorl	%ecx, %ecx
	cmpb	$2, 16(%rsp)
	cmoveq	%rcx, %rax
	cmpq	$0, %rax
	jne	.LBB114_2
	movb	11(%rsp), %al
	movl	4(%rsp), %ecx
	movb	$0, 31(%rsp)
	movl	%ecx, 20(%rsp)
	andb	$1, %al
	movb	%al, 24(%rsp)
	jmp	.LBB114_3
.LBB114_2:
	movl	12(%rsp), %ecx
	movb	16(%rsp), %al
	movl	%ecx, 20(%rsp)
	andb	$1, %al
	movb	%al, 24(%rsp)
.LBB114_3:
	testb	$1, 31(%rsp)
	jne	.LBB114_5
.LBB114_4:
	movl	20(%rsp), %eax
	movb	24(%rsp), %dl
	addq	$32, %rsp
	retq
.LBB114_5:
	jmp	.LBB114_4
	.seh_endproc

	.def	_ZN4core6result19Result$LT$T$C$E$GT$2ok17h9cdf2bd887274976E;
	.scl	3;
	.type	32;
	.endef
	.section	.text,"xr",one_only,_ZN4core6result19Result$LT$T$C$E$GT$2ok17h9cdf2bd887274976E
	.p2align	4, 0x90
_ZN4core6result19Result$LT$T$C$E$GT$2ok17h9cdf2bd887274976E:
.seh_proc _ZN4core6result19Result$LT$T$C$E$GT$2ok17h9cdf2bd887274976E
	subq	$120, %rsp
	.seh_stackalloc 120
	.seh_endprologue
	movq	%rdx, 40(%rsp)
	movq	%rcx, 48(%rsp)
	movq	%rcx, 56(%rsp)
	movabsq	$-9223372036854775808, %r8
	xorl	%eax, %eax
	movl	$1, %ecx
	cmpq	%r8, (%rdx)
	cmoveq	%rcx, %rax
	cmpq	$0, %rax
	jne	.LBB115_2
	movq	40(%rsp), %rdx
	leaq	64(%rsp), %rcx
	movl	$56, %r8d
	callq	memcpy
	movq	48(%rsp), %rcx
	leaq	64(%rsp), %rdx
	movl	$56, %r8d
	callq	memcpy
	jmp	.LBB115_3
.LBB115_2:
	movq	48(%rsp), %rax
	movabsq	$-9223372036854775808, %rcx
	movq	%rcx, (%rax)
.LBB115_3:
	movq	40(%rsp), %rdx
	movabsq	$-9223372036854775808, %r8
	xorl	%eax, %eax
	movl	$1, %ecx
	cmpq	%r8, (%rdx)
	cmoveq	%rcx, %rax
	cmpq	$0, %rax
	jne	.LBB115_5
.LBB115_4:
	movq	56(%rsp), %rax
	addq	$120, %rsp
	retq
.LBB115_5:
	movq	40(%rsp), %rcx
	callq	_ZN4core3ptr93drop_in_place$LT$core..result..Result$LT$std..process..Output$C$std..io..error..Error$GT$$GT$17haf6238463d311c35E
	jmp	.LBB115_4
	.seh_endproc

	.def	_ZN4core6result19Result$LT$T$C$E$GT$2ok17hceec34a21e07049bE;
	.scl	3;
	.type	32;
	.endef
	.section	.text,"xr",one_only,_ZN4core6result19Result$LT$T$C$E$GT$2ok17hceec34a21e07049bE
	.p2align	4, 0x90
_ZN4core6result19Result$LT$T$C$E$GT$2ok17hceec34a21e07049bE:
.seh_proc _ZN4core6result19Result$LT$T$C$E$GT$2ok17hceec34a21e07049bE
	subq	$24, %rsp
	.seh_stackalloc 24
	.seh_endprologue
	movq	%rcx, (%rsp)
	cmpq	$0, (%rcx)
	jne	.LBB116_2
	movq	(%rsp), %rax
	movq	8(%rax), %rcx
	movq	16(%rax), %rax
	movq	%rcx, 8(%rsp)
	movq	%rax, 16(%rsp)
	jmp	.LBB116_3
.LBB116_2:
	movq	$0, 8(%rsp)
.LBB116_3:
	movq	(%rsp), %rax
	cmpq	$0, (%rax)
	jne	.LBB116_5
.LBB116_4:
	movq	8(%rsp), %rax
	movq	16(%rsp), %rdx
	addq	$24, %rsp
	retq
.LBB116_5:
	jmp	.LBB116_4
	.seh_endproc

	.def	_ZN4core6result19Result$LT$T$C$E$GT$2ok17he5635874d41d91b7E;
	.scl	3;
	.type	32;
	.endef
	.section	.text,"xr",one_only,_ZN4core6result19Result$LT$T$C$E$GT$2ok17he5635874d41d91b7E
	.p2align	4, 0x90
_ZN4core6result19Result$LT$T$C$E$GT$2ok17he5635874d41d91b7E:
.seh_proc _ZN4core6result19Result$LT$T$C$E$GT$2ok17he5635874d41d91b7E
	subq	$24, %rsp
	.seh_stackalloc 24
	.seh_endprologue
	movq	%rcx, 8(%rsp)
	movq	8(%rsp), %rax
	movq	%rax, (%rsp)
	movb	(%rsp), %al
	andb	$1, %al
	movzbl	%al, %eax
	cmpq	$0, %rax
	jne	.LBB117_2
	movl	4(%rsp), %eax
	movl	%eax, 20(%rsp)
	movl	$1, 16(%rsp)
	jmp	.LBB117_3
.LBB117_2:
	movl	$0, 16(%rsp)
.LBB117_3:
	movb	(%rsp), %al
	andb	$1, %al
	movzbl	%al, %eax
	cmpq	$0, %rax
	jne	.LBB117_5
.LBB117_4:
	movl	16(%rsp), %eax
	movl	20(%rsp), %edx
	addq	$24, %rsp
	retq
.LBB117_5:
	jmp	.LBB117_4
	.seh_endproc

	.def	_ZN4core9core_simd5masks9mask_impl17Mask$LT$T$C$_$GT$18to_bitmask_integer17h72fecc4be6a93377E;
	.scl	3;
	.type	32;
	.endef
	.section	.text,"xr",one_only,_ZN4core9core_simd5masks9mask_impl17Mask$LT$T$C$_$GT$18to_bitmask_integer17h72fecc4be6a93377E
	.p2align	4, 0x90
_ZN4core9core_simd5masks9mask_impl17Mask$LT$T$C$_$GT$18to_bitmask_integer17h72fecc4be6a93377E:
.seh_proc _ZN4core9core_simd5masks9mask_impl17Mask$LT$T$C$_$GT$18to_bitmask_integer17h72fecc4be6a93377E
	pushq	%rbp
	.seh_pushreg %rbp
	subq	$304, %rsp
	.seh_stackalloc 304
	leaq	128(%rsp), %rbp
	.seh_setframe %rbp, 128
	.seh_endprologue
	andq	$-64, %rsp
	movq	%rcx, 16(%rsp)
	xorl	%eax, %eax
	testb	$1, %al
	jne	.LBB118_2
	movb	$1, %al
	testb	$1, %al
	jne	.LBB118_4
	jmp	.LBB118_3
.LBB118_2:
	movq	16(%rsp), %rax
	movq	(%rax), %rax
	movb	$0, 36(%rsp)
	movb	36(%rsp), %cl
	movb	%cl, 37(%rsp)
	movb	37(%rsp), %cl
	movb	%cl, 38(%rsp)
	vpbroadcastb	38(%rsp), %xmm0
	vmovdqa	%xmm0, 272(%rsp)
	movq	%rax, 288(%rsp)
	vmovq	288(%rsp), %xmm0
	vpsrlw	$7, %xmm0, %xmm0
	vpmovzxbw	%xmm0, %xmm0
	vpsllw	$15, %xmm0, %xmm0
	vpacksswb	%xmm1, %xmm0, %xmm0
	vpmovmskb	%xmm0, %eax
	movb	%al, 303(%rsp)
	movzbl	303(%rsp), %eax
	movq	%rax, 24(%rsp)
	jmp	.LBB118_9
.LBB118_3:
	movb	$1, %al
	testb	$1, %al
	jne	.LBB118_6
	jmp	.LBB118_5
.LBB118_4:
	movq	16(%rsp), %rax
	vmovdqa	(%rax), %xmm0
	movb	$0, 39(%rsp)
	movb	39(%rsp), %al
	movb	%al, 40(%rsp)
	movb	40(%rsp), %al
	movb	%al, 41(%rsp)
	vpbroadcastb	41(%rsp), %xmm1
	vmovdqa	%xmm1, 224(%rsp)
	vmovdqa	%xmm0, 240(%rsp)
	vmovdqa	240(%rsp), %xmm0
	vpmovmskb	%xmm0, %eax
	movw	%ax, 270(%rsp)
	movzwl	270(%rsp), %eax
	movq	%rax, 24(%rsp)
	jmp	.LBB118_8
.LBB118_5:
	movq	16(%rsp), %rax
	vmovdqa	(%rax), %xmm1
	movb	$0, 45(%rsp)
	movb	45(%rsp), %al
	movb	%al, 46(%rsp)
	movb	46(%rsp), %al
	movb	%al, 47(%rsp)
	vpbroadcastb	47(%rsp), %xmm0
	vmovdqa	%xmm0, 48(%rsp)
	vpbroadcastb	48(%rsp), %ymm0
	vpbroadcastb	48(%rsp), %xmm2
	vmovdqa	%xmm2, 80(%rsp)
	vmovdqa	%xmm1, 64(%rsp)
	vmovaps	%ymm0, 96(%rsp)
	vmovaps	64(%rsp), %ymm0
	vmovaps	96(%rsp), %ymm1
	vpmovmskb	%ymm1, %eax
	movl	%eax, %ecx
	shlq	$32, %rcx
	vpmovmskb	%ymm0, %eax
	orq	%rcx, %rax
	movq	%rax, 136(%rsp)
	movq	136(%rsp), %rax
	movq	%rax, 24(%rsp)
	jmp	.LBB118_7
.LBB118_6:
	movq	16(%rsp), %rax
	vmovdqa	(%rax), %xmm0
	movb	$0, 42(%rsp)
	movb	42(%rsp), %al
	movb	%al, 43(%rsp)
	movb	43(%rsp), %al
	movb	%al, 44(%rsp)
	vpbroadcastb	44(%rsp), %xmm1
	vmovdqa	%xmm1, 144(%rsp)
	vpbroadcastb	144(%rsp), %xmm1
	vmovdqa	%xmm1, 176(%rsp)
	vmovdqa	%xmm0, 160(%rsp)
	vmovaps	160(%rsp), %ymm0
	vpmovmskb	%ymm0, %eax
	movl	%eax, 220(%rsp)
	movl	220(%rsp), %eax
	movq	%rax, 24(%rsp)
.LBB118_7:
	jmp	.LBB118_8
.LBB118_8:
	jmp	.LBB118_9
.LBB118_9:
	movq	24(%rsp), %rax
	leaq	176(%rbp), %rsp
	popq	%rbp
	vzeroupper
	retq
	.seh_endproc

	.def	_ZN52_$LT$char$u20$as$u20$core..str..pattern..Pattern$GT$13into_searcher17h78acb9ee437e3ed2E;
	.scl	3;
	.type	32;
	.endef
	.section	.text,"xr",one_only,_ZN52_$LT$char$u20$as$u20$core..str..pattern..Pattern$GT$13into_searcher17h78acb9ee437e3ed2E
	.p2align	4, 0x90
_ZN52_$LT$char$u20$as$u20$core..str..pattern..Pattern$GT$13into_searcher17h78acb9ee437e3ed2E:
.seh_proc _ZN52_$LT$char$u20$as$u20$core..str..pattern..Pattern$GT$13into_searcher17h78acb9ee437e3ed2E
	subq	$88, %rsp
	.seh_stackalloc 88
	.seh_endprologue
	movq	%r9, 48(%rsp)
	movq	%r8, 40(%rsp)
	movl	%edx, 60(%rsp)
	movq	%rcx, %rax
	movl	60(%rsp), %ecx
	movq	%rax, 64(%rsp)
	movq	%rax, 72(%rsp)
	movl	$0, 80(%rsp)
	leaq	80(%rsp), %rdx
	movl	$4, %r8d
	callq	_ZN4core4char7methods15encode_utf8_raw17h85cdbbd16ad6f597E
	movq	40(%rsp), %r10
	movq	48(%rsp), %r9
	movl	60(%rsp), %r8d
	movq	64(%rsp), %rcx
	movq	72(%rsp), %rax
	movl	80(%rsp), %r11d
	movl	%r11d, 84(%rsp)
	movq	%r10, (%rcx)
	movq	%r9, 8(%rcx)
	movq	$0, 16(%rcx)
	movq	%r9, 24(%rcx)
	movl	%r8d, 44(%rcx)
	movq	%rdx, 32(%rcx)
	movl	84(%rsp), %edx
	movl	%edx, 40(%rcx)
	addq	$88, %rsp
	retq
	.seh_endproc

	.def	_ZN54_$LT$$LP$$RP$$u20$as$u20$std..process..Termination$GT$6report17h8b8e083dcc4e909eE;
	.scl	3;
	.type	32;
	.endef
	.section	.text,"xr",one_only,_ZN54_$LT$$LP$$RP$$u20$as$u20$std..process..Termination$GT$6report17h8b8e083dcc4e909eE
	.p2align	4, 0x90
_ZN54_$LT$$LP$$RP$$u20$as$u20$std..process..Termination$GT$6report17h8b8e083dcc4e909eE:
	xorl	%eax, %eax
	retq

	.def	_ZN55_$LT$$RF$T$u20$as$u20$core..convert..AsRef$LT$U$GT$$GT$6as_ref17h1d7236a48d238540E;
	.scl	3;
	.type	32;
	.endef
	.section	.text,"xr",one_only,_ZN55_$LT$$RF$T$u20$as$u20$core..convert..AsRef$LT$U$GT$$GT$6as_ref17h1d7236a48d238540E
	.p2align	4, 0x90
_ZN55_$LT$$RF$T$u20$as$u20$core..convert..AsRef$LT$U$GT$$GT$6as_ref17h1d7236a48d238540E:
.seh_proc _ZN55_$LT$$RF$T$u20$as$u20$core..convert..AsRef$LT$U$GT$$GT$6as_ref17h1d7236a48d238540E
	subq	$40, %rsp
	.seh_stackalloc 40
	.seh_endprologue
	movq	%rcx, %rax
	movq	(%rax), %rcx
	movq	8(%rax), %rdx
	callq	_ZN3std3ffi6os_str85_$LT$impl$u20$core..convert..AsRef$LT$std..ffi..os_str..OsStr$GT$$u20$for$u20$str$GT$6as_ref17h0384061aaff8cee6E
	nop
	addq	$40, %rsp
	retq
	.seh_endproc

	.def	_ZN55_$LT$$RF$str$u20$as$u20$core..str..pattern..Pattern$GT$12is_prefix_of17hd8c72630cfb07edaE;
	.scl	3;
	.type	32;
	.endef
	.section	.text,"xr",one_only,_ZN55_$LT$$RF$str$u20$as$u20$core..str..pattern..Pattern$GT$12is_prefix_of17hd8c72630cfb07edaE
	.p2align	4, 0x90
_ZN55_$LT$$RF$str$u20$as$u20$core..str..pattern..Pattern$GT$12is_prefix_of17hd8c72630cfb07edaE:
.seh_proc _ZN55_$LT$$RF$str$u20$as$u20$core..str..pattern..Pattern$GT$12is_prefix_of17hd8c72630cfb07edaE
	subq	$56, %rsp
	.seh_stackalloc 56
	.seh_endprologue
	movq	%r9, 40(%rsp)
	movq	%r8, 48(%rsp)
	movq	%rdx, %r9
	movq	40(%rsp), %rdx
	movq	%rcx, %r8
	movq	48(%rsp), %rcx
	callq	_ZN4core5slice29_$LT$impl$u20$$u5b$T$u5d$$GT$11starts_with17hc4d2e762583c59f2E
	andb	$1, %al
	movzbl	%al, %eax
	addq	$56, %rsp
	retq
	.seh_endproc

	.def	_ZN55_$LT$$RF$str$u20$as$u20$core..str..pattern..Pattern$GT$15is_contained_in17he73907d3adb42944E;
	.scl	3;
	.type	32;
	.endef
	.section	.text,"xr",one_only,_ZN55_$LT$$RF$str$u20$as$u20$core..str..pattern..Pattern$GT$15is_contained_in17he73907d3adb42944E
	.p2align	4, 0x90
_ZN55_$LT$$RF$str$u20$as$u20$core..str..pattern..Pattern$GT$15is_contained_in17he73907d3adb42944E:
.seh_proc _ZN55_$LT$$RF$str$u20$as$u20$core..str..pattern..Pattern$GT$15is_contained_in17he73907d3adb42944E
	subq	$328, %rsp
	.seh_stackalloc 328
	.seh_endprologue
	movq	%rcx, 88(%rsp)
	movq	%rdx, 96(%rsp)
	movq	%r8, 104(%rsp)
	movq	%r9, 112(%rsp)
	cmpq	$0, 96(%rsp)
	jne	.LBB123_2
	movb	$1, 126(%rsp)
	jmp	.LBB123_3
.LBB123_2:
	movq	96(%rsp), %rax
	movq	%rax, 128(%rsp)
	movq	112(%rsp), %rax
	movq	%rax, 136(%rsp)
	movq	128(%rsp), %rax
	cmpq	136(%rsp), %rax
	jb	.LBB123_5
	jmp	.LBB123_4
.LBB123_3:
	movb	126(%rsp), %al
	andb	$1, %al
	movzbl	%al, %eax
	addq	$328, %rsp
	retq
.LBB123_4:
	movq	128(%rsp), %rax
	cmpq	136(%rsp), %rax
	je	.LBB123_7
	jmp	.LBB123_6
.LBB123_5:
	movb	$-1, 127(%rsp)
	jmp	.LBB123_9
.LBB123_6:
	movb	$1, 127(%rsp)
	jmp	.LBB123_8
.LBB123_7:
	movb	$0, 127(%rsp)
.LBB123_8:
	jmp	.LBB123_9
.LBB123_9:
	cmpb	$-1, 127(%rsp)
	jne	.LBB123_11
	cmpq	$1, 96(%rsp)
	je	.LBB123_12
	jmp	.LBB123_13
.LBB123_11:
	movq	88(%rsp), %r8
	movq	96(%rsp), %rdx
	movq	104(%rsp), %rcx
	movq	112(%rsp), %rax
	movq	%r8, 280(%rsp)
	movq	%rdx, 288(%rsp)
	movq	%rcx, 296(%rsp)
	movq	%rax, 304(%rsp)
	movq	280(%rsp), %rcx
	movq	288(%rsp), %rdx
	movq	296(%rsp), %r8
	movq	304(%rsp), %r9
	callq	_ZN73_$LT$$u5b$A$u5d$$u20$as$u20$core..slice..cmp..SlicePartialEq$LT$B$GT$$GT$5equal17h7fdc621190a0b157E
	andb	$1, %al
	movb	%al, 126(%rsp)
	jmp	.LBB123_25
.LBB123_12:
	movq	104(%rsp), %rax
	movq	%rax, 56(%rsp)
	movq	112(%rsp), %rax
	movq	%rax, 64(%rsp)
	movq	88(%rsp), %rax
	movq	%rax, 72(%rsp)
	movq	96(%rsp), %rcx
	movq	%rcx, 80(%rsp)
	xorl	%eax, %eax
	cmpq	%rcx, %rax
	setb	%al
	testb	$1, %al
	jne	.LBB123_14
	jmp	.LBB123_15
.LBB123_13:
	cmpq	$32, 96(%rsp)
	jbe	.LBB123_21
	jmp	.LBB123_20
.LBB123_14:
	movq	64(%rsp), %rax
	movq	72(%rsp), %rcx
	movb	(%rcx), %cl
	movb	%cl, 55(%rsp)
	cmpq	$16, %rax
	jb	.LBB123_17
	jmp	.LBB123_16
.LBB123_15:
	movq	80(%rsp), %rdx
	leaq	__unnamed_26(%rip), %r8
	xorl	%eax, %eax
	movl	%eax, %ecx
	callq	_ZN4core9panicking18panic_bounds_check17hda6b295b4a93eea5E
.LBB123_16:
	movq	64(%rsp), %r8
	movq	56(%rsp), %rdx
	movb	55(%rsp), %cl
	callq	_ZN4core5slice6memchr14memchr_aligned17h68af549c63abfbb8E
	movq	%rdx, 320(%rsp)
	movq	%rax, 312(%rsp)
	jmp	.LBB123_18
.LBB123_17:
	movq	64(%rsp), %r8
	movq	56(%rsp), %rdx
	movb	55(%rsp), %cl
	callq	_ZN4core5slice6memchr12memchr_naive17h85d24145da4dd83fE
	movq	%rdx, 320(%rsp)
	movq	%rax, 312(%rsp)
.LBB123_18:
	cmpq	$1, 312(%rsp)
	sete	%al
	andb	$1, %al
	movb	%al, 126(%rsp)
.LBB123_19:
	jmp	.LBB123_3
.LBB123_20:
	jmp	.LBB123_22
.LBB123_21:
	movq	88(%rsp), %rcx
	movq	96(%rsp), %rdx
	movq	104(%rsp), %r8
	movq	112(%rsp), %r9
	callq	_ZN4core3str7pattern13simd_contains17h296497b1f165ac13E
	movb	%al, 151(%rsp)
	movl	$1, %eax
	xorl	%ecx, %ecx
	cmpb	$2, 151(%rsp)
	cmoveq	%rcx, %rax
	cmpq	$1, %rax
	je	.LBB123_23
	jmp	.LBB123_24
.LBB123_22:
	movq	88(%rsp), %r9
	movq	96(%rsp), %rax
	movq	104(%rsp), %rdx
	movq	112(%rsp), %r8
	leaq	176(%rsp), %rcx
	movq	%rax, 32(%rsp)
	callq	_ZN4core3str7pattern11StrSearcher3new17hc91a088b262598ecE
	leaq	152(%rsp), %rcx
	leaq	176(%rsp), %rdx
	callq	_ZN80_$LT$core..str..pattern..StrSearcher$u20$as$u20$core..str..pattern..Searcher$GT$10next_match17h801904c800c1c5fbE
	cmpq	$1, 152(%rsp)
	sete	%al
	andb	$1, %al
	movb	%al, 126(%rsp)
	jmp	.LBB123_25
.LBB123_23:
	movb	151(%rsp), %al
	andb	$1, %al
	movb	%al, 126(%rsp)
	jmp	.LBB123_19
.LBB123_24:
	jmp	.LBB123_22
.LBB123_25:
	jmp	.LBB123_3
	.seh_endproc

	.def	_ZN55_$LT$T$u20$as$u20$core..option..SpecOptionPartialEq$GT$2eq17ha336908ac3b94864E;
	.scl	3;
	.type	32;
	.endef
	.section	.text,"xr",one_only,_ZN55_$LT$T$u20$as$u20$core..option..SpecOptionPartialEq$GT$2eq17ha336908ac3b94864E
	.p2align	4, 0x90
_ZN55_$LT$T$u20$as$u20$core..option..SpecOptionPartialEq$GT$2eq17ha336908ac3b94864E:
.seh_proc _ZN55_$LT$T$u20$as$u20$core..option..SpecOptionPartialEq$GT$2eq17ha336908ac3b94864E
	subq	$72, %rsp
	.seh_stackalloc 72
	.seh_endprologue
	movq	%rdx, 40(%rsp)
	movq	%rcx, 48(%rsp)
	movq	(%rcx), %rax
	testq	%rax, %rax
	setne	%al
	movzbl	%al, %eax
	movq	%rax, 56(%rsp)
	je	.LBB124_2
	jmp	.LBB124_6
.LBB124_6:
	movq	56(%rsp), %rax
	subq	$1, %rax
	je	.LBB124_3
	jmp	.LBB124_1
.LBB124_1:
	movb	$0, 71(%rsp)
	jmp	.LBB124_4
.LBB124_2:
	movq	40(%rsp), %rax
	movq	(%rax), %rdx
	movl	$1, %eax
	xorl	%ecx, %ecx
	cmpq	$0, %rdx
	cmoveq	%rcx, %rax
	cmpq	$0, %rax
	sete	%al
	andb	$1, %al
	movb	%al, 71(%rsp)
	jmp	.LBB124_4
.LBB124_3:
	movq	40(%rsp), %rax
	movq	(%rax), %rdx
	movl	$1, %eax
	xorl	%ecx, %ecx
	cmpq	$0, %rdx
	cmoveq	%rcx, %rax
	cmpq	$1, %rax
	je	.LBB124_5
	jmp	.LBB124_1
.LBB124_4:
	movb	71(%rsp), %al
	andb	$1, %al
	movzbl	%al, %eax
	addq	$72, %rsp
	retq
.LBB124_5:
	movq	40(%rsp), %rdx
	movq	48(%rsp), %rcx
	callq	_ZN4core3cmp5impls69_$LT$impl$u20$core..cmp..PartialEq$LT$$RF$B$GT$$u20$for$u20$$RF$A$GT$2eq17h78692417196f59a6E
	andb	$1, %al
	movb	%al, 71(%rsp)
	jmp	.LBB124_4
	.seh_endproc

	.def	_ZN59_$LT$alloc..alloc..Global$u20$as$u20$core..clone..Clone$GT$5clone17h0ac0bb7d13635a02E;
	.scl	3;
	.type	32;
	.endef
	.section	.text,"xr",one_only,_ZN59_$LT$alloc..alloc..Global$u20$as$u20$core..clone..Clone$GT$5clone17h0ac0bb7d13635a02E
	.p2align	4, 0x90
_ZN59_$LT$alloc..alloc..Global$u20$as$u20$core..clone..Clone$GT$5clone17h0ac0bb7d13635a02E:
	retq

	.def	_ZN5alloc11collections5btree3map25IntoIter$LT$K$C$V$C$A$GT$10dying_next17hc26c993b9f8ce38bE;
	.scl	3;
	.type	32;
	.endef
	.section	.text,"xr",one_only,_ZN5alloc11collections5btree3map25IntoIter$LT$K$C$V$C$A$GT$10dying_next17hc26c993b9f8ce38bE
	.p2align	4, 0x90
_ZN5alloc11collections5btree3map25IntoIter$LT$K$C$V$C$A$GT$10dying_next17hc26c993b9f8ce38bE:
.seh_proc _ZN5alloc11collections5btree3map25IntoIter$LT$K$C$V$C$A$GT$10dying_next17hc26c993b9f8ce38bE
	subq	$88, %rsp
	.seh_stackalloc 88
	.seh_endprologue
	movq	%rdx, 40(%rsp)
	movq	%rcx, 48(%rsp)
	movq	%rcx, 56(%rsp)
	cmpq	$0, 64(%rdx)
	jne	.LBB126_2
	movq	40(%rsp), %rcx
	addq	$72, %rcx
	callq	_ZN59_$LT$alloc..alloc..Global$u20$as$u20$core..clone..Clone$GT$5clone17h0ac0bb7d13635a02E
	movq	40(%rsp), %rcx
	callq	_ZN5alloc11collections5btree8navigate75LazyLeafRange$LT$alloc..collections..btree..node..marker..Dying$C$K$C$V$GT$16deallocating_end17h56f2e92e74dd379bE
	movq	48(%rsp), %rax
	movq	$0, (%rax)
	jmp	.LBB126_3
.LBB126_2:
	movq	40(%rsp), %rcx
	movq	64(%rcx), %rax
	subq	$1, %rax
	movq	%rax, 64(%rcx)
	addq	$72, %rcx
	callq	_ZN59_$LT$alloc..alloc..Global$u20$as$u20$core..clone..Clone$GT$5clone17h0ac0bb7d13635a02E
	movq	40(%rsp), %rdx
	leaq	64(%rsp), %rcx
	callq	_ZN5alloc11collections5btree8navigate75LazyLeafRange$LT$alloc..collections..btree..node..marker..Dying$C$K$C$V$GT$27deallocating_next_unchecked17h2615fede27d882c9E
	movq	48(%rsp), %rax
	movq	64(%rsp), %rcx
	movq	%rcx, (%rax)
	movq	72(%rsp), %rcx
	movq	%rcx, 8(%rax)
	movq	80(%rsp), %rcx
	movq	%rcx, 16(%rax)
.LBB126_3:
	movq	56(%rsp), %rax
	addq	$88, %rsp
	retq
	.seh_endproc

	.def	_ZN5alloc11collections5btree3map25IntoIter$LT$K$C$V$C$A$GT$10dying_next17he771ede5c66755ebE;
	.scl	3;
	.type	32;
	.endef
	.section	.text,"xr",one_only,_ZN5alloc11collections5btree3map25IntoIter$LT$K$C$V$C$A$GT$10dying_next17he771ede5c66755ebE
	.p2align	4, 0x90
_ZN5alloc11collections5btree3map25IntoIter$LT$K$C$V$C$A$GT$10dying_next17he771ede5c66755ebE:
.seh_proc _ZN5alloc11collections5btree3map25IntoIter$LT$K$C$V$C$A$GT$10dying_next17he771ede5c66755ebE
	subq	$88, %rsp
	.seh_stackalloc 88
	.seh_endprologue
	movq	%rdx, 40(%rsp)
	movq	%rcx, 48(%rsp)
	movq	%rcx, 56(%rsp)
	cmpq	$0, 64(%rdx)
	jne	.LBB127_2
	movq	40(%rsp), %rcx
	addq	$72, %rcx
	callq	_ZN59_$LT$alloc..alloc..Global$u20$as$u20$core..clone..Clone$GT$5clone17h0ac0bb7d13635a02E
	movq	40(%rsp), %rcx
	callq	_ZN5alloc11collections5btree8navigate75LazyLeafRange$LT$alloc..collections..btree..node..marker..Dying$C$K$C$V$GT$16deallocating_end17h6c323d450b75936cE
	movq	48(%rsp), %rax
	movq	$0, (%rax)
	jmp	.LBB127_3
.LBB127_2:
	movq	40(%rsp), %rcx
	movq	64(%rcx), %rax
	subq	$1, %rax
	movq	%rax, 64(%rcx)
	addq	$72, %rcx
	callq	_ZN59_$LT$alloc..alloc..Global$u20$as$u20$core..clone..Clone$GT$5clone17h0ac0bb7d13635a02E
	movq	40(%rsp), %rdx
	leaq	64(%rsp), %rcx
	callq	_ZN5alloc11collections5btree8navigate75LazyLeafRange$LT$alloc..collections..btree..node..marker..Dying$C$K$C$V$GT$27deallocating_next_unchecked17h7077f0d974275450E
	movq	48(%rsp), %rax
	movq	64(%rsp), %rcx
	movq	%rcx, (%rax)
	movq	72(%rsp), %rcx
	movq	%rcx, 8(%rax)
	movq	80(%rsp), %rcx
	movq	%rcx, 16(%rax)
.LBB127_3:
	movq	56(%rsp), %rax
	addq	$88, %rsp
	retq
	.seh_endproc

	.def	_ZN5alloc11collections5btree3mem7replace17h47cff1b9d85498f1E;
	.scl	3;
	.type	32;
	.endef
	.section	.text,"xr",one_only,_ZN5alloc11collections5btree3mem7replace17h47cff1b9d85498f1E
	.p2align	4, 0x90
_ZN5alloc11collections5btree3mem7replace17h47cff1b9d85498f1E:
.Lfunc_begin25:
.seh_proc _ZN5alloc11collections5btree3mem7replace17h47cff1b9d85498f1E
	.seh_handler __CxxFrameHandler3, @unwind, @except
	pushq	%rbp
	.seh_pushreg %rbp
	subq	$192, %rsp
	.seh_stackalloc 192
	leaq	128(%rsp), %rbp
	.seh_setframe %rbp, 128
	.seh_endprologue
	movq	$-2, 56(%rbp)
	movq	%rdx, -96(%rbp)
	movq	%rcx, -88(%rbp)
	movq	%rcx, -80(%rbp)
	movq	16(%rdx), %rax
	movq	%rax, -48(%rbp)
	vmovdqu	(%rdx), %xmm0
	vmovdqa	%xmm0, -64(%rbp)
	movq	-48(%rbp), %rax
	movq	%rax, 48(%rbp)
	vmovdqa	-64(%rbp), %xmm0
	vmovdqa	%xmm0, 32(%rbp)
.Ltmp102:
	leaq	-16(%rbp), %rcx
	leaq	32(%rbp), %rdx
	callq	_ZN5alloc11collections5btree8navigate263_$LT$impl$u20$alloc..collections..btree..node..Handle$LT$alloc..collections..btree..node..NodeRef$LT$alloc..collections..btree..node..marker..Dying$C$K$C$V$C$alloc..collections..btree..node..marker..Leaf$GT$$C$alloc..collections..btree..node..marker..Edge$GT$$GT$27deallocating_next_unchecked28_$u7b$$u7b$closure$u7d$$u7d$17h94f48b0e8bd94a8bE
.Ltmp103:
	jmp	.LBB128_2
.LBB128_2:
	movq	-80(%rbp), %rax
	movq	-96(%rbp), %rcx
	movq	-88(%rbp), %rdx
	movq	-16(%rbp), %r8
	movq	%r8, -40(%rbp)
	movq	-8(%rbp), %r8
	movq	%r8, -32(%rbp)
	movq	(%rbp), %r8
	movq	%r8, -24(%rbp)
	movq	8(%rbp), %r8
	movq	%r8, (%rdx)
	movq	16(%rbp), %r8
	movq	%r8, 8(%rdx)
	movq	24(%rbp), %r8
	movq	%r8, 16(%rdx)
	movq	-40(%rbp), %rdx
	movq	%rdx, (%rcx)
	movq	-32(%rbp), %rdx
	movq	%rdx, 8(%rcx)
	movq	-24(%rbp), %rdx
	movq	%rdx, 16(%rcx)
	addq	$192, %rsp
	popq	%rbp
	retq
	.seh_handlerdata
	.long	($cppxdata$_ZN5alloc11collections5btree3mem7replace17h47cff1b9d85498f1E)@IMGREL
	.section	.text,"xr",one_only,_ZN5alloc11collections5btree3mem7replace17h47cff1b9d85498f1E
	.seh_endproc
	.def	"?dtor$1@?0?_ZN5alloc11collections5btree3mem7replace17h47cff1b9d85498f1E@4HA";
	.scl	3;
	.type	32;
	.endef
	.p2align	4, 0x90
"?dtor$1@?0?_ZN5alloc11collections5btree3mem7replace17h47cff1b9d85498f1E@4HA":
.seh_proc "?dtor$1@?0?_ZN5alloc11collections5btree3mem7replace17h47cff1b9d85498f1E@4HA"
.LBB128_1:
	movq	%rdx, 16(%rsp)
	pushq	%rbp
	.seh_pushreg %rbp
	subq	$32, %rsp
	.seh_stackalloc 32
	leaq	128(%rdx), %rbp
	.seh_endprologue
	leaq	-65(%rbp), %rcx
	callq	_ZN4core3ptr72drop_in_place$LT$alloc..collections..btree..mem..replace..PanicGuard$GT$17h565372fa44a4b6c9E
	nop
	addq	$32, %rsp
	popq	%rbp
	retq
.Lfunc_end25:
	.seh_handlerdata
	.section	.text,"xr",one_only,_ZN5alloc11collections5btree3mem7replace17h47cff1b9d85498f1E
	.seh_endproc
	.section	.xdata,"dr",associative,_ZN5alloc11collections5btree3mem7replace17h47cff1b9d85498f1E
	.p2align	2, 0x0
$cppxdata$_ZN5alloc11collections5btree3mem7replace17h47cff1b9d85498f1E:
	.long	429065506
	.long	1
	.long	($stateUnwindMap$_ZN5alloc11collections5btree3mem7replace17h47cff1b9d85498f1E)@IMGREL
	.long	0
	.long	0
	.long	3
	.long	($ip2state$_ZN5alloc11collections5btree3mem7replace17h47cff1b9d85498f1E)@IMGREL
	.long	184
	.long	0
	.long	1
$stateUnwindMap$_ZN5alloc11collections5btree3mem7replace17h47cff1b9d85498f1E:
	.long	-1
	.long	"?dtor$1@?0?_ZN5alloc11collections5btree3mem7replace17h47cff1b9d85498f1E@4HA"@IMGREL
$ip2state$_ZN5alloc11collections5btree3mem7replace17h47cff1b9d85498f1E:
	.long	.Lfunc_begin25@IMGREL
	.long	-1
	.long	.Ltmp102@IMGREL+1
	.long	0
	.long	.Ltmp103@IMGREL+1
	.long	-1
	.section	.text,"xr",one_only,_ZN5alloc11collections5btree3mem7replace17h47cff1b9d85498f1E

	.def	_ZN5alloc11collections5btree3mem7replace17h877c2d04f608f4acE;
	.scl	3;
	.type	32;
	.endef
	.section	.text,"xr",one_only,_ZN5alloc11collections5btree3mem7replace17h877c2d04f608f4acE
	.p2align	4, 0x90
_ZN5alloc11collections5btree3mem7replace17h877c2d04f608f4acE:
.Lfunc_begin26:
.seh_proc _ZN5alloc11collections5btree3mem7replace17h877c2d04f608f4acE
	.seh_handler __CxxFrameHandler3, @unwind, @except
	pushq	%rbp
	.seh_pushreg %rbp
	subq	$192, %rsp
	.seh_stackalloc 192
	leaq	128(%rsp), %rbp
	.seh_setframe %rbp, 128
	.seh_endprologue
	movq	$-2, 56(%rbp)
	movq	%rdx, -96(%rbp)
	movq	%rcx, -88(%rbp)
	movq	%rcx, -80(%rbp)
	movq	16(%rdx), %rax
	movq	%rax, -48(%rbp)
	vmovdqu	(%rdx), %xmm0
	vmovdqa	%xmm0, -64(%rbp)
	movq	-48(%rbp), %rax
	movq	%rax, 48(%rbp)
	vmovdqa	-64(%rbp), %xmm0
	vmovdqa	%xmm0, 32(%rbp)
.Ltmp104:
	leaq	-16(%rbp), %rcx
	leaq	32(%rbp), %rdx
	callq	_ZN5alloc11collections5btree8navigate263_$LT$impl$u20$alloc..collections..btree..node..Handle$LT$alloc..collections..btree..node..NodeRef$LT$alloc..collections..btree..node..marker..Dying$C$K$C$V$C$alloc..collections..btree..node..marker..Leaf$GT$$C$alloc..collections..btree..node..marker..Edge$GT$$GT$27deallocating_next_unchecked28_$u7b$$u7b$closure$u7d$$u7d$17h546b8b16a827e7aeE
.Ltmp105:
	jmp	.LBB129_2
.LBB129_2:
	movq	-80(%rbp), %rax
	movq	-96(%rbp), %rcx
	movq	-88(%rbp), %rdx
	movq	-16(%rbp), %r8
	movq	%r8, -40(%rbp)
	movq	-8(%rbp), %r8
	movq	%r8, -32(%rbp)
	movq	(%rbp), %r8
	movq	%r8, -24(%rbp)
	movq	8(%rbp), %r8
	movq	%r8, (%rdx)
	movq	16(%rbp), %r8
	movq	%r8, 8(%rdx)
	movq	24(%rbp), %r8
	movq	%r8, 16(%rdx)
	movq	-40(%rbp), %rdx
	movq	%rdx, (%rcx)
	movq	-32(%rbp), %rdx
	movq	%rdx, 8(%rcx)
	movq	-24(%rbp), %rdx
	movq	%rdx, 16(%rcx)
	addq	$192, %rsp
	popq	%rbp
	retq
	.seh_handlerdata
	.long	($cppxdata$_ZN5alloc11collections5btree3mem7replace17h877c2d04f608f4acE)@IMGREL
	.section	.text,"xr",one_only,_ZN5alloc11collections5btree3mem7replace17h877c2d04f608f4acE
	.seh_endproc
	.def	"?dtor$1@?0?_ZN5alloc11collections5btree3mem7replace17h877c2d04f608f4acE@4HA";
	.scl	3;
	.type	32;
	.endef
	.p2align	4, 0x90
"?dtor$1@?0?_ZN5alloc11collections5btree3mem7replace17h877c2d04f608f4acE@4HA":
.seh_proc "?dtor$1@?0?_ZN5alloc11collections5btree3mem7replace17h877c2d04f608f4acE@4HA"
.LBB129_1:
	movq	%rdx, 16(%rsp)
	pushq	%rbp
	.seh_pushreg %rbp
	subq	$32, %rsp
	.seh_stackalloc 32
	leaq	128(%rdx), %rbp
	.seh_endprologue
	leaq	-65(%rbp), %rcx
	callq	_ZN4core3ptr72drop_in_place$LT$alloc..collections..btree..mem..replace..PanicGuard$GT$17h565372fa44a4b6c9E
	nop
	addq	$32, %rsp
	popq	%rbp
	retq
.Lfunc_end26:
	.seh_handlerdata
	.section	.text,"xr",one_only,_ZN5alloc11collections5btree3mem7replace17h877c2d04f608f4acE
	.seh_endproc
	.section	.xdata,"dr",associative,_ZN5alloc11collections5btree3mem7replace17h877c2d04f608f4acE
	.p2align	2, 0x0
$cppxdata$_ZN5alloc11collections5btree3mem7replace17h877c2d04f608f4acE:
	.long	429065506
	.long	1
	.long	($stateUnwindMap$_ZN5alloc11collections5btree3mem7replace17h877c2d04f608f4acE)@IMGREL
	.long	0
	.long	0
	.long	3
	.long	($ip2state$_ZN5alloc11collections5btree3mem7replace17h877c2d04f608f4acE)@IMGREL
	.long	184
	.long	0
	.long	1
$stateUnwindMap$_ZN5alloc11collections5btree3mem7replace17h877c2d04f608f4acE:
	.long	-1
	.long	"?dtor$1@?0?_ZN5alloc11collections5btree3mem7replace17h877c2d04f608f4acE@4HA"@IMGREL
$ip2state$_ZN5alloc11collections5btree3mem7replace17h877c2d04f608f4acE:
	.long	.Lfunc_begin26@IMGREL
	.long	-1
	.long	.Ltmp104@IMGREL+1
	.long	0
	.long	.Ltmp105@IMGREL+1
	.long	-1
	.section	.text,"xr",one_only,_ZN5alloc11collections5btree3mem7replace17h877c2d04f608f4acE

	.def	_ZN5alloc11collections5btree4node127NodeRef$LT$alloc..collections..btree..node..marker..Dying$C$K$C$V$C$alloc..collections..btree..node..marker..LeafOrInternal$GT$21deallocate_and_ascend17h545b4d0879bd1eacE;
	.scl	3;
	.type	32;
	.endef
	.section	.text,"xr",one_only,_ZN5alloc11collections5btree4node127NodeRef$LT$alloc..collections..btree..node..marker..Dying$C$K$C$V$C$alloc..collections..btree..node..marker..LeafOrInternal$GT$21deallocate_and_ascend17h545b4d0879bd1eacE
	.p2align	4, 0x90
_ZN5alloc11collections5btree4node127NodeRef$LT$alloc..collections..btree..node..marker..Dying$C$K$C$V$C$alloc..collections..btree..node..marker..LeafOrInternal$GT$21deallocate_and_ascend17h545b4d0879bd1eacE:
.Lfunc_begin27:
.seh_proc _ZN5alloc11collections5btree4node127NodeRef$LT$alloc..collections..btree..node..marker..Dying$C$K$C$V$C$alloc..collections..btree..node..marker..LeafOrInternal$GT$21deallocate_and_ascend17h545b4d0879bd1eacE
	.seh_handler __CxxFrameHandler3, @unwind, @except
	pushq	%rbp
	.seh_pushreg %rbp
	subq	$176, %rsp
	.seh_stackalloc 176
	leaq	128(%rsp), %rbp
	.seh_setframe %rbp, 128
	.seh_endprologue
	movq	$-2, 40(%rbp)
	movq	%r8, -96(%rbp)
	movq	%rdx, -88(%rbp)
	movq	%rcx, -80(%rbp)
	movq	%rcx, -72(%rbp)
.Ltmp106:
	leaq	-32(%rbp), %rcx
	callq	_ZN5alloc11collections5btree4node40NodeRef$LT$BorrowType$C$K$C$V$C$Type$GT$6ascend17h27d6894fe735b29aE
.Ltmp107:
	jmp	.LBB130_2
.LBB130_2:
	movq	-32(%rbp), %rdx
	xorl	%eax, %eax
	movl	$1, %ecx
	cmpq	$0, %rdx
	cmoveq	%rcx, %rax
	cmpq	$0, %rax
	jne	.LBB130_4
	movq	-32(%rbp), %rax
	movq	%rax, 16(%rbp)
	movq	-24(%rbp), %rax
	movq	%rax, 24(%rbp)
	movq	-16(%rbp), %rax
	movq	%rax, 32(%rbp)
	movq	16(%rbp), %rax
	movq	%rax, -56(%rbp)
	movq	24(%rbp), %rax
	movq	%rax, -48(%rbp)
	movq	32(%rbp), %rax
	movq	%rax, -40(%rbp)
	jmp	.LBB130_5
.LBB130_4:
	movq	$0, -56(%rbp)
.LBB130_5:
	movq	-96(%rbp), %rax
	movq	-88(%rbp), %rcx
	movq	%rcx, -8(%rbp)
	cmpq	$0, %rax
	ja	.LBB130_7
	movq	$984, 8(%rbp)
	movq	$8, (%rbp)
	jmp	.LBB130_8
.LBB130_7:
	movq	$1080, 8(%rbp)
	movq	$8, (%rbp)
.LBB130_8:
	movq	-8(%rbp), %rdx
	movq	(%rbp), %r8
	movq	8(%rbp), %r9
.Ltmp108:
	leaq	-57(%rbp), %rcx
	callq	_ZN63_$LT$alloc..alloc..Global$u20$as$u20$core..alloc..Allocator$GT$10deallocate17hc16c64ece4fd9e3fE
.Ltmp109:
	jmp	.LBB130_9
.LBB130_9:
	movq	-72(%rbp), %rax
	movq	-80(%rbp), %rcx
	movq	-56(%rbp), %rdx
	movq	%rdx, (%rcx)
	movq	-48(%rbp), %rdx
	movq	%rdx, 8(%rcx)
	movq	-40(%rbp), %rdx
	movq	%rdx, 16(%rcx)
	addq	$176, %rsp
	popq	%rbp
	retq
	.seh_handlerdata
	.long	($cppxdata$_ZN5alloc11collections5btree4node127NodeRef$LT$alloc..collections..btree..node..marker..Dying$C$K$C$V$C$alloc..collections..btree..node..marker..LeafOrInternal$GT$21deallocate_and_ascend17h545b4d0879bd1eacE)@IMGREL
	.section	.text,"xr",one_only,_ZN5alloc11collections5btree4node127NodeRef$LT$alloc..collections..btree..node..marker..Dying$C$K$C$V$C$alloc..collections..btree..node..marker..LeafOrInternal$GT$21deallocate_and_ascend17h545b4d0879bd1eacE
	.seh_endproc
	.def	"?dtor$1@?0?_ZN5alloc11collections5btree4node127NodeRef$LT$alloc..collections..btree..node..marker..Dying$C$K$C$V$C$alloc..collections..btree..node..marker..LeafOrInternal$GT$21deallocate_and_ascend17h545b4d0879bd1eacE@4HA";
	.scl	3;
	.type	32;
	.endef
	.p2align	4, 0x90
"?dtor$1@?0?_ZN5alloc11collections5btree4node127NodeRef$LT$alloc..collections..btree..node..marker..Dying$C$K$C$V$C$alloc..collections..btree..node..marker..LeafOrInternal$GT$21deallocate_and_ascend17h545b4d0879bd1eacE@4HA":
.seh_proc "?dtor$1@?0?_ZN5alloc11collections5btree4node127NodeRef$LT$alloc..collections..btree..node..marker..Dying$C$K$C$V$C$alloc..collections..btree..node..marker..LeafOrInternal$GT$21deallocate_and_ascend17h545b4d0879bd1eacE@4HA"
.LBB130_1:
	movq	%rdx, 16(%rsp)
	pushq	%rbp
	.seh_pushreg %rbp
	subq	$32, %rsp
	.seh_stackalloc 32
	leaq	128(%rdx), %rbp
	.seh_endprologue
	addq	$32, %rsp
	popq	%rbp
	retq
.Lfunc_end27:
	.seh_handlerdata
	.section	.text,"xr",one_only,_ZN5alloc11collections5btree4node127NodeRef$LT$alloc..collections..btree..node..marker..Dying$C$K$C$V$C$alloc..collections..btree..node..marker..LeafOrInternal$GT$21deallocate_and_ascend17h545b4d0879bd1eacE
	.seh_endproc
	.section	.xdata,"dr",associative,_ZN5alloc11collections5btree4node127NodeRef$LT$alloc..collections..btree..node..marker..Dying$C$K$C$V$C$alloc..collections..btree..node..marker..LeafOrInternal$GT$21deallocate_and_ascend17h545b4d0879bd1eacE
	.p2align	2, 0x0
$cppxdata$_ZN5alloc11collections5btree4node127NodeRef$LT$alloc..collections..btree..node..marker..Dying$C$K$C$V$C$alloc..collections..btree..node..marker..LeafOrInternal$GT$21deallocate_and_ascend17h545b4d0879bd1eacE:
	.long	429065506
	.long	1
	.long	($stateUnwindMap$_ZN5alloc11collections5btree4node127NodeRef$LT$alloc..collections..btree..node..marker..Dying$C$K$C$V$C$alloc..collections..btree..node..marker..LeafOrInternal$GT$21deallocate_and_ascend17h545b4d0879bd1eacE)@IMGREL
	.long	0
	.long	0
	.long	3
	.long	($ip2state$_ZN5alloc11collections5btree4node127NodeRef$LT$alloc..collections..btree..node..marker..Dying$C$K$C$V$C$alloc..collections..btree..node..marker..LeafOrInternal$GT$21deallocate_and_ascend17h545b4d0879bd1eacE)@IMGREL
	.long	168
	.long	0
	.long	1
$stateUnwindMap$_ZN5alloc11collections5btree4node127NodeRef$LT$alloc..collections..btree..node..marker..Dying$C$K$C$V$C$alloc..collections..btree..node..marker..LeafOrInternal$GT$21deallocate_and_ascend17h545b4d0879bd1eacE:
	.long	-1
	.long	"?dtor$1@?0?_ZN5alloc11collections5btree4node127NodeRef$LT$alloc..collections..btree..node..marker..Dying$C$K$C$V$C$alloc..collections..btree..node..marker..LeafOrInternal$GT$21deallocate_and_ascend17h545b4d0879bd1eacE@4HA"@IMGREL
$ip2state$_ZN5alloc11collections5btree4node127NodeRef$LT$alloc..collections..btree..node..marker..Dying$C$K$C$V$C$alloc..collections..btree..node..marker..LeafOrInternal$GT$21deallocate_and_ascend17h545b4d0879bd1eacE:
	.long	.Lfunc_begin27@IMGREL
	.long	-1
	.long	.Ltmp106@IMGREL+1
	.long	0
	.long	.Ltmp109@IMGREL+1
	.long	-1
	.section	.text,"xr",one_only,_ZN5alloc11collections5btree4node127NodeRef$LT$alloc..collections..btree..node..marker..Dying$C$K$C$V$C$alloc..collections..btree..node..marker..LeafOrInternal$GT$21deallocate_and_ascend17h545b4d0879bd1eacE

	.def	_ZN5alloc11collections5btree4node127NodeRef$LT$alloc..collections..btree..node..marker..Dying$C$K$C$V$C$alloc..collections..btree..node..marker..LeafOrInternal$GT$21deallocate_and_ascend17hf71f00b95a935415E;
	.scl	3;
	.type	32;
	.endef
	.section	.text,"xr",one_only,_ZN5alloc11collections5btree4node127NodeRef$LT$alloc..collections..btree..node..marker..Dying$C$K$C$V$C$alloc..collections..btree..node..marker..LeafOrInternal$GT$21deallocate_and_ascend17hf71f00b95a935415E
	.p2align	4, 0x90
_ZN5alloc11collections5btree4node127NodeRef$LT$alloc..collections..btree..node..marker..Dying$C$K$C$V$C$alloc..collections..btree..node..marker..LeafOrInternal$GT$21deallocate_and_ascend17hf71f00b95a935415E:
.Lfunc_begin28:
.seh_proc _ZN5alloc11collections5btree4node127NodeRef$LT$alloc..collections..btree..node..marker..Dying$C$K$C$V$C$alloc..collections..btree..node..marker..LeafOrInternal$GT$21deallocate_and_ascend17hf71f00b95a935415E
	.seh_handler __CxxFrameHandler3, @unwind, @except
	pushq	%rbp
	.seh_pushreg %rbp
	subq	$176, %rsp
	.seh_stackalloc 176
	leaq	128(%rsp), %rbp
	.seh_setframe %rbp, 128
	.seh_endprologue
	movq	$-2, 40(%rbp)
	movq	%r8, -96(%rbp)
	movq	%rdx, -88(%rbp)
	movq	%rcx, -80(%rbp)
	movq	%rcx, -72(%rbp)
.Ltmp110:
	leaq	-32(%rbp), %rcx
	callq	_ZN5alloc11collections5btree4node40NodeRef$LT$BorrowType$C$K$C$V$C$Type$GT$6ascend17hc78a37997182d829E
.Ltmp111:
	jmp	.LBB131_2
.LBB131_2:
	movq	-32(%rbp), %rdx
	xorl	%eax, %eax
	movl	$1, %ecx
	cmpq	$0, %rdx
	cmoveq	%rcx, %rax
	cmpq	$0, %rax
	jne	.LBB131_4
	movq	-32(%rbp), %rax
	movq	%rax, 16(%rbp)
	movq	-24(%rbp), %rax
	movq	%rax, 24(%rbp)
	movq	-16(%rbp), %rax
	movq	%rax, 32(%rbp)
	movq	16(%rbp), %rax
	movq	%rax, -56(%rbp)
	movq	24(%rbp), %rax
	movq	%rax, -48(%rbp)
	movq	32(%rbp), %rax
	movq	%rax, -40(%rbp)
	jmp	.LBB131_5
.LBB131_4:
	movq	$0, -56(%rbp)
.LBB131_5:
	movq	-96(%rbp), %rax
	movq	-88(%rbp), %rcx
	movq	%rcx, -8(%rbp)
	cmpq	$0, %rax
	ja	.LBB131_7
	movq	$368, 8(%rbp)
	movq	$8, (%rbp)
	jmp	.LBB131_8
.LBB131_7:
	movq	$464, 8(%rbp)
	movq	$8, (%rbp)
.LBB131_8:
	movq	-8(%rbp), %rdx
	movq	(%rbp), %r8
	movq	8(%rbp), %r9
.Ltmp112:
	leaq	-57(%rbp), %rcx
	callq	_ZN63_$LT$alloc..alloc..Global$u20$as$u20$core..alloc..Allocator$GT$10deallocate17hc16c64ece4fd9e3fE
.Ltmp113:
	jmp	.LBB131_9
.LBB131_9:
	movq	-72(%rbp), %rax
	movq	-80(%rbp), %rcx
	movq	-56(%rbp), %rdx
	movq	%rdx, (%rcx)
	movq	-48(%rbp), %rdx
	movq	%rdx, 8(%rcx)
	movq	-40(%rbp), %rdx
	movq	%rdx, 16(%rcx)
	addq	$176, %rsp
	popq	%rbp
	retq
	.seh_handlerdata
	.long	($cppxdata$_ZN5alloc11collections5btree4node127NodeRef$LT$alloc..collections..btree..node..marker..Dying$C$K$C$V$C$alloc..collections..btree..node..marker..LeafOrInternal$GT$21deallocate_and_ascend17hf71f00b95a935415E)@IMGREL
	.section	.text,"xr",one_only,_ZN5alloc11collections5btree4node127NodeRef$LT$alloc..collections..btree..node..marker..Dying$C$K$C$V$C$alloc..collections..btree..node..marker..LeafOrInternal$GT$21deallocate_and_ascend17hf71f00b95a935415E
	.seh_endproc
	.def	"?dtor$1@?0?_ZN5alloc11collections5btree4node127NodeRef$LT$alloc..collections..btree..node..marker..Dying$C$K$C$V$C$alloc..collections..btree..node..marker..LeafOrInternal$GT$21deallocate_and_ascend17hf71f00b95a935415E@4HA";
	.scl	3;
	.type	32;
	.endef
	.p2align	4, 0x90
"?dtor$1@?0?_ZN5alloc11collections5btree4node127NodeRef$LT$alloc..collections..btree..node..marker..Dying$C$K$C$V$C$alloc..collections..btree..node..marker..LeafOrInternal$GT$21deallocate_and_ascend17hf71f00b95a935415E@4HA":
.seh_proc "?dtor$1@?0?_ZN5alloc11collections5btree4node127NodeRef$LT$alloc..collections..btree..node..marker..Dying$C$K$C$V$C$alloc..collections..btree..node..marker..LeafOrInternal$GT$21deallocate_and_ascend17hf71f00b95a935415E@4HA"
.LBB131_1:
	movq	%rdx, 16(%rsp)
	pushq	%rbp
	.seh_pushreg %rbp
	subq	$32, %rsp
	.seh_stackalloc 32
	leaq	128(%rdx), %rbp
	.seh_endprologue
	addq	$32, %rsp
	popq	%rbp
	retq
.Lfunc_end28:
	.seh_handlerdata
	.section	.text,"xr",one_only,_ZN5alloc11collections5btree4node127NodeRef$LT$alloc..collections..btree..node..marker..Dying$C$K$C$V$C$alloc..collections..btree..node..marker..LeafOrInternal$GT$21deallocate_and_ascend17hf71f00b95a935415E
	.seh_endproc
	.section	.xdata,"dr",associative,_ZN5alloc11collections5btree4node127NodeRef$LT$alloc..collections..btree..node..marker..Dying$C$K$C$V$C$alloc..collections..btree..node..marker..LeafOrInternal$GT$21deallocate_and_ascend17hf71f00b95a935415E
	.p2align	2, 0x0
$cppxdata$_ZN5alloc11collections5btree4node127NodeRef$LT$alloc..collections..btree..node..marker..Dying$C$K$C$V$C$alloc..collections..btree..node..marker..LeafOrInternal$GT$21deallocate_and_ascend17hf71f00b95a935415E:
	.long	429065506
	.long	1
	.long	($stateUnwindMap$_ZN5alloc11collections5btree4node127NodeRef$LT$alloc..collections..btree..node..marker..Dying$C$K$C$V$C$alloc..collections..btree..node..marker..LeafOrInternal$GT$21deallocate_and_ascend17hf71f00b95a935415E)@IMGREL
	.long	0
	.long	0
	.long	3
	.long	($ip2state$_ZN5alloc11collections5btree4node127NodeRef$LT$alloc..collections..btree..node..marker..Dying$C$K$C$V$C$alloc..collections..btree..node..marker..LeafOrInternal$GT$21deallocate_and_ascend17hf71f00b95a935415E)@IMGREL
	.long	168
	.long	0
	.long	1
$stateUnwindMap$_ZN5alloc11collections5btree4node127NodeRef$LT$alloc..collections..btree..node..marker..Dying$C$K$C$V$C$alloc..collections..btree..node..marker..LeafOrInternal$GT$21deallocate_and_ascend17hf71f00b95a935415E:
	.long	-1
	.long	"?dtor$1@?0?_ZN5alloc11collections5btree4node127NodeRef$LT$alloc..collections..btree..node..marker..Dying$C$K$C$V$C$alloc..collections..btree..node..marker..LeafOrInternal$GT$21deallocate_and_ascend17hf71f00b95a935415E@4HA"@IMGREL
