	.text
	.def	@feat.00;
	.scl	3;
	.type	0;
	.endef
	.globl	@feat.00
.set @feat.00, 0
	.file	"build_script_build.51eb9b26-cgu.0"
	.def	_ZN4core3ops8function6FnOnce40call_once$u7b$$u7b$vtable.shim$u7d$$u7d$17he24cb58ec5f449deE;
	.scl	3;
	.type	32;
	.endef
	.section	.text,"xr",one_only,_ZN4core3ops8function6FnOnce40call_once$u7b$$u7b$vtable.shim$u7d$$u7d$17he24cb58ec5f449deE
	.p2align	4, 0x90
_ZN4core3ops8function6FnOnce40call_once$u7b$$u7b$vtable.shim$u7d$$u7d$17he24cb58ec5f449deE:
.Lfunc_begin0:
	.cv_func_id 0
	.cv_file	1 "/rustc/7737e0b5c4103216d6fd8cf941b7ab9bdbaace7c\\library\\core\\src\\ops\\function.rs" "9BEA7362FFF50BBE301170918847D3CA3912A24A" 2
	.cv_loc	0 1 227 0
.seh_proc _ZN4core3ops8function6FnOnce40call_once$u7b$$u7b$vtable.shim$u7d$$u7d$17he24cb58ec5f449deE
	subq	$56, %rsp
	.seh_stackalloc 56
	.seh_endprologue
	movq	%rcx, 48(%rsp)
.Ltmp0:
	movq	(%rcx), %rcx
	callq	_ZN4core3ops8function6FnOnce9call_once17h5a4de63c1d6f8e54E
	movl	%eax, 36(%rsp)
	movl	36(%rsp), %eax
	addq	$56, %rsp
	retq
.Ltmp1:
.Lfunc_end0:
	.seh_endproc

	.def	_ZN4core3ops8function6FnOnce9call_once17h5a4de63c1d6f8e54E;
	.scl	3;
	.type	32;
	.endef
	.section	.text,"xr",one_only,_ZN4core3ops8function6FnOnce9call_once17h5a4de63c1d6f8e54E
	.p2align	4, 0x90
_ZN4core3ops8function6FnOnce9call_once17h5a4de63c1d6f8e54E:
.Lfunc_begin1:
	.cv_func_id 1
	.cv_loc	1 1 227 0
.seh_proc _ZN4core3ops8function6FnOnce9call_once17h5a4de63c1d6f8e54E
	.seh_handler __CxxFrameHandler3, @unwind, @except
	pushq	%rbp
	.seh_pushreg %rbp
	subq	$64, %rsp
	.seh_stackalloc 64
	leaq	64(%rsp), %rbp
	.seh_setframe %rbp, 64
	.seh_endprologue
	movq	$-2, -8(%rbp)
	movq	%rcx, -16(%rbp)
.Ltmp2:
	leaq	-16(%rbp), %rcx
.Ltmp4:
	callq	_ZN3std2rt10lang_start28_$u7b$$u7b$closure$u7d$$u7d$17h6317a4c4f35f2407E
.Ltmp3:
	movl	%eax, -20(%rbp)
	jmp	.LBB1_1
.LBB1_1:
	movl	-20(%rbp), %eax
	addq	$64, %rsp
	popq	%rbp
	retq
	.seh_handlerdata
	.long	($cppxdata$_ZN4core3ops8function6FnOnce9call_once17h5a4de63c1d6f8e54E)@IMGREL
	.section	.text,"xr",one_only,_ZN4core3ops8function6FnOnce9call_once17h5a4de63c1d6f8e54E
	.seh_endproc
	.def	"?dtor$2@?0?_ZN4core3ops8function6FnOnce9call_once17h5a4de63c1d6f8e54E@4HA";
	.scl	3;
	.type	32;
	.endef
	.p2align	4, 0x90
"?dtor$2@?0?_ZN4core3ops8function6FnOnce9call_once17h5a4de63c1d6f8e54E@4HA":
.seh_proc "?dtor$2@?0?_ZN4core3ops8function6FnOnce9call_once17h5a4de63c1d6f8e54E@4HA"
.LBB1_2:
	movq	%rdx, 16(%rsp)
	pushq	%rbp
	.seh_pushreg %rbp
	subq	$32, %rsp
	.seh_stackalloc 32
	leaq	64(%rdx), %rbp
	.seh_endprologue
	addq	$32, %rsp
	popq	%rbp
	retq
.Ltmp5:
.Lfunc_end1:
	.seh_handlerdata
	.section	.text,"xr",one_only,_ZN4core3ops8function6FnOnce9call_once17h5a4de63c1d6f8e54E
	.seh_endproc
	.section	.xdata,"dr",associative,_ZN4core3ops8function6FnOnce9call_once17h5a4de63c1d6f8e54E
	.p2align	2
$cppxdata$_ZN4core3ops8function6FnOnce9call_once17h5a4de63c1d6f8e54E:
	.long	429065506
	.long	1
	.long	($stateUnwindMap$_ZN4core3ops8function6FnOnce9call_once17h5a4de63c1d6f8e54E)@IMGREL
	.long	0
	.long	0
	.long	3
	.long	($ip2state$_ZN4core3ops8function6FnOnce9call_once17h5a4de63c1d6f8e54E)@IMGREL
	.long	56
	.long	0
	.long	1
$stateUnwindMap$_ZN4core3ops8function6FnOnce9call_once17h5a4de63c1d6f8e54E:
	.long	-1
	.long	"?dtor$2@?0?_ZN4core3ops8function6FnOnce9call_once17h5a4de63c1d6f8e54E@4HA"@IMGREL
$ip2state$_ZN4core3ops8function6FnOnce9call_once17h5a4de63c1d6f8e54E:
	.long	.Lfunc_begin1@IMGREL
	.long	-1
	.long	.Ltmp2@IMGREL+1
	.long	0
	.long	.Ltmp3@IMGREL+1
	.long	-1
	.section	.text,"xr",one_only,_ZN4core3ops8function6FnOnce9call_once17h5a4de63c1d6f8e54E

	.def	_ZN4core3ops8function6FnOnce9call_once17h818a0fa8f00cdfa7E;
	.scl	3;
	.type	32;
	.endef
	.section	.text,"xr",one_only,_ZN4core3ops8function6FnOnce9call_once17h818a0fa8f00cdfa7E
	.p2align	4, 0x90
_ZN4core3ops8function6FnOnce9call_once17h818a0fa8f00cdfa7E:
.Lfunc_begin2:
	.cv_func_id 2
	.cv_loc	2 1 227 0
.seh_proc _ZN4core3ops8function6FnOnce9call_once17h818a0fa8f00cdfa7E
	subq	$72, %rsp
	.seh_stackalloc 72
	.seh_endprologue
	movq	%rcx, 48(%rsp)
	movq	%rdx, 56(%rsp)
.Ltmp6:
	movq	48(%rsp), %rcx
	movq	56(%rsp), %rdx
	callq	_ZN4core3cmp5impls50_$LT$impl$u20$core..cmp..Ord$u20$for$u20$usize$GT$3cmp17h931c23f9f9758820E
	movb	%al, 47(%rsp)
	movb	47(%rsp), %al
	addq	$72, %rsp
	retq
.Ltmp7:
.Lfunc_end2:
	.seh_endproc

	.def	_ZN4core3ops8function6FnOnce9call_once17h8c4f44f67908dc2fE;
	.scl	3;
	.type	32;
	.endef
	.section	.text,"xr",one_only,_ZN4core3ops8function6FnOnce9call_once17h8c4f44f67908dc2fE
	.p2align	4, 0x90
_ZN4core3ops8function6FnOnce9call_once17h8c4f44f67908dc2fE:
.Lfunc_begin3:
	.cv_func_id 3
	.cv_loc	3 1 227 0
.seh_proc _ZN4core3ops8function6FnOnce9call_once17h8c4f44f67908dc2fE
	subq	$56, %rsp
	.seh_stackalloc 56
	.seh_endprologue
	movq	%rcx, 48(%rsp)
.Ltmp8:
	callq	*%rcx
	nop
	addq	$56, %rsp
	retq
.Ltmp9:
.Lfunc_end3:
	.seh_endproc

	.def	_ZN4core3ptr101drop_in_place$LT$std..io..error..ErrorData$LT$alloc..boxed..Box$LT$std..io..error..Custom$GT$$GT$$GT$17haa7c33229e870ce5E;
	.scl	3;
	.type	32;
	.endef
	.section	.text,"xr",one_only,_ZN4core3ptr101drop_in_place$LT$std..io..error..ErrorData$LT$alloc..boxed..Box$LT$std..io..error..Custom$GT$$GT$$GT$17haa7c33229e870ce5E
	.p2align	4, 0x90
_ZN4core3ptr101drop_in_place$LT$std..io..error..ErrorData$LT$alloc..boxed..Box$LT$std..io..error..Custom$GT$$GT$$GT$17haa7c33229e870ce5E:
.Lfunc_begin4:
	.cv_func_id 4
	.cv_file	2 "/rustc/7737e0b5c4103216d6fd8cf941b7ab9bdbaace7c\\library\\core\\src\\ptr\\mod.rs" "F72F4549B954F891AA6C07064A899D3B597DE310" 2
	.cv_loc	4 2 188 0
.seh_proc _ZN4core3ptr101drop_in_place$LT$std..io..error..ErrorData$LT$alloc..boxed..Box$LT$std..io..error..Custom$GT$$GT$$GT$17haa7c33229e870ce5E
	subq	$56, %rsp
	.seh_stackalloc 56
	.seh_endprologue
	movq	%rcx, 40(%rsp)
	movq	%rcx, 48(%rsp)
.Ltmp10:
	movb	(%rcx), %al
	subb	$3, %al
	jb	.LBB4_2
	jmp	.LBB4_1
.LBB4_1:
	movq	40(%rsp), %rcx
	addq	$8, %rcx
	callq	_ZN4core3ptr68drop_in_place$LT$alloc..boxed..Box$LT$std..io..error..Custom$GT$$GT$17hae43f0fc4164c9a5E
.LBB4_2:
	nop
	addq	$56, %rsp
	retq
.Ltmp11:
.Lfunc_end4:
	.seh_endproc

	.def	_ZN4core3ptr117drop_in_place$LT$alloc..boxed..Box$LT$dyn$u20$std..error..Error$u2b$core..marker..Send$u2b$core..marker..Sync$GT$$GT$17hc0c2db6162e448cbE;
	.scl	3;
	.type	32;
	.endef
	.section	.text,"xr",one_only,_ZN4core3ptr117drop_in_place$LT$alloc..boxed..Box$LT$dyn$u20$std..error..Error$u2b$core..marker..Send$u2b$core..marker..Sync$GT$$GT$17hc0c2db6162e448cbE
	.p2align	4, 0x90
_ZN4core3ptr117drop_in_place$LT$alloc..boxed..Box$LT$dyn$u20$std..error..Error$u2b$core..marker..Send$u2b$core..marker..Sync$GT$$GT$17hc0c2db6162e448cbE:
.Lfunc_begin5:
	.cv_func_id 5
	.cv_loc	5 2 188 0
.seh_proc _ZN4core3ptr117drop_in_place$LT$alloc..boxed..Box$LT$dyn$u20$std..error..Error$u2b$core..marker..Send$u2b$core..marker..Sync$GT$$GT$17hc0c2db6162e448cbE
	.seh_handler __CxxFrameHandler3, @unwind, @except
	pushq	%rbp
	.seh_pushreg %rbp
	subq	$64, %rsp
	.seh_stackalloc 64
	leaq	64(%rsp), %rbp
	.seh_setframe %rbp, 64
	.seh_endprologue
	movq	$-2, -8(%rbp)
	movq	%rcx, %rax
	movq	%rax, -24(%rbp)
	movq	%rax, -16(%rbp)
.Ltmp14:
	movq	(%rax), %rcx
	movq	8(%rax), %rax
	movq	(%rax), %rax
.Ltmp12:
	callq	*%rax
.Ltmp13:
	jmp	.LBB5_1
.LBB5_1:
	movq	-24(%rbp), %rax
	movq	(%rax), %rcx
	movq	8(%rax), %rdx
	callq	_ZN5alloc5alloc8box_free17h2de1823e7063d6bdE
	nop
	addq	$64, %rsp
	popq	%rbp
	retq
	.seh_handlerdata
	.long	($cppxdata$_ZN4core3ptr117drop_in_place$LT$alloc..boxed..Box$LT$dyn$u20$std..error..Error$u2b$core..marker..Send$u2b$core..marker..Sync$GT$$GT$17hc0c2db6162e448cbE)@IMGREL
	.section	.text,"xr",one_only,_ZN4core3ptr117drop_in_place$LT$alloc..boxed..Box$LT$dyn$u20$std..error..Error$u2b$core..marker..Send$u2b$core..marker..Sync$GT$$GT$17hc0c2db6162e448cbE
	.seh_endproc
	.def	"?dtor$2@?0?_ZN4core3ptr117drop_in_place$LT$alloc..boxed..Box$LT$dyn$u20$std..error..Error$u2b$core..marker..Send$u2b$core..marker..Sync$GT$$GT$17hc0c2db6162e448cbE@4HA";
	.scl	3;
	.type	32;
	.endef
	.p2align	4, 0x90
"?dtor$2@?0?_ZN4core3ptr117drop_in_place$LT$alloc..boxed..Box$LT$dyn$u20$std..error..Error$u2b$core..marker..Send$u2b$core..marker..Sync$GT$$GT$17hc0c2db6162e448cbE@4HA":
.seh_proc "?dtor$2@?0?_ZN4core3ptr117drop_in_place$LT$alloc..boxed..Box$LT$dyn$u20$std..error..Error$u2b$core..marker..Send$u2b$core..marker..Sync$GT$$GT$17hc0c2db6162e448cbE@4HA"
.LBB5_2:
	movq	%rdx, 16(%rsp)
	pushq	%rbp
	.seh_pushreg %rbp
	subq	$32, %rsp
	.seh_stackalloc 32
	leaq	64(%rdx), %rbp
	.seh_endprologue
	movq	-24(%rbp), %rax
	movq	(%rax), %rcx
	movq	8(%rax), %rdx
	callq	_ZN5alloc5alloc8box_free17h2de1823e7063d6bdE
	nop
	addq	$32, %rsp
	popq	%rbp
	retq
.Ltmp15:
.Lfunc_end5:
	.seh_handlerdata
	.section	.text,"xr",one_only,_ZN4core3ptr117drop_in_place$LT$alloc..boxed..Box$LT$dyn$u20$std..error..Error$u2b$core..marker..Send$u2b$core..marker..Sync$GT$$GT$17hc0c2db6162e448cbE
	.seh_endproc
	.section	.xdata,"dr",associative,_ZN4core3ptr117drop_in_place$LT$alloc..boxed..Box$LT$dyn$u20$std..error..Error$u2b$core..marker..Send$u2b$core..marker..Sync$GT$$GT$17hc0c2db6162e448cbE
	.p2align	2
$cppxdata$_ZN4core3ptr117drop_in_place$LT$alloc..boxed..Box$LT$dyn$u20$std..error..Error$u2b$core..marker..Send$u2b$core..marker..Sync$GT$$GT$17hc0c2db6162e448cbE:
	.long	429065506
	.long	1
	.long	($stateUnwindMap$_ZN4core3ptr117drop_in_place$LT$alloc..boxed..Box$LT$dyn$u20$std..error..Error$u2b$core..marker..Send$u2b$core..marker..Sync$GT$$GT$17hc0c2db6162e448cbE)@IMGREL
	.long	0
	.long	0
	.long	3
	.long	($ip2state$_ZN4core3ptr117drop_in_place$LT$alloc..boxed..Box$LT$dyn$u20$std..error..Error$u2b$core..marker..Send$u2b$core..marker..Sync$GT$$GT$17hc0c2db6162e448cbE)@IMGREL
	.long	56
	.long	0
	.long	1
$stateUnwindMap$_ZN4core3ptr117drop_in_place$LT$alloc..boxed..Box$LT$dyn$u20$std..error..Error$u2b$core..marker..Send$u2b$core..marker..Sync$GT$$GT$17hc0c2db6162e448cbE:
	.long	-1
	.long	"?dtor$2@?0?_ZN4core3ptr117drop_in_place$LT$alloc..boxed..Box$LT$dyn$u20$std..error..Error$u2b$core..marker..Send$u2b$core..marker..Sync$GT$$GT$17hc0c2db6162e448cbE@4HA"@IMGREL
$ip2state$_ZN4core3ptr117drop_in_place$LT$alloc..boxed..Box$LT$dyn$u20$std..error..Error$u2b$core..marker..Send$u2b$core..marker..Sync$GT$$GT$17hc0c2db6162e448cbE:
	.long	.Lfunc_begin5@IMGREL
	.long	-1
	.long	.Ltmp12@IMGREL+1
	.long	0
	.long	.Ltmp13@IMGREL+1
	.long	-1
	.section	.text,"xr",one_only,_ZN4core3ptr117drop_in_place$LT$alloc..boxed..Box$LT$dyn$u20$std..error..Error$u2b$core..marker..Send$u2b$core..marker..Sync$GT$$GT$17hc0c2db6162e448cbE

	.def	_ZN4core3ptr160drop_in_place$LT$alloc..collections..btree..map..BTreeMap$LT$std..sys..windows..process..EnvKey$C$core..option..Option$LT$std..ffi..os_str..OsString$GT$$GT$$GT$17h8692cbbb53525508E;
	.scl	3;
	.type	32;
	.endef
	.section	.text,"xr",one_only,_ZN4core3ptr160drop_in_place$LT$alloc..collections..btree..map..BTreeMap$LT$std..sys..windows..process..EnvKey$C$core..option..Option$LT$std..ffi..os_str..OsString$GT$$GT$$GT$17h8692cbbb53525508E
	.p2align	4, 0x90
_ZN4core3ptr160drop_in_place$LT$alloc..collections..btree..map..BTreeMap$LT$std..sys..windows..process..EnvKey$C$core..option..Option$LT$std..ffi..os_str..OsString$GT$$GT$$GT$17h8692cbbb53525508E:
.Lfunc_begin6:
	.cv_func_id 6
	.cv_loc	6 2 188 0
.seh_proc _ZN4core3ptr160drop_in_place$LT$alloc..collections..btree..map..BTreeMap$LT$std..sys..windows..process..EnvKey$C$core..option..Option$LT$std..ffi..os_str..OsString$GT$$GT$$GT$17h8692cbbb53525508E
	subq	$40, %rsp
	.seh_stackalloc 40
	.seh_endprologue
	movq	%rcx, 32(%rsp)
.Ltmp16:
	callq	_ZN95_$LT$alloc..collections..btree..map..BTreeMap$LT$K$C$V$GT$$u20$as$u20$core..ops..drop..Drop$GT$4drop17h9e3ab77a79869367E
	nop
	addq	$40, %rsp
	retq
.Ltmp17:
.Lfunc_end6:
	.seh_endproc

	.def	_ZN4core3ptr160drop_in_place$LT$alloc..collections..btree..map..IntoIter$LT$std..sys..windows..process..EnvKey$C$core..option..Option$LT$std..ffi..os_str..OsString$GT$$GT$$GT$17hd1de97f9fd90173cE;
	.scl	3;
	.type	32;
	.endef
	.section	.text,"xr",one_only,_ZN4core3ptr160drop_in_place$LT$alloc..collections..btree..map..IntoIter$LT$std..sys..windows..process..EnvKey$C$core..option..Option$LT$std..ffi..os_str..OsString$GT$$GT$$GT$17hd1de97f9fd90173cE
	.p2align	4, 0x90
_ZN4core3ptr160drop_in_place$LT$alloc..collections..btree..map..IntoIter$LT$std..sys..windows..process..EnvKey$C$core..option..Option$LT$std..ffi..os_str..OsString$GT$$GT$$GT$17hd1de97f9fd90173cE:
.Lfunc_begin7:
	.cv_func_id 7
	.cv_loc	7 2 188 0
.seh_proc _ZN4core3ptr160drop_in_place$LT$alloc..collections..btree..map..IntoIter$LT$std..sys..windows..process..EnvKey$C$core..option..Option$LT$std..ffi..os_str..OsString$GT$$GT$$GT$17hd1de97f9fd90173cE
	subq	$40, %rsp
	.seh_stackalloc 40
	.seh_endprologue
	movq	%rcx, 32(%rsp)
.Ltmp18:
	callq	_ZN95_$LT$alloc..collections..btree..map..IntoIter$LT$K$C$V$GT$$u20$as$u20$core..ops..drop..Drop$GT$4drop17habd2caebc0e83f58E
	nop
	addq	$40, %rsp
	retq
.Ltmp19:
.Lfunc_end7:
	.seh_endproc

	.def	_ZN4core3ptr231drop_in_place$LT$$LT$alloc..collections..btree..map..IntoIter$LT$K$C$V$GT$$u20$as$u20$core..ops..drop..Drop$GT$..drop..DropGuard$LT$std..sys..windows..process..EnvKey$C$core..option..Option$LT$std..ffi..os_str..OsString$GT$$GT$$GT$17h107c8d31da2e38fcE;
	.scl	3;
	.type	32;
	.endef
	.section	.text,"xr",one_only,_ZN4core3ptr231drop_in_place$LT$$LT$alloc..collections..btree..map..IntoIter$LT$K$C$V$GT$$u20$as$u20$core..ops..drop..Drop$GT$..drop..DropGuard$LT$std..sys..windows..process..EnvKey$C$core..option..Option$LT$std..ffi..os_str..OsString$GT$$GT$$GT$17h107c8d31da2e38fcE
	.p2align	4, 0x90
_ZN4core3ptr231drop_in_place$LT$$LT$alloc..collections..btree..map..IntoIter$LT$K$C$V$GT$$u20$as$u20$core..ops..drop..Drop$GT$..drop..DropGuard$LT$std..sys..windows..process..EnvKey$C$core..option..Option$LT$std..ffi..os_str..OsString$GT$$GT$$GT$17h107c8d31da2e38fcE:
.Lfunc_begin8:
	.cv_func_id 8
	.cv_loc	8 2 188 0
.seh_proc _ZN4core3ptr231drop_in_place$LT$$LT$alloc..collections..btree..map..IntoIter$LT$K$C$V$GT$$u20$as$u20$core..ops..drop..Drop$GT$..drop..DropGuard$LT$std..sys..windows..process..EnvKey$C$core..option..Option$LT$std..ffi..os_str..OsString$GT$$GT$$GT$17h107c8d31da2e38fcE
	subq	$40, %rsp
	.seh_stackalloc 40
	.seh_endprologue
	movq	%rcx, 32(%rsp)
.Ltmp20:
	callq	_ZN166_$LT$$LT$alloc..collections..btree..map..IntoIter$LT$K$C$V$GT$$u20$as$u20$core..ops..drop..Drop$GT$..drop..DropGuard$LT$K$C$V$GT$$u20$as$u20$core..ops..drop..Drop$GT$4drop17hc18b7e1f8239296aE
	nop
	addq	$40, %rsp
	retq
.Ltmp21:
.Lfunc_end8:
	.seh_endproc

	.def	_ZN4core3ptr41drop_in_place$LT$std..process..Output$GT$17hd08ec086d6f1bd8eE;
	.scl	3;
	.type	32;
	.endef
	.section	.text,"xr",one_only,_ZN4core3ptr41drop_in_place$LT$std..process..Output$GT$17hd08ec086d6f1bd8eE
	.p2align	4, 0x90
_ZN4core3ptr41drop_in_place$LT$std..process..Output$GT$17hd08ec086d6f1bd8eE:
.Lfunc_begin9:
	.cv_func_id 9
	.cv_loc	9 2 188 0
.seh_proc _ZN4core3ptr41drop_in_place$LT$std..process..Output$GT$17hd08ec086d6f1bd8eE
	.seh_handler __CxxFrameHandler3, @unwind, @except
	pushq	%rbp
	.seh_pushreg %rbp
	subq	$64, %rsp
	.seh_stackalloc 64
	leaq	64(%rsp), %rbp
	.seh_setframe %rbp, 64
	.seh_endprologue
	movq	$-2, -8(%rbp)
	movq	%rcx, -24(%rbp)
	movq	%rcx, -16(%rbp)
.Ltmp22:
.Ltmp24:
	callq	_ZN4core3ptr46drop_in_place$LT$alloc..vec..Vec$LT$u8$GT$$GT$17h237b7578c6889633E
.Ltmp23:
	jmp	.LBB9_1
.LBB9_1:
	movq	-24(%rbp), %rcx
	addq	$24, %rcx
	callq	_ZN4core3ptr46drop_in_place$LT$alloc..vec..Vec$LT$u8$GT$$GT$17h237b7578c6889633E
	nop
	addq	$64, %rsp
	popq	%rbp
	retq
	.seh_handlerdata
	.long	($cppxdata$_ZN4core3ptr41drop_in_place$LT$std..process..Output$GT$17hd08ec086d6f1bd8eE)@IMGREL
	.section	.text,"xr",one_only,_ZN4core3ptr41drop_in_place$LT$std..process..Output$GT$17hd08ec086d6f1bd8eE
	.seh_endproc
	.def	"?dtor$2@?0?_ZN4core3ptr41drop_in_place$LT$std..process..Output$GT$17hd08ec086d6f1bd8eE@4HA";
	.scl	3;
	.type	32;
	.endef
	.p2align	4, 0x90
"?dtor$2@?0?_ZN4core3ptr41drop_in_place$LT$std..process..Output$GT$17hd08ec086d6f1bd8eE@4HA":
.seh_proc "?dtor$2@?0?_ZN4core3ptr41drop_in_place$LT$std..process..Output$GT$17hd08ec086d6f1bd8eE@4HA"
.LBB9_2:
	movq	%rdx, 16(%rsp)
	pushq	%rbp
	.seh_pushreg %rbp
	subq	$32, %rsp
	.seh_stackalloc 32
	leaq	64(%rdx), %rbp
	.seh_endprologue
	movq	-24(%rbp), %rcx
	addq	$24, %rcx
	callq	_ZN4core3ptr46drop_in_place$LT$alloc..vec..Vec$LT$u8$GT$$GT$17h237b7578c6889633E
	nop
	addq	$32, %rsp
	popq	%rbp
	retq
.Ltmp25:
.Lfunc_end9:
	.seh_handlerdata
	.section	.text,"xr",one_only,_ZN4core3ptr41drop_in_place$LT$std..process..Output$GT$17hd08ec086d6f1bd8eE
	.seh_endproc
	.section	.xdata,"dr",associative,_ZN4core3ptr41drop_in_place$LT$std..process..Output$GT$17hd08ec086d6f1bd8eE
	.p2align	2
$cppxdata$_ZN4core3ptr41drop_in_place$LT$std..process..Output$GT$17hd08ec086d6f1bd8eE:
	.long	429065506
	.long	1
	.long	($stateUnwindMap$_ZN4core3ptr41drop_in_place$LT$std..process..Output$GT$17hd08ec086d6f1bd8eE)@IMGREL
	.long	0
	.long	0
	.long	3
	.long	($ip2state$_ZN4core3ptr41drop_in_place$LT$std..process..Output$GT$17hd08ec086d6f1bd8eE)@IMGREL
	.long	56
	.long	0
	.long	1
$stateUnwindMap$_ZN4core3ptr41drop_in_place$LT$std..process..Output$GT$17hd08ec086d6f1bd8eE:
	.long	-1
	.long	"?dtor$2@?0?_ZN4core3ptr41drop_in_place$LT$std..process..Output$GT$17hd08ec086d6f1bd8eE@4HA"@IMGREL
$ip2state$_ZN4core3ptr41drop_in_place$LT$std..process..Output$GT$17hd08ec086d6f1bd8eE:
	.long	.Lfunc_begin9@IMGREL
	.long	-1
	.long	.Ltmp22@IMGREL+1
	.long	0
	.long	.Ltmp23@IMGREL+1
	.long	-1
	.section	.text,"xr",one_only,_ZN4core3ptr41drop_in_place$LT$std..process..Output$GT$17hd08ec086d6f1bd8eE

	.def	_ZN4core3ptr42drop_in_place$LT$alloc..string..String$GT$17h9fced030e4ae14d7E;
	.scl	3;
	.type	32;
	.endef
	.section	.text,"xr",one_only,_ZN4core3ptr42drop_in_place$LT$alloc..string..String$GT$17h9fced030e4ae14d7E
	.p2align	4, 0x90
_ZN4core3ptr42drop_in_place$LT$alloc..string..String$GT$17h9fced030e4ae14d7E:
.Lfunc_begin10:
	.cv_func_id 10
	.cv_loc	10 2 188 0
.seh_proc _ZN4core3ptr42drop_in_place$LT$alloc..string..String$GT$17h9fced030e4ae14d7E
	subq	$40, %rsp
	.seh_stackalloc 40
	.seh_endprologue
	movq	%rcx, 32(%rsp)
.Ltmp26:
	callq	_ZN4core3ptr46drop_in_place$LT$alloc..vec..Vec$LT$u8$GT$$GT$17h237b7578c6889633E
	nop
	addq	$40, %rsp
	retq
.Ltmp27:
.Lfunc_end10:
	.seh_endproc

	.def	_ZN4core3ptr42drop_in_place$LT$std..io..error..Error$GT$17hb48643a2ed24e6a1E;
	.scl	3;
	.type	32;
	.endef
	.section	.text,"xr",one_only,_ZN4core3ptr42drop_in_place$LT$std..io..error..Error$GT$17hb48643a2ed24e6a1E
	.p2align	4, 0x90
_ZN4core3ptr42drop_in_place$LT$std..io..error..Error$GT$17hb48643a2ed24e6a1E:
.Lfunc_begin11:
	.cv_func_id 11
	.cv_loc	11 2 188 0
.seh_proc _ZN4core3ptr42drop_in_place$LT$std..io..error..Error$GT$17hb48643a2ed24e6a1E
	subq	$40, %rsp
	.seh_stackalloc 40
	.seh_endprologue
	movq	%rcx, 32(%rsp)
.Ltmp28:
	callq	_ZN4core3ptr57drop_in_place$LT$std..io..error..repr_bitpacked..Repr$GT$17hd8fea0fd8b97a87dE
	nop
	addq	$40, %rsp
	retq
.Ltmp29:
.Lfunc_end11:
	.seh_endproc

	.def	_ZN4core3ptr42drop_in_place$LT$std..process..Command$GT$17h162875bf1eaf91e2E;
	.scl	3;
	.type	32;
	.endef
	.section	.text,"xr",one_only,_ZN4core3ptr42drop_in_place$LT$std..process..Command$GT$17h162875bf1eaf91e2E
	.p2align	4, 0x90
_ZN4core3ptr42drop_in_place$LT$std..process..Command$GT$17h162875bf1eaf91e2E:
.Lfunc_begin12:
	.cv_func_id 12
	.cv_loc	12 2 188 0
.seh_proc _ZN4core3ptr42drop_in_place$LT$std..process..Command$GT$17h162875bf1eaf91e2E
	subq	$40, %rsp
	.seh_stackalloc 40
	.seh_endprologue
	movq	%rcx, 32(%rsp)
.Ltmp30:
	callq	_ZN4core3ptr56drop_in_place$LT$std..sys..windows..process..Command$GT$17hba92b679b9b952d1E
	nop
	addq	$40, %rsp
	retq
.Ltmp31:
.Lfunc_end12:
	.seh_endproc

	.def	_ZN4core3ptr43drop_in_place$LT$std..io..error..Custom$GT$17hcdd8e37c0092c096E;
	.scl	3;
	.type	32;
	.endef
	.section	.text,"xr",one_only,_ZN4core3ptr43drop_in_place$LT$std..io..error..Custom$GT$17hcdd8e37c0092c096E
	.p2align	4, 0x90
_ZN4core3ptr43drop_in_place$LT$std..io..error..Custom$GT$17hcdd8e37c0092c096E:
.Lfunc_begin13:
	.cv_func_id 13
	.cv_loc	13 2 188 0
.seh_proc _ZN4core3ptr43drop_in_place$LT$std..io..error..Custom$GT$17hcdd8e37c0092c096E
	subq	$40, %rsp
	.seh_stackalloc 40
	.seh_endprologue
	movq	%rcx, 32(%rsp)
.Ltmp32:
	callq	_ZN4core3ptr117drop_in_place$LT$alloc..boxed..Box$LT$dyn$u20$std..error..Error$u2b$core..marker..Send$u2b$core..marker..Sync$GT$$GT$17hc0c2db6162e448cbE
	nop
	addq	$40, %rsp
	retq
.Ltmp33:
.Lfunc_end13:
	.seh_endproc

	.def	_ZN4core3ptr46drop_in_place$LT$alloc..vec..Vec$LT$u8$GT$$GT$17h237b7578c6889633E;
	.scl	3;
	.type	32;
	.endef
	.section	.text,"xr",one_only,_ZN4core3ptr46drop_in_place$LT$alloc..vec..Vec$LT$u8$GT$$GT$17h237b7578c6889633E
	.p2align	4, 0x90
_ZN4core3ptr46drop_in_place$LT$alloc..vec..Vec$LT$u8$GT$$GT$17h237b7578c6889633E:
.Lfunc_begin14:
	.cv_func_id 14
	.cv_loc	14 2 188 0
.seh_proc _ZN4core3ptr46drop_in_place$LT$alloc..vec..Vec$LT$u8$GT$$GT$17h237b7578c6889633E
	.seh_handler __CxxFrameHandler3, @unwind, @except
	pushq	%rbp
	.seh_pushreg %rbp
	subq	$64, %rsp
	.seh_stackalloc 64
	leaq	64(%rsp), %rbp
	.seh_setframe %rbp, 64
	.seh_endprologue
	movq	$-2, -8(%rbp)
	movq	%rcx, -24(%rbp)
	movq	%rcx, -16(%rbp)
.Ltmp34:
.Ltmp36:
	callq	_ZN70_$LT$alloc..vec..Vec$LT$T$C$A$GT$$u20$as$u20$core..ops..drop..Drop$GT$4drop17h8ae803d48263bf63E
.Ltmp35:
	jmp	.LBB14_1
.LBB14_1:
	movq	-24(%rbp), %rcx
	callq	_ZN4core3ptr53drop_in_place$LT$alloc..raw_vec..RawVec$LT$u8$GT$$GT$17hb19467b1bb07b57dE
	nop
	addq	$64, %rsp
	popq	%rbp
	retq
	.seh_handlerdata
	.long	($cppxdata$_ZN4core3ptr46drop_in_place$LT$alloc..vec..Vec$LT$u8$GT$$GT$17h237b7578c6889633E)@IMGREL
	.section	.text,"xr",one_only,_ZN4core3ptr46drop_in_place$LT$alloc..vec..Vec$LT$u8$GT$$GT$17h237b7578c6889633E
	.seh_endproc
	.def	"?dtor$2@?0?_ZN4core3ptr46drop_in_place$LT$alloc..vec..Vec$LT$u8$GT$$GT$17h237b7578c6889633E@4HA";
	.scl	3;
	.type	32;
	.endef
	.p2align	4, 0x90
"?dtor$2@?0?_ZN4core3ptr46drop_in_place$LT$alloc..vec..Vec$LT$u8$GT$$GT$17h237b7578c6889633E@4HA":
.seh_proc "?dtor$2@?0?_ZN4core3ptr46drop_in_place$LT$alloc..vec..Vec$LT$u8$GT$$GT$17h237b7578c6889633E@4HA"
.LBB14_2:
	movq	%rdx, 16(%rsp)
	pushq	%rbp
	.seh_pushreg %rbp
	subq	$32, %rsp
	.seh_stackalloc 32
	leaq	64(%rdx), %rbp
	.seh_endprologue
	movq	-24(%rbp), %rcx
	callq	_ZN4core3ptr53drop_in_place$LT$alloc..raw_vec..RawVec$LT$u8$GT$$GT$17hb19467b1bb07b57dE
	nop
	addq	$32, %rsp
	popq	%rbp
	retq
.Ltmp37:
.Lfunc_end14:
	.seh_handlerdata
	.section	.text,"xr",one_only,_ZN4core3ptr46drop_in_place$LT$alloc..vec..Vec$LT$u8$GT$$GT$17h237b7578c6889633E
	.seh_endproc
	.section	.xdata,"dr",associative,_ZN4core3ptr46drop_in_place$LT$alloc..vec..Vec$LT$u8$GT$$GT$17h237b7578c6889633E
	.p2align	2
$cppxdata$_ZN4core3ptr46drop_in_place$LT$alloc..vec..Vec$LT$u8$GT$$GT$17h237b7578c6889633E:
	.long	429065506
	.long	1
	.long	($stateUnwindMap$_ZN4core3ptr46drop_in_place$LT$alloc..vec..Vec$LT$u8$GT$$GT$17h237b7578c6889633E)@IMGREL
	.long	0
	.long	0
	.long	3
	.long	($ip2state$_ZN4core3ptr46drop_in_place$LT$alloc..vec..Vec$LT$u8$GT$$GT$17h237b7578c6889633E)@IMGREL
	.long	56
	.long	0
	.long	1
$stateUnwindMap$_ZN4core3ptr46drop_in_place$LT$alloc..vec..Vec$LT$u8$GT$$GT$17h237b7578c6889633E:
	.long	-1
	.long	"?dtor$2@?0?_ZN4core3ptr46drop_in_place$LT$alloc..vec..Vec$LT$u8$GT$$GT$17h237b7578c6889633E@4HA"@IMGREL
$ip2state$_ZN4core3ptr46drop_in_place$LT$alloc..vec..Vec$LT$u8$GT$$GT$17h237b7578c6889633E:
	.long	.Lfunc_begin14@IMGREL
	.long	-1
	.long	.Ltmp34@IMGREL+1
	.long	0
	.long	.Ltmp35@IMGREL+1
	.long	-1
	.section	.text,"xr",one_only,_ZN4core3ptr46drop_in_place$LT$alloc..vec..Vec$LT$u8$GT$$GT$17h237b7578c6889633E

	.def	_ZN4core3ptr47drop_in_place$LT$alloc..vec..Vec$LT$u16$GT$$GT$17hdbe4a8084a58cc69E;
	.scl	3;
	.type	32;
	.endef
	.section	.text,"xr",one_only,_ZN4core3ptr47drop_in_place$LT$alloc..vec..Vec$LT$u16$GT$$GT$17hdbe4a8084a58cc69E
	.p2align	4, 0x90
_ZN4core3ptr47drop_in_place$LT$alloc..vec..Vec$LT$u16$GT$$GT$17hdbe4a8084a58cc69E:
.Lfunc_begin15:
	.cv_func_id 15
	.cv_loc	15 2 188 0
.seh_proc _ZN4core3ptr47drop_in_place$LT$alloc..vec..Vec$LT$u16$GT$$GT$17hdbe4a8084a58cc69E
	.seh_handler __CxxFrameHandler3, @unwind, @except
	pushq	%rbp
	.seh_pushreg %rbp
	subq	$64, %rsp
	.seh_stackalloc 64
	leaq	64(%rsp), %rbp
	.seh_setframe %rbp, 64
	.seh_endprologue
	movq	$-2, -8(%rbp)
	movq	%rcx, -24(%rbp)
	movq	%rcx, -16(%rbp)
.Ltmp38:
.Ltmp40:
	callq	_ZN70_$LT$alloc..vec..Vec$LT$T$C$A$GT$$u20$as$u20$core..ops..drop..Drop$GT$4drop17h4921c62934843e75E
.Ltmp39:
	jmp	.LBB15_1
.LBB15_1:
	movq	-24(%rbp), %rcx
	callq	_ZN4core3ptr54drop_in_place$LT$alloc..raw_vec..RawVec$LT$u16$GT$$GT$17hfcbea417ca441c11E
	nop
	addq	$64, %rsp
	popq	%rbp
	retq
	.seh_handlerdata
	.long	($cppxdata$_ZN4core3ptr47drop_in_place$LT$alloc..vec..Vec$LT$u16$GT$$GT$17hdbe4a8084a58cc69E)@IMGREL
	.section	.text,"xr",one_only,_ZN4core3ptr47drop_in_place$LT$alloc..vec..Vec$LT$u16$GT$$GT$17hdbe4a8084a58cc69E
	.seh_endproc
	.def	"?dtor$2@?0?_ZN4core3ptr47drop_in_place$LT$alloc..vec..Vec$LT$u16$GT$$GT$17hdbe4a8084a58cc69E@4HA";
	.scl	3;
	.type	32;
	.endef
	.p2align	4, 0x90
"?dtor$2@?0?_ZN4core3ptr47drop_in_place$LT$alloc..vec..Vec$LT$u16$GT$$GT$17hdbe4a8084a58cc69E@4HA":
.seh_proc "?dtor$2@?0?_ZN4core3ptr47drop_in_place$LT$alloc..vec..Vec$LT$u16$GT$$GT$17hdbe4a8084a58cc69E@4HA"
.LBB15_2:
	movq	%rdx, 16(%rsp)
	pushq	%rbp
	.seh_pushreg %rbp
	subq	$32, %rsp
	.seh_stackalloc 32
	leaq	64(%rdx), %rbp
	.seh_endprologue
	movq	-24(%rbp), %rcx
	callq	_ZN4core3ptr54drop_in_place$LT$alloc..raw_vec..RawVec$LT$u16$GT$$GT$17hfcbea417ca441c11E
	nop
	addq	$32, %rsp
	popq	%rbp
	retq
.Ltmp41:
.Lfunc_end15:
	.seh_handlerdata
	.section	.text,"xr",one_only,_ZN4core3ptr47drop_in_place$LT$alloc..vec..Vec$LT$u16$GT$$GT$17hdbe4a8084a58cc69E
	.seh_endproc
	.section	.xdata,"dr",associative,_ZN4core3ptr47drop_in_place$LT$alloc..vec..Vec$LT$u16$GT$$GT$17hdbe4a8084a58cc69E
	.p2align	2
$cppxdata$_ZN4core3ptr47drop_in_place$LT$alloc..vec..Vec$LT$u16$GT$$GT$17hdbe4a8084a58cc69E:
	.long	429065506
	.long	1
	.long	($stateUnwindMap$_ZN4core3ptr47drop_in_place$LT$alloc..vec..Vec$LT$u16$GT$$GT$17hdbe4a8084a58cc69E)@IMGREL
	.long	0
	.long	0
	.long	3
	.long	($ip2state$_ZN4core3ptr47drop_in_place$LT$alloc..vec..Vec$LT$u16$GT$$GT$17hdbe4a8084a58cc69E)@IMGREL
	.long	56
	.long	0
	.long	1
$stateUnwindMap$_ZN4core3ptr47drop_in_place$LT$alloc..vec..Vec$LT$u16$GT$$GT$17hdbe4a8084a58cc69E:
	.long	-1
	.long	"?dtor$2@?0?_ZN4core3ptr47drop_in_place$LT$alloc..vec..Vec$LT$u16$GT$$GT$17hdbe4a8084a58cc69E@4HA"@IMGREL
$ip2state$_ZN4core3ptr47drop_in_place$LT$alloc..vec..Vec$LT$u16$GT$$GT$17hdbe4a8084a58cc69E:
	.long	.Lfunc_begin15@IMGREL
	.long	-1
	.long	.Ltmp38@IMGREL+1
	.long	0
	.long	.Ltmp39@IMGREL+1
	.long	-1
	.section	.text,"xr",one_only,_ZN4core3ptr47drop_in_place$LT$alloc..vec..Vec$LT$u16$GT$$GT$17hdbe4a8084a58cc69E

	.def	_ZN4core3ptr47drop_in_place$LT$std..ffi..os_str..OsString$GT$17h4982aee5e04b1115E;
	.scl	3;
	.type	32;
	.endef
	.section	.text,"xr",one_only,_ZN4core3ptr47drop_in_place$LT$std..ffi..os_str..OsString$GT$17h4982aee5e04b1115E
	.p2align	4, 0x90
_ZN4core3ptr47drop_in_place$LT$std..ffi..os_str..OsString$GT$17h4982aee5e04b1115E:
.Lfunc_begin16:
	.cv_func_id 16
	.cv_loc	16 2 188 0
.seh_proc _ZN4core3ptr47drop_in_place$LT$std..ffi..os_str..OsString$GT$17h4982aee5e04b1115E
	subq	$40, %rsp
	.seh_stackalloc 40
	.seh_endprologue
	movq	%rcx, 32(%rsp)
.Ltmp42:
	callq	_ZN4core3ptr51drop_in_place$LT$std..sys..windows..os_str..Buf$GT$17h1520ace7bcb8ed47E
	nop
	addq	$40, %rsp
	retq
.Ltmp43:
.Lfunc_end16:
	.seh_endproc

	.def	_ZN4core3ptr50drop_in_place$LT$alloc..borrow..Cow$LT$str$GT$$GT$17hbcabe406933f7f97E;
	.scl	3;
	.type	32;
	.endef
	.section	.text,"xr",one_only,_ZN4core3ptr50drop_in_place$LT$alloc..borrow..Cow$LT$str$GT$$GT$17hbcabe406933f7f97E
	.p2align	4, 0x90
_ZN4core3ptr50drop_in_place$LT$alloc..borrow..Cow$LT$str$GT$$GT$17hbcabe406933f7f97E:
.Lfunc_begin17:
	.cv_func_id 17
	.cv_loc	17 2 188 0
.seh_proc _ZN4core3ptr50drop_in_place$LT$alloc..borrow..Cow$LT$str$GT$$GT$17hbcabe406933f7f97E
	subq	$56, %rsp
	.seh_stackalloc 56
	.seh_endprologue
	movq	%rcx, 40(%rsp)
	movq	%rcx, 48(%rsp)
.Ltmp44:
	cmpq	$0, (%rcx)
	jne	.LBB17_2
.LBB17_1:
	addq	$56, %rsp
	retq
.LBB17_2:
	movq	40(%rsp), %rcx
	addq	$8, %rcx
	callq	_ZN4core3ptr42drop_in_place$LT$alloc..string..String$GT$17h9fced030e4ae14d7E
	jmp	.LBB17_1
.Ltmp45:
.Lfunc_end17:
	.seh_endproc

	.def	_ZN4core3ptr51drop_in_place$LT$std..sys..windows..os_str..Buf$GT$17h1520ace7bcb8ed47E;
	.scl	3;
	.type	32;
	.endef
	.section	.text,"xr",one_only,_ZN4core3ptr51drop_in_place$LT$std..sys..windows..os_str..Buf$GT$17h1520ace7bcb8ed47E
	.p2align	4, 0x90
_ZN4core3ptr51drop_in_place$LT$std..sys..windows..os_str..Buf$GT$17h1520ace7bcb8ed47E:
.Lfunc_begin18:
	.cv_func_id 18
	.cv_loc	18 2 188 0
.seh_proc _ZN4core3ptr51drop_in_place$LT$std..sys..windows..os_str..Buf$GT$17h1520ace7bcb8ed47E
	subq	$40, %rsp
	.seh_stackalloc 40
	.seh_endprologue
	movq	%rcx, 32(%rsp)
.Ltmp46:
	callq	_ZN4core3ptr51drop_in_place$LT$std..sys_common..wtf8..Wtf8Buf$GT$17ha2fd6eb103466bf1E
	nop
	addq	$40, %rsp
	retq
.Ltmp47:
.Lfunc_end18:
	.seh_endproc

	.def	_ZN4core3ptr51drop_in_place$LT$std..sys_common..wtf8..Wtf8Buf$GT$17ha2fd6eb103466bf1E;
	.scl	3;
	.type	32;
	.endef
	.section	.text,"xr",one_only,_ZN4core3ptr51drop_in_place$LT$std..sys_common..wtf8..Wtf8Buf$GT$17ha2fd6eb103466bf1E
	.p2align	4, 0x90
_ZN4core3ptr51drop_in_place$LT$std..sys_common..wtf8..Wtf8Buf$GT$17ha2fd6eb103466bf1E:
.Lfunc_begin19:
	.cv_func_id 19
	.cv_loc	19 2 188 0
.seh_proc _ZN4core3ptr51drop_in_place$LT$std..sys_common..wtf8..Wtf8Buf$GT$17ha2fd6eb103466bf1E
	subq	$40, %rsp
	.seh_stackalloc 40
	.seh_endprologue
	movq	%rcx, 32(%rsp)
.Ltmp48:
	callq	_ZN4core3ptr46drop_in_place$LT$alloc..vec..Vec$LT$u8$GT$$GT$17h237b7578c6889633E
	nop
	addq	$40, %rsp
	retq
.Ltmp49:
.Lfunc_end19:
	.seh_endproc

	.def	_ZN4core3ptr52drop_in_place$LT$std..sys..windows..process..Arg$GT$17hfc977901b405cfbaE;
	.scl	3;
	.type	32;
	.endef
	.section	.text,"xr",one_only,_ZN4core3ptr52drop_in_place$LT$std..sys..windows..process..Arg$GT$17hfc977901b405cfbaE
	.p2align	4, 0x90
_ZN4core3ptr52drop_in_place$LT$std..sys..windows..process..Arg$GT$17hfc977901b405cfbaE:
.Lfunc_begin20:
	.cv_func_id 20
	.cv_loc	20 2 188 0
.seh_proc _ZN4core3ptr52drop_in_place$LT$std..sys..windows..process..Arg$GT$17hfc977901b405cfbaE
	subq	$56, %rsp
	.seh_stackalloc 56
	.seh_endprologue
	movq	%rcx, 40(%rsp)
	movq	%rcx, 48(%rsp)
.Ltmp50:
	cmpq	$0, (%rcx)
	jne	.LBB20_2
	movq	40(%rsp), %rcx
	addq	$8, %rcx
	callq	_ZN4core3ptr47drop_in_place$LT$std..ffi..os_str..OsString$GT$17h4982aee5e04b1115E
	jmp	.LBB20_3
.LBB20_2:
	movq	40(%rsp), %rcx
	addq	$8, %rcx
	callq	_ZN4core3ptr47drop_in_place$LT$std..ffi..os_str..OsString$GT$17h4982aee5e04b1115E
.LBB20_3:
	nop
	addq	$56, %rsp
	retq
.Ltmp51:
.Lfunc_end20:
	.seh_endproc

	.def	_ZN4core3ptr53drop_in_place$LT$alloc..raw_vec..RawVec$LT$u8$GT$$GT$17hb19467b1bb07b57dE;
	.scl	3;
	.type	32;
	.endef
	.section	.text,"xr",one_only,_ZN4core3ptr53drop_in_place$LT$alloc..raw_vec..RawVec$LT$u8$GT$$GT$17hb19467b1bb07b57dE
	.p2align	4, 0x90
_ZN4core3ptr53drop_in_place$LT$alloc..raw_vec..RawVec$LT$u8$GT$$GT$17hb19467b1bb07b57dE:
.Lfunc_begin21:
	.cv_func_id 21
	.cv_loc	21 2 188 0
.seh_proc _ZN4core3ptr53drop_in_place$LT$alloc..raw_vec..RawVec$LT$u8$GT$$GT$17hb19467b1bb07b57dE
	subq	$40, %rsp
	.seh_stackalloc 40
	.seh_endprologue
	movq	%rcx, 32(%rsp)
.Ltmp52:
	callq	_ZN77_$LT$alloc..raw_vec..RawVec$LT$T$C$A$GT$$u20$as$u20$core..ops..drop..Drop$GT$4drop17hfb6850588b767093E
	nop
	addq	$40, %rsp
	retq
.Ltmp53:
.Lfunc_end21:
	.seh_endproc

	.def	_ZN4core3ptr54drop_in_place$LT$alloc..raw_vec..RawVec$LT$u16$GT$$GT$17hfcbea417ca441c11E;
	.scl	3;
	.type	32;
	.endef
	.section	.text,"xr",one_only,_ZN4core3ptr54drop_in_place$LT$alloc..raw_vec..RawVec$LT$u16$GT$$GT$17hfcbea417ca441c11E
	.p2align	4, 0x90
_ZN4core3ptr54drop_in_place$LT$alloc..raw_vec..RawVec$LT$u16$GT$$GT$17hfcbea417ca441c11E:
.Lfunc_begin22:
	.cv_func_id 22
	.cv_loc	22 2 188 0
.seh_proc _ZN4core3ptr54drop_in_place$LT$alloc..raw_vec..RawVec$LT$u16$GT$$GT$17hfcbea417ca441c11E
	subq	$40, %rsp
	.seh_stackalloc 40
	.seh_endprologue
	movq	%rcx, 32(%rsp)
.Ltmp54:
	callq	_ZN77_$LT$alloc..raw_vec..RawVec$LT$T$C$A$GT$$u20$as$u20$core..ops..drop..Drop$GT$4drop17he83ee23b80ffd62aE
	nop
	addq	$40, %rsp
	retq
.Ltmp55:
.Lfunc_end22:
	.seh_endproc

	.def	_ZN4core3ptr54drop_in_place$LT$std..sys..windows..handle..Handle$GT$17he51a232eb6c60429E;
	.scl	3;
	.type	32;
	.endef
	.section	.text,"xr",one_only,_ZN4core3ptr54drop_in_place$LT$std..sys..windows..handle..Handle$GT$17he51a232eb6c60429E
	.p2align	4, 0x90
_ZN4core3ptr54drop_in_place$LT$std..sys..windows..handle..Handle$GT$17he51a232eb6c60429E:
.Lfunc_begin23:
	.cv_func_id 23
	.cv_loc	23 2 188 0
.seh_proc _ZN4core3ptr54drop_in_place$LT$std..sys..windows..handle..Handle$GT$17he51a232eb6c60429E
	subq	$40, %rsp
	.seh_stackalloc 40
	.seh_endprologue
	movq	%rcx, 32(%rsp)
.Ltmp56:
	callq	_ZN4core3ptr62drop_in_place$LT$std..os..windows..io..handle..OwnedHandle$GT$17h535c7f08c41646b9E
	nop
	addq	$40, %rsp
	retq
.Ltmp57:
.Lfunc_end23:
	.seh_endproc

	.def	_ZN4core3ptr54drop_in_place$LT$std..sys..windows..process..Stdio$GT$17h137171c79e6788f6E;
	.scl	3;
	.type	32;
	.endef
	.section	.text,"xr",one_only,_ZN4core3ptr54drop_in_place$LT$std..sys..windows..process..Stdio$GT$17h137171c79e6788f6E
	.p2align	4, 0x90
_ZN4core3ptr54drop_in_place$LT$std..sys..windows..process..Stdio$GT$17h137171c79e6788f6E:
.Lfunc_begin24:
	.cv_func_id 24
	.cv_loc	24 2 188 0
.seh_proc _ZN4core3ptr54drop_in_place$LT$std..sys..windows..process..Stdio$GT$17h137171c79e6788f6E
	subq	$56, %rsp
	.seh_stackalloc 56
	.seh_endprologue
	movq	%rcx, 40(%rsp)
	movq	%rcx, 48(%rsp)
.Ltmp58:
	movl	(%rcx), %eax
	subl	$3, %eax
	jb	.LBB24_2
	jmp	.LBB24_1
.LBB24_1:
	movq	40(%rsp), %rcx
	addq	$8, %rcx
	callq	_ZN4core3ptr54drop_in_place$LT$std..sys..windows..handle..Handle$GT$17he51a232eb6c60429E
.LBB24_2:
	nop
	addq	$56, %rsp
	retq
.Ltmp59:
.Lfunc_end24:
	.seh_endproc

	.def	_ZN4core3ptr55drop_in_place$LT$std..sys..windows..process..EnvKey$GT$17hdef210f5225f1dcaE;
	.scl	3;
	.type	32;
	.endef
	.section	.text,"xr",one_only,_ZN4core3ptr55drop_in_place$LT$std..sys..windows..process..EnvKey$GT$17hdef210f5225f1dcaE
	.p2align	4, 0x90
_ZN4core3ptr55drop_in_place$LT$std..sys..windows..process..EnvKey$GT$17hdef210f5225f1dcaE:
.Lfunc_begin25:
	.cv_func_id 25
	.cv_loc	25 2 188 0
.seh_proc _ZN4core3ptr55drop_in_place$LT$std..sys..windows..process..EnvKey$GT$17hdef210f5225f1dcaE
	.seh_handler __CxxFrameHandler3, @unwind, @except
	pushq	%rbp
	.seh_pushreg %rbp
	subq	$64, %rsp
	.seh_stackalloc 64
	leaq	64(%rsp), %rbp
	.seh_setframe %rbp, 64
	.seh_endprologue
	movq	$-2, -8(%rbp)
	movq	%rcx, -24(%rbp)
	movq	%rcx, -16(%rbp)
.Ltmp60:
.Ltmp62:
	callq	_ZN4core3ptr47drop_in_place$LT$std..ffi..os_str..OsString$GT$17h4982aee5e04b1115E
.Ltmp61:
	jmp	.LBB25_1
.LBB25_1:
	movq	-24(%rbp), %rcx
	addq	$24, %rcx
	callq	_ZN4core3ptr47drop_in_place$LT$alloc..vec..Vec$LT$u16$GT$$GT$17hdbe4a8084a58cc69E
	nop
	addq	$64, %rsp
	popq	%rbp
	retq
	.seh_handlerdata
	.long	($cppxdata$_ZN4core3ptr55drop_in_place$LT$std..sys..windows..process..EnvKey$GT$17hdef210f5225f1dcaE)@IMGREL
	.section	.text,"xr",one_only,_ZN4core3ptr55drop_in_place$LT$std..sys..windows..process..EnvKey$GT$17hdef210f5225f1dcaE
	.seh_endproc
	.def	"?dtor$2@?0?_ZN4core3ptr55drop_in_place$LT$std..sys..windows..process..EnvKey$GT$17hdef210f5225f1dcaE@4HA";
	.scl	3;
	.type	32;
	.endef
	.p2align	4, 0x90
"?dtor$2@?0?_ZN4core3ptr55drop_in_place$LT$std..sys..windows..process..EnvKey$GT$17hdef210f5225f1dcaE@4HA":
.seh_proc "?dtor$2@?0?_ZN4core3ptr55drop_in_place$LT$std..sys..windows..process..EnvKey$GT$17hdef210f5225f1dcaE@4HA"
.LBB25_2:
	movq	%rdx, 16(%rsp)
	pushq	%rbp
	.seh_pushreg %rbp
	subq	$32, %rsp
	.seh_stackalloc 32
	leaq	64(%rdx), %rbp
	.seh_endprologue
	movq	-24(%rbp), %rcx
	addq	$24, %rcx
	callq	_ZN4core3ptr47drop_in_place$LT$alloc..vec..Vec$LT$u16$GT$$GT$17hdbe4a8084a58cc69E
	nop
	addq	$32, %rsp
	popq	%rbp
	retq
.Ltmp63:
.Lfunc_end25:
	.seh_handlerdata
	.section	.text,"xr",one_only,_ZN4core3ptr55drop_in_place$LT$std..sys..windows..process..EnvKey$GT$17hdef210f5225f1dcaE
	.seh_endproc
	.section	.xdata,"dr",associative,_ZN4core3ptr55drop_in_place$LT$std..sys..windows..process..EnvKey$GT$17hdef210f5225f1dcaE
	.p2align	2
$cppxdata$_ZN4core3ptr55drop_in_place$LT$std..sys..windows..process..EnvKey$GT$17hdef210f5225f1dcaE:
	.long	429065506
	.long	1
	.long	($stateUnwindMap$_ZN4core3ptr55drop_in_place$LT$std..sys..windows..process..EnvKey$GT$17hdef210f5225f1dcaE)@IMGREL
	.long	0
	.long	0
	.long	3
	.long	($ip2state$_ZN4core3ptr55drop_in_place$LT$std..sys..windows..process..EnvKey$GT$17hdef210f5225f1dcaE)@IMGREL
	.long	56
	.long	0
	.long	1
$stateUnwindMap$_ZN4core3ptr55drop_in_place$LT$std..sys..windows..process..EnvKey$GT$17hdef210f5225f1dcaE:
	.long	-1
	.long	"?dtor$2@?0?_ZN4core3ptr55drop_in_place$LT$std..sys..windows..process..EnvKey$GT$17hdef210f5225f1dcaE@4HA"@IMGREL
$ip2state$_ZN4core3ptr55drop_in_place$LT$std..sys..windows..process..EnvKey$GT$17hdef210f5225f1dcaE:
	.long	.Lfunc_begin25@IMGREL
	.long	-1
	.long	.Ltmp60@IMGREL+1
	.long	0
	.long	.Ltmp61@IMGREL+1
	.long	-1
	.section	.text,"xr",one_only,_ZN4core3ptr55drop_in_place$LT$std..sys..windows..process..EnvKey$GT$17hdef210f5225f1dcaE

	.def	_ZN4core3ptr56drop_in_place$LT$std..sys..windows..process..Command$GT$17hba92b679b9b952d1E;
	.scl	3;
	.type	32;
	.endef
	.section	.text,"xr",one_only,_ZN4core3ptr56drop_in_place$LT$std..sys..windows..process..Command$GT$17hba92b679b9b952d1E
	.p2align	4, 0x90
_ZN4core3ptr56drop_in_place$LT$std..sys..windows..process..Command$GT$17hba92b679b9b952d1E:
.Lfunc_begin26:
	.cv_func_id 26
	.cv_loc	26 2 188 0
.seh_proc _ZN4core3ptr56drop_in_place$LT$std..sys..windows..process..Command$GT$17hba92b679b9b952d1E
	.seh_handler __CxxFrameHandler3, @unwind, @except
	pushq	%rbp
	.seh_pushreg %rbp
	subq	$64, %rsp
	.seh_stackalloc 64
	leaq	64(%rsp), %rbp
	.seh_setframe %rbp, 64
	.seh_endprologue
	movq	$-2, -8(%rbp)
	movq	%rcx, -24(%rbp)
	movq	%rcx, -16(%rbp)
.Ltmp64:
.Ltmp76:
	callq	_ZN4core3ptr47drop_in_place$LT$std..ffi..os_str..OsString$GT$17h4982aee5e04b1115E
.Ltmp65:
	jmp	.LBB26_1
.LBB26_1:
	movq	-24(%rbp), %rcx
	addq	$24, %rcx
.Ltmp66:
	callq	_ZN4core3ptr75drop_in_place$LT$alloc..vec..Vec$LT$std..sys..windows..process..Arg$GT$$GT$17h9bcface158a2fa84E
.Ltmp67:
	jmp	.LBB26_4
.LBB26_4:
	movq	-24(%rbp), %rcx
	addq	$48, %rcx
.Ltmp68:
	callq	_ZN4core3ptr57drop_in_place$LT$std..sys_common..process..CommandEnv$GT$17hdf07a4c07d394cb5E
.Ltmp69:
	jmp	.LBB26_6
.LBB26_6:
	movq	-24(%rbp), %rcx
	addq	$80, %rcx
.Ltmp70:
	callq	_ZN4core3ptr75drop_in_place$LT$core..option..Option$LT$std..ffi..os_str..OsString$GT$$GT$17h60b07b29e7caa437E
.Ltmp71:
	jmp	.LBB26_8
.LBB26_8:
	movq	-24(%rbp), %rcx
	addq	$104, %rcx
.Ltmp72:
	callq	_ZN4core3ptr82drop_in_place$LT$core..option..Option$LT$std..sys..windows..process..Stdio$GT$$GT$17h554098c7741f8776E
.Ltmp73:
	jmp	.LBB26_10
.LBB26_10:
	movq	-24(%rbp), %rcx
	addq	$120, %rcx
.Ltmp74:
	callq	_ZN4core3ptr82drop_in_place$LT$core..option..Option$LT$std..sys..windows..process..Stdio$GT$$GT$17h554098c7741f8776E
.Ltmp75:
	jmp	.LBB26_12
.LBB26_12:
	movq	-24(%rbp), %rcx
	addq	$136, %rcx
	callq	_ZN4core3ptr82drop_in_place$LT$core..option..Option$LT$std..sys..windows..process..Stdio$GT$$GT$17h554098c7741f8776E
	nop
	addq	$64, %rsp
	popq	%rbp
	retq
	.seh_handlerdata
	.long	($cppxdata$_ZN4core3ptr56drop_in_place$LT$std..sys..windows..process..Command$GT$17hba92b679b9b952d1E)@IMGREL
	.section	.text,"xr",one_only,_ZN4core3ptr56drop_in_place$LT$std..sys..windows..process..Command$GT$17hba92b679b9b952d1E
	.seh_endproc
	.def	"?dtor$2@?0?_ZN4core3ptr56drop_in_place$LT$std..sys..windows..process..Command$GT$17hba92b679b9b952d1E@4HA";
	.scl	3;
	.type	32;
	.endef
	.p2align	4, 0x90
"?dtor$2@?0?_ZN4core3ptr56drop_in_place$LT$std..sys..windows..process..Command$GT$17hba92b679b9b952d1E@4HA":
.seh_proc "?dtor$2@?0?_ZN4core3ptr56drop_in_place$LT$std..sys..windows..process..Command$GT$17hba92b679b9b952d1E@4HA"
.LBB26_2:
	movq	%rdx, 16(%rsp)
	pushq	%rbp
	.seh_pushreg %rbp
	subq	$32, %rsp
	.seh_stackalloc 32
	leaq	64(%rdx), %rbp
	.seh_endprologue
	movq	-24(%rbp), %rcx
	addq	$24, %rcx
	callq	_ZN4core3ptr75drop_in_place$LT$alloc..vec..Vec$LT$std..sys..windows..process..Arg$GT$$GT$17h9bcface158a2fa84E
	nop
	addq	$32, %rsp
	popq	%rbp
	retq
	.seh_handlerdata
	.section	.text,"xr",one_only,_ZN4core3ptr56drop_in_place$LT$std..sys..windows..process..Command$GT$17hba92b679b9b952d1E
	.seh_endproc
	.def	"?dtor$3@?0?_ZN4core3ptr56drop_in_place$LT$std..sys..windows..process..Command$GT$17hba92b679b9b952d1E@4HA";
	.scl	3;
	.type	32;
	.endef
	.p2align	4, 0x90
"?dtor$3@?0?_ZN4core3ptr56drop_in_place$LT$std..sys..windows..process..Command$GT$17hba92b679b9b952d1E@4HA":
.seh_proc "?dtor$3@?0?_ZN4core3ptr56drop_in_place$LT$std..sys..windows..process..Command$GT$17hba92b679b9b952d1E@4HA"
.LBB26_3:
	movq	%rdx, 16(%rsp)
	pushq	%rbp
	.seh_pushreg %rbp
	subq	$32, %rsp
	.seh_stackalloc 32
	leaq	64(%rdx), %rbp
	.seh_endprologue
	movq	-24(%rbp), %rcx
	addq	$48, %rcx
	callq	_ZN4core3ptr57drop_in_place$LT$std..sys_common..process..CommandEnv$GT$17hdf07a4c07d394cb5E
	nop
	addq	$32, %rsp
	popq	%rbp
	retq
	.seh_handlerdata
	.section	.text,"xr",one_only,_ZN4core3ptr56drop_in_place$LT$std..sys..windows..process..Command$GT$17hba92b679b9b952d1E
	.seh_endproc
	.def	"?dtor$5@?0?_ZN4core3ptr56drop_in_place$LT$std..sys..windows..process..Command$GT$17hba92b679b9b952d1E@4HA";
	.scl	3;
	.type	32;
	.endef
	.p2align	4, 0x90
"?dtor$5@?0?_ZN4core3ptr56drop_in_place$LT$std..sys..windows..process..Command$GT$17hba92b679b9b952d1E@4HA":
.seh_proc "?dtor$5@?0?_ZN4core3ptr56drop_in_place$LT$std..sys..windows..process..Command$GT$17hba92b679b9b952d1E@4HA"
.LBB26_5:
	movq	%rdx, 16(%rsp)
	pushq	%rbp
	.seh_pushreg %rbp
	subq	$32, %rsp
	.seh_stackalloc 32
	leaq	64(%rdx), %rbp
	.seh_endprologue
	movq	-24(%rbp), %rcx
	addq	$80, %rcx
	callq	_ZN4core3ptr75drop_in_place$LT$core..option..Option$LT$std..ffi..os_str..OsString$GT$$GT$17h60b07b29e7caa437E
	nop
	addq	$32, %rsp
	popq	%rbp
	retq
	.seh_handlerdata
	.section	.text,"xr",one_only,_ZN4core3ptr56drop_in_place$LT$std..sys..windows..process..Command$GT$17hba92b679b9b952d1E
	.seh_endproc
	.def	"?dtor$7@?0?_ZN4core3ptr56drop_in_place$LT$std..sys..windows..process..Command$GT$17hba92b679b9b952d1E@4HA";
	.scl	3;
	.type	32;
	.endef
	.p2align	4, 0x90
"?dtor$7@?0?_ZN4core3ptr56drop_in_place$LT$std..sys..windows..process..Command$GT$17hba92b679b9b952d1E@4HA":
.seh_proc "?dtor$7@?0?_ZN4core3ptr56drop_in_place$LT$std..sys..windows..process..Command$GT$17hba92b679b9b952d1E@4HA"
.LBB26_7:
	movq	%rdx, 16(%rsp)
	pushq	%rbp
	.seh_pushreg %rbp
	subq	$32, %rsp
	.seh_stackalloc 32
	leaq	64(%rdx), %rbp
	.seh_endprologue
	movq	-24(%rbp), %rcx
	addq	$104, %rcx
	callq	_ZN4core3ptr82drop_in_place$LT$core..option..Option$LT$std..sys..windows..process..Stdio$GT$$GT$17h554098c7741f8776E
	nop
	addq	$32, %rsp
	popq	%rbp
	retq
	.seh_handlerdata
	.section	.text,"xr",one_only,_ZN4core3ptr56drop_in_place$LT$std..sys..windows..process..Command$GT$17hba92b679b9b952d1E
	.seh_endproc
	.def	"?dtor$9@?0?_ZN4core3ptr56drop_in_place$LT$std..sys..windows..process..Command$GT$17hba92b679b9b952d1E@4HA";
	.scl	3;
	.type	32;
	.endef
	.p2align	4, 0x90
"?dtor$9@?0?_ZN4core3ptr56drop_in_place$LT$std..sys..windows..process..Command$GT$17hba92b679b9b952d1E@4HA":
.seh_proc "?dtor$9@?0?_ZN4core3ptr56drop_in_place$LT$std..sys..windows..process..Command$GT$17hba92b679b9b952d1E@4HA"
.LBB26_9:
	movq	%rdx, 16(%rsp)
	pushq	%rbp
	.seh_pushreg %rbp
	subq	$32, %rsp
	.seh_stackalloc 32
	leaq	64(%rdx), %rbp
	.seh_endprologue
	movq	-24(%rbp), %rcx
	addq	$120, %rcx
	callq	_ZN4core3ptr82drop_in_place$LT$core..option..Option$LT$std..sys..windows..process..Stdio$GT$$GT$17h554098c7741f8776E
	nop
	addq	$32, %rsp
	popq	%rbp
	retq
	.seh_handlerdata
	.section	.text,"xr",one_only,_ZN4core3ptr56drop_in_place$LT$std..sys..windows..process..Command$GT$17hba92b679b9b952d1E
	.seh_endproc
	.def	"?dtor$11@?0?_ZN4core3ptr56drop_in_place$LT$std..sys..windows..process..Command$GT$17hba92b679b9b952d1E@4HA";
	.scl	3;
	.type	32;
	.endef
	.p2align	4, 0x90
"?dtor$11@?0?_ZN4core3ptr56drop_in_place$LT$std..sys..windows..process..Command$GT$17hba92b679b9b952d1E@4HA":
.seh_proc "?dtor$11@?0?_ZN4core3ptr56drop_in_place$LT$std..sys..windows..process..Command$GT$17hba92b679b9b952d1E@4HA"
.LBB26_11:
	movq	%rdx, 16(%rsp)
	pushq	%rbp
	.seh_pushreg %rbp
	subq	$32, %rsp
	.seh_stackalloc 32
	leaq	64(%rdx), %rbp
	.seh_endprologue
	movq	-24(%rbp), %rcx
	addq	$136, %rcx
	callq	_ZN4core3ptr82drop_in_place$LT$core..option..Option$LT$std..sys..windows..process..Stdio$GT$$GT$17h554098c7741f8776E
	nop
	addq	$32, %rsp
	popq	%rbp
	retq
.Ltmp77:
.Lfunc_end26:
	.seh_handlerdata
	.section	.text,"xr",one_only,_ZN4core3ptr56drop_in_place$LT$std..sys..windows..process..Command$GT$17hba92b679b9b952d1E
	.seh_endproc
	.section	.xdata,"dr",associative,_ZN4core3ptr56drop_in_place$LT$std..sys..windows..process..Command$GT$17hba92b679b9b952d1E
	.p2align	2
$cppxdata$_ZN4core3ptr56drop_in_place$LT$std..sys..windows..process..Command$GT$17hba92b679b9b952d1E:
	.long	429065506
	.long	6
	.long	($stateUnwindMap$_ZN4core3ptr56drop_in_place$LT$std..sys..windows..process..Command$GT$17hba92b679b9b952d1E)@IMGREL
	.long	0
	.long	0
	.long	8
	.long	($ip2state$_ZN4core3ptr56drop_in_place$LT$std..sys..windows..process..Command$GT$17hba92b679b9b952d1E)@IMGREL
	.long	56
	.long	0
	.long	1
$stateUnwindMap$_ZN4core3ptr56drop_in_place$LT$std..sys..windows..process..Command$GT$17hba92b679b9b952d1E:
	.long	-1
	.long	"?dtor$11@?0?_ZN4core3ptr56drop_in_place$LT$std..sys..windows..process..Command$GT$17hba92b679b9b952d1E@4HA"@IMGREL
	.long	0
	.long	"?dtor$9@?0?_ZN4core3ptr56drop_in_place$LT$std..sys..windows..process..Command$GT$17hba92b679b9b952d1E@4HA"@IMGREL
	.long	1
	.long	"?dtor$7@?0?_ZN4core3ptr56drop_in_place$LT$std..sys..windows..process..Command$GT$17hba92b679b9b952d1E@4HA"@IMGREL
	.long	2
	.long	"?dtor$5@?0?_ZN4core3ptr56drop_in_place$LT$std..sys..windows..process..Command$GT$17hba92b679b9b952d1E@4HA"@IMGREL
	.long	3
	.long	"?dtor$3@?0?_ZN4core3ptr56drop_in_place$LT$std..sys..windows..process..Command$GT$17hba92b679b9b952d1E@4HA"@IMGREL
	.long	4
	.long	"?dtor$2@?0?_ZN4core3ptr56drop_in_place$LT$std..sys..windows..process..Command$GT$17hba92b679b9b952d1E@4HA"@IMGREL
$ip2state$_ZN4core3ptr56drop_in_place$LT$std..sys..windows..process..Command$GT$17hba92b679b9b952d1E:
	.long	.Lfunc_begin26@IMGREL
	.long	-1
	.long	.Ltmp64@IMGREL+1
	.long	5
	.long	.Ltmp66@IMGREL+1
	.long	4
	.long	.Ltmp68@IMGREL+1
	.long	3
	.long	.Ltmp70@IMGREL+1
	.long	2
	.long	.Ltmp72@IMGREL+1
	.long	1
	.long	.Ltmp74@IMGREL+1
	.long	0
	.long	.Ltmp75@IMGREL+1
	.long	-1
	.section	.text,"xr",one_only,_ZN4core3ptr56drop_in_place$LT$std..sys..windows..process..Command$GT$17hba92b679b9b952d1E

	.def	_ZN4core3ptr57drop_in_place$LT$std..io..error..repr_bitpacked..Repr$GT$17hd8fea0fd8b97a87dE;
	.scl	3;
	.type	32;
	.endef
	.section	.text,"xr",one_only,_ZN4core3ptr57drop_in_place$LT$std..io..error..repr_bitpacked..Repr$GT$17hd8fea0fd8b97a87dE
	.p2align	4, 0x90
_ZN4core3ptr57drop_in_place$LT$std..io..error..repr_bitpacked..Repr$GT$17hd8fea0fd8b97a87dE:
.Lfunc_begin27:
	.cv_func_id 27
	.cv_loc	27 2 188 0
.seh_proc _ZN4core3ptr57drop_in_place$LT$std..io..error..repr_bitpacked..Repr$GT$17hd8fea0fd8b97a87dE
	subq	$40, %rsp
	.seh_stackalloc 40
	.seh_endprologue
	movq	%rcx, 32(%rsp)
.Ltmp78:
	callq	_ZN78_$LT$std..io..error..repr_bitpacked..Repr$u20$as$u20$core..ops..drop..Drop$GT$4drop17hfb68f9e73ac7c752E
	nop
	addq	$40, %rsp
	retq
.Ltmp79:
.Lfunc_end27:
	.seh_endproc

	.def	_ZN4core3ptr57drop_in_place$LT$std..sys_common..process..CommandEnv$GT$17hdf07a4c07d394cb5E;
	.scl	3;
	.type	32;
	.endef
	.section	.text,"xr",one_only,_ZN4core3ptr57drop_in_place$LT$std..sys_common..process..CommandEnv$GT$17hdf07a4c07d394cb5E
	.p2align	4, 0x90
_ZN4core3ptr57drop_in_place$LT$std..sys_common..process..CommandEnv$GT$17hdf07a4c07d394cb5E:
.Lfunc_begin28:
	.cv_func_id 28
	.cv_loc	28 2 188 0
.seh_proc _ZN4core3ptr57drop_in_place$LT$std..sys_common..process..CommandEnv$GT$17hdf07a4c07d394cb5E
	subq	$40, %rsp
	.seh_stackalloc 40
	.seh_endprologue
	movq	%rcx, 32(%rsp)
.Ltmp80:
	callq	_ZN4core3ptr160drop_in_place$LT$alloc..collections..btree..map..BTreeMap$LT$std..sys..windows..process..EnvKey$C$core..option..Option$LT$std..ffi..os_str..OsString$GT$$GT$$GT$17h8692cbbb53525508E
	nop
	addq	$40, %rsp
	retq
.Ltmp81:
.Lfunc_end28:
	.seh_endproc

	.def	_ZN4core3ptr62drop_in_place$LT$$u5b$std..sys..windows..process..Arg$u5d$$GT$17h5f5149ff60277975E;
	.scl	3;
	.type	32;
	.endef
	.section	.text,"xr",one_only,_ZN4core3ptr62drop_in_place$LT$$u5b$std..sys..windows..process..Arg$u5d$$GT$17h5f5149ff60277975E
	.p2align	4, 0x90
_ZN4core3ptr62drop_in_place$LT$$u5b$std..sys..windows..process..Arg$u5d$$GT$17h5f5149ff60277975E:
.Lfunc_begin29:
	.cv_func_id 29
	.cv_loc	29 2 188 0
.seh_proc _ZN4core3ptr62drop_in_place$LT$$u5b$std..sys..windows..process..Arg$u5d$$GT$17h5f5149ff60277975E
	.seh_handler __CxxFrameHandler3, @unwind, @except
	pushq	%rbp
	.seh_pushreg %rbp
	subq	$80, %rsp
	.seh_stackalloc 80
	leaq	80(%rsp), %rbp
	.seh_setframe %rbp, 80
	.seh_endprologue
	movq	$-2, -8(%rbp)
	movq	%rdx, %rax
	movq	%rcx, -24(%rbp)
	movq	%rax, -16(%rbp)
.Ltmp84:
	movq	%rcx, -32(%rbp)
	shlq	$5, %rax
	addq	-32(%rbp), %rax
	movq	%rax, -40(%rbp)
.LBB29_1:
	movq	-40(%rbp), %rax
	cmpq	%rax, -32(%rbp)
	je	.LBB29_3
	movq	-32(%rbp), %rcx
	movq	%rcx, %rax
	addq	$32, %rax
	movq	%rax, -32(%rbp)
.Ltmp82:
	callq	_ZN4core3ptr52drop_in_place$LT$std..sys..windows..process..Arg$GT$17hfc977901b405cfbaE
.Ltmp83:
	jmp	.LBB29_1
.LBB29_3:
	addq	$80, %rsp
	popq	%rbp
	retq
.LBB29_4:
	movq	-40(%rbp), %rax
	cmpq	%rax, -32(%rbp)
	je	.LBB29_8
	jmp	.LBB29_6
	.seh_handlerdata
	.long	($cppxdata$_ZN4core3ptr62drop_in_place$LT$$u5b$std..sys..windows..process..Arg$u5d$$GT$17h5f5149ff60277975E)@IMGREL
	.section	.text,"xr",one_only,_ZN4core3ptr62drop_in_place$LT$$u5b$std..sys..windows..process..Arg$u5d$$GT$17h5f5149ff60277975E
	.seh_endproc
	.def	"?dtor$5@?0?_ZN4core3ptr62drop_in_place$LT$$u5b$std..sys..windows..process..Arg$u5d$$GT$17h5f5149ff60277975E@4HA";
	.scl	3;
	.type	32;
	.endef
	.p2align	4, 0x90
"?dtor$5@?0?_ZN4core3ptr62drop_in_place$LT$$u5b$std..sys..windows..process..Arg$u5d$$GT$17h5f5149ff60277975E@4HA":
.seh_proc "?dtor$5@?0?_ZN4core3ptr62drop_in_place$LT$$u5b$std..sys..windows..process..Arg$u5d$$GT$17h5f5149ff60277975E@4HA"
.LBB29_5:
	movq	%rdx, 16(%rsp)
	pushq	%rbp
	.seh_pushreg %rbp
	subq	$32, %rsp
	.seh_stackalloc 32
	leaq	80(%rdx), %rbp
	.seh_endprologue
	jmp	.LBB29_4
.LBB29_6:
	movq	-32(%rbp), %rcx
	movq	-32(%rbp), %rax
	addq	$32, %rax
	movq	%rax, -32(%rbp)
	callq	_ZN4core3ptr52drop_in_place$LT$std..sys..windows..process..Arg$GT$17hfc977901b405cfbaE
	jmp	.LBB29_4
.LBB29_8:
	addq	$32, %rsp
	popq	%rbp
	retq
	.seh_handlerdata
	.section	.text,"xr",one_only,_ZN4core3ptr62drop_in_place$LT$$u5b$std..sys..windows..process..Arg$u5d$$GT$17h5f5149ff60277975E
	.seh_endproc
	.def	"?dtor$7@?0?_ZN4core3ptr62drop_in_place$LT$$u5b$std..sys..windows..process..Arg$u5d$$GT$17h5f5149ff60277975E@4HA";
	.scl	3;
	.type	32;
	.endef
	.p2align	4, 0x90
"?dtor$7@?0?_ZN4core3ptr62drop_in_place$LT$$u5b$std..sys..windows..process..Arg$u5d$$GT$17h5f5149ff60277975E@4HA":
.seh_proc "?dtor$7@?0?_ZN4core3ptr62drop_in_place$LT$$u5b$std..sys..windows..process..Arg$u5d$$GT$17h5f5149ff60277975E@4HA"
.LBB29_7:
	movq	%rdx, 16(%rsp)
	pushq	%rbp
	.seh_pushreg %rbp
	subq	$32, %rsp
	.seh_stackalloc 32
	leaq	80(%rdx), %rbp
	.seh_endprologue
	addq	$32, %rsp
	popq	%rbp
	retq
.Ltmp85:
.Lfunc_end29:
	.seh_handlerdata
	.section	.text,"xr",one_only,_ZN4core3ptr62drop_in_place$LT$$u5b$std..sys..windows..process..Arg$u5d$$GT$17h5f5149ff60277975E
	.seh_endproc
	.section	.xdata,"dr",associative,_ZN4core3ptr62drop_in_place$LT$$u5b$std..sys..windows..process..Arg$u5d$$GT$17h5f5149ff60277975E
	.p2align	2
$cppxdata$_ZN4core3ptr62drop_in_place$LT$$u5b$std..sys..windows..process..Arg$u5d$$GT$17h5f5149ff60277975E:
	.long	429065506
	.long	2
	.long	($stateUnwindMap$_ZN4core3ptr62drop_in_place$LT$$u5b$std..sys..windows..process..Arg$u5d$$GT$17h5f5149ff60277975E)@IMGREL
	.long	0
	.long	0
	.long	3
	.long	($ip2state$_ZN4core3ptr62drop_in_place$LT$$u5b$std..sys..windows..process..Arg$u5d$$GT$17h5f5149ff60277975E)@IMGREL
	.long	72
	.long	0
	.long	1
$stateUnwindMap$_ZN4core3ptr62drop_in_place$LT$$u5b$std..sys..windows..process..Arg$u5d$$GT$17h5f5149ff60277975E:
	.long	-1
	.long	"?dtor$7@?0?_ZN4core3ptr62drop_in_place$LT$$u5b$std..sys..windows..process..Arg$u5d$$GT$17h5f5149ff60277975E@4HA"@IMGREL
	.long	0
	.long	"?dtor$5@?0?_ZN4core3ptr62drop_in_place$LT$$u5b$std..sys..windows..process..Arg$u5d$$GT$17h5f5149ff60277975E@4HA"@IMGREL
$ip2state$_ZN4core3ptr62drop_in_place$LT$$u5b$std..sys..windows..process..Arg$u5d$$GT$17h5f5149ff60277975E:
	.long	.Lfunc_begin29@IMGREL
	.long	-1
	.long	.Ltmp82@IMGREL+1
	.long	1
	.long	.Ltmp83@IMGREL+1
	.long	-1
	.section	.text,"xr",one_only,_ZN4core3ptr62drop_in_place$LT$$u5b$std..sys..windows..process..Arg$u5d$$GT$17h5f5149ff60277975E

	.def	_ZN4core3ptr62drop_in_place$LT$std..os..windows..io..handle..OwnedHandle$GT$17h535c7f08c41646b9E;
	.scl	3;
	.type	32;
	.endef
	.section	.text,"xr",one_only,_ZN4core3ptr62drop_in_place$LT$std..os..windows..io..handle..OwnedHandle$GT$17h535c7f08c41646b9E
	.p2align	4, 0x90
_ZN4core3ptr62drop_in_place$LT$std..os..windows..io..handle..OwnedHandle$GT$17h535c7f08c41646b9E:
.Lfunc_begin30:
	.cv_func_id 30
	.cv_loc	30 2 188 0
.seh_proc _ZN4core3ptr62drop_in_place$LT$std..os..windows..io..handle..OwnedHandle$GT$17h535c7f08c41646b9E
	subq	$40, %rsp
	.seh_stackalloc 40
	.seh_endprologue
	movq	%rcx, 32(%rsp)
.Ltmp86:
	callq	_ZN83_$LT$std..os..windows..io..handle..OwnedHandle$u20$as$u20$core..ops..drop..Drop$GT$4drop17hfbed61f1002f1a24E
	nop
	addq	$40, %rsp
	retq
.Ltmp87:
.Lfunc_end30:
	.seh_endproc

	.def	_ZN4core3ptr68drop_in_place$LT$alloc..boxed..Box$LT$std..io..error..Custom$GT$$GT$17hae43f0fc4164c9a5E;
	.scl	3;
	.type	32;
	.endef
	.section	.text,"xr",one_only,_ZN4core3ptr68drop_in_place$LT$alloc..boxed..Box$LT$std..io..error..Custom$GT$$GT$17hae43f0fc4164c9a5E
	.p2align	4, 0x90
_ZN4core3ptr68drop_in_place$LT$alloc..boxed..Box$LT$std..io..error..Custom$GT$$GT$17hae43f0fc4164c9a5E:
.Lfunc_begin31:
	.cv_func_id 31
	.cv_loc	31 2 188 0
.seh_proc _ZN4core3ptr68drop_in_place$LT$alloc..boxed..Box$LT$std..io..error..Custom$GT$$GT$17hae43f0fc4164c9a5E
	.seh_handler __CxxFrameHandler3, @unwind, @except
	pushq	%rbp
	.seh_pushreg %rbp
	subq	$64, %rsp
	.seh_stackalloc 64
	leaq	64(%rsp), %rbp
	.seh_setframe %rbp, 64
	.seh_endprologue
	movq	$-2, -8(%rbp)
	movq	%rcx, -24(%rbp)
	movq	%rcx, -16(%rbp)
.Ltmp90:
	movq	(%rcx), %rcx
.Ltmp88:
	callq	_ZN4core3ptr43drop_in_place$LT$std..io..error..Custom$GT$17hcdd8e37c0092c096E
.Ltmp89:
	jmp	.LBB31_1
.LBB31_1:
	movq	-24(%rbp), %rax
	movq	(%rax), %rcx
	callq	_ZN5alloc5alloc8box_free17h8f82ba223a192ae5E
	nop
	addq	$64, %rsp
	popq	%rbp
	retq
	.seh_handlerdata
	.long	($cppxdata$_ZN4core3ptr68drop_in_place$LT$alloc..boxed..Box$LT$std..io..error..Custom$GT$$GT$17hae43f0fc4164c9a5E)@IMGREL
	.section	.text,"xr",one_only,_ZN4core3ptr68drop_in_place$LT$alloc..boxed..Box$LT$std..io..error..Custom$GT$$GT$17hae43f0fc4164c9a5E
	.seh_endproc
	.def	"?dtor$2@?0?_ZN4core3ptr68drop_in_place$LT$alloc..boxed..Box$LT$std..io..error..Custom$GT$$GT$17hae43f0fc4164c9a5E@4HA";
	.scl	3;
	.type	32;
	.endef
	.p2align	4, 0x90
"?dtor$2@?0?_ZN4core3ptr68drop_in_place$LT$alloc..boxed..Box$LT$std..io..error..Custom$GT$$GT$17hae43f0fc4164c9a5E@4HA":
.seh_proc "?dtor$2@?0?_ZN4core3ptr68drop_in_place$LT$alloc..boxed..Box$LT$std..io..error..Custom$GT$$GT$17hae43f0fc4164c9a5E@4HA"
.LBB31_2:
	movq	%rdx, 16(%rsp)
	pushq	%rbp
	.seh_pushreg %rbp
	subq	$32, %rsp
	.seh_stackalloc 32
	leaq	64(%rdx), %rbp
	.seh_endprologue
	movq	-24(%rbp), %rax
	movq	(%rax), %rcx
	callq	_ZN5alloc5alloc8box_free17h8f82ba223a192ae5E
	nop
	addq	$32, %rsp
	popq	%rbp
	retq
.Ltmp91:
.Lfunc_end31:
	.seh_handlerdata
	.section	.text,"xr",one_only,_ZN4core3ptr68drop_in_place$LT$alloc..boxed..Box$LT$std..io..error..Custom$GT$$GT$17hae43f0fc4164c9a5E
	.seh_endproc
	.section	.xdata,"dr",associative,_ZN4core3ptr68drop_in_place$LT$alloc..boxed..Box$LT$std..io..error..Custom$GT$$GT$17hae43f0fc4164c9a5E
	.p2align	2
$cppxdata$_ZN4core3ptr68drop_in_place$LT$alloc..boxed..Box$LT$std..io..error..Custom$GT$$GT$17hae43f0fc4164c9a5E:
	.long	429065506
	.long	1
	.long	($stateUnwindMap$_ZN4core3ptr68drop_in_place$LT$alloc..boxed..Box$LT$std..io..error..Custom$GT$$GT$17hae43f0fc4164c9a5E)@IMGREL
	.long	0
	.long	0
	.long	3
	.long	($ip2state$_ZN4core3ptr68drop_in_place$LT$alloc..boxed..Box$LT$std..io..error..Custom$GT$$GT$17hae43f0fc4164c9a5E)@IMGREL
	.long	56
	.long	0
	.long	1
$stateUnwindMap$_ZN4core3ptr68drop_in_place$LT$alloc..boxed..Box$LT$std..io..error..Custom$GT$$GT$17hae43f0fc4164c9a5E:
	.long	-1
	.long	"?dtor$2@?0?_ZN4core3ptr68drop_in_place$LT$alloc..boxed..Box$LT$std..io..error..Custom$GT$$GT$17hae43f0fc4164c9a5E@4HA"@IMGREL
$ip2state$_ZN4core3ptr68drop_in_place$LT$alloc..boxed..Box$LT$std..io..error..Custom$GT$$GT$17hae43f0fc4164c9a5E:
	.long	.Lfunc_begin31@IMGREL
	.long	-1
	.long	.Ltmp88@IMGREL+1
	.long	0
	.long	.Ltmp89@IMGREL+1
	.long	-1
	.section	.text,"xr",one_only,_ZN4core3ptr68drop_in_place$LT$alloc..boxed..Box$LT$std..io..error..Custom$GT$$GT$17hae43f0fc4164c9a5E

	.def	_ZN4core3ptr72drop_in_place$LT$alloc..collections..btree..mem..replace..PanicGuard$GT$17h780a2d0d41d90d8aE;
	.scl	3;
	.type	32;
	.endef
	.section	.text,"xr",one_only,_ZN4core3ptr72drop_in_place$LT$alloc..collections..btree..mem..replace..PanicGuard$GT$17h780a2d0d41d90d8aE
	.p2align	4, 0x90
_ZN4core3ptr72drop_in_place$LT$alloc..collections..btree..mem..replace..PanicGuard$GT$17h780a2d0d41d90d8aE:
.Lfunc_begin32:
	.cv_func_id 32
	.cv_loc	32 2 188 0
.seh_proc _ZN4core3ptr72drop_in_place$LT$alloc..collections..btree..mem..replace..PanicGuard$GT$17h780a2d0d41d90d8aE
	subq	$40, %rsp
	.seh_stackalloc 40
	.seh_endprologue
	movq	%rcx, 32(%rsp)
.Ltmp92:
	callq	_ZN93_$LT$alloc..collections..btree..mem..replace..PanicGuard$u20$as$u20$core..ops..drop..Drop$GT$4drop17ha539d1d376c6448eE
	nop
	addq	$40, %rsp
	retq
.Ltmp93:
.Lfunc_end32:
	.seh_endproc

	.def	_ZN4core3ptr75drop_in_place$LT$alloc..vec..Vec$LT$std..sys..windows..process..Arg$GT$$GT$17h9bcface158a2fa84E;
	.scl	3;
	.type	32;
	.endef
	.section	.text,"xr",one_only,_ZN4core3ptr75drop_in_place$LT$alloc..vec..Vec$LT$std..sys..windows..process..Arg$GT$$GT$17h9bcface158a2fa84E
	.p2align	4, 0x90
_ZN4core3ptr75drop_in_place$LT$alloc..vec..Vec$LT$std..sys..windows..process..Arg$GT$$GT$17h9bcface158a2fa84E:
.Lfunc_begin33:
	.cv_func_id 33
	.cv_loc	33 2 188 0
.seh_proc _ZN4core3ptr75drop_in_place$LT$alloc..vec..Vec$LT$std..sys..windows..process..Arg$GT$$GT$17h9bcface158a2fa84E
	.seh_handler __CxxFrameHandler3, @unwind, @except
	pushq	%rbp
	.seh_pushreg %rbp
	subq	$64, %rsp
	.seh_stackalloc 64
	leaq	64(%rsp), %rbp
	.seh_setframe %rbp, 64
	.seh_endprologue
	movq	$-2, -8(%rbp)
	movq	%rcx, -24(%rbp)
	movq	%rcx, -16(%rbp)
.Ltmp94:
.Ltmp96:
	callq	_ZN70_$LT$alloc..vec..Vec$LT$T$C$A$GT$$u20$as$u20$core..ops..drop..Drop$GT$4drop17h911d56999efa67daE
.Ltmp95:
	jmp	.LBB33_1
.LBB33_1:
	movq	-24(%rbp), %rcx
	callq	_ZN4core3ptr82drop_in_place$LT$alloc..raw_vec..RawVec$LT$std..sys..windows..process..Arg$GT$$GT$17h88d64ea6c17dc273E
	nop
	addq	$64, %rsp
	popq	%rbp
	retq
	.seh_handlerdata
	.long	($cppxdata$_ZN4core3ptr75drop_in_place$LT$alloc..vec..Vec$LT$std..sys..windows..process..Arg$GT$$GT$17h9bcface158a2fa84E)@IMGREL
	.section	.text,"xr",one_only,_ZN4core3ptr75drop_in_place$LT$alloc..vec..Vec$LT$std..sys..windows..process..Arg$GT$$GT$17h9bcface158a2fa84E
	.seh_endproc
	.def	"?dtor$2@?0?_ZN4core3ptr75drop_in_place$LT$alloc..vec..Vec$LT$std..sys..windows..process..Arg$GT$$GT$17h9bcface158a2fa84E@4HA";
	.scl	3;
	.type	32;
	.endef
	.p2align	4, 0x90
"?dtor$2@?0?_ZN4core3ptr75drop_in_place$LT$alloc..vec..Vec$LT$std..sys..windows..process..Arg$GT$$GT$17h9bcface158a2fa84E@4HA":
.seh_proc "?dtor$2@?0?_ZN4core3ptr75drop_in_place$LT$alloc..vec..Vec$LT$std..sys..windows..process..Arg$GT$$GT$17h9bcface158a2fa84E@4HA"
.LBB33_2:
	movq	%rdx, 16(%rsp)
	pushq	%rbp
	.seh_pushreg %rbp
	subq	$32, %rsp
	.seh_stackalloc 32
	leaq	64(%rdx), %rbp
	.seh_endprologue
	movq	-24(%rbp), %rcx
	callq	_ZN4core3ptr82drop_in_place$LT$alloc..raw_vec..RawVec$LT$std..sys..windows..process..Arg$GT$$GT$17h88d64ea6c17dc273E
	nop
	addq	$32, %rsp
	popq	%rbp
	retq
.Ltmp97:
.Lfunc_end33:
	.seh_handlerdata
	.section	.text,"xr",one_only,_ZN4core3ptr75drop_in_place$LT$alloc..vec..Vec$LT$std..sys..windows..process..Arg$GT$$GT$17h9bcface158a2fa84E
	.seh_endproc
	.section	.xdata,"dr",associative,_ZN4core3ptr75drop_in_place$LT$alloc..vec..Vec$LT$std..sys..windows..process..Arg$GT$$GT$17h9bcface158a2fa84E
	.p2align	2
$cppxdata$_ZN4core3ptr75drop_in_place$LT$alloc..vec..Vec$LT$std..sys..windows..process..Arg$GT$$GT$17h9bcface158a2fa84E:
	.long	429065506
	.long	1
	.long	($stateUnwindMap$_ZN4core3ptr75drop_in_place$LT$alloc..vec..Vec$LT$std..sys..windows..process..Arg$GT$$GT$17h9bcface158a2fa84E)@IMGREL
	.long	0
	.long	0
	.long	3
	.long	($ip2state$_ZN4core3ptr75drop_in_place$LT$alloc..vec..Vec$LT$std..sys..windows..process..Arg$GT$$GT$17h9bcface158a2fa84E)@IMGREL
	.long	56
	.long	0
	.long	1
$stateUnwindMap$_ZN4core3ptr75drop_in_place$LT$alloc..vec..Vec$LT$std..sys..windows..process..Arg$GT$$GT$17h9bcface158a2fa84E:
	.long	-1
	.long	"?dtor$2@?0?_ZN4core3ptr75drop_in_place$LT$alloc..vec..Vec$LT$std..sys..windows..process..Arg$GT$$GT$17h9bcface158a2fa84E@4HA"@IMGREL
$ip2state$_ZN4core3ptr75drop_in_place$LT$alloc..vec..Vec$LT$std..sys..windows..process..Arg$GT$$GT$17h9bcface158a2fa84E:
	.long	.Lfunc_begin33@IMGREL
	.long	-1
	.long	.Ltmp94@IMGREL+1
	.long	0
	.long	.Ltmp95@IMGREL+1
	.long	-1
	.section	.text,"xr",one_only,_ZN4core3ptr75drop_in_place$LT$alloc..vec..Vec$LT$std..sys..windows..process..Arg$GT$$GT$17h9bcface158a2fa84E

	.def	_ZN4core3ptr75drop_in_place$LT$core..option..Option$LT$std..ffi..os_str..OsString$GT$$GT$17h60b07b29e7caa437E;
	.scl	3;
	.type	32;
	.endef
	.section	.text,"xr",one_only,_ZN4core3ptr75drop_in_place$LT$core..option..Option$LT$std..ffi..os_str..OsString$GT$$GT$17h60b07b29e7caa437E
	.p2align	4, 0x90
_ZN4core3ptr75drop_in_place$LT$core..option..Option$LT$std..ffi..os_str..OsString$GT$$GT$17h60b07b29e7caa437E:
.Lfunc_begin34:
	.cv_func_id 34
	.cv_loc	34 2 188 0
.seh_proc _ZN4core3ptr75drop_in_place$LT$core..option..Option$LT$std..ffi..os_str..OsString$GT$$GT$17h60b07b29e7caa437E
	subq	$56, %rsp
	.seh_stackalloc 56
	.seh_endprologue
	movq	%rcx, %rdx
	movq	%rdx, 40(%rsp)
	movq	%rdx, 48(%rsp)
.Ltmp98:
	movl	$1, %eax
	xorl	%ecx, %ecx
	cmpq	$0, (%rdx)
	cmoveq	%rcx, %rax
	cmpq	$0, %rax
	jne	.LBB34_2
.LBB34_1:
	addq	$56, %rsp
	retq
.LBB34_2:
	movq	40(%rsp), %rcx
	callq	_ZN4core3ptr47drop_in_place$LT$std..ffi..os_str..OsString$GT$17h4982aee5e04b1115E
	jmp	.LBB34_1
.Ltmp99:
.Lfunc_end34:
	.seh_endproc

	.def	_ZN4core3ptr82drop_in_place$LT$alloc..raw_vec..RawVec$LT$std..sys..windows..process..Arg$GT$$GT$17h88d64ea6c17dc273E;
	.scl	3;
	.type	32;
	.endef
	.section	.text,"xr",one_only,_ZN4core3ptr82drop_in_place$LT$alloc..raw_vec..RawVec$LT$std..sys..windows..process..Arg$GT$$GT$17h88d64ea6c17dc273E
	.p2align	4, 0x90
_ZN4core3ptr82drop_in_place$LT$alloc..raw_vec..RawVec$LT$std..sys..windows..process..Arg$GT$$GT$17h88d64ea6c17dc273E:
.Lfunc_begin35:
	.cv_func_id 35
	.cv_loc	35 2 188 0
.seh_proc _ZN4core3ptr82drop_in_place$LT$alloc..raw_vec..RawVec$LT$std..sys..windows..process..Arg$GT$$GT$17h88d64ea6c17dc273E
	subq	$40, %rsp
	.seh_stackalloc 40
	.seh_endprologue
	movq	%rcx, 32(%rsp)
.Ltmp100:
	callq	_ZN77_$LT$alloc..raw_vec..RawVec$LT$T$C$A$GT$$u20$as$u20$core..ops..drop..Drop$GT$4drop17hb00b2b3d073681c1E
	nop
	addq	$40, %rsp
	retq
.Ltmp101:
.Lfunc_end35:
	.seh_endproc

	.def	_ZN4core3ptr82drop_in_place$LT$core..option..Option$LT$std..sys..windows..process..Stdio$GT$$GT$17h554098c7741f8776E;
	.scl	3;
	.type	32;
	.endef
	.section	.text,"xr",one_only,_ZN4core3ptr82drop_in_place$LT$core..option..Option$LT$std..sys..windows..process..Stdio$GT$$GT$17h554098c7741f8776E
	.p2align	4, 0x90
_ZN4core3ptr82drop_in_place$LT$core..option..Option$LT$std..sys..windows..process..Stdio$GT$$GT$17h554098c7741f8776E:
.Lfunc_begin36:
	.cv_func_id 36
	.cv_loc	36 2 188 0
.seh_proc _ZN4core3ptr82drop_in_place$LT$core..option..Option$LT$std..sys..windows..process..Stdio$GT$$GT$17h554098c7741f8776E
	subq	$56, %rsp
	.seh_stackalloc 56
	.seh_endprologue
	movq	%rcx, 40(%rsp)
	movq	%rcx, 48(%rsp)
.Ltmp102:
	movq	(%rcx), %rdx
	subq	$4, %rdx
	movl	$1, %eax
	xorl	%ecx, %ecx
	cmpq	$0, %rdx
	cmoveq	%rcx, %rax
	cmpq	$0, %rax
	jne	.LBB36_2
.LBB36_1:
	addq	$56, %rsp
	retq
.LBB36_2:
	movq	40(%rsp), %rcx
	callq	_ZN4core3ptr54drop_in_place$LT$std..sys..windows..process..Stdio$GT$17h137171c79e6788f6E
	jmp	.LBB36_1
.Ltmp103:
.Lfunc_end36:
	.seh_endproc

	.def	_ZN4core3ptr85drop_in_place$LT$std..rt..lang_start$LT$$LP$$RP$$GT$..$u7b$$u7b$closure$u7d$$u7d$$GT$17h73804bdbe39af9c5E;
	.scl	3;
	.type	32;
	.endef
	.section	.text,"xr",one_only,_ZN4core3ptr85drop_in_place$LT$std..rt..lang_start$LT$$LP$$RP$$GT$..$u7b$$u7b$closure$u7d$$u7d$$GT$17h73804bdbe39af9c5E
	.p2align	4, 0x90
_ZN4core3ptr85drop_in_place$LT$std..rt..lang_start$LT$$LP$$RP$$GT$..$u7b$$u7b$closure$u7d$$u7d$$GT$17h73804bdbe39af9c5E:
.Lfunc_begin37:
	.cv_func_id 37
	.cv_loc	37 2 188 0
.seh_proc _ZN4core3ptr85drop_in_place$LT$std..rt..lang_start$LT$$LP$$RP$$GT$..$u7b$$u7b$closure$u7d$$u7d$$GT$17h73804bdbe39af9c5E
	pushq	%rax
	.seh_stackalloc 8
	.seh_endprologue
	movq	%rcx, (%rsp)
.Ltmp104:
	popq	%rax
	retq
.Ltmp105:
.Lfunc_end37:
	.seh_endproc

	.def	_ZN4core3ptr92drop_in_place$LT$dyn$u20$std..error..Error$u2b$core..marker..Send$u2b$core..marker..Sync$GT$17h2c4efe6b281d4c10E;
	.scl	3;
	.type	32;
	.endef
	.section	.text,"xr",one_only,_ZN4core3ptr92drop_in_place$LT$dyn$u20$std..error..Error$u2b$core..marker..Send$u2b$core..marker..Sync$GT$17h2c4efe6b281d4c10E
	.p2align	4, 0x90
_ZN4core3ptr92drop_in_place$LT$dyn$u20$std..error..Error$u2b$core..marker..Send$u2b$core..marker..Sync$GT$17h2c4efe6b281d4c10E:
.Lfunc_begin38:
	.cv_func_id 38
	.cv_loc	38 2 188 0
.seh_proc _ZN4core3ptr92drop_in_place$LT$dyn$u20$std..error..Error$u2b$core..marker..Send$u2b$core..marker..Sync$GT$17h2c4efe6b281d4c10E
	subq	$56, %rsp
	.seh_stackalloc 56
	.seh_endprologue
	movq	%rcx, 40(%rsp)
	movq	%rdx, 48(%rsp)
.Ltmp106:
	callq	*(%rdx)
	nop
	addq	$56, %rsp
	retq
.Ltmp107:
.Lfunc_end38:
	.seh_endproc

	.def	_ZN4core3ptr93drop_in_place$LT$core..result..Result$LT$std..process..Output$C$std..io..error..Error$GT$$GT$17h0d7228e08cedd04eE;
	.scl	3;
	.type	32;
	.endef
	.section	.text,"xr",one_only,_ZN4core3ptr93drop_in_place$LT$core..result..Result$LT$std..process..Output$C$std..io..error..Error$GT$$GT$17h0d7228e08cedd04eE
	.p2align	4, 0x90
_ZN4core3ptr93drop_in_place$LT$core..result..Result$LT$std..process..Output$C$std..io..error..Error$GT$$GT$17h0d7228e08cedd04eE:
.Lfunc_begin39:
	.cv_func_id 39
	.cv_loc	39 2 188 0
.seh_proc _ZN4core3ptr93drop_in_place$LT$core..result..Result$LT$std..process..Output$C$std..io..error..Error$GT$$GT$17h0d7228e08cedd04eE
	subq	$56, %rsp
	.seh_stackalloc 56
	.seh_endprologue
	movq	%rcx, 40(%rsp)
	movq	%rcx, 48(%rsp)
.Ltmp108:
	cmpq	$0, (%rcx)
	jne	.LBB39_2
	movq	40(%rsp), %rcx
	addq	$8, %rcx
	callq	_ZN4core3ptr41drop_in_place$LT$std..process..Output$GT$17hd08ec086d6f1bd8eE
	jmp	.LBB39_3
.LBB39_2:
	movq	40(%rsp), %rcx
	addq	$8, %rcx
	callq	_ZN4core3ptr42drop_in_place$LT$std..io..error..Error$GT$17hb48643a2ed24e6a1E
.LBB39_3:
	nop
	addq	$56, %rsp
	retq
.Ltmp109:
.Lfunc_end39:
	.seh_endproc

	.def	_ZN18build_script_build4main17hf9286fccb8a300a7E;
	.scl	3;
	.type	32;
	.endef
	.section	.text,"xr",one_only,_ZN18build_script_build4main17hf9286fccb8a300a7E
	.p2align	4, 0x90
_ZN18build_script_build4main17hf9286fccb8a300a7E:
.Lfunc_begin40:
	.cv_func_id 40
	.cv_file	3 "C:\\Users\\cires\\.cargo\\registry\\src\\github.com-1ecc6299db9ec823\\proc-macro2-1.0.71\\build.rs" "CDCDB8D62E579076A5D90268B6B2D0B53313E8C5" 2
	.cv_loc	40 3 42 0
.seh_proc _ZN18build_script_build4main17hf9286fccb8a300a7E
	.seh_handler __CxxFrameHandler3, @unwind, @except
	pushq	%rbp
	.seh_pushreg %rbp
	subq	$544, %rsp
	.seh_stackalloc 544
	leaq	128(%rsp), %rbp
	.seh_setframe %rbp, 128
	.seh_endprologue
.Ltmp112:
	.cv_loc	40 3 43 0
	movq	$-2, 408(%rbp)
	movq	%rsp, %rax
	movq	$0, 32(%rax)
	leaq	__unnamed_1(%rip), %rdx
	leaq	__unnamed_2(%rip), %r9
	leaq	-56(%rbp), %rcx
	movq	%rcx, -88(%rbp)
	movl	$1, %r8d
	callq	_ZN4core3fmt9Arguments6new_v117ha3075d82a03293a3E
	movq	-88(%rbp), %rcx
	callq	_ZN3std2io5stdio6_print17h732a5716fab65305E
	.cv_loc	40 3 45 0
	callq	_ZN18build_script_build13rustc_version17h821a07d036f0e4bdE
	movl	%eax, %ecx
	movl	$-1, -8(%rbp)
	movb	$0, -4(%rbp)
	movl	-8(%rbp), %r8d
	movb	-4(%rbp), %r9b
	callq	_ZN4core6option15Option$LT$T$GT$9unwrap_or17h134921162f81cd88E
	movl	%eax, %ecx
	movl	%ecx, -80(%rbp)
	movb	%dl, %cl
	movb	%cl, -73(%rbp)
	movl	%eax, 392(%rbp)
	andb	$1, %dl
	movb	%dl, 396(%rbp)
.Ltmp113:
	.cv_loc	40 3 50 0
	leaq	__unnamed_3(%rip), %rdx
	movq	%rbp, %rcx
	movq	%rcx, -72(%rbp)
	movl	$7, %r8d
	callq	_ZN3std3env6var_os17ha145d4e3e1aa1f1bE
	movq	-72(%rbp), %rcx
.Ltmp110:
	callq	_ZN4core6option15Option$LT$T$GT$7is_some17h55be8a53955dc455E
.Ltmp111:
	movb	%al, -57(%rbp)
	jmp	.LBB40_1
.LBB40_1:
	movb	-57(%rbp), %al
	andb	$1, %al
	movb	%al, 406(%rbp)
	movq	%rbp, %rcx
	callq	_ZN4core3ptr75drop_in_place$LT$core..option..Option$LT$std..ffi..os_str..OsString$GT$$GT$17h60b07b29e7caa437E
	movb	-57(%rbp), %al
.Ltmp114:
	.cv_loc	40 3 51 0
	movb	%al, %cl
	andb	$1, %cl
	movb	%cl, 407(%rbp)
.Ltmp115:
	.cv_loc	40 3 52 0
	testb	$1, %al
	jne	.LBB40_4
	jmp	.LBB40_3
.LBB40_3:
	.cv_loc	40 3 57 0
	movb	-57(%rbp), %al
	testb	$1, %al
	jne	.LBB40_6
	jmp	.LBB40_5
.LBB40_4:
	.cv_loc	40 3 54 0
	leaq	24(%rbp), %rcx
	leaq	__unnamed_4(%rip), %rdx
	movl	$1, %r8d
	leaq	__unnamed_2(%rip), %r9
	xorl	%eax, %eax
	movq	$0, 32(%rsp)
	callq	_ZN4core3fmt9Arguments6new_v117ha3075d82a03293a3E
	leaq	24(%rbp), %rcx
	callq	_ZN3std2io5stdio6_print17h732a5716fab65305E
	jmp	.LBB40_3
.LBB40_5:
	.cv_loc	40 3 57 0
	movb	$0, 79(%rbp)
	jmp	.LBB40_7
.LBB40_6:
	movb	$1, 79(%rbp)
.LBB40_7:
	testb	$1, 79(%rbp)
	jne	.LBB40_9
.LBB40_8:
	.cv_loc	40 3 61 0
	movl	-80(%rbp), %eax
	cmpl	$57, %eax
	jb	.LBB40_11
	jmp	.LBB40_10
.LBB40_9:
	.cv_loc	40 3 58 0
	leaq	80(%rbp), %rcx
	leaq	__unnamed_5(%rip), %rdx
	movl	$1, %r8d
	leaq	__unnamed_2(%rip), %r9
	xorl	%eax, %eax
	movq	$0, 32(%rsp)
	callq	_ZN4core3fmt9Arguments6new_v117ha3075d82a03293a3E
	leaq	80(%rbp), %rcx
	callq	_ZN3std2io5stdio6_print17h732a5716fab65305E
	jmp	.LBB40_8
.LBB40_10:
	.cv_loc	40 3 65 0
	movl	-80(%rbp), %eax
	cmpl	$66, %eax
	jb	.LBB40_13
	jmp	.LBB40_12
.LBB40_11:
	.cv_loc	40 3 62 0
	leaq	128(%rbp), %rcx
	leaq	__unnamed_6(%rip), %rdx
	movl	$1, %r8d
	leaq	__unnamed_2(%rip), %r9
	xorl	%eax, %eax
	movq	$0, 32(%rsp)
	callq	_ZN4core3fmt9Arguments6new_v117ha3075d82a03293a3E
	leaq	128(%rbp), %rcx
	callq	_ZN3std2io5stdio6_print17h732a5716fab65305E
	jmp	.LBB40_10
.LBB40_12:
	.cv_loc	40 3 73 0
	movb	-73(%rbp), %al
	testb	$1, %al
	jne	.LBB40_15
	jmp	.LBB40_14
.LBB40_13:
	.cv_loc	40 3 66 0
	leaq	176(%rbp), %rcx
	leaq	__unnamed_7(%rip), %rdx
	movl	$1, %r8d
	leaq	__unnamed_2(%rip), %r9
	xorl	%eax, %eax
	movq	$0, 32(%rsp)
	callq	_ZN4core3fmt9Arguments6new_v117ha3075d82a03293a3E
	leaq	176(%rbp), %rcx
	callq	_ZN3std2io5stdio6_print17h732a5716fab65305E
	jmp	.LBB40_12
.LBB40_14:
	.cv_loc	40 3 73 0
	movb	-57(%rbp), %al
	xorb	$-1, %al
	andb	$1, %al
	movb	%al, 231(%rbp)
	jmp	.LBB40_16
.LBB40_15:
	movb	$1, 231(%rbp)
.LBB40_16:
	testb	$1, 231(%rbp)
	jne	.LBB40_18
.LBB40_17:
	.cv_loc	40 3 77 0
	movb	-73(%rbp), %al
	testb	$1, %al
	jne	.LBB40_20
	jmp	.LBB40_19
.LBB40_18:
	.cv_loc	40 3 74 0
	leaq	232(%rbp), %rcx
	leaq	__unnamed_8(%rip), %rdx
	movl	$1, %r8d
	leaq	__unnamed_2(%rip), %r9
	xorl	%eax, %eax
	movq	$0, 32(%rsp)
	callq	_ZN4core3fmt9Arguments6new_v117ha3075d82a03293a3E
	leaq	232(%rbp), %rcx
	callq	_ZN3std2io5stdio6_print17h732a5716fab65305E
	jmp	.LBB40_17
.LBB40_19:
	.cv_loc	40 3 77 0
	movb	$0, 287(%rbp)
	jmp	.LBB40_21
.LBB40_20:
	leaq	__unnamed_9(%rip), %rcx
	movl	$15, %edx
	callq	_ZN18build_script_build15feature_allowed17hf7396e609c05227dE
	andb	$1, %al
	movb	%al, 287(%rbp)
.LBB40_21:
	testb	$1, 287(%rbp)
	jne	.LBB40_23
.LBB40_22:
	.cv_loc	40 3 81 0
	movb	-57(%rbp), %al
	testb	$1, %al
	jne	.LBB40_25
	jmp	.LBB40_24
.LBB40_23:
	.cv_loc	40 3 78 0
	leaq	288(%rbp), %rcx
	leaq	__unnamed_10(%rip), %rdx
	movl	$1, %r8d
	leaq	__unnamed_2(%rip), %r9
	xorl	%eax, %eax
	movq	$0, 32(%rsp)
	callq	_ZN4core3fmt9Arguments6new_v117ha3075d82a03293a3E
	leaq	288(%rbp), %rcx
	callq	_ZN3std2io5stdio6_print17h732a5716fab65305E
	jmp	.LBB40_22
.LBB40_24:
	.cv_loc	40 3 81 0
	movb	$0, 343(%rbp)
	jmp	.LBB40_26
.LBB40_25:
	movb	-73(%rbp), %al
	andb	$1, %al
	movb	%al, 343(%rbp)
.LBB40_26:
	testb	$1, 343(%rbp)
	jne	.LBB40_28
.Ltmp116:
.LBB40_27:
	.cv_loc	40 3 84 0
	addq	$544, %rsp
	popq	%rbp
	retq
.LBB40_28:
.Ltmp117:
	.cv_loc	40 3 82 0
	leaq	344(%rbp), %rcx
	leaq	__unnamed_11(%rip), %rdx
	movl	$1, %r8d
	leaq	__unnamed_2(%rip), %r9
	xorl	%eax, %eax
	movq	$0, 32(%rsp)
	callq	_ZN4core3fmt9Arguments6new_v117ha3075d82a03293a3E
	leaq	344(%rbp), %rcx
	callq	_ZN3std2io5stdio6_print17h732a5716fab65305E
	jmp	.LBB40_27
.Ltmp118:
	.seh_handlerdata
	.long	($cppxdata$_ZN18build_script_build4main17hf9286fccb8a300a7E)@IMGREL
	.section	.text,"xr",one_only,_ZN18build_script_build4main17hf9286fccb8a300a7E
	.seh_endproc
	.def	"?dtor$2@?0?_ZN18build_script_build4main17hf9286fccb8a300a7E@4HA";
	.scl	3;
	.type	32;
	.endef
	.p2align	4, 0x90
"?dtor$2@?0?_ZN18build_script_build4main17hf9286fccb8a300a7E@4HA":
.seh_proc "?dtor$2@?0?_ZN18build_script_build4main17hf9286fccb8a300a7E@4HA"
.LBB40_2:
	movq	%rdx, 16(%rsp)
	pushq	%rbp
	.seh_pushreg %rbp
	subq	$48, %rsp
	.seh_stackalloc 48
	leaq	128(%rdx), %rbp
	.seh_endprologue
	movq	%rbp, %rcx
	.cv_loc	40 3 50 0
	callq	_ZN4core3ptr75drop_in_place$LT$core..option..Option$LT$std..ffi..os_str..OsString$GT$$GT$17h60b07b29e7caa437E
.Ltmp119:
	.cv_loc	40 3 42 0
	nop
	addq	$48, %rsp
	popq	%rbp
	retq
.Ltmp120:
.Lfunc_end40:
	.seh_handlerdata
	.section	.text,"xr",one_only,_ZN18build_script_build4main17hf9286fccb8a300a7E
	.seh_endproc
	.section	.xdata,"dr",associative,_ZN18build_script_build4main17hf9286fccb8a300a7E
	.p2align	2
$cppxdata$_ZN18build_script_build4main17hf9286fccb8a300a7E:
	.long	429065506
	.long	1
	.long	($stateUnwindMap$_ZN18build_script_build4main17hf9286fccb8a300a7E)@IMGREL
	.long	0
	.long	0
	.long	3
	.long	($ip2state$_ZN18build_script_build4main17hf9286fccb8a300a7E)@IMGREL
	.long	536
	.long	0
	.long	1
$stateUnwindMap$_ZN18build_script_build4main17hf9286fccb8a300a7E:
	.long	-1
	.long	"?dtor$2@?0?_ZN18build_script_build4main17hf9286fccb8a300a7E@4HA"@IMGREL
$ip2state$_ZN18build_script_build4main17hf9286fccb8a300a7E:
	.long	.Lfunc_begin40@IMGREL
	.long	-1
	.long	.Ltmp110@IMGREL+1
	.long	0
	.long	.Ltmp111@IMGREL+1
	.long	-1
	.section	.text,"xr",one_only,_ZN18build_script_build4main17hf9286fccb8a300a7E

	.def	_ZN18build_script_build13rustc_version17h821a07d036f0e4bdE;
	.scl	3;
	.type	32;
	.endef
	.section	.text,"xr",one_only,_ZN18build_script_build13rustc_version17h821a07d036f0e4bdE
	.p2align	4, 0x90
_ZN18build_script_build13rustc_version17h821a07d036f0e4bdE:
.Lfunc_begin41:
	.cv_func_id 41
	.cv_loc	41 3 91 0
.seh_proc _ZN18build_script_build13rustc_version17h821a07d036f0e4bdE
	.seh_handler __CxxFrameHandler3, @unwind, @except
	pushq	%rbp
	.seh_pushreg %rbp
	subq	$1104, %rsp
	.seh_stackalloc 1104
	leaq	128(%rsp), %rbp
	.seh_setframe %rbp, 128
	.seh_endprologue
.Ltmp175:
	.cv_loc	41 3 92 0
	movq	$-2, 968(%rbp)
	movb	$0, 903(%rbp)
	leaq	__unnamed_12(%rip), %rdx
	leaq	168(%rbp), %rcx
	movq	%rcx, 96(%rbp)
	movl	$5, %r8d
	callq	_ZN3std3env6var_os17ha145d4e3e1aa1f1bE
	movq	96(%rbp), %rdx
	leaq	144(%rbp), %rcx
	callq	_ZN75_$LT$core..option..Option$LT$T$GT$$u20$as$u20$core..ops..try_trait..Try$GT$6branch17h6c8ab6cfff922ff9E
	movq	144(%rbp), %rax
	testq	%rax, %rax
	sete	%al
	movzbl	%al, %eax
	jne	.LBB41_2
	jmp	.LBB41_55
.LBB41_55:
	jmp	.LBB41_3
	ud2
.LBB41_2:
	movq	160(%rbp), %rax
	movq	%rax, 208(%rbp)
	vmovdqu	144(%rbp), %xmm0
	vmovdqa	%xmm0, 192(%rbp)
.Ltmp176:
	.cv_loc	41 3 92 0
	movb	$1, 903(%rbp)
	movq	208(%rbp), %rax
	movq	%rax, 128(%rbp)
	vmovdqa	192(%rbp), %xmm0
	vmovdqa	%xmm0, 112(%rbp)
.Ltmp177:
	.cv_loc	41 3 93 0
	movb	$0, 903(%rbp)
	movq	128(%rbp), %rax
	movq	%rax, 640(%rbp)
	vmovdqa	112(%rbp), %xmm0
	vmovdqa	%xmm0, 624(%rbp)
.Ltmp121:
	leaq	464(%rbp), %rcx
	leaq	624(%rbp), %rdx
	callq	_ZN3std7process7Command3new17h3a579c8cae901135E
.Ltmp122:
	jmp	.LBB41_5
.Ltmp178:
.LBB41_3:
	.cv_loc	41 3 92 0
	callq	_ZN84_$LT$core..option..Option$LT$T$GT$$u20$as$u20$core..ops..try_trait..FromResidual$GT$13from_residual17hceadfe0f98ed5967E
	movb	%dl, 108(%rbp)
	movl	%eax, 104(%rbp)
.Ltmp179:
.LBB41_4:
	.cv_loc	41 3 102 0
	movb	$0, 903(%rbp)
	jmp	.LBB41_51
.LBB41_5:
	.cv_loc	41 3 93 0
.Ltmp123:
.Ltmp180:
	leaq	__unnamed_13(%rip), %rdx
	leaq	464(%rbp), %rcx
	movl	$9, %r8d
	callq	_ZN3std7process7Command3arg17hcf470ed760f672c8E
.Ltmp124:
	movq	%rax, 88(%rbp)
	jmp	.LBB41_7
.LBB41_7:
.Ltmp125:
	movq	88(%rbp), %rdx
	leaq	400(%rbp), %rcx
	callq	_ZN3std7process7Command6output17h05f3ff2a8f5c5e1aE
.Ltmp126:
	jmp	.LBB41_9
.LBB41_9:
.Ltmp127:
	leaq	344(%rbp), %rcx
	leaq	400(%rbp), %rdx
	callq	_ZN4core6result19Result$LT$T$C$E$GT$2ok17he705e6019bdaccf5E
.Ltmp128:
	jmp	.LBB41_10
.LBB41_10:
.Ltmp129:
	leaq	288(%rbp), %rcx
	leaq	344(%rbp), %rdx
	callq	_ZN75_$LT$core..option..Option$LT$T$GT$$u20$as$u20$core..ops..try_trait..Try$GT$6branch17h20f087cdad748a52E
.Ltmp130:
	jmp	.LBB41_11
.LBB41_11:
	movq	288(%rbp), %rax
	testq	%rax, %rax
	sete	%al
	movzbl	%al, %eax
	jne	.LBB41_13
	jmp	.LBB41_56
.LBB41_56:
	jmp	.LBB41_14
	ud2
.LBB41_13:
	vmovups	288(%rbp), %ymm0
	vmovups	312(%rbp), %ymm1
	vmovups	%ymm1, 680(%rbp)
	vmovups	%ymm0, 656(%rbp)
.Ltmp181:
	.cv_loc	41 3 93 0
	vmovups	656(%rbp), %ymm0
	vmovups	680(%rbp), %ymm1
	vmovups	%ymm1, 248(%rbp)
	vmovups	%ymm0, 224(%rbp)
	.cv_loc	41 3 93 0
.Ltmp135:
	leaq	464(%rbp), %rcx
.Ltmp182:
	vzeroupper
	callq	_ZN4core3ptr42drop_in_place$LT$std..process..Command$GT$17h162875bf1eaf91e2E
.Ltmp136:
	jmp	.LBB41_17
.LBB41_14:
	.cv_loc	41 3 93 0
.Ltmp131:
.Ltmp183:
	callq	_ZN84_$LT$core..option..Option$LT$T$GT$$u20$as$u20$core..ops..try_trait..FromResidual$GT$13from_residual17hceadfe0f98ed5967E
.Ltmp132:
	movb	%dl, 83(%rbp)
	movl	%eax, 84(%rbp)
	jmp	.LBB41_15
.LBB41_15:
	movb	83(%rbp), %al
	movl	84(%rbp), %ecx
	movl	%ecx, 104(%rbp)
	movb	%al, 108(%rbp)
	.cv_loc	41 3 93 0
.Ltmp133:
	leaq	464(%rbp), %rcx
.Ltmp184:
	callq	_ZN4core3ptr42drop_in_place$LT$std..process..Command$GT$17h162875bf1eaf91e2E
.Ltmp134:
	jmp	.LBB41_4
.LBB41_17:
	.cv_loc	41 3 94 0
.Ltmp137:
	leaq	224(%rbp), %rcx
.Ltmp185:
	callq	_ZN72_$LT$alloc..vec..Vec$LT$T$C$A$GT$$u20$as$u20$core..ops..deref..Deref$GT$5deref17h02c6ebaf9bfd61d3E
.Ltmp138:
	movq	%rdx, 64(%rbp)
	movq	%rax, 72(%rbp)
	jmp	.LBB41_19
.LBB41_19:
.Ltmp139:
	movq	64(%rbp), %r8
	movq	72(%rbp), %rdx
	leaq	736(%rbp), %rcx
	callq	_ZN4core3str8converts9from_utf817h190aa04a59df830dE
.Ltmp140:
	jmp	.LBB41_20
.LBB41_20:
.Ltmp141:
	leaq	736(%rbp), %rcx
	callq	_ZN4core6result19Result$LT$T$C$E$GT$2ok17h506a2cdc842efa5eE
.Ltmp142:
	movq	%rdx, 48(%rbp)
	movq	%rax, 56(%rbp)
	jmp	.LBB41_21
.LBB41_21:
.Ltmp143:
	movq	48(%rbp), %rdx
	movq	56(%rbp), %rcx
	callq	_ZN75_$LT$core..option..Option$LT$T$GT$$u20$as$u20$core..ops..try_trait..Try$GT$6branch17h4384291a883b05dcE
.Ltmp144:
	movq	%rdx, 32(%rbp)
	movq	%rax, 40(%rbp)
	jmp	.LBB41_22
.LBB41_22:
	movq	32(%rbp), %rax
	movq	40(%rbp), %rcx
	movq	%rcx, 720(%rbp)
	movq	%rax, 728(%rbp)
	movq	720(%rbp), %rax
	testq	%rax, %rax
	sete	%al
	movzbl	%al, %eax
	jne	.LBB41_24
	jmp	.LBB41_57
.LBB41_57:
	jmp	.LBB41_25
	ud2
.LBB41_24:
	movq	720(%rbp), %rcx
	movq	%rcx, 8(%rbp)
	movq	728(%rbp), %rdx
	movq	%rdx, 16(%rbp)
	movq	%rcx, 904(%rbp)
	movq	%rdx, 912(%rbp)
.Ltmp186:
	.cv_loc	41 3 94 0
	movq	%rcx, 920(%rbp)
	movq	%rdx, 928(%rbp)
.Ltmp187:
	.cv_loc	41 3 95 0
.Ltmp147:
	leaq	__unnamed_14(%rip), %r8
	movl	$7, %r9d
	callq	_ZN4core3str21_$LT$impl$u20$str$GT$8contains17h4bff56946cb5fa14E
.Ltmp148:
	movb	%al, 31(%rbp)
	jmp	.LBB41_28
.Ltmp188:
.LBB41_25:
	.cv_loc	41 3 94 0
.Ltmp145:
	callq	_ZN84_$LT$core..option..Option$LT$T$GT$$u20$as$u20$core..ops..try_trait..FromResidual$GT$13from_residual17hceadfe0f98ed5967E
.Ltmp146:
	movb	%dl, 3(%rbp)
	movl	%eax, 4(%rbp)
	jmp	.LBB41_26
.LBB41_26:
	movb	3(%rbp), %al
	movl	4(%rbp), %ecx
	movl	%ecx, 104(%rbp)
	movb	%al, 108(%rbp)
.Ltmp189:
.LBB41_27:
	.cv_loc	41 3 102 0
.Ltmp173:
	leaq	224(%rbp), %rcx
	callq	_ZN4core3ptr41drop_in_place$LT$std..process..Output$GT$17hd08ec086d6f1bd8eE
.Ltmp174:
	jmp	.LBB41_4
.LBB41_28:
	.cv_loc	41 3 95 0
	movb	31(%rbp), %al
.Ltmp190:
	testb	$1, %al
	jne	.LBB41_30
	jmp	.LBB41_29
.LBB41_29:
.Ltmp149:
	movq	16(%rbp), %rdx
	movq	8(%rbp), %rcx
	leaq	__unnamed_15(%rip), %r8
	movl	$3, %r9d
	callq	_ZN4core3str21_$LT$impl$u20$str$GT$8contains17h4bff56946cb5fa14E
.Ltmp150:
	movb	%al, 2(%rbp)
	jmp	.LBB41_32
.LBB41_30:
	movb	$1, 767(%rbp)
.LBB41_31:
	.cv_loc	41 3 96 0
.Ltmp151:
	movq	16(%rbp), %r8
	movq	8(%rbp), %rdx
	leaq	768(%rbp), %rcx
	movl	$46, %r9d
.Ltmp191:
	callq	_ZN4core3str21_$LT$impl$u20$str$GT$5split17h8f445cd8013d7268E
.Ltmp152:
	jmp	.LBB41_33
.Ltmp192:
.LBB41_32:
	.cv_loc	41 3 95 0
	movb	2(%rbp), %al
	andb	$1, %al
	movb	%al, 767(%rbp)
	jmp	.LBB41_31
.LBB41_33:
	.cv_loc	41 3 97 0
.Ltmp153:
	leaq	768(%rbp), %rcx
.Ltmp193:
	callq	_ZN90_$LT$core..str..iter..Split$LT$P$GT$$u20$as$u20$core..iter..traits..iterator..Iterator$GT$4next17hdde579d5ab49e983E
.Ltmp154:
	movq	%rdx, -16(%rbp)
	movq	%rax, -8(%rbp)
	jmp	.LBB41_34
.LBB41_34:
	movq	-16(%rbp), %rax
	movq	-8(%rbp), %rcx
	movq	%rcx, 840(%rbp)
	movq	%rax, 848(%rbp)
.Ltmp155:
	leaq	__unnamed_16(%rip), %rdx
	leaq	840(%rbp), %rcx
	callq	_ZN70_$LT$core..option..Option$LT$T$GT$$u20$as$u20$core..cmp..PartialEq$GT$2ne17hff3c0635af55a686E
.Ltmp156:
	movb	%al, -17(%rbp)
	jmp	.LBB41_35
.LBB41_35:
	movb	-17(%rbp), %al
	testb	$1, %al
	jne	.LBB41_37
	jmp	.LBB41_36
.LBB41_36:
	.cv_loc	41 3 100 0
.Ltmp157:
	leaq	768(%rbp), %rcx
	callq	_ZN90_$LT$core..str..iter..Split$LT$P$GT$$u20$as$u20$core..iter..traits..iterator..Iterator$GT$4next17hdde579d5ab49e983E
.Ltmp158:
	movq	%rdx, -40(%rbp)
	movq	%rax, -32(%rbp)
	jmp	.LBB41_38
.LBB41_37:
	.cv_loc	41 3 98 0
	movb	$2, 108(%rbp)
	.cv_loc	41 3 1 0
	jmp	.LBB41_27
.LBB41_38:
	.cv_loc	41 3 100 0
.Ltmp159:
	movq	-40(%rbp), %rdx
	movq	-32(%rbp), %rcx
	callq	_ZN75_$LT$core..option..Option$LT$T$GT$$u20$as$u20$core..ops..try_trait..Try$GT$6branch17h4384291a883b05dcE
.Ltmp160:
	movq	%rdx, -56(%rbp)
	movq	%rax, -48(%rbp)
	jmp	.LBB41_39
.LBB41_39:
	movq	-56(%rbp), %rax
	movq	-48(%rbp), %rcx
	movq	%rcx, 872(%rbp)
	movq	%rax, 880(%rbp)
	movq	872(%rbp), %rax
	testq	%rax, %rax
	sete	%al
	movzbl	%al, %eax
	jne	.LBB41_41
	jmp	.LBB41_58
.LBB41_58:
	jmp	.LBB41_42
	ud2
.LBB41_41:
	movq	872(%rbp), %rcx
	movq	880(%rbp), %rdx
	movq	%rcx, 936(%rbp)
	movq	%rdx, 944(%rbp)
.Ltmp163:
	callq	_ZN4core3str21_$LT$impl$u20$str$GT$5parse17hf0deec57b45e5888E
.Ltmp164:
	movq	%rax, -64(%rbp)
	jmp	.LBB41_44
.LBB41_42:
	.cv_loc	41 3 100 0
.Ltmp161:
.Ltmp194:
	callq	_ZN84_$LT$core..option..Option$LT$T$GT$$u20$as$u20$core..ops..try_trait..FromResidual$GT$13from_residual17hceadfe0f98ed5967E
.Ltmp162:
	movb	%dl, -69(%rbp)
	movl	%eax, -68(%rbp)
	jmp	.LBB41_43
.LBB41_43:
	movb	-69(%rbp), %al
	movl	-68(%rbp), %ecx
	movl	%ecx, 104(%rbp)
	movb	%al, 108(%rbp)
	jmp	.LBB41_27
.Ltmp195:
.LBB41_44:
	.cv_loc	41 3 100 0
	movq	-64(%rbp), %rax
	movq	%rax, 952(%rbp)
	movq	952(%rbp), %rax
	movq	%rax, 864(%rbp)
	movq	864(%rbp), %rcx
.Ltmp165:
	callq	_ZN4core6result19Result$LT$T$C$E$GT$2ok17hc0919e9744420beaE
.Ltmp166:
	movl	%edx, -80(%rbp)
	movl	%eax, -76(%rbp)
	jmp	.LBB41_45
.LBB41_45:
.Ltmp167:
	movl	-80(%rbp), %edx
	movl	-76(%rbp), %ecx
	callq	_ZN75_$LT$core..option..Option$LT$T$GT$$u20$as$u20$core..ops..try_trait..Try$GT$6branch17hd2ffe8081a9c8fb2E
.Ltmp168:
	movl	%edx, -88(%rbp)
	movl	%eax, -84(%rbp)
	jmp	.LBB41_46
.LBB41_46:
	movl	-88(%rbp), %eax
	movl	-84(%rbp), %ecx
	movl	%ecx, 856(%rbp)
	movl	%eax, 860(%rbp)
	movl	856(%rbp), %eax
	testq	%rax, %rax
	je	.LBB41_48
	jmp	.LBB41_59
.LBB41_59:
	jmp	.LBB41_49
	ud2
.LBB41_48:
	movl	860(%rbp), %ecx
	movl	%ecx, 960(%rbp)
.Ltmp196:
	.cv_loc	41 3 100 0
	movl	%ecx, 964(%rbp)
.Ltmp197:
	.cv_loc	41 3 101 0
	movb	767(%rbp), %al
	movl	%ecx, 888(%rbp)
	movb	%al, 892(%rbp)
	movl	888(%rbp), %ecx
	movb	892(%rbp), %al
	movl	%ecx, 104(%rbp)
	movb	%al, 108(%rbp)
	.cv_loc	41 3 102 0
.Ltmp171:
	leaq	224(%rbp), %rcx
.Ltmp198:
	callq	_ZN4core3ptr41drop_in_place$LT$std..process..Output$GT$17hd08ec086d6f1bd8eE
.Ltmp172:
	jmp	.LBB41_52
.LBB41_49:
	.cv_loc	41 3 100 0
.Ltmp169:
.Ltmp199:
	callq	_ZN84_$LT$core..option..Option$LT$T$GT$$u20$as$u20$core..ops..try_trait..FromResidual$GT$13from_residual17hceadfe0f98ed5967E
.Ltmp170:
	movb	%dl, -93(%rbp)
	movl	%eax, -92(%rbp)
	jmp	.LBB41_50
.LBB41_50:
	movb	-93(%rbp), %al
	movl	-92(%rbp), %ecx
	movl	%ecx, 104(%rbp)
	movb	%al, 108(%rbp)
	jmp	.LBB41_27
.Ltmp200:
.LBB41_51:
	.cv_loc	41 3 102 0
	movl	104(%rbp), %eax
	movb	108(%rbp), %dl
	addq	$1104, %rsp
	popq	%rbp
	retq
.LBB41_52:
	movb	$0, 903(%rbp)
	jmp	.LBB41_51
	.seh_handlerdata
	.long	($cppxdata$_ZN18build_script_build13rustc_version17h821a07d036f0e4bdE)@IMGREL
	.section	.text,"xr",one_only,_ZN18build_script_build13rustc_version17h821a07d036f0e4bdE
	.seh_endproc
	.def	"?dtor$6@?0?_ZN18build_script_build13rustc_version17h821a07d036f0e4bdE@4HA";
	.scl	3;
	.type	32;
	.endef
	.p2align	4, 0x90
"?dtor$6@?0?_ZN18build_script_build13rustc_version17h821a07d036f0e4bdE@4HA":
.seh_proc "?dtor$6@?0?_ZN18build_script_build13rustc_version17h821a07d036f0e4bdE@4HA"
.LBB41_6:
	movq	%rdx, 16(%rsp)
	pushq	%rbp
	.seh_pushreg %rbp
	subq	$32, %rsp
	.seh_stackalloc 32
	leaq	128(%rdx), %rbp
	.seh_endprologue
	testb	$1, 903(%rbp)
	jne	.LBB41_54
	jmp	.LBB41_53
.LBB41_53:
	.cv_loc	41 3 91 0
	addq	$32, %rsp
	popq	%rbp
	retq
.LBB41_54:
	.cv_loc	41 3 102 0
	leaq	112(%rbp), %rcx
	callq	_ZN4core3ptr47drop_in_place$LT$std..ffi..os_str..OsString$GT$17h4982aee5e04b1115E
	jmp	.LBB41_53
	.seh_handlerdata
	.section	.text,"xr",one_only,_ZN18build_script_build13rustc_version17h821a07d036f0e4bdE
	.seh_endproc
	.def	"?dtor$8@?0?_ZN18build_script_build13rustc_version17h821a07d036f0e4bdE@4HA";
	.scl	3;
	.type	32;
	.endef
	.p2align	4, 0x90
"?dtor$8@?0?_ZN18build_script_build13rustc_version17h821a07d036f0e4bdE@4HA":
.seh_proc "?dtor$8@?0?_ZN18build_script_build13rustc_version17h821a07d036f0e4bdE@4HA"
.LBB41_8:
	movq	%rdx, 16(%rsp)
	pushq	%rbp
	.seh_pushreg %rbp
	subq	$32, %rsp
	.seh_stackalloc 32
	leaq	128(%rdx), %rbp
	.seh_endprologue
	leaq	464(%rbp), %rcx
.Ltmp201:
	.cv_loc	41 3 93 0
	callq	_ZN4core3ptr42drop_in_place$LT$std..process..Command$GT$17h162875bf1eaf91e2E
	nop
	addq	$32, %rsp
	popq	%rbp
	retq
	.seh_handlerdata
	.section	.text,"xr",one_only,_ZN18build_script_build13rustc_version17h821a07d036f0e4bdE
	.seh_endproc
	.def	"?dtor$16@?0?_ZN18build_script_build13rustc_version17h821a07d036f0e4bdE@4HA";
	.scl	3;
	.type	32;
	.endef
	.p2align	4, 0x90
"?dtor$16@?0?_ZN18build_script_build13rustc_version17h821a07d036f0e4bdE@4HA":
.seh_proc "?dtor$16@?0?_ZN18build_script_build13rustc_version17h821a07d036f0e4bdE@4HA"
.LBB41_16:
	movq	%rdx, 16(%rsp)
	pushq	%rbp
	.seh_pushreg %rbp
	subq	$32, %rsp
	.seh_stackalloc 32
	leaq	128(%rdx), %rbp
	.seh_endprologue
	addq	$32, %rsp
	popq	%rbp
	retq
	.seh_handlerdata
	.section	.text,"xr",one_only,_ZN18build_script_build13rustc_version17h821a07d036f0e4bdE
	.seh_endproc
	.def	"?dtor$18@?0?_ZN18build_script_build13rustc_version17h821a07d036f0e4bdE@4HA";
	.scl	3;
	.type	32;
	.endef
	.p2align	4, 0x90
"?dtor$18@?0?_ZN18build_script_build13rustc_version17h821a07d036f0e4bdE@4HA":
.seh_proc "?dtor$18@?0?_ZN18build_script_build13rustc_version17h821a07d036f0e4bdE@4HA"
.LBB41_18:
	movq	%rdx, 16(%rsp)
	pushq	%rbp
	.seh_pushreg %rbp
	subq	$32, %rsp
	.seh_stackalloc 32
	leaq	128(%rdx), %rbp
	.seh_endprologue
	leaq	224(%rbp), %rcx
	.cv_loc	41 3 102 0
	callq	_ZN4core3ptr41drop_in_place$LT$std..process..Output$GT$17hd08ec086d6f1bd8eE
	nop
	addq	$32, %rsp
	popq	%rbp
	retq
.Ltmp202:
.Lfunc_end41:
	.seh_handlerdata
	.section	.text,"xr",one_only,_ZN18build_script_build13rustc_version17h821a07d036f0e4bdE
	.seh_endproc
	.section	.xdata,"dr",associative,_ZN18build_script_build13rustc_version17h821a07d036f0e4bdE
	.p2align	2
$cppxdata$_ZN18build_script_build13rustc_version17h821a07d036f0e4bdE:
	.long	429065506
	.long	4
	.long	($stateUnwindMap$_ZN18build_script_build13rustc_version17h821a07d036f0e4bdE)@IMGREL
	.long	0
	.long	0
	.long	13
	.long	($ip2state$_ZN18build_script_build13rustc_version17h821a07d036f0e4bdE)@IMGREL
	.long	1096
	.long	0
	.long	1
$stateUnwindMap$_ZN18build_script_build13rustc_version17h821a07d036f0e4bdE:
	.long	-1
	.long	"?dtor$6@?0?_ZN18build_script_build13rustc_version17h821a07d036f0e4bdE@4HA"@IMGREL
	.long	0
	.long	"?dtor$18@?0?_ZN18build_script_build13rustc_version17h821a07d036f0e4bdE@4HA"@IMGREL
	.long	0
	.long	"?dtor$8@?0?_ZN18build_script_build13rustc_version17h821a07d036f0e4bdE@4HA"@IMGREL
	.long	2
	.long	"?dtor$16@?0?_ZN18build_script_build13rustc_version17h821a07d036f0e4bdE@4HA"@IMGREL
$ip2state$_ZN18build_script_build13rustc_version17h821a07d036f0e4bdE:
	.long	.Lfunc_begin41@IMGREL
	.long	-1
	.long	.Ltmp121@IMGREL+1
	.long	0
	.long	.Ltmp122@IMGREL+1
	.long	-1
	.long	.Ltmp123@IMGREL+1
	.long	2
	.long	.Ltmp135@IMGREL+1
	.long	1
	.long	.Ltmp131@IMGREL+1
	.long	3
	.long	.Ltmp133@IMGREL+1
	.long	0
	.long	.Ltmp137@IMGREL+1
	.long	1
	.long	.Ltmp173@IMGREL+1
	.long	0
	.long	.Ltmp149@IMGREL+1
	.long	1
	.long	.Ltmp171@IMGREL+1
	.long	0
	.long	.Ltmp169@IMGREL+1
	.long	1
	.long	.Ltmp170@IMGREL+1
	.long	-1
	.section	.text,"xr",one_only,_ZN18build_script_build13rustc_version17h821a07d036f0e4bdE

	.def	_ZN18build_script_build15feature_allowed17hf7396e609c05227dE;
	.scl	3;
	.type	32;
	.endef
	.section	.text,"xr",one_only,_ZN18build_script_build15feature_allowed17hf7396e609c05227dE
	.p2align	4, 0x90
_ZN18build_script_build15feature_allowed17hf7396e609c05227dE:
.Lfunc_begin42:
	.cv_func_id 42
	.cv_loc	42 3 104 0
.seh_proc _ZN18build_script_build15feature_allowed17hf7396e609c05227dE
	.seh_handler __CxxFrameHandler3, @unwind, @except
	pushq	%rbp
	.seh_pushreg %rbp
	subq	$816, %rsp
	.seh_stackalloc 816
	leaq	128(%rsp), %rbp
	.seh_setframe %rbp, 128
	.seh_endprologue
	movq	$-2, 680(%rbp)
	movq	%rcx, 56(%rbp)
	movq	%rdx, 64(%rbp)
.Ltmp239:
	.cv_loc	42 3 111 0
	movb	$0, 679(%rbp)
	movb	$0, 678(%rbp)
	.cv_loc	42 3 113 0
.Ltmp203:
.Ltmp240:
	leaq	__unnamed_17(%rip), %rdx
	leaq	216(%rbp), %rcx
	movl	$23, %r8d
	callq	_ZN3std3env6var_os17ha145d4e3e1aa1f1bE
.Ltmp204:
	jmp	.LBB42_1
.LBB42_1:
	movl	$1, %eax
	xorl	%ecx, %ecx
	cmpq	$0, 216(%rbp)
	cmoveq	%rcx, %rax
	cmpq	$1, %rax
	je	.LBB42_3
	jmp	.LBB42_4
.LBB42_3:
	movq	232(%rbp), %rax
	movq	%rax, 256(%rbp)
	vmovdqu	216(%rbp), %xmm0
	vmovdqa	%xmm0, 240(%rbp)
	.cv_loc	42 3 114 0
	movq	256(%rbp), %rax
	movq	%rax, 288(%rbp)
	vmovdqa	240(%rbp), %xmm0
	vmovdqa	%xmm0, 272(%rbp)
	movb	$1, 679(%rbp)
	movq	288(%rbp), %rax
	movq	%rax, 96(%rbp)
	vmovdqa	272(%rbp), %xmm0
	vmovdqa	%xmm0, 80(%rbp)
	.cv_loc	42 3 115 0
.Ltmp207:
	leaq	80(%rbp), %rcx
	callq	_ZN70_$LT$std..ffi..os_str..OsString$u20$as$u20$core..ops..deref..Deref$GT$5deref17h4fad2960ed407b3bE
.Ltmp208:
	movq	%rdx, 40(%rbp)
	movq	%rax, 48(%rbp)
	jmp	.LBB42_6
.LBB42_4:
	.cv_loc	42 3 118 0
	movb	$1, 79(%rbp)
	.cv_loc	42 3 119 0
.Ltmp205:
	leaq	216(%rbp), %rcx
	callq	_ZN4core3ptr75drop_in_place$LT$core..option..Option$LT$std..ffi..os_str..OsString$GT$$GT$17h60b07b29e7caa437E
.Ltmp206:
	jmp	.LBB42_5
.Ltmp241:
.LBB42_5:
	.cv_loc	42 3 133 0
	testb	$1, 678(%rbp)
	jne	.LBB42_32
	jmp	.LBB42_31
.LBB42_6:
	.cv_loc	42 3 115 0
.Ltmp209:
	movq	40(%rbp), %r8
	movq	48(%rbp), %rdx
	leaq	296(%rbp), %rcx
.Ltmp242:
	callq	_ZN3std3ffi6os_str5OsStr15to_string_lossy17hb93408625155fcddE
.Ltmp210:
	jmp	.LBB42_8
.LBB42_8:
	movb	$1, 678(%rbp)
	vmovups	296(%rbp), %ymm0
	vmovups	%ymm0, 112(%rbp)
	.cv_loc	42 3 116 0
.Ltmp211:
	leaq	112(%rbp), %rcx
	vzeroupper
	callq	_ZN71_$LT$alloc..borrow..Cow$LT$B$GT$$u20$as$u20$core..ops..deref..Deref$GT$5deref17h04f53afdf5745067E
.Ltmp212:
	movq	%rdx, 24(%rbp)
	movq	%rax, 32(%rbp)
	jmp	.LBB42_9
.LBB42_9:
.Ltmp213:
	movq	24(%rbp), %r8
	movq	32(%rbp), %rdx
	leaq	144(%rbp), %rcx
	movl	$31, %r9d
	callq	_ZN4core3str21_$LT$impl$u20$str$GT$5split17h8f445cd8013d7268E
.Ltmp214:
	jmp	.LBB42_10
.LBB42_10:
.Ltmp243:
	.cv_loc	42 3 121 0
	movq	208(%rbp), %rax
	movq	%rax, 464(%rbp)
	vmovups	144(%rbp), %ymm0
	vmovups	176(%rbp), %ymm1
	vmovups	%ymm1, 432(%rbp)
	vmovups	%ymm0, 400(%rbp)
.Ltmp215:
	leaq	328(%rbp), %rcx
	leaq	400(%rbp), %rdx
	vzeroupper
	callq	_ZN63_$LT$I$u20$as$u20$core..iter..traits..collect..IntoIterator$GT$9into_iter17h734e4acfd84dd457E
.Ltmp216:
	jmp	.LBB42_11
.LBB42_11:
	leaq	472(%rbp), %rcx
	leaq	328(%rbp), %rdx
	movl	$72, %r8d
	callq	memcpy
.LBB42_12:
	.cv_loc	42 3 121 0
.Ltmp217:
	leaq	472(%rbp), %rcx
.Ltmp244:
	callq	_ZN90_$LT$core..str..iter..Split$LT$P$GT$$u20$as$u20$core..iter..traits..iterator..Iterator$GT$4next17hdde579d5ab49e983E
.Ltmp218:
	movq	%rdx, 8(%rbp)
	movq	%rax, 16(%rbp)
	jmp	.LBB42_13
.LBB42_13:
	movq	8(%rbp), %rax
	movq	16(%rbp), %rcx
	movq	%rcx, 544(%rbp)
	movq	%rax, 552(%rbp)
	movq	544(%rbp), %rax
	testq	%rax, %rax
	setne	%al
	movzbl	%al, %eax
	je	.LBB42_15
	jmp	.LBB42_39
.LBB42_39:
	jmp	.LBB42_16
	ud2
.Ltmp245:
.LBB42_15:
	.cv_loc	42 3 132 0
	movb	$1, 79(%rbp)
	.cv_loc	42 3 133 0
.Ltmp237:
	leaq	112(%rbp), %rcx
.Ltmp246:
	callq	_ZN4core3ptr50drop_in_place$LT$alloc..borrow..Cow$LT$str$GT$$GT$17hbcabe406933f7f97E
.Ltmp238:
	jmp	.LBB42_36
.LBB42_16:
.Ltmp247:
	.cv_loc	42 3 121 0
	movq	544(%rbp), %rcx
	movq	552(%rbp), %rax
	movq	%rcx, 560(%rbp)
	movq	%rax, 568(%rbp)
.Ltmp248:
	.cv_loc	42 3 122 0
	movq	560(%rbp), %rcx
	movq	568(%rbp), %rdx
.Ltmp219:
	leaq	__unnamed_18(%rip), %r8
	movl	$2, %r9d
	callq	_ZN4core3str21_$LT$impl$u20$str$GT$11starts_with17h584ba97c425344b8E
.Ltmp220:
	movb	%al, 7(%rbp)
	jmp	.LBB42_17
.LBB42_17:
	movb	7(%rbp), %al
	testb	$1, %al
	jne	.LBB42_19
	jmp	.LBB42_18
.LBB42_18:
	.cv_loc	42 3 125 0
	movq	560(%rbp), %rcx
	movq	568(%rbp), %rdx
.Ltmp225:
	leaq	__unnamed_19(%rip), %r8
	movl	$15, %r9d
	callq	_ZN4core3str21_$LT$impl$u20$str$GT$11starts_with17h584ba97c425344b8E
.Ltmp226:
	movb	%al, 6(%rbp)
	jmp	.LBB42_22
.LBB42_19:
	.cv_loc	42 3 123 0
	movq	560(%rbp), %rax
	movq	%rax, -24(%rbp)
	movq	568(%rbp), %rax
	movq	%rax, -16(%rbp)
.Ltmp221:
	leaq	__unnamed_18(%rip), %rcx
	movl	$2, %edx
	callq	_ZN4core3str21_$LT$impl$u20$str$GT$3len17h470e09e2a2425198E
.Ltmp222:
	movq	%rax, -8(%rbp)
	jmp	.LBB42_20
.LBB42_20:
	movq	-16(%rbp), %rdx
	movq	-24(%rbp), %rcx
	movq	-8(%rbp), %rax
	movq	%rax, 576(%rbp)
	movq	576(%rbp), %r8
.Ltmp223:
	leaq	__unnamed_20(%rip), %r9
	callq	_ZN4core3str6traits66_$LT$impl$u20$core..ops..index..Index$LT$I$GT$$u20$for$u20$str$GT$5index17hf4949e89b20e091eE
.Ltmp224:
	movq	%rdx, -40(%rbp)
	movq	%rax, -32(%rbp)
	jmp	.LBB42_21
.LBB42_21:
	movq	-40(%rbp), %rax
	movq	-32(%rbp), %rcx
	movq	%rcx, 560(%rbp)
	movq	%rax, 568(%rbp)
	.cv_loc	42 3 122 0
	jmp	.LBB42_18
.LBB42_22:
	.cv_loc	42 3 125 0
	movb	6(%rbp), %al
	testb	$1, %al
	jne	.LBB42_23
	jmp	.LBB42_12
.LBB42_23:
	.cv_loc	42 3 126 0
	movq	560(%rbp), %rax
	movq	%rax, -64(%rbp)
	movq	568(%rbp), %rax
	movq	%rax, -56(%rbp)
.Ltmp227:
	leaq	__unnamed_19(%rip), %rcx
	movl	$15, %edx
	callq	_ZN4core3str21_$LT$impl$u20$str$GT$3len17h470e09e2a2425198E
.Ltmp228:
	movq	%rax, -48(%rbp)
	jmp	.LBB42_24
.LBB42_24:
	movq	-56(%rbp), %rdx
	movq	-64(%rbp), %rcx
	movq	-48(%rbp), %rax
	movq	%rax, 584(%rbp)
	movq	584(%rbp), %r8
.Ltmp229:
	leaq	__unnamed_21(%rip), %r9
	callq	_ZN4core3str6traits66_$LT$impl$u20$core..ops..index..Index$LT$I$GT$$u20$for$u20$str$GT$5index17hf4949e89b20e091eE
.Ltmp230:
	movq	%rdx, -80(%rbp)
	movq	%rax, -72(%rbp)
	jmp	.LBB42_25
.LBB42_25:
	movq	-80(%rbp), %rax
	movq	-72(%rbp), %rcx
	movq	%rcx, 560(%rbp)
	movq	%rax, 568(%rbp)
	.cv_loc	42 3 127 0
	movq	560(%rbp), %rdx
	movq	568(%rbp), %r8
.Ltmp231:
	leaq	592(%rbp), %rcx
	movl	$44, %r9d
	callq	_ZN4core3str21_$LT$impl$u20$str$GT$5split17h8f445cd8013d7268E
.Ltmp232:
	jmp	.LBB42_26
.LBB42_26:
	leaq	56(%rbp), %rax
	movq	%rax, 664(%rbp)
	movq	664(%rbp), %rdx
.Ltmp233:
	leaq	592(%rbp), %rcx
	callq	_ZN4core4iter6traits8iterator8Iterator3any17heea3b0fab88da800E
.Ltmp234:
	movb	%al, -81(%rbp)
	jmp	.LBB42_27
.LBB42_27:
	movb	-81(%rbp), %al
	andb	$1, %al
	movb	%al, 79(%rbp)
	jmp	.LBB42_5
.Ltmp249:
.LBB42_31:
	.cv_loc	42 3 133 0
	movb	$0, 678(%rbp)
.Ltmp250:
	.cv_loc	42 3 133 0
	testb	$1, 679(%rbp)
	jne	.LBB42_34
	jmp	.LBB42_33
.LBB42_32:
	.cv_loc	42 3 133 0
.Ltmp235:
	leaq	112(%rbp), %rcx
.Ltmp251:
	callq	_ZN4core3ptr50drop_in_place$LT$alloc..borrow..Cow$LT$str$GT$$GT$17hbcabe406933f7f97E
.Ltmp236:
	jmp	.LBB42_31
.Ltmp252:
.LBB42_33:
	.cv_loc	42 3 133 0
	movb	$0, 679(%rbp)
	jmp	.LBB42_35
.LBB42_34:
	leaq	80(%rbp), %rcx
	callq	_ZN4core3ptr47drop_in_place$LT$std..ffi..os_str..OsString$GT$17h4982aee5e04b1115E
	jmp	.LBB42_33
.LBB42_35:
	movb	79(%rbp), %al
	andb	$1, %al
	movzbl	%al, %eax
	addq	$816, %rsp
	popq	%rbp
	retq
.LBB42_36:
.Ltmp253:
	.cv_loc	42 3 133 0
	movb	$0, 678(%rbp)
.Ltmp254:
	.cv_loc	42 3 133 0
	leaq	80(%rbp), %rcx
	callq	_ZN4core3ptr47drop_in_place$LT$std..ffi..os_str..OsString$GT$17h4982aee5e04b1115E
	movb	$0, 679(%rbp)
	jmp	.LBB42_35
	.seh_handlerdata
	.long	($cppxdata$_ZN18build_script_build15feature_allowed17hf7396e609c05227dE)@IMGREL
	.section	.text,"xr",one_only,_ZN18build_script_build15feature_allowed17hf7396e609c05227dE
	.seh_endproc
	.def	"?dtor$2@?0?_ZN18build_script_build15feature_allowed17hf7396e609c05227dE@4HA";
	.scl	3;
	.type	32;
	.endef
	.p2align	4, 0x90
"?dtor$2@?0?_ZN18build_script_build15feature_allowed17hf7396e609c05227dE@4HA":
.seh_proc "?dtor$2@?0?_ZN18build_script_build15feature_allowed17hf7396e609c05227dE@4HA"
.LBB42_2:
	movq	%rdx, 16(%rsp)
	pushq	%rbp
	.seh_pushreg %rbp
	subq	$32, %rsp
	.seh_stackalloc 32
	leaq	128(%rdx), %rbp
	.seh_endprologue
.Ltmp255:
	.cv_loc	42 3 133 0
	testb	$1, 678(%rbp)
	jne	.LBB42_30
	jmp	.LBB42_29
.LBB42_29:
	addq	$32, %rsp
	popq	%rbp
	retq
.LBB42_30:
	leaq	112(%rbp), %rcx
	callq	_ZN4core3ptr50drop_in_place$LT$alloc..borrow..Cow$LT$str$GT$$GT$17hbcabe406933f7f97E
	nop
	addq	$32, %rsp
	popq	%rbp
	retq
	.seh_handlerdata
	.section	.text,"xr",one_only,_ZN18build_script_build15feature_allowed17hf7396e609c05227dE
	.seh_endproc
	.def	"?dtor$7@?0?_ZN18build_script_build15feature_allowed17hf7396e609c05227dE@4HA";
	.scl	3;
	.type	32;
	.endef
	.p2align	4, 0x90
"?dtor$7@?0?_ZN18build_script_build15feature_allowed17hf7396e609c05227dE@4HA":
.seh_proc "?dtor$7@?0?_ZN18build_script_build15feature_allowed17hf7396e609c05227dE@4HA"
.LBB42_7:
	movq	%rdx, 16(%rsp)
	pushq	%rbp
	.seh_pushreg %rbp
	subq	$32, %rsp
	.seh_stackalloc 32
	leaq	128(%rdx), %rbp
	.seh_endprologue
.Ltmp256:
	.cv_loc	42 3 119 0
	addq	$32, %rsp
	popq	%rbp
	retq
.Ltmp257:
	.seh_handlerdata
	.section	.text,"xr",one_only,_ZN18build_script_build15feature_allowed17hf7396e609c05227dE
	.seh_endproc
	.def	"?dtor$28@?0?_ZN18build_script_build15feature_allowed17hf7396e609c05227dE@4HA";
	.scl	3;
	.type	32;
	.endef
	.p2align	4, 0x90
"?dtor$28@?0?_ZN18build_script_build15feature_allowed17hf7396e609c05227dE@4HA":
.seh_proc "?dtor$28@?0?_ZN18build_script_build15feature_allowed17hf7396e609c05227dE@4HA"
.LBB42_28:
	movq	%rdx, 16(%rsp)
	pushq	%rbp
	.seh_pushreg %rbp
	subq	$32, %rsp
	.seh_stackalloc 32
	leaq	128(%rdx), %rbp
	.seh_endprologue
	.cv_loc	42 3 133 0
	testb	$1, 679(%rbp)
	jne	.LBB42_38
	jmp	.LBB42_37
.LBB42_37:
	.cv_loc	42 3 104 0
	addq	$32, %rsp
	popq	%rbp
	retq
.LBB42_38:
	.cv_loc	42 3 133 0
	leaq	80(%rbp), %rcx
	callq	_ZN4core3ptr47drop_in_place$LT$std..ffi..os_str..OsString$GT$17h4982aee5e04b1115E
	jmp	.LBB42_37
.Ltmp258:
.Lfunc_end42:
	.seh_handlerdata
	.section	.text,"xr",one_only,_ZN18build_script_build15feature_allowed17hf7396e609c05227dE
	.seh_endproc
	.section	.xdata,"dr",associative,_ZN18build_script_build15feature_allowed17hf7396e609c05227dE
	.p2align	2
$cppxdata$_ZN18build_script_build15feature_allowed17hf7396e609c05227dE:
	.long	429065506
	.long	3
	.long	($stateUnwindMap$_ZN18build_script_build15feature_allowed17hf7396e609c05227dE)@IMGREL
	.long	0
	.long	0
	.long	12
	.long	($ip2state$_ZN18build_script_build15feature_allowed17hf7396e609c05227dE)@IMGREL
	.long	808
	.long	0
	.long	1
$stateUnwindMap$_ZN18build_script_build15feature_allowed17hf7396e609c05227dE:
	.long	-1
	.long	"?dtor$28@?0?_ZN18build_script_build15feature_allowed17hf7396e609c05227dE@4HA"@IMGREL
	.long	0
	.long	"?dtor$2@?0?_ZN18build_script_build15feature_allowed17hf7396e609c05227dE@4HA"@IMGREL
	.long	1
	.long	"?dtor$7@?0?_ZN18build_script_build15feature_allowed17hf7396e609c05227dE@4HA"@IMGREL
$ip2state$_ZN18build_script_build15feature_allowed17hf7396e609c05227dE:
	.long	.Lfunc_begin42@IMGREL
	.long	-1
	.long	.Ltmp203@IMGREL+1
	.long	1
	.long	.Ltmp207@IMGREL+1
	.long	2
	.long	.Ltmp205@IMGREL+1
	.long	1
	.long	.Ltmp209@IMGREL+1
	.long	2
	.long	.Ltmp215@IMGREL+1
	.long	1
	.long	.Ltmp216@IMGREL+1
	.long	-1
	.long	.Ltmp217@IMGREL+1
	.long	1
	.long	.Ltmp237@IMGREL+1
	.long	0
	.long	.Ltmp219@IMGREL+1
	.long	1
	.long	.Ltmp235@IMGREL+1
	.long	0
	.long	.Ltmp236@IMGREL+1
	.long	-1
	.section	.text,"xr",one_only,_ZN18build_script_build15feature_allowed17hf7396e609c05227dE

	.def	_ZN18build_script_build15feature_allowed28_$u7b$$u7b$closure$u7d$$u7d$17hfa6c6c4a30760876E;
	.scl	3;
	.type	32;
	.endef
	.section	.text,"xr",one_only,_ZN18build_script_build15feature_allowed28_$u7b$$u7b$closure$u7d$$u7d$17hfa6c6c4a30760876E
	.p2align	4, 0x90
_ZN18build_script_build15feature_allowed28_$u7b$$u7b$closure$u7d$$u7d$17hfa6c6c4a30760876E:
.Lfunc_begin43:
	.cv_func_id 43
	.cv_loc	43 3 127 0
.seh_proc _ZN18build_script_build15feature_allowed28_$u7b$$u7b$closure$u7d$$u7d$17hfa6c6c4a30760876E
	subq	$72, %rsp
	.seh_stackalloc 72
	.seh_endprologue
	movq	%rdx, 40(%rsp)
	movq	%r8, 48(%rsp)
	movq	%rcx, 56(%rsp)
	movq	56(%rsp), %rax
	movq	(%rax), %rax
	movq	%rax, 64(%rsp)
.Ltmp259:
	movq	(%rcx), %rdx
	leaq	40(%rsp), %rcx
	callq	_ZN4core3cmp5impls69_$LT$impl$u20$core..cmp..PartialEq$LT$$RF$B$GT$$u20$for$u20$$RF$A$GT$2eq17hb30cd64351ec0252E
	movb	%al, 39(%rsp)
	movb	39(%rsp), %al
	andb	$1, %al
	movzbl	%al, %eax
	addq	$72, %rsp
	retq
.Ltmp260:
.Lfunc_end43:
	.seh_endproc

	.def	_ZN5alloc7raw_vec19RawVec$LT$T$C$A$GT$3ptr17h221bac263173247aE;
	.scl	3;
	.type	32;
	.endef
	.section	.text,"xr",one_only,_ZN5alloc7raw_vec19RawVec$LT$T$C$A$GT$3ptr17h221bac263173247aE
	.p2align	4, 0x90
_ZN5alloc7raw_vec19RawVec$LT$T$C$A$GT$3ptr17h221bac263173247aE:
.Lfunc_begin44:
	.cv_func_id 44
	.cv_file	4 "/rustc/7737e0b5c4103216d6fd8cf941b7ab9bdbaace7c\\library\\alloc\\src\\raw_vec.rs" "90CE6258014E6E9B1005FEA6BBD4BC6D24605AB9" 2
	.cv_loc	44 4 223 0
.seh_proc _ZN5alloc7raw_vec19RawVec$LT$T$C$A$GT$3ptr17h221bac263173247aE
	subq	$56, %rsp
	.seh_stackalloc 56
	.seh_endprologue
	movq	%rcx, 48(%rsp)
.Ltmp261:
	.cv_loc	44 4 224 0
	movq	(%rcx), %rcx
	callq	_ZN4core3ptr6unique15Unique$LT$T$GT$6as_ptr17ha53e5bbd3e9c46f0E
	movq	%rax, 40(%rsp)
	.cv_loc	44 4 225 0
	movq	40(%rsp), %rax
	addq	$56, %rsp
	retq
.Ltmp262:
.Lfunc_end44:
	.seh_endproc

	.def	_ZN5alloc7raw_vec19RawVec$LT$T$C$A$GT$3ptr17heba8641228c0c2c2E;
	.scl	3;
	.type	32;
	.endef
	.section	.text,"xr",one_only,_ZN5alloc7raw_vec19RawVec$LT$T$C$A$GT$3ptr17heba8641228c0c2c2E
	.p2align	4, 0x90
_ZN5alloc7raw_vec19RawVec$LT$T$C$A$GT$3ptr17heba8641228c0c2c2E:
.Lfunc_begin45:
	.cv_func_id 45
	.cv_loc	45 4 223 0
.seh_proc _ZN5alloc7raw_vec19RawVec$LT$T$C$A$GT$3ptr17heba8641228c0c2c2E
	subq	$56, %rsp
	.seh_stackalloc 56
	.seh_endprologue
	movq	%rcx, 48(%rsp)
.Ltmp263:
	.cv_loc	45 4 224 0
	movq	(%rcx), %rcx
	callq	_ZN4core3ptr6unique15Unique$LT$T$GT$6as_ptr17hcfa842973b0ba309E
	movq	%rax, 40(%rsp)
	.cv_loc	45 4 225 0
	movq	40(%rsp), %rax
	addq	$56, %rsp
	retq
.Ltmp264:
.Lfunc_end45:
	.seh_endproc

	.def	_ZN5alloc7raw_vec19RawVec$LT$T$C$A$GT$3ptr17hef76119a9a78798eE;
	.scl	3;
	.type	32;
	.endef
	.section	.text,"xr",one_only,_ZN5alloc7raw_vec19RawVec$LT$T$C$A$GT$3ptr17hef76119a9a78798eE
	.p2align	4, 0x90
_ZN5alloc7raw_vec19RawVec$LT$T$C$A$GT$3ptr17hef76119a9a78798eE:
.Lfunc_begin46:
	.cv_func_id 46
	.cv_loc	46 4 223 0
.seh_proc _ZN5alloc7raw_vec19RawVec$LT$T$C$A$GT$3ptr17hef76119a9a78798eE
	subq	$56, %rsp
	.seh_stackalloc 56
	.seh_endprologue
	movq	%rcx, 48(%rsp)
.Ltmp265:
	.cv_loc	46 4 224 0
	movq	(%rcx), %rcx
	callq	_ZN4core3ptr6unique15Unique$LT$T$GT$6as_ptr17h9bb781a88c3db96bE
	movq	%rax, 40(%rsp)
	.cv_loc	46 4 225 0
	movq	40(%rsp), %rax
	addq	$56, %rsp
	retq
.Ltmp266:
.Lfunc_end46:
	.seh_endproc

	.def	_ZN5alloc7raw_vec19RawVec$LT$T$C$A$GT$14current_memory17ha90f3b69ae744e3cE;
	.scl	3;
	.type	32;
	.endef
	.section	.text,"xr",one_only,_ZN5alloc7raw_vec19RawVec$LT$T$C$A$GT$14current_memory17ha90f3b69ae744e3cE
	.p2align	4, 0x90
_ZN5alloc7raw_vec19RawVec$LT$T$C$A$GT$14current_memory17ha90f3b69ae744e3cE:
.Lfunc_begin47:
	.cv_func_id 47
	.cv_loc	47 4 240 0
.seh_proc _ZN5alloc7raw_vec19RawVec$LT$T$C$A$GT$14current_memory17ha90f3b69ae744e3cE
	subq	$168, %rsp
	.seh_stackalloc 168
	.seh_endprologue
	movq	%rdx, 72(%rsp)
	movq	%rcx, 80(%rsp)
	movq	%rcx, 88(%rsp)
	movq	%rdx, 128(%rsp)
.Ltmp267:
	.cv_loc	47 4 241 0
	movl	$1, %eax
	cmpq	$0, %rax
	jne	.LBB47_3
	movb	$1, 103(%rsp)
	jmp	.LBB47_4
.LBB47_3:
	movq	72(%rsp), %rax
	cmpq	$0, 8(%rax)
	sete	%al
	andb	$1, %al
	movb	%al, 103(%rsp)
.LBB47_4:
	testb	$1, 103(%rsp)
	jne	.LBB47_6
	.cv_loc	47 4 247 0
	movq	$1, 136(%rsp)
	jmp	.LBB47_8
.LBB47_6:
	.cv_loc	47 4 242 0
	movq	80(%rsp), %rax
	movq	$0, (%rax)
.LBB47_7:
	.cv_loc	47 4 253 0
	movq	88(%rsp), %rax
	addq	$168, %rsp
	retq
.LBB47_8:
.Ltmp268:
	.cv_loc	47 4 248 0
	jmp	.LBB47_9
.LBB47_9:
	movq	72(%rsp), %rax
	movq	8(%rax), %rcx
	shlq	$0, %rcx
	movq	%rcx, 144(%rsp)
.Ltmp269:
	.cv_loc	47 4 249 0
	movl	$1, %edx
	callq	_ZN4core5alloc6layout6Layout25from_size_align_unchecked17h15f9097a52d0dc8bE
	movq	%rax, 56(%rsp)
	movq	%rdx, 64(%rsp)
	movq	%rax, 152(%rsp)
	movq	%rdx, 160(%rsp)
	.cv_loc	47 4 250 0
	movq	72(%rsp), %rax
.Ltmp270:
	movq	(%rax), %rcx
	callq	_ZN4core3ptr6unique15Unique$LT$T$GT$4cast17h0e32cbedd39871cdE
	movq	%rax, 48(%rsp)
	movq	48(%rsp), %rcx
	callq	_ZN50_$LT$T$u20$as$u20$core..convert..Into$LT$U$GT$$GT$4into17hdd7696ae2e8889c2E
	movq	%rax, 40(%rsp)
	movq	80(%rsp), %rax
	movq	64(%rsp), %rcx
	movq	56(%rsp), %rdx
	movq	40(%rsp), %r8
	movq	%r8, 104(%rsp)
	movq	%rdx, 112(%rsp)
	movq	%rcx, 120(%rsp)
	movq	104(%rsp), %rcx
	movq	%rcx, (%rax)
	movq	112(%rsp), %rcx
	movq	%rcx, 8(%rax)
	movq	120(%rsp), %rcx
	movq	%rcx, 16(%rax)
.Ltmp271:
	.cv_loc	47 4 241 0
	jmp	.LBB47_7
.Ltmp272:
.Lfunc_end47:
	.seh_endproc

	.def	_ZN5alloc7raw_vec19RawVec$LT$T$C$A$GT$14current_memory17hd6625d74f89212e2E;
	.scl	3;
	.type	32;
	.endef
	.section	.text,"xr",one_only,_ZN5alloc7raw_vec19RawVec$LT$T$C$A$GT$14current_memory17hd6625d74f89212e2E
	.p2align	4, 0x90
_ZN5alloc7raw_vec19RawVec$LT$T$C$A$GT$14current_memory17hd6625d74f89212e2E:
.Lfunc_begin48:
	.cv_func_id 48
	.cv_loc	48 4 240 0
.seh_proc _ZN5alloc7raw_vec19RawVec$LT$T$C$A$GT$14current_memory17hd6625d74f89212e2E
	subq	$168, %rsp
	.seh_stackalloc 168
	.seh_endprologue
	movq	%rdx, 72(%rsp)
	movq	%rcx, 80(%rsp)
	movq	%rcx, 88(%rsp)
	movq	%rdx, 128(%rsp)
.Ltmp273:
	.cv_loc	48 4 241 0
	movl	$2, %eax
	cmpq	$0, %rax
	jne	.LBB48_3
	movb	$1, 103(%rsp)
	jmp	.LBB48_4
.LBB48_3:
	movq	72(%rsp), %rax
	cmpq	$0, 8(%rax)
	sete	%al
	andb	$1, %al
	movb	%al, 103(%rsp)
.LBB48_4:
	testb	$1, 103(%rsp)
	jne	.LBB48_6
	.cv_loc	48 4 247 0
	movq	$2, 136(%rsp)
	jmp	.LBB48_8
.LBB48_6:
	.cv_loc	48 4 242 0
	movq	80(%rsp), %rax
	movq	$0, (%rax)
.LBB48_7:
	.cv_loc	48 4 253 0
	movq	88(%rsp), %rax
	addq	$168, %rsp
	retq
.LBB48_8:
.Ltmp274:
	.cv_loc	48 4 248 0
	jmp	.LBB48_9
.LBB48_9:
	movq	72(%rsp), %rax
	movq	8(%rax), %rcx
	shlq	$1, %rcx
	movq	%rcx, 144(%rsp)
.Ltmp275:
	.cv_loc	48 4 249 0
	movl	$2, %edx
	callq	_ZN4core5alloc6layout6Layout25from_size_align_unchecked17h15f9097a52d0dc8bE
	movq	%rax, 56(%rsp)
	movq	%rdx, 64(%rsp)
	movq	%rax, 152(%rsp)
	movq	%rdx, 160(%rsp)
	.cv_loc	48 4 250 0
	movq	72(%rsp), %rax
.Ltmp276:
	movq	(%rax), %rcx
	callq	_ZN4core3ptr6unique15Unique$LT$T$GT$4cast17hdd980104abee60ddE
	movq	%rax, 48(%rsp)
	movq	48(%rsp), %rcx
	callq	_ZN50_$LT$T$u20$as$u20$core..convert..Into$LT$U$GT$$GT$4into17hdd7696ae2e8889c2E
	movq	%rax, 40(%rsp)
	movq	80(%rsp), %rax
	movq	64(%rsp), %rcx
	movq	56(%rsp), %rdx
	movq	40(%rsp), %r8
	movq	%r8, 104(%rsp)
	movq	%rdx, 112(%rsp)
	movq	%rcx, 120(%rsp)
	movq	104(%rsp), %rcx
	movq	%rcx, (%rax)
	movq	112(%rsp), %rcx
	movq	%rcx, 8(%rax)
	movq	120(%rsp), %rcx
	movq	%rcx, 16(%rax)
.Ltmp277:
	.cv_loc	48 4 241 0
	jmp	.LBB48_7
.Ltmp278:
.Lfunc_end48:
	.seh_endproc

	.def	_ZN5alloc7raw_vec19RawVec$LT$T$C$A$GT$14current_memory17hf019afb5cf420921E;
	.scl	3;
	.type	32;
	.endef
	.section	.text,"xr",one_only,_ZN5alloc7raw_vec19RawVec$LT$T$C$A$GT$14current_memory17hf019afb5cf420921E
	.p2align	4, 0x90
_ZN5alloc7raw_vec19RawVec$LT$T$C$A$GT$14current_memory17hf019afb5cf420921E:
.Lfunc_begin49:
	.cv_func_id 49
	.cv_loc	49 4 240 0
.seh_proc _ZN5alloc7raw_vec19RawVec$LT$T$C$A$GT$14current_memory17hf019afb5cf420921E
	subq	$168, %rsp
	.seh_stackalloc 168
	.seh_endprologue
	movq	%rdx, 72(%rsp)
	movq	%rcx, 80(%rsp)
	movq	%rcx, 88(%rsp)
	movq	%rdx, 128(%rsp)
.Ltmp279:
	.cv_loc	49 4 241 0
	movl	$32, %eax
	cmpq	$0, %rax
	jne	.LBB49_3
	movb	$1, 103(%rsp)
	jmp	.LBB49_4
.LBB49_3:
	movq	72(%rsp), %rax
	cmpq	$0, 8(%rax)
	sete	%al
	andb	$1, %al
	movb	%al, 103(%rsp)
.LBB49_4:
	testb	$1, 103(%rsp)
	jne	.LBB49_6
	.cv_loc	49 4 247 0
	movq	$8, 136(%rsp)
	jmp	.LBB49_8
.LBB49_6:
	.cv_loc	49 4 242 0
	movq	80(%rsp), %rax
	movq	$0, (%rax)
.LBB49_7:
	.cv_loc	49 4 253 0
	movq	88(%rsp), %rax
	addq	$168, %rsp
	retq
.LBB49_8:
.Ltmp280:
	.cv_loc	49 4 248 0
	jmp	.LBB49_9
.LBB49_9:
	movq	72(%rsp), %rax
	movq	8(%rax), %rcx
	shlq	$5, %rcx
	movq	%rcx, 144(%rsp)
.Ltmp281:
	.cv_loc	49 4 249 0
	movl	$8, %edx
	callq	_ZN4core5alloc6layout6Layout25from_size_align_unchecked17h15f9097a52d0dc8bE
	movq	%rax, 56(%rsp)
	movq	%rdx, 64(%rsp)
	movq	%rax, 152(%rsp)
	movq	%rdx, 160(%rsp)
	.cv_loc	49 4 250 0
	movq	72(%rsp), %rax
.Ltmp282:
	movq	(%rax), %rcx
	callq	_ZN4core3ptr6unique15Unique$LT$T$GT$4cast17h22a06e7f153b96c0E
	movq	%rax, 48(%rsp)
	movq	48(%rsp), %rcx
	callq	_ZN50_$LT$T$u20$as$u20$core..convert..Into$LT$U$GT$$GT$4into17hdd7696ae2e8889c2E
	movq	%rax, 40(%rsp)
	movq	80(%rsp), %rax
	movq	64(%rsp), %rcx
	movq	56(%rsp), %rdx
	movq	40(%rsp), %r8
	movq	%r8, 104(%rsp)
	movq	%rdx, 112(%rsp)
	movq	%rcx, 120(%rsp)
	movq	104(%rsp), %rcx
	movq	%rcx, (%rax)
	movq	112(%rsp), %rcx
	movq	%rcx, 8(%rax)
	movq	120(%rsp), %rcx
	movq	%rcx, 16(%rax)
.Ltmp283:
	.cv_loc	49 4 241 0
	jmp	.LBB49_7
.Ltmp284:
.Lfunc_end49:
	.seh_endproc

	.def	_ZN77_$LT$alloc..raw_vec..RawVec$LT$T$C$A$GT$$u20$as$u20$core..ops..drop..Drop$GT$4drop17hb00b2b3d073681c1E;
	.scl	3;
	.type	32;
	.endef
	.section	.text,"xr",one_only,_ZN77_$LT$alloc..raw_vec..RawVec$LT$T$C$A$GT$$u20$as$u20$core..ops..drop..Drop$GT$4drop17hb00b2b3d073681c1E
	.p2align	4, 0x90
_ZN77_$LT$alloc..raw_vec..RawVec$LT$T$C$A$GT$$u20$as$u20$core..ops..drop..Drop$GT$4drop17hb00b2b3d073681c1E:
.Lfunc_begin50:
	.cv_func_id 50
	.cv_loc	50 4 477 0
.seh_proc _ZN77_$LT$alloc..raw_vec..RawVec$LT$T$C$A$GT$$u20$as$u20$core..ops..drop..Drop$GT$4drop17hb00b2b3d073681c1E
	subq	$104, %rsp
	.seh_stackalloc 104
	.seh_endprologue
	movq	%rcx, %rdx
	movq	%rdx, 40(%rsp)
	movq	%rdx, 72(%rsp)
.Ltmp285:
	.cv_loc	50 4 478 0
	leaq	48(%rsp), %rcx
	callq	_ZN5alloc7raw_vec19RawVec$LT$T$C$A$GT$14current_memory17hf019afb5cf420921E
	movl	$1, %eax
	xorl	%ecx, %ecx
	cmpq	$0, 48(%rsp)
	cmoveq	%rcx, %rax
	cmpq	$1, %rax
	jne	.LBB50_3
	movq	40(%rsp), %rcx
	movq	48(%rsp), %rdx
	movq	%rdx, 80(%rsp)
	movq	56(%rsp), %r8
	movq	64(%rsp), %r9
	movq	%r8, 88(%rsp)
	movq	%r9, 96(%rsp)
	.cv_loc	50 4 479 0
	callq	_ZN63_$LT$alloc..alloc..Global$u20$as$u20$core..alloc..Allocator$GT$10deallocate17hee8d68ad33cf6f41E
	jmp	.LBB50_4
.LBB50_3:
	.cv_loc	50 4 481 0
	addq	$104, %rsp
	retq
.LBB50_4:
	.cv_loc	50 4 478 0
	jmp	.LBB50_3
.Ltmp286:
.Lfunc_end50:
	.seh_endproc

	.def	_ZN77_$LT$alloc..raw_vec..RawVec$LT$T$C$A$GT$$u20$as$u20$core..ops..drop..Drop$GT$4drop17he83ee23b80ffd62aE;
	.scl	3;
	.type	32;
	.endef
	.section	.text,"xr",one_only,_ZN77_$LT$alloc..raw_vec..RawVec$LT$T$C$A$GT$$u20$as$u20$core..ops..drop..Drop$GT$4drop17he83ee23b80ffd62aE
	.p2align	4, 0x90
_ZN77_$LT$alloc..raw_vec..RawVec$LT$T$C$A$GT$$u20$as$u20$core..ops..drop..Drop$GT$4drop17he83ee23b80ffd62aE:
.Lfunc_begin51:
	.cv_func_id 51
	.cv_loc	51 4 477 0
.seh_proc _ZN77_$LT$alloc..raw_vec..RawVec$LT$T$C$A$GT$$u20$as$u20$core..ops..drop..Drop$GT$4drop17he83ee23b80ffd62aE
	subq	$104, %rsp
	.seh_stackalloc 104
	.seh_endprologue
	movq	%rcx, %rdx
	movq	%rdx, 40(%rsp)
	movq	%rdx, 72(%rsp)
.Ltmp287:
	.cv_loc	51 4 478 0
	leaq	48(%rsp), %rcx
	callq	_ZN5alloc7raw_vec19RawVec$LT$T$C$A$GT$14current_memory17hd6625d74f89212e2E
	movl	$1, %eax
	xorl	%ecx, %ecx
	cmpq	$0, 48(%rsp)
	cmoveq	%rcx, %rax
	cmpq	$1, %rax
	jne	.LBB51_3
	movq	40(%rsp), %rcx
	movq	48(%rsp), %rdx
	movq	%rdx, 80(%rsp)
	movq	56(%rsp), %r8
	movq	64(%rsp), %r9
	movq	%r8, 88(%rsp)
	movq	%r9, 96(%rsp)
	.cv_loc	51 4 479 0
	callq	_ZN63_$LT$alloc..alloc..Global$u20$as$u20$core..alloc..Allocator$GT$10deallocate17hee8d68ad33cf6f41E
	jmp	.LBB51_4
.LBB51_3:
	.cv_loc	51 4 481 0
	addq	$104, %rsp
	retq
.LBB51_4:
	.cv_loc	51 4 478 0
	jmp	.LBB51_3
.Ltmp288:
.Lfunc_end51:
	.seh_endproc

	.def	_ZN77_$LT$alloc..raw_vec..RawVec$LT$T$C$A$GT$$u20$as$u20$core..ops..drop..Drop$GT$4drop17hfb6850588b767093E;
	.scl	3;
	.type	32;
	.endef
	.section	.text,"xr",one_only,_ZN77_$LT$alloc..raw_vec..RawVec$LT$T$C$A$GT$$u20$as$u20$core..ops..drop..Drop$GT$4drop17hfb6850588b767093E
	.p2align	4, 0x90
_ZN77_$LT$alloc..raw_vec..RawVec$LT$T$C$A$GT$$u20$as$u20$core..ops..drop..Drop$GT$4drop17hfb6850588b767093E:
.Lfunc_begin52:
	.cv_func_id 52
	.cv_loc	52 4 477 0
.seh_proc _ZN77_$LT$alloc..raw_vec..RawVec$LT$T$C$A$GT$$u20$as$u20$core..ops..drop..Drop$GT$4drop17hfb6850588b767093E
	subq	$104, %rsp
	.seh_stackalloc 104
	.seh_endprologue
	movq	%rcx, %rdx
	movq	%rdx, 40(%rsp)
	movq	%rdx, 72(%rsp)
.Ltmp289:
	.cv_loc	52 4 478 0
	leaq	48(%rsp), %rcx
	callq	_ZN5alloc7raw_vec19RawVec$LT$T$C$A$GT$14current_memory17ha90f3b69ae744e3cE
	movl	$1, %eax
	xorl	%ecx, %ecx
	cmpq	$0, 48(%rsp)
	cmoveq	%rcx, %rax
	cmpq	$1, %rax
	jne	.LBB52_3
	movq	40(%rsp), %rcx
	movq	48(%rsp), %rdx
	movq	%rdx, 80(%rsp)
	movq	56(%rsp), %r8
	movq	64(%rsp), %r9
	movq	%r8, 88(%rsp)
	movq	%r9, 96(%rsp)
	.cv_loc	52 4 479 0
	callq	_ZN63_$LT$alloc..alloc..Global$u20$as$u20$core..alloc..Allocator$GT$10deallocate17hee8d68ad33cf6f41E
	jmp	.LBB52_4
.LBB52_3:
	.cv_loc	52 4 481 0
	addq	$104, %rsp
	retq
.LBB52_4:
	.cv_loc	52 4 478 0
	jmp	.LBB52_3
.Ltmp290:
.Lfunc_end52:
	.seh_endproc

	.def	_ZN5alloc5alloc7dealloc17h8cb858a8fdd57854E;
	.scl	3;
	.type	32;
	.endef
	.section	.text,"xr",one_only,_ZN5alloc5alloc7dealloc17h8cb858a8fdd57854E
	.p2align	4, 0x90
_ZN5alloc5alloc7dealloc17h8cb858a8fdd57854E:
.Lfunc_begin53:
	.cv_func_id 53
	.cv_file	5 "/rustc/7737e0b5c4103216d6fd8cf941b7ab9bdbaace7c\\library\\alloc\\src\\alloc.rs" "B7157806B533F68E3BD3407E0C9EF648E1799A6E" 2
	.cv_loc	53 5 104 0
.seh_proc _ZN5alloc5alloc7dealloc17h8cb858a8fdd57854E
	subq	$88, %rsp
	.seh_stackalloc 88
	.seh_endprologue
	movq	%rcx, 48(%rsp)
	movq	%rdx, 64(%rsp)
	movq	%r8, 72(%rsp)
	movq	%rcx, 80(%rsp)
.Ltmp291:
	.cv_loc	53 5 105 0
	leaq	64(%rsp), %rcx
	callq	_ZN4core5alloc6layout6Layout4size17hafe1f2976d036f72E
	movq	%rax, 56(%rsp)
	leaq	64(%rsp), %rcx
	callq	_ZN4core5alloc6layout6Layout5align17h2fcb852c0de5139bE
	movq	%rax, 40(%rsp)
	movq	40(%rsp), %r8
	movq	56(%rsp), %rdx
	movq	48(%rsp), %rcx
	callq	__rust_dealloc
	.cv_loc	53 5 106 0
	nop
	addq	$88, %rsp
	retq
.Ltmp292:
.Lfunc_end53:
	.seh_endproc

	.def	_ZN63_$LT$alloc..alloc..Global$u20$as$u20$core..alloc..Allocator$GT$10deallocate17hee8d68ad33cf6f41E;
	.scl	3;
	.type	32;
	.endef
	.section	.text,"xr",one_only,_ZN63_$LT$alloc..alloc..Global$u20$as$u20$core..alloc..Allocator$GT$10deallocate17hee8d68ad33cf6f41E
	.p2align	4, 0x90
_ZN63_$LT$alloc..alloc..Global$u20$as$u20$core..alloc..Allocator$GT$10deallocate17hee8d68ad33cf6f41E:
.Lfunc_begin54:
	.cv_func_id 54
	.cv_loc	54 5 238 0
.seh_proc _ZN63_$LT$alloc..alloc..Global$u20$as$u20$core..alloc..Allocator$GT$10deallocate17hee8d68ad33cf6f41E
	subq	$88, %rsp
	.seh_stackalloc 88
	.seh_endprologue
	movq	%rdx, 40(%rsp)
	movq	%r8, 56(%rsp)
	movq	%r9, 64(%rsp)
	movq	%rcx, 72(%rsp)
	movq	%rdx, 80(%rsp)
.Ltmp293:
	.cv_loc	54 5 239 0
	leaq	56(%rsp), %rcx
	callq	_ZN4core5alloc6layout6Layout4size17hafe1f2976d036f72E
	movq	%rax, 48(%rsp)
	movq	48(%rsp), %rax
	cmpq	$0, %rax
	jne	.LBB54_3
	jmp	.LBB54_6
.LBB54_3:
	.cv_loc	54 5 242 0
	movq	40(%rsp), %rcx
	callq	_ZN4core3ptr8non_null16NonNull$LT$T$GT$6as_ptr17h9dfff9e581f15810E
	movq	%rax, 32(%rsp)
	movq	32(%rsp), %rcx
	movq	56(%rsp), %rdx
	movq	64(%rsp), %r8
	callq	_ZN5alloc5alloc7dealloc17h8cb858a8fdd57854E
	.cv_loc	54 5 239 0
	jmp	.LBB54_6
.LBB54_6:
	.cv_loc	54 5 244 0
	addq	$88, %rsp
	retq
.Ltmp294:
.Lfunc_end54:
	.seh_endproc

	.def	_ZN5alloc5alloc8box_free17h2de1823e7063d6bdE;
	.scl	3;
	.type	32;
	.endef
	.section	.text,"xr",one_only,_ZN5alloc5alloc8box_free17h2de1823e7063d6bdE
	.p2align	4, 0x90
_ZN5alloc5alloc8box_free17h2de1823e7063d6bdE:
.Lfunc_begin55:
	.cv_func_id 55
	.cv_loc	55 5 332 0
.seh_proc _ZN5alloc5alloc8box_free17h2de1823e7063d6bdE
	.seh_handler __CxxFrameHandler3, @unwind, @except
	pushq	%rbp
	.seh_pushreg %rbp
	subq	$192, %rsp
	.seh_stackalloc 192
	leaq	128(%rsp), %rbp
	.seh_setframe %rbp, 128
	.seh_endprologue
	movq	$-2, 56(%rbp)
	movq	%rcx, -16(%rbp)
	movq	%rdx, -8(%rbp)
	.cv_loc	55 5 337 0
.Ltmp295:
	leaq	-16(%rbp), %rcx
.Ltmp307:
	callq	_ZN4core3ptr6unique15Unique$LT$T$GT$6as_ref17hfde3d7e1ff5508ffE
.Ltmp296:
	movq	%rdx, -24(%rbp)
	jmp	.LBB55_1
.LBB55_1:
	movq	-24(%rbp), %rax
	movq	8(%rax), %rax
	movq	%rax, 8(%rbp)
	movq	8(%rbp), %rax
	movq	%rax, -40(%rbp)
	movq	%rax, 16(%rbp)
	.cv_loc	55 5 338 0
.Ltmp297:
	leaq	-16(%rbp), %rcx
.Ltmp308:
	callq	_ZN4core3ptr6unique15Unique$LT$T$GT$6as_ref17hfde3d7e1ff5508ffE
.Ltmp298:
	movq	%rdx, -32(%rbp)
	jmp	.LBB55_3
.LBB55_3:
	movq	-40(%rbp), %rcx
	movq	-32(%rbp), %rax
	movq	16(%rax), %rax
	movq	%rax, 24(%rbp)
	movq	24(%rbp), %rdx
	movq	%rdx, 32(%rbp)
	.cv_loc	55 5 339 0
.Ltmp299:
.Ltmp309:
	callq	_ZN4core5alloc6layout6Layout25from_size_align_unchecked17h15f9097a52d0dc8bE
.Ltmp300:
	movq	%rdx, -56(%rbp)
	movq	%rax, -48(%rbp)
	jmp	.LBB55_4
.LBB55_4:
	movq	-56(%rbp), %rax
	movq	-48(%rbp), %rcx
	movq	%rcx, %rdx
	movq	%rdx, -80(%rbp)
	movq	%rax, %rdx
	movq	%rdx, -72(%rbp)
	movq	%rcx, 40(%rbp)
	movq	%rax, 48(%rbp)
.Ltmp310:
	.cv_loc	55 5 340 0
	movq	-16(%rbp), %rcx
	movq	-8(%rbp), %rdx
.Ltmp301:
	callq	_ZN4core3ptr6unique15Unique$LT$T$GT$4cast17h2fb2ff0b9d4af799E
.Ltmp302:
	movq	%rax, -64(%rbp)
	jmp	.LBB55_5
.LBB55_5:
.Ltmp303:
	movq	-64(%rbp), %rcx
	callq	_ZN119_$LT$core..ptr..non_null..NonNull$LT$T$GT$$u20$as$u20$core..convert..From$LT$core..ptr..unique..Unique$LT$T$GT$$GT$$GT$4from17hc6114e6e6a470d22E
.Ltmp304:
	movq	%rax, -88(%rbp)
	jmp	.LBB55_6
.LBB55_6:
.Ltmp305:
	movq	-72(%rbp), %r9
	movq	-80(%rbp), %r8
	movq	-88(%rbp), %rdx
	movq	%rbp, %rcx
	callq	_ZN63_$LT$alloc..alloc..Global$u20$as$u20$core..alloc..Allocator$GT$10deallocate17hee8d68ad33cf6f41E
.Ltmp306:
	jmp	.LBB55_7
.Ltmp311:
.LBB55_7:
	.cv_loc	55 5 342 0
	addq	$192, %rsp
	popq	%rbp
	retq
	.seh_handlerdata
	.long	($cppxdata$_ZN5alloc5alloc8box_free17h2de1823e7063d6bdE)@IMGREL
	.section	.text,"xr",one_only,_ZN5alloc5alloc8box_free17h2de1823e7063d6bdE
	.seh_endproc
	.def	"?dtor$2@?0?_ZN5alloc5alloc8box_free17h2de1823e7063d6bdE@4HA";
	.scl	3;
	.type	32;
	.endef
	.p2align	4, 0x90
"?dtor$2@?0?_ZN5alloc5alloc8box_free17h2de1823e7063d6bdE@4HA":
.seh_proc "?dtor$2@?0?_ZN5alloc5alloc8box_free17h2de1823e7063d6bdE@4HA"
.LBB55_2:
	movq	%rdx, 16(%rsp)
	pushq	%rbp
	.seh_pushreg %rbp
	subq	$32, %rsp
	.seh_stackalloc 32
	leaq	128(%rdx), %rbp
	.seh_endprologue
	.cv_loc	55 5 332 0
	addq	$32, %rsp
	popq	%rbp
	retq
.Ltmp312:
.Lfunc_end55:
	.seh_handlerdata
	.section	.text,"xr",one_only,_ZN5alloc5alloc8box_free17h2de1823e7063d6bdE
	.seh_endproc
	.section	.xdata,"dr",associative,_ZN5alloc5alloc8box_free17h2de1823e7063d6bdE
	.p2align	2
$cppxdata$_ZN5alloc5alloc8box_free17h2de1823e7063d6bdE:
	.long	429065506
	.long	1
	.long	($stateUnwindMap$_ZN5alloc5alloc8box_free17h2de1823e7063d6bdE)@IMGREL
	.long	0
	.long	0
	.long	3
	.long	($ip2state$_ZN5alloc5alloc8box_free17h2de1823e7063d6bdE)@IMGREL
	.long	184
	.long	0
	.long	1
$stateUnwindMap$_ZN5alloc5alloc8box_free17h2de1823e7063d6bdE:
	.long	-1
	.long	"?dtor$2@?0?_ZN5alloc5alloc8box_free17h2de1823e7063d6bdE@4HA"@IMGREL
$ip2state$_ZN5alloc5alloc8box_free17h2de1823e7063d6bdE:
	.long	.Lfunc_begin55@IMGREL
	.long	-1
	.long	.Ltmp295@IMGREL+1
	.long	0
	.long	.Ltmp306@IMGREL+1
	.long	-1
	.section	.text,"xr",one_only,_ZN5alloc5alloc8box_free17h2de1823e7063d6bdE

	.def	_ZN5alloc5alloc8box_free17h8f82ba223a192ae5E;
	.scl	3;
	.type	32;
	.endef
	.section	.text,"xr",one_only,_ZN5alloc5alloc8box_free17h8f82ba223a192ae5E
	.p2align	4, 0x90
_ZN5alloc5alloc8box_free17h8f82ba223a192ae5E:
.Lfunc_begin56:
	.cv_func_id 56
	.cv_loc	56 5 332 0
.seh_proc _ZN5alloc5alloc8box_free17h8f82ba223a192ae5E
	.seh_handler __CxxFrameHandler3, @unwind, @except
	pushq	%rbp
	.seh_pushreg %rbp
	subq	$160, %rsp
	.seh_stackalloc 160
	leaq	128(%rsp), %rbp
	.seh_setframe %rbp, 128
	.seh_endprologue
	movq	$-2, 24(%rbp)
	movq	%rcx, -40(%rbp)
	.cv_loc	56 5 337 0
.Ltmp313:
	leaq	-40(%rbp), %rcx
.Ltmp325:
	callq	_ZN4core3ptr6unique15Unique$LT$T$GT$6as_ref17h3f68d331c125a159E
.Ltmp314:
	jmp	.LBB56_1
.LBB56_1:
	movq	$24, -24(%rbp)
	movq	-24(%rbp), %rax
	movq	%rax, -48(%rbp)
	movq	%rax, -16(%rbp)
	.cv_loc	56 5 338 0
.Ltmp315:
	leaq	-40(%rbp), %rcx
.Ltmp326:
	callq	_ZN4core3ptr6unique15Unique$LT$T$GT$6as_ref17h3f68d331c125a159E
.Ltmp316:
	jmp	.LBB56_3
.LBB56_3:
	movq	-48(%rbp), %rcx
	movq	$8, -8(%rbp)
	movq	-8(%rbp), %rdx
	movq	%rdx, (%rbp)
	.cv_loc	56 5 339 0
.Ltmp317:
.Ltmp327:
	callq	_ZN4core5alloc6layout6Layout25from_size_align_unchecked17h15f9097a52d0dc8bE
.Ltmp318:
	movq	%rdx, -64(%rbp)
	movq	%rax, -56(%rbp)
	jmp	.LBB56_4
.LBB56_4:
	movq	-64(%rbp), %rax
	movq	-56(%rbp), %rcx
	movq	%rcx, %rdx
	movq	%rdx, -88(%rbp)
	movq	%rax, %rdx
	movq	%rdx, -80(%rbp)
	movq	%rcx, 8(%rbp)
	movq	%rax, 16(%rbp)
.Ltmp328:
	.cv_loc	56 5 340 0
	movq	-40(%rbp), %rcx
.Ltmp319:
	callq	_ZN4core3ptr6unique15Unique$LT$T$GT$4cast17h136ab7a99aa3c6b6E
.Ltmp320:
	movq	%rax, -72(%rbp)
	jmp	.LBB56_5
.LBB56_5:
.Ltmp321:
	movq	-72(%rbp), %rcx
	callq	_ZN119_$LT$core..ptr..non_null..NonNull$LT$T$GT$$u20$as$u20$core..convert..From$LT$core..ptr..unique..Unique$LT$T$GT$$GT$$GT$4from17hc6114e6e6a470d22E
.Ltmp322:
	movq	%rax, -96(%rbp)
	jmp	.LBB56_6
.LBB56_6:
.Ltmp323:
	movq	-80(%rbp), %r9
	movq	-88(%rbp), %r8
	movq	-96(%rbp), %rdx
	leaq	-32(%rbp), %rcx
	callq	_ZN63_$LT$alloc..alloc..Global$u20$as$u20$core..alloc..Allocator$GT$10deallocate17hee8d68ad33cf6f41E
.Ltmp324:
	jmp	.LBB56_7
.Ltmp329:
.LBB56_7:
	.cv_loc	56 5 342 0
	addq	$160, %rsp
	popq	%rbp
	retq
	.seh_handlerdata
	.long	($cppxdata$_ZN5alloc5alloc8box_free17h8f82ba223a192ae5E)@IMGREL
	.section	.text,"xr",one_only,_ZN5alloc5alloc8box_free17h8f82ba223a192ae5E
	.seh_endproc
	.def	"?dtor$2@?0?_ZN5alloc5alloc8box_free17h8f82ba223a192ae5E@4HA";
	.scl	3;
	.type	32;
	.endef
	.p2align	4, 0x90
"?dtor$2@?0?_ZN5alloc5alloc8box_free17h8f82ba223a192ae5E@4HA":
.seh_proc "?dtor$2@?0?_ZN5alloc5alloc8box_free17h8f82ba223a192ae5E@4HA"
.LBB56_2:
	movq	%rdx, 16(%rsp)
	pushq	%rbp
	.seh_pushreg %rbp
	subq	$32, %rsp
	.seh_stackalloc 32
	leaq	128(%rdx), %rbp
	.seh_endprologue
	.cv_loc	56 5 332 0
	addq	$32, %rsp
	popq	%rbp
	retq
.Ltmp330:
.Lfunc_end56:
	.seh_handlerdata
	.section	.text,"xr",one_only,_ZN5alloc5alloc8box_free17h8f82ba223a192ae5E
	.seh_endproc
	.section	.xdata,"dr",associative,_ZN5alloc5alloc8box_free17h8f82ba223a192ae5E
	.p2align	2
$cppxdata$_ZN5alloc5alloc8box_free17h8f82ba223a192ae5E:
	.long	429065506
	.long	1
	.long	($stateUnwindMap$_ZN5alloc5alloc8box_free17h8f82ba223a192ae5E)@IMGREL
	.long	0
	.long	0
	.long	3
	.long	($ip2state$_ZN5alloc5alloc8box_free17h8f82ba223a192ae5E)@IMGREL
	.long	152
	.long	0
	.long	1
$stateUnwindMap$_ZN5alloc5alloc8box_free17h8f82ba223a192ae5E:
	.long	-1
	.long	"?dtor$2@?0?_ZN5alloc5alloc8box_free17h8f82ba223a192ae5E@4HA"@IMGREL
$ip2state$_ZN5alloc5alloc8box_free17h8f82ba223a192ae5E:
	.long	.Lfunc_begin56@IMGREL
	.long	-1
	.long	.Ltmp313@IMGREL+1
	.long	0
	.long	.Ltmp324@IMGREL+1
	.long	-1
	.section	.text,"xr",one_only,_ZN5alloc5alloc8box_free17h8f82ba223a192ae5E

	.def	_ZN5alloc5boxed12Box$LT$T$GT$8from_raw17h3635b2694623c24cE;
	.scl	3;
	.type	32;
	.endef
	.section	.text,"xr",one_only,_ZN5alloc5boxed12Box$LT$T$GT$8from_raw17h3635b2694623c24cE
	.p2align	4, 0x90
_ZN5alloc5boxed12Box$LT$T$GT$8from_raw17h3635b2694623c24cE:
.Lfunc_begin57:
	.cv_func_id 57
	.cv_file	6 "/rustc/7737e0b5c4103216d6fd8cf941b7ab9bdbaace7c\\library\\alloc\\src\\boxed.rs" "A00352B6C903496905818B5816CA3DE0308DB495" 2
	.cv_loc	57 6 920 0
.seh_proc _ZN5alloc5boxed12Box$LT$T$GT$8from_raw17h3635b2694623c24cE
	subq	$56, %rsp
	.seh_stackalloc 56
	.seh_endprologue
	movq	%rcx, 48(%rsp)
.Ltmp331:
	.cv_loc	57 6 921 0
	callq	_ZN5alloc5boxed16Box$LT$T$C$A$GT$11from_raw_in17he3597f00471e2e2eE
	movq	%rax, 40(%rsp)
	.cv_loc	57 6 922 0
	movq	40(%rsp), %rax
	addq	$56, %rsp
	retq
.Ltmp332:
.Lfunc_end57:
	.seh_endproc

	.def	_ZN5alloc5boxed16Box$LT$T$C$A$GT$11from_raw_in17he3597f00471e2e2eE;
	.scl	3;
	.type	32;
	.endef
	.section	.text,"xr",one_only,_ZN5alloc5boxed16Box$LT$T$C$A$GT$11from_raw_in17he3597f00471e2e2eE
	.p2align	4, 0x90
_ZN5alloc5boxed16Box$LT$T$C$A$GT$11from_raw_in17he3597f00471e2e2eE:
.Lfunc_begin58:
	.cv_func_id 58
	.cv_loc	58 6 976 0
.seh_proc _ZN5alloc5boxed16Box$LT$T$C$A$GT$11from_raw_in17he3597f00471e2e2eE
	.seh_handler __CxxFrameHandler3, @unwind, @except
	pushq	%rbp
	.seh_pushreg %rbp
	subq	$64, %rsp
	.seh_stackalloc 64
	leaq	64(%rsp), %rbp
	.seh_setframe %rbp, 64
	.seh_endprologue
	movq	$-2, -8(%rbp)
	movq	%rcx, -16(%rbp)
	.cv_loc	58 6 977 0
.Ltmp333:
.Ltmp335:
	callq	_ZN4core3ptr6unique15Unique$LT$T$GT$13new_unchecked17h35dc1fbd4702272eE
.Ltmp334:
	movq	%rax, -32(%rbp)
	jmp	.LBB58_1
.LBB58_1:
	movq	-32(%rbp), %rax
	movq	%rax, -24(%rbp)
	.cv_loc	58 6 978 0
	movq	-24(%rbp), %rax
	addq	$64, %rsp
	popq	%rbp
	retq
	.seh_handlerdata
	.long	($cppxdata$_ZN5alloc5boxed16Box$LT$T$C$A$GT$11from_raw_in17he3597f00471e2e2eE)@IMGREL
	.section	.text,"xr",one_only,_ZN5alloc5boxed16Box$LT$T$C$A$GT$11from_raw_in17he3597f00471e2e2eE
	.seh_endproc
	.def	"?dtor$2@?0?_ZN5alloc5boxed16Box$LT$T$C$A$GT$11from_raw_in17he3597f00471e2e2eE@4HA";
	.scl	3;
	.type	32;
	.endef
	.p2align	4, 0x90
"?dtor$2@?0?_ZN5alloc5boxed16Box$LT$T$C$A$GT$11from_raw_in17he3597f00471e2e2eE@4HA":
.seh_proc "?dtor$2@?0?_ZN5alloc5boxed16Box$LT$T$C$A$GT$11from_raw_in17he3597f00471e2e2eE@4HA"
.LBB58_2:
	movq	%rdx, 16(%rsp)
	pushq	%rbp
	.seh_pushreg %rbp
	subq	$32, %rsp
	.seh_stackalloc 32
	leaq	64(%rdx), %rbp
	.seh_endprologue
	.cv_loc	58 6 976 0
	addq	$32, %rsp
	popq	%rbp
	retq
.Ltmp336:
.Lfunc_end58:
	.seh_handlerdata
	.section	.text,"xr",one_only,_ZN5alloc5boxed16Box$LT$T$C$A$GT$11from_raw_in17he3597f00471e2e2eE
	.seh_endproc
	.section	.xdata,"dr",associative,_ZN5alloc5boxed16Box$LT$T$C$A$GT$11from_raw_in17he3597f00471e2e2eE
	.p2align	2
$cppxdata$_ZN5alloc5boxed16Box$LT$T$C$A$GT$11from_raw_in17he3597f00471e2e2eE:
	.long	429065506
	.long	1
	.long	($stateUnwindMap$_ZN5alloc5boxed16Box$LT$T$C$A$GT$11from_raw_in17he3597f00471e2e2eE)@IMGREL
	.long	0
	.long	0
	.long	3
	.long	($ip2state$_ZN5alloc5boxed16Box$LT$T$C$A$GT$11from_raw_in17he3597f00471e2e2eE)@IMGREL
	.long	56
	.long	0
	.long	1
$stateUnwindMap$_ZN5alloc5boxed16Box$LT$T$C$A$GT$11from_raw_in17he3597f00471e2e2eE:
	.long	-1
	.long	"?dtor$2@?0?_ZN5alloc5boxed16Box$LT$T$C$A$GT$11from_raw_in17he3597f00471e2e2eE@4HA"@IMGREL
$ip2state$_ZN5alloc5boxed16Box$LT$T$C$A$GT$11from_raw_in17he3597f00471e2e2eE:
	.long	.Lfunc_begin58@IMGREL
	.long	-1
	.long	.Ltmp333@IMGREL+1
	.long	0
	.long	.Ltmp334@IMGREL+1
	.long	-1
	.section	.text,"xr",one_only,_ZN5alloc5boxed16Box$LT$T$C$A$GT$11from_raw_in17he3597f00471e2e2eE

	.def	_ZN71_$LT$alloc..borrow..Cow$LT$B$GT$$u20$as$u20$core..ops..deref..Deref$GT$5deref17h04f53afdf5745067E;
	.scl	3;
	.type	32;
	.endef
	.section	.text,"xr",one_only,_ZN71_$LT$alloc..borrow..Cow$LT$B$GT$$u20$as$u20$core..ops..deref..Deref$GT$5deref17h04f53afdf5745067E
	.p2align	4, 0x90
_ZN71_$LT$alloc..borrow..Cow$LT$B$GT$$u20$as$u20$core..ops..deref..Deref$GT$5deref17h04f53afdf5745067E:
.Lfunc_begin59:
	.cv_func_id 59
	.cv_file	7 "/rustc/7737e0b5c4103216d6fd8cf941b7ab9bdbaace7c\\library\\alloc\\src\\borrow.rs" "DEEDB69AAF635E2A35E2D0101388486B05473518" 2
	.cv_loc	59 7 340 0
.seh_proc _ZN71_$LT$alloc..borrow..Cow$LT$B$GT$$u20$as$u20$core..ops..deref..Deref$GT$5deref17h04f53afdf5745067E
	subq	$104, %rsp
	.seh_stackalloc 104
	.seh_endprologue
	movq	%rcx, 48(%rsp)
	movq	%rcx, 72(%rsp)
.Ltmp337:
	.cv_loc	59 7 341 0
	movq	(%rcx), %rax
	testq	%rax, %rax
	je	.LBB59_2
	jmp	.LBB59_6
.LBB59_6:
	jmp	.LBB59_3
	ud2
.LBB59_2:
	.cv_loc	59 7 342 0
	movq	48(%rsp), %rax
	movq	8(%rax), %rcx
	movq	16(%rax), %rax
	movq	%rcx, 88(%rsp)
	movq	%rax, 96(%rsp)
.Ltmp338:
	.cv_loc	59 7 342 0
	movq	%rcx, 56(%rsp)
	movq	%rax, 64(%rsp)
.Ltmp339:
	.cv_loc	59 7 342 0
	jmp	.LBB59_5
.LBB59_3:
	.cv_loc	59 7 343 0
	movq	48(%rsp), %rcx
	addq	$8, %rcx
	movq	%rcx, 80(%rsp)
.Ltmp340:
	.cv_loc	59 7 343 0
	callq	_ZN5alloc3str83_$LT$impl$u20$core..borrow..Borrow$LT$str$GT$$u20$for$u20$alloc..string..String$GT$6borrow17h043e9d7f6a27c228E
	movq	%rax, 32(%rsp)
	movq	%rdx, 40(%rsp)
	movq	40(%rsp), %rax
	movq	32(%rsp), %rcx
	movq	%rcx, 56(%rsp)
	movq	%rax, 64(%rsp)
.Ltmp341:
.LBB59_5:
	.cv_loc	59 7 345 0
	movq	56(%rsp), %rax
	movq	64(%rsp), %rdx
	addq	$104, %rsp
	retq
.Ltmp342:
.Lfunc_end59:
	.seh_endproc

	.def	_ZN95_$LT$alloc..collections..btree..map..BTreeMap$LT$K$C$V$GT$$u20$as$u20$core..ops..drop..Drop$GT$4drop17h9e3ab77a79869367E;
	.scl	3;
	.type	32;
	.endef
	.section	.text,"xr",one_only,_ZN95_$LT$alloc..collections..btree..map..BTreeMap$LT$K$C$V$GT$$u20$as$u20$core..ops..drop..Drop$GT$4drop17h9e3ab77a79869367E
	.p2align	4, 0x90
_ZN95_$LT$alloc..collections..btree..map..BTreeMap$LT$K$C$V$GT$$u20$as$u20$core..ops..drop..Drop$GT$4drop17h9e3ab77a79869367E:
.Lfunc_begin60:
	.cv_func_id 60
	.cv_file	8 "/rustc/7737e0b5c4103216d6fd8cf941b7ab9bdbaace7c\\library\\alloc\\src\\collections\\btree\\map.rs" "B240C8AFAFDB26D7A9B48BF5FAF502301950B9EF" 2
	.cv_loc	60 8 173 0
.seh_proc _ZN95_$LT$alloc..collections..btree..map..BTreeMap$LT$K$C$V$GT$$u20$as$u20$core..ops..drop..Drop$GT$4drop17h9e3ab77a79869367E
	subq	$136, %rsp
	.seh_stackalloc 136
	.seh_endprologue
	movq	%rcx, %rdx
	movq	%rdx, 128(%rsp)
.Ltmp343:
	.cv_loc	60 8 174 0
	leaq	104(%rsp), %rcx
	callq	_ZN4core3ptr4read17h3b5c8e0cbb8aa396E
	leaq	32(%rsp), %rcx
	leaq	104(%rsp), %rdx
	callq	_ZN115_$LT$alloc..collections..btree..map..BTreeMap$LT$K$C$V$GT$$u20$as$u20$core..iter..traits..collect..IntoIterator$GT$9into_iter17h9c4cca1e9962553eE
	leaq	32(%rsp), %rcx
	callq	_ZN4core3mem4drop17hb436730c5d172aafE
	.cv_loc	60 8 175 0
	nop
	addq	$136, %rsp
	retq
.Ltmp344:
.Lfunc_end60:
	.seh_endproc

	.def	_ZN4core4hint21unreachable_unchecked17heb82c6f3ef353400E;
	.scl	3;
	.type	32;
	.endef
	.section	.text,"xr",one_only,_ZN4core4hint21unreachable_unchecked17heb82c6f3ef353400E
	.p2align	4, 0x90
_ZN4core4hint21unreachable_unchecked17heb82c6f3ef353400E:
.Lfunc_begin61:
	.cv_func_id 61
	.cv_file	9 "/rustc/7737e0b5c4103216d6fd8cf941b7ab9bdbaace7c\\library\\core\\src\\hint.rs" "91019E21840AC32D7C5ABEFBFFA63D35358616E9" 2
	.cv_loc	61 9 51 0
	ud2
.Ltmp345:
.Lfunc_end61:

	.def	_ZN4core4hint9black_box17h2b67be0894f1dc28E;
	.scl	3;
	.type	32;
	.endef
	.section	.text,"xr",one_only,_ZN4core4hint9black_box17h2b67be0894f1dc28E
	.p2align	4, 0x90
_ZN4core4hint9black_box17h2b67be0894f1dc28E:
.Lfunc_begin62:
	.cv_func_id 62
	.cv_loc	62 9 173 0
.seh_proc _ZN4core4hint9black_box17h2b67be0894f1dc28E
	pushq	%rax
	.seh_stackalloc 8
	.seh_endprologue
	.cv_loc	62 9 174 0
.Ltmp346:
	#APP
	#NO_APP
	.cv_loc	62 9 175 0
	popq	%rax
	retq
.Ltmp347:
.Lfunc_end62:
	.seh_endproc

	.def	_ZN115_$LT$alloc..collections..btree..map..BTreeMap$LT$K$C$V$GT$$u20$as$u20$core..iter..traits..collect..IntoIterator$GT$9into_iter17h9c4cca1e9962553eE;
	.scl	3;
	.type	32;
	.endef
	.section	.text,"xr",one_only,_ZN115_$LT$alloc..collections..btree..map..BTreeMap$LT$K$C$V$GT$$u20$as$u20$core..iter..traits..collect..IntoIterator$GT$9into_iter17h9c4cca1e9962553eE
	.p2align	4, 0x90
_ZN115_$LT$alloc..collections..btree..map..BTreeMap$LT$K$C$V$GT$$u20$as$u20$core..iter..traits..collect..IntoIterator$GT$9into_iter17h9c4cca1e9962553eE:
.Lfunc_begin63:
	.cv_func_id 63
	.cv_loc	63 8 1466 0
.seh_proc _ZN115_$LT$alloc..collections..btree..map..BTreeMap$LT$K$C$V$GT$$u20$as$u20$core..iter..traits..collect..IntoIterator$GT$9into_iter17h9c4cca1e9962553eE
	subq	$408, %rsp
	.seh_stackalloc 408
	.seh_endprologue
	movq	%rcx, 80(%rsp)
	movq	%rcx, 88(%rsp)
.Ltmp348:
	.cv_loc	63 8 1467 0
	movq	(%rdx), %rax
	movq	%rax, 120(%rsp)
	movq	8(%rdx), %rax
	movq	%rax, 128(%rsp)
	movq	16(%rdx), %rax
	movq	%rax, 136(%rsp)
.Ltmp349:
	.cv_file	10 "/rustc/7737e0b5c4103216d6fd8cf941b7ab9bdbaace7c\\library\\core\\src\\mem\\manually_drop.rs" "C76812D8B0D94514923EB29E3C1598C89809B611" 2
	.cv_inline_site_id 64 within 63 inlined_at 8 1467 0
	.cv_loc	64 10 70 0
	movq	120(%rsp), %rax
	movq	%rax, 368(%rsp)
	movq	128(%rsp), %rax
	movq	%rax, 376(%rsp)
	movq	136(%rsp), %rax
	movq	%rax, 384(%rsp)
	movq	368(%rsp), %rax
	movq	%rax, 96(%rsp)
	movq	376(%rsp), %rax
	movq	%rax, 104(%rsp)
	movq	384(%rsp), %rax
	movq	%rax, 112(%rsp)
.Ltmp350:
	.cv_inline_site_id 65 within 63 inlined_at 8 1468 0
	.cv_loc	65 10 162 0
	leaq	96(%rsp), %rax
	movq	%rax, 400(%rsp)
.Ltmp351:
	leaq	96(%rsp), %rax
	movq	%rax, 72(%rsp)
.Ltmp352:
	.cv_loc	63 8 1468 0
	movq	72(%rsp), %rcx
	callq	_ZN4core6option15Option$LT$T$GT$4take17h2690137730715243E
.Ltmp353:
	movq	%rdx, 152(%rsp)
	movq	%rax, 144(%rsp)
.Ltmp354:
	movl	$1, %eax
	xorl	%ecx, %ecx
	cmpq	$0, 152(%rsp)
	cmoveq	%rcx, %rax
	cmpq	$1, %rax
	jne	.LBB63_5
.Ltmp355:
	movq	144(%rsp), %rcx
	movq	152(%rsp), %rdx
	movq	%rcx, 352(%rsp)
	movq	%rdx, 360(%rsp)
	.cv_loc	63 8 1469 0
	callq	_ZN5alloc11collections5btree4node76NodeRef$LT$alloc..collections..btree..node..marker..Owned$C$K$C$V$C$Type$GT$10into_dying17ha081cea2bf08a738E
	movq	%rax, 56(%rsp)
	movq	%rdx, 64(%rsp)
	jmp	.LBB63_8
.Ltmp356:
.LBB63_5:
	.cv_loc	63 8 1473 0
	leaq	288(%rsp), %rcx
	callq	_ZN5alloc11collections5btree8navigate39LazyLeafRange$LT$BorrowType$C$K$C$V$GT$4none17h9ca90215d4c82cb9E
.Ltmp357:
	movq	80(%rsp), %rcx
	leaq	288(%rsp), %rdx
	movl	$64, %r8d
	callq	memcpy
	movq	80(%rsp), %rax
	movq	$0, 64(%rax)
.Ltmp358:
.LBB63_7:
	.cv_loc	63 8 1475 0
	movq	88(%rsp), %rax
	addq	$408, %rsp
	retq
.Ltmp359:
.LBB63_8:
	.cv_loc	63 8 1469 0
	movq	64(%rsp), %r8
	movq	56(%rsp), %rdx
.Ltmp360:
	leaq	160(%rsp), %rcx
	callq	_ZN5alloc11collections5btree8navigate178_$LT$impl$u20$alloc..collections..btree..node..NodeRef$LT$alloc..collections..btree..node..marker..Dying$C$K$C$V$C$alloc..collections..btree..node..marker..LeafOrInternal$GT$$GT$10full_range17h6353505399abbbacE
.Ltmp361:
	.cv_loc	63 8 1471 0
	leaq	224(%rsp), %rcx
	leaq	160(%rsp), %rdx
	movl	$64, %r8d
	callq	memcpy
	leaq	96(%rsp), %rax
	movq	%rax, 392(%rsp)
.Ltmp362:
	.cv_inline_site_id 66 within 63 inlined_at 8 1471 0
	.cv_loc	66 10 153 0
	leaq	96(%rsp), %rax
	movq	%rax, 48(%rsp)
.Ltmp363:
	.cv_loc	63 8 1471 0
	movq	80(%rsp), %rcx
	movq	48(%rsp), %rax
	movq	16(%rax), %rax
	movq	%rax, 40(%rsp)
	leaq	224(%rsp), %rdx
	movl	$64, %r8d
	callq	memcpy
	movq	40(%rsp), %rcx
	movq	80(%rsp), %rax
	movq	%rcx, 64(%rax)
.Ltmp364:
	.cv_loc	63 8 1468 0
	jmp	.LBB63_7
.Ltmp365:
.Lfunc_end63:
	.seh_endproc

	.def	_ZN95_$LT$alloc..collections..btree..map..IntoIter$LT$K$C$V$GT$$u20$as$u20$core..ops..drop..Drop$GT$4drop17habd2caebc0e83f58E;
	.scl	3;
	.type	32;
	.endef
	.section	.text,"xr",one_only,_ZN95_$LT$alloc..collections..btree..map..IntoIter$LT$K$C$V$GT$$u20$as$u20$core..ops..drop..Drop$GT$4drop17habd2caebc0e83f58E
	.p2align	4, 0x90
_ZN95_$LT$alloc..collections..btree..map..IntoIter$LT$K$C$V$GT$$u20$as$u20$core..ops..drop..Drop$GT$4drop17habd2caebc0e83f58E:
.Lfunc_begin64:
	.cv_func_id 67
	.cv_loc	67 8 1480 0
.seh_proc _ZN95_$LT$alloc..collections..btree..map..IntoIter$LT$K$C$V$GT$$u20$as$u20$core..ops..drop..Drop$GT$4drop17habd2caebc0e83f58E
	.seh_handler __CxxFrameHandler3, @unwind, @except
	pushq	%rbp
	.seh_pushreg %rbp
	subq	$144, %rsp
	.seh_stackalloc 144
	leaq	128(%rsp), %rbp
	.seh_setframe %rbp, 128
	.seh_endprologue
	movq	$-2, 8(%rbp)
	movq	%rcx, -96(%rbp)
	movq	%rcx, (%rbp)
.Ltmp370:
	.cv_loc	67 8 1494 0
	movb	$0, -1(%rbp)
.LBB64_1:
	movq	-96(%rbp), %rdx
	leaq	-88(%rbp), %rcx
	callq	_ZN5alloc11collections5btree3map21IntoIter$LT$K$C$V$GT$10dying_next17haaa9dea78dd6a2a2E
	movl	$1, %eax
	xorl	%ecx, %ecx
	cmpq	$0, -80(%rbp)
	cmoveq	%rcx, %rax
	cmpq	$1, %rax
	jne	.LBB64_3
	movq	-96(%rbp), %rax
	movq	-72(%rbp), %rcx
	movq	%rcx, -48(%rbp)
	vmovdqu	-88(%rbp), %xmm0
	vmovdqa	%xmm0, -64(%rbp)
	.cv_loc	67 8 1495 0
	movb	$1, -1(%rbp)
	movq	%rax, -40(%rbp)
.Ltmp371:
	.cv_loc	67 8 1497 0
	movq	-48(%rbp), %rax
	movq	%rax, -16(%rbp)
	vmovdqa	-64(%rbp), %xmm0
	vmovdqa	%xmm0, -32(%rbp)
.Ltmp366:
	leaq	-32(%rbp), %rcx
	callq	_ZN5alloc11collections5btree4node173Handle$LT$alloc..collections..btree..node..NodeRef$LT$alloc..collections..btree..node..marker..Dying$C$K$C$V$C$NodeType$GT$$C$alloc..collections..btree..node..marker..KV$GT$12drop_key_val17h74a1f32e77ddff1aE
.Ltmp367:
	jmp	.LBB64_4
.Ltmp372:
.LBB64_3:
	.cv_loc	67 8 1500 0
	addq	$144, %rsp
	popq	%rbp
	retq
.LBB64_4:
.Ltmp373:
	.cv_loc	67 8 1498 0
	movb	$0, -1(%rbp)
	movq	-40(%rbp), %rcx
.Ltmp368:
	callq	_ZN4core3mem6forget17h11eb87305e564986E
.Ltmp369:
	jmp	.LBB64_6
.Ltmp374:
.LBB64_6:
	.cv_loc	67 8 1499 0
	movb	$0, -1(%rbp)
	.cv_loc	67 8 1494 0
	jmp	.LBB64_1
	.seh_handlerdata
	.long	($cppxdata$_ZN95_$LT$alloc..collections..btree..map..IntoIter$LT$K$C$V$GT$$u20$as$u20$core..ops..drop..Drop$GT$4drop17habd2caebc0e83f58E)@IMGREL
	.section	.text,"xr",one_only,_ZN95_$LT$alloc..collections..btree..map..IntoIter$LT$K$C$V$GT$$u20$as$u20$core..ops..drop..Drop$GT$4drop17habd2caebc0e83f58E
	.seh_endproc
	.def	"?dtor$5@?0?_ZN95_$LT$alloc..collections..btree..map..IntoIter$LT$K$C$V$GT$$u20$as$u20$core..ops..drop..Drop$GT$4drop17habd2caebc0e83f58E@4HA";
	.scl	3;
	.type	32;
	.endef
	.p2align	4, 0x90
"?dtor$5@?0?_ZN95_$LT$alloc..collections..btree..map..IntoIter$LT$K$C$V$GT$$u20$as$u20$core..ops..drop..Drop$GT$4drop17habd2caebc0e83f58E@4HA":
.seh_proc "?dtor$5@?0?_ZN95_$LT$alloc..collections..btree..map..IntoIter$LT$K$C$V$GT$$u20$as$u20$core..ops..drop..Drop$GT$4drop17habd2caebc0e83f58E@4HA"
.LBB64_5:
	movq	%rdx, 16(%rsp)
	pushq	%rbp
	.seh_pushreg %rbp
	subq	$32, %rsp
	.seh_stackalloc 32
	leaq	128(%rdx), %rbp
	.seh_endprologue
	.cv_loc	67 8 1499 0
	testb	$1, -1(%rbp)
	jne	.LBB64_8
	jmp	.LBB64_7
.LBB64_7:
	.cv_loc	67 8 1480 0
	addq	$32, %rsp
	popq	%rbp
	retq
.LBB64_8:
	.cv_loc	67 8 1499 0
	leaq	-40(%rbp), %rcx
	callq	_ZN4core3ptr231drop_in_place$LT$$LT$alloc..collections..btree..map..IntoIter$LT$K$C$V$GT$$u20$as$u20$core..ops..drop..Drop$GT$..drop..DropGuard$LT$std..sys..windows..process..EnvKey$C$core..option..Option$LT$std..ffi..os_str..OsString$GT$$GT$$GT$17h107c8d31da2e38fcE
	jmp	.LBB64_7
.Ltmp375:
.Lfunc_end64:
	.seh_handlerdata
	.section	.text,"xr",one_only,_ZN95_$LT$alloc..collections..btree..map..IntoIter$LT$K$C$V$GT$$u20$as$u20$core..ops..drop..Drop$GT$4drop17habd2caebc0e83f58E
	.seh_endproc
	.section	.xdata,"dr",associative,_ZN95_$LT$alloc..collections..btree..map..IntoIter$LT$K$C$V$GT$$u20$as$u20$core..ops..drop..Drop$GT$4drop17habd2caebc0e83f58E
	.p2align	2
$cppxdata$_ZN95_$LT$alloc..collections..btree..map..IntoIter$LT$K$C$V$GT$$u20$as$u20$core..ops..drop..Drop$GT$4drop17habd2caebc0e83f58E:
	.long	429065506
	.long	1
	.long	($stateUnwindMap$_ZN95_$LT$alloc..collections..btree..map..IntoIter$LT$K$C$V$GT$$u20$as$u20$core..ops..drop..Drop$GT$4drop17habd2caebc0e83f58E)@IMGREL
	.long	0
	.long	0
	.long	3
	.long	($ip2state$_ZN95_$LT$alloc..collections..btree..map..IntoIter$LT$K$C$V$GT$$u20$as$u20$core..ops..drop..Drop$GT$4drop17habd2caebc0e83f58E)@IMGREL
	.long	136
	.long	0
	.long	1
$stateUnwindMap$_ZN95_$LT$alloc..collections..btree..map..IntoIter$LT$K$C$V$GT$$u20$as$u20$core..ops..drop..Drop$GT$4drop17habd2caebc0e83f58E:
	.long	-1
	.long	"?dtor$5@?0?_ZN95_$LT$alloc..collections..btree..map..IntoIter$LT$K$C$V$GT$$u20$as$u20$core..ops..drop..Drop$GT$4drop17habd2caebc0e83f58E@4HA"@IMGREL
$ip2state$_ZN95_$LT$alloc..collections..btree..map..IntoIter$LT$K$C$V$GT$$u20$as$u20$core..ops..drop..Drop$GT$4drop17habd2caebc0e83f58E:
	.long	.Lfunc_begin64@IMGREL
	.long	-1
	.long	.Ltmp366@IMGREL+1
	.long	0
	.long	.Ltmp369@IMGREL+1
	.long	-1
	.section	.text,"xr",one_only,_ZN95_$LT$alloc..collections..btree..map..IntoIter$LT$K$C$V$GT$$u20$as$u20$core..ops..drop..Drop$GT$4drop17habd2caebc0e83f58E

	.def	_ZN166_$LT$$LT$alloc..collections..btree..map..IntoIter$LT$K$C$V$GT$$u20$as$u20$core..ops..drop..Drop$GT$..drop..DropGuard$LT$K$C$V$GT$$u20$as$u20$core..ops..drop..Drop$GT$4drop17hc18b7e1f8239296aE;
	.scl	3;
	.type	32;
	.endef
	.section	.text,"xr",one_only,_ZN166_$LT$$LT$alloc..collections..btree..map..IntoIter$LT$K$C$V$GT$$u20$as$u20$core..ops..drop..Drop$GT$..drop..DropGuard$LT$K$C$V$GT$$u20$as$u20$core..ops..drop..Drop$GT$4drop17hc18b7e1f8239296aE
	.p2align	4, 0x90
_ZN166_$LT$$LT$alloc..collections..btree..map..IntoIter$LT$K$C$V$GT$$u20$as$u20$core..ops..drop..Drop$GT$..drop..DropGuard$LT$K$C$V$GT$$u20$as$u20$core..ops..drop..Drop$GT$4drop17hc18b7e1f8239296aE:
.Lfunc_begin65:
	.cv_func_id 68
	.cv_loc	68 8 1484 0
.seh_proc _ZN166_$LT$$LT$alloc..collections..btree..map..IntoIter$LT$K$C$V$GT$$u20$as$u20$core..ops..drop..Drop$GT$..drop..DropGuard$LT$K$C$V$GT$$u20$as$u20$core..ops..drop..Drop$GT$4drop17hc18b7e1f8239296aE
	subq	$120, %rsp
	.seh_stackalloc 120
	.seh_endprologue
	movq	%rcx, 32(%rsp)
	movq	%rcx, 112(%rsp)
.LBB65_1:
	.cv_loc	68 8 1487 0
	movq	32(%rsp), %rax
.Ltmp376:
	movq	(%rax), %rdx
	leaq	40(%rsp), %rcx
	callq	_ZN5alloc11collections5btree3map21IntoIter$LT$K$C$V$GT$10dying_next17haaa9dea78dd6a2a2E
	movl	$1, %eax
	xorl	%ecx, %ecx
	cmpq	$0, 48(%rsp)
	cmoveq	%rcx, %rax
	cmpq	$1, %rax
	jne	.LBB65_4
	movq	40(%rsp), %rax
	movq	%rax, 64(%rsp)
	movq	48(%rsp), %rax
	movq	%rax, 72(%rsp)
	movq	56(%rsp), %rax
	movq	%rax, 80(%rsp)
	.cv_loc	68 8 1489 0
	movq	64(%rsp), %rax
	movq	%rax, 88(%rsp)
	movq	72(%rsp), %rax
	movq	%rax, 96(%rsp)
	movq	80(%rsp), %rax
	movq	%rax, 104(%rsp)
	leaq	88(%rsp), %rcx
	callq	_ZN5alloc11collections5btree4node173Handle$LT$alloc..collections..btree..node..NodeRef$LT$alloc..collections..btree..node..marker..Dying$C$K$C$V$C$NodeType$GT$$C$alloc..collections..btree..node..marker..KV$GT$12drop_key_val17h74a1f32e77ddff1aE
	jmp	.LBB65_5
.LBB65_4:
	.cv_loc	68 8 1491 0
	addq	$120, %rsp
	retq
.LBB65_5:
	.cv_loc	68 8 1487 0
	jmp	.LBB65_1
.Ltmp377:
.Lfunc_end65:
	.seh_endproc

	.def	_ZN5alloc11collections5btree3map21IntoIter$LT$K$C$V$GT$10dying_next17haaa9dea78dd6a2a2E;
	.scl	3;
	.type	32;
	.endef
	.section	.text,"xr",one_only,_ZN5alloc11collections5btree3map21IntoIter$LT$K$C$V$GT$10dying_next17haaa9dea78dd6a2a2E
	.p2align	4, 0x90
_ZN5alloc11collections5btree3map21IntoIter$LT$K$C$V$GT$10dying_next17haaa9dea78dd6a2a2E:
.Lfunc_begin66:
	.cv_func_id 69
	.cv_loc	69 8 1506 0
.seh_proc _ZN5alloc11collections5btree3map21IntoIter$LT$K$C$V$GT$10dying_next17haaa9dea78dd6a2a2E
	subq	$88, %rsp
	.seh_stackalloc 88
	.seh_endprologue
	movq	%rdx, 32(%rsp)
	movq	%rcx, 40(%rsp)
	movq	%rcx, 48(%rsp)
	movq	%rdx, 80(%rsp)
.Ltmp378:
	.cv_loc	69 8 1509 0
	cmpq	$0, 64(%rdx)
	jne	.LBB66_2
	.cv_loc	69 8 1510 0
	movq	32(%rsp), %rcx
	callq	_ZN5alloc11collections5btree8navigate75LazyLeafRange$LT$alloc..collections..btree..node..marker..Dying$C$K$C$V$GT$16deallocating_end17h915570fe4a0ff5edE
	jmp	.LBB66_5
.LBB66_2:
	.cv_loc	69 8 1513 0
	movq	32(%rsp), %rdx
	movq	64(%rdx), %rax
	subq	$1, %rax
	movq	%rax, 64(%rdx)
	.cv_loc	69 8 1514 0
	leaq	56(%rsp), %rcx
	callq	_ZN5alloc11collections5btree8navigate75LazyLeafRange$LT$alloc..collections..btree..node..marker..Dying$C$K$C$V$GT$27deallocating_next_unchecked17h37d3e8555e2cb5baE
	movq	40(%rsp), %rax
	movq	56(%rsp), %rcx
	movq	%rcx, (%rax)
	movq	64(%rsp), %rcx
	movq	%rcx, 8(%rax)
	movq	72(%rsp), %rcx
	movq	%rcx, 16(%rax)
.LBB66_4:
	.cv_loc	69 8 1516 0
	movq	48(%rsp), %rax
	addq	$88, %rsp
	retq
.LBB66_5:
	.cv_loc	69 8 1511 0
	movq	40(%rsp), %rax
	movq	$0, 8(%rax)
	.cv_loc	69 8 1509 0
	jmp	.LBB66_4
.Ltmp379:
.Lfunc_end66:
	.seh_endproc

	.def	_ZN4core3mem12maybe_uninit20MaybeUninit$LT$T$GT$16assume_init_drop17h7df34f6e9cd99958E;
	.scl	3;
	.type	32;
	.endef
	.section	.text,"xr",one_only,_ZN4core3mem12maybe_uninit20MaybeUninit$LT$T$GT$16assume_init_drop17h7df34f6e9cd99958E
	.p2align	4, 0x90
_ZN4core3mem12maybe_uninit20MaybeUninit$LT$T$GT$16assume_init_drop17h7df34f6e9cd99958E:
.Lfunc_begin67:
	.cv_func_id 70
	.cv_file	11 "/rustc/7737e0b5c4103216d6fd8cf941b7ab9bdbaace7c\\library\\core\\src\\mem\\maybe_uninit.rs" "B3A00C62E54889D645367F420D413AF9579CD3A0" 2
	.cv_loc	70 11 731 0
.seh_proc _ZN4core3mem12maybe_uninit20MaybeUninit$LT$T$GT$16assume_init_drop17h7df34f6e9cd99958E
	subq	$56, %rsp
	.seh_stackalloc 56
	.seh_endprologue
	movq	%rcx, 40(%rsp)
	movq	%rcx, 48(%rsp)
	movq	%rcx, 32(%rsp)
	.cv_loc	70 11 735 0
	movq	32(%rsp), %rcx
.Ltmp380:
	callq	_ZN4core3ptr75drop_in_place$LT$core..option..Option$LT$std..ffi..os_str..OsString$GT$$GT$17h60b07b29e7caa437E
	.cv_loc	70 11 736 0
	nop
	addq	$56, %rsp
	retq
.Ltmp381:
.Lfunc_end67:
	.seh_endproc

	.def	_ZN4core3mem12maybe_uninit20MaybeUninit$LT$T$GT$16assume_init_drop17h8e4a5ef9de0fad27E;
	.scl	3;
	.type	32;
	.endef
	.section	.text,"xr",one_only,_ZN4core3mem12maybe_uninit20MaybeUninit$LT$T$GT$16assume_init_drop17h8e4a5ef9de0fad27E
	.p2align	4, 0x90
_ZN4core3mem12maybe_uninit20MaybeUninit$LT$T$GT$16assume_init_drop17h8e4a5ef9de0fad27E:
.Lfunc_begin68:
	.cv_func_id 71
	.cv_loc	71 11 731 0
.seh_proc _ZN4core3mem12maybe_uninit20MaybeUninit$LT$T$GT$16assume_init_drop17h8e4a5ef9de0fad27E
	subq	$56, %rsp
	.seh_stackalloc 56
	.seh_endprologue
	movq	%rcx, 40(%rsp)
	movq	%rcx, 48(%rsp)
	movq	%rcx, 32(%rsp)
	.cv_loc	71 11 735 0
	movq	32(%rsp), %rcx
.Ltmp382:
	callq	_ZN4core3ptr55drop_in_place$LT$std..sys..windows..process..EnvKey$GT$17hdef210f5225f1dcaE
	.cv_loc	71 11 736 0
	nop
	addq	$56, %rsp
	retq
.Ltmp383:
.Lfunc_end68:
	.seh_endproc

	.def	_ZN5alloc11collections5btree3mem7replace17h9233b6b8d88a5d4aE;
	.scl	3;
	.type	32;
	.endef
	.section	.text,"xr",one_only,_ZN5alloc11collections5btree3mem7replace17h9233b6b8d88a5d4aE
	.p2align	4, 0x90
_ZN5alloc11collections5btree3mem7replace17h9233b6b8d88a5d4aE:
.Lfunc_begin69:
	.cv_func_id 72
	.cv_file	12 "/rustc/7737e0b5c4103216d6fd8cf941b7ab9bdbaace7c\\library\\alloc\\src\\collections\\btree\\mem.rs" "F9529D7EC4981FCA1E044C7DBF152EDD99F4FF3C" 2
	.cv_loc	72 12 20 0
.seh_proc _ZN5alloc11collections5btree3mem7replace17h9233b6b8d88a5d4aE
	.seh_handler __CxxFrameHandler3, @unwind, @except
	pushq	%rbp
	.seh_pushreg %rbp
	subq	$288, %rsp
	.seh_stackalloc 288
	leaq	128(%rsp), %rbp
	.seh_setframe %rbp, 128
	.seh_endprologue
	movq	$-2, 152(%rbp)
	movq	%rdx, -88(%rbp)
	movq	%rcx, -80(%rbp)
	movq	%rcx, -72(%rbp)
	movq	%rdx, 144(%rbp)
.Ltmp392:
	.cv_loc	72 12 27 0
	movb	$0, 143(%rbp)
	movb	$0, 142(%rbp)
	movb	$1, 143(%rbp)
	movb	$1, 142(%rbp)
	.cv_loc	72 12 28 0
.Ltmp384:
	leaq	-56(%rbp), %rcx
.Ltmp393:
	callq	_ZN4core3ptr4read17he4e1b380d8467888E
.Ltmp385:
	jmp	.LBB69_1
.LBB69_1:
.Ltmp394:
	.cv_loc	72 12 29 0
	movb	$0, 143(%rbp)
	movq	-40(%rbp), %rax
	movq	%rax, 96(%rbp)
	vmovdqu	-56(%rbp), %xmm0
	vmovdqa	%xmm0, 80(%rbp)
	movq	96(%rbp), %rax
	movq	%rax, 64(%rbp)
	vmovdqa	80(%rbp), %xmm0
	vmovdqa	%xmm0, 48(%rbp)
.Ltmp386:
	movq	%rbp, %rcx
	leaq	48(%rbp), %rdx
	callq	_ZN5alloc11collections5btree8navigate263_$LT$impl$u20$alloc..collections..btree..node..Handle$LT$alloc..collections..btree..node..NodeRef$LT$alloc..collections..btree..node..marker..Dying$C$K$C$V$C$alloc..collections..btree..node..marker..Leaf$GT$$C$alloc..collections..btree..node..marker..Edge$GT$$GT$27deallocating_next_unchecked28_$u7b$$u7b$closure$u7d$$u7d$17hd5b6519934dcfc01E
.Ltmp387:
	jmp	.LBB69_3
.LBB69_3:
	movq	-88(%rbp), %rcx
	movq	-80(%rbp), %rax
	movq	16(%rbp), %rdx
	movq	%rdx, -16(%rbp)
	vmovdqu	(%rbp), %xmm0
	vmovdqa	%xmm0, -32(%rbp)
	movq	40(%rbp), %rdx
	movq	%rdx, 16(%rax)
	vmovdqu	24(%rbp), %xmm0
	vmovdqu	%xmm0, (%rax)
.Ltmp395:
	.cv_loc	72 12 31 0
	movq	-16(%rbp), %rax
	movq	%rax, 128(%rbp)
	vmovdqa	-32(%rbp), %xmm0
	vmovdqa	%xmm0, 112(%rbp)
.Ltmp388:
	leaq	112(%rbp), %rdx
	callq	_ZN4core3ptr5write17h9f3113e49b384663E
.Ltmp389:
	jmp	.LBB69_4
.LBB69_4:
	.cv_loc	72 12 33 0
	movb	$0, 142(%rbp)
.Ltmp390:
	callq	_ZN4core3mem6forget17h28212571c31b26e9E
.Ltmp391:
	jmp	.LBB69_6
.Ltmp396:
.LBB69_6:
	.cv_loc	72 12 35 0
	movq	-72(%rbp), %rax
	movb	$0, 142(%rbp)
	addq	$288, %rsp
	popq	%rbp
	retq
	.seh_handlerdata
	.long	($cppxdata$_ZN5alloc11collections5btree3mem7replace17h9233b6b8d88a5d4aE)@IMGREL
	.section	.text,"xr",one_only,_ZN5alloc11collections5btree3mem7replace17h9233b6b8d88a5d4aE
	.seh_endproc
	.def	"?dtor$2@?0?_ZN5alloc11collections5btree3mem7replace17h9233b6b8d88a5d4aE@4HA";
	.scl	3;
	.type	32;
	.endef
	.p2align	4, 0x90
"?dtor$2@?0?_ZN5alloc11collections5btree3mem7replace17h9233b6b8d88a5d4aE@4HA":
.seh_proc "?dtor$2@?0?_ZN5alloc11collections5btree3mem7replace17h9233b6b8d88a5d4aE@4HA"
.LBB69_2:
	movq	%rdx, 16(%rsp)
	pushq	%rbp
	.seh_pushreg %rbp
	subq	$32, %rsp
	.seh_stackalloc 32
	leaq	128(%rdx), %rbp
	.seh_endprologue
	testb	$1, 142(%rbp)
	jne	.LBB69_8
	jmp	.LBB69_7
.LBB69_7:
	testb	$1, 143(%rbp)
	jne	.LBB69_10
	jmp	.LBB69_9
.LBB69_8:
	leaq	-64(%rbp), %rcx
	callq	_ZN4core3ptr72drop_in_place$LT$alloc..collections..btree..mem..replace..PanicGuard$GT$17h780a2d0d41d90d8aE
	jmp	.LBB69_7
.LBB69_9:
	.cv_loc	72 12 20 0
	addq	$32, %rsp
	popq	%rbp
	retq
.LBB69_10:
	.cv_loc	72 12 35 0
	jmp	.LBB69_9
	.seh_handlerdata
	.section	.text,"xr",one_only,_ZN5alloc11collections5btree3mem7replace17h9233b6b8d88a5d4aE
	.seh_endproc
	.def	"?dtor$5@?0?_ZN5alloc11collections5btree3mem7replace17h9233b6b8d88a5d4aE@4HA";
	.scl	3;
	.type	32;
	.endef
	.p2align	4, 0x90
"?dtor$5@?0?_ZN5alloc11collections5btree3mem7replace17h9233b6b8d88a5d4aE@4HA":
.seh_proc "?dtor$5@?0?_ZN5alloc11collections5btree3mem7replace17h9233b6b8d88a5d4aE@4HA"
.LBB69_5:
	movq	%rdx, 16(%rsp)
	pushq	%rbp
	.seh_pushreg %rbp
	subq	$32, %rsp
	.seh_stackalloc 32
	leaq	128(%rdx), %rbp
	.seh_endprologue
.Ltmp397:
	.cv_loc	72 12 35 0
	addq	$32, %rsp
	popq	%rbp
	retq
.Ltmp398:
.Lfunc_end69:
	.seh_handlerdata
	.section	.text,"xr",one_only,_ZN5alloc11collections5btree3mem7replace17h9233b6b8d88a5d4aE
	.seh_endproc
	.section	.xdata,"dr",associative,_ZN5alloc11collections5btree3mem7replace17h9233b6b8d88a5d4aE
	.p2align	2
$cppxdata$_ZN5alloc11collections5btree3mem7replace17h9233b6b8d88a5d4aE:
	.long	429065506
	.long	2
	.long	($stateUnwindMap$_ZN5alloc11collections5btree3mem7replace17h9233b6b8d88a5d4aE)@IMGREL
	.long	0
	.long	0
	.long	4
	.long	($ip2state$_ZN5alloc11collections5btree3mem7replace17h9233b6b8d88a5d4aE)@IMGREL
	.long	280
	.long	0
	.long	1
$stateUnwindMap$_ZN5alloc11collections5btree3mem7replace17h9233b6b8d88a5d4aE:
	.long	-1
	.long	"?dtor$2@?0?_ZN5alloc11collections5btree3mem7replace17h9233b6b8d88a5d4aE@4HA"@IMGREL
	.long	0
	.long	"?dtor$5@?0?_ZN5alloc11collections5btree3mem7replace17h9233b6b8d88a5d4aE@4HA"@IMGREL
$ip2state$_ZN5alloc11collections5btree3mem7replace17h9233b6b8d88a5d4aE:
	.long	.Lfunc_begin69@IMGREL
	.long	-1
	.long	.Ltmp384@IMGREL+1
	.long	0
	.long	.Ltmp388@IMGREL+1
	.long	1
	.long	.Ltmp391@IMGREL+1
	.long	-1
	.section	.text,"xr",one_only,_ZN5alloc11collections5btree3mem7replace17h9233b6b8d88a5d4aE

	.def	_ZN4core3mem6forget17h11eb87305e564986E;
	.scl	3;
	.type	32;
	.endef
	.section	.text,"xr",one_only,_ZN4core3mem6forget17h11eb87305e564986E
	.p2align	4, 0x90
_ZN4core3mem6forget17h11eb87305e564986E:
.Lfunc_begin70:
	.cv_func_id 73
	.cv_file	13 "/rustc/7737e0b5c4103216d6fd8cf941b7ab9bdbaace7c\\library\\core\\src\\mem\\mod.rs" "A8F83BEBA34A61EB29D0D98732574C7236384E5C" 2
	.cv_loc	73 13 144 0
.seh_proc _ZN4core3mem6forget17h11eb87305e564986E
	subq	$24, %rsp
	.seh_stackalloc 24
	.seh_endprologue
	movq	%rcx, (%rsp)
	movq	%rcx, 16(%rsp)
.Ltmp399:
	.cv_inline_site_id 74 within 73 inlined_at 13 145 0
	.cv_loc	74 10 70 0
	movq	%rcx, 8(%rsp)
.Ltmp400:
	.cv_loc	73 13 146 0
	addq	$24, %rsp
	retq
.Ltmp401:
.Lfunc_end70:
	.seh_endproc

	.def	_ZN4core3mem6forget17h28212571c31b26e9E;
	.scl	3;
	.type	32;
	.endef
	.section	.text,"xr",one_only,_ZN4core3mem6forget17h28212571c31b26e9E
	.p2align	4, 0x90
_ZN4core3mem6forget17h28212571c31b26e9E:
.Lfunc_begin71:
	.cv_func_id 75
	.cv_loc	75 13 144 0
.seh_proc _ZN4core3mem6forget17h28212571c31b26e9E
	subq	$16, %rsp
	.seh_stackalloc 16
	.seh_endprologue
.Ltmp402:
	.cv_loc	75 13 146 0
	addq	$16, %rsp
	retq
.Ltmp403:
.Lfunc_end71:
	.seh_endproc

	.def	_ZN4core3mem11size_of_val17h3593d3fcfad23237E;
	.scl	3;
	.type	32;
	.endef
	.section	.text,"xr",one_only,_ZN4core3mem11size_of_val17h3593d3fcfad23237E
	.p2align	4, 0x90
_ZN4core3mem11size_of_val17h3593d3fcfad23237E:
.Lfunc_begin72:
	.cv_func_id 76
	.cv_loc	76 13 332 0
.seh_proc _ZN4core3mem11size_of_val17h3593d3fcfad23237E
	subq	$32, %rsp
	.seh_stackalloc 32
	.seh_endprologue
	movq	%rcx, 8(%rsp)
	movq	%rdx, 16(%rsp)
.Ltmp404:
	.cv_loc	76 13 334 0
	shlq	$0, %rdx
	movq	%rdx, 24(%rsp)
	movq	24(%rsp), %rax
	movq	%rax, (%rsp)
	.cv_loc	76 13 335 0
	movq	(%rsp), %rax
	addq	$32, %rsp
	retq
.Ltmp405:
.Lfunc_end72:
	.seh_endproc

	.def	_ZN4core3mem7replace17h48c3a6d93da9e0cbE;
	.scl	3;
	.type	32;
	.endef
	.section	.text,"xr",one_only,_ZN4core3mem7replace17h48c3a6d93da9e0cbE
	.p2align	4, 0x90
_ZN4core3mem7replace17h48c3a6d93da9e0cbE:
.Lfunc_begin73:
	.cv_func_id 77
	.cv_loc	77 13 834 0
.seh_proc _ZN4core3mem7replace17h48c3a6d93da9e0cbE
	.seh_handler __CxxFrameHandler3, @unwind, @except
	pushq	%rbp
	.seh_pushreg %rbp
	subq	$96, %rsp
	.seh_stackalloc 96
	leaq	96(%rsp), %rbp
	.seh_setframe %rbp, 96
	.seh_endprologue
	movq	$-2, -8(%rbp)
	movq	%rdx, -64(%rbp)
	movq	%rcx, -56(%rbp)
	movq	%rcx, -32(%rbp)
	movq	%rdx, -24(%rbp)
.Ltmp410:
	.cv_loc	77 13 839 0
	movb	$0, -33(%rbp)
	movb	$1, -33(%rbp)
.Ltmp406:
	callq	_ZN4core3ptr4read17h2833f02abb5c66b5E
.Ltmp407:
	movq	%rax, -48(%rbp)
	jmp	.LBB73_1
.LBB73_1:
	movq	-64(%rbp), %rdx
	movq	-56(%rbp), %rcx
	movq	-48(%rbp), %rax
	movq	%rax, -16(%rbp)
.Ltmp411:
	.cv_loc	77 13 840 0
	movb	$0, -33(%rbp)
.Ltmp408:
	callq	_ZN4core3ptr5write17h0fc17e33ec86d06dE
.Ltmp409:
	jmp	.LBB73_3
.Ltmp412:
.LBB73_3:
	.cv_loc	77 13 843 0
	movq	-48(%rbp), %rax
	addq	$96, %rsp
	popq	%rbp
	retq
	.seh_handlerdata
	.long	($cppxdata$_ZN4core3mem7replace17h48c3a6d93da9e0cbE)@IMGREL
	.section	.text,"xr",one_only,_ZN4core3mem7replace17h48c3a6d93da9e0cbE
	.seh_endproc
	.def	"?dtor$2@?0?_ZN4core3mem7replace17h48c3a6d93da9e0cbE@4HA";
	.scl	3;
	.type	32;
	.endef
	.p2align	4, 0x90
"?dtor$2@?0?_ZN4core3mem7replace17h48c3a6d93da9e0cbE@4HA":
.seh_proc "?dtor$2@?0?_ZN4core3mem7replace17h48c3a6d93da9e0cbE@4HA"
.LBB73_2:
	movq	%rdx, 16(%rsp)
	pushq	%rbp
	.seh_pushreg %rbp
	subq	$32, %rsp
	.seh_stackalloc 32
	leaq	96(%rdx), %rbp
	.seh_endprologue
	testb	$1, -33(%rbp)
	jne	.LBB73_6
	jmp	.LBB73_5
.LBB73_5:
	.cv_loc	77 13 834 0
	addq	$32, %rsp
	popq	%rbp
	retq
.LBB73_6:
	.cv_loc	77 13 843 0
	jmp	.LBB73_5
	.seh_handlerdata
	.section	.text,"xr",one_only,_ZN4core3mem7replace17h48c3a6d93da9e0cbE
	.seh_endproc
	.def	"?dtor$4@?0?_ZN4core3mem7replace17h48c3a6d93da9e0cbE@4HA";
	.scl	3;
	.type	32;
	.endef
	.p2align	4, 0x90
"?dtor$4@?0?_ZN4core3mem7replace17h48c3a6d93da9e0cbE@4HA":
.seh_proc "?dtor$4@?0?_ZN4core3mem7replace17h48c3a6d93da9e0cbE@4HA"
.LBB73_4:
	movq	%rdx, 16(%rsp)
	pushq	%rbp
	.seh_pushreg %rbp
	subq	$32, %rsp
	.seh_stackalloc 32
	leaq	96(%rdx), %rbp
	.seh_endprologue
	.cv_loc	77 13 842 0
	addq	$32, %rsp
	popq	%rbp
	retq
.Ltmp413:
.Lfunc_end73:
	.seh_handlerdata
	.section	.text,"xr",one_only,_ZN4core3mem7replace17h48c3a6d93da9e0cbE
	.seh_endproc
	.section	.xdata,"dr",associative,_ZN4core3mem7replace17h48c3a6d93da9e0cbE
	.p2align	2
$cppxdata$_ZN4core3mem7replace17h48c3a6d93da9e0cbE:
	.long	429065506
	.long	2
	.long	($stateUnwindMap$_ZN4core3mem7replace17h48c3a6d93da9e0cbE)@IMGREL
	.long	0
	.long	0
	.long	4
	.long	($ip2state$_ZN4core3mem7replace17h48c3a6d93da9e0cbE)@IMGREL
	.long	88
	.long	0
	.long	1
$stateUnwindMap$_ZN4core3mem7replace17h48c3a6d93da9e0cbE:
	.long	-1
	.long	"?dtor$2@?0?_ZN4core3mem7replace17h48c3a6d93da9e0cbE@4HA"@IMGREL
	.long	0
	.long	"?dtor$4@?0?_ZN4core3mem7replace17h48c3a6d93da9e0cbE@4HA"@IMGREL
$ip2state$_ZN4core3mem7replace17h48c3a6d93da9e0cbE:
	.long	.Lfunc_begin73@IMGREL
	.long	-1
	.long	.Ltmp406@IMGREL+1
	.long	0
	.long	.Ltmp408@IMGREL+1
	.long	1
	.long	.Ltmp409@IMGREL+1
	.long	-1
	.section	.text,"xr",one_only,_ZN4core3mem7replace17h48c3a6d93da9e0cbE

	.def	_ZN4core3mem7replace17hf468fa6b5d3a933dE;
	.scl	3;
	.type	32;
	.endef
	.section	.text,"xr",one_only,_ZN4core3mem7replace17hf468fa6b5d3a933dE
	.p2align	4, 0x90
_ZN4core3mem7replace17hf468fa6b5d3a933dE:
.Lfunc_begin74:
	.cv_func_id 78
	.cv_loc	78 13 834 0
.seh_proc _ZN4core3mem7replace17hf468fa6b5d3a933dE
	.seh_handler __CxxFrameHandler3, @unwind, @except
	pushq	%rbp
	.seh_pushreg %rbp
	subq	$128, %rsp
	.seh_stackalloc 128
	leaq	128(%rsp), %rbp
	.seh_setframe %rbp, 128
	.seh_endprologue
	movq	$-2, -8(%rbp)
	movq	%r8, -96(%rbp)
	movq	%rdx, -88(%rbp)
	movq	%rcx, -80(%rbp)
	movq	%rcx, -48(%rbp)
	movq	%rdx, -40(%rbp)
	movq	%r8, -32(%rbp)
.Ltmp418:
	.cv_loc	78 13 839 0
	movb	$0, -49(%rbp)
	movb	$1, -49(%rbp)
.Ltmp414:
	callq	_ZN4core3ptr4read17hdaa760a1a0ae826aE
.Ltmp415:
	movq	%rdx, -72(%rbp)
	movq	%rax, -64(%rbp)
	jmp	.LBB74_1
.LBB74_1:
	movq	-96(%rbp), %r8
	movq	-88(%rbp), %rdx
	movq	-80(%rbp), %rcx
	movq	-72(%rbp), %rax
	movq	-64(%rbp), %r9
	movq	%r9, -24(%rbp)
	movq	%rax, -16(%rbp)
.Ltmp419:
	.cv_loc	78 13 840 0
	movb	$0, -49(%rbp)
.Ltmp416:
	callq	_ZN4core3ptr5write17h0017b942ab4f8d21E
.Ltmp417:
	jmp	.LBB74_3
.Ltmp420:
.LBB74_3:
	.cv_loc	78 13 843 0
	movq	-72(%rbp), %rdx
	movq	-64(%rbp), %rax
	addq	$128, %rsp
	popq	%rbp
	retq
	.seh_handlerdata
	.long	($cppxdata$_ZN4core3mem7replace17hf468fa6b5d3a933dE)@IMGREL
	.section	.text,"xr",one_only,_ZN4core3mem7replace17hf468fa6b5d3a933dE
	.seh_endproc
	.def	"?dtor$2@?0?_ZN4core3mem7replace17hf468fa6b5d3a933dE@4HA";
	.scl	3;
	.type	32;
	.endef
	.p2align	4, 0x90
"?dtor$2@?0?_ZN4core3mem7replace17hf468fa6b5d3a933dE@4HA":
.seh_proc "?dtor$2@?0?_ZN4core3mem7replace17hf468fa6b5d3a933dE@4HA"
.LBB74_2:
	movq	%rdx, 16(%rsp)
	pushq	%rbp
	.seh_pushreg %rbp
	subq	$32, %rsp
	.seh_stackalloc 32
	leaq	128(%rdx), %rbp
	.seh_endprologue
	testb	$1, -49(%rbp)
	jne	.LBB74_6
	jmp	.LBB74_5
.LBB74_5:
	.cv_loc	78 13 834 0
	addq	$32, %rsp
	popq	%rbp
	retq
.LBB74_6:
	.cv_loc	78 13 843 0
	jmp	.LBB74_5
	.seh_handlerdata
	.section	.text,"xr",one_only,_ZN4core3mem7replace17hf468fa6b5d3a933dE
	.seh_endproc
	.def	"?dtor$4@?0?_ZN4core3mem7replace17hf468fa6b5d3a933dE@4HA";
	.scl	3;
	.type	32;
	.endef
	.p2align	4, 0x90
"?dtor$4@?0?_ZN4core3mem7replace17hf468fa6b5d3a933dE@4HA":
.seh_proc "?dtor$4@?0?_ZN4core3mem7replace17hf468fa6b5d3a933dE@4HA"
.LBB74_4:
	movq	%rdx, 16(%rsp)
	pushq	%rbp
	.seh_pushreg %rbp
	subq	$32, %rsp
	.seh_stackalloc 32
	leaq	128(%rdx), %rbp
	.seh_endprologue
	.cv_loc	78 13 842 0
	addq	$32, %rsp
	popq	%rbp
	retq
.Ltmp421:
.Lfunc_end74:
	.seh_handlerdata
	.section	.text,"xr",one_only,_ZN4core3mem7replace17hf468fa6b5d3a933dE
	.seh_endproc
	.section	.xdata,"dr",associative,_ZN4core3mem7replace17hf468fa6b5d3a933dE
	.p2align	2
$cppxdata$_ZN4core3mem7replace17hf468fa6b5d3a933dE:
	.long	429065506
	.long	2
	.long	($stateUnwindMap$_ZN4core3mem7replace17hf468fa6b5d3a933dE)@IMGREL
	.long	0
	.long	0
	.long	4
	.long	($ip2state$_ZN4core3mem7replace17hf468fa6b5d3a933dE)@IMGREL
	.long	120
	.long	0
	.long	1
$stateUnwindMap$_ZN4core3mem7replace17hf468fa6b5d3a933dE:
	.long	-1
	.long	"?dtor$2@?0?_ZN4core3mem7replace17hf468fa6b5d3a933dE@4HA"@IMGREL
	.long	0
	.long	"?dtor$4@?0?_ZN4core3mem7replace17hf468fa6b5d3a933dE@4HA"@IMGREL
$ip2state$_ZN4core3mem7replace17hf468fa6b5d3a933dE:
	.long	.Lfunc_begin74@IMGREL
	.long	-1
	.long	.Ltmp414@IMGREL+1
	.long	0
	.long	.Ltmp416@IMGREL+1
	.long	1
	.long	.Ltmp417@IMGREL+1
	.long	-1
	.section	.text,"xr",one_only,_ZN4core3mem7replace17hf468fa6b5d3a933dE

	.def	_ZN4core3mem7replace17hf83a278d93a75adfE;
	.scl	3;
	.type	32;
	.endef
	.section	.text,"xr",one_only,_ZN4core3mem7replace17hf83a278d93a75adfE
	.p2align	4, 0x90
_ZN4core3mem7replace17hf83a278d93a75adfE:
.Lfunc_begin75:
	.cv_func_id 79
	.cv_loc	79 13 834 0
.seh_proc _ZN4core3mem7replace17hf83a278d93a75adfE
	.seh_handler __CxxFrameHandler3, @unwind, @except
	pushq	%rbp
	.seh_pushreg %rbp
	subq	$128, %rsp
	.seh_stackalloc 128
	leaq	128(%rsp), %rbp
	.seh_setframe %rbp, 128
	.seh_endprologue
	movq	$-2, -8(%rbp)
	movq	%r8, -88(%rbp)
.Ltmp426:
	movq	%rdx, -80(%rbp)
	movq	%rcx, %rax
	movq	%rax, -72(%rbp)
	movq	%rdx, -16(%rbp)
.Ltmp427:
	.cv_loc	79 13 839 0
	movb	$0, -17(%rbp)
	movb	$1, -17(%rbp)
.Ltmp422:
	callq	_ZN4core3ptr4read17h4891c210c510ff84E
.Ltmp428:
.Ltmp423:
	jmp	.LBB75_1
.Ltmp429:
.LBB75_1:
	.cv_loc	79 13 840 0
	movq	-80(%rbp), %rcx
	movq	-88(%rbp), %rax
.Ltmp430:
	movb	$0, -17(%rbp)
	vmovups	(%rax), %ymm0
	vmovups	%ymm0, -64(%rbp)
.Ltmp424:
	leaq	-64(%rbp), %rdx
	vzeroupper
	callq	_ZN4core3ptr5write17hf44240dcf98aaf5dE
.Ltmp425:
	jmp	.LBB75_3
.Ltmp431:
.LBB75_3:
	.cv_loc	79 13 843 0
	movq	-72(%rbp), %rax
	addq	$128, %rsp
	popq	%rbp
	retq
.Ltmp432:
	.seh_handlerdata
	.long	($cppxdata$_ZN4core3mem7replace17hf83a278d93a75adfE)@IMGREL
	.section	.text,"xr",one_only,_ZN4core3mem7replace17hf83a278d93a75adfE
	.seh_endproc
	.def	"?dtor$2@?0?_ZN4core3mem7replace17hf83a278d93a75adfE@4HA";
	.scl	3;
	.type	32;
	.endef
	.p2align	4, 0x90
"?dtor$2@?0?_ZN4core3mem7replace17hf83a278d93a75adfE@4HA":
.seh_proc "?dtor$2@?0?_ZN4core3mem7replace17hf83a278d93a75adfE@4HA"
.LBB75_2:
	movq	%rdx, 16(%rsp)
	pushq	%rbp
	.seh_pushreg %rbp
	subq	$32, %rsp
	.seh_stackalloc 32
	leaq	128(%rdx), %rbp
	.seh_endprologue
	testb	$1, -17(%rbp)
	jne	.LBB75_6
	jmp	.LBB75_5
.LBB75_5:
	.cv_loc	79 13 834 0
	addq	$32, %rsp
	popq	%rbp
	retq
.LBB75_6:
	.cv_loc	79 13 843 0
	jmp	.LBB75_5
	.seh_handlerdata
	.section	.text,"xr",one_only,_ZN4core3mem7replace17hf83a278d93a75adfE
	.seh_endproc
	.def	"?dtor$4@?0?_ZN4core3mem7replace17hf83a278d93a75adfE@4HA";
	.scl	3;
	.type	32;
	.endef
	.p2align	4, 0x90
"?dtor$4@?0?_ZN4core3mem7replace17hf83a278d93a75adfE@4HA":
.seh_proc "?dtor$4@?0?_ZN4core3mem7replace17hf83a278d93a75adfE@4HA"
.LBB75_4:
.Ltmp433:
	movq	%rdx, 16(%rsp)
	pushq	%rbp
	.seh_pushreg %rbp
	subq	$32, %rsp
	.seh_stackalloc 32
	leaq	128(%rdx), %rbp
.Ltmp434:
	.seh_endprologue
	.cv_loc	79 13 842 0
	addq	$32, %rsp
	popq	%rbp
	retq
.Ltmp435:
.Lfunc_end75:
	.seh_handlerdata
	.section	.text,"xr",one_only,_ZN4core3mem7replace17hf83a278d93a75adfE
	.seh_endproc
	.section	.xdata,"dr",associative,_ZN4core3mem7replace17hf83a278d93a75adfE
	.p2align	2
$cppxdata$_ZN4core3mem7replace17hf83a278d93a75adfE:
	.long	429065506
	.long	2
	.long	($stateUnwindMap$_ZN4core3mem7replace17hf83a278d93a75adfE)@IMGREL
	.long	0
	.long	0
	.long	4
	.long	($ip2state$_ZN4core3mem7replace17hf83a278d93a75adfE)@IMGREL
	.long	120
	.long	0
	.long	1
$stateUnwindMap$_ZN4core3mem7replace17hf83a278d93a75adfE:
	.long	-1
	.long	"?dtor$2@?0?_ZN4core3mem7replace17hf83a278d93a75adfE@4HA"@IMGREL
	.long	0
	.long	"?dtor$4@?0?_ZN4core3mem7replace17hf83a278d93a75adfE@4HA"@IMGREL
$ip2state$_ZN4core3mem7replace17hf83a278d93a75adfE:
	.long	.Lfunc_begin75@IMGREL
	.long	-1
	.long	.Ltmp422@IMGREL+1
	.long	0
	.long	.Ltmp424@IMGREL+1
	.long	1
	.long	.Ltmp425@IMGREL+1
	.long	-1
	.section	.text,"xr",one_only,_ZN4core3mem7replace17hf83a278d93a75adfE

	.def	_ZN4core3mem4drop17hb436730c5d172aafE;
	.scl	3;
	.type	32;
	.endef
	.section	.text,"xr",one_only,_ZN4core3mem4drop17hb436730c5d172aafE
	.p2align	4, 0x90
_ZN4core3mem4drop17hb436730c5d172aafE:
.Lfunc_begin76:
	.cv_func_id 80
	.cv_loc	80 13 909 0
.seh_proc _ZN4core3mem4drop17hb436730c5d172aafE
	subq	$40, %rsp
	.seh_stackalloc 40
	.seh_endprologue
.Ltmp436:
	callq	_ZN4core3ptr160drop_in_place$LT$alloc..collections..btree..map..IntoIter$LT$std..sys..windows..process..EnvKey$C$core..option..Option$LT$std..ffi..os_str..OsString$GT$$GT$$GT$17hd1de97f9fd90173cE
.Ltmp437:
	nop
	addq	$40, %rsp
	retq
.Ltmp438:
.Lfunc_end76:
	.seh_endproc

	.def	_ZN4core3ptr8metadata8metadata17h7255cc74f4f666f3E;
	.scl	3;
	.type	32;
	.endef
	.section	.text,"xr",one_only,_ZN4core3ptr8metadata8metadata17h7255cc74f4f666f3E
	.p2align	4, 0x90
_ZN4core3ptr8metadata8metadata17h7255cc74f4f666f3E:
.Lfunc_begin77:
	.cv_func_id 81
	.cv_file	14 "/rustc/7737e0b5c4103216d6fd8cf941b7ab9bdbaace7c\\library\\core\\src\\ptr\\metadata.rs" "A3D5FDE97989D0A4BD69120825B84ABD0D52BA57" 2
	.cv_loc	81 14 93 0
.seh_proc _ZN4core3ptr8metadata8metadata17h7255cc74f4f666f3E
	subq	$32, %rsp
	.seh_stackalloc 32
	.seh_endprologue
	movq	%rcx, 16(%rsp)
	movq	%rdx, 24(%rsp)
.Ltmp439:
	.cv_loc	81 14 97 0
	movq	%rcx, (%rsp)
	movq	%rdx, 8(%rsp)
	movq	8(%rsp), %rax
	.cv_loc	81 14 98 0
	addq	$32, %rsp
	retq
.Ltmp440:
.Lfunc_end77:
	.seh_endproc

	.def	_ZN4core3ptr8metadata14from_raw_parts17h51700f7cae706ba1E;
	.scl	3;
	.type	32;
	.endef
	.section	.text,"xr",one_only,_ZN4core3ptr8metadata14from_raw_parts17h51700f7cae706ba1E
	.p2align	4, 0x90
_ZN4core3ptr8metadata14from_raw_parts17h51700f7cae706ba1E:
.Lfunc_begin78:
	.cv_func_id 82
	.cv_loc	82 14 110 0
.seh_proc _ZN4core3ptr8metadata14from_raw_parts17h51700f7cae706ba1E
	subq	$48, %rsp
	.seh_stackalloc 48
	.seh_endprologue
	movq	%rcx, 32(%rsp)
	movq	%rdx, 40(%rsp)
.Ltmp441:
	.cv_loc	82 14 117 0
	movq	%rcx, 16(%rsp)
	movq	%rdx, 24(%rsp)
	movq	16(%rsp), %rcx
	movq	24(%rsp), %rax
	movq	%rcx, (%rsp)
	movq	%rax, 8(%rsp)
	movq	(%rsp), %rax
	movq	8(%rsp), %rdx
	.cv_loc	82 14 118 0
	addq	$48, %rsp
	retq
.Ltmp442:
.Lfunc_end78:
	.seh_endproc

	.def	_ZN4core3ptr8metadata18from_raw_parts_mut17h0e4d7f1f481b43aeE;
	.scl	3;
	.type	32;
	.endef
	.section	.text,"xr",one_only,_ZN4core3ptr8metadata18from_raw_parts_mut17h0e4d7f1f481b43aeE
	.p2align	4, 0x90
_ZN4core3ptr8metadata18from_raw_parts_mut17h0e4d7f1f481b43aeE:
.Lfunc_begin79:
	.cv_func_id 83
	.cv_loc	83 14 127 0
.seh_proc _ZN4core3ptr8metadata18from_raw_parts_mut17h0e4d7f1f481b43aeE
	subq	$48, %rsp
	.seh_stackalloc 48
	.seh_endprologue
	movq	%rcx, 32(%rsp)
	movq	%rdx, 40(%rsp)
.Ltmp443:
	.cv_loc	83 14 134 0
	movq	%rcx, 16(%rsp)
	movq	%rdx, 24(%rsp)
	movq	16(%rsp), %rcx
	movq	24(%rsp), %rax
	movq	%rcx, (%rsp)
	movq	%rax, 8(%rsp)
	movq	(%rsp), %rax
	movq	8(%rsp), %rdx
	.cv_loc	83 14 135 0
	addq	$48, %rsp
	retq
.Ltmp444:
.Lfunc_end79:
	.seh_endproc

	.def	_ZN4core3ptr8metadata18from_raw_parts_mut17h56175b95420df419E;
	.scl	3;
	.type	32;
	.endef
	.section	.text,"xr",one_only,_ZN4core3ptr8metadata18from_raw_parts_mut17h56175b95420df419E
	.p2align	4, 0x90
_ZN4core3ptr8metadata18from_raw_parts_mut17h56175b95420df419E:
.Lfunc_begin80:
	.cv_func_id 84
	.cv_loc	84 14 127 0
.seh_proc _ZN4core3ptr8metadata18from_raw_parts_mut17h56175b95420df419E
	subq	$48, %rsp
	.seh_stackalloc 48
	.seh_endprologue
	movq	%rcx, 32(%rsp)
	movq	%rdx, 40(%rsp)
.Ltmp445:
	.cv_loc	84 14 134 0
	movq	%rcx, 16(%rsp)
	movq	%rdx, 24(%rsp)
	movq	16(%rsp), %rcx
	movq	24(%rsp), %rax
	movq	%rcx, (%rsp)
	movq	%rax, 8(%rsp)
	movq	(%rsp), %rax
	movq	8(%rsp), %rdx
	.cv_loc	84 14 135 0
	addq	$48, %rsp
	retq
.Ltmp446:
.Lfunc_end80:
	.seh_endproc

	.def	_ZN4core3ptr8metadata18from_raw_parts_mut17hc18ca1085b4da5b8E;
	.scl	3;
	.type	32;
	.endef
	.section	.text,"xr",one_only,_ZN4core3ptr8metadata18from_raw_parts_mut17hc18ca1085b4da5b8E
	.p2align	4, 0x90
_ZN4core3ptr8metadata18from_raw_parts_mut17hc18ca1085b4da5b8E:
.Lfunc_begin81:
	.cv_func_id 85
	.cv_loc	85 14 127 0
.seh_proc _ZN4core3ptr8metadata18from_raw_parts_mut17hc18ca1085b4da5b8E
	subq	$48, %rsp
	.seh_stackalloc 48
	.seh_endprologue
	movq	%rcx, 32(%rsp)
	movq	%rdx, 40(%rsp)
.Ltmp447:
	.cv_loc	85 14 134 0
	movq	%rcx, 16(%rsp)
	movq	%rdx, 24(%rsp)
	movq	16(%rsp), %rcx
	movq	24(%rsp), %rax
	movq	%rcx, (%rsp)
	movq	%rax, 8(%rsp)
	movq	(%rsp), %rax
	movq	8(%rsp), %rdx
	.cv_loc	85 14 135 0
	addq	$48, %rsp
	retq
.Ltmp448:
.Lfunc_end81:
	.seh_endproc

	.def	_ZN5alloc11collections5btree8navigate39LazyLeafRange$LT$BorrowType$C$K$C$V$GT$4none17h9ca90215d4c82cb9E;
	.scl	3;
	.type	32;
	.endef
	.section	.text,"xr",one_only,_ZN5alloc11collections5btree8navigate39LazyLeafRange$LT$BorrowType$C$K$C$V$GT$4none17h9ca90215d4c82cb9E
	.p2align	4, 0x90
_ZN5alloc11collections5btree8navigate39LazyLeafRange$LT$BorrowType$C$K$C$V$GT$4none17h9ca90215d4c82cb9E:
.Lfunc_begin82:
	.cv_func_id 86
	.cv_file	15 "/rustc/7737e0b5c4103216d6fd8cf941b7ab9bdbaace7c\\library\\alloc\\src\\collections\\btree\\navigate.rs" "CC01141C86364B39FAA05A76172D53805A8625EA" 2
	.cv_loc	86 15 132 0
.seh_proc _ZN5alloc11collections5btree8navigate39LazyLeafRange$LT$BorrowType$C$K$C$V$GT$4none17h9ca90215d4c82cb9E
	subq	$64, %rsp
	.seh_stackalloc 64
	.seh_endprologue
	movq	%rcx, %rax
.Ltmp449:
	.cv_loc	86 15 133 0
	movq	$2, (%rsp)
	movq	$2, 32(%rsp)
	movq	(%rsp), %rdx
	movq	%rdx, (%rcx)
	movq	8(%rsp), %rdx
	movq	%rdx, 8(%rcx)
	movq	16(%rsp), %rdx
	movq	%rdx, 16(%rcx)
	movq	24(%rsp), %rdx
	movq	%rdx, 24(%rcx)
	movq	32(%rsp), %rdx
	movq	%rdx, 32(%rcx)
	movq	40(%rsp), %rdx
	movq	%rdx, 40(%rcx)
	movq	48(%rsp), %rdx
	movq	%rdx, 48(%rcx)
	movq	56(%rsp), %rdx
	movq	%rdx, 56(%rcx)
	.cv_loc	86 15 134 0
	addq	$64, %rsp
	retq
.Ltmp450:
.Lfunc_end82:
	.seh_endproc

	.def	_ZN5alloc11collections5btree8navigate75LazyLeafRange$LT$alloc..collections..btree..node..marker..Dying$C$K$C$V$GT$10take_front17h3705ae0968ead2deE;
	.scl	3;
	.type	32;
	.endef
	.section	.text,"xr",one_only,_ZN5alloc11collections5btree8navigate75LazyLeafRange$LT$alloc..collections..btree..node..marker..Dying$C$K$C$V$GT$10take_front17h3705ae0968ead2deE
	.p2align	4, 0x90
_ZN5alloc11collections5btree8navigate75LazyLeafRange$LT$alloc..collections..btree..node..marker..Dying$C$K$C$V$GT$10take_front17h3705ae0968ead2deE:
.Lfunc_begin83:
	.cv_func_id 87
	.cv_loc	87 15 170 0
.seh_proc _ZN5alloc11collections5btree8navigate75LazyLeafRange$LT$alloc..collections..btree..node..marker..Dying$C$K$C$V$GT$10take_front17h3705ae0968ead2deE
	subq	$280, %rsp
	.seh_stackalloc 280
	.seh_endprologue
	movq	%rcx, 32(%rsp)
	movq	%rcx, 40(%rsp)
	movq	%rdx, 248(%rsp)
.Ltmp451:
	.cv_loc	87 15 173 0
	leaq	112(%rsp), %rcx
	callq	_ZN4core6option15Option$LT$T$GT$4take17h939b3572c104cb46E
	leaq	80(%rsp), %rcx
	leaq	112(%rsp), %rdx
	callq	_ZN75_$LT$core..option..Option$LT$T$GT$$u20$as$u20$core..ops..try_trait..Try$GT$6branch17hda43599df57ebecbE
	movq	80(%rsp), %rax
	addq	$-2, %rax
	sete	%al
	movzbl	%al, %eax
	jne	.LBB83_4
	jmp	.LBB83_13
.LBB83_13:
	jmp	.LBB83_5
	ud2
.LBB83_4:
	vmovups	80(%rsp), %ymm0
	vmovups	%ymm0, 144(%rsp)
.Ltmp452:
	.cv_loc	87 15 173 0
	vmovups	144(%rsp), %ymm0
	vmovups	%ymm0, 48(%rsp)
.Ltmp453:
	.cv_loc	87 15 173 0
	movq	48(%rsp), %rax
	testq	%rax, %rax
	je	.LBB83_9
	jmp	.LBB83_14
.LBB83_14:
	jmp	.LBB83_10
.LBB83_5:
	.cv_loc	87 15 173 0
	movq	32(%rsp), %rcx
.Ltmp454:
	callq	_ZN84_$LT$core..option..Option$LT$T$GT$$u20$as$u20$core..ops..try_trait..FromResidual$GT$13from_residual17h9a81b20071887919E
.Ltmp455:
	.cv_loc	87 15 177 0
	jmp	.LBB83_7
.LBB83_7:
	movq	40(%rsp), %rax
	addq	$280, %rsp
	vzeroupper
	retq
	.cv_loc	87 15 173 0
	ud2
.LBB83_9:
	.cv_loc	87 15 174 0
	movq	56(%rsp), %rdx
	movq	64(%rsp), %r8
	movq	%rdx, 264(%rsp)
	movq	%r8, 272(%rsp)
.Ltmp456:
	.cv_loc	87 15 174 0
	leaq	176(%rsp), %rcx
	vzeroupper
	callq	_ZN5alloc11collections5btree8navigate142_$LT$impl$u20$alloc..collections..btree..node..NodeRef$LT$BorrowType$C$K$C$V$C$alloc..collections..btree..node..marker..LeafOrInternal$GT$$GT$15first_leaf_edge17he19addfe497b84b6E
	jmp	.LBB83_12
.Ltmp457:
.LBB83_10:
	.cv_loc	87 15 175 0
	movq	32(%rsp), %rax
	movq	56(%rsp), %rcx
	movq	%rcx, 200(%rsp)
	movq	64(%rsp), %rcx
	movq	%rcx, 208(%rsp)
	movq	72(%rsp), %rcx
	movq	%rcx, 216(%rsp)
.Ltmp458:
	.cv_loc	87 15 175 0
	movq	200(%rsp), %rcx
	movq	%rcx, 224(%rsp)
	movq	208(%rsp), %rcx
	movq	%rcx, 232(%rsp)
	movq	216(%rsp), %rcx
	movq	%rcx, 240(%rsp)
	movq	224(%rsp), %rcx
	movq	%rcx, (%rax)
	movq	232(%rsp), %rcx
	movq	%rcx, 8(%rax)
	movq	240(%rsp), %rcx
	movq	%rcx, 16(%rax)
.Ltmp459:
.LBB83_11:
	.cv_loc	87 15 177 0
	jmp	.LBB83_7
.LBB83_12:
	.cv_loc	87 15 174 0
	movq	32(%rsp), %rax
.Ltmp460:
	movq	176(%rsp), %rcx
	movq	%rcx, (%rax)
	movq	184(%rsp), %rcx
	movq	%rcx, 8(%rax)
	movq	192(%rsp), %rcx
	movq	%rcx, 16(%rax)
.Ltmp461:
	.cv_loc	87 15 174 0
	jmp	.LBB83_11
.Ltmp462:
.Lfunc_end83:
	.seh_endproc

	.def	_ZN5alloc11collections5btree8navigate75LazyLeafRange$LT$alloc..collections..btree..node..marker..Dying$C$K$C$V$GT$27deallocating_next_unchecked17h37d3e8555e2cb5baE;
	.scl	3;
	.type	32;
	.endef
	.section	.text,"xr",one_only,_ZN5alloc11collections5btree8navigate75LazyLeafRange$LT$alloc..collections..btree..node..marker..Dying$C$K$C$V$GT$27deallocating_next_unchecked17h37d3e8555e2cb5baE
	.p2align	4, 0x90
_ZN5alloc11collections5btree8navigate75LazyLeafRange$LT$alloc..collections..btree..node..marker..Dying$C$K$C$V$GT$27deallocating_next_unchecked17h37d3e8555e2cb5baE:
.Lfunc_begin84:
	.cv_func_id 88
	.cv_loc	88 15 180 0
.seh_proc _ZN5alloc11collections5btree8navigate75LazyLeafRange$LT$alloc..collections..btree..node..marker..Dying$C$K$C$V$GT$27deallocating_next_unchecked17h37d3e8555e2cb5baE
	subq	$88, %rsp
	.seh_stackalloc 88
	.seh_endprologue
	movq	%rdx, 40(%rsp)
	movq	%rcx, %rax
	movq	40(%rsp), %rcx
	movq	%rax, 48(%rsp)
	movq	%rax, 56(%rsp)
	movq	%rcx, 72(%rsp)
.Ltmp463:
	.cv_loc	88 15 184 0
	callq	_ZN5alloc11collections5btree8navigate39LazyLeafRange$LT$BorrowType$C$K$C$V$GT$10init_front17hd220b241434c87ccE
	movq	%rax, 64(%rsp)
	movq	64(%rsp), %rcx
	leaq	__unnamed_22(%rip), %rdx
	callq	_ZN4core6option15Option$LT$T$GT$6unwrap17heee967edf1bd9d39E
	movq	%rax, 32(%rsp)
	movq	%rax, 80(%rsp)
	.cv_loc	88 15 185 0
	movq	32(%rsp), %rdx
	movq	48(%rsp), %rcx
.Ltmp464:
	callq	_ZN5alloc11collections5btree8navigate263_$LT$impl$u20$alloc..collections..btree..node..Handle$LT$alloc..collections..btree..node..NodeRef$LT$alloc..collections..btree..node..marker..Dying$C$K$C$V$C$alloc..collections..btree..node..marker..Leaf$GT$$C$alloc..collections..btree..node..marker..Edge$GT$$GT$27deallocating_next_unchecked17hd297993914cef8d0E
.Ltmp465:
	.cv_loc	88 15 186 0
	movq	56(%rsp), %rax
	addq	$88, %rsp
	retq
.Ltmp466:
.Lfunc_end84:
	.seh_endproc

	.def	_ZN5alloc11collections5btree8navigate75LazyLeafRange$LT$alloc..collections..btree..node..marker..Dying$C$K$C$V$GT$16deallocating_end17h915570fe4a0ff5edE;
	.scl	3;
	.type	32;
	.endef
	.section	.text,"xr",one_only,_ZN5alloc11collections5btree8navigate75LazyLeafRange$LT$alloc..collections..btree..node..marker..Dying$C$K$C$V$GT$16deallocating_end17h915570fe4a0ff5edE
	.p2align	4, 0x90
_ZN5alloc11collections5btree8navigate75LazyLeafRange$LT$alloc..collections..btree..node..marker..Dying$C$K$C$V$GT$16deallocating_end17h915570fe4a0ff5edE:
.Lfunc_begin85:
	.cv_func_id 89
	.cv_loc	89 15 198 0
.seh_proc _ZN5alloc11collections5btree8navigate75LazyLeafRange$LT$alloc..collections..btree..node..marker..Dying$C$K$C$V$GT$16deallocating_end17h915570fe4a0ff5edE
	subq	$120, %rsp
	.seh_stackalloc 120
	.seh_endprologue
	movq	%rcx, %rdx
	movq	%rdx, 112(%rsp)
.Ltmp467:
	.cv_loc	89 15 199 0
	leaq	40(%rsp), %rcx
	callq	_ZN5alloc11collections5btree8navigate75LazyLeafRange$LT$alloc..collections..btree..node..marker..Dying$C$K$C$V$GT$10take_front17h3705ae0968ead2deE
	movl	$1, %eax
	xorl	%ecx, %ecx
	cmpq	$0, 48(%rsp)
	cmoveq	%rcx, %rax
	cmpq	$1, %rax
	jne	.LBB85_3
	movq	40(%rsp), %rax
	movq	%rax, 64(%rsp)
	movq	48(%rsp), %rax
	movq	%rax, 72(%rsp)
	movq	56(%rsp), %rax
	movq	%rax, 80(%rsp)
	.cv_loc	89 15 200 0
	movq	64(%rsp), %rax
	movq	%rax, 88(%rsp)
	movq	72(%rsp), %rax
	movq	%rax, 96(%rsp)
	movq	80(%rsp), %rax
	movq	%rax, 104(%rsp)
	leaq	88(%rsp), %rcx
	callq	_ZN5alloc11collections5btree8navigate263_$LT$impl$u20$alloc..collections..btree..node..Handle$LT$alloc..collections..btree..node..NodeRef$LT$alloc..collections..btree..node..marker..Dying$C$K$C$V$C$alloc..collections..btree..node..marker..Leaf$GT$$C$alloc..collections..btree..node..marker..Edge$GT$$GT$16deallocating_end17h102c516141bfbda1E
	jmp	.LBB85_4
.LBB85_3:
	.cv_loc	89 15 202 0
	addq	$120, %rsp
	retq
.LBB85_4:
	.cv_loc	89 15 199 0
	jmp	.LBB85_3
.Ltmp468:
.Lfunc_end85:
	.seh_endproc

	.def	_ZN5alloc11collections5btree8navigate39LazyLeafRange$LT$BorrowType$C$K$C$V$GT$10init_front17hd220b241434c87ccE;
	.scl	3;
	.type	32;
	.endef
	.section	.text,"xr",one_only,_ZN5alloc11collections5btree8navigate39LazyLeafRange$LT$BorrowType$C$K$C$V$GT$10init_front17hd220b241434c87ccE
	.p2align	4, 0x90
_ZN5alloc11collections5btree8navigate39LazyLeafRange$LT$BorrowType$C$K$C$V$GT$10init_front17hd220b241434c87ccE:
.Lfunc_begin86:
	.cv_func_id 90
	.cv_loc	90 15 206 0
.seh_proc _ZN5alloc11collections5btree8navigate39LazyLeafRange$LT$BorrowType$C$K$C$V$GT$10init_front17hd220b241434c87ccE
	subq	$200, %rsp
	.seh_stackalloc 200
	.seh_endprologue
	movq	%rcx, 64(%rsp)
	movq	%rcx, 176(%rsp)
.Ltmp469:
	.cv_loc	90 15 209 0
	movq	%rcx, %rax
	movq	%rax, 72(%rsp)
	movq	(%rcx), %rdx
	subq	$2, %rdx
	movl	$1, %eax
	xorl	%ecx, %ecx
	cmpq	$0, %rdx
	cmoveq	%rcx, %rax
	cmpq	$1, %rax
	jne	.LBB86_2
	movq	72(%rsp), %rax
	cmpq	$0, (%rax)
	je	.LBB86_3
.LBB86_2:
	.cv_loc	90 15 212 0
	movq	64(%rsp), %rax
	movq	%rax, %rcx
	movq	%rcx, 56(%rsp)
	movq	(%rax), %rax
	addq	$-2, %rax
	setne	%al
	movzbl	%al, %eax
	je	.LBB86_7
	jmp	.LBB86_12
.LBB86_12:
	jmp	.LBB86_8
.LBB86_3:
	.cv_loc	90 15 209 0
	movq	72(%rsp), %rcx
	addq	$8, %rcx
	movq	%rcx, 184(%rsp)
	.cv_loc	90 15 210 0
	callq	_ZN4core3ptr4read17h7885507b4057231aE
	movq	%rax, 40(%rsp)
	movq	%rdx, 48(%rsp)
	movq	48(%rsp), %r8
	movq	40(%rsp), %rdx
	leaq	152(%rsp), %rcx
	callq	_ZN5alloc11collections5btree8navigate142_$LT$impl$u20$alloc..collections..btree..node..NodeRef$LT$BorrowType$C$K$C$V$C$alloc..collections..btree..node..marker..LeafOrInternal$GT$$GT$15first_leaf_edge17he19addfe497b84b6E
	movq	64(%rsp), %rax
	movq	152(%rsp), %rcx
	movq	%rcx, 128(%rsp)
	movq	160(%rsp), %rcx
	movq	%rcx, 136(%rsp)
	movq	168(%rsp), %rcx
	movq	%rcx, 144(%rsp)
	movq	$1, 120(%rsp)
	movq	120(%rsp), %rcx
	movq	%rcx, 88(%rsp)
	movq	128(%rsp), %rcx
	movq	%rcx, 96(%rsp)
	movq	136(%rsp), %rcx
	movq	%rcx, 104(%rsp)
	movq	144(%rsp), %rcx
	movq	%rcx, 112(%rsp)
	movq	88(%rsp), %rcx
	movq	%rcx, (%rax)
	movq	96(%rsp), %rcx
	movq	%rcx, 8(%rax)
	movq	104(%rsp), %rcx
	movq	%rcx, 16(%rax)
	movq	112(%rsp), %rcx
	movq	%rcx, 24(%rax)
	.cv_loc	90 15 209 0
	jmp	.LBB86_2
	.cv_loc	90 15 212 0
	ud2
.LBB86_7:
	.cv_loc	90 15 213 0
	movq	$0, 80(%rsp)
	jmp	.LBB86_11
.LBB86_8:
	.cv_loc	90 15 212 0
	movq	56(%rsp), %rax
	movq	(%rax), %rax
	testq	%rax, %rax
	je	.LBB86_9
	jmp	.LBB86_13
.LBB86_13:
	jmp	.LBB86_10
.LBB86_9:
	.cv_loc	90 15 216 0
	callq	_ZN4core4hint21unreachable_unchecked17heb82c6f3ef353400E
	ud2
.LBB86_10:
	.cv_loc	90 15 214 0
	movq	56(%rsp), %rax
	addq	$8, %rax
	movq	%rax, 192(%rsp)
.Ltmp470:
	.cv_loc	90 15 214 0
	movq	%rax, 80(%rsp)
.Ltmp471:
.LBB86_11:
	.cv_loc	90 15 218 0
	movq	80(%rsp), %rax
	addq	$200, %rsp
	retq
.Ltmp472:
.Lfunc_end86:
	.seh_endproc

	.def	_ZN5alloc11collections5btree8navigate10full_range17h637a20407fee9cfbE;
	.scl	3;
	.type	32;
	.endef
	.section	.text,"xr",one_only,_ZN5alloc11collections5btree8navigate10full_range17h637a20407fee9cfbE
	.p2align	4, 0x90
_ZN5alloc11collections5btree8navigate10full_range17h637a20407fee9cfbE:
.Lfunc_begin87:
	.cv_func_id 91
	.cv_loc	91 15 286 0
.seh_proc _ZN5alloc11collections5btree8navigate10full_range17h637a20407fee9cfbE
	subq	$160, %rsp
	.seh_stackalloc 160
	.seh_endprologue
	movq	%rdx, %r10
	movq	%rcx, %rax
	movq	200(%rsp), %rdx
	movq	%r10, 128(%rsp)
	movq	%r8, 136(%rsp)
	movq	%r9, 144(%rsp)
	movq	%rdx, 152(%rsp)
.Ltmp473:
	.cv_loc	91 15 291 0
	movq	%r10, 40(%rsp)
	movq	%r8, 48(%rsp)
	movq	$0, 32(%rsp)
	movq	32(%rsp), %r8
	movq	%r8, (%rsp)
	movq	40(%rsp), %r8
	movq	%r8, 8(%rsp)
	movq	48(%rsp), %r8
	movq	%r8, 16(%rsp)
	movq	56(%rsp), %r8
	movq	%r8, 24(%rsp)
	.cv_loc	91 15 292 0
	movq	%r9, 104(%rsp)
	movq	%rdx, 112(%rsp)
	movq	$0, 96(%rsp)
	movq	96(%rsp), %rdx
	movq	%rdx, 64(%rsp)
	movq	104(%rsp), %rdx
	movq	%rdx, 72(%rsp)
	movq	112(%rsp), %rdx
	movq	%rdx, 80(%rsp)
	movq	120(%rsp), %rdx
	movq	%rdx, 88(%rsp)
	.cv_loc	91 15 290 0
	movq	(%rsp), %rdx
	movq	%rdx, (%rcx)
	movq	8(%rsp), %rdx
	movq	%rdx, 8(%rcx)
	movq	16(%rsp), %rdx
	movq	%rdx, 16(%rcx)
	movq	24(%rsp), %rdx
	movq	%rdx, 24(%rcx)
	movq	64(%rsp), %rdx
	movq	%rdx, 32(%rcx)
	movq	72(%rsp), %rdx
	movq	%rdx, 40(%rcx)
	movq	80(%rsp), %rdx
	movq	%rdx, 48(%rcx)
	movq	88(%rsp), %rdx
	movq	%rdx, 56(%rcx)
	.cv_loc	91 15 294 0
	addq	$160, %rsp
	retq
.Ltmp474:
.Lfunc_end87:
	.seh_endproc

	.def	_ZN5alloc11collections5btree8navigate178_$LT$impl$u20$alloc..collections..btree..node..NodeRef$LT$alloc..collections..btree..node..marker..Dying$C$K$C$V$C$alloc..collections..btree..node..marker..LeafOrInternal$GT$$GT$10full_range17h6353505399abbbacE;
	.scl	3;
	.type	32;
	.endef
	.section	.text,"xr",one_only,_ZN5alloc11collections5btree8navigate178_$LT$impl$u20$alloc..collections..btree..node..NodeRef$LT$alloc..collections..btree..node..marker..Dying$C$K$C$V$C$alloc..collections..btree..node..marker..LeafOrInternal$GT$$GT$10full_range17h6353505399abbbacE
	.p2align	4, 0x90
_ZN5alloc11collections5btree8navigate178_$LT$impl$u20$alloc..collections..btree..node..NodeRef$LT$alloc..collections..btree..node..marker..Dying$C$K$C$V$C$alloc..collections..btree..node..marker..LeafOrInternal$GT$$GT$10full_range17h6353505399abbbacE:
.Lfunc_begin88:
	.cv_func_id 92
	.cv_loc	92 15 351 0
.seh_proc _ZN5alloc11collections5btree8navigate178_$LT$impl$u20$alloc..collections..btree..node..NodeRef$LT$alloc..collections..btree..node..marker..Dying$C$K$C$V$C$alloc..collections..btree..node..marker..LeafOrInternal$GT$$GT$10full_range17h6353505399abbbacE
	subq	$104, %rsp
	.seh_stackalloc 104
	.seh_endprologue
	movq	%rcx, 40(%rsp)
	movq	%rcx, 48(%rsp)
	movq	%rdx, 72(%rsp)
	movq	%r8, 80(%rsp)
.Ltmp475:
	.cv_loc	92 15 354 0
	leaq	72(%rsp), %rcx
	callq	_ZN4core3ptr4read17h7885507b4057231aE
	movq	%rax, 56(%rsp)
	movq	%rdx, 64(%rsp)
	movq	%rax, 88(%rsp)
	movq	%rdx, 96(%rsp)
	.cv_loc	92 15 355 0
	movq	64(%rsp), %rax
	movq	56(%rsp), %r9
	movq	40(%rsp), %rcx
.Ltmp476:
	movq	72(%rsp), %rdx
	movq	80(%rsp), %r8
	movq	%rax, 32(%rsp)
	callq	_ZN5alloc11collections5btree8navigate10full_range17h637a20407fee9cfbE
.Ltmp477:
	.cv_loc	92 15 356 0
	movq	48(%rsp), %rax
	addq	$104, %rsp
	retq
.Ltmp478:
.Lfunc_end88:
	.seh_endproc

	.def	_ZN5alloc11collections5btree8navigate263_$LT$impl$u20$alloc..collections..btree..node..Handle$LT$alloc..collections..btree..node..NodeRef$LT$alloc..collections..btree..node..marker..Dying$C$K$C$V$C$alloc..collections..btree..node..marker..Leaf$GT$$C$alloc..collections..btree..node..marker..Edge$GT$$GT$17deallocating_next17h8b218a22afd4658dE;
	.scl	3;
	.type	32;
	.endef
	.section	.text,"xr",one_only,_ZN5alloc11collections5btree8navigate263_$LT$impl$u20$alloc..collections..btree..node..Handle$LT$alloc..collections..btree..node..NodeRef$LT$alloc..collections..btree..node..marker..Dying$C$K$C$V$C$alloc..collections..btree..node..marker..Leaf$GT$$C$alloc..collections..btree..node..marker..Edge$GT$$GT$17deallocating_next17h8b218a22afd4658dE
	.p2align	4, 0x90
_ZN5alloc11collections5btree8navigate263_$LT$impl$u20$alloc..collections..btree..node..Handle$LT$alloc..collections..btree..node..NodeRef$LT$alloc..collections..btree..node..marker..Dying$C$K$C$V$C$alloc..collections..btree..node..marker..Leaf$GT$$C$alloc..collections..btree..node..marker..Edge$GT$$GT$17deallocating_next17h8b218a22afd4658dE:
.Lfunc_begin89:
	.cv_func_id 93
	.cv_loc	93 15 444 0
.seh_proc _ZN5alloc11collections5btree8navigate263_$LT$impl$u20$alloc..collections..btree..node..Handle$LT$alloc..collections..btree..node..NodeRef$LT$alloc..collections..btree..node..marker..Dying$C$K$C$V$C$alloc..collections..btree..node..marker..Leaf$GT$$C$alloc..collections..btree..node..marker..Edge$GT$$GT$17deallocating_next17h8b218a22afd4658dE
	subq	$456, %rsp
	.seh_stackalloc 456
	.seh_endprologue
	movq	%rcx, 48(%rsp)
	movq	%rcx, 56(%rsp)
.Ltmp479:
	.cv_loc	93 15 448 0
	movq	(%rdx), %rax
	movq	%rax, 88(%rsp)
	movq	8(%rdx), %rax
	movq	%rax, 96(%rsp)
	movq	16(%rdx), %rax
	movq	%rax, 104(%rsp)
	leaq	64(%rsp), %rcx
	leaq	88(%rsp), %rdx
.Ltmp480:
	callq	_ZN5alloc11collections5btree4node176Handle$LT$alloc..collections..btree..node..NodeRef$LT$BorrowType$C$K$C$V$C$alloc..collections..btree..node..marker..Leaf$GT$$C$alloc..collections..btree..node..marker..Edge$GT$16forget_node_type17hc5d07583c7435247E
.Ltmp481:
	.cv_loc	93 15 449 0
	jmp	.LBB89_2
.Ltmp482:
.LBB89_2:
	.cv_loc	93 15 450 0
	movq	64(%rsp), %rax
	movq	%rax, 168(%rsp)
	movq	72(%rsp), %rax
	movq	%rax, 176(%rsp)
	movq	80(%rsp), %rax
	movq	%rax, 184(%rsp)
	leaq	136(%rsp), %rcx
	leaq	168(%rsp), %rdx
	callq	_ZN5alloc11collections5btree4node139Handle$LT$alloc..collections..btree..node..NodeRef$LT$BorrowType$C$K$C$V$C$NodeType$GT$$C$alloc..collections..btree..node..marker..Edge$GT$8right_kv17haf265ff97d2c7941E
.Ltmp483:
	movq	136(%rsp), %rax
	testq	%rax, %rax
	je	.LBB89_5
	jmp	.LBB89_16
.Ltmp484:
.LBB89_16:
	jmp	.LBB89_6
.Ltmp485:
	ud2
.LBB89_5:
.Ltmp486:
	.cv_loc	93 15 451 0
	movq	144(%rsp), %rax
	movq	%rax, 192(%rsp)
	movq	152(%rsp), %rax
	movq	%rax, 200(%rsp)
	movq	160(%rsp), %rax
	movq	%rax, 208(%rsp)
.Ltmp487:
	.cv_loc	93 15 451 0
	leaq	288(%rsp), %rcx
	leaq	192(%rsp), %rdx
	callq	_ZN4core3ptr4read17h20168cf2c6e04b3dE
	jmp	.LBB89_14
.Ltmp488:
.LBB89_6:
	.cv_loc	93 15 452 0
	movq	144(%rsp), %rax
	movq	%rax, 336(%rsp)
	movq	152(%rsp), %rax
	movq	%rax, 344(%rsp)
	movq	160(%rsp), %rax
	movq	%rax, 352(%rsp)
.Ltmp489:
	.cv_loc	93 15 452 0
	movq	336(%rsp), %rax
	movq	%rax, 384(%rsp)
	movq	344(%rsp), %rax
	movq	%rax, 392(%rsp)
	movq	352(%rsp), %rax
	movq	%rax, 400(%rsp)
	leaq	384(%rsp), %rcx
	callq	_ZN5alloc11collections5btree4node25Handle$LT$Node$C$Type$GT$9into_node17h4d1ff0d4e92e7606E
	movq	%rax, 32(%rsp)
	movq	%rdx, 40(%rsp)
.Ltmp490:
	movq	40(%rsp), %r8
	movq	32(%rsp), %rdx
	leaq	360(%rsp), %rcx
	callq	_ZN5alloc11collections5btree4node127NodeRef$LT$alloc..collections..btree..node..marker..Dying$C$K$C$V$C$alloc..collections..btree..node..marker..LeafOrInternal$GT$21deallocate_and_ascend17h388b3ae757eb1ca4E
.Ltmp491:
	movq	368(%rsp), %rax
	testq	%rax, %rax
	setne	%al
	movzbl	%al, %eax
	je	.LBB89_10
	jmp	.LBB89_17
.Ltmp492:
.LBB89_17:
	jmp	.LBB89_11
.Ltmp493:
	ud2
.LBB89_10:
.Ltmp494:
	.cv_loc	93 15 454 0
	movq	48(%rsp), %rax
	movq	$0, 8(%rax)
.Ltmp495:
	.cv_loc	93 3 1 0
	jmp	.LBB89_13
.Ltmp496:
.LBB89_11:
	.cv_loc	93 15 453 0
	movq	360(%rsp), %rax
	movq	%rax, 408(%rsp)
	movq	368(%rsp), %rax
	movq	%rax, 416(%rsp)
	movq	376(%rsp), %rax
	movq	%rax, 424(%rsp)
.Ltmp497:
	.cv_loc	93 15 453 0
	movq	408(%rsp), %rax
	movq	%rax, 432(%rsp)
	movq	416(%rsp), %rax
	movq	%rax, 440(%rsp)
	movq	424(%rsp), %rax
	movq	%rax, 448(%rsp)
	leaq	112(%rsp), %rcx
	leaq	432(%rsp), %rdx
	callq	_ZN5alloc11collections5btree4node180Handle$LT$alloc..collections..btree..node..NodeRef$LT$BorrowType$C$K$C$V$C$alloc..collections..btree..node..marker..Internal$GT$$C$alloc..collections..btree..node..marker..Edge$GT$16forget_node_type17h327e1a94eba593caE
.Ltmp498:
	.cv_loc	93 15 450 0
	movq	112(%rsp), %rax
	movq	%rax, 64(%rsp)
	movq	120(%rsp), %rax
	movq	%rax, 72(%rsp)
	movq	128(%rsp), %rax
	movq	%rax, 80(%rsp)
	.cv_loc	93 15 449 0
	jmp	.LBB89_2
.Ltmp499:
.LBB89_13:
	.cv_loc	93 15 458 0
	movq	56(%rsp), %rax
	addq	$456, %rsp
	retq
.Ltmp500:
.LBB89_14:
	.cv_loc	93 15 451 0
	leaq	264(%rsp), %rcx
	leaq	288(%rsp), %rdx
	callq	_ZN5alloc11collections5btree8navigate235_$LT$impl$u20$alloc..collections..btree..node..Handle$LT$alloc..collections..btree..node..NodeRef$LT$BorrowType$C$K$C$V$C$alloc..collections..btree..node..marker..LeafOrInternal$GT$$C$alloc..collections..btree..node..marker..KV$GT$$GT$14next_leaf_edge17he1b044d9f794f90aE
.Ltmp501:
	movq	48(%rsp), %rcx
	movq	192(%rsp), %rax
	movq	%rax, 312(%rsp)
	movq	200(%rsp), %rax
	movq	%rax, 320(%rsp)
	movq	208(%rsp), %rax
	movq	%rax, 328(%rsp)
	movq	264(%rsp), %rax
	movq	%rax, 216(%rsp)
	movq	272(%rsp), %rax
	movq	%rax, 224(%rsp)
	movq	280(%rsp), %rax
	movq	%rax, 232(%rsp)
	movq	312(%rsp), %rax
	movq	%rax, 240(%rsp)
	movq	320(%rsp), %rax
	movq	%rax, 248(%rsp)
	movq	328(%rsp), %rax
	movq	%rax, 256(%rsp)
	leaq	216(%rsp), %rdx
	movl	$48, %r8d
	callq	memcpy
.Ltmp502:
	.cv_loc	93 3 1 0
	jmp	.LBB89_13
.Ltmp503:
.Lfunc_end89:
	.seh_endproc

	.def	_ZN5alloc11collections5btree8navigate263_$LT$impl$u20$alloc..collections..btree..node..Handle$LT$alloc..collections..btree..node..NodeRef$LT$alloc..collections..btree..node..marker..Dying$C$K$C$V$C$alloc..collections..btree..node..marker..Leaf$GT$$C$alloc..collections..btree..node..marker..Edge$GT$$GT$16deallocating_end17h102c516141bfbda1E;
	.scl	3;
	.type	32;
	.endef
	.section	.text,"xr",one_only,_ZN5alloc11collections5btree8navigate263_$LT$impl$u20$alloc..collections..btree..node..Handle$LT$alloc..collections..btree..node..NodeRef$LT$alloc..collections..btree..node..marker..Dying$C$K$C$V$C$alloc..collections..btree..node..marker..Leaf$GT$$C$alloc..collections..btree..node..marker..Edge$GT$$GT$16deallocating_end17h102c516141bfbda1E
	.p2align	4, 0x90
_ZN5alloc11collections5btree8navigate263_$LT$impl$u20$alloc..collections..btree..node..Handle$LT$alloc..collections..btree..node..NodeRef$LT$alloc..collections..btree..node..marker..Dying$C$K$C$V$C$alloc..collections..btree..node..marker..Leaf$GT$$C$alloc..collections..btree..node..marker..Edge$GT$$GT$16deallocating_end17h102c516141bfbda1E:
.Lfunc_begin90:
	.cv_func_id 94
	.cv_loc	94 15 495 0
.seh_proc _ZN5alloc11collections5btree8navigate263_$LT$impl$u20$alloc..collections..btree..node..Handle$LT$alloc..collections..btree..node..NodeRef$LT$alloc..collections..btree..node..marker..Dying$C$K$C$V$C$alloc..collections..btree..node..marker..Leaf$GT$$C$alloc..collections..btree..node..marker..Edge$GT$$GT$16deallocating_end17h102c516141bfbda1E
	subq	$216, %rsp
	.seh_stackalloc 216
	.seh_endprologue
.Ltmp504:
	.cv_loc	94 15 496 0
	movq	(%rcx), %rax
	movq	%rax, 72(%rsp)
	movq	8(%rcx), %rax
	movq	%rax, 80(%rsp)
	movq	16(%rcx), %rax
	movq	%rax, 88(%rsp)
	leaq	48(%rsp), %rcx
.Ltmp505:
	leaq	72(%rsp), %rdx
	callq	_ZN5alloc11collections5btree4node176Handle$LT$alloc..collections..btree..node..NodeRef$LT$BorrowType$C$K$C$V$C$alloc..collections..btree..node..marker..Leaf$GT$$C$alloc..collections..btree..node..marker..Edge$GT$16forget_node_type17hc5d07583c7435247E
.Ltmp506:
	.cv_loc	94 15 497 0
	jmp	.LBB90_2
.Ltmp507:
.LBB90_2:
	movq	48(%rsp), %rax
	movq	%rax, 120(%rsp)
	movq	56(%rsp), %rax
	movq	%rax, 128(%rsp)
	movq	64(%rsp), %rax
	movq	%rax, 136(%rsp)
	leaq	120(%rsp), %rcx
	callq	_ZN5alloc11collections5btree4node25Handle$LT$Node$C$Type$GT$9into_node17h4d1ff0d4e92e7606E
	movq	%rax, 32(%rsp)
	movq	%rdx, 40(%rsp)
.Ltmp508:
	movq	40(%rsp), %r8
	movq	32(%rsp), %rdx
	leaq	96(%rsp), %rcx
	callq	_ZN5alloc11collections5btree4node127NodeRef$LT$alloc..collections..btree..node..marker..Dying$C$K$C$V$C$alloc..collections..btree..node..marker..LeafOrInternal$GT$21deallocate_and_ascend17h388b3ae757eb1ca4E
.Ltmp509:
	movl	$1, %eax
	xorl	%ecx, %ecx
	cmpq	$0, 104(%rsp)
	cmoveq	%rcx, %rax
	cmpq	$1, %rax
	jne	.LBB90_6
.Ltmp510:
	movq	96(%rsp), %rax
	movq	%rax, 144(%rsp)
	movq	104(%rsp), %rax
	movq	%rax, 152(%rsp)
	movq	112(%rsp), %rax
	movq	%rax, 160(%rsp)
	.cv_loc	94 15 498 0
	movq	144(%rsp), %rax
	movq	%rax, 192(%rsp)
	movq	152(%rsp), %rax
	movq	%rax, 200(%rsp)
	movq	160(%rsp), %rax
	movq	%rax, 208(%rsp)
	leaq	168(%rsp), %rcx
	leaq	192(%rsp), %rdx
	callq	_ZN5alloc11collections5btree4node180Handle$LT$alloc..collections..btree..node..NodeRef$LT$BorrowType$C$K$C$V$C$alloc..collections..btree..node..marker..Internal$GT$$C$alloc..collections..btree..node..marker..Edge$GT$16forget_node_type17h327e1a94eba593caE
	jmp	.LBB90_7
.Ltmp511:
.LBB90_6:
	.cv_loc	94 15 500 0
	addq	$216, %rsp
	retq
.Ltmp512:
.LBB90_7:
	.cv_loc	94 15 498 0
	movq	168(%rsp), %rax
	movq	%rax, 48(%rsp)
	movq	176(%rsp), %rax
	movq	%rax, 56(%rsp)
	movq	184(%rsp), %rax
	movq	%rax, 64(%rsp)
	.cv_loc	94 15 497 0
	jmp	.LBB90_2
.Ltmp513:
.Lfunc_end90:
	.seh_endproc

	.def	_ZN5alloc11collections5btree8navigate263_$LT$impl$u20$alloc..collections..btree..node..Handle$LT$alloc..collections..btree..node..NodeRef$LT$alloc..collections..btree..node..marker..Dying$C$K$C$V$C$alloc..collections..btree..node..marker..Leaf$GT$$C$alloc..collections..btree..node..marker..Edge$GT$$GT$27deallocating_next_unchecked17hd297993914cef8d0E;
	.scl	3;
	.type	32;
	.endef
	.section	.text,"xr",one_only,_ZN5alloc11collections5btree8navigate263_$LT$impl$u20$alloc..collections..btree..node..Handle$LT$alloc..collections..btree..node..NodeRef$LT$alloc..collections..btree..node..marker..Dying$C$K$C$V$C$alloc..collections..btree..node..marker..Leaf$GT$$C$alloc..collections..btree..node..marker..Edge$GT$$GT$27deallocating_next_unchecked17hd297993914cef8d0E
	.p2align	4, 0x90
_ZN5alloc11collections5btree8navigate263_$LT$impl$u20$alloc..collections..btree..node..Handle$LT$alloc..collections..btree..node..NodeRef$LT$alloc..collections..btree..node..marker..Dying$C$K$C$V$C$alloc..collections..btree..node..marker..Leaf$GT$$C$alloc..collections..btree..node..marker..Edge$GT$$GT$27deallocating_next_unchecked17hd297993914cef8d0E:
.Lfunc_begin91:
	.cv_func_id 95
	.cv_loc	95 15 572 0
.seh_proc _ZN5alloc11collections5btree8navigate263_$LT$impl$u20$alloc..collections..btree..node..Handle$LT$alloc..collections..btree..node..NodeRef$LT$alloc..collections..btree..node..marker..Dying$C$K$C$V$C$alloc..collections..btree..node..marker..Leaf$GT$$C$alloc..collections..btree..node..marker..Edge$GT$$GT$27deallocating_next_unchecked17hd297993914cef8d0E
	subq	$56, %rsp
	.seh_stackalloc 56
	.seh_endprologue
	movq	%rcx, %rax
	movq	%rax, 40(%rsp)
	movq	%rdx, 48(%rsp)
.Ltmp514:
	.cv_loc	95 15 575 0
	callq	_ZN5alloc11collections5btree3mem7replace17h9233b6b8d88a5d4aE
	.cv_loc	95 15 576 0
	movq	40(%rsp), %rax
	addq	$56, %rsp
	retq
.Ltmp515:
.Lfunc_end91:
	.seh_endproc

	.def	_ZN5alloc11collections5btree8navigate263_$LT$impl$u20$alloc..collections..btree..node..Handle$LT$alloc..collections..btree..node..NodeRef$LT$alloc..collections..btree..node..marker..Dying$C$K$C$V$C$alloc..collections..btree..node..marker..Leaf$GT$$C$alloc..collections..btree..node..marker..Edge$GT$$GT$27deallocating_next_unchecked28_$u7b$$u7b$closure$u7d$$u7d$17hd5b6519934dcfc01E;
	.scl	3;
	.type	32;
	.endef
	.section	.text,"xr",one_only,_ZN5alloc11collections5btree8navigate263_$LT$impl$u20$alloc..collections..btree..node..Handle$LT$alloc..collections..btree..node..NodeRef$LT$alloc..collections..btree..node..marker..Dying$C$K$C$V$C$alloc..collections..btree..node..marker..Leaf$GT$$C$alloc..collections..btree..node..marker..Edge$GT$$GT$27deallocating_next_unchecked28_$u7b$$u7b$closure$u7d$$u7d$17hd5b6519934dcfc01E
	.p2align	4, 0x90
_ZN5alloc11collections5btree8navigate263_$LT$impl$u20$alloc..collections..btree..node..Handle$LT$alloc..collections..btree..node..NodeRef$LT$alloc..collections..btree..node..marker..Dying$C$K$C$V$C$alloc..collections..btree..node..marker..Leaf$GT$$C$alloc..collections..btree..node..marker..Edge$GT$$GT$27deallocating_next_unchecked28_$u7b$$u7b$closure$u7d$$u7d$17hd5b6519934dcfc01E:
.Lfunc_begin92:
	.cv_func_id 96
	.cv_loc	96 15 575 0
.seh_proc _ZN5alloc11collections5btree8navigate263_$LT$impl$u20$alloc..collections..btree..node..Handle$LT$alloc..collections..btree..node..NodeRef$LT$alloc..collections..btree..node..marker..Dying$C$K$C$V$C$alloc..collections..btree..node..marker..Leaf$GT$$C$alloc..collections..btree..node..marker..Edge$GT$$GT$27deallocating_next_unchecked28_$u7b$$u7b$closure$u7d$$u7d$17hd5b6519934dcfc01E
	subq	$136, %rsp
	.seh_stackalloc 136
	.seh_endprologue
	movq	%rcx, 40(%rsp)
	movq	%rcx, 48(%rsp)
.Ltmp516:
	movq	(%rdx), %rax
	movq	%rax, 104(%rsp)
	movq	8(%rdx), %rax
	movq	%rax, 112(%rsp)
	movq	16(%rdx), %rax
	movq	%rax, 120(%rsp)
	leaq	56(%rsp), %rcx
	leaq	104(%rsp), %rdx
.Ltmp517:
	callq	_ZN5alloc11collections5btree8navigate263_$LT$impl$u20$alloc..collections..btree..node..Handle$LT$alloc..collections..btree..node..NodeRef$LT$alloc..collections..btree..node..marker..Dying$C$K$C$V$C$alloc..collections..btree..node..marker..Leaf$GT$$C$alloc..collections..btree..node..marker..Edge$GT$$GT$17deallocating_next17h8b218a22afd4658dE
.Ltmp518:
	movq	40(%rsp), %rcx
	leaq	56(%rsp), %rdx
	leaq	__unnamed_23(%rip), %r8
	callq	_ZN4core6option15Option$LT$T$GT$6unwrap17h5cedfd5de9db4af7E
.Ltmp519:
	movq	48(%rsp), %rax
	addq	$136, %rsp
	retq
.Ltmp520:
.Lfunc_end92:
	.seh_endproc

	.def	_ZN5alloc11collections5btree8navigate142_$LT$impl$u20$alloc..collections..btree..node..NodeRef$LT$BorrowType$C$K$C$V$C$alloc..collections..btree..node..marker..LeafOrInternal$GT$$GT$15first_leaf_edge17he19addfe497b84b6E;
	.scl	3;
	.type	32;
	.endef
	.section	.text,"xr",one_only,_ZN5alloc11collections5btree8navigate142_$LT$impl$u20$alloc..collections..btree..node..NodeRef$LT$BorrowType$C$K$C$V$C$alloc..collections..btree..node..marker..LeafOrInternal$GT$$GT$15first_leaf_edge17he19addfe497b84b6E
	.p2align	4, 0x90
_ZN5alloc11collections5btree8navigate142_$LT$impl$u20$alloc..collections..btree..node..NodeRef$LT$BorrowType$C$K$C$V$C$alloc..collections..btree..node..marker..LeafOrInternal$GT$$GT$15first_leaf_edge17he19addfe497b84b6E:
.Lfunc_begin93:
	.cv_func_id 97
	.cv_loc	97 15 603 0
.seh_proc _ZN5alloc11collections5btree8navigate142_$LT$impl$u20$alloc..collections..btree..node..NodeRef$LT$BorrowType$C$K$C$V$C$alloc..collections..btree..node..marker..LeafOrInternal$GT$$GT$15first_leaf_edge17he19addfe497b84b6E
	subq	$184, %rsp
	.seh_stackalloc 184
	.seh_endprologue
	movq	%rcx, 56(%rsp)
	movq	%rcx, 64(%rsp)
	movq	%rdx, 136(%rsp)
	movq	%r8, 144(%rsp)
.Ltmp521:
	.cv_loc	97 15 604 0
	movq	%rdx, 72(%rsp)
	movq	%r8, 80(%rsp)
.LBB93_1:
.Ltmp522:
	.cv_loc	97 15 606 0
	movq	72(%rsp), %rdx
	movq	80(%rsp), %r8
	leaq	88(%rsp), %rcx
	callq	_ZN5alloc11collections5btree4node91NodeRef$LT$BorrowType$C$K$C$V$C$alloc..collections..btree..node..marker..LeafOrInternal$GT$5force17h08cad304eac25352E
	movq	88(%rsp), %rax
	testq	%rax, %rax
	je	.LBB93_4
	jmp	.LBB93_9
.LBB93_9:
	jmp	.LBB93_5
	ud2
.LBB93_4:
	.cv_loc	97 15 607 0
	movq	56(%rsp), %rcx
	movq	96(%rsp), %rdx
	movq	104(%rsp), %r8
	movq	%rdx, 168(%rsp)
	movq	%r8, 176(%rsp)
.Ltmp523:
	.cv_loc	97 15 607 0
	callq	_ZN5alloc11collections5btree4node40NodeRef$LT$BorrowType$C$K$C$V$C$Type$GT$10first_edge17h8366a789d1eaf047E
	jmp	.LBB93_8
.Ltmp524:
.LBB93_5:
	.cv_loc	97 15 608 0
	movq	96(%rsp), %rdx
	movq	104(%rsp), %r8
	movq	%rdx, 152(%rsp)
	movq	%r8, 160(%rsp)
.Ltmp525:
	.cv_loc	97 15 608 0
	leaq	112(%rsp), %rcx
	callq	_ZN5alloc11collections5btree4node40NodeRef$LT$BorrowType$C$K$C$V$C$Type$GT$10first_edge17h537d2145b13d0f29E
	leaq	112(%rsp), %rcx
	callq	_ZN5alloc11collections5btree4node180Handle$LT$alloc..collections..btree..node..NodeRef$LT$BorrowType$C$K$C$V$C$alloc..collections..btree..node..marker..Internal$GT$$C$alloc..collections..btree..node..marker..Edge$GT$7descend17h18c3450ed3178194E
	movq	%rax, 40(%rsp)
	movq	%rdx, 48(%rsp)
	movq	48(%rsp), %rax
	movq	40(%rsp), %rcx
	movq	%rcx, 72(%rsp)
	movq	%rax, 80(%rsp)
.Ltmp526:
	.cv_loc	97 15 605 0
	jmp	.LBB93_1
.Ltmp527:
.LBB93_8:
	.cv_loc	97 15 611 0
	movq	64(%rsp), %rax
	addq	$184, %rsp
	retq
.Ltmp528:
.Lfunc_end93:
	.seh_endproc

	.def	_ZN4core3ptr8non_null16NonNull$LT$T$GT$13new_unchecked17h5ba38d8472d368b2E;
	.scl	3;
	.type	32;
	.endef
	.section	.text,"xr",one_only,_ZN4core3ptr8non_null16NonNull$LT$T$GT$13new_unchecked17h5ba38d8472d368b2E
	.p2align	4, 0x90
_ZN4core3ptr8non_null16NonNull$LT$T$GT$13new_unchecked17h5ba38d8472d368b2E:
.Lfunc_begin94:
	.cv_func_id 98
	.cv_file	16 "/rustc/7737e0b5c4103216d6fd8cf941b7ab9bdbaace7c\\library\\core\\src\\ptr\\non_null.rs" "D204EDA44093049012A4C9AAA60D34B15050D4BC" 2
	.cv_loc	98 16 194 0
.seh_proc _ZN4core3ptr8non_null16NonNull$LT$T$GT$13new_unchecked17h5ba38d8472d368b2E
	subq	$16, %rsp
	.seh_stackalloc 16
	.seh_endprologue
	movq	%rcx, 8(%rsp)
.Ltmp529:
	.cv_loc	98 16 196 0
	movq	%rcx, (%rsp)
	.cv_loc	98 16 197 0
	movq	(%rsp), %rax
	addq	$16, %rsp
	retq
.Ltmp530:
.Lfunc_end94:
	.seh_endproc

	.def	_ZN4core3ptr8non_null16NonNull$LT$T$GT$13new_unchecked17h812aa68bf83a50eaE;
	.scl	3;
	.type	32;
	.endef
	.section	.text,"xr",one_only,_ZN4core3ptr8non_null16NonNull$LT$T$GT$13new_unchecked17h812aa68bf83a50eaE
	.p2align	4, 0x90
_ZN4core3ptr8non_null16NonNull$LT$T$GT$13new_unchecked17h812aa68bf83a50eaE:
.Lfunc_begin95:
	.cv_func_id 99
	.cv_loc	99 16 194 0
.seh_proc _ZN4core3ptr8non_null16NonNull$LT$T$GT$13new_unchecked17h812aa68bf83a50eaE
	subq	$16, %rsp
	.seh_stackalloc 16
	.seh_endprologue
	movq	%rcx, 8(%rsp)
.Ltmp531:
	.cv_loc	99 16 196 0
	movq	%rcx, (%rsp)
	.cv_loc	99 16 197 0
	movq	(%rsp), %rax
	addq	$16, %rsp
	retq
.Ltmp532:
.Lfunc_end95:
	.seh_endproc

	.def	_ZN4core3ptr8non_null16NonNull$LT$T$GT$13new_unchecked17hbefdbeae7fffbbd3E;
	.scl	3;
	.type	32;
	.endef
	.section	.text,"xr",one_only,_ZN4core3ptr8non_null16NonNull$LT$T$GT$13new_unchecked17hbefdbeae7fffbbd3E
	.p2align	4, 0x90
_ZN4core3ptr8non_null16NonNull$LT$T$GT$13new_unchecked17hbefdbeae7fffbbd3E:
.Lfunc_begin96:
	.cv_func_id 100
	.cv_loc	100 16 194 0
.seh_proc _ZN4core3ptr8non_null16NonNull$LT$T$GT$13new_unchecked17hbefdbeae7fffbbd3E
	subq	$16, %rsp
	.seh_stackalloc 16
	.seh_endprologue
	movq	%rcx, 8(%rsp)
.Ltmp533:
	.cv_loc	100 16 196 0
	movq	%rcx, (%rsp)
	.cv_loc	100 16 197 0
	movq	(%rsp), %rax
	addq	$16, %rsp
	retq
.Ltmp534:
.Lfunc_end96:
	.seh_endproc

	.def	_ZN4core3ptr8non_null16NonNull$LT$T$GT$6as_ptr17h07a4ee08ce718a4eE;
	.scl	3;
	.type	32;
	.endef
	.section	.text,"xr",one_only,_ZN4core3ptr8non_null16NonNull$LT$T$GT$6as_ptr17h07a4ee08ce718a4eE
	.p2align	4, 0x90
_ZN4core3ptr8non_null16NonNull$LT$T$GT$6as_ptr17h07a4ee08ce718a4eE:
.Lfunc_begin97:
	.cv_func_id 101
	.cv_loc	101 16 277 0
.seh_proc _ZN4core3ptr8non_null16NonNull$LT$T$GT$6as_ptr17h07a4ee08ce718a4eE
	pushq	%rax
	.seh_stackalloc 8
	.seh_endprologue
	movq	%rcx, %rax
	movq	%rax, (%rsp)
.Ltmp535:
	.cv_loc	101 16 279 0
	popq	%rcx
	retq
.Ltmp536:
.Lfunc_end97:
	.seh_endproc

	.def	_ZN4core3ptr8non_null16NonNull$LT$T$GT$6as_ptr17h0cb08b6b4191c4d5E;
	.scl	3;
	.type	32;
	.endef
	.section	.text,"xr",one_only,_ZN4core3ptr8non_null16NonNull$LT$T$GT$6as_ptr17h0cb08b6b4191c4d5E
	.p2align	4, 0x90
_ZN4core3ptr8non_null16NonNull$LT$T$GT$6as_ptr17h0cb08b6b4191c4d5E:
.Lfunc_begin98:
	.cv_func_id 102
	.cv_loc	102 16 277 0
.seh_proc _ZN4core3ptr8non_null16NonNull$LT$T$GT$6as_ptr17h0cb08b6b4191c4d5E
	pushq	%rax
	.seh_stackalloc 8
	.seh_endprologue
	movq	%rcx, %rax
	movq	%rax, (%rsp)
.Ltmp537:
	.cv_loc	102 16 279 0
	popq	%rcx
	retq
.Ltmp538:
.Lfunc_end98:
	.seh_endproc

	.def	_ZN4core3ptr8non_null16NonNull$LT$T$GT$6as_ptr17h387ddf9e771af97dE;
	.scl	3;
	.type	32;
	.endef
	.section	.text,"xr",one_only,_ZN4core3ptr8non_null16NonNull$LT$T$GT$6as_ptr17h387ddf9e771af97dE
	.p2align	4, 0x90
_ZN4core3ptr8non_null16NonNull$LT$T$GT$6as_ptr17h387ddf9e771af97dE:
.Lfunc_begin99:
	.cv_func_id 103
	.cv_loc	103 16 277 0
.seh_proc _ZN4core3ptr8non_null16NonNull$LT$T$GT$6as_ptr17h387ddf9e771af97dE
	pushq	%rax
	.seh_stackalloc 8
	.seh_endprologue
	movq	%rcx, %rax
	movq	%rax, (%rsp)
.Ltmp539:
	.cv_loc	103 16 279 0
	popq	%rcx
	retq
.Ltmp540:
.Lfunc_end99:
	.seh_endproc

	.def	_ZN4core3ptr8non_null16NonNull$LT$T$GT$6as_ptr17h9dfff9e581f15810E;
	.scl	3;
	.type	32;
	.endef
	.section	.text,"xr",one_only,_ZN4core3ptr8non_null16NonNull$LT$T$GT$6as_ptr17h9dfff9e581f15810E
	.p2align	4, 0x90
_ZN4core3ptr8non_null16NonNull$LT$T$GT$6as_ptr17h9dfff9e581f15810E:
.Lfunc_begin100:
	.cv_func_id 104
	.cv_loc	104 16 277 0
.seh_proc _ZN4core3ptr8non_null16NonNull$LT$T$GT$6as_ptr17h9dfff9e581f15810E
	pushq	%rax
	.seh_stackalloc 8
	.seh_endprologue
	movq	%rcx, %rax
	movq	%rax, (%rsp)
.Ltmp541:
	.cv_loc	104 16 279 0
	popq	%rcx
	retq
.Ltmp542:
.Lfunc_end100:
	.seh_endproc

	.def	_ZN4core3ptr8non_null16NonNull$LT$T$GT$6as_ptr17hc1cff4340e0a282bE;
	.scl	3;
	.type	32;
	.endef
	.section	.text,"xr",one_only,_ZN4core3ptr8non_null16NonNull$LT$T$GT$6as_ptr17hc1cff4340e0a282bE
	.p2align	4, 0x90
_ZN4core3ptr8non_null16NonNull$LT$T$GT$6as_ptr17hc1cff4340e0a282bE:
.Lfunc_begin101:
	.cv_func_id 105
	.cv_loc	105 16 277 0
.seh_proc _ZN4core3ptr8non_null16NonNull$LT$T$GT$6as_ptr17hc1cff4340e0a282bE
	pushq	%rax
	.seh_stackalloc 8
	.seh_endprologue
	movq	%rcx, %rax
	movq	%rax, (%rsp)
.Ltmp543:
	.cv_loc	105 16 279 0
	popq	%rcx
	retq
.Ltmp544:
.Lfunc_end101:
	.seh_endproc

	.def	_ZN4core3ptr8non_null16NonNull$LT$T$GT$4cast17h1b50b3cd1d0a3285E;
	.scl	3;
	.type	32;
	.endef
	.section	.text,"xr",one_only,_ZN4core3ptr8non_null16NonNull$LT$T$GT$4cast17h1b50b3cd1d0a3285E
	.p2align	4, 0x90
_ZN4core3ptr8non_null16NonNull$LT$T$GT$4cast17h1b50b3cd1d0a3285E:
.Lfunc_begin102:
	.cv_func_id 106
	.cv_loc	106 16 400 0
.seh_proc _ZN4core3ptr8non_null16NonNull$LT$T$GT$4cast17h1b50b3cd1d0a3285E
	subq	$56, %rsp
	.seh_stackalloc 56
	.seh_endprologue
	movq	%rcx, 48(%rsp)
.Ltmp545:
	.cv_loc	106 16 402 0
	callq	_ZN4core3ptr8non_null16NonNull$LT$T$GT$6as_ptr17h387ddf9e771af97dE
	movq	%rax, 40(%rsp)
	movq	40(%rsp), %rcx
	callq	_ZN4core3ptr8non_null16NonNull$LT$T$GT$13new_unchecked17h5ba38d8472d368b2E
	movq	%rax, 32(%rsp)
	.cv_loc	106 16 403 0
	movq	32(%rsp), %rax
	addq	$56, %rsp
	retq
.Ltmp546:
.Lfunc_end102:
	.seh_endproc

	.def	_ZN4core3ptr8non_null16NonNull$LT$T$GT$4cast17h4c4794e138538991E;
	.scl	3;
	.type	32;
	.endef
	.section	.text,"xr",one_only,_ZN4core3ptr8non_null16NonNull$LT$T$GT$4cast17h4c4794e138538991E
	.p2align	4, 0x90
_ZN4core3ptr8non_null16NonNull$LT$T$GT$4cast17h4c4794e138538991E:
.Lfunc_begin103:
	.cv_func_id 107
	.cv_loc	107 16 400 0
.seh_proc _ZN4core3ptr8non_null16NonNull$LT$T$GT$4cast17h4c4794e138538991E
	subq	$56, %rsp
	.seh_stackalloc 56
	.seh_endprologue
	movq	%rcx, 48(%rsp)
.Ltmp547:
	.cv_loc	107 16 402 0
	callq	_ZN4core3ptr8non_null16NonNull$LT$T$GT$6as_ptr17h0cb08b6b4191c4d5E
	movq	%rax, 40(%rsp)
	movq	40(%rsp), %rcx
	callq	_ZN4core3ptr8non_null16NonNull$LT$T$GT$13new_unchecked17h812aa68bf83a50eaE
	movq	%rax, 32(%rsp)
	.cv_loc	107 16 403 0
	movq	32(%rsp), %rax
	addq	$56, %rsp
	retq
.Ltmp548:
.Lfunc_end103:
	.seh_endproc

	.def	_ZN4core3ptr8non_null16NonNull$LT$T$GT$4cast17hc641acdc54fd0bbdE;
	.scl	3;
	.type	32;
	.endef
	.section	.text,"xr",one_only,_ZN4core3ptr8non_null16NonNull$LT$T$GT$4cast17hc641acdc54fd0bbdE
	.p2align	4, 0x90
_ZN4core3ptr8non_null16NonNull$LT$T$GT$4cast17hc641acdc54fd0bbdE:
.Lfunc_begin104:
	.cv_func_id 108
	.cv_loc	108 16 400 0
.seh_proc _ZN4core3ptr8non_null16NonNull$LT$T$GT$4cast17hc641acdc54fd0bbdE
	subq	$56, %rsp
	.seh_stackalloc 56
	.seh_endprologue
	movq	%rcx, 48(%rsp)
.Ltmp549:
	.cv_loc	108 16 402 0
	callq	_ZN4core3ptr8non_null16NonNull$LT$T$GT$6as_ptr17h07a4ee08ce718a4eE
	movq	%rax, 40(%rsp)
	movq	40(%rsp), %rcx
	callq	_ZN4core3ptr8non_null16NonNull$LT$T$GT$13new_unchecked17hbefdbeae7fffbbd3E
	movq	%rax, 32(%rsp)
	.cv_loc	108 16 403 0
	movq	32(%rsp), %rax
	addq	$56, %rsp
	retq
.Ltmp550:
.Lfunc_end104:
	.seh_endproc

	.def	_ZN5alloc11collections5btree8navigate235_$LT$impl$u20$alloc..collections..btree..node..Handle$LT$alloc..collections..btree..node..NodeRef$LT$BorrowType$C$K$C$V$C$alloc..collections..btree..node..marker..LeafOrInternal$GT$$C$alloc..collections..btree..node..marker..KV$GT$$GT$14next_leaf_edge17he1b044d9f794f90aE;
	.scl	3;
	.type	32;
	.endef
	.section	.text,"xr",one_only,_ZN5alloc11collections5btree8navigate235_$LT$impl$u20$alloc..collections..btree..node..Handle$LT$alloc..collections..btree..node..NodeRef$LT$BorrowType$C$K$C$V$C$alloc..collections..btree..node..marker..LeafOrInternal$GT$$C$alloc..collections..btree..node..marker..KV$GT$$GT$14next_leaf_edge17he1b044d9f794f90aE
	.p2align	4, 0x90
_ZN5alloc11collections5btree8navigate235_$LT$impl$u20$alloc..collections..btree..node..Handle$LT$alloc..collections..btree..node..NodeRef$LT$BorrowType$C$K$C$V$C$alloc..collections..btree..node..marker..LeafOrInternal$GT$$C$alloc..collections..btree..node..marker..KV$GT$$GT$14next_leaf_edge17he1b044d9f794f90aE:
.Lfunc_begin105:
	.cv_func_id 109
	.cv_loc	109 15 684 0
.seh_proc _ZN5alloc11collections5btree8navigate235_$LT$impl$u20$alloc..collections..btree..node..Handle$LT$alloc..collections..btree..node..NodeRef$LT$BorrowType$C$K$C$V$C$alloc..collections..btree..node..marker..LeafOrInternal$GT$$C$alloc..collections..btree..node..marker..KV$GT$$GT$14next_leaf_edge17he1b044d9f794f90aE
	subq	$264, %rsp
	.seh_stackalloc 264
	.seh_endprologue
	movq	%rcx, 48(%rsp)
	movq	%rcx, 56(%rsp)
.Ltmp551:
	.cv_loc	109 15 685 0
	movq	(%rdx), %rax
	movq	%rax, 96(%rsp)
	movq	8(%rdx), %rax
	movq	%rax, 104(%rsp)
	movq	16(%rdx), %rax
	movq	%rax, 112(%rsp)
	leaq	64(%rsp), %rcx
	leaq	96(%rsp), %rdx
.Ltmp552:
	callq	_ZN5alloc11collections5btree4node145Handle$LT$alloc..collections..btree..node..NodeRef$LT$BorrowType$C$K$C$V$C$alloc..collections..btree..node..marker..LeafOrInternal$GT$$C$Type$GT$5force17h845f53450ca2bc63E
.Ltmp553:
	movq	64(%rsp), %rax
	testq	%rax, %rax
	je	.LBB105_3
	jmp	.LBB105_10
.Ltmp554:
.LBB105_10:
	jmp	.LBB105_4
.Ltmp555:
	ud2
.LBB105_3:
.Ltmp556:
	.cv_loc	109 15 686 0
	movq	48(%rsp), %rcx
	movq	72(%rsp), %rax
	movq	%rax, 120(%rsp)
	movq	80(%rsp), %rax
	movq	%rax, 128(%rsp)
	movq	88(%rsp), %rax
	movq	%rax, 136(%rsp)
.Ltmp557:
	.cv_loc	109 15 686 0
	movq	120(%rsp), %rax
	movq	%rax, 144(%rsp)
	movq	128(%rsp), %rax
	movq	%rax, 152(%rsp)
	movq	136(%rsp), %rax
	movq	%rax, 160(%rsp)
	leaq	144(%rsp), %rdx
	callq	_ZN5alloc11collections5btree4node137Handle$LT$alloc..collections..btree..node..NodeRef$LT$BorrowType$C$K$C$V$C$NodeType$GT$$C$alloc..collections..btree..node..marker..KV$GT$10right_edge17hfd269006655973eeE
	jmp	.LBB105_9
.Ltmp558:
.LBB105_4:
	.cv_loc	109 15 687 0
	movq	72(%rsp), %rax
	movq	%rax, 168(%rsp)
	movq	80(%rsp), %rax
	movq	%rax, 176(%rsp)
	movq	88(%rsp), %rax
	movq	%rax, 184(%rsp)
.Ltmp559:
	.cv_loc	109 15 688 0
	movq	168(%rsp), %rax
	movq	%rax, 216(%rsp)
	movq	176(%rsp), %rax
	movq	%rax, 224(%rsp)
	movq	184(%rsp), %rax
	movq	%rax, 232(%rsp)
	leaq	192(%rsp), %rcx
	leaq	216(%rsp), %rdx
	callq	_ZN5alloc11collections5btree4node137Handle$LT$alloc..collections..btree..node..NodeRef$LT$BorrowType$C$K$C$V$C$NodeType$GT$$C$alloc..collections..btree..node..marker..KV$GT$10right_edge17hd5879f2b349bf447E
.Ltmp560:
	.cv_loc	109 15 689 0
	movq	192(%rsp), %rax
	movq	%rax, 240(%rsp)
	movq	200(%rsp), %rax
	movq	%rax, 248(%rsp)
	movq	208(%rsp), %rax
	movq	%rax, 256(%rsp)
	leaq	240(%rsp), %rcx
	callq	_ZN5alloc11collections5btree4node180Handle$LT$alloc..collections..btree..node..NodeRef$LT$BorrowType$C$K$C$V$C$alloc..collections..btree..node..marker..Internal$GT$$C$alloc..collections..btree..node..marker..Edge$GT$7descend17h18c3450ed3178194E
	movq	%rax, 32(%rsp)
	movq	%rdx, 40(%rsp)
.Ltmp561:
	movq	40(%rsp), %r8
	movq	32(%rsp), %rdx
	movq	48(%rsp), %rcx
	callq	_ZN5alloc11collections5btree8navigate142_$LT$impl$u20$alloc..collections..btree..node..NodeRef$LT$BorrowType$C$K$C$V$C$alloc..collections..btree..node..marker..LeafOrInternal$GT$$GT$15first_leaf_edge17he19addfe497b84b6E
.Ltmp562:
	.cv_loc	109 15 690 0
	jmp	.LBB105_8
.Ltmp563:
.LBB105_8:
	.cv_loc	109 15 692 0
	movq	56(%rsp), %rax
	addq	$264, %rsp
	retq
.Ltmp564:
.LBB105_9:
	.cv_loc	109 15 686 0
	jmp	.LBB105_8
.Ltmp565:
.Lfunc_end105:
	.seh_endproc

	.def	_ZN119_$LT$core..ptr..non_null..NonNull$LT$T$GT$$u20$as$u20$core..convert..From$LT$core..ptr..unique..Unique$LT$T$GT$$GT$$GT$4from17hc6114e6e6a470d22E;
	.scl	3;
	.type	32;
	.endef
	.section	.text,"xr",one_only,_ZN119_$LT$core..ptr..non_null..NonNull$LT$T$GT$$u20$as$u20$core..convert..From$LT$core..ptr..unique..Unique$LT$T$GT$$GT$$GT$4from17hc6114e6e6a470d22E
	.p2align	4, 0x90
_ZN119_$LT$core..ptr..non_null..NonNull$LT$T$GT$$u20$as$u20$core..convert..From$LT$core..ptr..unique..Unique$LT$T$GT$$GT$$GT$4from17hc6114e6e6a470d22E:
.Lfunc_begin106:
	.cv_func_id 110
	.cv_loc	110 16 714 0
.seh_proc _ZN119_$LT$core..ptr..non_null..NonNull$LT$T$GT$$u20$as$u20$core..convert..From$LT$core..ptr..unique..Unique$LT$T$GT$$GT$$GT$4from17hc6114e6e6a470d22E
	subq	$56, %rsp
	.seh_stackalloc 56
	.seh_endprologue
	movq	%rcx, 48(%rsp)
.Ltmp566:
	.cv_loc	110 16 717 0
	callq	_ZN4core3ptr6unique15Unique$LT$T$GT$6as_ptr17ha53e5bbd3e9c46f0E
	movq	%rax, 40(%rsp)
	movq	40(%rsp), %rcx
	callq	_ZN4core3ptr8non_null16NonNull$LT$T$GT$13new_unchecked17hbefdbeae7fffbbd3E
	movq	%rax, 32(%rsp)
	.cv_loc	110 16 718 0
	movq	32(%rsp), %rax
	addq	$56, %rsp
	retq
.Ltmp567:
.Lfunc_end106:
	.seh_endproc

	.def	_ZN3std3env6var_os17ha145d4e3e1aa1f1bE;
	.scl	3;
	.type	32;
	.endef
	.section	.text,"xr",one_only,_ZN3std3env6var_os17ha145d4e3e1aa1f1bE
	.p2align	4, 0x90
_ZN3std3env6var_os17ha145d4e3e1aa1f1bE:
.Lfunc_begin107:
	.cv_func_id 111
	.cv_file	17 "/rustc/7737e0b5c4103216d6fd8cf941b7ab9bdbaace7c\\library\\std\\src\\env.rs" "F42BDBF9C05E93FDF96098C81F4E853CA5CC9613" 2
	.cv_loc	111 17 261 0
.seh_proc _ZN3std3env6var_os17ha145d4e3e1aa1f1bE
	.seh_handler __CxxFrameHandler3, @unwind, @except
	pushq	%rbp
	.seh_pushreg %rbp
	subq	$96, %rsp
	.seh_stackalloc 96
	leaq	96(%rsp), %rbp
	.seh_setframe %rbp, 96
	.seh_endprologue
	movq	$-2, -8(%rbp)
	movq	%rcx, -56(%rbp)
	movq	%rcx, -48(%rbp)
	movq	%rdx, -24(%rbp)
	movq	%r8, -16(%rbp)
	.cv_loc	111 17 262 0
.Ltmp568:
	leaq	-24(%rbp), %rcx
.Ltmp572:
	callq	_ZN55_$LT$$RF$T$u20$as$u20$core..convert..AsRef$LT$U$GT$$GT$6as_ref17h86196aac5f46c2f4E
.Ltmp569:
	movq	%rdx, -40(%rbp)
	movq	%rax, -32(%rbp)
	jmp	.LBB107_1
.LBB107_1:
.Ltmp570:
	movq	-40(%rbp), %r8
	movq	-32(%rbp), %rdx
	movq	-56(%rbp), %rcx
	callq	_ZN3std3env7_var_os17he3b81d1e50da9af6E
.Ltmp571:
	jmp	.LBB107_3
.LBB107_3:
	.cv_loc	111 17 263 0
	movq	-48(%rbp), %rax
	addq	$96, %rsp
	popq	%rbp
	retq
	.seh_handlerdata
	.long	($cppxdata$_ZN3std3env6var_os17ha145d4e3e1aa1f1bE)@IMGREL
	.section	.text,"xr",one_only,_ZN3std3env6var_os17ha145d4e3e1aa1f1bE
	.seh_endproc
	.def	"?dtor$2@?0?_ZN3std3env6var_os17ha145d4e3e1aa1f1bE@4HA";
	.scl	3;
	.type	32;
	.endef
	.p2align	4, 0x90
"?dtor$2@?0?_ZN3std3env6var_os17ha145d4e3e1aa1f1bE@4HA":
.seh_proc "?dtor$2@?0?_ZN3std3env6var_os17ha145d4e3e1aa1f1bE@4HA"
.LBB107_2:
	movq	%rdx, 16(%rsp)
	pushq	%rbp
	.seh_pushreg %rbp
	subq	$32, %rsp
	.seh_stackalloc 32
	leaq	96(%rdx), %rbp
	.seh_endprologue
	.cv_loc	111 17 261 0
	addq	$32, %rsp
	popq	%rbp
	retq
.Ltmp573:
.Lfunc_end107:
	.seh_handlerdata
	.section	.text,"xr",one_only,_ZN3std3env6var_os17ha145d4e3e1aa1f1bE
	.seh_endproc
	.section	.xdata,"dr",associative,_ZN3std3env6var_os17ha145d4e3e1aa1f1bE
	.p2align	2
$cppxdata$_ZN3std3env6var_os17ha145d4e3e1aa1f1bE:
	.long	429065506
	.long	1
	.long	($stateUnwindMap$_ZN3std3env6var_os17ha145d4e3e1aa1f1bE)@IMGREL
	.long	0
	.long	0
	.long	3
	.long	($ip2state$_ZN3std3env6var_os17ha145d4e3e1aa1f1bE)@IMGREL
	.long	88
	.long	0
	.long	1
$stateUnwindMap$_ZN3std3env6var_os17ha145d4e3e1aa1f1bE:
	.long	-1
	.long	"?dtor$2@?0?_ZN3std3env6var_os17ha145d4e3e1aa1f1bE@4HA"@IMGREL
$ip2state$_ZN3std3env6var_os17ha145d4e3e1aa1f1bE:
	.long	.Lfunc_begin107@IMGREL
	.long	-1
	.long	.Ltmp568@IMGREL+1
	.long	0
	.long	.Ltmp571@IMGREL+1
	.long	-1
	.section	.text,"xr",one_only,_ZN3std3env6var_os17ha145d4e3e1aa1f1bE

	.def	_ZN4core3ptr6unique15Unique$LT$T$GT$13new_unchecked17h35dc1fbd4702272eE;
	.scl	3;
	.type	32;
	.endef
	.section	.text,"xr",one_only,_ZN4core3ptr6unique15Unique$LT$T$GT$13new_unchecked17h35dc1fbd4702272eE
	.p2align	4, 0x90
_ZN4core3ptr6unique15Unique$LT$T$GT$13new_unchecked17h35dc1fbd4702272eE:
.Lfunc_begin108:
	.cv_func_id 112
	.cv_file	18 "/rustc/7737e0b5c4103216d6fd8cf941b7ab9bdbaace7c\\library\\core\\src\\ptr\\unique.rs" "8774E5F4A2CD195381201942742BFE6E431A4398" 2
	.cv_loc	112 18 88 0
.seh_proc _ZN4core3ptr6unique15Unique$LT$T$GT$13new_unchecked17h35dc1fbd4702272eE
	subq	$16, %rsp
	.seh_stackalloc 16
	.seh_endprologue
	movq	%rcx, 8(%rsp)
.Ltmp574:
	.cv_loc	112 18 90 0
	movq	%rcx, (%rsp)
	.cv_loc	112 18 91 0
	movq	(%rsp), %rax
	addq	$16, %rsp
	retq
.Ltmp575:
.Lfunc_end108:
	.seh_endproc

	.def	_ZN4core3ptr6unique15Unique$LT$T$GT$13new_unchecked17hf1228d7dd02dea75E;
	.scl	3;
	.type	32;
	.endef
	.section	.text,"xr",one_only,_ZN4core3ptr6unique15Unique$LT$T$GT$13new_unchecked17hf1228d7dd02dea75E
	.p2align	4, 0x90
_ZN4core3ptr6unique15Unique$LT$T$GT$13new_unchecked17hf1228d7dd02dea75E:
.Lfunc_begin109:
	.cv_func_id 113
	.cv_loc	113 18 88 0
.seh_proc _ZN4core3ptr6unique15Unique$LT$T$GT$13new_unchecked17hf1228d7dd02dea75E
	subq	$16, %rsp
	.seh_stackalloc 16
	.seh_endprologue
	movq	%rcx, 8(%rsp)
.Ltmp576:
	.cv_loc	113 18 90 0
	movq	%rcx, (%rsp)
	.cv_loc	113 18 91 0
	movq	(%rsp), %rax
	addq	$16, %rsp
	retq
.Ltmp577:
.Lfunc_end109:
	.seh_endproc

	.def	_ZN4core3ptr6unique15Unique$LT$T$GT$6as_ptr17h20abf7de780f51b1E;
	.scl	3;
	.type	32;
	.endef
	.section	.text,"xr",one_only,_ZN4core3ptr6unique15Unique$LT$T$GT$6as_ptr17h20abf7de780f51b1E
	.p2align	4, 0x90
_ZN4core3ptr6unique15Unique$LT$T$GT$6as_ptr17h20abf7de780f51b1E:
.Lfunc_begin110:
	.cv_func_id 114
	.cv_loc	114 18 107 0
.seh_proc _ZN4core3ptr6unique15Unique$LT$T$GT$6as_ptr17h20abf7de780f51b1E
	pushq	%rax
	.seh_stackalloc 8
	.seh_endprologue
	movq	%rcx, %rax
	movq	%rax, (%rsp)
.Ltmp578:
	.cv_loc	114 18 109 0
	popq	%rcx
	retq
.Ltmp579:
.Lfunc_end110:
	.seh_endproc

	.def	_ZN4core3ptr6unique15Unique$LT$T$GT$6as_ptr17h9bb781a88c3db96bE;
	.scl	3;
	.type	32;
	.endef
	.section	.text,"xr",one_only,_ZN4core3ptr6unique15Unique$LT$T$GT$6as_ptr17h9bb781a88c3db96bE
	.p2align	4, 0x90
_ZN4core3ptr6unique15Unique$LT$T$GT$6as_ptr17h9bb781a88c3db96bE:
.Lfunc_begin111:
	.cv_func_id 115
	.cv_loc	115 18 107 0
.seh_proc _ZN4core3ptr6unique15Unique$LT$T$GT$6as_ptr17h9bb781a88c3db96bE
	pushq	%rax
	.seh_stackalloc 8
	.seh_endprologue
	movq	%rcx, %rax
	movq	%rax, (%rsp)
.Ltmp580:
	.cv_loc	115 18 109 0
	popq	%rcx
	retq
.Ltmp581:
.Lfunc_end111:
	.seh_endproc

	.def	_ZN4core3ptr6unique15Unique$LT$T$GT$6as_ptr17ha53e5bbd3e9c46f0E;
	.scl	3;
	.type	32;
	.endef
	.section	.text,"xr",one_only,_ZN4core3ptr6unique15Unique$LT$T$GT$6as_ptr17ha53e5bbd3e9c46f0E
	.p2align	4, 0x90
_ZN4core3ptr6unique15Unique$LT$T$GT$6as_ptr17ha53e5bbd3e9c46f0E:
.Lfunc_begin112:
	.cv_func_id 116
	.cv_loc	116 18 107 0
.seh_proc _ZN4core3ptr6unique15Unique$LT$T$GT$6as_ptr17ha53e5bbd3e9c46f0E
	pushq	%rax
	.seh_stackalloc 8
	.seh_endprologue
	movq	%rcx, %rax
	movq	%rax, (%rsp)
.Ltmp582:
	.cv_loc	116 18 109 0
	popq	%rcx
	retq
.Ltmp583:
.Lfunc_end112:
	.seh_endproc

	.def	_ZN4core3ptr6unique15Unique$LT$T$GT$6as_ptr17hcfa842973b0ba309E;
	.scl	3;
	.type	32;
	.endef
	.section	.text,"xr",one_only,_ZN4core3ptr6unique15Unique$LT$T$GT$6as_ptr17hcfa842973b0ba309E
	.p2align	4, 0x90
_ZN4core3ptr6unique15Unique$LT$T$GT$6as_ptr17hcfa842973b0ba309E:
.Lfunc_begin113:
	.cv_func_id 117
	.cv_loc	117 18 107 0
.seh_proc _ZN4core3ptr6unique15Unique$LT$T$GT$6as_ptr17hcfa842973b0ba309E
	pushq	%rax
	.seh_stackalloc 8
	.seh_endprologue
	movq	%rcx, %rax
	movq	%rax, (%rsp)
.Ltmp584:
	.cv_loc	117 18 109 0
	popq	%rcx
	retq
.Ltmp585:
.Lfunc_end113:
	.seh_endproc

	.def	_ZN4core3ptr6unique15Unique$LT$T$GT$6as_ptr17hdc59818a357e880dE;
	.scl	3;
	.type	32;
	.endef
	.section	.text,"xr",one_only,_ZN4core3ptr6unique15Unique$LT$T$GT$6as_ptr17hdc59818a357e880dE
	.p2align	4, 0x90
_ZN4core3ptr6unique15Unique$LT$T$GT$6as_ptr17hdc59818a357e880dE:
.Lfunc_begin114:
	.cv_func_id 118
	.cv_loc	118 18 107 0
.seh_proc _ZN4core3ptr6unique15Unique$LT$T$GT$6as_ptr17hdc59818a357e880dE
	subq	$16, %rsp
	.seh_stackalloc 16
	.seh_endprologue
	movq	%rcx, %rax
	movq	%rax, (%rsp)
	movq	%rdx, 8(%rsp)
.Ltmp586:
	.cv_loc	118 18 109 0
	addq	$16, %rsp
	retq
.Ltmp587:
.Lfunc_end114:
	.seh_endproc

	.def	_ZN4core3ptr6unique15Unique$LT$T$GT$6as_ref17h3f68d331c125a159E;
	.scl	3;
	.type	32;
	.endef
	.section	.text,"xr",one_only,_ZN4core3ptr6unique15Unique$LT$T$GT$6as_ref17h3f68d331c125a159E
	.p2align	4, 0x90
_ZN4core3ptr6unique15Unique$LT$T$GT$6as_ref17h3f68d331c125a159E:
.Lfunc_begin115:
	.cv_func_id 119
	.cv_loc	119 18 118 0
.seh_proc _ZN4core3ptr6unique15Unique$LT$T$GT$6as_ref17h3f68d331c125a159E
	subq	$56, %rsp
	.seh_stackalloc 56
	.seh_endprologue
	movq	%rcx, 48(%rsp)
.Ltmp588:
	.cv_loc	119 18 121 0
	movq	(%rcx), %rcx
	callq	_ZN4core3ptr6unique15Unique$LT$T$GT$6as_ptr17h20abf7de780f51b1E
	movq	%rax, 40(%rsp)
	.cv_loc	119 18 122 0
	movq	40(%rsp), %rax
	addq	$56, %rsp
	retq
.Ltmp589:
.Lfunc_end115:
	.seh_endproc

	.def	_ZN4core3ptr6unique15Unique$LT$T$GT$6as_ref17hfde3d7e1ff5508ffE;
	.scl	3;
	.type	32;
	.endef
	.section	.text,"xr",one_only,_ZN4core3ptr6unique15Unique$LT$T$GT$6as_ref17hfde3d7e1ff5508ffE
	.p2align	4, 0x90
_ZN4core3ptr6unique15Unique$LT$T$GT$6as_ref17hfde3d7e1ff5508ffE:
.Lfunc_begin116:
	.cv_func_id 120
	.cv_loc	120 18 118 0
.seh_proc _ZN4core3ptr6unique15Unique$LT$T$GT$6as_ref17hfde3d7e1ff5508ffE
	subq	$56, %rsp
	.seh_stackalloc 56
	.seh_endprologue
	movq	%rcx, %rax
	movq	%rax, 48(%rsp)
.Ltmp590:
	.cv_loc	120 18 121 0
	movq	(%rax), %rcx
	movq	8(%rax), %rdx
	callq	_ZN4core3ptr6unique15Unique$LT$T$GT$6as_ptr17hdc59818a357e880dE
	movq	%rax, 32(%rsp)
	movq	%rdx, 40(%rsp)
	.cv_loc	120 18 122 0
	movq	40(%rsp), %rdx
	movq	32(%rsp), %rax
	addq	$56, %rsp
	retq
.Ltmp591:
.Lfunc_end116:
	.seh_endproc

	.def	_ZN4core3ptr6unique15Unique$LT$T$GT$4cast17h0e32cbedd39871cdE;
	.scl	3;
	.type	32;
	.endef
	.section	.text,"xr",one_only,_ZN4core3ptr6unique15Unique$LT$T$GT$4cast17h0e32cbedd39871cdE
	.p2align	4, 0x90
_ZN4core3ptr6unique15Unique$LT$T$GT$4cast17h0e32cbedd39871cdE:
.Lfunc_begin117:
	.cv_func_id 121
	.cv_loc	121 18 140 0
.seh_proc _ZN4core3ptr6unique15Unique$LT$T$GT$4cast17h0e32cbedd39871cdE
	subq	$56, %rsp
	.seh_stackalloc 56
	.seh_endprologue
	movq	%rcx, 48(%rsp)
.Ltmp592:
	.cv_loc	121 18 144 0
	callq	_ZN4core3ptr6unique15Unique$LT$T$GT$6as_ptr17ha53e5bbd3e9c46f0E
	movq	%rax, 40(%rsp)
	movq	40(%rsp), %rcx
	callq	_ZN4core3ptr6unique15Unique$LT$T$GT$13new_unchecked17hf1228d7dd02dea75E
	movq	%rax, 32(%rsp)
	.cv_loc	121 18 145 0
	movq	32(%rsp), %rax
	addq	$56, %rsp
	retq
.Ltmp593:
.Lfunc_end117:
	.seh_endproc

	.def	_ZN4core3ptr6unique15Unique$LT$T$GT$4cast17h136ab7a99aa3c6b6E;
	.scl	3;
	.type	32;
	.endef
	.section	.text,"xr",one_only,_ZN4core3ptr6unique15Unique$LT$T$GT$4cast17h136ab7a99aa3c6b6E
	.p2align	4, 0x90
_ZN4core3ptr6unique15Unique$LT$T$GT$4cast17h136ab7a99aa3c6b6E:
.Lfunc_begin118:
	.cv_func_id 122
	.cv_loc	122 18 140 0
.seh_proc _ZN4core3ptr6unique15Unique$LT$T$GT$4cast17h136ab7a99aa3c6b6E
	subq	$56, %rsp
	.seh_stackalloc 56
	.seh_endprologue
	movq	%rcx, 48(%rsp)
.Ltmp594:
	.cv_loc	122 18 144 0
	callq	_ZN4core3ptr6unique15Unique$LT$T$GT$6as_ptr17h20abf7de780f51b1E
	movq	%rax, 40(%rsp)
	movq	40(%rsp), %rcx
	callq	_ZN4core3ptr6unique15Unique$LT$T$GT$13new_unchecked17hf1228d7dd02dea75E
	movq	%rax, 32(%rsp)
	.cv_loc	122 18 145 0
	movq	32(%rsp), %rax
	addq	$56, %rsp
	retq
.Ltmp595:
.Lfunc_end118:
	.seh_endproc

	.def	_ZN4core3ptr6unique15Unique$LT$T$GT$4cast17h22a06e7f153b96c0E;
	.scl	3;
	.type	32;
	.endef
	.section	.text,"xr",one_only,_ZN4core3ptr6unique15Unique$LT$T$GT$4cast17h22a06e7f153b96c0E
	.p2align	4, 0x90
_ZN4core3ptr6unique15Unique$LT$T$GT$4cast17h22a06e7f153b96c0E:
.Lfunc_begin119:
	.cv_func_id 123
	.cv_loc	123 18 140 0
.seh_proc _ZN4core3ptr6unique15Unique$LT$T$GT$4cast17h22a06e7f153b96c0E
	subq	$56, %rsp
	.seh_stackalloc 56
	.seh_endprologue
	movq	%rcx, 48(%rsp)
.Ltmp596:
	.cv_loc	123 18 144 0
	callq	_ZN4core3ptr6unique15Unique$LT$T$GT$6as_ptr17hcfa842973b0ba309E
	movq	%rax, 40(%rsp)
	movq	40(%rsp), %rcx
	callq	_ZN4core3ptr6unique15Unique$LT$T$GT$13new_unchecked17hf1228d7dd02dea75E
	movq	%rax, 32(%rsp)
	.cv_loc	123 18 145 0
	movq	32(%rsp), %rax
	addq	$56, %rsp
	retq
.Ltmp597:
.Lfunc_end119:
	.seh_endproc

	.def	_ZN4core3ptr6unique15Unique$LT$T$GT$4cast17h2fb2ff0b9d4af799E;
	.scl	3;
	.type	32;
	.endef
	.section	.text,"xr",one_only,_ZN4core3ptr6unique15Unique$LT$T$GT$4cast17h2fb2ff0b9d4af799E
	.p2align	4, 0x90
_ZN4core3ptr6unique15Unique$LT$T$GT$4cast17h2fb2ff0b9d4af799E:
.Lfunc_begin120:
	.cv_func_id 124
	.cv_loc	124 18 140 0
.seh_proc _ZN4core3ptr6unique15Unique$LT$T$GT$4cast17h2fb2ff0b9d4af799E
	subq	$72, %rsp
	.seh_stackalloc 72
	.seh_endprologue
	movq	%rcx, 56(%rsp)
	movq	%rdx, 64(%rsp)
.Ltmp598:
	.cv_loc	124 18 144 0
	callq	_ZN4core3ptr6unique15Unique$LT$T$GT$6as_ptr17hdc59818a357e880dE
	movq	%rax, 48(%rsp)
	movq	48(%rsp), %rcx
	callq	_ZN4core3ptr6unique15Unique$LT$T$GT$13new_unchecked17hf1228d7dd02dea75E
	movq	%rax, 40(%rsp)
	.cv_loc	124 18 145 0
	movq	40(%rsp), %rax
	addq	$72, %rsp
	retq
.Ltmp599:
.Lfunc_end120:
	.seh_endproc

	.def	_ZN4core3ptr6unique15Unique$LT$T$GT$4cast17hdd980104abee60ddE;
	.scl	3;
	.type	32;
	.endef
	.section	.text,"xr",one_only,_ZN4core3ptr6unique15Unique$LT$T$GT$4cast17hdd980104abee60ddE
	.p2align	4, 0x90
_ZN4core3ptr6unique15Unique$LT$T$GT$4cast17hdd980104abee60ddE:
.Lfunc_begin121:
	.cv_func_id 125
	.cv_loc	125 18 140 0
.seh_proc _ZN4core3ptr6unique15Unique$LT$T$GT$4cast17hdd980104abee60ddE
	subq	$56, %rsp
	.seh_stackalloc 56
	.seh_endprologue
	movq	%rcx, 48(%rsp)
.Ltmp600:
	.cv_loc	125 18 144 0
	callq	_ZN4core3ptr6unique15Unique$LT$T$GT$6as_ptr17h9bb781a88c3db96bE
	movq	%rax, 40(%rsp)
	movq	40(%rsp), %rcx
	callq	_ZN4core3ptr6unique15Unique$LT$T$GT$13new_unchecked17hf1228d7dd02dea75E
	movq	%rax, 32(%rsp)
	.cv_loc	125 18 145 0
	movq	32(%rsp), %rax
	addq	$56, %rsp
	retq
.Ltmp601:
.Lfunc_end121:
	.seh_endproc

	.def	_ZN5alloc11collections5btree4node85NodeRef$LT$BorrowType$C$K$C$V$C$alloc..collections..btree..node..marker..Internal$GT$13from_internal17h2c1cd465d2b76b6fE;
	.scl	3;
	.type	32;
	.endef
	.section	.text,"xr",one_only,_ZN5alloc11collections5btree4node85NodeRef$LT$BorrowType$C$K$C$V$C$alloc..collections..btree..node..marker..Internal$GT$13from_internal17h2c1cd465d2b76b6fE
	.p2align	4, 0x90
_ZN5alloc11collections5btree4node85NodeRef$LT$BorrowType$C$K$C$V$C$alloc..collections..btree..node..marker..Internal$GT$13from_internal17h2c1cd465d2b76b6fE:
.Lfunc_begin122:
	.cv_func_id 126
	.cv_file	19 "/rustc/7737e0b5c4103216d6fd8cf941b7ab9bdbaace7c\\library\\alloc\\src\\collections\\btree\\node.rs" "BC8FDE2A1D9A4979F62F26E9397280EC54827770" 2
	.cv_loc	126 19 245 0
.seh_proc _ZN5alloc11collections5btree4node85NodeRef$LT$BorrowType$C$K$C$V$C$alloc..collections..btree..node..marker..Internal$GT$13from_internal17h2c1cd465d2b76b6fE
	subq	$88, %rsp
	.seh_stackalloc 88
	.seh_endprologue
	movq	%rdx, 40(%rsp)
	movq	%rcx, 72(%rsp)
	movq	%rdx, 80(%rsp)
.Ltmp602:
	.cv_loc	126 19 247 0
	callq	_ZN4core3ptr8non_null16NonNull$LT$T$GT$4cast17h4c4794e138538991E
	movq	%rax, 48(%rsp)
	movq	48(%rsp), %rax
	movq	40(%rsp), %rcx
	movq	%rcx, 56(%rsp)
	movq	%rax, 64(%rsp)
	.cv_loc	126 19 248 0
	movq	56(%rsp), %rax
	movq	64(%rsp), %rdx
	addq	$88, %rsp
	retq
.Ltmp603:
.Lfunc_end122:
	.seh_endproc

	.def	_ZN5alloc11collections5btree4node85NodeRef$LT$BorrowType$C$K$C$V$C$alloc..collections..btree..node..marker..Internal$GT$15as_internal_ptr17h3a420f83c4a310d5E;
	.scl	3;
	.type	32;
	.endef
	.section	.text,"xr",one_only,_ZN5alloc11collections5btree4node85NodeRef$LT$BorrowType$C$K$C$V$C$alloc..collections..btree..node..marker..Internal$GT$15as_internal_ptr17h3a420f83c4a310d5E
	.p2align	4, 0x90
_ZN5alloc11collections5btree4node85NodeRef$LT$BorrowType$C$K$C$V$C$alloc..collections..btree..node..marker..Internal$GT$15as_internal_ptr17h3a420f83c4a310d5E:
.Lfunc_begin123:
	.cv_func_id 127
	.cv_loc	127 19 255 0
.seh_proc _ZN5alloc11collections5btree4node85NodeRef$LT$BorrowType$C$K$C$V$C$alloc..collections..btree..node..marker..Internal$GT$15as_internal_ptr17h3a420f83c4a310d5E
	subq	$56, %rsp
	.seh_stackalloc 56
	.seh_endprologue
	movq	%rcx, 48(%rsp)
.Ltmp604:
	.cv_loc	127 19 257 0
	movq	8(%rcx), %rcx
	callq	_ZN4core3ptr8non_null16NonNull$LT$T$GT$6as_ptr17h07a4ee08ce718a4eE
	movq	%rax, 40(%rsp)
	.cv_loc	127 19 258 0
	movq	40(%rsp), %rax
	addq	$56, %rsp
	retq
.Ltmp605:
.Lfunc_end123:
	.seh_endproc

	.def	_ZN4core3ptr9const_ptr33_$LT$impl$u20$$BP$const$u20$T$GT$7is_null17he8a7ebc9b3457c95E;
	.scl	3;
	.type	32;
	.endef
	.section	.text,"xr",one_only,_ZN4core3ptr9const_ptr33_$LT$impl$u20$$BP$const$u20$T$GT$7is_null17he8a7ebc9b3457c95E
	.p2align	4, 0x90
_ZN4core3ptr9const_ptr33_$LT$impl$u20$$BP$const$u20$T$GT$7is_null17he8a7ebc9b3457c95E:
.Lfunc_begin124:
	.cv_func_id 128
	.cv_file	20 "/rustc/7737e0b5c4103216d6fd8cf941b7ab9bdbaace7c\\library\\core\\src\\ptr\\const_ptr.rs" "524908C47671E1DBD4986E929AB4A3976AE2E740" 2
	.cv_loc	128 20 37 0
.seh_proc _ZN4core3ptr9const_ptr33_$LT$impl$u20$$BP$const$u20$T$GT$7is_null17he8a7ebc9b3457c95E
	subq	$56, %rsp
	.seh_stackalloc 56
	.seh_endprologue
	movq	%rcx, 40(%rsp)
	movq	%rcx, 48(%rsp)
	.cv_loc	128 20 40 0
	movq	40(%rsp), %rcx
.Ltmp606:
	xorl	%eax, %eax
	movl	%eax, %edx
	callq	_ZN4core3ptr9const_ptr33_$LT$impl$u20$$BP$const$u20$T$GT$13guaranteed_eq17h0f84dc6ab972b503E
	movb	%al, 39(%rsp)
	.cv_loc	128 20 41 0
	movb	39(%rsp), %al
	andb	$1, %al
	movzbl	%al, %eax
	addq	$56, %rsp
	retq
.Ltmp607:
.Lfunc_end124:
	.seh_endproc

	.def	_ZN4core3ptr9const_ptr33_$LT$impl$u20$$BP$const$u20$T$GT$4cast17hdab3ccc2e5d92ff0E;
	.scl	3;
	.type	32;
	.endef
	.section	.text,"xr",one_only,_ZN4core3ptr9const_ptr33_$LT$impl$u20$$BP$const$u20$T$GT$4cast17hdab3ccc2e5d92ff0E
	.p2align	4, 0x90
_ZN4core3ptr9const_ptr33_$LT$impl$u20$$BP$const$u20$T$GT$4cast17hdab3ccc2e5d92ff0E:
.Lfunc_begin125:
	.cv_func_id 129
	.cv_loc	129 20 47 0
.seh_proc _ZN4core3ptr9const_ptr33_$LT$impl$u20$$BP$const$u20$T$GT$4cast17hdab3ccc2e5d92ff0E
	pushq	%rax
	.seh_stackalloc 8
	.seh_endprologue
	movq	%rcx, %rax
	movq	%rax, (%rsp)
.Ltmp608:
	.cv_loc	129 20 49 0
	popq	%rcx
	retq
.Ltmp609:
.Lfunc_end125:
	.seh_endproc

	.def	_ZN5alloc11collections5btree4node40NodeRef$LT$BorrowType$C$K$C$V$C$Type$GT$3len17haab6daa952c0c1efE;
	.scl	3;
	.type	32;
	.endef
	.section	.text,"xr",one_only,_ZN5alloc11collections5btree4node40NodeRef$LT$BorrowType$C$K$C$V$C$Type$GT$3len17haab6daa952c0c1efE
	.p2align	4, 0x90
_ZN5alloc11collections5btree4node40NodeRef$LT$BorrowType$C$K$C$V$C$Type$GT$3len17haab6daa952c0c1efE:
.Lfunc_begin126:
	.cv_func_id 130
	.cv_loc	130 19 274 0
.seh_proc _ZN5alloc11collections5btree4node40NodeRef$LT$BorrowType$C$K$C$V$C$Type$GT$3len17haab6daa952c0c1efE
	subq	$56, %rsp
	.seh_stackalloc 56
	.seh_endprologue
	movq	%rcx, 48(%rsp)
.Ltmp610:
	.cv_loc	130 19 277 0
	callq	_ZN5alloc11collections5btree4node40NodeRef$LT$BorrowType$C$K$C$V$C$Type$GT$11as_leaf_ptr17hcfb7289d17b25f49E
	movq	%rax, 40(%rsp)
	movq	40(%rsp), %rax
	movw	802(%rax), %cx
	callq	_ZN4core7convert3num66_$LT$impl$u20$core..convert..From$LT$u16$GT$$u20$for$u20$usize$GT$4from17hfac3b50cdc8fa883E
	movq	%rax, 32(%rsp)
	.cv_loc	130 19 278 0
	movq	32(%rsp), %rax
	addq	$56, %rsp
	retq
.Ltmp611:
.Lfunc_end126:
	.seh_endproc

	.def	_ZN5alloc11collections5btree4node40NodeRef$LT$BorrowType$C$K$C$V$C$Type$GT$11as_leaf_ptr17hcfb7289d17b25f49E;
	.scl	3;
	.type	32;
	.endef
	.section	.text,"xr",one_only,_ZN5alloc11collections5btree4node40NodeRef$LT$BorrowType$C$K$C$V$C$Type$GT$11as_leaf_ptr17hcfb7289d17b25f49E
	.p2align	4, 0x90
_ZN5alloc11collections5btree4node40NodeRef$LT$BorrowType$C$K$C$V$C$Type$GT$11as_leaf_ptr17hcfb7289d17b25f49E:
.Lfunc_begin127:
	.cv_func_id 131
	.cv_loc	131 19 297 0
.seh_proc _ZN5alloc11collections5btree4node40NodeRef$LT$BorrowType$C$K$C$V$C$Type$GT$11as_leaf_ptr17hcfb7289d17b25f49E
	subq	$56, %rsp
	.seh_stackalloc 56
	.seh_endprologue
	movq	%rcx, 48(%rsp)
.Ltmp612:
	.cv_loc	131 19 301 0
	movq	8(%rcx), %rcx
	callq	_ZN4core3ptr8non_null16NonNull$LT$T$GT$6as_ptr17h07a4ee08ce718a4eE
	movq	%rax, 40(%rsp)
	.cv_loc	131 19 302 0
	movq	40(%rsp), %rax
	addq	$56, %rsp
	retq
.Ltmp613:
.Lfunc_end127:
	.seh_endproc

	.def	_ZN4core3ptr9const_ptr33_$LT$impl$u20$$BP$const$u20$T$GT$13guaranteed_eq17h0f84dc6ab972b503E;
	.scl	3;
	.type	32;
	.endef
	.section	.text,"xr",one_only,_ZN4core3ptr9const_ptr33_$LT$impl$u20$$BP$const$u20$T$GT$13guaranteed_eq17h0f84dc6ab972b503E
	.p2align	4, 0x90
_ZN4core3ptr9const_ptr33_$LT$impl$u20$$BP$const$u20$T$GT$13guaranteed_eq17h0f84dc6ab972b503E:
.Lfunc_begin128:
	.cv_func_id 132
	.cv_loc	132 20 478 0
.seh_proc _ZN4core3ptr9const_ptr33_$LT$impl$u20$$BP$const$u20$T$GT$13guaranteed_eq17h0f84dc6ab972b503E
	subq	$32, %rsp
	.seh_stackalloc 32
	.seh_endprologue
	movq	%rcx, 8(%rsp)
	movq	%rdx, 16(%rsp)
.Ltmp614:
	.cv_loc	132 20 482 0
	cmpq	%rdx, %rcx
	sete	%al
	andb	$1, %al
	movb	%al, 31(%rsp)
	movb	31(%rsp), %al
	movb	%al, 7(%rsp)
	.cv_loc	132 20 483 0
	movb	7(%rsp), %al
	andb	$1, %al
	movzbl	%al, %eax
	addq	$32, %rsp
	retq
.Ltmp615:
.Lfunc_end128:
	.seh_endproc

	.def	_ZN5alloc11collections5btree4node40NodeRef$LT$BorrowType$C$K$C$V$C$Type$GT$6ascend17hfb7c4d28f01f8ad4E;
	.scl	3;
	.type	32;
	.endef
	.section	.text,"xr",one_only,_ZN5alloc11collections5btree4node40NodeRef$LT$BorrowType$C$K$C$V$C$Type$GT$6ascend17hfb7c4d28f01f8ad4E
	.p2align	4, 0x90
_ZN5alloc11collections5btree4node40NodeRef$LT$BorrowType$C$K$C$V$C$Type$GT$6ascend17hfb7c4d28f01f8ad4E:
.Lfunc_begin129:
	.cv_func_id 133
	.cv_loc	133 19 315 0
.seh_proc _ZN5alloc11collections5btree4node40NodeRef$LT$BorrowType$C$K$C$V$C$Type$GT$6ascend17hfb7c4d28f01f8ad4E
	subq	$136, %rsp
	.seh_stackalloc 136
	.seh_endprologue
	movq	%rcx, 48(%rsp)
	movq	%rcx, 56(%rsp)
	movq	%rdx, 64(%rsp)
	movq	%r8, 72(%rsp)
.Ltmp616:
	.cv_loc	133 19 318 0
	xorl	%eax, %eax
	testb	$1, %al
	jne	.LBB129_2
	.cv_loc	133 19 321 0
	leaq	64(%rsp), %rcx
	callq	_ZN5alloc11collections5btree4node40NodeRef$LT$BorrowType$C$K$C$V$C$Type$GT$11as_leaf_ptr17hcfb7289d17b25f49E
	movq	%rax, 40(%rsp)
	jmp	.LBB129_3
.LBB129_2:
	.cv_loc	133 19 318 0
	leaq	__unnamed_24(%rip), %rcx
	leaq	__unnamed_25(%rip), %r8
	movl	$47, %edx
	callq	_ZN4core9panicking5panic17he5e92b81a70761b4E
	ud2
.LBB129_3:
	.cv_loc	133 19 321 0
	movq	40(%rsp), %rax
	movq	%rax, 80(%rsp)
.Ltmp617:
	.cv_loc	133 19 322 0
	movq	80(%rsp), %rax
	movq	(%rax), %rax
	movq	%rax, 112(%rsp)
	leaq	112(%rsp), %rcx
	callq	_ZN4core6option15Option$LT$T$GT$6as_ref17h13580ef9c051061dE
	movq	%rax, 32(%rsp)
	.cv_loc	133 19 324 0
	movq	32(%rsp), %rdx
	leaq	64(%rsp), %rax
	movq	%rax, 120(%rsp)
	leaq	80(%rsp), %rax
	movq	%rax, 128(%rsp)
	.cv_loc	133 19 322 0
	movq	120(%rsp), %r8
	movq	128(%rsp), %r9
	leaq	88(%rsp), %rcx
	callq	_ZN4core6option15Option$LT$T$GT$3map17h345e7953787a36e8E
	.cv_loc	133 19 329 0
	movq	48(%rsp), %rcx
	movq	64(%rsp), %r8
	movq	72(%rsp), %r9
	.cv_loc	133 19 322 0
	leaq	88(%rsp), %rdx
	callq	_ZN4core6option15Option$LT$T$GT$5ok_or17h3c3c54828cecabe9E
.Ltmp618:
	.cv_loc	133 19 330 0
	movq	56(%rsp), %rax
	addq	$136, %rsp
	retq
.Ltmp619:
.Lfunc_end129:
	.seh_endproc

	.def	_ZN5alloc11collections5btree4node40NodeRef$LT$BorrowType$C$K$C$V$C$Type$GT$6ascend28_$u7b$$u7b$closure$u7d$$u7d$17h5e66c8c5e4a3648dE;
	.scl	3;
	.type	32;
	.endef
	.section	.text,"xr",one_only,_ZN5alloc11collections5btree4node40NodeRef$LT$BorrowType$C$K$C$V$C$Type$GT$6ascend28_$u7b$$u7b$closure$u7d$$u7d$17h5e66c8c5e4a3648dE
	.p2align	4, 0x90
_ZN5alloc11collections5btree4node40NodeRef$LT$BorrowType$C$K$C$V$C$Type$GT$6ascend28_$u7b$$u7b$closure$u7d$$u7d$17h5e66c8c5e4a3648dE:
.Lfunc_begin130:
	.cv_func_id 134
	.cv_loc	134 19 324 0
.seh_proc _ZN5alloc11collections5btree4node40NodeRef$LT$BorrowType$C$K$C$V$C$Type$GT$6ascend28_$u7b$$u7b$closure$u7d$$u7d$17h5e66c8c5e4a3648dE
	subq	$136, %rsp
	.seh_stackalloc 136
	.seh_endprologue
	movq	%r8, 56(%rsp)
	movq	%rcx, 64(%rsp)
	movq	%rcx, 72(%rsp)
	movq	%rdx, 96(%rsp)
	movq	%r8, 104(%rsp)
	movq	104(%rsp), %rax
	movq	%rax, 112(%rsp)
	movq	%r9, 120(%rsp)
.Ltmp620:
	.cv_loc	134 19 325 0
	movq	(%r9), %rcx
	movq	(%rdx), %rdx
	addq	$1, %rdx
	callq	_ZN5alloc11collections5btree4node85NodeRef$LT$BorrowType$C$K$C$V$C$alloc..collections..btree..node..marker..Internal$GT$13from_internal17h2c1cd465d2b76b6fE
	movq	%rax, 80(%rsp)
	movq	%rdx, 88(%rsp)
	.cv_loc	134 19 326 0
	movq	56(%rsp), %rax
	movq	(%rax), %rax
	movw	800(%rax), %ax
	movw	%ax, 54(%rsp)
	movw	%ax, 132(%rsp)
	movw	%ax, 134(%rsp)
	movw	54(%rsp), %cx
	callq	_ZN4core7convert3num66_$LT$impl$u20$core..convert..From$LT$u16$GT$$u20$for$u20$usize$GT$4from17hfac3b50cdc8fa883E
	movq	%rax, 40(%rsp)
	.cv_loc	134 19 324 0
	movq	72(%rsp), %rax
	movq	64(%rsp), %rcx
	movq	40(%rsp), %rdx
	movq	88(%rsp), %r8
	movq	80(%rsp), %r9
	movq	%r9, (%rcx)
	movq	%r8, 8(%rcx)
	movq	%rdx, 16(%rcx)
	.cv_loc	134 19 328 0
	addq	$136, %rsp
	retq
.Ltmp621:
.Lfunc_end130:
	.seh_endproc

	.def	_ZN5alloc11collections5btree4node40NodeRef$LT$BorrowType$C$K$C$V$C$Type$GT$10first_edge17h537d2145b13d0f29E;
	.scl	3;
	.type	32;
	.endef
	.section	.text,"xr",one_only,_ZN5alloc11collections5btree4node40NodeRef$LT$BorrowType$C$K$C$V$C$Type$GT$10first_edge17h537d2145b13d0f29E
	.p2align	4, 0x90
_ZN5alloc11collections5btree4node40NodeRef$LT$BorrowType$C$K$C$V$C$Type$GT$10first_edge17h537d2145b13d0f29E:
.Lfunc_begin131:
	.cv_func_id 135
	.cv_loc	135 19 332 0
.seh_proc _ZN5alloc11collections5btree4node40NodeRef$LT$BorrowType$C$K$C$V$C$Type$GT$10first_edge17h537d2145b13d0f29E
	subq	$56, %rsp
	.seh_stackalloc 56
	.seh_endprologue
	movq	%rcx, %rax
	movq	%rax, 32(%rsp)
	movq	%rdx, 40(%rsp)
	movq	%r8, 48(%rsp)
.Ltmp622:
	.cv_loc	135 19 333 0
	xorl	%eax, %eax
	movl	%eax, %r9d
	callq	_ZN5alloc11collections5btree4node139Handle$LT$alloc..collections..btree..node..NodeRef$LT$BorrowType$C$K$C$V$C$NodeType$GT$$C$alloc..collections..btree..node..marker..Edge$GT$8new_edge17h0b6a35f620967954E
	.cv_loc	135 19 334 0
	movq	32(%rsp), %rax
	addq	$56, %rsp
	retq
.Ltmp623:
.Lfunc_end131:
	.seh_endproc

	.def	_ZN5alloc11collections5btree4node40NodeRef$LT$BorrowType$C$K$C$V$C$Type$GT$10first_edge17h8366a789d1eaf047E;
	.scl	3;
	.type	32;
	.endef
	.section	.text,"xr",one_only,_ZN5alloc11collections5btree4node40NodeRef$LT$BorrowType$C$K$C$V$C$Type$GT$10first_edge17h8366a789d1eaf047E
	.p2align	4, 0x90
_ZN5alloc11collections5btree4node40NodeRef$LT$BorrowType$C$K$C$V$C$Type$GT$10first_edge17h8366a789d1eaf047E:
.Lfunc_begin132:
	.cv_func_id 136
	.cv_loc	136 19 332 0
.seh_proc _ZN5alloc11collections5btree4node40NodeRef$LT$BorrowType$C$K$C$V$C$Type$GT$10first_edge17h8366a789d1eaf047E
	subq	$56, %rsp
	.seh_stackalloc 56
	.seh_endprologue
	movq	%rcx, %rax
	movq	%rax, 32(%rsp)
	movq	%rdx, 40(%rsp)
	movq	%r8, 48(%rsp)
.Ltmp624:
	.cv_loc	136 19 333 0
	xorl	%eax, %eax
	movl	%eax, %r9d
	callq	_ZN5alloc11collections5btree4node139Handle$LT$alloc..collections..btree..node..NodeRef$LT$BorrowType$C$K$C$V$C$NodeType$GT$$C$alloc..collections..btree..node..marker..Edge$GT$8new_edge17h0e0ee12a758e437eE
	.cv_loc	136 19 334 0
	movq	32(%rsp), %rax
	addq	$56, %rsp
	retq
.Ltmp625:
.Lfunc_end132:
	.seh_endproc

	.def	_ZN4core3ptr9const_ptr33_$LT$impl$u20$$BP$const$u20$T$GT$4read17hedc71ab7f6c7a982E;
	.scl	3;
	.type	32;
	.endef
	.section	.text,"xr",one_only,_ZN4core3ptr9const_ptr33_$LT$impl$u20$$BP$const$u20$T$GT$4read17hedc71ab7f6c7a982E
	.p2align	4, 0x90
_ZN4core3ptr9const_ptr33_$LT$impl$u20$$BP$const$u20$T$GT$4read17hedc71ab7f6c7a982E:
.Lfunc_begin133:
	.cv_func_id 137
	.cv_loc	137 20 817 0
.seh_proc _ZN4core3ptr9const_ptr33_$LT$impl$u20$$BP$const$u20$T$GT$4read17hedc71ab7f6c7a982E
	subq	$56, %rsp
	.seh_stackalloc 56
	.seh_endprologue
	movq	%rcx, 48(%rsp)
.Ltmp626:
	.cv_loc	137 20 822 0
	callq	_ZN4core3ptr4read17hcf29a47aac1e0669E
	movq	%rax, 40(%rsp)
	.cv_loc	137 20 823 0
	movq	40(%rsp), %rax
	addq	$56, %rsp
	retq
.Ltmp627:
.Lfunc_end133:
	.seh_endproc

	.def	_ZN4core3ptr9const_ptr43_$LT$impl$u20$$BP$const$u20$$u5b$T$u5d$$GT$3len17hd4175ded5fc93c34E;
	.scl	3;
	.type	32;
	.endef
	.section	.text,"xr",one_only,_ZN4core3ptr9const_ptr43_$LT$impl$u20$$BP$const$u20$$u5b$T$u5d$$GT$3len17hd4175ded5fc93c34E
	.p2align	4, 0x90
_ZN4core3ptr9const_ptr43_$LT$impl$u20$$BP$const$u20$$u5b$T$u5d$$GT$3len17hd4175ded5fc93c34E:
.Lfunc_begin134:
	.cv_func_id 138
	.cv_loc	138 20 991 0
.seh_proc _ZN4core3ptr9const_ptr43_$LT$impl$u20$$BP$const$u20$$u5b$T$u5d$$GT$3len17hd4175ded5fc93c34E
	subq	$56, %rsp
	.seh_stackalloc 56
	.seh_endprologue
	movq	%rcx, 40(%rsp)
	movq	%rdx, 48(%rsp)
.Ltmp628:
	.cv_loc	138 20 992 0
	callq	_ZN4core3ptr8metadata8metadata17h7255cc74f4f666f3E
	movq	%rax, 32(%rsp)
	.cv_loc	138 20 993 0
	movq	32(%rsp), %rax
	addq	$56, %rsp
	retq
.Ltmp629:
.Lfunc_end134:
	.seh_endproc

	.def	_ZN4core3ptr9const_ptr43_$LT$impl$u20$$BP$const$u20$$u5b$T$u5d$$GT$6as_ptr17h7760edcf26473af4E;
	.scl	3;
	.type	32;
	.endef
	.section	.text,"xr",one_only,_ZN4core3ptr9const_ptr43_$LT$impl$u20$$BP$const$u20$$u5b$T$u5d$$GT$6as_ptr17h7760edcf26473af4E
	.p2align	4, 0x90
_ZN4core3ptr9const_ptr43_$LT$impl$u20$$BP$const$u20$$u5b$T$u5d$$GT$6as_ptr17h7760edcf26473af4E:
.Lfunc_begin135:
	.cv_func_id 139
	.cv_loc	139 20 1011 0
.seh_proc _ZN4core3ptr9const_ptr43_$LT$impl$u20$$BP$const$u20$$u5b$T$u5d$$GT$6as_ptr17h7760edcf26473af4E
	subq	$16, %rsp
	.seh_stackalloc 16
	.seh_endprologue
	movq	%rcx, %rax
	movq	%rax, (%rsp)
	movq	%rdx, 8(%rsp)
.Ltmp630:
	.cv_loc	139 20 1013 0
	addq	$16, %rsp
	retq
.Ltmp631:
.Lfunc_end135:
	.seh_endproc

	.def	_ZN4core3ptr9const_ptr43_$LT$impl$u20$$BP$const$u20$$u5b$T$u5d$$GT$6as_ptr17ha57eded43828aa04E;
	.scl	3;
	.type	32;
	.endef
	.section	.text,"xr",one_only,_ZN4core3ptr9const_ptr43_$LT$impl$u20$$BP$const$u20$$u5b$T$u5d$$GT$6as_ptr17ha57eded43828aa04E
	.p2align	4, 0x90
_ZN4core3ptr9const_ptr43_$LT$impl$u20$$BP$const$u20$$u5b$T$u5d$$GT$6as_ptr17ha57eded43828aa04E:
.Lfunc_begin136:
	.cv_func_id 140
	.cv_loc	140 20 1011 0
.seh_proc _ZN4core3ptr9const_ptr43_$LT$impl$u20$$BP$const$u20$$u5b$T$u5d$$GT$6as_ptr17ha57eded43828aa04E
	subq	$16, %rsp
	.seh_stackalloc 16
	.seh_endprologue
	movq	%rcx, %rax
	movq	%rax, (%rsp)
	movq	%rdx, 8(%rsp)
.Ltmp632:
	.cv_loc	140 20 1013 0
	addq	$16, %rsp
	retq
.Ltmp633:
.Lfunc_end136:
	.seh_endproc

	.def	_ZN5alloc11collections5btree4node127NodeRef$LT$alloc..collections..btree..node..marker..Dying$C$K$C$V$C$alloc..collections..btree..node..marker..LeafOrInternal$GT$21deallocate_and_ascend17h388b3ae757eb1ca4E;
	.scl	3;
	.type	32;
	.endef
	.section	.text,"xr",one_only,_ZN5alloc11collections5btree4node127NodeRef$LT$alloc..collections..btree..node..marker..Dying$C$K$C$V$C$alloc..collections..btree..node..marker..LeafOrInternal$GT$21deallocate_and_ascend17h388b3ae757eb1ca4E
	.p2align	4, 0x90
_ZN5alloc11collections5btree4node127NodeRef$LT$alloc..collections..btree..node..marker..Dying$C$K$C$V$C$alloc..collections..btree..node..marker..LeafOrInternal$GT$21deallocate_and_ascend17h388b3ae757eb1ca4E:
.Lfunc_begin137:
	.cv_func_id 141
	.cv_loc	141 19 390 0
.seh_proc _ZN5alloc11collections5btree4node127NodeRef$LT$alloc..collections..btree..node..marker..Dying$C$K$C$V$C$alloc..collections..btree..node..marker..LeafOrInternal$GT$21deallocate_and_ascend17h388b3ae757eb1ca4E
	subq	$152, %rsp
	.seh_stackalloc 152
	.seh_endprologue
	movq	%r8, 40(%rsp)
	movq	%rdx, 48(%rsp)
	movq	%rcx, 56(%rsp)
	movq	%rcx, 64(%rsp)
	movq	%rdx, 120(%rsp)
	movq	%r8, 128(%rsp)
.Ltmp634:
	.cv_loc	141 19 393 0
	movq	%rdx, 136(%rsp)
.Ltmp635:
	.cv_loc	141 19 394 0
	movq	%r8, 144(%rsp)
.Ltmp636:
	.cv_loc	141 19 395 0
	leaq	72(%rsp), %rcx
	callq	_ZN5alloc11collections5btree4node40NodeRef$LT$BorrowType$C$K$C$V$C$Type$GT$6ascend17hfb7c4d28f01f8ad4E
	movq	56(%rsp), %rcx
	leaq	72(%rsp), %rdx
	callq	_ZN4core6result19Result$LT$T$C$E$GT$2ok17h4450219dd61bf91aE
	.cv_loc	141 19 398 0
	movq	40(%rsp), %rcx
.Ltmp637:
	callq	_ZN4core3ptr8non_null16NonNull$LT$T$GT$4cast17hc641acdc54fd0bbdE
	movq	%rax, 32(%rsp)
	.cv_loc	141 19 399 0
	movq	48(%rsp), %rax
	cmpq	$0, %rax
	ja	.LBB137_5
	.cv_loc	141 19 402 0
	callq	_ZN4core5alloc6layout6Layout3new17h158b753e48d3a536E
	movq	%rdx, 112(%rsp)
	movq	%rax, 104(%rsp)
	jmp	.LBB137_6
.LBB137_5:
	.cv_loc	141 19 400 0
	callq	_ZN4core5alloc6layout6Layout3new17hba9f181341168182E
	movq	%rdx, 112(%rsp)
	movq	%rax, 104(%rsp)
.LBB137_6:
	.cv_loc	141 19 397 0
	movq	32(%rsp), %rdx
	movq	104(%rsp), %r8
	movq	112(%rsp), %r9
	leaq	__unnamed_2(%rip), %rcx
	callq	_ZN63_$LT$alloc..alloc..Global$u20$as$u20$core..alloc..Allocator$GT$10deallocate17hee8d68ad33cf6f41E
.Ltmp638:
	.cv_loc	141 19 407 0
	movq	64(%rsp), %rax
	addq	$152, %rsp
	retq
.Ltmp639:
.Lfunc_end137:
	.seh_endproc

	.def	_ZN5alloc11collections5btree4node76NodeRef$LT$alloc..collections..btree..node..marker..Dying$C$K$C$V$C$Type$GT$13as_leaf_dying17ha098a9fa6c103270E;
	.scl	3;
	.type	32;
	.endef
	.section	.text,"xr",one_only,_ZN5alloc11collections5btree4node76NodeRef$LT$alloc..collections..btree..node..marker..Dying$C$K$C$V$C$Type$GT$13as_leaf_dying17ha098a9fa6c103270E
	.p2align	4, 0x90
_ZN5alloc11collections5btree4node76NodeRef$LT$alloc..collections..btree..node..marker..Dying$C$K$C$V$C$Type$GT$13as_leaf_dying17ha098a9fa6c103270E:
.Lfunc_begin138:
	.cv_func_id 142
	.cv_loc	142 19 442 0
.seh_proc _ZN5alloc11collections5btree4node76NodeRef$LT$alloc..collections..btree..node..marker..Dying$C$K$C$V$C$Type$GT$13as_leaf_dying17ha098a9fa6c103270E
	subq	$56, %rsp
	.seh_stackalloc 56
	.seh_endprologue
	movq	%rcx, 40(%rsp)
.Ltmp640:
	.cv_loc	142 19 443 0
	callq	_ZN5alloc11collections5btree4node40NodeRef$LT$BorrowType$C$K$C$V$C$Type$GT$11as_leaf_ptr17hcfb7289d17b25f49E
	movq	%rax, 32(%rsp)
	movq	%rax, 48(%rsp)
	.cv_loc	142 19 446 0
	movq	32(%rsp), %rax
	addq	$56, %rsp
	retq
.Ltmp641:
.Lfunc_end138:
	.seh_endproc

	.def	_ZN4core3ptr7mut_ptr31_$LT$impl$u20$$BP$mut$u20$T$GT$7is_null17h0b974bb70b6aad97E;
	.scl	3;
	.type	32;
	.endef
	.section	.text,"xr",one_only,_ZN4core3ptr7mut_ptr31_$LT$impl$u20$$BP$mut$u20$T$GT$7is_null17h0b974bb70b6aad97E
	.p2align	4, 0x90
_ZN4core3ptr7mut_ptr31_$LT$impl$u20$$BP$mut$u20$T$GT$7is_null17h0b974bb70b6aad97E:
.Lfunc_begin139:
	.cv_func_id 143
	.cv_file	21 "/rustc/7737e0b5c4103216d6fd8cf941b7ab9bdbaace7c\\library\\core\\src\\ptr\\mut_ptr.rs" "9C0276CA40F9C26122B44547786A83B5B3539AD0" 2
	.cv_loc	143 21 36 0
.seh_proc _ZN4core3ptr7mut_ptr31_$LT$impl$u20$$BP$mut$u20$T$GT$7is_null17h0b974bb70b6aad97E
	subq	$56, %rsp
	.seh_stackalloc 56
	.seh_endprologue
	movq	%rcx, 48(%rsp)
	movq	%rcx, 40(%rsp)
	.cv_loc	143 21 39 0
	movq	40(%rsp), %rcx
.Ltmp642:
	xorl	%eax, %eax
	movl	%eax, %edx
	callq	_ZN4core3ptr7mut_ptr31_$LT$impl$u20$$BP$mut$u20$T$GT$13guaranteed_eq17hc707127a68dbfcfaE
	movb	%al, 39(%rsp)
	.cv_loc	143 21 40 0
	movb	39(%rsp), %al
	andb	$1, %al
	movzbl	%al, %eax
	addq	$56, %rsp
	retq
.Ltmp643:
.Lfunc_end139:
	.seh_endproc

	.def	_ZN4core3ptr7mut_ptr31_$LT$impl$u20$$BP$mut$u20$T$GT$7is_null17h124dcf1a4e8b8124E;
	.scl	3;
	.type	32;
	.endef
	.section	.text,"xr",one_only,_ZN4core3ptr7mut_ptr31_$LT$impl$u20$$BP$mut$u20$T$GT$7is_null17h124dcf1a4e8b8124E
	.p2align	4, 0x90
_ZN4core3ptr7mut_ptr31_$LT$impl$u20$$BP$mut$u20$T$GT$7is_null17h124dcf1a4e8b8124E:
.Lfunc_begin140:
	.cv_func_id 144
	.cv_loc	144 21 36 0
.seh_proc _ZN4core3ptr7mut_ptr31_$LT$impl$u20$$BP$mut$u20$T$GT$7is_null17h124dcf1a4e8b8124E
	subq	$56, %rsp
	.seh_stackalloc 56
	.seh_endprologue
	movq	%rcx, 48(%rsp)
	movq	%rcx, 40(%rsp)
	.cv_loc	144 21 39 0
	movq	40(%rsp), %rcx
.Ltmp644:
	xorl	%eax, %eax
	movl	%eax, %edx
	callq	_ZN4core3ptr7mut_ptr31_$LT$impl$u20$$BP$mut$u20$T$GT$13guaranteed_eq17hc707127a68dbfcfaE
	movb	%al, 39(%rsp)
	.cv_loc	144 21 40 0
	movb	39(%rsp), %al
	andb	$1, %al
	movzbl	%al, %eax
	addq	$56, %rsp
	retq
.Ltmp645:
.Lfunc_end140:
	.seh_endproc

	.def	_ZN4core3ptr7mut_ptr31_$LT$impl$u20$$BP$mut$u20$T$GT$7is_null17hb9fae63ed6805547E;
	.scl	3;
	.type	32;
	.endef
	.section	.text,"xr",one_only,_ZN4core3ptr7mut_ptr31_$LT$impl$u20$$BP$mut$u20$T$GT$7is_null17hb9fae63ed6805547E
	.p2align	4, 0x90
_ZN4core3ptr7mut_ptr31_$LT$impl$u20$$BP$mut$u20$T$GT$7is_null17hb9fae63ed6805547E:
.Lfunc_begin141:
	.cv_func_id 145
	.cv_loc	145 21 36 0
.seh_proc _ZN4core3ptr7mut_ptr31_$LT$impl$u20$$BP$mut$u20$T$GT$7is_null17hb9fae63ed6805547E
	subq	$56, %rsp
	.seh_stackalloc 56
	.seh_endprologue
	movq	%rcx, 40(%rsp)
	movq	%rcx, 48(%rsp)
	.cv_loc	145 21 39 0
	movq	40(%rsp), %rcx
.Ltmp646:
	xorl	%eax, %eax
	movl	%eax, %edx
	callq	_ZN4core3ptr7mut_ptr31_$LT$impl$u20$$BP$mut$u20$T$GT$13guaranteed_eq17hc707127a68dbfcfaE
	movb	%al, 39(%rsp)
	.cv_loc	145 21 40 0
	movb	39(%rsp), %al
	andb	$1, %al
	movzbl	%al, %eax
	addq	$56, %rsp
	retq
.Ltmp647:
.Lfunc_end141:
	.seh_endproc

	.def	_ZN4core3ptr7mut_ptr31_$LT$impl$u20$$BP$mut$u20$T$GT$13guaranteed_eq17hc707127a68dbfcfaE;
	.scl	3;
	.type	32;
	.endef
	.section	.text,"xr",one_only,_ZN4core3ptr7mut_ptr31_$LT$impl$u20$$BP$mut$u20$T$GT$13guaranteed_eq17hc707127a68dbfcfaE
	.p2align	4, 0x90
_ZN4core3ptr7mut_ptr31_$LT$impl$u20$$BP$mut$u20$T$GT$13guaranteed_eq17hc707127a68dbfcfaE:
.Lfunc_begin142:
	.cv_func_id 146
	.cv_loc	146 21 500 0
.seh_proc _ZN4core3ptr7mut_ptr31_$LT$impl$u20$$BP$mut$u20$T$GT$13guaranteed_eq17hc707127a68dbfcfaE
	subq	$32, %rsp
	.seh_stackalloc 32
	.seh_endprologue
	movq	%rcx, 8(%rsp)
	movq	%rdx, 16(%rsp)
.Ltmp648:
	.cv_loc	146 21 504 0
	cmpq	%rdx, %rcx
	sete	%al
	andb	$1, %al
	movb	%al, 31(%rsp)
	movb	31(%rsp), %al
	movb	%al, 7(%rsp)
	.cv_loc	146 21 505 0
	movb	7(%rsp), %al
	andb	$1, %al
	movzbl	%al, %eax
	addq	$32, %rsp
	retq
.Ltmp649:
.Lfunc_end142:
	.seh_endproc

	.def	_ZN4core3ptr7mut_ptr31_$LT$impl$u20$$BP$mut$u20$T$GT$12wrapping_sub17h7b8fe294adb7e84cE;
	.scl	3;
	.type	32;
	.endef
	.section	.text,"xr",one_only,_ZN4core3ptr7mut_ptr31_$LT$impl$u20$$BP$mut$u20$T$GT$12wrapping_sub17h7b8fe294adb7e84cE
	.p2align	4, 0x90
_ZN4core3ptr7mut_ptr31_$LT$impl$u20$$BP$mut$u20$T$GT$12wrapping_sub17h7b8fe294adb7e84cE:
.Lfunc_begin143:
	.cv_func_id 147
	.cv_loc	147 21 874 0
.seh_proc _ZN4core3ptr7mut_ptr31_$LT$impl$u20$$BP$mut$u20$T$GT$12wrapping_sub17h7b8fe294adb7e84cE
	subq	$88, %rsp
	.seh_stackalloc 88
	.seh_endprologue
	movq	%rcx, 8(%rsp)
	movq	%rcx, 24(%rsp)
	movq	%rdx, 32(%rsp)
	movq	%rdx, 64(%rsp)
	movq	$0, 72(%rsp)
	movq	%rdx, 80(%rsp)
.Ltmp650:
	.cv_file	22 "/rustc/7737e0b5c4103216d6fd8cf941b7ab9bdbaace7c\\library\\core\\src\\num\\int_macros.rs" "F1D552AA03632596F808A21E778B1FEA3D60C6ED" 2
	.cv_inline_site_id 148 within 147 inlined_at 21 878 0
	.cv_inline_site_id 149 within 148 inlined_at 22 1338 0
	.cv_loc	149 22 1162 0
	xorl	%eax, %eax
	subq	%rdx, %rax
	movq	%rax, 16(%rsp)
.Ltmp651:
	.cv_inline_site_id 150 within 147 inlined_at 21 878 0
	.cv_loc	150 21 368 0
	movq	16(%rsp), %rcx
	movq	8(%rsp), %rax
	movq	%rax, 40(%rsp)
	movq	%rcx, 48(%rsp)
.Ltmp652:
	addq	%rcx, %rax
	movq	%rax, 56(%rsp)
	movq	56(%rsp), %rax
	movq	%rax, (%rsp)
.Ltmp653:
	.cv_loc	147 21 879 0
	movq	(%rsp), %rax
	addq	$88, %rsp
	retq
.Ltmp654:
.Lfunc_end143:
	.seh_endproc

	.def	_ZN5alloc11collections5btree4node76NodeRef$LT$alloc..collections..btree..node..marker..Owned$C$K$C$V$C$Type$GT$10into_dying17ha081cea2bf08a738E;
	.scl	3;
	.type	32;
	.endef
