	.text
	.def	@feat.00;
	.scl	3;
	.type	0;
	.endef
	.globl	@feat.00
.set @feat.00, 0
	.file	"build_script_build.5a5dba3b-cgu.0"
	.def	_ZN104_$LT$core..ops..control_flow..ControlFlow$LT$B$C$C$GT$$u20$as$u20$core..ops..try_trait..FromResidual$GT$13from_residual17h97be124cdffb0209E;
	.scl	3;
	.type	32;
	.endef
	.section	.text,"xr",one_only,_ZN104_$LT$core..ops..control_flow..ControlFlow$LT$B$C$C$GT$$u20$as$u20$core..ops..try_trait..FromResidual$GT$13from_residual17h97be124cdffb0209E
	.p2align	4, 0x90
_ZN104_$LT$core..ops..control_flow..ControlFlow$LT$B$C$C$GT$$u20$as$u20$core..ops..try_trait..FromResidual$GT$13from_residual17h97be124cdffb0209E:
.Lfunc_begin0:
	.cv_func_id 0
	.cv_file	1 "/rustc/90743e7298aca107ddaa0c202a4d3604e29bfeb6\\library\\core\\src\\ops\\control_flow.rs" "95E1CC6601FAB4B6B5B52AD30FE7935BE50C84EA" 2
	.cv_loc	0 1 121 0
.seh_proc _ZN104_$LT$core..ops..control_flow..ControlFlow$LT$B$C$C$GT$$u20$as$u20$core..ops..try_trait..FromResidual$GT$13from_residual17h97be124cdffb0209E
	subq	$24, %rsp
	.seh_stackalloc 24
	.seh_endprologue
.Ltmp0:
	.cv_loc	0 1 123 0
	movb	$1, 7(%rsp)
.Ltmp1:
	.cv_loc	0 1 125 0
	movb	7(%rsp), %al
	andb	$1, %al
	movzbl	%al, %eax
	addq	$24, %rsp
	retq
.Ltmp2:
.Lfunc_end0:
	.seh_endproc

	.def	_ZN106_$LT$core..ops..range..Range$LT$usize$GT$$u20$as$u20$core..slice..index..SliceIndex$LT$$u5b$T$u5d$$GT$$GT$13get_unchecked17hbec561c1480d7312E;
	.scl	3;
	.type	32;
	.endef
	.section	.text,"xr",one_only,_ZN106_$LT$core..ops..range..Range$LT$usize$GT$$u20$as$u20$core..slice..index..SliceIndex$LT$$u5b$T$u5d$$GT$$GT$13get_unchecked17hbec561c1480d7312E
	.p2align	4, 0x90
_ZN106_$LT$core..ops..range..Range$LT$usize$GT$$u20$as$u20$core..slice..index..SliceIndex$LT$$u5b$T$u5d$$GT$$GT$13get_unchecked17hbec561c1480d7312E:
.Lfunc_begin1:
	.cv_func_id 1
	.cv_file	2 "/rustc/90743e7298aca107ddaa0c202a4d3604e29bfeb6\\library\\core\\src\\slice\\index.rs" "A56D9651D75DF5C02F687DAF925E2118055AAEB2" 2
	.cv_loc	1 2 372 0
.seh_proc _ZN106_$LT$core..ops..range..Range$LT$usize$GT$$u20$as$u20$core..slice..index..SliceIndex$LT$$u5b$T$u5d$$GT$$GT$13get_unchecked17hbec561c1480d7312E
	subq	$184, %rsp
	.seh_stackalloc 184
	.seh_endprologue
	movq	%rdx, (%rsp)
	movq	%rcx, 8(%rsp)
	movq	%rcx, 56(%rsp)
	movq	%rdx, 64(%rsp)
	movq	%r8, 72(%rsp)
	movq	%r9, 80(%rsp)
.Ltmp3:
	.cv_loc	1 2 385 0
	movq	%r8, 88(%rsp)
	movq	%r9, 96(%rsp)
.Ltmp4:
	.cv_file	3 "/rustc/90743e7298aca107ddaa0c202a4d3604e29bfeb6\\library\\core\\src\\ptr\\const_ptr.rs" "B3C5B6FD7E473E096AA65EC74D4255A7BD5C2079" 2
	.cv_inline_site_id 2 within 1 inlined_at 2 385 0
	.cv_loc	2 3 1408 0
	movq	%r8, 104(%rsp)
.Ltmp5:
	.cv_loc	1 2 385 0
	movq	%rcx, 112(%rsp)
.Ltmp6:
	.cv_loc	2 3 897 0
	movq	%r8, 120(%rsp)
	movq	%rcx, 128(%rsp)
.Ltmp7:
	.cv_inline_site_id 3 within 2 inlined_at 3 897 0
	.cv_loc	3 3 461 0
	addq	%rcx, %r8
	movq	%r8, 136(%rsp)
	movq	136(%rsp), %rax
	movq	%rax, 16(%rsp)
	movq	%rax, 144(%rsp)
.Ltmp8:
	.cv_loc	1 2 385 0
	movq	16(%rsp), %rcx
	movq	8(%rsp), %rdx
	movq	(%rsp), %rax
	subq	%rdx, %rax
	movq	%rax, 152(%rsp)
.Ltmp9:
	.cv_file	4 "/rustc/90743e7298aca107ddaa0c202a4d3604e29bfeb6\\library\\core\\src\\ptr\\mod.rs" "915A2787D4B080290F8FC1BDA15EFBDA3325D28E" 2
	.cv_loc	2 4 710 0
	movq	%rcx, 160(%rsp)
.Ltmp10:
	.cv_inline_site_id 4 within 2 inlined_at 4 710 0
	.cv_loc	4 3 50 0
	movq	%rcx, 168(%rsp)
.Ltmp11:
	.cv_loc	2 4 710 0
	movq	%rax, 176(%rsp)
.Ltmp12:
	.cv_file	5 "/rustc/90743e7298aca107ddaa0c202a4d3604e29bfeb6\\library\\core\\src\\ptr\\metadata.rs" "A726CD1A3DCBA52B2BE9A777A4856782BE93C6ED" 2
	.cv_loc	4 5 117 0
	movq	%rcx, 40(%rsp)
	movq	%rax, 48(%rsp)
	movq	40(%rsp), %rcx
	movq	48(%rsp), %rax
	movq	%rcx, 24(%rsp)
	movq	%rax, 32(%rsp)
	movq	24(%rsp), %rax
	movq	32(%rsp), %rdx
.Ltmp13:
	.cv_loc	1 2 387 0
	addq	$184, %rsp
	retq
.Ltmp14:
.Lfunc_end1:
	.seh_endproc

	.def	_ZN106_$LT$core..ops..range..Range$LT$usize$GT$$u20$as$u20$core..slice..index..SliceIndex$LT$$u5b$T$u5d$$GT$$GT$17get_unchecked_mut17h7976b5ba7f79a9c7E;
	.scl	3;
	.type	32;
	.endef
	.section	.text,"xr",one_only,_ZN106_$LT$core..ops..range..Range$LT$usize$GT$$u20$as$u20$core..slice..index..SliceIndex$LT$$u5b$T$u5d$$GT$$GT$17get_unchecked_mut17h7976b5ba7f79a9c7E
	.p2align	4, 0x90
_ZN106_$LT$core..ops..range..Range$LT$usize$GT$$u20$as$u20$core..slice..index..SliceIndex$LT$$u5b$T$u5d$$GT$$GT$17get_unchecked_mut17h7976b5ba7f79a9c7E:
.Lfunc_begin2:
	.cv_func_id 5
	.cv_loc	5 2 390 0
.seh_proc _ZN106_$LT$core..ops..range..Range$LT$usize$GT$$u20$as$u20$core..slice..index..SliceIndex$LT$$u5b$T$u5d$$GT$$GT$17get_unchecked_mut17h7976b5ba7f79a9c7E
	subq	$184, %rsp
	.seh_stackalloc 184
	.seh_endprologue
	movq	%rdx, (%rsp)
	movq	%rcx, 8(%rsp)
	movq	%rcx, 56(%rsp)
	movq	%rdx, 64(%rsp)
	movq	%r8, 72(%rsp)
	movq	%r9, 80(%rsp)
.Ltmp15:
	.cv_loc	5 2 399 0
	movq	%r8, 88(%rsp)
	movq	%r9, 96(%rsp)
.Ltmp16:
	.cv_file	6 "/rustc/90743e7298aca107ddaa0c202a4d3604e29bfeb6\\library\\core\\src\\ptr\\mut_ptr.rs" "D015765D1599B712F88DDDB1DF399656B653F0B6" 2
	.cv_inline_site_id 6 within 5 inlined_at 2 399 0
	.cv_loc	6 6 1795 0
	movq	%r8, 104(%rsp)
.Ltmp17:
	.cv_loc	5 2 399 0
	movq	%rcx, 112(%rsp)
.Ltmp18:
	.cv_loc	6 6 1003 0
	movq	%r8, 120(%rsp)
	movq	%rcx, 128(%rsp)
.Ltmp19:
	.cv_inline_site_id 7 within 6 inlined_at 6 1003 0
	.cv_loc	7 6 479 0
	addq	%rcx, %r8
	movq	%r8, 136(%rsp)
	movq	136(%rsp), %rax
	movq	%rax, 16(%rsp)
	movq	16(%rsp), %rcx
	movq	8(%rsp), %rdx
	movq	(%rsp), %rax
	movq	%rcx, 144(%rsp)
.Ltmp20:
	.cv_loc	5 2 399 0
	subq	%rdx, %rax
	movq	%rax, 152(%rsp)
.Ltmp21:
	.cv_loc	6 4 742 0
	movq	%rcx, 160(%rsp)
.Ltmp22:
	.cv_inline_site_id 8 within 6 inlined_at 4 742 0
	.cv_loc	8 6 49 0
	movq	%rcx, 168(%rsp)
.Ltmp23:
	.cv_loc	6 4 742 0
	movq	%rax, 176(%rsp)
.Ltmp24:
	.cv_loc	8 5 134 0
	movq	%rcx, 40(%rsp)
	movq	%rax, 48(%rsp)
	movq	40(%rsp), %rcx
	movq	48(%rsp), %rax
	movq	%rcx, 24(%rsp)
	movq	%rax, 32(%rsp)
	movq	24(%rsp), %rax
	movq	32(%rsp), %rdx
.Ltmp25:
	.cv_loc	5 2 401 0
	addq	$184, %rsp
	retq
.Ltmp26:
.Lfunc_end2:
	.seh_endproc

	.def	_ZN106_$LT$core..ops..range..Range$LT$usize$GT$$u20$as$u20$core..slice..index..SliceIndex$LT$$u5b$T$u5d$$GT$$GT$3get17hf449e9f3cbe14775E;
	.scl	3;
	.type	32;
	.endef
	.section	.text,"xr",one_only,_ZN106_$LT$core..ops..range..Range$LT$usize$GT$$u20$as$u20$core..slice..index..SliceIndex$LT$$u5b$T$u5d$$GT$$GT$3get17hf449e9f3cbe14775E
	.p2align	4, 0x90
_ZN106_$LT$core..ops..range..Range$LT$usize$GT$$u20$as$u20$core..slice..index..SliceIndex$LT$$u5b$T$u5d$$GT$$GT$3get17hf449e9f3cbe14775E:
.Lfunc_begin3:
	.cv_func_id 9
	.cv_loc	9 2 352 0
.seh_proc _ZN106_$LT$core..ops..range..Range$LT$usize$GT$$u20$as$u20$core..slice..index..SliceIndex$LT$$u5b$T$u5d$$GT$$GT$3get17hf449e9f3cbe14775E
	subq	$136, %rsp
	.seh_stackalloc 136
	.seh_endprologue
	movq	%r9, 48(%rsp)
	movq	%r8, 56(%rsp)
	movq	%rdx, 64(%rsp)
	movq	%rcx, 72(%rsp)
	movq	%rcx, 104(%rsp)
	movq	%rdx, 112(%rsp)
	movq	%r8, 120(%rsp)
	movq	%r9, 128(%rsp)
.Ltmp27:
	.cv_loc	9 2 353 0
	cmpq	%rdx, %rcx
	ja	.LBB3_2
	movq	64(%rsp), %rax
	movq	48(%rsp), %rcx
	cmpq	%rcx, %rax
	seta	%al
	andb	$1, %al
	movb	%al, 103(%rsp)
	jmp	.LBB3_3
.LBB3_2:
	movb	$1, 103(%rsp)
.LBB3_3:
	testb	$1, 103(%rsp)
	jne	.LBB3_5
	.cv_loc	9 2 357 0
	movq	48(%rsp), %r9
	movq	56(%rsp), %r8
	movq	64(%rsp), %rdx
	movq	72(%rsp), %rcx
	callq	_ZN106_$LT$core..ops..range..Range$LT$usize$GT$$u20$as$u20$core..slice..index..SliceIndex$LT$$u5b$T$u5d$$GT$$GT$13get_unchecked17hbec561c1480d7312E
	movq	%rax, 32(%rsp)
	movq	%rdx, 40(%rsp)
	jmp	.LBB3_7
.LBB3_5:
	.cv_loc	9 2 354 0
	movq	$0, 80(%rsp)
.LBB3_6:
	.cv_loc	9 2 359 0
	movq	80(%rsp), %rax
	movq	88(%rsp), %rdx
	addq	$136, %rsp
	retq
.LBB3_7:
	.cv_loc	9 2 357 0
	movq	40(%rsp), %rax
	movq	32(%rsp), %rcx
	movq	%rcx, 80(%rsp)
	movq	%rax, 88(%rsp)
	.cv_loc	9 2 353 0
	jmp	.LBB3_6
.Ltmp28:
.Lfunc_end3:
	.seh_endproc

	.def	_ZN106_$LT$core..ops..range..Range$LT$usize$GT$$u20$as$u20$core..slice..index..SliceIndex$LT$$u5b$T$u5d$$GT$$GT$5index17h9fae39915a217b8cE;
	.scl	3;
	.type	32;
	.endef
	.section	.text,"xr",one_only,_ZN106_$LT$core..ops..range..Range$LT$usize$GT$$u20$as$u20$core..slice..index..SliceIndex$LT$$u5b$T$u5d$$GT$$GT$5index17h9fae39915a217b8cE
	.p2align	4, 0x90
_ZN106_$LT$core..ops..range..Range$LT$usize$GT$$u20$as$u20$core..slice..index..SliceIndex$LT$$u5b$T$u5d$$GT$$GT$5index17h9fae39915a217b8cE:
.Lfunc_begin4:
	.cv_func_id 10
	.cv_loc	10 2 404 0
.seh_proc _ZN106_$LT$core..ops..range..Range$LT$usize$GT$$u20$as$u20$core..slice..index..SliceIndex$LT$$u5b$T$u5d$$GT$$GT$5index17h9fae39915a217b8cE
	subq	$120, %rsp
	.seh_stackalloc 120
	.seh_endprologue
	movq	%r9, 48(%rsp)
	movq	%r8, 56(%rsp)
	movq	%rdx, 64(%rsp)
	movq	%rcx, 72(%rsp)
	movq	160(%rsp), %rax
	movq	%rax, 80(%rsp)
	movq	%rcx, 88(%rsp)
	movq	%rdx, 96(%rsp)
	movq	%r8, 104(%rsp)
	movq	%r9, 112(%rsp)
.Ltmp29:
	.cv_loc	10 2 405 0
	cmpq	%rdx, %rcx
	ja	.LBB4_2
	.cv_loc	10 2 407 0
	movq	64(%rsp), %rax
	movq	48(%rsp), %rcx
	cmpq	%rcx, %rax
	ja	.LBB4_4
	jmp	.LBB4_3
.LBB4_2:
	.cv_loc	10 2 406 0
	movq	80(%rsp), %r8
	movq	64(%rsp), %rdx
	movq	72(%rsp), %rcx
	callq	_ZN4core5slice5index22slice_index_order_fail17h1bdd45501bd4f9c0E
	ud2
.LBB4_3:
	.cv_loc	10 2 411 0
	movq	48(%rsp), %r9
	movq	56(%rsp), %r8
	movq	64(%rsp), %rdx
	movq	72(%rsp), %rcx
	callq	_ZN106_$LT$core..ops..range..Range$LT$usize$GT$$u20$as$u20$core..slice..index..SliceIndex$LT$$u5b$T$u5d$$GT$$GT$13get_unchecked17hbec561c1480d7312E
	movq	%rax, 32(%rsp)
	movq	%rdx, 40(%rsp)
	jmp	.LBB4_5
.LBB4_4:
	.cv_loc	10 2 408 0
	movq	80(%rsp), %r8
	movq	48(%rsp), %rdx
	movq	64(%rsp), %rcx
	callq	_ZN4core5slice5index24slice_end_index_len_fail17h6a7877c28e47c0ffE
	ud2
.LBB4_5:
	.cv_loc	10 2 412 0
	movq	40(%rsp), %rdx
	movq	32(%rsp), %rax
	addq	$120, %rsp
	retq
.Ltmp30:
.Lfunc_end4:
	.seh_endproc

	.def	_ZN106_$LT$core..ops..range..Range$LT$usize$GT$$u20$as$u20$core..slice..index..SliceIndex$LT$$u5b$T$u5d$$GT$$GT$9index_mut17h31fbe6b207ccd8b7E;
	.scl	3;
	.type	32;
	.endef
	.section	.text,"xr",one_only,_ZN106_$LT$core..ops..range..Range$LT$usize$GT$$u20$as$u20$core..slice..index..SliceIndex$LT$$u5b$T$u5d$$GT$$GT$9index_mut17h31fbe6b207ccd8b7E
	.p2align	4, 0x90
_ZN106_$LT$core..ops..range..Range$LT$usize$GT$$u20$as$u20$core..slice..index..SliceIndex$LT$$u5b$T$u5d$$GT$$GT$9index_mut17h31fbe6b207ccd8b7E:
.Lfunc_begin5:
	.cv_func_id 11
	.cv_loc	11 2 415 0
.seh_proc _ZN106_$LT$core..ops..range..Range$LT$usize$GT$$u20$as$u20$core..slice..index..SliceIndex$LT$$u5b$T$u5d$$GT$$GT$9index_mut17h31fbe6b207ccd8b7E
	subq	$120, %rsp
	.seh_stackalloc 120
	.seh_endprologue
	movq	%r9, 48(%rsp)
	movq	%r8, 56(%rsp)
	movq	%rdx, 64(%rsp)
	movq	%rcx, 72(%rsp)
	movq	160(%rsp), %rax
	movq	%rax, 80(%rsp)
	movq	%rcx, 88(%rsp)
	movq	%rdx, 96(%rsp)
	movq	%r8, 104(%rsp)
	movq	%r9, 112(%rsp)
.Ltmp31:
	.cv_loc	11 2 416 0
	cmpq	%rdx, %rcx
	ja	.LBB5_2
	.cv_loc	11 2 418 0
	movq	64(%rsp), %rax
	movq	48(%rsp), %rcx
	cmpq	%rcx, %rax
	ja	.LBB5_4
	jmp	.LBB5_3
.LBB5_2:
	.cv_loc	11 2 417 0
	movq	80(%rsp), %r8
	movq	64(%rsp), %rdx
	movq	72(%rsp), %rcx
	callq	_ZN4core5slice5index22slice_index_order_fail17h1bdd45501bd4f9c0E
	ud2
.LBB5_3:
	.cv_loc	11 2 422 0
	movq	48(%rsp), %r9
	movq	56(%rsp), %r8
	movq	64(%rsp), %rdx
	movq	72(%rsp), %rcx
	callq	_ZN106_$LT$core..ops..range..Range$LT$usize$GT$$u20$as$u20$core..slice..index..SliceIndex$LT$$u5b$T$u5d$$GT$$GT$17get_unchecked_mut17h7976b5ba7f79a9c7E
	movq	%rax, 32(%rsp)
	movq	%rdx, 40(%rsp)
	jmp	.LBB5_5
.LBB5_4:
	.cv_loc	11 2 419 0
	movq	80(%rsp), %r8
	movq	48(%rsp), %rdx
	movq	64(%rsp), %rcx
	callq	_ZN4core5slice5index24slice_end_index_len_fail17h6a7877c28e47c0ffE
	ud2
.LBB5_5:
	.cv_loc	11 2 423 0
	movq	40(%rsp), %rdx
	movq	32(%rsp), %rax
	addq	$120, %rsp
	retq
.Ltmp32:
.Lfunc_end5:
	.seh_endproc

	.def	_ZN119_$LT$alloc..collections..btree..map..BTreeMap$LT$K$C$V$C$A$GT$$u20$as$u20$core..iter..traits..collect..IntoIterator$GT$9into_iter17h64eec78bc7aa5151E;
	.scl	3;
	.type	32;
	.endef
	.section	.text,"xr",one_only,_ZN119_$LT$alloc..collections..btree..map..BTreeMap$LT$K$C$V$C$A$GT$$u20$as$u20$core..iter..traits..collect..IntoIterator$GT$9into_iter17h64eec78bc7aa5151E
	.p2align	4, 0x90
_ZN119_$LT$alloc..collections..btree..map..BTreeMap$LT$K$C$V$C$A$GT$$u20$as$u20$core..iter..traits..collect..IntoIterator$GT$9into_iter17h64eec78bc7aa5151E:
.Lfunc_begin6:
	.cv_func_id 12
	.cv_file	7 "/rustc/90743e7298aca107ddaa0c202a4d3604e29bfeb6\\library\\alloc\\src\\collections\\btree\\map.rs" "2F915B898E02702BD3E3DB515179AAC32CCAA898" 2
	.cv_loc	12 7 1615 0
.seh_proc _ZN119_$LT$alloc..collections..btree..map..BTreeMap$LT$K$C$V$C$A$GT$$u20$as$u20$core..iter..traits..collect..IntoIterator$GT$9into_iter17h64eec78bc7aa5151E
	subq	$552, %rsp
	.seh_stackalloc 552
	.seh_endprologue
	movq	%rcx, 64(%rsp)
	movq	%rcx, 72(%rsp)
.Ltmp33:
	.cv_loc	12 7 1616 0
	movq	16(%rdx), %rax
	movq	%rax, 128(%rsp)
	vmovdqu	(%rdx), %xmm0
	vmovdqa	%xmm0, 112(%rsp)
.Ltmp34:
	.cv_file	8 "/rustc/90743e7298aca107ddaa0c202a4d3604e29bfeb6\\library\\core\\src\\mem\\manually_drop.rs" "05D1F1C923886F7AA54321ED539171C9D20B2BE6" 2
	.cv_inline_site_id 13 within 12 inlined_at 7 1616 0
	.cv_loc	13 8 71 0
	movq	128(%rsp), %rax
	movq	%rax, 368(%rsp)
	vmovdqa	112(%rsp), %xmm0
	vmovdqa	%xmm0, 352(%rsp)
	movq	368(%rsp), %rax
	movq	%rax, 96(%rsp)
	vmovdqa	352(%rsp), %xmm0
	vmovdqa	%xmm0, 80(%rsp)
	leaq	80(%rsp), %rcx
.Ltmp35:
	.cv_loc	12 7 1617 0
	movq	%rcx, 448(%rsp)
	movq	%rcx, 456(%rsp)
.Ltmp36:
	.cv_file	9 "/rustc/90743e7298aca107ddaa0c202a4d3604e29bfeb6\\library\\core\\src\\option.rs" "90C726EEAFDA9622B6943DEFD1DB69455BE3ACDC" 2
	.cv_inline_site_id 14 within 12 inlined_at 7 1617 0
	.cv_loc	14 9 1578 0
	movq	$0, 392(%rsp)
	movq	384(%rsp), %rdx
.Ltmp37:
	movq	392(%rsp), %r8
	callq	_ZN4core3mem7replace17h296f9f7ea25f97a0E
	movq	%rdx, 152(%rsp)
	movq	%rax, 144(%rsp)
.Ltmp38:
	.cv_loc	12 7 1617 0
	movl	$1, %eax
	xorl	%ecx, %ecx
	cmpq	$0, 152(%rsp)
	cmoveq	%rcx, %rax
	cmpq	$1, %rax
	jne	.LBB6_3
.Ltmp39:
	movq	144(%rsp), %rcx
	movq	152(%rsp), %rdx
	movq	%rcx, 496(%rsp)
	movq	%rdx, 504(%rsp)
	.cv_loc	12 7 1618 0
	callq	_ZN5alloc11collections5btree4node76NodeRef$LT$alloc..collections..btree..node..marker..Owned$C$K$C$V$C$Type$GT$10into_dying17h013bd4198028f94dE
	movq	%rax, 48(%rsp)
	movq	%rdx, 56(%rsp)
	jmp	.LBB6_7
.Ltmp40:
.LBB6_3:
	.cv_loc	12 7 1627 0
	leaq	288(%rsp), %rcx
	callq	_ZN5alloc11collections5btree8navigate39LazyLeafRange$LT$BorrowType$C$K$C$V$GT$4none17he0ccf2dfc0d4bfc2E
.Ltmp41:
	.cv_loc	12 7 1629 0
	leaq	80(%rsp), %rax
	movq	%rax, 464(%rsp)
	leaq	80(%rsp), %rax
	movq	%rax, 472(%rsp)
.Ltmp42:
	.cv_inline_site_id 15 within 12 inlined_at 7 1629 0
	.cv_loc	15 8 113 0
	leaq	80(%rsp), %rax
	movq	%rax, 480(%rsp)
.Ltmp43:
	.cv_inline_site_id 16 within 15 inlined_at 8 113 0
	.cv_loc	16 4 1139 0
	leaq	408(%rsp), %rax
	movq	%rax, 488(%rsp)
.Ltmp44:
	.cv_loc	12 7 1626 0
	movq	64(%rsp), %rcx
	leaq	288(%rsp), %rdx
	movl	$64, %r8d
	callq	memcpy
	movq	64(%rsp), %rax
	movq	$0, 64(%rax)
.Ltmp45:
.LBB6_6:
	.cv_loc	12 7 1632 0
	movq	72(%rsp), %rax
	addq	$552, %rsp
	retq
.Ltmp46:
.LBB6_7:
	.cv_loc	12 7 1618 0
	movq	56(%rsp), %r8
	movq	48(%rsp), %rdx
.Ltmp47:
	leaq	160(%rsp), %rcx
	callq	_ZN5alloc11collections5btree8navigate178_$LT$impl$u20$alloc..collections..btree..node..NodeRef$LT$alloc..collections..btree..node..marker..Dying$C$K$C$V$C$alloc..collections..btree..node..marker..LeafOrInternal$GT$$GT$10full_range17hd7f91b52f18ec28cE
.Ltmp48:
	.cv_loc	12 7 1621 0
	leaq	224(%rsp), %rcx
	leaq	160(%rsp), %rdx
	movl	$64, %r8d
	callq	memcpy
	.cv_loc	12 7 1622 0
	leaq	80(%rsp), %rax
	movq	%rax, 512(%rsp)
	movq	96(%rsp), %rax
	movq	%rax, 40(%rsp)
	.cv_loc	12 7 1623 0
	leaq	80(%rsp), %rax
	movq	%rax, 520(%rsp)
	leaq	80(%rsp), %rax
	movq	%rax, 528(%rsp)
.Ltmp49:
	.cv_inline_site_id 17 within 12 inlined_at 7 1623 0
	.cv_loc	17 8 113 0
	leaq	80(%rsp), %rax
	movq	%rax, 536(%rsp)
.Ltmp50:
	.cv_inline_site_id 18 within 17 inlined_at 8 113 0
	.cv_loc	18 4 1139 0
	leaq	400(%rsp), %rax
	movq	%rax, 544(%rsp)
.Ltmp51:
	.cv_loc	12 7 1620 0
	movq	64(%rsp), %rcx
	leaq	224(%rsp), %rdx
	movl	$64, %r8d
	callq	memcpy
	movq	40(%rsp), %rcx
	movq	64(%rsp), %rax
	movq	%rcx, 64(%rax)
.Ltmp52:
	.cv_loc	12 7 1617 0
	jmp	.LBB6_6
.Ltmp53:
.Lfunc_end6:
	.seh_endproc

	.def	_ZN119_$LT$core..ptr..non_null..NonNull$LT$T$GT$$u20$as$u20$core..convert..From$LT$core..ptr..unique..Unique$LT$T$GT$$GT$$GT$4from17ha015f70ce6d7406fE;
	.scl	3;
	.type	32;
	.endef
	.section	.text,"xr",one_only,_ZN119_$LT$core..ptr..non_null..NonNull$LT$T$GT$$u20$as$u20$core..convert..From$LT$core..ptr..unique..Unique$LT$T$GT$$GT$$GT$4from17ha015f70ce6d7406fE
	.p2align	4, 0x90
_ZN119_$LT$core..ptr..non_null..NonNull$LT$T$GT$$u20$as$u20$core..convert..From$LT$core..ptr..unique..Unique$LT$T$GT$$GT$$GT$4from17ha015f70ce6d7406fE:
.Lfunc_begin7:
	.cv_func_id 19
	.cv_file	10 "/rustc/90743e7298aca107ddaa0c202a4d3604e29bfeb6\\library\\core\\src\\ptr\\non_null.rs" "BF153F11BACC87751A6F352BD7848272E6E2C60C" 2
	.cv_loc	19 10 774 0
.seh_proc _ZN119_$LT$core..ptr..non_null..NonNull$LT$T$GT$$u20$as$u20$core..convert..From$LT$core..ptr..unique..Unique$LT$T$GT$$GT$$GT$4from17ha015f70ce6d7406fE
	subq	$40, %rsp
	.seh_stackalloc 40
	.seh_endprologue
	movq	%rcx, 8(%rsp)
.Ltmp54:
	.cv_loc	19 10 777 0
	movq	%rcx, 16(%rsp)
.Ltmp55:
	.cv_file	11 "/rustc/90743e7298aca107ddaa0c202a4d3604e29bfeb6\\library\\core\\src\\ptr\\unique.rs" "8D0673C34E0EA9D13741B0AA99F67B83007037AE" 2
	.cv_inline_site_id 20 within 19 inlined_at 10 777 0
	.cv_loc	20 11 104 0
	movq	%rcx, 24(%rsp)
.Ltmp56:
	.cv_inline_site_id 21 within 20 inlined_at 11 104 0
	.cv_loc	21 10 335 0
	movq	%rcx, 32(%rsp)
.Ltmp57:
	.cv_loc	20 10 201 0
	movq	%rcx, (%rsp)
.Ltmp58:
	.cv_loc	19 10 778 0
	movq	(%rsp), %rax
	addq	$40, %rsp
	retq
.Ltmp59:
.Lfunc_end7:
	.seh_endproc

	.def	_ZN174_$LT$$LT$alloc..collections..btree..map..IntoIter$LT$K$C$V$C$A$GT$$u20$as$u20$core..ops..drop..Drop$GT$..drop..DropGuard$LT$K$C$V$C$A$GT$$u20$as$u20$core..ops..drop..Drop$GT$4drop17h48cd8119c9a5ea59E;
	.scl	3;
	.type	32;
	.endef
	.section	.text,"xr",one_only,_ZN174_$LT$$LT$alloc..collections..btree..map..IntoIter$LT$K$C$V$C$A$GT$$u20$as$u20$core..ops..drop..Drop$GT$..drop..DropGuard$LT$K$C$V$C$A$GT$$u20$as$u20$core..ops..drop..Drop$GT$4drop17h48cd8119c9a5ea59E
	.p2align	4, 0x90
_ZN174_$LT$$LT$alloc..collections..btree..map..IntoIter$LT$K$C$V$C$A$GT$$u20$as$u20$core..ops..drop..Drop$GT$..drop..DropGuard$LT$K$C$V$C$A$GT$$u20$as$u20$core..ops..drop..Drop$GT$4drop17h48cd8119c9a5ea59E:
.Lfunc_begin8:
	.cv_func_id 22
	.cv_loc	22 7 1641 0
.seh_proc _ZN174_$LT$$LT$alloc..collections..btree..map..IntoIter$LT$K$C$V$C$A$GT$$u20$as$u20$core..ops..drop..Drop$GT$..drop..DropGuard$LT$K$C$V$C$A$GT$$u20$as$u20$core..ops..drop..Drop$GT$4drop17h48cd8119c9a5ea59E
	subq	$120, %rsp
	.seh_stackalloc 120
	.seh_endprologue
	movq	%rcx, 32(%rsp)
	movq	%rcx, 112(%rsp)
.LBB8_1:
	.cv_loc	22 7 1644 0
	movq	32(%rsp), %rax
.Ltmp60:
	movq	(%rax), %rdx
	leaq	40(%rsp), %rcx
	callq	_ZN5alloc11collections5btree3map25IntoIter$LT$K$C$V$C$A$GT$10dying_next17h2431657d1e921ba0E
	movl	$1, %eax
	xorl	%ecx, %ecx
	cmpq	$0, 48(%rsp)
	cmoveq	%rcx, %rax
	cmpq	$1, %rax
	jne	.LBB8_4
	movq	40(%rsp), %rax
	movq	%rax, 64(%rsp)
	movq	48(%rsp), %rax
	movq	%rax, 72(%rsp)
	movq	56(%rsp), %rax
	movq	%rax, 80(%rsp)
	.cv_loc	22 7 1646 0
	movq	64(%rsp), %rax
	movq	%rax, 88(%rsp)
	movq	72(%rsp), %rax
	movq	%rax, 96(%rsp)
	movq	80(%rsp), %rax
	movq	%rax, 104(%rsp)
	leaq	88(%rsp), %rcx
	callq	_ZN5alloc11collections5btree4node173Handle$LT$alloc..collections..btree..node..NodeRef$LT$alloc..collections..btree..node..marker..Dying$C$K$C$V$C$NodeType$GT$$C$alloc..collections..btree..node..marker..KV$GT$12drop_key_val17hc9dbf371f99f9659E
	jmp	.LBB8_5
.Ltmp61:
.LBB8_4:
	.cv_loc	22 7 1648 0
	addq	$120, %rsp
	retq
.LBB8_5:
	.cv_loc	22 7 1644 0
	jmp	.LBB8_1
.Ltmp62:
.Lfunc_end8:
	.seh_endproc

	.def	_ZN3std10sys_common9backtrace28__rust_begin_short_backtrace17h46991bc2931468b6E;
	.scl	3;
	.type	32;
	.endef
	.section	.text,"xr",one_only,_ZN3std10sys_common9backtrace28__rust_begin_short_backtrace17h46991bc2931468b6E
	.p2align	4, 0x90
_ZN3std10sys_common9backtrace28__rust_begin_short_backtrace17h46991bc2931468b6E:
.Lfunc_begin9:
	.cv_func_id 23
	.cv_file	12 "/rustc/90743e7298aca107ddaa0c202a4d3604e29bfeb6\\library\\std\\src\\sys_common\\backtrace.rs" "4983B2905AC75AE7D66581F2A81F6283B0C1A503" 2
	.cv_loc	23 12 117 0
.seh_proc _ZN3std10sys_common9backtrace28__rust_begin_short_backtrace17h46991bc2931468b6E
	subq	$40, %rsp
	.seh_stackalloc 40
	.seh_endprologue
	movq	%rcx, 32(%rsp)
.Ltmp63:
	.cv_loc	23 12 121 0
	callq	_ZN4core3ops8function6FnOnce9call_once17h275ff82777da2f3aE
	.cv_file	13 "/rustc/90743e7298aca107ddaa0c202a4d3604e29bfeb6\\library\\core\\src\\hint.rs" "5B6F36B9001543EC4095D08222BAFFE63406BCF6" 2
	.cv_inline_site_id 24 within 23 inlined_at 12 124 0
	.cv_loc	24 13 226 0
.Ltmp64:
	#APP
	#NO_APP
.Ltmp65:
	.cv_loc	23 12 127 0
	nop
	addq	$40, %rsp
	retq
.Ltmp66:
.Lfunc_end9:
	.seh_endproc

	.def	_ZN3std2io5error14repr_bitpacked11decode_repr17hd665d8b0e39f8e62E;
	.scl	3;
	.type	32;
	.endef
	.section	.text,"xr",one_only,_ZN3std2io5error14repr_bitpacked11decode_repr17hd665d8b0e39f8e62E
	.p2align	4, 0x90
_ZN3std2io5error14repr_bitpacked11decode_repr17hd665d8b0e39f8e62E:
.Lfunc_begin10:
	.cv_func_id 25
	.cv_file	14 "/rustc/90743e7298aca107ddaa0c202a4d3604e29bfeb6\\library\\std\\src\\io\\error\\repr_bitpacked.rs" "8D9543FBA4CFB41DB6011BCC1F6FC5E5A65B6B1C" 2
	.cv_loc	25 14 246 0
.seh_proc _ZN3std2io5error14repr_bitpacked11decode_repr17hd665d8b0e39f8e62E
	.seh_handler __CxxFrameHandler3, @unwind, @except
	pushq	%rbp
	.seh_pushreg %rbp
	subq	$304, %rsp
	.seh_stackalloc 304
	leaq	128(%rsp), %rbp
	.seh_setframe %rbp, 128
	.seh_endprologue
	movq	$-2, 168(%rbp)
	movq	%rdx, -72(%rbp)
	movq	%rcx, -64(%rbp)
	movq	%rcx, -56(%rbp)
	movq	%rdx, 24(%rbp)
.Ltmp75:
	.cv_loc	25 14 250 0
	movb	$1, 7(%rbp)
	movq	%rdx, 32(%rbp)
.Ltmp76:
	.cv_inline_site_id 26 within 25 inlined_at 14 250 0
	.cv_loc	26 10 335 0
	movq	%rdx, 40(%rbp)
.Ltmp77:
	.cv_loc	26 6 198 0
	movq	%rdx, -40(%rbp)
.Ltmp78:
	.cv_loc	25 14 251 0
	movq	-40(%rbp), %rax
	andl	$3, %eax
	movq	%rax, -48(%rbp)
	subq	$3, %rax
	ja	.LBB10_1
	movq	-48(%rbp), %rax
	leaq	.LJTI10_0(%rip), %rcx
	movslq	(%rcx,%rax,4), %rax
	addq	%rcx, %rax
	jmpq	*%rax
.LBB10_1:
	.cv_loc	25 14 280 0
.Ltmp73:
	leaq	__unnamed_1(%rip), %rcx
	leaq	__unnamed_2(%rip), %r8
	movl	$40, %edx
	callq	_ZN4core9panicking5panic17h8f0a900b6fd3539bE
.Ltmp74:
	jmp	.LBB10_7
.LBB10_2:
	.cv_loc	25 14 253 0
	movq	-64(%rbp), %rax
	movq	-40(%rbp), %rcx
	sarq	$32, %rcx
	movl	%ecx, 164(%rbp)
.Ltmp79:
	.cv_loc	25 14 254 0
	movl	%ecx, 4(%rax)
	movb	$0, (%rax)
.Ltmp80:
	.cv_loc	25 14 255 0
	jmp	.LBB10_9
.LBB10_3:
	.cv_loc	25 14 257 0
	movl	-36(%rbp), %ecx
	movl	%ecx, 156(%rbp)
	.cv_loc	25 14 258 0
.Ltmp69:
.Ltmp81:
	callq	_ZN3std2io5error14repr_bitpacked14kind_from_prim17hcffd28472a7dd1c4E
.Ltmp70:
	movb	%al, -73(%rbp)
	jmp	.LBB10_10
.Ltmp82:
.LBB10_4:
	.cv_loc	25 14 270 0
	movq	-64(%rbp), %rax
	movq	-72(%rbp), %rcx
	movq	%rcx, 128(%rbp)
.Ltmp83:
	.cv_inline_site_id 27 within 25 inlined_at 14 270 0
	.cv_loc	27 10 459 0
	movq	%rcx, 136(%rbp)
	movq	%rcx, 144(%rbp)
.Ltmp84:
	.cv_inline_site_id 28 within 27 inlined_at 10 459 0
	.cv_loc	28 10 201 0
	movq	%rcx, -16(%rbp)
.Ltmp85:
	.cv_loc	27 10 335 0
	movq	-16(%rbp), %rcx
.Ltmp86:
	.cv_loc	25 14 270 0
	movq	%rcx, 8(%rax)
	movb	$2, (%rax)
	jmp	.LBB10_9
.LBB10_5:
	.cv_loc	25 14 275 0
	movq	-72(%rbp), %rax
	movq	%rax, 48(%rbp)
.Ltmp87:
	.cv_inline_site_id 29 within 25 inlined_at 14 275 0
	.cv_loc	29 10 335 0
	movq	%rax, 56(%rbp)
.Ltmp88:
	.cv_loc	29 6 1271 0
	movq	%rax, 64(%rbp)
.Ltmp89:
	.cv_inline_site_id 30 within 29 inlined_at 6 1271 0
	.cv_loc	30 6 49 0
	movq	%rax, 72(%rbp)
.Ltmp90:
	.cv_loc	30 6 1253 0
	movq	%rax, 80(%rbp)
.Ltmp91:
	.cv_inline_site_id 31 within 30 inlined_at 6 1253 0
	.cv_loc	31 6 561 0
	decq	%rax
	movq	%rax, 88(%rbp)
	movq	88(%rbp), %rax
	movq	%rax, 96(%rbp)
.Ltmp92:
	.cv_loc	30 6 49 0
	movq	%rax, 104(%rbp)
.Ltmp93:
	.cv_loc	30 5 134 0
	movq	%rax, 16(%rbp)
	movq	16(%rbp), %rax
	movq	%rax, 8(%rbp)
	movq	8(%rbp), %rax
	movq	%rax, 112(%rbp)
.Ltmp94:
	.cv_loc	29 6 49 0
	movq	%rax, 120(%rbp)
.Ltmp95:
	.cv_loc	25 14 276 0
	movb	$0, 7(%rbp)
	movq	%rax, -8(%rbp)
	movq	-8(%rbp), %rcx
.Ltmp67:
	callq	_ZN78_$LT$std..io..error..repr_bitpacked..Repr$u20$as$u20$core..ops..drop..Drop$GT$4drop28_$u7b$$u7b$closure$u7d$$u7d$17h96a83903a3bf9e90E
.Ltmp68:
	movq	%rax, -88(%rbp)
	jmp	.LBB10_8
.LBB10_7:
	ud2
.LBB10_8:
	movq	-64(%rbp), %rax
	movq	-88(%rbp), %rcx
	movq	%rcx, 8(%rax)
	movb	$3, (%rax)
.Ltmp96:
.LBB10_9:
	.cv_loc	25 14 283 0
	testb	$1, 7(%rbp)
	jne	.LBB10_19
	jmp	.LBB10_18
.LBB10_10:
	.cv_loc	25 14 258 0
	movb	-73(%rbp), %al
.Ltmp97:
	movb	%al, -25(%rbp)
	leaq	-40(%rbp), %rax
	movq	%rax, -24(%rbp)
.Ltmp98:
	.cv_inline_site_id 32 within 25 inlined_at 14 258 0
	.cv_loc	32 9 826 0
	movb	-25(%rbp), %al
	addb	$-41, %al
	setne	%al
	movzbl	%al, %eax
	je	.LBB10_12
	jmp	.LBB10_21
.LBB10_21:
	jmp	.LBB10_13
	ud2
.LBB10_12:
	.cv_loc	32 9 828 0
	movq	-24(%rbp), %rcx
.Ltmp71:
	callq	_ZN3std2io5error14repr_bitpacked11decode_repr28_$u7b$$u7b$closure$u7d$$u7d$17hf76977cf80505e27E
.Ltmp72:
	movb	%al, -89(%rbp)
	jmp	.LBB10_15
.LBB10_13:
	.cv_loc	32 9 827 0
	movb	-25(%rbp), %al
	movb	%al, 163(%rbp)
.Ltmp99:
	.cv_loc	32 9 827 0
	movb	%al, -26(%rbp)
.Ltmp100:
.LBB10_14:
	.cv_loc	25 14 268 0
	movq	-64(%rbp), %rax
.Ltmp101:
	movb	-26(%rbp), %cl
	movb	%cl, 1(%rax)
	movb	$1, (%rax)
.Ltmp102:
	.cv_loc	25 14 269 0
	jmp	.LBB10_9
.LBB10_15:
	.cv_loc	32 9 828 0
	movb	-89(%rbp), %al
.Ltmp103:
	movb	%al, -26(%rbp)
	jmp	.LBB10_14
.Ltmp104:
.LBB10_18:
	.cv_loc	25 14 283 0
	movq	-56(%rbp), %rax
	addq	$304, %rsp
	popq	%rbp
	retq
.LBB10_19:
	jmp	.LBB10_18
	.seh_handlerdata
	.long	($cppxdata$_ZN3std2io5error14repr_bitpacked11decode_repr17hd665d8b0e39f8e62E)@IMGREL
	.section	.text,"xr",one_only,_ZN3std2io5error14repr_bitpacked11decode_repr17hd665d8b0e39f8e62E
	.seh_endproc
	.def	"?dtor$6@?0?_ZN3std2io5error14repr_bitpacked11decode_repr17hd665d8b0e39f8e62E@4HA";
	.scl	3;
	.type	32;
	.endef
	.p2align	4, 0x90
"?dtor$6@?0?_ZN3std2io5error14repr_bitpacked11decode_repr17hd665d8b0e39f8e62E@4HA":
.seh_proc "?dtor$6@?0?_ZN3std2io5error14repr_bitpacked11decode_repr17hd665d8b0e39f8e62E@4HA"
.LBB10_6:
	movq	%rdx, 16(%rsp)
	pushq	%rbp
	.seh_pushreg %rbp
	subq	$32, %rsp
	.seh_stackalloc 32
	leaq	128(%rdx), %rbp
	.seh_endprologue
	testb	$1, 7(%rbp)
	jne	.LBB10_17
	jmp	.LBB10_16
.LBB10_16:
	.cv_loc	25 14 246 0
	addq	$32, %rsp
	popq	%rbp
	retq
.LBB10_17:
	.cv_loc	25 14 283 0
	jmp	.LBB10_16
.Ltmp105:
.Lfunc_end10:
	.p2align	2, 0x90
.LJTI10_0:
	.long	.LBB10_4-.LJTI10_0
	.long	.LBB10_5-.LJTI10_0
	.long	.LBB10_2-.LJTI10_0
	.long	.LBB10_3-.LJTI10_0
	.seh_handlerdata
	.section	.text,"xr",one_only,_ZN3std2io5error14repr_bitpacked11decode_repr17hd665d8b0e39f8e62E
	.seh_endproc
	.section	.xdata,"dr",associative,_ZN3std2io5error14repr_bitpacked11decode_repr17hd665d8b0e39f8e62E
	.p2align	2
$cppxdata$_ZN3std2io5error14repr_bitpacked11decode_repr17hd665d8b0e39f8e62E:
	.long	429065506
	.long	1
	.long	($stateUnwindMap$_ZN3std2io5error14repr_bitpacked11decode_repr17hd665d8b0e39f8e62E)@IMGREL
	.long	0
	.long	0
	.long	3
	.long	($ip2state$_ZN3std2io5error14repr_bitpacked11decode_repr17hd665d8b0e39f8e62E)@IMGREL
	.long	296
	.long	0
	.long	1
$stateUnwindMap$_ZN3std2io5error14repr_bitpacked11decode_repr17hd665d8b0e39f8e62E:
	.long	-1
	.long	"?dtor$6@?0?_ZN3std2io5error14repr_bitpacked11decode_repr17hd665d8b0e39f8e62E@4HA"@IMGREL
$ip2state$_ZN3std2io5error14repr_bitpacked11decode_repr17hd665d8b0e39f8e62E:
	.long	.Lfunc_begin10@IMGREL
	.long	-1
	.long	.Ltmp73@IMGREL+1
	.long	0
	.long	.Ltmp72@IMGREL+1
	.long	-1
	.section	.text,"xr",one_only,_ZN3std2io5error14repr_bitpacked11decode_repr17hd665d8b0e39f8e62E

	.def	_ZN3std2io5error14repr_bitpacked11decode_repr28_$u7b$$u7b$closure$u7d$$u7d$17hf76977cf80505e27E;
	.scl	3;
	.type	32;
	.endef
	.section	.text,"xr",one_only,_ZN3std2io5error14repr_bitpacked11decode_repr28_$u7b$$u7b$closure$u7d$$u7d$17hf76977cf80505e27E
	.p2align	4, 0x90
_ZN3std2io5error14repr_bitpacked11decode_repr28_$u7b$$u7b$closure$u7d$$u7d$17hf76977cf80505e27E:
.Lfunc_begin11:
	.cv_func_id 33
	.cv_loc	33 14 258 0
.seh_proc _ZN3std2io5error14repr_bitpacked11decode_repr28_$u7b$$u7b$closure$u7d$$u7d$17hf76977cf80505e27E
	subq	$56, %rsp
	.seh_stackalloc 56
	.seh_endprologue
	movq	%rcx, 40(%rsp)
.Ltmp106:
	.cv_loc	33 14 266 0
	callq	_ZN4core4hint21unreachable_unchecked17hcb3998262b4a67adE
	ud2
.Ltmp107:
.Lfunc_end11:
	.seh_endproc

	.def	_ZN3std2io5error14repr_bitpacked14kind_from_prim17hcffd28472a7dd1c4E;
	.scl	3;
	.type	32;
	.endef
	.section	.text,"xr",one_only,_ZN3std2io5error14repr_bitpacked14kind_from_prim17hcffd28472a7dd1c4E
	.p2align	4, 0x90
_ZN3std2io5error14repr_bitpacked14kind_from_prim17hcffd28472a7dd1c4E:
.Lfunc_begin12:
	.cv_func_id 34
	.cv_loc	34 14 289 0
.seh_proc _ZN3std2io5error14repr_bitpacked14kind_from_prim17hcffd28472a7dd1c4E
	subq	$336, %rsp
	.seh_stackalloc 336
	.seh_endprologue
	movl	%ecx, (%rsp)
.Ltmp108:
	.cv_loc	34 14 302 0
	movq	%rsp, %rax
	movq	%rax, 8(%rsp)
	cmpl	$0, (%rsp)
	je	.LBB12_2
	movq	%rsp, %rax
	movq	%rax, 16(%rsp)
	cmpl	$1, (%rsp)
	je	.LBB12_5
	jmp	.LBB12_4
.LBB12_2:
.Ltmp109:
	.cv_loc	34 14 302 0
	movb	$0, 7(%rsp)
.Ltmp110:
.LBB12_3:
	.cv_loc	34 14 345 0
	movb	7(%rsp), %al
	addq	$336, %rsp
	retq
.LBB12_4:
	.cv_loc	34 14 302 0
	movq	%rsp, %rax
	movq	%rax, 24(%rsp)
	cmpl	$2, (%rsp)
	je	.LBB12_7
	jmp	.LBB12_6
.LBB12_5:
.Ltmp111:
	.cv_loc	34 14 302 0
	movb	$1, 7(%rsp)
.Ltmp112:
	.cv_loc	34 14 302 0
	jmp	.LBB12_3
.LBB12_6:
	movq	%rsp, %rax
	movq	%rax, 32(%rsp)
	cmpl	$3, (%rsp)
	je	.LBB12_9
	jmp	.LBB12_8
.LBB12_7:
.Ltmp113:
	.cv_loc	34 14 302 0
	movb	$2, 7(%rsp)
.Ltmp114:
	.cv_loc	34 14 302 0
	jmp	.LBB12_3
.LBB12_8:
	movq	%rsp, %rax
	movq	%rax, 40(%rsp)
	cmpl	$4, (%rsp)
	je	.LBB12_11
	jmp	.LBB12_10
.LBB12_9:
.Ltmp115:
	.cv_loc	34 14 302 0
	movb	$3, 7(%rsp)
.Ltmp116:
	.cv_loc	34 14 302 0
	jmp	.LBB12_3
.LBB12_10:
	movq	%rsp, %rax
	movq	%rax, 48(%rsp)
	cmpl	$5, (%rsp)
	je	.LBB12_13
	jmp	.LBB12_12
.LBB12_11:
.Ltmp117:
	.cv_loc	34 14 302 0
	movb	$4, 7(%rsp)
.Ltmp118:
	.cv_loc	34 14 302 0
	jmp	.LBB12_3
.LBB12_12:
	movq	%rsp, %rax
	movq	%rax, 56(%rsp)
	cmpl	$6, (%rsp)
	je	.LBB12_15
	jmp	.LBB12_14
.LBB12_13:
.Ltmp119:
	.cv_loc	34 14 302 0
	movb	$5, 7(%rsp)
.Ltmp120:
	.cv_loc	34 14 302 0
	jmp	.LBB12_3
.LBB12_14:
	movq	%rsp, %rax
	movq	%rax, 64(%rsp)
	cmpl	$7, (%rsp)
	je	.LBB12_17
	jmp	.LBB12_16
.LBB12_15:
.Ltmp121:
	.cv_loc	34 14 302 0
	movb	$6, 7(%rsp)
.Ltmp122:
	.cv_loc	34 14 302 0
	jmp	.LBB12_3
.LBB12_16:
	movq	%rsp, %rax
	movq	%rax, 72(%rsp)
	cmpl	$8, (%rsp)
	je	.LBB12_19
	jmp	.LBB12_18
.LBB12_17:
.Ltmp123:
	.cv_loc	34 14 302 0
	movb	$7, 7(%rsp)
.Ltmp124:
	.cv_loc	34 14 302 0
	jmp	.LBB12_3
.LBB12_18:
	movq	%rsp, %rax
	movq	%rax, 80(%rsp)
	cmpl	$9, (%rsp)
	je	.LBB12_21
	jmp	.LBB12_20
.LBB12_19:
.Ltmp125:
	.cv_loc	34 14 302 0
	movb	$8, 7(%rsp)
.Ltmp126:
	.cv_loc	34 14 302 0
	jmp	.LBB12_3
.LBB12_20:
	movq	%rsp, %rax
	movq	%rax, 88(%rsp)
	cmpl	$10, (%rsp)
	je	.LBB12_23
	jmp	.LBB12_22
.LBB12_21:
.Ltmp127:
	.cv_loc	34 14 302 0
	movb	$9, 7(%rsp)
.Ltmp128:
	.cv_loc	34 14 302 0
	jmp	.LBB12_3
.LBB12_22:
	movq	%rsp, %rax
	movq	%rax, 96(%rsp)
	cmpl	$11, (%rsp)
	je	.LBB12_25
	jmp	.LBB12_24
.LBB12_23:
.Ltmp129:
	.cv_loc	34 14 302 0
	movb	$10, 7(%rsp)
.Ltmp130:
	.cv_loc	34 14 302 0
	jmp	.LBB12_3
.LBB12_24:
	movq	%rsp, %rax
	movq	%rax, 104(%rsp)
	cmpl	$12, (%rsp)
	je	.LBB12_27
	jmp	.LBB12_26
.LBB12_25:
.Ltmp131:
	.cv_loc	34 14 302 0
	movb	$11, 7(%rsp)
.Ltmp132:
	.cv_loc	34 14 302 0
	jmp	.LBB12_3
.LBB12_26:
	movq	%rsp, %rax
	movq	%rax, 112(%rsp)
	cmpl	$13, (%rsp)
	je	.LBB12_29
	jmp	.LBB12_28
.LBB12_27:
.Ltmp133:
	.cv_loc	34 14 302 0
	movb	$12, 7(%rsp)
.Ltmp134:
	.cv_loc	34 14 302 0
	jmp	.LBB12_3
.LBB12_28:
	movq	%rsp, %rax
	movq	%rax, 120(%rsp)
	cmpl	$14, (%rsp)
	je	.LBB12_31
	jmp	.LBB12_30
.LBB12_29:
.Ltmp135:
	.cv_loc	34 14 302 0
	movb	$13, 7(%rsp)
.Ltmp136:
	.cv_loc	34 14 302 0
	jmp	.LBB12_3
.LBB12_30:
	movq	%rsp, %rax
	movq	%rax, 128(%rsp)
	cmpl	$15, (%rsp)
	je	.LBB12_33
	jmp	.LBB12_32
.LBB12_31:
.Ltmp137:
	.cv_loc	34 14 302 0
	movb	$14, 7(%rsp)
.Ltmp138:
	.cv_loc	34 14 302 0
	jmp	.LBB12_3
.LBB12_32:
	movq	%rsp, %rax
	movq	%rax, 136(%rsp)
	cmpl	$16, (%rsp)
	je	.LBB12_35
	jmp	.LBB12_34
.LBB12_33:
.Ltmp139:
	.cv_loc	34 14 302 0
	movb	$15, 7(%rsp)
.Ltmp140:
	.cv_loc	34 14 302 0
	jmp	.LBB12_3
.LBB12_34:
	movq	%rsp, %rax
	movq	%rax, 144(%rsp)
	cmpl	$17, (%rsp)
	je	.LBB12_37
	jmp	.LBB12_36
.LBB12_35:
.Ltmp141:
	.cv_loc	34 14 302 0
	movb	$16, 7(%rsp)
.Ltmp142:
	.cv_loc	34 14 302 0
	jmp	.LBB12_3
.LBB12_36:
	movq	%rsp, %rax
	movq	%rax, 152(%rsp)
	cmpl	$18, (%rsp)
	je	.LBB12_39
	jmp	.LBB12_38
.LBB12_37:
.Ltmp143:
	.cv_loc	34 14 302 0
	movb	$17, 7(%rsp)
.Ltmp144:
	.cv_loc	34 14 302 0
	jmp	.LBB12_3
.LBB12_38:
	movq	%rsp, %rax
	movq	%rax, 160(%rsp)
	cmpl	$19, (%rsp)
	je	.LBB12_41
	jmp	.LBB12_40
.LBB12_39:
.Ltmp145:
	.cv_loc	34 14 302 0
	movb	$18, 7(%rsp)
.Ltmp146:
	.cv_loc	34 14 302 0
	jmp	.LBB12_3
.LBB12_40:
	movq	%rsp, %rax
	movq	%rax, 168(%rsp)
	cmpl	$20, (%rsp)
	je	.LBB12_43
	jmp	.LBB12_42
.LBB12_41:
.Ltmp147:
	.cv_loc	34 14 302 0
	movb	$19, 7(%rsp)
.Ltmp148:
	.cv_loc	34 14 302 0
	jmp	.LBB12_3
.LBB12_42:
	movq	%rsp, %rax
	movq	%rax, 176(%rsp)
	cmpl	$21, (%rsp)
	je	.LBB12_45
	jmp	.LBB12_44
.LBB12_43:
.Ltmp149:
	.cv_loc	34 14 302 0
	movb	$20, 7(%rsp)
.Ltmp150:
	.cv_loc	34 14 302 0
	jmp	.LBB12_3
.LBB12_44:
	movq	%rsp, %rax
	movq	%rax, 184(%rsp)
	cmpl	$22, (%rsp)
	je	.LBB12_47
	jmp	.LBB12_46
.LBB12_45:
.Ltmp151:
	.cv_loc	34 14 302 0
	movb	$21, 7(%rsp)
.Ltmp152:
	.cv_loc	34 14 302 0
	jmp	.LBB12_3
.LBB12_46:
	movq	%rsp, %rax
	movq	%rax, 192(%rsp)
	cmpl	$23, (%rsp)
	je	.LBB12_49
	jmp	.LBB12_48
.LBB12_47:
.Ltmp153:
	.cv_loc	34 14 302 0
	movb	$22, 7(%rsp)
.Ltmp154:
	.cv_loc	34 14 302 0
	jmp	.LBB12_3
.LBB12_48:
	movq	%rsp, %rax
	movq	%rax, 200(%rsp)
	cmpl	$24, (%rsp)
	je	.LBB12_51
	jmp	.LBB12_50
.LBB12_49:
.Ltmp155:
	.cv_loc	34 14 302 0
	movb	$23, 7(%rsp)
.Ltmp156:
	.cv_loc	34 14 302 0
	jmp	.LBB12_3
.LBB12_50:
	movq	%rsp, %rax
	movq	%rax, 208(%rsp)
	cmpl	$25, (%rsp)
	je	.LBB12_53
	jmp	.LBB12_52
.LBB12_51:
.Ltmp157:
	.cv_loc	34 14 302 0
	movb	$24, 7(%rsp)
.Ltmp158:
	.cv_loc	34 14 302 0
	jmp	.LBB12_3
.LBB12_52:
	movq	%rsp, %rax
	movq	%rax, 216(%rsp)
	cmpl	$26, (%rsp)
	je	.LBB12_55
	jmp	.LBB12_54
.LBB12_53:
.Ltmp159:
	.cv_loc	34 14 302 0
	movb	$25, 7(%rsp)
.Ltmp160:
	.cv_loc	34 14 302 0
	jmp	.LBB12_3
.LBB12_54:
	movq	%rsp, %rax
	movq	%rax, 224(%rsp)
	cmpl	$27, (%rsp)
	je	.LBB12_57
	jmp	.LBB12_56
.LBB12_55:
.Ltmp161:
	.cv_loc	34 14 302 0
	movb	$26, 7(%rsp)
.Ltmp162:
	.cv_loc	34 14 302 0
	jmp	.LBB12_3
.LBB12_56:
	movq	%rsp, %rax
	movq	%rax, 232(%rsp)
	cmpl	$28, (%rsp)
	je	.LBB12_59
	jmp	.LBB12_58
.LBB12_57:
.Ltmp163:
	.cv_loc	34 14 302 0
	movb	$27, 7(%rsp)
.Ltmp164:
	.cv_loc	34 14 302 0
	jmp	.LBB12_3
.LBB12_58:
	movq	%rsp, %rax
	movq	%rax, 240(%rsp)
	cmpl	$29, (%rsp)
	je	.LBB12_61
	jmp	.LBB12_60
.LBB12_59:
.Ltmp165:
	.cv_loc	34 14 302 0
	movb	$28, 7(%rsp)
.Ltmp166:
	.cv_loc	34 14 302 0
	jmp	.LBB12_3
.LBB12_60:
	movq	%rsp, %rax
	movq	%rax, 248(%rsp)
	cmpl	$30, (%rsp)
	je	.LBB12_63
	jmp	.LBB12_62
.LBB12_61:
.Ltmp167:
	.cv_loc	34 14 302 0
	movb	$29, 7(%rsp)
.Ltmp168:
	.cv_loc	34 14 302 0
	jmp	.LBB12_3
.LBB12_62:
	movq	%rsp, %rax
	movq	%rax, 256(%rsp)
	cmpl	$31, (%rsp)
	je	.LBB12_65
	jmp	.LBB12_64
.LBB12_63:
.Ltmp169:
	.cv_loc	34 14 302 0
	movb	$30, 7(%rsp)
.Ltmp170:
	.cv_loc	34 14 302 0
	jmp	.LBB12_3
.LBB12_64:
	movq	%rsp, %rax
	movq	%rax, 264(%rsp)
	cmpl	$32, (%rsp)
	je	.LBB12_67
	jmp	.LBB12_66
.LBB12_65:
.Ltmp171:
	.cv_loc	34 14 302 0
	movb	$31, 7(%rsp)
.Ltmp172:
	.cv_loc	34 14 302 0
	jmp	.LBB12_3
.LBB12_66:
	movq	%rsp, %rax
	movq	%rax, 272(%rsp)
	cmpl	$33, (%rsp)
	je	.LBB12_69
	jmp	.LBB12_68
.LBB12_67:
.Ltmp173:
	.cv_loc	34 14 302 0
	movb	$32, 7(%rsp)
.Ltmp174:
	.cv_loc	34 14 302 0
	jmp	.LBB12_3
.LBB12_68:
	movq	%rsp, %rax
	movq	%rax, 280(%rsp)
	cmpl	$34, (%rsp)
	je	.LBB12_71
	jmp	.LBB12_70
.LBB12_69:
.Ltmp175:
	.cv_loc	34 14 302 0
	movb	$33, 7(%rsp)
.Ltmp176:
	.cv_loc	34 14 302 0
	jmp	.LBB12_3
.LBB12_70:
	movq	%rsp, %rax
	movq	%rax, 288(%rsp)
	cmpl	$35, (%rsp)
	je	.LBB12_73
	jmp	.LBB12_72
.LBB12_71:
.Ltmp177:
	.cv_loc	34 14 302 0
	movb	$34, 7(%rsp)
.Ltmp178:
	.cv_loc	34 14 302 0
	jmp	.LBB12_3
.LBB12_72:
	movq	%rsp, %rax
	movq	%rax, 296(%rsp)
	cmpl	$39, (%rsp)
	je	.LBB12_75
	jmp	.LBB12_74
.LBB12_73:
.Ltmp179:
	.cv_loc	34 14 302 0
	movb	$35, 7(%rsp)
.Ltmp180:
	.cv_loc	34 14 302 0
	jmp	.LBB12_3
.LBB12_74:
	movq	%rsp, %rax
	movq	%rax, 304(%rsp)
	cmpl	$37, (%rsp)
	je	.LBB12_77
	jmp	.LBB12_76
.LBB12_75:
.Ltmp181:
	.cv_loc	34 14 302 0
	movb	$39, 7(%rsp)
.Ltmp182:
	.cv_loc	34 14 302 0
	jmp	.LBB12_3
.LBB12_76:
	movq	%rsp, %rax
	movq	%rax, 312(%rsp)
	cmpl	$36, (%rsp)
	je	.LBB12_79
	jmp	.LBB12_78
.LBB12_77:
.Ltmp183:
	.cv_loc	34 14 302 0
	movb	$37, 7(%rsp)
.Ltmp184:
	.cv_loc	34 14 302 0
	jmp	.LBB12_3
.LBB12_78:
	movq	%rsp, %rax
	movq	%rax, 320(%rsp)
	cmpl	$38, (%rsp)
	je	.LBB12_81
	jmp	.LBB12_80
.LBB12_79:
.Ltmp185:
	.cv_loc	34 14 302 0
	movb	$36, 7(%rsp)
.Ltmp186:
	.cv_loc	34 14 302 0
	jmp	.LBB12_3
.LBB12_80:
	movq	%rsp, %rax
	movq	%rax, 328(%rsp)
	cmpl	$40, (%rsp)
	je	.LBB12_83
	jmp	.LBB12_82
.LBB12_81:
.Ltmp187:
	.cv_loc	34 14 302 0
	movb	$38, 7(%rsp)
.Ltmp188:
	.cv_loc	34 14 302 0
	jmp	.LBB12_3
.LBB12_82:
	movb	$41, 7(%rsp)
	jmp	.LBB12_3
.LBB12_83:
.Ltmp189:
	.cv_loc	34 14 302 0
	movb	$40, 7(%rsp)
.Ltmp190:
	.cv_loc	34 14 302 0
	jmp	.LBB12_3
.Ltmp191:
.Lfunc_end12:
	.seh_endproc

	.def	_ZN3std2rt10lang_start17hc22a65cb6869ba66E;
	.scl	2;
	.type	32;
	.endef
	.section	.text,"xr",one_only,_ZN3std2rt10lang_start17hc22a65cb6869ba66E
	.globl	_ZN3std2rt10lang_start17hc22a65cb6869ba66E
	.p2align	4, 0x90
_ZN3std2rt10lang_start17hc22a65cb6869ba66E:
.Lfunc_begin13:
	.cv_func_id 35
	.cv_file	15 "/rustc/90743e7298aca107ddaa0c202a4d3604e29bfeb6\\library\\std\\src\\rt.rs" "4D7A8864427E8F0E341E876CF62C7654EE8DF6DE" 2
	.cv_loc	35 15 159 0
.seh_proc _ZN3std2rt10lang_start17hc22a65cb6869ba66E
	subq	$104, %rsp
	.seh_stackalloc 104
	.seh_endprologue
	movb	%r9b, %al
	movq	%r8, %r9
	movq	%rdx, %r8
	movq	%rcx, 64(%rsp)
	movq	%r8, 72(%rsp)
	movq	%r9, 80(%rsp)
	movb	%al, 95(%rsp)
.Ltmp192:
	.cv_loc	35 15 166 0
	movq	%rcx, 56(%rsp)
	.cv_loc	35 15 165 0
	leaq	56(%rsp), %rcx
	leaq	__unnamed_3(%rip), %rdx
	movb	%al, 32(%rsp)
	callq	_ZN3std2rt19lang_start_internal17h1366b4c86219c41bE
	movq	%rax, 48(%rsp)
	movq	48(%rsp), %rax
	movq	%rax, 96(%rsp)
	.cv_loc	35 15 172 0
	addq	$104, %rsp
	retq
.Ltmp193:
.Lfunc_end13:
	.seh_endproc

	.def	_ZN3std2rt10lang_start28_$u7b$$u7b$closure$u7d$$u7d$17h06e3800177f43954E;
	.scl	3;
	.type	32;
	.endef
	.section	.text,"xr",one_only,_ZN3std2rt10lang_start28_$u7b$$u7b$closure$u7d$$u7d$17h06e3800177f43954E
	.p2align	4, 0x90
_ZN3std2rt10lang_start28_$u7b$$u7b$closure$u7d$$u7d$17h06e3800177f43954E:
.Lfunc_begin14:
	.cv_func_id 36
	.cv_loc	36 15 166 0
.seh_proc _ZN3std2rt10lang_start28_$u7b$$u7b$closure$u7d$$u7d$17h06e3800177f43954E
	subq	$56, %rsp
	.seh_stackalloc 56
	.seh_endprologue
	movq	%rcx, 40(%rsp)
.Ltmp194:
	movq	(%rcx), %rcx
	callq	_ZN3std10sys_common9backtrace28__rust_begin_short_backtrace17h46991bc2931468b6E
	callq	_ZN54_$LT$$LP$$RP$$u20$as$u20$std..process..Termination$GT$6report17h78de743d030e1d42E
	movl	%eax, 36(%rsp)
.Ltmp195:
	.cv_file	16 "/rustc/90743e7298aca107ddaa0c202a4d3604e29bfeb6\\library\\std\\src\\process.rs" "D1076A39B8DE610382799C837A96E569E269A8CB" 2
	.cv_inline_site_id 37 within 36 inlined_at 15 166 0
	.cv_loc	37 16 1809 0
	leaq	36(%rsp), %rax
	movq	%rax, 48(%rsp)
.Ltmp196:
	.cv_file	17 "/rustc/90743e7298aca107ddaa0c202a4d3604e29bfeb6\\library\\std\\src\\sys\\windows\\process.rs" "197B624383BAF83B9EB1A1136F7F1A17B23D1BC7" 2
	.cv_inline_site_id 38 within 37 inlined_at 16 1809 0
	.cv_loc	38 17 700 0
	movl	36(%rsp), %eax
.Ltmp197:
	.cv_loc	36 15 166 0
	addq	$56, %rsp
	retq
.Ltmp198:
.Lfunc_end14:
	.seh_endproc

	.def	_ZN3std3env6var_os17h6f2a208337ce7a9fE;
	.scl	3;
	.type	32;
	.endef
	.section	.text,"xr",one_only,_ZN3std3env6var_os17h6f2a208337ce7a9fE
	.p2align	4, 0x90
_ZN3std3env6var_os17h6f2a208337ce7a9fE:
.Lfunc_begin15:
	.cv_func_id 39
	.cv_file	18 "/rustc/90743e7298aca107ddaa0c202a4d3604e29bfeb6\\library\\std\\src\\env.rs" "B8E898CAF9809557D38375B77655D5523470459D" 2
	.cv_loc	39 18 268 0
.seh_proc _ZN3std3env6var_os17h6f2a208337ce7a9fE
	.seh_handler __CxxFrameHandler3, @unwind, @except
	pushq	%rbp
	.seh_pushreg %rbp
	subq	$96, %rsp
	.seh_stackalloc 96
	leaq	96(%rsp), %rbp
	.seh_setframe %rbp, 96
	.seh_endprologue
	movq	$-2, -8(%rbp)
	movq	%rcx, -56(%rbp)
	movq	%rcx, -48(%rbp)
	movq	%rdx, -24(%rbp)
	movq	%r8, -16(%rbp)
	.cv_loc	39 18 269 0
.Ltmp199:
	leaq	-24(%rbp), %rcx
.Ltmp203:
	callq	_ZN55_$LT$$RF$T$u20$as$u20$core..convert..AsRef$LT$U$GT$$GT$6as_ref17hc5705be92f13090dE
.Ltmp200:
	movq	%rdx, -40(%rbp)
	movq	%rax, -32(%rbp)
	jmp	.LBB15_2
.LBB15_2:
.Ltmp201:
	movq	-40(%rbp), %r8
	movq	-32(%rbp), %rdx
	movq	-56(%rbp), %rcx
	callq	_ZN3std3env7_var_os17h03c8f7a4f605cd98E
.Ltmp202:
	jmp	.LBB15_3
.LBB15_3:
	.cv_loc	39 18 270 0
	movq	-48(%rbp), %rax
	addq	$96, %rsp
	popq	%rbp
	retq
	.seh_handlerdata
	.long	($cppxdata$_ZN3std3env6var_os17h6f2a208337ce7a9fE)@IMGREL
	.section	.text,"xr",one_only,_ZN3std3env6var_os17h6f2a208337ce7a9fE
	.seh_endproc
	.def	"?dtor$1@?0?_ZN3std3env6var_os17h6f2a208337ce7a9fE@4HA";
	.scl	3;
	.type	32;
	.endef
	.p2align	4, 0x90
"?dtor$1@?0?_ZN3std3env6var_os17h6f2a208337ce7a9fE@4HA":
.seh_proc "?dtor$1@?0?_ZN3std3env6var_os17h6f2a208337ce7a9fE@4HA"
.LBB15_1:
	movq	%rdx, 16(%rsp)
	pushq	%rbp
	.seh_pushreg %rbp
	subq	$32, %rsp
	.seh_stackalloc 32
	leaq	96(%rdx), %rbp
	.seh_endprologue
	.cv_loc	39 18 268 0
	addq	$32, %rsp
	popq	%rbp
	retq
.Ltmp204:
.Lfunc_end15:
	.seh_handlerdata
	.section	.text,"xr",one_only,_ZN3std3env6var_os17h6f2a208337ce7a9fE
	.seh_endproc
	.section	.xdata,"dr",associative,_ZN3std3env6var_os17h6f2a208337ce7a9fE
	.p2align	2
$cppxdata$_ZN3std3env6var_os17h6f2a208337ce7a9fE:
	.long	429065506
	.long	1
	.long	($stateUnwindMap$_ZN3std3env6var_os17h6f2a208337ce7a9fE)@IMGREL
	.long	0
	.long	0
	.long	3
	.long	($ip2state$_ZN3std3env6var_os17h6f2a208337ce7a9fE)@IMGREL
	.long	88
	.long	0
	.long	1
$stateUnwindMap$_ZN3std3env6var_os17h6f2a208337ce7a9fE:
	.long	-1
	.long	"?dtor$1@?0?_ZN3std3env6var_os17h6f2a208337ce7a9fE@4HA"@IMGREL
$ip2state$_ZN3std3env6var_os17h6f2a208337ce7a9fE:
	.long	.Lfunc_begin15@IMGREL
	.long	-1
	.long	.Ltmp199@IMGREL+1
	.long	0
	.long	.Ltmp202@IMGREL+1
	.long	-1
	.section	.text,"xr",one_only,_ZN3std3env6var_os17h6f2a208337ce7a9fE

	.def	_ZN3std3ffi6os_str5OsStr15to_string_lossy17h102ca50547e7bbe6E;
	.scl	3;
	.type	32;
	.endef
	.section	.text,"xr",one_only,_ZN3std3ffi6os_str5OsStr15to_string_lossy17h102ca50547e7bbe6E
	.p2align	4, 0x90
_ZN3std3ffi6os_str5OsStr15to_string_lossy17h102ca50547e7bbe6E:
.Lfunc_begin16:
	.cv_func_id 40
	.cv_file	19 "/rustc/90743e7298aca107ddaa0c202a4d3604e29bfeb6\\library\\std\\src\\ffi\\os_str.rs" "B3C5F64C8158C40ECD8C06B15B10AFD50D242172" 2
	.cv_loc	40 19 756 0
.seh_proc _ZN3std3ffi6os_str5OsStr15to_string_lossy17h102ca50547e7bbe6E
	subq	$56, %rsp
	.seh_stackalloc 56
	.seh_endprologue
	movq	%rcx, %rax
	movq	%rax, 32(%rsp)
	movq	%rdx, 40(%rsp)
	movq	%r8, 48(%rsp)
.Ltmp205:
	.cv_loc	40 19 757 0
	callq	_ZN3std3sys7windows6os_str5Slice15to_string_lossy17h522ec51b10e41e19E
	.cv_loc	40 19 758 0
	movq	32(%rsp), %rax
	addq	$56, %rsp
	retq
.Ltmp206:
.Lfunc_end16:
	.seh_endproc

	.def	_ZN3std3ffi6os_str85_$LT$impl$u20$core..convert..AsRef$LT$std..ffi..os_str..OsStr$GT$$u20$for$u20$str$GT$6as_ref17h87672e2d81bdf6a5E;
	.scl	3;
	.type	32;
	.endef
	.section	.text,"xr",one_only,_ZN3std3ffi6os_str85_$LT$impl$u20$core..convert..AsRef$LT$std..ffi..os_str..OsStr$GT$$u20$for$u20$str$GT$6as_ref17h87672e2d81bdf6a5E
	.p2align	4, 0x90
_ZN3std3ffi6os_str85_$LT$impl$u20$core..convert..AsRef$LT$std..ffi..os_str..OsStr$GT$$u20$for$u20$str$GT$6as_ref17h87672e2d81bdf6a5E:
.Lfunc_begin17:
	.cv_func_id 41
	.cv_loc	41 19 1321 0
.seh_proc _ZN3std3ffi6os_str85_$LT$impl$u20$core..convert..AsRef$LT$std..ffi..os_str..OsStr$GT$$u20$for$u20$str$GT$6as_ref17h87672e2d81bdf6a5E
	subq	$192, %rsp
	.seh_stackalloc 192
	.seh_endprologue
	movq	%rcx, 48(%rsp)
	movq	%rdx, 56(%rsp)
.Ltmp207:
	.cv_loc	41 19 1322 0
	movq	%rcx, 64(%rsp)
	movq	%rdx, 72(%rsp)
.Ltmp208:
	.cv_file	20 "/rustc/90743e7298aca107ddaa0c202a4d3604e29bfeb6\\library\\std\\src\\sys\\windows\\os_str.rs" "DE40FBE3AFB8229E8988D62127A5BCDCCDC6C3AD" 2
	.cv_inline_site_id 42 within 41 inlined_at 19 1322 0
	.cv_loc	42 20 155 0
	movq	%rcx, 80(%rsp)
	movq	%rdx, 88(%rsp)
.Ltmp209:
	.cv_file	21 "/rustc/90743e7298aca107ddaa0c202a4d3604e29bfeb6\\library\\std\\src\\sys_common\\wtf8.rs" "70018544AE2F5CAF37B950C0FDE9DA3A6F8845A5" 2
	.cv_inline_site_id 43 within 42 inlined_at 20 155 0
	.cv_loc	43 21 564 0
	movq	%rcx, 96(%rsp)
	movq	%rdx, 104(%rsp)
.Ltmp210:
	.cv_file	22 "/rustc/90743e7298aca107ddaa0c202a4d3604e29bfeb6\\library\\core\\src\\str\\mod.rs" "77E62A9E926C23A3AEB7F6D06B34BDDDE52E39AC" 2
	.cv_inline_site_id 44 within 43 inlined_at 21 564 0
	.cv_loc	44 22 327 0
	movq	%rcx, 112(%rsp)
	movq	%rdx, 120(%rsp)
	movq	112(%rsp), %rax
	movq	%rax, 32(%rsp)
	movq	120(%rsp), %rax
	movq	%rax, 40(%rsp)
.Ltmp211:
	.cv_loc	43 21 564 0
	movq	40(%rsp), %rax
	movq	32(%rsp), %rcx
	movq	%rcx, 128(%rsp)
	movq	%rax, 136(%rsp)
.Ltmp212:
	.cv_loc	44 21 573 0
	movq	%rcx, 144(%rsp)
	movq	%rax, 152(%rsp)
	movq	144(%rsp), %rax
	movq	%rax, 16(%rsp)
	movq	152(%rsp), %rax
	movq	%rax, 24(%rsp)
.Ltmp213:
	.cv_loc	42 20 155 0
	movq	24(%rsp), %rax
	movq	16(%rsp), %rcx
	movq	%rcx, 160(%rsp)
	movq	%rax, 168(%rsp)
	movq	160(%rsp), %rax
	movq	%rax, (%rsp)
	movq	168(%rsp), %rax
	movq	%rax, 8(%rsp)
.Ltmp214:
	.cv_loc	41 19 1322 0
	movq	8(%rsp), %rdx
	movq	(%rsp), %rax
	movq	%rax, 176(%rsp)
	movq	%rdx, 184(%rsp)
	.cv_loc	41 19 1323 0
	addq	$192, %rsp
	retq
.Ltmp215:
.Lfunc_end17:
	.seh_endproc

	.def	_ZN3std7process7Command3arg17h1e571116319c80b5E;
	.scl	3;
	.type	32;
	.endef
	.section	.text,"xr",one_only,_ZN3std7process7Command3arg17h1e571116319c80b5E
	.p2align	4, 0x90
_ZN3std7process7Command3arg17h1e571116319c80b5E:
.Lfunc_begin18:
	.cv_func_id 45
	.cv_loc	45 16 603 0
.seh_proc _ZN3std7process7Command3arg17h1e571116319c80b5E
	.seh_handler __CxxFrameHandler3, @unwind, @except
	pushq	%rbp
	.seh_pushreg %rbp
	subq	$96, %rsp
	.seh_stackalloc 96
	leaq	96(%rsp), %rbp
	.seh_setframe %rbp, 96
	.seh_endprologue
	movq	$-2, -8(%rbp)
	movq	%rcx, -56(%rbp)
	movq	%rdx, -32(%rbp)
	movq	%r8, -24(%rbp)
	movq	%rcx, -16(%rbp)
	.cv_loc	45 16 604 0
.Ltmp216:
	leaq	-32(%rbp), %rcx
.Ltmp220:
	callq	_ZN55_$LT$$RF$T$u20$as$u20$core..convert..AsRef$LT$U$GT$$GT$6as_ref17hc5705be92f13090dE
.Ltmp217:
	movq	%rdx, -48(%rbp)
	movq	%rax, -40(%rbp)
	jmp	.LBB18_2
.LBB18_2:
.Ltmp218:
	movq	-48(%rbp), %r8
	movq	-40(%rbp), %rdx
	movq	-56(%rbp), %rcx
	callq	_ZN3std3sys7windows7process7Command3arg17h7578dfd13edffb80E
.Ltmp219:
	jmp	.LBB18_3
.LBB18_3:
	.cv_loc	45 16 606 0
	movq	-56(%rbp), %rax
	addq	$96, %rsp
	popq	%rbp
	retq
	.seh_handlerdata
	.long	($cppxdata$_ZN3std7process7Command3arg17h1e571116319c80b5E)@IMGREL
	.section	.text,"xr",one_only,_ZN3std7process7Command3arg17h1e571116319c80b5E
	.seh_endproc
	.def	"?dtor$1@?0?_ZN3std7process7Command3arg17h1e571116319c80b5E@4HA";
	.scl	3;
	.type	32;
	.endef
	.p2align	4, 0x90
"?dtor$1@?0?_ZN3std7process7Command3arg17h1e571116319c80b5E@4HA":
.seh_proc "?dtor$1@?0?_ZN3std7process7Command3arg17h1e571116319c80b5E@4HA"
.LBB18_1:
	movq	%rdx, 16(%rsp)
	pushq	%rbp
	.seh_pushreg %rbp
	subq	$32, %rsp
	.seh_stackalloc 32
	leaq	96(%rdx), %rbp
	.seh_endprologue
	.cv_loc	45 16 603 0
	addq	$32, %rsp
	popq	%rbp
	retq
.Ltmp221:
.Lfunc_end18:
	.seh_handlerdata
	.section	.text,"xr",one_only,_ZN3std7process7Command3arg17h1e571116319c80b5E
	.seh_endproc
	.section	.xdata,"dr",associative,_ZN3std7process7Command3arg17h1e571116319c80b5E
	.p2align	2
$cppxdata$_ZN3std7process7Command3arg17h1e571116319c80b5E:
	.long	429065506
	.long	1
	.long	($stateUnwindMap$_ZN3std7process7Command3arg17h1e571116319c80b5E)@IMGREL
	.long	0
	.long	0
	.long	3
	.long	($ip2state$_ZN3std7process7Command3arg17h1e571116319c80b5E)@IMGREL
	.long	88
	.long	0
	.long	1
$stateUnwindMap$_ZN3std7process7Command3arg17h1e571116319c80b5E:
	.long	-1
	.long	"?dtor$1@?0?_ZN3std7process7Command3arg17h1e571116319c80b5E@4HA"@IMGREL
$ip2state$_ZN3std7process7Command3arg17h1e571116319c80b5E:
	.long	.Lfunc_begin18@IMGREL
	.long	-1
	.long	.Ltmp216@IMGREL+1
	.long	0
	.long	.Ltmp219@IMGREL+1
	.long	-1
	.section	.text,"xr",one_only,_ZN3std7process7Command3arg17h1e571116319c80b5E

	.def	_ZN3std7process7Command3new17hf2863bc2cd82555dE;
	.scl	3;
	.type	32;
	.endef
	.section	.text,"xr",one_only,_ZN3std7process7Command3new17hf2863bc2cd82555dE
	.p2align	4, 0x90
_ZN3std7process7Command3new17hf2863bc2cd82555dE:
.Lfunc_begin19:
	.cv_func_id 46
	.cv_loc	46 16 557 0
.seh_proc _ZN3std7process7Command3new17hf2863bc2cd82555dE
	.seh_handler __CxxFrameHandler3, @unwind, @except
	pushq	%rbp
	.seh_pushreg %rbp
	subq	$256, %rsp
	.seh_stackalloc 256
	leaq	128(%rsp), %rbp
	.seh_setframe %rbp, 128
	.seh_endprologue
	movq	$-2, 120(%rbp)
	movq	%rdx, -96(%rbp)
.Ltmp226:
	movq	%rcx, %rax
	movq	-96(%rbp), %rcx
	movq	%rax, -88(%rbp)
	movq	%rax, -80(%rbp)
	.cv_loc	46 16 558 0
.Ltmp222:
.Ltmp227:
	callq	_ZN98_$LT$std..ffi..os_str..OsString$u20$as$u20$core..convert..AsRef$LT$std..ffi..os_str..OsStr$GT$$GT$6as_ref17h5e048eb05ae8ff18E
.Ltmp223:
	movq	%rdx, -72(%rbp)
	movq	%rax, -64(%rbp)
	jmp	.LBB19_2
.Ltmp228:
.LBB19_2:
.Ltmp224:
	movq	-72(%rbp), %r8
	movq	-64(%rbp), %rdx
	leaq	-56(%rbp), %rcx
	callq	_ZN3std3sys7windows7process7Command3new17h94abe62a64dc31adE
.Ltmp225:
	jmp	.LBB19_3
.Ltmp229:
.LBB19_3:
	movq	-88(%rbp), %rcx
	leaq	-56(%rbp), %rdx
	movl	$176, %r8d
	callq	memcpy
	movq	-96(%rbp), %rcx
	.cv_loc	46 16 559 0
	callq	_ZN4core3ptr47drop_in_place$LT$std..ffi..os_str..OsString$GT$17h39d1be984fa0c5aaE
	movq	-80(%rbp), %rax
	addq	$256, %rsp
	popq	%rbp
	retq
.Ltmp230:
	.seh_handlerdata
	.long	($cppxdata$_ZN3std7process7Command3new17hf2863bc2cd82555dE)@IMGREL
	.section	.text,"xr",one_only,_ZN3std7process7Command3new17hf2863bc2cd82555dE
	.seh_endproc
	.def	"?dtor$1@?0?_ZN3std7process7Command3new17hf2863bc2cd82555dE@4HA";
	.scl	3;
	.type	32;
	.endef
	.p2align	4, 0x90
"?dtor$1@?0?_ZN3std7process7Command3new17hf2863bc2cd82555dE@4HA":
.seh_proc "?dtor$1@?0?_ZN3std7process7Command3new17hf2863bc2cd82555dE@4HA"
.LBB19_1:
	movq	%rdx, 16(%rsp)
	pushq	%rbp
	.seh_pushreg %rbp
	subq	$32, %rsp
	.seh_stackalloc 32
	leaq	128(%rdx), %rbp
.Ltmp231:
	.seh_endprologue
	movq	-96(%rbp), %rcx
	callq	_ZN4core3ptr47drop_in_place$LT$std..ffi..os_str..OsString$GT$17h39d1be984fa0c5aaE
	.cv_loc	46 16 557 0
	nop
	addq	$32, %rsp
	popq	%rbp
	retq
.Ltmp232:
.Lfunc_end19:
	.seh_handlerdata
	.section	.text,"xr",one_only,_ZN3std7process7Command3new17hf2863bc2cd82555dE
	.seh_endproc
	.section	.xdata,"dr",associative,_ZN3std7process7Command3new17hf2863bc2cd82555dE
	.p2align	2
$cppxdata$_ZN3std7process7Command3new17hf2863bc2cd82555dE:
	.long	429065506
	.long	1
	.long	($stateUnwindMap$_ZN3std7process7Command3new17hf2863bc2cd82555dE)@IMGREL
	.long	0
	.long	0
	.long	3
	.long	($ip2state$_ZN3std7process7Command3new17hf2863bc2cd82555dE)@IMGREL
	.long	248
	.long	0
	.long	1
$stateUnwindMap$_ZN3std7process7Command3new17hf2863bc2cd82555dE:
	.long	-1
	.long	"?dtor$1@?0?_ZN3std7process7Command3new17hf2863bc2cd82555dE@4HA"@IMGREL
$ip2state$_ZN3std7process7Command3new17hf2863bc2cd82555dE:
	.long	.Lfunc_begin19@IMGREL
	.long	-1
	.long	.Ltmp222@IMGREL+1
	.long	0
	.long	.Ltmp225@IMGREL+1
	.long	-1
	.section	.text,"xr",one_only,_ZN3std7process7Command3new17hf2863bc2cd82555dE

	.def	_ZN49_$LT$usize$u20$as$u20$core..iter..range..Step$GT$17forward_unchecked17h503e58c4b3da6442E;
	.scl	3;
	.type	32;
	.endef
	.section	.text,"xr",one_only,_ZN49_$LT$usize$u20$as$u20$core..iter..range..Step$GT$17forward_unchecked17h503e58c4b3da6442E
	.p2align	4, 0x90
_ZN49_$LT$usize$u20$as$u20$core..iter..range..Step$GT$17forward_unchecked17h503e58c4b3da6442E:
.Lfunc_begin20:
	.cv_func_id 47
	.cv_file	23 "/rustc/90743e7298aca107ddaa0c202a4d3604e29bfeb6\\library\\core\\src\\iter\\range.rs" "16A0064745A9317DA5CC0A75C42837E19FA7DB05" 2
	.cv_loc	47 23 189 0
.seh_proc _ZN49_$LT$usize$u20$as$u20$core..iter..range..Step$GT$17forward_unchecked17h503e58c4b3da6442E
	subq	$48, %rsp
	.seh_stackalloc 48
	.seh_endprologue
	movq	%rcx, 8(%rsp)
	movq	%rdx, 16(%rsp)
.Ltmp233:
	.cv_loc	47 23 191 0
	movq	%rcx, 24(%rsp)
	movq	%rdx, 32(%rsp)
.Ltmp234:
	.cv_file	24 "/rustc/90743e7298aca107ddaa0c202a4d3604e29bfeb6\\library\\core\\src\\num\\uint_macros.rs" "AFD8176EDA261081CD4F1CEF2592FF7B134DCC4A" 2
	.cv_inline_site_id 48 within 47 inlined_at 23 191 0
	.cv_loc	48 24 466 0
	addq	%rdx, %rcx
	movq	%rcx, 40(%rsp)
	movq	40(%rsp), %rax
	movq	%rax, (%rsp)
.Ltmp235:
	.cv_loc	47 23 192 0
	movq	(%rsp), %rax
	addq	$48, %rsp
	retq
.Ltmp236:
.Lfunc_end20:
	.seh_endproc

	.def	_ZN49_$LT$usize$u20$as$u20$core..iter..range..Step$GT$18backward_unchecked17h4251654311657784E;
	.scl	3;
	.type	32;
	.endef
	.section	.text,"xr",one_only,_ZN49_$LT$usize$u20$as$u20$core..iter..range..Step$GT$18backward_unchecked17h4251654311657784E
	.p2align	4, 0x90
_ZN49_$LT$usize$u20$as$u20$core..iter..range..Step$GT$18backward_unchecked17h4251654311657784E:
.Lfunc_begin21:
	.cv_func_id 49
	.cv_loc	49 23 195 0
.seh_proc _ZN49_$LT$usize$u20$as$u20$core..iter..range..Step$GT$18backward_unchecked17h4251654311657784E
	subq	$48, %rsp
	.seh_stackalloc 48
	.seh_endprologue
	movq	%rcx, 8(%rsp)
	movq	%rdx, 16(%rsp)
.Ltmp237:
	.cv_loc	49 23 197 0
	movq	%rcx, 24(%rsp)
	movq	%rdx, 32(%rsp)
.Ltmp238:
	.cv_inline_site_id 50 within 49 inlined_at 23 197 0
	.cv_loc	50 24 535 0
	subq	%rdx, %rcx
	movq	%rcx, 40(%rsp)
	movq	40(%rsp), %rax
	movq	%rax, (%rsp)
.Ltmp239:
	.cv_loc	49 23 198 0
	movq	(%rsp), %rax
	addq	$48, %rsp
	retq
.Ltmp240:
.Lfunc_end21:
	.seh_endproc

	.def	_ZN4core3cmp3Ord3max17h1d4068f218c92264E;
	.scl	3;
	.type	32;
	.endef
	.section	.text,"xr",one_only,_ZN4core3cmp3Ord3max17h1d4068f218c92264E
	.p2align	4, 0x90
_ZN4core3cmp3Ord3max17h1d4068f218c92264E:
.Lfunc_begin22:
	.cv_func_id 51
	.cv_file	25 "/rustc/90743e7298aca107ddaa0c202a4d3604e29bfeb6\\library\\core\\src\\cmp.rs" "203F09B80BB70254523209A3310BAC5FC58C6DFA" 2
	.cv_loc	51 25 795 0
.seh_proc _ZN4core3cmp3Ord3max17h1d4068f218c92264E
	.seh_handler __CxxFrameHandler3, @unwind, @except
	pushq	%rbp
	.seh_pushreg %rbp
	subq	$80, %rsp
	.seh_stackalloc 80
	leaq	80(%rsp), %rbp
	.seh_setframe %rbp, 80
	.seh_endprologue
	movq	$-2, -8(%rbp)
	movq	%rcx, -40(%rbp)
	movq	%rdx, -32(%rbp)
.Ltmp243:
	.cv_loc	51 25 803 0
	movb	$1, -9(%rbp)
	movb	$1, -10(%rbp)
.Ltmp241:
	leaq	-40(%rbp), %rcx
	leaq	-32(%rbp), %rdx
	callq	_ZN4core3cmp5impls50_$LT$impl$u20$core..cmp..Ord$u20$for$u20$usize$GT$3cmp17hb1dfdb4502846cabE
.Ltmp242:
	movb	%al, -41(%rbp)
	jmp	.LBB22_2
.LBB22_2:
	movb	-41(%rbp), %al
	movb	%al, -11(%rbp)
	movb	-11(%rbp), %al
	incb	%al
	subb	$2, %al
	jb	.LBB22_5
	jmp	.LBB22_14
.LBB22_14:
	jmp	.LBB22_6
	ud2
.LBB22_5:
	.cv_loc	51 25 804 0
	movb	$0, -10(%rbp)
	movq	-32(%rbp), %rax
	movq	%rax, -24(%rbp)
	jmp	.LBB22_7
.LBB22_6:
	.cv_loc	51 25 805 0
	movb	$0, -9(%rbp)
	movq	-40(%rbp), %rax
	movq	%rax, -24(%rbp)
.LBB22_7:
	.cv_loc	51 25 807 0
	testb	$1, -10(%rbp)
	jne	.LBB22_9
.LBB22_8:
	testb	$1, -9(%rbp)
	jne	.LBB22_13
	jmp	.LBB22_12
.LBB22_9:
	jmp	.LBB22_8
.LBB22_12:
	movq	-24(%rbp), %rax
	addq	$80, %rsp
	popq	%rbp
	retq
.LBB22_13:
	jmp	.LBB22_12
	.seh_handlerdata
	.long	($cppxdata$_ZN4core3cmp3Ord3max17h1d4068f218c92264E)@IMGREL
	.section	.text,"xr",one_only,_ZN4core3cmp3Ord3max17h1d4068f218c92264E
	.seh_endproc
	.def	"?dtor$1@?0?_ZN4core3cmp3Ord3max17h1d4068f218c92264E@4HA";
	.scl	3;
	.type	32;
	.endef
	.p2align	4, 0x90
"?dtor$1@?0?_ZN4core3cmp3Ord3max17h1d4068f218c92264E@4HA":
.seh_proc "?dtor$1@?0?_ZN4core3cmp3Ord3max17h1d4068f218c92264E@4HA"
.LBB22_1:
	movq	%rdx, 16(%rsp)
	pushq	%rbp
	.seh_pushreg %rbp
	subq	$32, %rsp
	.seh_stackalloc 32
	leaq	80(%rdx), %rbp
	.seh_endprologue
	addq	$32, %rsp
	popq	%rbp
	retq
	.seh_handlerdata
	.section	.text,"xr",one_only,_ZN4core3cmp3Ord3max17h1d4068f218c92264E
	.seh_endproc
	.def	"?dtor$3@?0?_ZN4core3cmp3Ord3max17h1d4068f218c92264E@4HA";
	.scl	3;
	.type	32;
	.endef
	.p2align	4, 0x90
"?dtor$3@?0?_ZN4core3cmp3Ord3max17h1d4068f218c92264E@4HA":
.seh_proc "?dtor$3@?0?_ZN4core3cmp3Ord3max17h1d4068f218c92264E@4HA"
.LBB22_3:
	movq	%rdx, 16(%rsp)
	pushq	%rbp
	.seh_pushreg %rbp
	subq	$32, %rsp
	.seh_stackalloc 32
	leaq	80(%rdx), %rbp
	.seh_endprologue
	testb	$1, -9(%rbp)
	jne	.LBB22_11
	jmp	.LBB22_10
.LBB22_10:
	.cv_loc	51 25 795 0
	addq	$32, %rsp
	popq	%rbp
	retq
.LBB22_11:
	.cv_loc	51 25 807 0
	jmp	.LBB22_10
.Ltmp244:
.Lfunc_end22:
	.seh_handlerdata
	.section	.text,"xr",one_only,_ZN4core3cmp3Ord3max17h1d4068f218c92264E
	.seh_endproc
	.section	.xdata,"dr",associative,_ZN4core3cmp3Ord3max17h1d4068f218c92264E
	.p2align	2
$cppxdata$_ZN4core3cmp3Ord3max17h1d4068f218c92264E:
	.long	429065506
	.long	2
	.long	($stateUnwindMap$_ZN4core3cmp3Ord3max17h1d4068f218c92264E)@IMGREL
	.long	0
	.long	0
	.long	3
	.long	($ip2state$_ZN4core3cmp3Ord3max17h1d4068f218c92264E)@IMGREL
	.long	72
	.long	0
	.long	1
$stateUnwindMap$_ZN4core3cmp3Ord3max17h1d4068f218c92264E:
	.long	-1
	.long	"?dtor$3@?0?_ZN4core3cmp3Ord3max17h1d4068f218c92264E@4HA"@IMGREL
	.long	0
	.long	"?dtor$1@?0?_ZN4core3cmp3Ord3max17h1d4068f218c92264E@4HA"@IMGREL
$ip2state$_ZN4core3cmp3Ord3max17h1d4068f218c92264E:
	.long	.Lfunc_begin22@IMGREL
	.long	-1
	.long	.Ltmp241@IMGREL+1
	.long	1
	.long	.Ltmp242@IMGREL+1
	.long	-1
	.section	.text,"xr",one_only,_ZN4core3cmp3Ord3max17h1d4068f218c92264E

	.def	_ZN4core3cmp5impls50_$LT$impl$u20$core..cmp..Ord$u20$for$u20$usize$GT$3cmp17hb1dfdb4502846cabE;
	.scl	3;
	.type	32;
	.endef
	.section	.text,"xr",one_only,_ZN4core3cmp5impls50_$LT$impl$u20$core..cmp..Ord$u20$for$u20$usize$GT$3cmp17hb1dfdb4502846cabE
	.p2align	4, 0x90
_ZN4core3cmp5impls50_$LT$impl$u20$core..cmp..Ord$u20$for$u20$usize$GT$3cmp17hb1dfdb4502846cabE:
.Lfunc_begin23:
	.cv_func_id 52
	.cv_loc	52 25 1471 0
.seh_proc _ZN4core3cmp5impls50_$LT$impl$u20$core..cmp..Ord$u20$for$u20$usize$GT$3cmp17hb1dfdb4502846cabE
	subq	$40, %rsp
	.seh_stackalloc 40
	.seh_endprologue
	movq	%rdx, (%rsp)
	movq	%rcx, 8(%rsp)
	movq	%rcx, 24(%rsp)
	movq	%rdx, 32(%rsp)
.Ltmp245:
	.cv_loc	52 25 1474 0
	movq	(%rcx), %rax
	cmpq	(%rdx), %rax
	jb	.LBB23_2
	.cv_loc	52 25 1475 0
	movq	(%rsp), %rcx
	movq	8(%rsp), %rax
	movq	(%rax), %rax
	cmpq	(%rcx), %rax
	je	.LBB23_5
	jmp	.LBB23_4
.LBB23_2:
	.cv_loc	52 25 1474 0
	movb	$-1, 23(%rsp)
.LBB23_3:
	.cv_loc	52 25 1477 0
	movb	23(%rsp), %al
	addq	$40, %rsp
	retq
.LBB23_4:
	.cv_loc	52 25 1476 0
	movb	$1, 23(%rsp)
	.cv_loc	52 25 1475 0
	jmp	.LBB23_6
.LBB23_5:
	movb	$0, 23(%rsp)
.LBB23_6:
	.cv_loc	52 25 1474 0
	jmp	.LBB23_3
.Ltmp246:
.Lfunc_end23:
	.seh_endproc

	.def	_ZN4core3cmp5impls57_$LT$impl$u20$core..cmp..PartialOrd$u20$for$u20$usize$GT$2lt17h371f384ba485f7ecE;
	.scl	3;
	.type	32;
	.endef
	.section	.text,"xr",one_only,_ZN4core3cmp5impls57_$LT$impl$u20$core..cmp..PartialOrd$u20$for$u20$usize$GT$2lt17h371f384ba485f7ecE
	.p2align	4, 0x90
_ZN4core3cmp5impls57_$LT$impl$u20$core..cmp..PartialOrd$u20$for$u20$usize$GT$2lt17h371f384ba485f7ecE:
.Lfunc_begin24:
	.cv_func_id 53
	.cv_loc	53 25 1458 0
.seh_proc _ZN4core3cmp5impls57_$LT$impl$u20$core..cmp..PartialOrd$u20$for$u20$usize$GT$2lt17h371f384ba485f7ecE
	subq	$16, %rsp
	.seh_stackalloc 16
	.seh_endprologue
	movq	%rcx, (%rsp)
	movq	%rdx, 8(%rsp)
.Ltmp247:
	movq	(%rcx), %rax
	cmpq	(%rdx), %rax
	setb	%al
	andb	$1, %al
	movzbl	%al, %eax
	addq	$16, %rsp
	retq
.Ltmp248:
.Lfunc_end24:
	.seh_endproc

	.def	_ZN4core3cmp5impls59_$LT$impl$u20$core..cmp..PartialEq$u20$for$u20$$LP$$RP$$GT$2eq17h80ad4e9feeefa8c5E;
	.scl	3;
	.type	32;
	.endef
	.section	.text,"xr",one_only,_ZN4core3cmp5impls59_$LT$impl$u20$core..cmp..PartialEq$u20$for$u20$$LP$$RP$$GT$2eq17h80ad4e9feeefa8c5E
	.p2align	4, 0x90
_ZN4core3cmp5impls59_$LT$impl$u20$core..cmp..PartialEq$u20$for$u20$$LP$$RP$$GT$2eq17h80ad4e9feeefa8c5E:
.Lfunc_begin25:
	.cv_func_id 54
	.cv_loc	54 25 1380 0
.seh_proc _ZN4core3cmp5impls59_$LT$impl$u20$core..cmp..PartialEq$u20$for$u20$$LP$$RP$$GT$2eq17h80ad4e9feeefa8c5E
	subq	$16, %rsp
	.seh_stackalloc 16
	.seh_endprologue
	movq	%rcx, (%rsp)
	movq	%rdx, 8(%rsp)
.Ltmp249:
	.cv_loc	54 25 1382 0
	movb	$1, %al
	andb	$1, %al
	movzbl	%al, %eax
	addq	$16, %rsp
	retq
.Ltmp250:
.Lfunc_end25:
	.seh_endproc

	.def	_ZN4core3cmp5impls69_$LT$impl$u20$core..cmp..PartialEq$LT$$RF$B$GT$$u20$for$u20$$RF$A$GT$2eq17hcee8cbfba08aaa62E;
	.scl	3;
	.type	32;
	.endef
	.section	.text,"xr",one_only,_ZN4core3cmp5impls69_$LT$impl$u20$core..cmp..PartialEq$LT$$RF$B$GT$$u20$for$u20$$RF$A$GT$2eq17hcee8cbfba08aaa62E
	.p2align	4, 0x90
_ZN4core3cmp5impls69_$LT$impl$u20$core..cmp..PartialEq$LT$$RF$B$GT$$u20$for$u20$$RF$A$GT$2eq17hcee8cbfba08aaa62E:
.Lfunc_begin26:
	.cv_func_id 55
	.cv_loc	55 25 1547 0
.seh_proc _ZN4core3cmp5impls69_$LT$impl$u20$core..cmp..PartialEq$LT$$RF$B$GT$$u20$for$u20$$RF$A$GT$2eq17hcee8cbfba08aaa62E
	subq	$56, %rsp
	.seh_stackalloc 56
	.seh_endprologue
	movq	%rdx, %rax
	movq	%rcx, %rdx
	movq	%rdx, 40(%rsp)
	movq	%rax, 48(%rsp)
.Ltmp251:
	.cv_loc	55 25 1548 0
	movq	(%rdx), %rcx
	movq	8(%rdx), %rdx
	movq	(%rax), %r8
	movq	8(%rax), %r9
	callq	_ZN4core3str6traits54_$LT$impl$u20$core..cmp..PartialEq$u20$for$u20$str$GT$2eq17h8312197c7aca69b1E
	movb	%al, 39(%rsp)
	.cv_loc	55 25 1549 0
	movb	39(%rsp), %al
	andb	$1, %al
	movzbl	%al, %eax
	addq	$56, %rsp
	retq
.Ltmp252:
.Lfunc_end26:
	.seh_endproc

	.def	_ZN4core3cmp9PartialEq2ne17hd4f5b95a39199f96E;
	.scl	3;
	.type	32;
	.endef
	.section	.text,"xr",one_only,_ZN4core3cmp9PartialEq2ne17hd4f5b95a39199f96E
	.p2align	4, 0x90
_ZN4core3cmp9PartialEq2ne17hd4f5b95a39199f96E:
.Lfunc_begin27:
	.cv_func_id 56
	.cv_loc	56 25 227 0
.seh_proc _ZN4core3cmp9PartialEq2ne17hd4f5b95a39199f96E
	subq	$56, %rsp
	.seh_stackalloc 56
	.seh_endprologue
	movq	%rcx, 40(%rsp)
	movq	%rdx, 48(%rsp)
.Ltmp253:
	.cv_loc	56 25 228 0
	callq	_ZN70_$LT$core..option..Option$LT$T$GT$$u20$as$u20$core..cmp..PartialEq$GT$2eq17h5045d301ded20d30E
	movb	%al, 39(%rsp)
	movb	39(%rsp), %al
	xorb	$-1, %al
	.cv_loc	56 25 229 0
	andb	$1, %al
	movzbl	%al, %eax
	addq	$56, %rsp
	retq
.Ltmp254:
.Lfunc_end27:
	.seh_endproc

	.def	_ZN4core3fmt9Arguments6new_v117h7db52591a047e073E;
	.scl	3;
	.type	32;
	.endef
	.section	.text,"xr",one_only,_ZN4core3fmt9Arguments6new_v117h7db52591a047e073E
	.p2align	4, 0x90
_ZN4core3fmt9Arguments6new_v117h7db52591a047e073E:
.Lfunc_begin28:
	.cv_func_id 57
	.cv_file	26 "/rustc/90743e7298aca107ddaa0c202a4d3604e29bfeb6\\library\\core\\src\\fmt\\mod.rs" "04BE1DED0EE4855FB268BF0A3873BD2DC8E6B351" 2
	.cv_loc	57 26 394 0
.seh_proc _ZN4core3fmt9Arguments6new_v117h7db52591a047e073E
	subq	$200, %rsp
	.seh_stackalloc 200
	.seh_endprologue
	movq	%r9, 48(%rsp)
	movq	%r8, 56(%rsp)
	movq	%rdx, 64(%rsp)
	movq	%rcx, 72(%rsp)
	movq	%rcx, 80(%rsp)
	movq	240(%rsp), %rax
	movq	%rax, 88(%rsp)
	movq	%rdx, 168(%rsp)
	movq	%r8, 176(%rsp)
	movq	%r9, 184(%rsp)
	movq	%rax, 192(%rsp)
.Ltmp255:
	.cv_loc	57 26 395 0
	cmpq	%rax, %r8
	jb	.LBB28_2
	movq	56(%rsp), %rax
	movq	88(%rsp), %rcx
	addq	$1, %rcx
	cmpq	%rcx, %rax
	seta	%al
	andb	$1, %al
	movb	%al, 103(%rsp)
	jmp	.LBB28_3
.LBB28_2:
	movb	$1, 103(%rsp)
.LBB28_3:
	testb	$1, 103(%rsp)
	jne	.LBB28_5
	.cv_loc	57 26 398 0
	movq	80(%rsp), %rax
	movq	72(%rsp), %rcx
	movq	88(%rsp), %rdx
	movq	48(%rsp), %r8
	movq	56(%rsp), %r9
	movq	64(%rsp), %r10
	movq	$0, 152(%rsp)
	movq	%r10, (%rcx)
	movq	%r9, 8(%rcx)
	movq	152(%rsp), %r10
	movq	160(%rsp), %r9
	movq	%r10, 16(%rcx)
	movq	%r9, 24(%rcx)
	movq	%r8, 32(%rcx)
	movq	%rdx, 40(%rcx)
	.cv_loc	57 26 399 0
	addq	$200, %rsp
	retq
.LBB28_5:
	.cv_loc	57 26 396 0
	leaq	104(%rsp), %rcx
	leaq	__unnamed_4(%rip), %rdx
	movl	$1, %r8d
	leaq	__unnamed_5(%rip), %r9
	xorl	%eax, %eax
	movq	$0, 32(%rsp)
	callq	_ZN4core3fmt9Arguments6new_v117h7db52591a047e073E
	leaq	__unnamed_6(%rip), %rdx
	leaq	104(%rsp), %rcx
	callq	_ZN4core9panicking9panic_fmt17h1862038ee9bad685E
	ud2
.Ltmp256:
.Lfunc_end28:
	.seh_endproc

	.def	_ZN4core3mem12maybe_uninit20MaybeUninit$LT$T$GT$16assume_init_drop17h0238cdb603f68d6dE;
	.scl	3;
	.type	32;
	.endef
	.section	.text,"xr",one_only,_ZN4core3mem12maybe_uninit20MaybeUninit$LT$T$GT$16assume_init_drop17h0238cdb603f68d6dE
	.p2align	4, 0x90
_ZN4core3mem12maybe_uninit20MaybeUninit$LT$T$GT$16assume_init_drop17h0238cdb603f68d6dE:
.Lfunc_begin29:
	.cv_func_id 58
	.cv_file	27 "/rustc/90743e7298aca107ddaa0c202a4d3604e29bfeb6\\library\\core\\src\\mem\\maybe_uninit.rs" "D86EE697DA2461E260B588D1B47691B7D0757E21" 2
	.cv_loc	58 27 724 0
.seh_proc _ZN4core3mem12maybe_uninit20MaybeUninit$LT$T$GT$16assume_init_drop17h0238cdb603f68d6dE
	subq	$56, %rsp
	.seh_stackalloc 56
	.seh_endprologue
	movq	%rcx, 40(%rsp)
.Ltmp257:
	.cv_loc	58 27 728 0
	movq	%rcx, 48(%rsp)
	callq	_ZN4core3ptr75drop_in_place$LT$core..option..Option$LT$std..ffi..os_str..OsString$GT$$GT$17haceb75093c61b6d0E
	.cv_loc	58 27 729 0
	nop
	addq	$56, %rsp
	retq
.Ltmp258:
.Lfunc_end29:
	.seh_endproc

	.def	_ZN4core3mem12maybe_uninit20MaybeUninit$LT$T$GT$16assume_init_drop17h7b07b00d7e9019faE;
	.scl	3;
	.type	32;
	.endef
	.section	.text,"xr",one_only,_ZN4core3mem12maybe_uninit20MaybeUninit$LT$T$GT$16assume_init_drop17h7b07b00d7e9019faE
	.p2align	4, 0x90
_ZN4core3mem12maybe_uninit20MaybeUninit$LT$T$GT$16assume_init_drop17h7b07b00d7e9019faE:
.Lfunc_begin30:
	.cv_func_id 59
	.cv_loc	59 27 724 0
.seh_proc _ZN4core3mem12maybe_uninit20MaybeUninit$LT$T$GT$16assume_init_drop17h7b07b00d7e9019faE
	subq	$56, %rsp
	.seh_stackalloc 56
	.seh_endprologue
	movq	%rcx, 40(%rsp)
.Ltmp259:
	.cv_loc	59 27 728 0
	movq	%rcx, 48(%rsp)
	callq	_ZN4core3ptr55drop_in_place$LT$std..sys..windows..process..EnvKey$GT$17h78807dbda447094aE
	.cv_loc	59 27 729 0
	nop
	addq	$56, %rsp
	retq
.Ltmp260:
.Lfunc_end30:
	.seh_endproc

	.def	_ZN4core3mem7replace17h1f2eae5c013aaad6E;
	.scl	3;
	.type	32;
	.endef
	.section	.text,"xr",one_only,_ZN4core3mem7replace17h1f2eae5c013aaad6E
	.p2align	4, 0x90
_ZN4core3mem7replace17h1f2eae5c013aaad6E:
.Lfunc_begin31:
	.cv_func_id 60
	.cv_file	28 "/rustc/90743e7298aca107ddaa0c202a4d3604e29bfeb6\\library\\core\\src\\mem\\mod.rs" "369936B4D4BF978D9E3068F0582A9983FCB5118B" 2
	.cv_loc	60 28 912 0
.seh_proc _ZN4core3mem7replace17h1f2eae5c013aaad6E
	subq	$80, %rsp
	.seh_stackalloc 80
	.seh_endprologue
	movq	%rcx, 16(%rsp)
	movq	%rdx, 24(%rsp)
.Ltmp261:
	.cv_loc	60 28 917 0
	movq	%rcx, 32(%rsp)
.Ltmp262:
	.cv_inline_site_id 61 within 60 inlined_at 28 917 0
	.cv_loc	61 4 1139 0
	leaq	8(%rsp), %rax
	movq	%rax, 40(%rsp)
	movq	(%rcx), %rax
	movq	%rax, 8(%rsp)
	.cv_loc	61 4 1140 0
	movq	8(%rsp), %rax
	movq	%rax, 48(%rsp)
.Ltmp263:
	.cv_inline_site_id 62 within 61 inlined_at 4 1140 0
	.cv_loc	62 27 627 0
	movq	%rax, 56(%rsp)
.Ltmp264:
	.cv_inline_site_id 63 within 62 inlined_at 27 627 0
	.cv_loc	63 8 89 0
	movq	%rax, 64(%rsp)
.Ltmp265:
	.cv_loc	60 28 918 0
	movq	%rcx, 72(%rsp)
	movq	%rdx, (%rsp)
.Ltmp266:
	.cv_inline_site_id 64 within 60 inlined_at 28 918 0
	.cv_loc	64 4 1336 0
	movq	(%rsp), %rdx
	movq	%rdx, (%rcx)
.Ltmp267:
	.cv_loc	60 28 921 0
	addq	$80, %rsp
	retq
.Ltmp268:
.Lfunc_end31:
	.seh_endproc

	.def	_ZN4core3mem7replace17h296f9f7ea25f97a0E;
	.scl	3;
	.type	32;
	.endef
	.section	.text,"xr",one_only,_ZN4core3mem7replace17h296f9f7ea25f97a0E
	.p2align	4, 0x90
_ZN4core3mem7replace17h296f9f7ea25f97a0E:
.Lfunc_begin32:
	.cv_func_id 65
	.cv_loc	65 28 912 0
.seh_proc _ZN4core3mem7replace17h296f9f7ea25f97a0E
	subq	$136, %rsp
	.seh_stackalloc 136
	.seh_endprologue
	movq	%rdx, %r9
	movq	%rcx, 40(%rsp)
	movq	%r9, 48(%rsp)
	movq	%r8, 56(%rsp)
.Ltmp269:
	.cv_loc	65 28 917 0
	movq	%rcx, 64(%rsp)
	leaq	16(%rsp), %rax
.Ltmp270:
	.cv_inline_site_id 66 within 65 inlined_at 28 917 0
	.cv_loc	66 4 1139 0
	movq	%rax, 72(%rsp)
	vmovdqu	(%rcx), %xmm0
	vmovdqa	%xmm0, 16(%rsp)
	.cv_loc	66 4 1140 0
	movq	16(%rsp), %rax
	movq	24(%rsp), %rdx
	movq	%rax, 80(%rsp)
	movq	%rdx, 88(%rsp)
.Ltmp271:
	.cv_inline_site_id 67 within 66 inlined_at 4 1140 0
	.cv_loc	67 27 627 0
	movq	%rax, 96(%rsp)
	movq	%rdx, 104(%rsp)
.Ltmp272:
	.cv_inline_site_id 68 within 67 inlined_at 27 627 0
	.cv_loc	68 8 89 0
	movq	%rax, 112(%rsp)
	movq	%rdx, 120(%rsp)
.Ltmp273:
	.cv_loc	65 28 918 0
	movq	%rcx, 128(%rsp)
	movq	%r9, (%rsp)
	movq	%r8, 8(%rsp)
.Ltmp274:
	.cv_inline_site_id 69 within 65 inlined_at 28 918 0
	.cv_loc	69 4 1336 0
	vmovdqu	(%rsp), %xmm0
	vmovdqu	%xmm0, (%rcx)
.Ltmp275:
	.cv_loc	65 28 921 0
	addq	$136, %rsp
	retq
.Ltmp276:
.Lfunc_end32:
	.seh_endproc

	.def	_ZN4core3mem7replace17hd75217897fffebbcE;
	.scl	3;
	.type	32;
	.endef
	.section	.text,"xr",one_only,_ZN4core3mem7replace17hd75217897fffebbcE
	.p2align	4, 0x90
_ZN4core3mem7replace17hd75217897fffebbcE:
.Lfunc_begin33:
	.cv_func_id 70
	.cv_loc	70 28 912 0
.seh_proc _ZN4core3mem7replace17hd75217897fffebbcE
	subq	$160, %rsp
	.seh_stackalloc 160
	.seh_endprologue
	movq	%rcx, %rax
.Ltmp277:
	movq	%rdx, 128(%rsp)
.Ltmp278:
	.cv_loc	70 28 917 0
	movq	%rdx, 136(%rsp)
.Ltmp279:
	.cv_inline_site_id 71 within 70 inlined_at 28 917 0
	.cv_loc	71 4 1139 0
	leaq	32(%rsp), %r9
	movq	%r9, 144(%rsp)
	movq	(%rdx), %r9
	movq	%r9, 32(%rsp)
	movq	8(%rdx), %r9
	movq	%r9, 40(%rsp)
	movq	16(%rdx), %r9
	movq	%r9, 48(%rsp)
	movq	24(%rdx), %r9
	movq	%r9, 56(%rsp)
	.cv_loc	71 4 1140 0
	movq	32(%rsp), %r9
	movq	%r9, 64(%rsp)
	movq	40(%rsp), %r9
	movq	%r9, 72(%rsp)
	movq	48(%rsp), %r9
	movq	%r9, 80(%rsp)
	movq	56(%rsp), %r9
	movq	%r9, 88(%rsp)
.Ltmp280:
	.cv_inline_site_id 72 within 71 inlined_at 4 1140 0
	.cv_loc	72 27 627 0
	movq	64(%rsp), %r9
	movq	%r9, 96(%rsp)
	movq	72(%rsp), %r9
	movq	%r9, 104(%rsp)
	movq	80(%rsp), %r9
	movq	%r9, 112(%rsp)
	movq	88(%rsp), %r9
	movq	%r9, 120(%rsp)
.Ltmp281:
	.cv_inline_site_id 73 within 72 inlined_at 27 627 0
	.cv_loc	73 8 89 0
	movq	96(%rsp), %r9
	movq	%r9, (%rcx)
	movq	104(%rsp), %r9
	movq	%r9, 8(%rcx)
	movq	112(%rsp), %r9
	movq	%r9, 16(%rcx)
	movq	120(%rsp), %r9
	movq	%r9, 24(%rcx)
.Ltmp282:
	.cv_loc	70 28 918 0
	movq	%rdx, 152(%rsp)
	movq	(%r8), %rcx
.Ltmp283:
	movq	%rcx, (%rsp)
	movq	8(%r8), %rcx
	movq	%rcx, 8(%rsp)
	movq	16(%r8), %rcx
	movq	%rcx, 16(%rsp)
	movq	24(%r8), %rcx
	movq	%rcx, 24(%rsp)
.Ltmp284:
	.cv_inline_site_id 74 within 70 inlined_at 28 918 0
	.cv_loc	74 4 1336 0
	movq	(%rsp), %rcx
	movq	%rcx, (%rdx)
	movq	8(%rsp), %rcx
	movq	%rcx, 8(%rdx)
	movq	16(%rsp), %rcx
	movq	%rcx, 16(%rdx)
	movq	24(%rsp), %rcx
	movq	%rcx, 24(%rdx)
.Ltmp285:
	.cv_loc	70 28 921 0
	addq	$160, %rsp
	retq
.Ltmp286:
.Lfunc_end33:
	.seh_endproc

	.def	_ZN4core3ops8function6FnOnce40call_once$u7b$$u7b$vtable.shim$u7d$$u7d$17h01fdb2f1bfcfb038E;
	.scl	3;
	.type	32;
	.endef
	.section	.text,"xr",one_only,_ZN4core3ops8function6FnOnce40call_once$u7b$$u7b$vtable.shim$u7d$$u7d$17h01fdb2f1bfcfb038E
	.p2align	4, 0x90
_ZN4core3ops8function6FnOnce40call_once$u7b$$u7b$vtable.shim$u7d$$u7d$17h01fdb2f1bfcfb038E:
.Lfunc_begin34:
	.cv_func_id 75
	.cv_file	29 "/rustc/90743e7298aca107ddaa0c202a4d3604e29bfeb6\\library\\core\\src\\ops\\function.rs" "30571CBFA498AC809C9112A69B06C31447DD7867" 2
	.cv_loc	75 29 251 0
.seh_proc _ZN4core3ops8function6FnOnce40call_once$u7b$$u7b$vtable.shim$u7d$$u7d$17h01fdb2f1bfcfb038E
	subq	$56, %rsp
	.seh_stackalloc 56
	.seh_endprologue
	movq	%rcx, 48(%rsp)
.Ltmp287:
	movq	(%rcx), %rcx
	callq	_ZN4core3ops8function6FnOnce9call_once17h10bd7a5c819d96d8E
	movl	%eax, 36(%rsp)
	movl	36(%rsp), %eax
	addq	$56, %rsp
	retq
.Ltmp288:
.Lfunc_end34:
	.seh_endproc

	.def	_ZN4core3ops8function6FnOnce9call_once17h10bd7a5c819d96d8E;
	.scl	3;
	.type	32;
	.endef
	.section	.text,"xr",one_only,_ZN4core3ops8function6FnOnce9call_once17h10bd7a5c819d96d8E
	.p2align	4, 0x90
_ZN4core3ops8function6FnOnce9call_once17h10bd7a5c819d96d8E:
.Lfunc_begin35:
	.cv_func_id 76
	.cv_loc	76 29 251 0
.seh_proc _ZN4core3ops8function6FnOnce9call_once17h10bd7a5c819d96d8E
	.seh_handler __CxxFrameHandler3, @unwind, @except
	pushq	%rbp
	.seh_pushreg %rbp
	subq	$64, %rsp
	.seh_stackalloc 64
	leaq	64(%rsp), %rbp
	.seh_setframe %rbp, 64
	.seh_endprologue
	movq	$-2, -8(%rbp)
	movq	%rcx, -16(%rbp)
.Ltmp289:
	leaq	-16(%rbp), %rcx
.Ltmp291:
	callq	_ZN3std2rt10lang_start28_$u7b$$u7b$closure$u7d$$u7d$17h06e3800177f43954E
.Ltmp290:
	movl	%eax, -20(%rbp)
	jmp	.LBB35_2
.LBB35_2:
	movl	-20(%rbp), %eax
	addq	$64, %rsp
	popq	%rbp
	retq
	.seh_handlerdata
	.long	($cppxdata$_ZN4core3ops8function6FnOnce9call_once17h10bd7a5c819d96d8E)@IMGREL
	.section	.text,"xr",one_only,_ZN4core3ops8function6FnOnce9call_once17h10bd7a5c819d96d8E
	.seh_endproc
	.def	"?dtor$1@?0?_ZN4core3ops8function6FnOnce9call_once17h10bd7a5c819d96d8E@4HA";
	.scl	3;
	.type	32;
	.endef
	.p2align	4, 0x90
"?dtor$1@?0?_ZN4core3ops8function6FnOnce9call_once17h10bd7a5c819d96d8E@4HA":
.seh_proc "?dtor$1@?0?_ZN4core3ops8function6FnOnce9call_once17h10bd7a5c819d96d8E@4HA"
.LBB35_1:
	movq	%rdx, 16(%rsp)
	pushq	%rbp
	.seh_pushreg %rbp
	subq	$32, %rsp
	.seh_stackalloc 32
	leaq	64(%rdx), %rbp
	.seh_endprologue
	addq	$32, %rsp
	popq	%rbp
	retq
.Ltmp292:
.Lfunc_end35:
	.seh_handlerdata
	.section	.text,"xr",one_only,_ZN4core3ops8function6FnOnce9call_once17h10bd7a5c819d96d8E
	.seh_endproc
	.section	.xdata,"dr",associative,_ZN4core3ops8function6FnOnce9call_once17h10bd7a5c819d96d8E
	.p2align	2
$cppxdata$_ZN4core3ops8function6FnOnce9call_once17h10bd7a5c819d96d8E:
	.long	429065506
	.long	1
	.long	($stateUnwindMap$_ZN4core3ops8function6FnOnce9call_once17h10bd7a5c819d96d8E)@IMGREL
	.long	0
	.long	0
	.long	3
	.long	($ip2state$_ZN4core3ops8function6FnOnce9call_once17h10bd7a5c819d96d8E)@IMGREL
	.long	56
	.long	0
	.long	1
$stateUnwindMap$_ZN4core3ops8function6FnOnce9call_once17h10bd7a5c819d96d8E:
	.long	-1
	.long	"?dtor$1@?0?_ZN4core3ops8function6FnOnce9call_once17h10bd7a5c819d96d8E@4HA"@IMGREL
$ip2state$_ZN4core3ops8function6FnOnce9call_once17h10bd7a5c819d96d8E:
	.long	.Lfunc_begin35@IMGREL
	.long	-1
	.long	.Ltmp289@IMGREL+1
	.long	0
	.long	.Ltmp290@IMGREL+1
	.long	-1
	.section	.text,"xr",one_only,_ZN4core3ops8function6FnOnce9call_once17h10bd7a5c819d96d8E

	.def	_ZN4core3ops8function6FnOnce9call_once17h275ff82777da2f3aE;
	.scl	3;
	.type	32;
	.endef
	.section	.text,"xr",one_only,_ZN4core3ops8function6FnOnce9call_once17h275ff82777da2f3aE
	.p2align	4, 0x90
_ZN4core3ops8function6FnOnce9call_once17h275ff82777da2f3aE:
.Lfunc_begin36:
	.cv_func_id 77
	.cv_loc	77 29 251 0
.seh_proc _ZN4core3ops8function6FnOnce9call_once17h275ff82777da2f3aE
	subq	$56, %rsp
	.seh_stackalloc 56
	.seh_endprologue
	movq	%rcx, 48(%rsp)
.Ltmp293:
	callq	*%rcx
	nop
	addq	$56, %rsp
	retq
.Ltmp294:
.Lfunc_end36:
	.seh_endproc

	.def	_ZN4core3ptr101drop_in_place$LT$std..io..error..ErrorData$LT$alloc..boxed..Box$LT$std..io..error..Custom$GT$$GT$$GT$17hb2878c805fa92cb2E;
	.scl	3;
	.type	32;
	.endef
	.section	.text,"xr",one_only,_ZN4core3ptr101drop_in_place$LT$std..io..error..ErrorData$LT$alloc..boxed..Box$LT$std..io..error..Custom$GT$$GT$$GT$17hb2878c805fa92cb2E
	.p2align	4, 0x90
_ZN4core3ptr101drop_in_place$LT$std..io..error..ErrorData$LT$alloc..boxed..Box$LT$std..io..error..Custom$GT$$GT$$GT$17hb2878c805fa92cb2E:
.Lfunc_begin37:
	.cv_func_id 78
	.cv_loc	78 4 490 0
.seh_proc _ZN4core3ptr101drop_in_place$LT$std..io..error..ErrorData$LT$alloc..boxed..Box$LT$std..io..error..Custom$GT$$GT$$GT$17hb2878c805fa92cb2E
	subq	$56, %rsp
	.seh_stackalloc 56
	.seh_endprologue
	movq	%rcx, 40(%rsp)
	movq	%rcx, 48(%rsp)
.Ltmp295:
	movb	(%rcx), %al
	subb	$3, %al
	jb	.LBB37_2
	jmp	.LBB37_1
.LBB37_1:
	movq	40(%rsp), %rcx
	addq	$8, %rcx
	callq	_ZN4core3ptr68drop_in_place$LT$alloc..boxed..Box$LT$std..io..error..Custom$GT$$GT$17h0f3d36cb8a5bd669E
.LBB37_2:
	nop
	addq	$56, %rsp
	retq
.Ltmp296:
.Lfunc_end37:
	.seh_endproc

	.def	_ZN4core3ptr118drop_in_place$LT$alloc..boxed..Box$LT$dyn$u20$core..error..Error$u2b$core..marker..Sync$u2b$core..marker..Send$GT$$GT$17h2c7a11eec3f497adE;
	.scl	3;
	.type	32;
	.endef
	.section	.text,"xr",one_only,_ZN4core3ptr118drop_in_place$LT$alloc..boxed..Box$LT$dyn$u20$core..error..Error$u2b$core..marker..Sync$u2b$core..marker..Send$GT$$GT$17h2c7a11eec3f497adE
	.p2align	4, 0x90
_ZN4core3ptr118drop_in_place$LT$alloc..boxed..Box$LT$dyn$u20$core..error..Error$u2b$core..marker..Sync$u2b$core..marker..Send$GT$$GT$17h2c7a11eec3f497adE:
.Lfunc_begin38:
	.cv_func_id 79
	.cv_loc	79 4 490 0
.seh_proc _ZN4core3ptr118drop_in_place$LT$alloc..boxed..Box$LT$dyn$u20$core..error..Error$u2b$core..marker..Sync$u2b$core..marker..Send$GT$$GT$17h2c7a11eec3f497adE
	.seh_handler __CxxFrameHandler3, @unwind, @except
	pushq	%rbp
	.seh_pushreg %rbp
	subq	$64, %rsp
	.seh_stackalloc 64
	leaq	64(%rsp), %rbp
	.seh_setframe %rbp, 64
	.seh_endprologue
	movq	$-2, -8(%rbp)
	movq	%rcx, %rax
	movq	%rax, -24(%rbp)
	movq	%rax, -16(%rbp)
.Ltmp299:
	movq	(%rax), %rcx
	movq	8(%rax), %rax
	movq	(%rax), %rax
.Ltmp297:
	callq	*%rax
.Ltmp298:
	jmp	.LBB38_2
.LBB38_2:
	movq	-24(%rbp), %rax
	movq	(%rax), %rcx
	movq	8(%rax), %rdx
	callq	_ZN5alloc5alloc8box_free17hf73948cf2377cdb2E
	nop
	addq	$64, %rsp
	popq	%rbp
	retq
	.seh_handlerdata
	.long	($cppxdata$_ZN4core3ptr118drop_in_place$LT$alloc..boxed..Box$LT$dyn$u20$core..error..Error$u2b$core..marker..Sync$u2b$core..marker..Send$GT$$GT$17h2c7a11eec3f497adE)@IMGREL
	.section	.text,"xr",one_only,_ZN4core3ptr118drop_in_place$LT$alloc..boxed..Box$LT$dyn$u20$core..error..Error$u2b$core..marker..Sync$u2b$core..marker..Send$GT$$GT$17h2c7a11eec3f497adE
	.seh_endproc
	.def	"?dtor$1@?0?_ZN4core3ptr118drop_in_place$LT$alloc..boxed..Box$LT$dyn$u20$core..error..Error$u2b$core..marker..Sync$u2b$core..marker..Send$GT$$GT$17h2c7a11eec3f497adE@4HA";
	.scl	3;
	.type	32;
	.endef
	.p2align	4, 0x90
"?dtor$1@?0?_ZN4core3ptr118drop_in_place$LT$alloc..boxed..Box$LT$dyn$u20$core..error..Error$u2b$core..marker..Sync$u2b$core..marker..Send$GT$$GT$17h2c7a11eec3f497adE@4HA":
.seh_proc "?dtor$1@?0?_ZN4core3ptr118drop_in_place$LT$alloc..boxed..Box$LT$dyn$u20$core..error..Error$u2b$core..marker..Sync$u2b$core..marker..Send$GT$$GT$17h2c7a11eec3f497adE@4HA"
.LBB38_1:
	movq	%rdx, 16(%rsp)
	pushq	%rbp
	.seh_pushreg %rbp
	subq	$32, %rsp
	.seh_stackalloc 32
	leaq	64(%rdx), %rbp
	.seh_endprologue
	movq	-24(%rbp), %rax
	movq	(%rax), %rcx
	movq	8(%rax), %rdx
	callq	_ZN5alloc5alloc8box_free17hf73948cf2377cdb2E
	nop
	addq	$32, %rsp
	popq	%rbp
	retq
.Ltmp300:
.Lfunc_end38:
	.seh_handlerdata
	.section	.text,"xr",one_only,_ZN4core3ptr118drop_in_place$LT$alloc..boxed..Box$LT$dyn$u20$core..error..Error$u2b$core..marker..Sync$u2b$core..marker..Send$GT$$GT$17h2c7a11eec3f497adE
	.seh_endproc
	.section	.xdata,"dr",associative,_ZN4core3ptr118drop_in_place$LT$alloc..boxed..Box$LT$dyn$u20$core..error..Error$u2b$core..marker..Sync$u2b$core..marker..Send$GT$$GT$17h2c7a11eec3f497adE
	.p2align	2
$cppxdata$_ZN4core3ptr118drop_in_place$LT$alloc..boxed..Box$LT$dyn$u20$core..error..Error$u2b$core..marker..Sync$u2b$core..marker..Send$GT$$GT$17h2c7a11eec3f497adE:
	.long	429065506
	.long	1
	.long	($stateUnwindMap$_ZN4core3ptr118drop_in_place$LT$alloc..boxed..Box$LT$dyn$u20$core..error..Error$u2b$core..marker..Sync$u2b$core..marker..Send$GT$$GT$17h2c7a11eec3f497adE)@IMGREL
	.long	0
	.long	0
	.long	3
	.long	($ip2state$_ZN4core3ptr118drop_in_place$LT$alloc..boxed..Box$LT$dyn$u20$core..error..Error$u2b$core..marker..Sync$u2b$core..marker..Send$GT$$GT$17h2c7a11eec3f497adE)@IMGREL
	.long	56
	.long	0
	.long	1
$stateUnwindMap$_ZN4core3ptr118drop_in_place$LT$alloc..boxed..Box$LT$dyn$u20$core..error..Error$u2b$core..marker..Sync$u2b$core..marker..Send$GT$$GT$17h2c7a11eec3f497adE:
	.long	-1
	.long	"?dtor$1@?0?_ZN4core3ptr118drop_in_place$LT$alloc..boxed..Box$LT$dyn$u20$core..error..Error$u2b$core..marker..Sync$u2b$core..marker..Send$GT$$GT$17h2c7a11eec3f497adE@4HA"@IMGREL
$ip2state$_ZN4core3ptr118drop_in_place$LT$alloc..boxed..Box$LT$dyn$u20$core..error..Error$u2b$core..marker..Sync$u2b$core..marker..Send$GT$$GT$17h2c7a11eec3f497adE:
	.long	.Lfunc_begin38@IMGREL
	.long	-1
	.long	.Ltmp297@IMGREL+1
	.long	0
	.long	.Ltmp298@IMGREL+1
	.long	-1
	.section	.text,"xr",one_only,_ZN4core3ptr118drop_in_place$LT$alloc..boxed..Box$LT$dyn$u20$core..error..Error$u2b$core..marker..Sync$u2b$core..marker..Send$GT$$GT$17h2c7a11eec3f497adE

	.def	_ZN4core3ptr160drop_in_place$LT$alloc..collections..btree..map..BTreeMap$LT$std..sys..windows..process..EnvKey$C$core..option..Option$LT$std..ffi..os_str..OsString$GT$$GT$$GT$17h56b08d3e9fc2b1bdE;
	.scl	3;
	.type	32;
	.endef
	.section	.text,"xr",one_only,_ZN4core3ptr160drop_in_place$LT$alloc..collections..btree..map..BTreeMap$LT$std..sys..windows..process..EnvKey$C$core..option..Option$LT$std..ffi..os_str..OsString$GT$$GT$$GT$17h56b08d3e9fc2b1bdE
	.p2align	4, 0x90
_ZN4core3ptr160drop_in_place$LT$alloc..collections..btree..map..BTreeMap$LT$std..sys..windows..process..EnvKey$C$core..option..Option$LT$std..ffi..os_str..OsString$GT$$GT$$GT$17h56b08d3e9fc2b1bdE:
.Lfunc_begin39:
	.cv_func_id 80
	.cv_loc	80 4 490 0
.seh_proc _ZN4core3ptr160drop_in_place$LT$alloc..collections..btree..map..BTreeMap$LT$std..sys..windows..process..EnvKey$C$core..option..Option$LT$std..ffi..os_str..OsString$GT$$GT$$GT$17h56b08d3e9fc2b1bdE
	subq	$40, %rsp
	.seh_stackalloc 40
	.seh_endprologue
	movq	%rcx, 32(%rsp)
.Ltmp301:
	callq	_ZN99_$LT$alloc..collections..btree..map..BTreeMap$LT$K$C$V$C$A$GT$$u20$as$u20$core..ops..drop..Drop$GT$4drop17hc61622713a375b5cE
	nop
	addq	$40, %rsp
	retq
.Ltmp302:
.Lfunc_end39:
	.seh_endproc

	.def	_ZN4core3ptr160drop_in_place$LT$alloc..collections..btree..map..IntoIter$LT$std..sys..windows..process..EnvKey$C$core..option..Option$LT$std..ffi..os_str..OsString$GT$$GT$$GT$17h24dd972ef285645cE;
	.scl	3;
	.type	32;
	.endef
	.section	.text,"xr",one_only,_ZN4core3ptr160drop_in_place$LT$alloc..collections..btree..map..IntoIter$LT$std..sys..windows..process..EnvKey$C$core..option..Option$LT$std..ffi..os_str..OsString$GT$$GT$$GT$17h24dd972ef285645cE
	.p2align	4, 0x90
_ZN4core3ptr160drop_in_place$LT$alloc..collections..btree..map..IntoIter$LT$std..sys..windows..process..EnvKey$C$core..option..Option$LT$std..ffi..os_str..OsString$GT$$GT$$GT$17h24dd972ef285645cE:
.Lfunc_begin40:
	.cv_func_id 81
	.cv_loc	81 4 490 0
.seh_proc _ZN4core3ptr160drop_in_place$LT$alloc..collections..btree..map..IntoIter$LT$std..sys..windows..process..EnvKey$C$core..option..Option$LT$std..ffi..os_str..OsString$GT$$GT$$GT$17h24dd972ef285645cE
	subq	$40, %rsp
	.seh_stackalloc 40
	.seh_endprologue
	movq	%rcx, 32(%rsp)
.Ltmp303:
	callq	_ZN99_$LT$alloc..collections..btree..map..IntoIter$LT$K$C$V$C$A$GT$$u20$as$u20$core..ops..drop..Drop$GT$4drop17h19a6e477f902cd85E
	nop
	addq	$40, %rsp
	retq
.Ltmp304:
.Lfunc_end40:
	.seh_endproc

	.def	_ZN4core3ptr258drop_in_place$LT$$LT$alloc..collections..btree..map..IntoIter$LT$K$C$V$C$A$GT$$u20$as$u20$core..ops..drop..Drop$GT$..drop..DropGuard$LT$std..sys..windows..process..EnvKey$C$core..option..Option$LT$std..ffi..os_str..OsString$GT$$C$alloc..alloc..Global$GT$$GT$17ha657678aedffdd91E;
	.scl	3;
	.type	32;
	.endef
	.section	.text,"xr",one_only,_ZN4core3ptr258drop_in_place$LT$$LT$alloc..collections..btree..map..IntoIter$LT$K$C$V$C$A$GT$$u20$as$u20$core..ops..drop..Drop$GT$..drop..DropGuard$LT$std..sys..windows..process..EnvKey$C$core..option..Option$LT$std..ffi..os_str..OsString$GT$$C$alloc..alloc..Global$GT$$GT$17ha657678aedffdd91E
	.p2align	4, 0x90
_ZN4core3ptr258drop_in_place$LT$$LT$alloc..collections..btree..map..IntoIter$LT$K$C$V$C$A$GT$$u20$as$u20$core..ops..drop..Drop$GT$..drop..DropGuard$LT$std..sys..windows..process..EnvKey$C$core..option..Option$LT$std..ffi..os_str..OsString$GT$$C$alloc..alloc..Global$GT$$GT$17ha657678aedffdd91E:
.Lfunc_begin41:
	.cv_func_id 82
	.cv_loc	82 4 490 0
.seh_proc _ZN4core3ptr258drop_in_place$LT$$LT$alloc..collections..btree..map..IntoIter$LT$K$C$V$C$A$GT$$u20$as$u20$core..ops..drop..Drop$GT$..drop..DropGuard$LT$std..sys..windows..process..EnvKey$C$core..option..Option$LT$std..ffi..os_str..OsString$GT$$C$alloc..alloc..Global$GT$$GT$17ha657678aedffdd91E
	subq	$40, %rsp
	.seh_stackalloc 40
	.seh_endprologue
	movq	%rcx, 32(%rsp)
.Ltmp305:
	callq	_ZN174_$LT$$LT$alloc..collections..btree..map..IntoIter$LT$K$C$V$C$A$GT$$u20$as$u20$core..ops..drop..Drop$GT$..drop..DropGuard$LT$K$C$V$C$A$GT$$u20$as$u20$core..ops..drop..Drop$GT$4drop17h48cd8119c9a5ea59E
	nop
	addq	$40, %rsp
	retq
.Ltmp306:
.Lfunc_end41:
	.seh_endproc

	.def	_ZN4core3ptr41drop_in_place$LT$std..process..Output$GT$17h6ef2b384026c81daE;
	.scl	3;
	.type	32;
	.endef
	.section	.text,"xr",one_only,_ZN4core3ptr41drop_in_place$LT$std..process..Output$GT$17h6ef2b384026c81daE
	.p2align	4, 0x90
_ZN4core3ptr41drop_in_place$LT$std..process..Output$GT$17h6ef2b384026c81daE:
.Lfunc_begin42:
	.cv_func_id 83
	.cv_loc	83 4 490 0
.seh_proc _ZN4core3ptr41drop_in_place$LT$std..process..Output$GT$17h6ef2b384026c81daE
	.seh_handler __CxxFrameHandler3, @unwind, @except
	pushq	%rbp
	.seh_pushreg %rbp
	subq	$64, %rsp
	.seh_stackalloc 64
	leaq	64(%rsp), %rbp
	.seh_setframe %rbp, 64
	.seh_endprologue
	movq	$-2, -8(%rbp)
	movq	%rcx, -24(%rbp)
	movq	%rcx, -16(%rbp)
.Ltmp307:
.Ltmp309:
	callq	_ZN4core3ptr46drop_in_place$LT$alloc..vec..Vec$LT$u8$GT$$GT$17h6806ae5ad25d7aafE
.Ltmp308:
	jmp	.LBB42_2
.LBB42_2:
	movq	-24(%rbp), %rcx
	addq	$24, %rcx
	callq	_ZN4core3ptr46drop_in_place$LT$alloc..vec..Vec$LT$u8$GT$$GT$17h6806ae5ad25d7aafE
	nop
	addq	$64, %rsp
	popq	%rbp
	retq
	.seh_handlerdata
	.long	($cppxdata$_ZN4core3ptr41drop_in_place$LT$std..process..Output$GT$17h6ef2b384026c81daE)@IMGREL
	.section	.text,"xr",one_only,_ZN4core3ptr41drop_in_place$LT$std..process..Output$GT$17h6ef2b384026c81daE
	.seh_endproc
	.def	"?dtor$1@?0?_ZN4core3ptr41drop_in_place$LT$std..process..Output$GT$17h6ef2b384026c81daE@4HA";
	.scl	3;
	.type	32;
	.endef
	.p2align	4, 0x90
"?dtor$1@?0?_ZN4core3ptr41drop_in_place$LT$std..process..Output$GT$17h6ef2b384026c81daE@4HA":
.seh_proc "?dtor$1@?0?_ZN4core3ptr41drop_in_place$LT$std..process..Output$GT$17h6ef2b384026c81daE@4HA"
.LBB42_1:
	movq	%rdx, 16(%rsp)
	pushq	%rbp
	.seh_pushreg %rbp
	subq	$32, %rsp
	.seh_stackalloc 32
	leaq	64(%rdx), %rbp
	.seh_endprologue
	movq	-24(%rbp), %rcx
	addq	$24, %rcx
	callq	_ZN4core3ptr46drop_in_place$LT$alloc..vec..Vec$LT$u8$GT$$GT$17h6806ae5ad25d7aafE
	nop
	addq	$32, %rsp
	popq	%rbp
	retq
.Ltmp310:
.Lfunc_end42:
	.seh_handlerdata
	.section	.text,"xr",one_only,_ZN4core3ptr41drop_in_place$LT$std..process..Output$GT$17h6ef2b384026c81daE
	.seh_endproc
	.section	.xdata,"dr",associative,_ZN4core3ptr41drop_in_place$LT$std..process..Output$GT$17h6ef2b384026c81daE
	.p2align	2
$cppxdata$_ZN4core3ptr41drop_in_place$LT$std..process..Output$GT$17h6ef2b384026c81daE:
	.long	429065506
	.long	1
	.long	($stateUnwindMap$_ZN4core3ptr41drop_in_place$LT$std..process..Output$GT$17h6ef2b384026c81daE)@IMGREL
	.long	0
	.long	0
	.long	3
	.long	($ip2state$_ZN4core3ptr41drop_in_place$LT$std..process..Output$GT$17h6ef2b384026c81daE)@IMGREL
	.long	56
	.long	0
	.long	1
$stateUnwindMap$_ZN4core3ptr41drop_in_place$LT$std..process..Output$GT$17h6ef2b384026c81daE:
	.long	-1
	.long	"?dtor$1@?0?_ZN4core3ptr41drop_in_place$LT$std..process..Output$GT$17h6ef2b384026c81daE@4HA"@IMGREL
$ip2state$_ZN4core3ptr41drop_in_place$LT$std..process..Output$GT$17h6ef2b384026c81daE:
	.long	.Lfunc_begin42@IMGREL
	.long	-1
	.long	.Ltmp307@IMGREL+1
	.long	0
	.long	.Ltmp308@IMGREL+1
	.long	-1
	.section	.text,"xr",one_only,_ZN4core3ptr41drop_in_place$LT$std..process..Output$GT$17h6ef2b384026c81daE

	.def	_ZN4core3ptr42drop_in_place$LT$alloc..string..String$GT$17hdba871dcb5f7e381E;
	.scl	3;
	.type	32;
	.endef
	.section	.text,"xr",one_only,_ZN4core3ptr42drop_in_place$LT$alloc..string..String$GT$17hdba871dcb5f7e381E
	.p2align	4, 0x90
_ZN4core3ptr42drop_in_place$LT$alloc..string..String$GT$17hdba871dcb5f7e381E:
.Lfunc_begin43:
	.cv_func_id 84
	.cv_loc	84 4 490 0
.seh_proc _ZN4core3ptr42drop_in_place$LT$alloc..string..String$GT$17hdba871dcb5f7e381E
	subq	$40, %rsp
	.seh_stackalloc 40
	.seh_endprologue
	movq	%rcx, 32(%rsp)
.Ltmp311:
	callq	_ZN4core3ptr46drop_in_place$LT$alloc..vec..Vec$LT$u8$GT$$GT$17h6806ae5ad25d7aafE
	nop
	addq	$40, %rsp
	retq
.Ltmp312:
.Lfunc_end43:
	.seh_endproc

	.def	_ZN4core3ptr42drop_in_place$LT$std..io..error..Error$GT$17h070ba17eab25c992E;
	.scl	3;
	.type	32;
	.endef
	.section	.text,"xr",one_only,_ZN4core3ptr42drop_in_place$LT$std..io..error..Error$GT$17h070ba17eab25c992E
	.p2align	4, 0x90
_ZN4core3ptr42drop_in_place$LT$std..io..error..Error$GT$17h070ba17eab25c992E:
.Lfunc_begin44:
	.cv_func_id 85
	.cv_loc	85 4 490 0
.seh_proc _ZN4core3ptr42drop_in_place$LT$std..io..error..Error$GT$17h070ba17eab25c992E
	subq	$40, %rsp
	.seh_stackalloc 40
	.seh_endprologue
	movq	%rcx, 32(%rsp)
.Ltmp313:
	callq	_ZN4core3ptr57drop_in_place$LT$std..io..error..repr_bitpacked..Repr$GT$17had1963c9bff73272E
	nop
	addq	$40, %rsp
	retq
.Ltmp314:
.Lfunc_end44:
	.seh_endproc

	.def	_ZN4core3ptr42drop_in_place$LT$std..process..Command$GT$17h79f1cfe12b03807fE;
	.scl	3;
	.type	32;
	.endef
	.section	.text,"xr",one_only,_ZN4core3ptr42drop_in_place$LT$std..process..Command$GT$17h79f1cfe12b03807fE
	.p2align	4, 0x90
_ZN4core3ptr42drop_in_place$LT$std..process..Command$GT$17h79f1cfe12b03807fE:
.Lfunc_begin45:
	.cv_func_id 86
	.cv_loc	86 4 490 0
.seh_proc _ZN4core3ptr42drop_in_place$LT$std..process..Command$GT$17h79f1cfe12b03807fE
	subq	$40, %rsp
	.seh_stackalloc 40
	.seh_endprologue
	movq	%rcx, 32(%rsp)
.Ltmp315:
	callq	_ZN4core3ptr56drop_in_place$LT$std..sys..windows..process..Command$GT$17hbd7c34d7d7bae136E
	nop
	addq	$40, %rsp
	retq
.Ltmp316:
.Lfunc_end45:
	.seh_endproc

	.def	_ZN4core3ptr43drop_in_place$LT$std..io..error..Custom$GT$17h9b47dd43a33ce388E;
	.scl	3;
	.type	32;
	.endef
	.section	.text,"xr",one_only,_ZN4core3ptr43drop_in_place$LT$std..io..error..Custom$GT$17h9b47dd43a33ce388E
	.p2align	4, 0x90
_ZN4core3ptr43drop_in_place$LT$std..io..error..Custom$GT$17h9b47dd43a33ce388E:
.Lfunc_begin46:
	.cv_func_id 87
	.cv_loc	87 4 490 0
.seh_proc _ZN4core3ptr43drop_in_place$LT$std..io..error..Custom$GT$17h9b47dd43a33ce388E
	subq	$40, %rsp
	.seh_stackalloc 40
	.seh_endprologue
	movq	%rcx, 32(%rsp)
.Ltmp317:
	callq	_ZN4core3ptr118drop_in_place$LT$alloc..boxed..Box$LT$dyn$u20$core..error..Error$u2b$core..marker..Sync$u2b$core..marker..Send$GT$$GT$17h2c7a11eec3f497adE
	nop
	addq	$40, %rsp
	retq
.Ltmp318:
.Lfunc_end46:
	.seh_endproc

	.def	_ZN4core3ptr46drop_in_place$LT$alloc..vec..Vec$LT$u8$GT$$GT$17h6806ae5ad25d7aafE;
	.scl	3;
	.type	32;
	.endef
	.section	.text,"xr",one_only,_ZN4core3ptr46drop_in_place$LT$alloc..vec..Vec$LT$u8$GT$$GT$17h6806ae5ad25d7aafE
	.p2align	4, 0x90
_ZN4core3ptr46drop_in_place$LT$alloc..vec..Vec$LT$u8$GT$$GT$17h6806ae5ad25d7aafE:
.Lfunc_begin47:
	.cv_func_id 88
	.cv_loc	88 4 490 0
.seh_proc _ZN4core3ptr46drop_in_place$LT$alloc..vec..Vec$LT$u8$GT$$GT$17h6806ae5ad25d7aafE
	.seh_handler __CxxFrameHandler3, @unwind, @except
	pushq	%rbp
	.seh_pushreg %rbp
	subq	$64, %rsp
	.seh_stackalloc 64
	leaq	64(%rsp), %rbp
	.seh_setframe %rbp, 64
	.seh_endprologue
	movq	$-2, -8(%rbp)
	movq	%rcx, -24(%rbp)
	movq	%rcx, -16(%rbp)
.Ltmp319:
.Ltmp321:
	callq	_ZN70_$LT$alloc..vec..Vec$LT$T$C$A$GT$$u20$as$u20$core..ops..drop..Drop$GT$4drop17hc18cc686a3ea9c7eE
.Ltmp320:
	jmp	.LBB47_2
.LBB47_2:
	movq	-24(%rbp), %rcx
	callq	_ZN4core3ptr53drop_in_place$LT$alloc..raw_vec..RawVec$LT$u8$GT$$GT$17hfba4af56ba4c0ee7E
	nop
	addq	$64, %rsp
	popq	%rbp
	retq
	.seh_handlerdata
	.long	($cppxdata$_ZN4core3ptr46drop_in_place$LT$alloc..vec..Vec$LT$u8$GT$$GT$17h6806ae5ad25d7aafE)@IMGREL
	.section	.text,"xr",one_only,_ZN4core3ptr46drop_in_place$LT$alloc..vec..Vec$LT$u8$GT$$GT$17h6806ae5ad25d7aafE
	.seh_endproc
	.def	"?dtor$1@?0?_ZN4core3ptr46drop_in_place$LT$alloc..vec..Vec$LT$u8$GT$$GT$17h6806ae5ad25d7aafE@4HA";
	.scl	3;
	.type	32;
	.endef
	.p2align	4, 0x90
"?dtor$1@?0?_ZN4core3ptr46drop_in_place$LT$alloc..vec..Vec$LT$u8$GT$$GT$17h6806ae5ad25d7aafE@4HA":
.seh_proc "?dtor$1@?0?_ZN4core3ptr46drop_in_place$LT$alloc..vec..Vec$LT$u8$GT$$GT$17h6806ae5ad25d7aafE@4HA"
.LBB47_1:
	movq	%rdx, 16(%rsp)
	pushq	%rbp
	.seh_pushreg %rbp
	subq	$32, %rsp
	.seh_stackalloc 32
	leaq	64(%rdx), %rbp
	.seh_endprologue
	movq	-24(%rbp), %rcx
	callq	_ZN4core3ptr53drop_in_place$LT$alloc..raw_vec..RawVec$LT$u8$GT$$GT$17hfba4af56ba4c0ee7E
	nop
	addq	$32, %rsp
	popq	%rbp
	retq
.Ltmp322:
.Lfunc_end47:
	.seh_handlerdata
	.section	.text,"xr",one_only,_ZN4core3ptr46drop_in_place$LT$alloc..vec..Vec$LT$u8$GT$$GT$17h6806ae5ad25d7aafE
	.seh_endproc
	.section	.xdata,"dr",associative,_ZN4core3ptr46drop_in_place$LT$alloc..vec..Vec$LT$u8$GT$$GT$17h6806ae5ad25d7aafE
	.p2align	2
$cppxdata$_ZN4core3ptr46drop_in_place$LT$alloc..vec..Vec$LT$u8$GT$$GT$17h6806ae5ad25d7aafE:
	.long	429065506
	.long	1
	.long	($stateUnwindMap$_ZN4core3ptr46drop_in_place$LT$alloc..vec..Vec$LT$u8$GT$$GT$17h6806ae5ad25d7aafE)@IMGREL
	.long	0
	.long	0
	.long	3
	.long	($ip2state$_ZN4core3ptr46drop_in_place$LT$alloc..vec..Vec$LT$u8$GT$$GT$17h6806ae5ad25d7aafE)@IMGREL
	.long	56
	.long	0
	.long	1
$stateUnwindMap$_ZN4core3ptr46drop_in_place$LT$alloc..vec..Vec$LT$u8$GT$$GT$17h6806ae5ad25d7aafE:
	.long	-1
	.long	"?dtor$1@?0?_ZN4core3ptr46drop_in_place$LT$alloc..vec..Vec$LT$u8$GT$$GT$17h6806ae5ad25d7aafE@4HA"@IMGREL
$ip2state$_ZN4core3ptr46drop_in_place$LT$alloc..vec..Vec$LT$u8$GT$$GT$17h6806ae5ad25d7aafE:
	.long	.Lfunc_begin47@IMGREL
	.long	-1
	.long	.Ltmp319@IMGREL+1
	.long	0
	.long	.Ltmp320@IMGREL+1
	.long	-1
	.section	.text,"xr",one_only,_ZN4core3ptr46drop_in_place$LT$alloc..vec..Vec$LT$u8$GT$$GT$17h6806ae5ad25d7aafE

	.def	_ZN4core3ptr47drop_in_place$LT$alloc..vec..Vec$LT$u16$GT$$GT$17hbbe0b0646e9b8150E;
	.scl	3;
	.type	32;
	.endef
	.section	.text,"xr",one_only,_ZN4core3ptr47drop_in_place$LT$alloc..vec..Vec$LT$u16$GT$$GT$17hbbe0b0646e9b8150E
	.p2align	4, 0x90
_ZN4core3ptr47drop_in_place$LT$alloc..vec..Vec$LT$u16$GT$$GT$17hbbe0b0646e9b8150E:
.Lfunc_begin48:
	.cv_func_id 89
	.cv_loc	89 4 490 0
.seh_proc _ZN4core3ptr47drop_in_place$LT$alloc..vec..Vec$LT$u16$GT$$GT$17hbbe0b0646e9b8150E
	.seh_handler __CxxFrameHandler3, @unwind, @except
	pushq	%rbp
	.seh_pushreg %rbp
	subq	$64, %rsp
	.seh_stackalloc 64
	leaq	64(%rsp), %rbp
	.seh_setframe %rbp, 64
	.seh_endprologue
	movq	$-2, -8(%rbp)
	movq	%rcx, -24(%rbp)
	movq	%rcx, -16(%rbp)
.Ltmp323:
.Ltmp325:
	callq	_ZN70_$LT$alloc..vec..Vec$LT$T$C$A$GT$$u20$as$u20$core..ops..drop..Drop$GT$4drop17hcfea796694fe94d9E
.Ltmp324:
	jmp	.LBB48_2
.LBB48_2:
	movq	-24(%rbp), %rcx
	callq	_ZN4core3ptr54drop_in_place$LT$alloc..raw_vec..RawVec$LT$u16$GT$$GT$17h4494ce30a791bd88E
	nop
	addq	$64, %rsp
	popq	%rbp
	retq
	.seh_handlerdata
	.long	($cppxdata$_ZN4core3ptr47drop_in_place$LT$alloc..vec..Vec$LT$u16$GT$$GT$17hbbe0b0646e9b8150E)@IMGREL
	.section	.text,"xr",one_only,_ZN4core3ptr47drop_in_place$LT$alloc..vec..Vec$LT$u16$GT$$GT$17hbbe0b0646e9b8150E
	.seh_endproc
	.def	"?dtor$1@?0?_ZN4core3ptr47drop_in_place$LT$alloc..vec..Vec$LT$u16$GT$$GT$17hbbe0b0646e9b8150E@4HA";
	.scl	3;
	.type	32;
	.endef
	.p2align	4, 0x90
"?dtor$1@?0?_ZN4core3ptr47drop_in_place$LT$alloc..vec..Vec$LT$u16$GT$$GT$17hbbe0b0646e9b8150E@4HA":
.seh_proc "?dtor$1@?0?_ZN4core3ptr47drop_in_place$LT$alloc..vec..Vec$LT$u16$GT$$GT$17hbbe0b0646e9b8150E@4HA"
.LBB48_1:
	movq	%rdx, 16(%rsp)
	pushq	%rbp
	.seh_pushreg %rbp
	subq	$32, %rsp
	.seh_stackalloc 32
	leaq	64(%rdx), %rbp
	.seh_endprologue
	movq	-24(%rbp), %rcx
	callq	_ZN4core3ptr54drop_in_place$LT$alloc..raw_vec..RawVec$LT$u16$GT$$GT$17h4494ce30a791bd88E
	nop
	addq	$32, %rsp
	popq	%rbp
	retq
.Ltmp326:
.Lfunc_end48:
	.seh_handlerdata
	.section	.text,"xr",one_only,_ZN4core3ptr47drop_in_place$LT$alloc..vec..Vec$LT$u16$GT$$GT$17hbbe0b0646e9b8150E
	.seh_endproc
	.section	.xdata,"dr",associative,_ZN4core3ptr47drop_in_place$LT$alloc..vec..Vec$LT$u16$GT$$GT$17hbbe0b0646e9b8150E
	.p2align	2
$cppxdata$_ZN4core3ptr47drop_in_place$LT$alloc..vec..Vec$LT$u16$GT$$GT$17hbbe0b0646e9b8150E:
	.long	429065506
	.long	1
	.long	($stateUnwindMap$_ZN4core3ptr47drop_in_place$LT$alloc..vec..Vec$LT$u16$GT$$GT$17hbbe0b0646e9b8150E)@IMGREL
	.long	0
	.long	0
	.long	3
	.long	($ip2state$_ZN4core3ptr47drop_in_place$LT$alloc..vec..Vec$LT$u16$GT$$GT$17hbbe0b0646e9b8150E)@IMGREL
	.long	56
	.long	0
	.long	1
$stateUnwindMap$_ZN4core3ptr47drop_in_place$LT$alloc..vec..Vec$LT$u16$GT$$GT$17hbbe0b0646e9b8150E:
	.long	-1
	.long	"?dtor$1@?0?_ZN4core3ptr47drop_in_place$LT$alloc..vec..Vec$LT$u16$GT$$GT$17hbbe0b0646e9b8150E@4HA"@IMGREL
$ip2state$_ZN4core3ptr47drop_in_place$LT$alloc..vec..Vec$LT$u16$GT$$GT$17hbbe0b0646e9b8150E:
	.long	.Lfunc_begin48@IMGREL
	.long	-1
	.long	.Ltmp323@IMGREL+1
	.long	0
	.long	.Ltmp324@IMGREL+1
	.long	-1
	.section	.text,"xr",one_only,_ZN4core3ptr47drop_in_place$LT$alloc..vec..Vec$LT$u16$GT$$GT$17hbbe0b0646e9b8150E

	.def	_ZN4core3ptr47drop_in_place$LT$std..ffi..os_str..OsString$GT$17h39d1be984fa0c5aaE;
	.scl	3;
	.type	32;
	.endef
	.section	.text,"xr",one_only,_ZN4core3ptr47drop_in_place$LT$std..ffi..os_str..OsString$GT$17h39d1be984fa0c5aaE
	.p2align	4, 0x90
_ZN4core3ptr47drop_in_place$LT$std..ffi..os_str..OsString$GT$17h39d1be984fa0c5aaE:
.Lfunc_begin49:
	.cv_func_id 90
	.cv_loc	90 4 490 0
.seh_proc _ZN4core3ptr47drop_in_place$LT$std..ffi..os_str..OsString$GT$17h39d1be984fa0c5aaE
	subq	$40, %rsp
	.seh_stackalloc 40
	.seh_endprologue
	movq	%rcx, 32(%rsp)
.Ltmp327:
	callq	_ZN4core3ptr51drop_in_place$LT$std..sys..windows..os_str..Buf$GT$17h26620d2412bdd7d9E
	nop
	addq	$40, %rsp
	retq
.Ltmp328:
.Lfunc_end49:
	.seh_endproc

	.def	_ZN4core3ptr49drop_in_place$LT$std..sys..windows..args..Arg$GT$17h73756bbb9f43f753E;
	.scl	3;
	.type	32;
	.endef
	.section	.text,"xr",one_only,_ZN4core3ptr49drop_in_place$LT$std..sys..windows..args..Arg$GT$17h73756bbb9f43f753E
	.p2align	4, 0x90
_ZN4core3ptr49drop_in_place$LT$std..sys..windows..args..Arg$GT$17h73756bbb9f43f753E:
.Lfunc_begin50:
	.cv_func_id 91
	.cv_loc	91 4 490 0
.seh_proc _ZN4core3ptr49drop_in_place$LT$std..sys..windows..args..Arg$GT$17h73756bbb9f43f753E
	subq	$56, %rsp
	.seh_stackalloc 56
	.seh_endprologue
	movq	%rcx, 40(%rsp)
	movq	%rcx, 48(%rsp)
.Ltmp329:
	cmpq	$0, (%rcx)
	jne	.LBB50_2
	movq	40(%rsp), %rcx
	addq	$8, %rcx
	callq	_ZN4core3ptr47drop_in_place$LT$std..ffi..os_str..OsString$GT$17h39d1be984fa0c5aaE
	jmp	.LBB50_3
.LBB50_2:
	movq	40(%rsp), %rcx
	addq	$8, %rcx
	callq	_ZN4core3ptr47drop_in_place$LT$std..ffi..os_str..OsString$GT$17h39d1be984fa0c5aaE
.LBB50_3:
	nop
	addq	$56, %rsp
	retq
.Ltmp330:
.Lfunc_end50:
	.seh_endproc

	.def	_ZN4core3ptr50drop_in_place$LT$alloc..borrow..Cow$LT$str$GT$$GT$17h1fdc1b144dbfb74eE;
	.scl	3;
	.type	32;
	.endef
	.section	.text,"xr",one_only,_ZN4core3ptr50drop_in_place$LT$alloc..borrow..Cow$LT$str$GT$$GT$17h1fdc1b144dbfb74eE
	.p2align	4, 0x90
_ZN4core3ptr50drop_in_place$LT$alloc..borrow..Cow$LT$str$GT$$GT$17h1fdc1b144dbfb74eE:
.Lfunc_begin51:
	.cv_func_id 92
	.cv_loc	92 4 490 0
.seh_proc _ZN4core3ptr50drop_in_place$LT$alloc..borrow..Cow$LT$str$GT$$GT$17h1fdc1b144dbfb74eE
	subq	$56, %rsp
	.seh_stackalloc 56
	.seh_endprologue
	movq	%rcx, %rdx
	movq	%rdx, 40(%rsp)
	movq	%rdx, 48(%rsp)
.Ltmp331:
	movl	$1, %eax
	xorl	%ecx, %ecx
	cmpq	$0, (%rdx)
	cmoveq	%rcx, %rax
	cmpq	$0, %rax
	jne	.LBB51_2
.LBB51_1:
	addq	$56, %rsp
	retq
.LBB51_2:
	movq	40(%rsp), %rcx
	callq	_ZN4core3ptr42drop_in_place$LT$alloc..string..String$GT$17hdba871dcb5f7e381E
	jmp	.LBB51_1
.Ltmp332:
.Lfunc_end51:
	.seh_endproc

	.def	_ZN4core3ptr51drop_in_place$LT$std..sys..windows..os_str..Buf$GT$17h26620d2412bdd7d9E;
	.scl	3;
	.type	32;
	.endef
	.section	.text,"xr",one_only,_ZN4core3ptr51drop_in_place$LT$std..sys..windows..os_str..Buf$GT$17h26620d2412bdd7d9E
	.p2align	4, 0x90
_ZN4core3ptr51drop_in_place$LT$std..sys..windows..os_str..Buf$GT$17h26620d2412bdd7d9E:
.Lfunc_begin52:
	.cv_func_id 93
	.cv_loc	93 4 490 0
.seh_proc _ZN4core3ptr51drop_in_place$LT$std..sys..windows..os_str..Buf$GT$17h26620d2412bdd7d9E
	subq	$40, %rsp
	.seh_stackalloc 40
	.seh_endprologue
	movq	%rcx, 32(%rsp)
.Ltmp333:
	callq	_ZN4core3ptr51drop_in_place$LT$std..sys_common..wtf8..Wtf8Buf$GT$17hac8580ca49d5bd4fE
	nop
	addq	$40, %rsp
	retq
.Ltmp334:
.Lfunc_end52:
	.seh_endproc

	.def	_ZN4core3ptr51drop_in_place$LT$std..sys_common..wtf8..Wtf8Buf$GT$17hac8580ca49d5bd4fE;
	.scl	3;
	.type	32;
	.endef
	.section	.text,"xr",one_only,_ZN4core3ptr51drop_in_place$LT$std..sys_common..wtf8..Wtf8Buf$GT$17hac8580ca49d5bd4fE
	.p2align	4, 0x90
_ZN4core3ptr51drop_in_place$LT$std..sys_common..wtf8..Wtf8Buf$GT$17hac8580ca49d5bd4fE:
.Lfunc_begin53:
	.cv_func_id 94
	.cv_loc	94 4 490 0
.seh_proc _ZN4core3ptr51drop_in_place$LT$std..sys_common..wtf8..Wtf8Buf$GT$17hac8580ca49d5bd4fE
	subq	$40, %rsp
	.seh_stackalloc 40
	.seh_endprologue
	movq	%rcx, 32(%rsp)
.Ltmp335:
	callq	_ZN4core3ptr46drop_in_place$LT$alloc..vec..Vec$LT$u8$GT$$GT$17h6806ae5ad25d7aafE
	nop
	addq	$40, %rsp
	retq
.Ltmp336:
.Lfunc_end53:
	.seh_endproc

	.def	_ZN4core3ptr53drop_in_place$LT$alloc..raw_vec..RawVec$LT$u8$GT$$GT$17hfba4af56ba4c0ee7E;
	.scl	3;
	.type	32;
	.endef
	.section	.text,"xr",one_only,_ZN4core3ptr53drop_in_place$LT$alloc..raw_vec..RawVec$LT$u8$GT$$GT$17hfba4af56ba4c0ee7E
	.p2align	4, 0x90
_ZN4core3ptr53drop_in_place$LT$alloc..raw_vec..RawVec$LT$u8$GT$$GT$17hfba4af56ba4c0ee7E:
.Lfunc_begin54:
	.cv_func_id 95
	.cv_loc	95 4 490 0
.seh_proc _ZN4core3ptr53drop_in_place$LT$alloc..raw_vec..RawVec$LT$u8$GT$$GT$17hfba4af56ba4c0ee7E
	subq	$40, %rsp
	.seh_stackalloc 40
	.seh_endprologue
	movq	%rcx, 32(%rsp)
.Ltmp337:
	callq	_ZN77_$LT$alloc..raw_vec..RawVec$LT$T$C$A$GT$$u20$as$u20$core..ops..drop..Drop$GT$4drop17hb0ab89207950373eE
	nop
	addq	$40, %rsp
	retq
.Ltmp338:
.Lfunc_end54:
	.seh_endproc

	.def	_ZN4core3ptr54drop_in_place$LT$alloc..raw_vec..RawVec$LT$u16$GT$$GT$17h4494ce30a791bd88E;
	.scl	3;
	.type	32;
	.endef
	.section	.text,"xr",one_only,_ZN4core3ptr54drop_in_place$LT$alloc..raw_vec..RawVec$LT$u16$GT$$GT$17h4494ce30a791bd88E
	.p2align	4, 0x90
_ZN4core3ptr54drop_in_place$LT$alloc..raw_vec..RawVec$LT$u16$GT$$GT$17h4494ce30a791bd88E:
.Lfunc_begin55:
	.cv_func_id 96
	.cv_loc	96 4 490 0
.seh_proc _ZN4core3ptr54drop_in_place$LT$alloc..raw_vec..RawVec$LT$u16$GT$$GT$17h4494ce30a791bd88E
	subq	$40, %rsp
	.seh_stackalloc 40
	.seh_endprologue
	movq	%rcx, 32(%rsp)
.Ltmp339:
	callq	_ZN77_$LT$alloc..raw_vec..RawVec$LT$T$C$A$GT$$u20$as$u20$core..ops..drop..Drop$GT$4drop17h0f17593c9cc548ccE
	nop
	addq	$40, %rsp
	retq
.Ltmp340:
.Lfunc_end55:
	.seh_endproc

	.def	_ZN4core3ptr54drop_in_place$LT$std..sys..windows..handle..Handle$GT$17h2cc77a707e7d86f9E;
	.scl	3;
	.type	32;
	.endef
	.section	.text,"xr",one_only,_ZN4core3ptr54drop_in_place$LT$std..sys..windows..handle..Handle$GT$17h2cc77a707e7d86f9E
	.p2align	4, 0x90
_ZN4core3ptr54drop_in_place$LT$std..sys..windows..handle..Handle$GT$17h2cc77a707e7d86f9E:
.Lfunc_begin56:
	.cv_func_id 97
	.cv_loc	97 4 490 0
.seh_proc _ZN4core3ptr54drop_in_place$LT$std..sys..windows..handle..Handle$GT$17h2cc77a707e7d86f9E
	subq	$40, %rsp
	.seh_stackalloc 40
	.seh_endprologue
	movq	%rcx, 32(%rsp)
.Ltmp341:
	callq	_ZN4core3ptr62drop_in_place$LT$std..os..windows..io..handle..OwnedHandle$GT$17h83ffab8ad2e58aabE
	nop
	addq	$40, %rsp
	retq
.Ltmp342:
.Lfunc_end56:
	.seh_endproc

	.def	_ZN4core3ptr54drop_in_place$LT$std..sys..windows..pipe..AnonPipe$GT$17h84131a3f7d8ed4f4E;
	.scl	3;
	.type	32;
	.endef
	.section	.text,"xr",one_only,_ZN4core3ptr54drop_in_place$LT$std..sys..windows..pipe..AnonPipe$GT$17h84131a3f7d8ed4f4E
	.p2align	4, 0x90
_ZN4core3ptr54drop_in_place$LT$std..sys..windows..pipe..AnonPipe$GT$17h84131a3f7d8ed4f4E:
.Lfunc_begin57:
	.cv_func_id 98
	.cv_loc	98 4 490 0
.seh_proc _ZN4core3ptr54drop_in_place$LT$std..sys..windows..pipe..AnonPipe$GT$17h84131a3f7d8ed4f4E
	subq	$40, %rsp
	.seh_stackalloc 40
	.seh_endprologue
	movq	%rcx, 32(%rsp)
.Ltmp343:
	callq	_ZN4core3ptr54drop_in_place$LT$std..sys..windows..handle..Handle$GT$17h2cc77a707e7d86f9E
	nop
	addq	$40, %rsp
	retq
.Ltmp344:
.Lfunc_end57:
	.seh_endproc

	.def	_ZN4core3ptr54drop_in_place$LT$std..sys..windows..process..Stdio$GT$17h879255d7161e35f9E;
	.scl	3;
	.type	32;
	.endef
	.section	.text,"xr",one_only,_ZN4core3ptr54drop_in_place$LT$std..sys..windows..process..Stdio$GT$17h879255d7161e35f9E
	.p2align	4, 0x90
_ZN4core3ptr54drop_in_place$LT$std..sys..windows..process..Stdio$GT$17h879255d7161e35f9E:
.Lfunc_begin58:
	.cv_func_id 99
	.cv_loc	99 4 490 0
.seh_proc _ZN4core3ptr54drop_in_place$LT$std..sys..windows..process..Stdio$GT$17h879255d7161e35f9E
	subq	$56, %rsp
	.seh_stackalloc 56
	.seh_endprologue
	movq	%rcx, 32(%rsp)
	movq	%rcx, 48(%rsp)
.Ltmp345:
	movq	(%rcx), %rax
	movq	%rax, 40(%rsp)
	subq	$3, %rax
	jb	.LBB58_2
	jmp	.LBB58_4
.LBB58_4:
	movq	40(%rsp), %rax
	subq	$3, %rax
	je	.LBB58_3
	jmp	.LBB58_1
.LBB58_1:
	movq	32(%rsp), %rcx
	addq	$8, %rcx
	callq	_ZN4core3ptr54drop_in_place$LT$std..sys..windows..handle..Handle$GT$17h2cc77a707e7d86f9E
.LBB58_2:
	nop
	addq	$56, %rsp
	retq
.LBB58_3:
	movq	32(%rsp), %rcx
	addq	$8, %rcx
	callq	_ZN4core3ptr54drop_in_place$LT$std..sys..windows..pipe..AnonPipe$GT$17h84131a3f7d8ed4f4E
	jmp	.LBB58_2
.Ltmp346:
.Lfunc_end58:
	.seh_endproc

	.def	_ZN4core3ptr55drop_in_place$LT$std..sys..windows..process..EnvKey$GT$17h78807dbda447094aE;
	.scl	3;
	.type	32;
	.endef
	.section	.text,"xr",one_only,_ZN4core3ptr55drop_in_place$LT$std..sys..windows..process..EnvKey$GT$17h78807dbda447094aE
	.p2align	4, 0x90
_ZN4core3ptr55drop_in_place$LT$std..sys..windows..process..EnvKey$GT$17h78807dbda447094aE:
.Lfunc_begin59:
	.cv_func_id 100
	.cv_loc	100 4 490 0
.seh_proc _ZN4core3ptr55drop_in_place$LT$std..sys..windows..process..EnvKey$GT$17h78807dbda447094aE
	.seh_handler __CxxFrameHandler3, @unwind, @except
	pushq	%rbp
	.seh_pushreg %rbp
	subq	$64, %rsp
	.seh_stackalloc 64
	leaq	64(%rsp), %rbp
	.seh_setframe %rbp, 64
	.seh_endprologue
	movq	$-2, -8(%rbp)
	movq	%rcx, -24(%rbp)
	movq	%rcx, -16(%rbp)
.Ltmp347:
.Ltmp349:
	callq	_ZN4core3ptr47drop_in_place$LT$std..ffi..os_str..OsString$GT$17h39d1be984fa0c5aaE
.Ltmp348:
	jmp	.LBB59_2
.LBB59_2:
	movq	-24(%rbp), %rcx
	addq	$32, %rcx
	callq	_ZN4core3ptr47drop_in_place$LT$alloc..vec..Vec$LT$u16$GT$$GT$17hbbe0b0646e9b8150E
	nop
	addq	$64, %rsp
	popq	%rbp
	retq
	.seh_handlerdata
	.long	($cppxdata$_ZN4core3ptr55drop_in_place$LT$std..sys..windows..process..EnvKey$GT$17h78807dbda447094aE)@IMGREL
	.section	.text,"xr",one_only,_ZN4core3ptr55drop_in_place$LT$std..sys..windows..process..EnvKey$GT$17h78807dbda447094aE
	.seh_endproc
	.def	"?dtor$1@?0?_ZN4core3ptr55drop_in_place$LT$std..sys..windows..process..EnvKey$GT$17h78807dbda447094aE@4HA";
	.scl	3;
	.type	32;
	.endef
	.p2align	4, 0x90
"?dtor$1@?0?_ZN4core3ptr55drop_in_place$LT$std..sys..windows..process..EnvKey$GT$17h78807dbda447094aE@4HA":
.seh_proc "?dtor$1@?0?_ZN4core3ptr55drop_in_place$LT$std..sys..windows..process..EnvKey$GT$17h78807dbda447094aE@4HA"
.LBB59_1:
	movq	%rdx, 16(%rsp)
	pushq	%rbp
	.seh_pushreg %rbp
	subq	$32, %rsp
	.seh_stackalloc 32
	leaq	64(%rdx), %rbp
	.seh_endprologue
	movq	-24(%rbp), %rcx
	addq	$32, %rcx
	callq	_ZN4core3ptr47drop_in_place$LT$alloc..vec..Vec$LT$u16$GT$$GT$17hbbe0b0646e9b8150E
	nop
	addq	$32, %rsp
	popq	%rbp
	retq
.Ltmp350:
.Lfunc_end59:
	.seh_handlerdata
	.section	.text,"xr",one_only,_ZN4core3ptr55drop_in_place$LT$std..sys..windows..process..EnvKey$GT$17h78807dbda447094aE
	.seh_endproc
	.section	.xdata,"dr",associative,_ZN4core3ptr55drop_in_place$LT$std..sys..windows..process..EnvKey$GT$17h78807dbda447094aE
	.p2align	2
$cppxdata$_ZN4core3ptr55drop_in_place$LT$std..sys..windows..process..EnvKey$GT$17h78807dbda447094aE:
	.long	429065506
	.long	1
	.long	($stateUnwindMap$_ZN4core3ptr55drop_in_place$LT$std..sys..windows..process..EnvKey$GT$17h78807dbda447094aE)@IMGREL
	.long	0
	.long	0
	.long	3
	.long	($ip2state$_ZN4core3ptr55drop_in_place$LT$std..sys..windows..process..EnvKey$GT$17h78807dbda447094aE)@IMGREL
	.long	56
	.long	0
	.long	1
$stateUnwindMap$_ZN4core3ptr55drop_in_place$LT$std..sys..windows..process..EnvKey$GT$17h78807dbda447094aE:
	.long	-1
	.long	"?dtor$1@?0?_ZN4core3ptr55drop_in_place$LT$std..sys..windows..process..EnvKey$GT$17h78807dbda447094aE@4HA"@IMGREL
$ip2state$_ZN4core3ptr55drop_in_place$LT$std..sys..windows..process..EnvKey$GT$17h78807dbda447094aE:
	.long	.Lfunc_begin59@IMGREL
	.long	-1
	.long	.Ltmp347@IMGREL+1
	.long	0
	.long	.Ltmp348@IMGREL+1
	.long	-1
	.section	.text,"xr",one_only,_ZN4core3ptr55drop_in_place$LT$std..sys..windows..process..EnvKey$GT$17h78807dbda447094aE

	.def	_ZN4core3ptr56drop_in_place$LT$std..sys..windows..process..Command$GT$17hbd7c34d7d7bae136E;
	.scl	3;
	.type	32;
	.endef
	.section	.text,"xr",one_only,_ZN4core3ptr56drop_in_place$LT$std..sys..windows..process..Command$GT$17hbd7c34d7d7bae136E
	.p2align	4, 0x90
_ZN4core3ptr56drop_in_place$LT$std..sys..windows..process..Command$GT$17hbd7c34d7d7bae136E:
.Lfunc_begin60:
	.cv_func_id 101
	.cv_loc	101 4 490 0
.seh_proc _ZN4core3ptr56drop_in_place$LT$std..sys..windows..process..Command$GT$17hbd7c34d7d7bae136E
	.seh_handler __CxxFrameHandler3, @unwind, @except
	pushq	%rbp
	.seh_pushreg %rbp
	subq	$64, %rsp
	.seh_stackalloc 64
	leaq	64(%rsp), %rbp
	.seh_setframe %rbp, 64
	.seh_endprologue
	movq	$-2, -8(%rbp)
	movq	%rcx, -24(%rbp)
	movq	%rcx, -16(%rbp)
.Ltmp351:
.Ltmp363:
	callq	_ZN4core3ptr47drop_in_place$LT$std..ffi..os_str..OsString$GT$17h39d1be984fa0c5aaE
.Ltmp352:
	jmp	.LBB60_2
.LBB60_2:
	movq	-24(%rbp), %rcx
	addq	$32, %rcx
.Ltmp353:
	callq	_ZN4core3ptr72drop_in_place$LT$alloc..vec..Vec$LT$std..sys..windows..args..Arg$GT$$GT$17h29be0ede21564ecaE
.Ltmp354:
	jmp	.LBB60_4
.LBB60_4:
	movq	-24(%rbp), %rcx
	addq	$56, %rcx
.Ltmp355:
	callq	_ZN4core3ptr57drop_in_place$LT$std..sys_common..process..CommandEnv$GT$17h6e210b6bad378ca7E
.Ltmp356:
	jmp	.LBB60_6
.LBB60_6:
	movq	-24(%rbp), %rcx
	addq	$88, %rcx
.Ltmp357:
	callq	_ZN4core3ptr75drop_in_place$LT$core..option..Option$LT$std..ffi..os_str..OsString$GT$$GT$17haceb75093c61b6d0E
.Ltmp358:
	jmp	.LBB60_8
.LBB60_8:
	movq	-24(%rbp), %rcx
	addq	$120, %rcx
.Ltmp359:
	callq	_ZN4core3ptr82drop_in_place$LT$core..option..Option$LT$std..sys..windows..process..Stdio$GT$$GT$17hf2bc3b28af915bb7E
.Ltmp360:
	jmp	.LBB60_10
.LBB60_10:
	movq	-24(%rbp), %rcx
	addq	$136, %rcx
.Ltmp361:
	callq	_ZN4core3ptr82drop_in_place$LT$core..option..Option$LT$std..sys..windows..process..Stdio$GT$$GT$17hf2bc3b28af915bb7E
.Ltmp362:
	jmp	.LBB60_12
.LBB60_12:
	movq	-24(%rbp), %rcx
	addq	$152, %rcx
	callq	_ZN4core3ptr82drop_in_place$LT$core..option..Option$LT$std..sys..windows..process..Stdio$GT$$GT$17hf2bc3b28af915bb7E
	nop
	addq	$64, %rsp
	popq	%rbp
	retq
	.seh_handlerdata
	.long	($cppxdata$_ZN4core3ptr56drop_in_place$LT$std..sys..windows..process..Command$GT$17hbd7c34d7d7bae136E)@IMGREL
	.section	.text,"xr",one_only,_ZN4core3ptr56drop_in_place$LT$std..sys..windows..process..Command$GT$17hbd7c34d7d7bae136E
	.seh_endproc
	.def	"?dtor$1@?0?_ZN4core3ptr56drop_in_place$LT$std..sys..windows..process..Command$GT$17hbd7c34d7d7bae136E@4HA";
	.scl	3;
	.type	32;
	.endef
	.p2align	4, 0x90
"?dtor$1@?0?_ZN4core3ptr56drop_in_place$LT$std..sys..windows..process..Command$GT$17hbd7c34d7d7bae136E@4HA":
.seh_proc "?dtor$1@?0?_ZN4core3ptr56drop_in_place$LT$std..sys..windows..process..Command$GT$17hbd7c34d7d7bae136E@4HA"
.LBB60_1:
	movq	%rdx, 16(%rsp)
	pushq	%rbp
	.seh_pushreg %rbp
	subq	$32, %rsp
	.seh_stackalloc 32
	leaq	64(%rdx), %rbp
	.seh_endprologue
	movq	-24(%rbp), %rcx
	addq	$32, %rcx
	callq	_ZN4core3ptr72drop_in_place$LT$alloc..vec..Vec$LT$std..sys..windows..args..Arg$GT$$GT$17h29be0ede21564ecaE
	nop
	addq	$32, %rsp
	popq	%rbp
	retq
	.seh_handlerdata
	.section	.text,"xr",one_only,_ZN4core3ptr56drop_in_place$LT$std..sys..windows..process..Command$GT$17hbd7c34d7d7bae136E
	.seh_endproc
	.def	"?dtor$3@?0?_ZN4core3ptr56drop_in_place$LT$std..sys..windows..process..Command$GT$17hbd7c34d7d7bae136E@4HA";
	.scl	3;
	.type	32;
	.endef
	.p2align	4, 0x90
"?dtor$3@?0?_ZN4core3ptr56drop_in_place$LT$std..sys..windows..process..Command$GT$17hbd7c34d7d7bae136E@4HA":
.seh_proc "?dtor$3@?0?_ZN4core3ptr56drop_in_place$LT$std..sys..windows..process..Command$GT$17hbd7c34d7d7bae136E@4HA"
.LBB60_3:
	movq	%rdx, 16(%rsp)
	pushq	%rbp
	.seh_pushreg %rbp
	subq	$32, %rsp
	.seh_stackalloc 32
	leaq	64(%rdx), %rbp
	.seh_endprologue
	movq	-24(%rbp), %rcx
	addq	$56, %rcx
	callq	_ZN4core3ptr57drop_in_place$LT$std..sys_common..process..CommandEnv$GT$17h6e210b6bad378ca7E
	nop
	addq	$32, %rsp
	popq	%rbp
	retq
	.seh_handlerdata
	.section	.text,"xr",one_only,_ZN4core3ptr56drop_in_place$LT$std..sys..windows..process..Command$GT$17hbd7c34d7d7bae136E
	.seh_endproc
	.def	"?dtor$5@?0?_ZN4core3ptr56drop_in_place$LT$std..sys..windows..process..Command$GT$17hbd7c34d7d7bae136E@4HA";
	.scl	3;
	.type	32;
	.endef
	.p2align	4, 0x90
"?dtor$5@?0?_ZN4core3ptr56drop_in_place$LT$std..sys..windows..process..Command$GT$17hbd7c34d7d7bae136E@4HA":
.seh_proc "?dtor$5@?0?_ZN4core3ptr56drop_in_place$LT$std..sys..windows..process..Command$GT$17hbd7c34d7d7bae136E@4HA"
.LBB60_5:
	movq	%rdx, 16(%rsp)
	pushq	%rbp
	.seh_pushreg %rbp
	subq	$32, %rsp
	.seh_stackalloc 32
	leaq	64(%rdx), %rbp
	.seh_endprologue
	movq	-24(%rbp), %rcx
	addq	$88, %rcx
	callq	_ZN4core3ptr75drop_in_place$LT$core..option..Option$LT$std..ffi..os_str..OsString$GT$$GT$17haceb75093c61b6d0E
	nop
	addq	$32, %rsp
	popq	%rbp
	retq
	.seh_handlerdata
	.section	.text,"xr",one_only,_ZN4core3ptr56drop_in_place$LT$std..sys..windows..process..Command$GT$17hbd7c34d7d7bae136E
	.seh_endproc
	.def	"?dtor$7@?0?_ZN4core3ptr56drop_in_place$LT$std..sys..windows..process..Command$GT$17hbd7c34d7d7bae136E@4HA";
	.scl	3;
	.type	32;
	.endef
	.p2align	4, 0x90
"?dtor$7@?0?_ZN4core3ptr56drop_in_place$LT$std..sys..windows..process..Command$GT$17hbd7c34d7d7bae136E@4HA":
.seh_proc "?dtor$7@?0?_ZN4core3ptr56drop_in_place$LT$std..sys..windows..process..Command$GT$17hbd7c34d7d7bae136E@4HA"
.LBB60_7:
	movq	%rdx, 16(%rsp)
	pushq	%rbp
	.seh_pushreg %rbp
	subq	$32, %rsp
	.seh_stackalloc 32
	leaq	64(%rdx), %rbp
	.seh_endprologue
	movq	-24(%rbp), %rcx
	addq	$120, %rcx
	callq	_ZN4core3ptr82drop_in_place$LT$core..option..Option$LT$std..sys..windows..process..Stdio$GT$$GT$17hf2bc3b28af915bb7E
	nop
	addq	$32, %rsp
	popq	%rbp
	retq
	.seh_handlerdata
	.section	.text,"xr",one_only,_ZN4core3ptr56drop_in_place$LT$std..sys..windows..process..Command$GT$17hbd7c34d7d7bae136E
	.seh_endproc
	.def	"?dtor$9@?0?_ZN4core3ptr56drop_in_place$LT$std..sys..windows..process..Command$GT$17hbd7c34d7d7bae136E@4HA";
	.scl	3;
	.type	32;
	.endef
	.p2align	4, 0x90
"?dtor$9@?0?_ZN4core3ptr56drop_in_place$LT$std..sys..windows..process..Command$GT$17hbd7c34d7d7bae136E@4HA":
.seh_proc "?dtor$9@?0?_ZN4core3ptr56drop_in_place$LT$std..sys..windows..process..Command$GT$17hbd7c34d7d7bae136E@4HA"
.LBB60_9:
	movq	%rdx, 16(%rsp)
	pushq	%rbp
	.seh_pushreg %rbp
	subq	$32, %rsp
	.seh_stackalloc 32
	leaq	64(%rdx), %rbp
	.seh_endprologue
	movq	-24(%rbp), %rcx
	addq	$136, %rcx
	callq	_ZN4core3ptr82drop_in_place$LT$core..option..Option$LT$std..sys..windows..process..Stdio$GT$$GT$17hf2bc3b28af915bb7E
	nop
	addq	$32, %rsp
	popq	%rbp
	retq
	.seh_handlerdata
	.section	.text,"xr",one_only,_ZN4core3ptr56drop_in_place$LT$std..sys..windows..process..Command$GT$17hbd7c34d7d7bae136E
	.seh_endproc
	.def	"?dtor$11@?0?_ZN4core3ptr56drop_in_place$LT$std..sys..windows..process..Command$GT$17hbd7c34d7d7bae136E@4HA";
	.scl	3;
	.type	32;
	.endef
	.p2align	4, 0x90
"?dtor$11@?0?_ZN4core3ptr56drop_in_place$LT$std..sys..windows..process..Command$GT$17hbd7c34d7d7bae136E@4HA":
.seh_proc "?dtor$11@?0?_ZN4core3ptr56drop_in_place$LT$std..sys..windows..process..Command$GT$17hbd7c34d7d7bae136E@4HA"
.LBB60_11:
	movq	%rdx, 16(%rsp)
	pushq	%rbp
	.seh_pushreg %rbp
	subq	$32, %rsp
	.seh_stackalloc 32
	leaq	64(%rdx), %rbp
	.seh_endprologue
	movq	-24(%rbp), %rcx
	addq	$152, %rcx
	callq	_ZN4core3ptr82drop_in_place$LT$core..option..Option$LT$std..sys..windows..process..Stdio$GT$$GT$17hf2bc3b28af915bb7E
	nop
	addq	$32, %rsp
	popq	%rbp
	retq
.Ltmp364:
.Lfunc_end60:
	.seh_handlerdata
	.section	.text,"xr",one_only,_ZN4core3ptr56drop_in_place$LT$std..sys..windows..process..Command$GT$17hbd7c34d7d7bae136E
	.seh_endproc
	.section	.xdata,"dr",associative,_ZN4core3ptr56drop_in_place$LT$std..sys..windows..process..Command$GT$17hbd7c34d7d7bae136E
	.p2align	2
$cppxdata$_ZN4core3ptr56drop_in_place$LT$std..sys..windows..process..Command$GT$17hbd7c34d7d7bae136E:
	.long	429065506
	.long	6
	.long	($stateUnwindMap$_ZN4core3ptr56drop_in_place$LT$std..sys..windows..process..Command$GT$17hbd7c34d7d7bae136E)@IMGREL
	.long	0
	.long	0
	.long	8
	.long	($ip2state$_ZN4core3ptr56drop_in_place$LT$std..sys..windows..process..Command$GT$17hbd7c34d7d7bae136E)@IMGREL
	.long	56
	.long	0
	.long	1
$stateUnwindMap$_ZN4core3ptr56drop_in_place$LT$std..sys..windows..process..Command$GT$17hbd7c34d7d7bae136E:
	.long	-1
	.long	"?dtor$11@?0?_ZN4core3ptr56drop_in_place$LT$std..sys..windows..process..Command$GT$17hbd7c34d7d7bae136E@4HA"@IMGREL
	.long	0
	.long	"?dtor$9@?0?_ZN4core3ptr56drop_in_place$LT$std..sys..windows..process..Command$GT$17hbd7c34d7d7bae136E@4HA"@IMGREL
	.long	1
	.long	"?dtor$7@?0?_ZN4core3ptr56drop_in_place$LT$std..sys..windows..process..Command$GT$17hbd7c34d7d7bae136E@4HA"@IMGREL
	.long	2
	.long	"?dtor$5@?0?_ZN4core3ptr56drop_in_place$LT$std..sys..windows..process..Command$GT$17hbd7c34d7d7bae136E@4HA"@IMGREL
	.long	3
	.long	"?dtor$3@?0?_ZN4core3ptr56drop_in_place$LT$std..sys..windows..process..Command$GT$17hbd7c34d7d7bae136E@4HA"@IMGREL
	.long	4
	.long	"?dtor$1@?0?_ZN4core3ptr56drop_in_place$LT$std..sys..windows..process..Command$GT$17hbd7c34d7d7bae136E@4HA"@IMGREL
$ip2state$_ZN4core3ptr56drop_in_place$LT$std..sys..windows..process..Command$GT$17hbd7c34d7d7bae136E:
	.long	.Lfunc_begin60@IMGREL
	.long	-1
	.long	.Ltmp351@IMGREL+1
	.long	5
	.long	.Ltmp353@IMGREL+1
	.long	4
	.long	.Ltmp355@IMGREL+1
	.long	3
	.long	.Ltmp357@IMGREL+1
	.long	2
	.long	.Ltmp359@IMGREL+1
	.long	1
	.long	.Ltmp361@IMGREL+1
	.long	0
	.long	.Ltmp362@IMGREL+1
	.long	-1
	.section	.text,"xr",one_only,_ZN4core3ptr56drop_in_place$LT$std..sys..windows..process..Command$GT$17hbd7c34d7d7bae136E

	.def	_ZN4core3ptr57drop_in_place$LT$std..io..error..repr_bitpacked..Repr$GT$17had1963c9bff73272E;
	.scl	3;
	.type	32;
	.endef
	.section	.text,"xr",one_only,_ZN4core3ptr57drop_in_place$LT$std..io..error..repr_bitpacked..Repr$GT$17had1963c9bff73272E
	.p2align	4, 0x90
_ZN4core3ptr57drop_in_place$LT$std..io..error..repr_bitpacked..Repr$GT$17had1963c9bff73272E:
.Lfunc_begin61:
	.cv_func_id 102
	.cv_loc	102 4 490 0
.seh_proc _ZN4core3ptr57drop_in_place$LT$std..io..error..repr_bitpacked..Repr$GT$17had1963c9bff73272E
	subq	$40, %rsp
	.seh_stackalloc 40
	.seh_endprologue
	movq	%rcx, 32(%rsp)
.Ltmp365:
	callq	_ZN78_$LT$std..io..error..repr_bitpacked..Repr$u20$as$u20$core..ops..drop..Drop$GT$4drop17hd55d341a63059178E
	nop
	addq	$40, %rsp
	retq
.Ltmp366:
.Lfunc_end61:
	.seh_endproc

	.def	_ZN4core3ptr57drop_in_place$LT$std..sys_common..process..CommandEnv$GT$17h6e210b6bad378ca7E;
	.scl	3;
	.type	32;
	.endef
	.section	.text,"xr",one_only,_ZN4core3ptr57drop_in_place$LT$std..sys_common..process..CommandEnv$GT$17h6e210b6bad378ca7E
	.p2align	4, 0x90
_ZN4core3ptr57drop_in_place$LT$std..sys_common..process..CommandEnv$GT$17h6e210b6bad378ca7E:
.Lfunc_begin62:
	.cv_func_id 103
	.cv_loc	103 4 490 0
.seh_proc _ZN4core3ptr57drop_in_place$LT$std..sys_common..process..CommandEnv$GT$17h6e210b6bad378ca7E
	subq	$40, %rsp
	.seh_stackalloc 40
	.seh_endprologue
	movq	%rcx, 32(%rsp)
.Ltmp367:
	callq	_ZN4core3ptr160drop_in_place$LT$alloc..collections..btree..map..BTreeMap$LT$std..sys..windows..process..EnvKey$C$core..option..Option$LT$std..ffi..os_str..OsString$GT$$GT$$GT$17h56b08d3e9fc2b1bdE
	nop
	addq	$40, %rsp
	retq
.Ltmp368:
.Lfunc_end62:
	.seh_endproc

	.def	_ZN4core3ptr59drop_in_place$LT$$u5b$std..sys..windows..args..Arg$u5d$$GT$17hf05b07b0c237f6a8E;
	.scl	3;
	.type	32;
	.endef
	.section	.text,"xr",one_only,_ZN4core3ptr59drop_in_place$LT$$u5b$std..sys..windows..args..Arg$u5d$$GT$17hf05b07b0c237f6a8E
	.p2align	4, 0x90
_ZN4core3ptr59drop_in_place$LT$$u5b$std..sys..windows..args..Arg$u5d$$GT$17hf05b07b0c237f6a8E:
.Lfunc_begin63:
	.cv_func_id 104
	.cv_loc	104 4 490 0
.seh_proc _ZN4core3ptr59drop_in_place$LT$$u5b$std..sys..windows..args..Arg$u5d$$GT$17hf05b07b0c237f6a8E
	.seh_handler __CxxFrameHandler3, @unwind, @except
	pushq	%rbp
	.seh_pushreg %rbp
	subq	$80, %rsp
	.seh_stackalloc 80
	leaq	80(%rsp), %rbp
	.seh_setframe %rbp, 80
	.seh_endprologue
	movq	$-2, -8(%rbp)
	movq	%rcx, -24(%rbp)
	movq	%rdx, -16(%rbp)
.Ltmp371:
	movq	%rcx, -32(%rbp)
	imulq	$40, %rdx, %rax
	addq	-32(%rbp), %rax
	movq	%rax, -40(%rbp)
.LBB63_1:
	movq	-40(%rbp), %rax
	cmpq	%rax, -32(%rbp)
	je	.LBB63_3
	movq	-32(%rbp), %rcx
	movq	%rcx, %rax
	addq	$40, %rax
	movq	%rax, -32(%rbp)
.Ltmp369:
	callq	_ZN4core3ptr49drop_in_place$LT$std..sys..windows..args..Arg$GT$17h73756bbb9f43f753E
.Ltmp370:
	jmp	.LBB63_1
.LBB63_3:
	addq	$80, %rsp
	popq	%rbp
	retq
.LBB63_4:
	movq	-40(%rbp), %rax
	cmpq	%rax, -32(%rbp)
	je	.LBB63_8
	jmp	.LBB63_6
	.seh_handlerdata
	.long	($cppxdata$_ZN4core3ptr59drop_in_place$LT$$u5b$std..sys..windows..args..Arg$u5d$$GT$17hf05b07b0c237f6a8E)@IMGREL
	.section	.text,"xr",one_only,_ZN4core3ptr59drop_in_place$LT$$u5b$std..sys..windows..args..Arg$u5d$$GT$17hf05b07b0c237f6a8E
	.seh_endproc
	.def	"?dtor$5@?0?_ZN4core3ptr59drop_in_place$LT$$u5b$std..sys..windows..args..Arg$u5d$$GT$17hf05b07b0c237f6a8E@4HA";
	.scl	3;
	.type	32;
	.endef
	.p2align	4, 0x90
"?dtor$5@?0?_ZN4core3ptr59drop_in_place$LT$$u5b$std..sys..windows..args..Arg$u5d$$GT$17hf05b07b0c237f6a8E@4HA":
.seh_proc "?dtor$5@?0?_ZN4core3ptr59drop_in_place$LT$$u5b$std..sys..windows..args..Arg$u5d$$GT$17hf05b07b0c237f6a8E@4HA"
.LBB63_5:
	movq	%rdx, 16(%rsp)
	pushq	%rbp
	.seh_pushreg %rbp
	subq	$32, %rsp
	.seh_stackalloc 32
	leaq	80(%rdx), %rbp
	.seh_endprologue
	jmp	.LBB63_4
.LBB63_6:
	movq	-32(%rbp), %rcx
	movq	-32(%rbp), %rax
	addq	$40, %rax
	movq	%rax, -32(%rbp)
	callq	_ZN4core3ptr49drop_in_place$LT$std..sys..windows..args..Arg$GT$17h73756bbb9f43f753E
	jmp	.LBB63_4
.LBB63_8:
	addq	$32, %rsp
	popq	%rbp
	retq
	.seh_handlerdata
	.section	.text,"xr",one_only,_ZN4core3ptr59drop_in_place$LT$$u5b$std..sys..windows..args..Arg$u5d$$GT$17hf05b07b0c237f6a8E
	.seh_endproc
	.def	"?dtor$7@?0?_ZN4core3ptr59drop_in_place$LT$$u5b$std..sys..windows..args..Arg$u5d$$GT$17hf05b07b0c237f6a8E@4HA";
	.scl	3;
	.type	32;
	.endef
	.p2align	4, 0x90
"?dtor$7@?0?_ZN4core3ptr59drop_in_place$LT$$u5b$std..sys..windows..args..Arg$u5d$$GT$17hf05b07b0c237f6a8E@4HA":
.seh_proc "?dtor$7@?0?_ZN4core3ptr59drop_in_place$LT$$u5b$std..sys..windows..args..Arg$u5d$$GT$17hf05b07b0c237f6a8E@4HA"
.LBB63_7:
	movq	%rdx, 16(%rsp)
	pushq	%rbp
	.seh_pushreg %rbp
	subq	$32, %rsp
	.seh_stackalloc 32
	leaq	80(%rdx), %rbp
	.seh_endprologue
	addq	$32, %rsp
	popq	%rbp
	retq
.Ltmp372:
.Lfunc_end63:
	.seh_handlerdata
	.section	.text,"xr",one_only,_ZN4core3ptr59drop_in_place$LT$$u5b$std..sys..windows..args..Arg$u5d$$GT$17hf05b07b0c237f6a8E
	.seh_endproc
	.section	.xdata,"dr",associative,_ZN4core3ptr59drop_in_place$LT$$u5b$std..sys..windows..args..Arg$u5d$$GT$17hf05b07b0c237f6a8E
	.p2align	2
$cppxdata$_ZN4core3ptr59drop_in_place$LT$$u5b$std..sys..windows..args..Arg$u5d$$GT$17hf05b07b0c237f6a8E:
	.long	429065506
	.long	2
	.long	($stateUnwindMap$_ZN4core3ptr59drop_in_place$LT$$u5b$std..sys..windows..args..Arg$u5d$$GT$17hf05b07b0c237f6a8E)@IMGREL
	.long	0
	.long	0
	.long	3
	.long	($ip2state$_ZN4core3ptr59drop_in_place$LT$$u5b$std..sys..windows..args..Arg$u5d$$GT$17hf05b07b0c237f6a8E)@IMGREL
	.long	72
	.long	0
	.long	1
$stateUnwindMap$_ZN4core3ptr59drop_in_place$LT$$u5b$std..sys..windows..args..Arg$u5d$$GT$17hf05b07b0c237f6a8E:
	.long	-1
	.long	"?dtor$7@?0?_ZN4core3ptr59drop_in_place$LT$$u5b$std..sys..windows..args..Arg$u5d$$GT$17hf05b07b0c237f6a8E@4HA"@IMGREL
	.long	0
	.long	"?dtor$5@?0?_ZN4core3ptr59drop_in_place$LT$$u5b$std..sys..windows..args..Arg$u5d$$GT$17hf05b07b0c237f6a8E@4HA"@IMGREL
$ip2state$_ZN4core3ptr59drop_in_place$LT$$u5b$std..sys..windows..args..Arg$u5d$$GT$17hf05b07b0c237f6a8E:
	.long	.Lfunc_begin63@IMGREL
	.long	-1
	.long	.Ltmp369@IMGREL+1
	.long	1
	.long	.Ltmp370@IMGREL+1
	.long	-1
	.section	.text,"xr",one_only,_ZN4core3ptr59drop_in_place$LT$$u5b$std..sys..windows..args..Arg$u5d$$GT$17hf05b07b0c237f6a8E

	.def	_ZN4core3ptr62drop_in_place$LT$std..os..windows..io..handle..OwnedHandle$GT$17h83ffab8ad2e58aabE;
	.scl	3;
	.type	32;
	.endef
	.section	.text,"xr",one_only,_ZN4core3ptr62drop_in_place$LT$std..os..windows..io..handle..OwnedHandle$GT$17h83ffab8ad2e58aabE
	.p2align	4, 0x90
_ZN4core3ptr62drop_in_place$LT$std..os..windows..io..handle..OwnedHandle$GT$17h83ffab8ad2e58aabE:
.Lfunc_begin64:
	.cv_func_id 105
	.cv_loc	105 4 490 0
.seh_proc _ZN4core3ptr62drop_in_place$LT$std..os..windows..io..handle..OwnedHandle$GT$17h83ffab8ad2e58aabE
	subq	$40, %rsp
	.seh_stackalloc 40
	.seh_endprologue
	movq	%rcx, 32(%rsp)
.Ltmp373:
	callq	_ZN83_$LT$std..os..windows..io..handle..OwnedHandle$u20$as$u20$core..ops..drop..Drop$GT$4drop17h8ebf0600c38ec3c4E
	nop
	addq	$40, %rsp
	retq
.Ltmp374:
.Lfunc_end64:
	.seh_endproc

	.def	_ZN4core3ptr68drop_in_place$LT$alloc..boxed..Box$LT$std..io..error..Custom$GT$$GT$17h0f3d36cb8a5bd669E;
	.scl	3;
	.type	32;
	.endef
	.section	.text,"xr",one_only,_ZN4core3ptr68drop_in_place$LT$alloc..boxed..Box$LT$std..io..error..Custom$GT$$GT$17h0f3d36cb8a5bd669E
	.p2align	4, 0x90
_ZN4core3ptr68drop_in_place$LT$alloc..boxed..Box$LT$std..io..error..Custom$GT$$GT$17h0f3d36cb8a5bd669E:
.Lfunc_begin65:
	.cv_func_id 106
	.cv_loc	106 4 490 0
.seh_proc _ZN4core3ptr68drop_in_place$LT$alloc..boxed..Box$LT$std..io..error..Custom$GT$$GT$17h0f3d36cb8a5bd669E
	.seh_handler __CxxFrameHandler3, @unwind, @except
	pushq	%rbp
	.seh_pushreg %rbp
	subq	$64, %rsp
	.seh_stackalloc 64
	leaq	64(%rsp), %rbp
	.seh_setframe %rbp, 64
	.seh_endprologue
	movq	$-2, -8(%rbp)
	movq	%rcx, -24(%rbp)
	movq	%rcx, -16(%rbp)
.Ltmp377:
	movq	(%rcx), %rcx
.Ltmp375:
	callq	_ZN4core3ptr43drop_in_place$LT$std..io..error..Custom$GT$17h9b47dd43a33ce388E
.Ltmp376:
	jmp	.LBB65_2
.LBB65_2:
	movq	-24(%rbp), %rax
	movq	(%rax), %rcx
	callq	_ZN5alloc5alloc8box_free17h87b3972909d8cdb7E
	nop
	addq	$64, %rsp
	popq	%rbp
	retq
	.seh_handlerdata
	.long	($cppxdata$_ZN4core3ptr68drop_in_place$LT$alloc..boxed..Box$LT$std..io..error..Custom$GT$$GT$17h0f3d36cb8a5bd669E)@IMGREL
	.section	.text,"xr",one_only,_ZN4core3ptr68drop_in_place$LT$alloc..boxed..Box$LT$std..io..error..Custom$GT$$GT$17h0f3d36cb8a5bd669E
	.seh_endproc
	.def	"?dtor$1@?0?_ZN4core3ptr68drop_in_place$LT$alloc..boxed..Box$LT$std..io..error..Custom$GT$$GT$17h0f3d36cb8a5bd669E@4HA";
	.scl	3;
	.type	32;
	.endef
	.p2align	4, 0x90
"?dtor$1@?0?_ZN4core3ptr68drop_in_place$LT$alloc..boxed..Box$LT$std..io..error..Custom$GT$$GT$17h0f3d36cb8a5bd669E@4HA":
.seh_proc "?dtor$1@?0?_ZN4core3ptr68drop_in_place$LT$alloc..boxed..Box$LT$std..io..error..Custom$GT$$GT$17h0f3d36cb8a5bd669E@4HA"
.LBB65_1:
	movq	%rdx, 16(%rsp)
	pushq	%rbp
	.seh_pushreg %rbp
	subq	$32, %rsp
	.seh_stackalloc 32
	leaq	64(%rdx), %rbp
	.seh_endprologue
	movq	-24(%rbp), %rax
	movq	(%rax), %rcx
	callq	_ZN5alloc5alloc8box_free17h87b3972909d8cdb7E
	nop
	addq	$32, %rsp
	popq	%rbp
	retq
.Ltmp378:
.Lfunc_end65:
	.seh_handlerdata
	.section	.text,"xr",one_only,_ZN4core3ptr68drop_in_place$LT$alloc..boxed..Box$LT$std..io..error..Custom$GT$$GT$17h0f3d36cb8a5bd669E
	.seh_endproc
	.section	.xdata,"dr",associative,_ZN4core3ptr68drop_in_place$LT$alloc..boxed..Box$LT$std..io..error..Custom$GT$$GT$17h0f3d36cb8a5bd669E
	.p2align	2
$cppxdata$_ZN4core3ptr68drop_in_place$LT$alloc..boxed..Box$LT$std..io..error..Custom$GT$$GT$17h0f3d36cb8a5bd669E:
	.long	429065506
	.long	1
	.long	($stateUnwindMap$_ZN4core3ptr68drop_in_place$LT$alloc..boxed..Box$LT$std..io..error..Custom$GT$$GT$17h0f3d36cb8a5bd669E)@IMGREL
	.long	0
	.long	0
	.long	3
	.long	($ip2state$_ZN4core3ptr68drop_in_place$LT$alloc..boxed..Box$LT$std..io..error..Custom$GT$$GT$17h0f3d36cb8a5bd669E)@IMGREL
	.long	56
	.long	0
	.long	1
$stateUnwindMap$_ZN4core3ptr68drop_in_place$LT$alloc..boxed..Box$LT$std..io..error..Custom$GT$$GT$17h0f3d36cb8a5bd669E:
	.long	-1
	.long	"?dtor$1@?0?_ZN4core3ptr68drop_in_place$LT$alloc..boxed..Box$LT$std..io..error..Custom$GT$$GT$17h0f3d36cb8a5bd669E@4HA"@IMGREL
$ip2state$_ZN4core3ptr68drop_in_place$LT$alloc..boxed..Box$LT$std..io..error..Custom$GT$$GT$17h0f3d36cb8a5bd669E:
	.long	.Lfunc_begin65@IMGREL
	.long	-1
	.long	.Ltmp375@IMGREL+1
	.long	0
	.long	.Ltmp376@IMGREL+1
	.long	-1
	.section	.text,"xr",one_only,_ZN4core3ptr68drop_in_place$LT$alloc..boxed..Box$LT$std..io..error..Custom$GT$$GT$17h0f3d36cb8a5bd669E

	.def	_ZN4core3ptr72drop_in_place$LT$alloc..collections..btree..mem..replace..PanicGuard$GT$17h559f1fb7c4e4ed10E;
	.scl	3;
	.type	32;
	.endef
	.section	.text,"xr",one_only,_ZN4core3ptr72drop_in_place$LT$alloc..collections..btree..mem..replace..PanicGuard$GT$17h559f1fb7c4e4ed10E
	.p2align	4, 0x90
_ZN4core3ptr72drop_in_place$LT$alloc..collections..btree..mem..replace..PanicGuard$GT$17h559f1fb7c4e4ed10E:
.Lfunc_begin66:
	.cv_func_id 107
	.cv_loc	107 4 490 0
.seh_proc _ZN4core3ptr72drop_in_place$LT$alloc..collections..btree..mem..replace..PanicGuard$GT$17h559f1fb7c4e4ed10E
	subq	$40, %rsp
	.seh_stackalloc 40
	.seh_endprologue
	movq	%rcx, 32(%rsp)
.Ltmp379:
	callq	_ZN93_$LT$alloc..collections..btree..mem..replace..PanicGuard$u20$as$u20$core..ops..drop..Drop$GT$4drop17h8543d49ad7dae5b1E
	nop
	addq	$40, %rsp
	retq
.Ltmp380:
.Lfunc_end66:
	.seh_endproc

	.def	_ZN4core3ptr72drop_in_place$LT$alloc..vec..Vec$LT$std..sys..windows..args..Arg$GT$$GT$17h29be0ede21564ecaE;
	.scl	3;
	.type	32;
	.endef
	.section	.text,"xr",one_only,_ZN4core3ptr72drop_in_place$LT$alloc..vec..Vec$LT$std..sys..windows..args..Arg$GT$$GT$17h29be0ede21564ecaE
	.p2align	4, 0x90
_ZN4core3ptr72drop_in_place$LT$alloc..vec..Vec$LT$std..sys..windows..args..Arg$GT$$GT$17h29be0ede21564ecaE:
.Lfunc_begin67:
	.cv_func_id 108
	.cv_loc	108 4 490 0
.seh_proc _ZN4core3ptr72drop_in_place$LT$alloc..vec..Vec$LT$std..sys..windows..args..Arg$GT$$GT$17h29be0ede21564ecaE
	.seh_handler __CxxFrameHandler3, @unwind, @except
	pushq	%rbp
	.seh_pushreg %rbp
	subq	$64, %rsp
	.seh_stackalloc 64
	leaq	64(%rsp), %rbp
	.seh_setframe %rbp, 64
	.seh_endprologue
	movq	$-2, -8(%rbp)
	movq	%rcx, -24(%rbp)
	movq	%rcx, -16(%rbp)
.Ltmp381:
.Ltmp383:
	callq	_ZN70_$LT$alloc..vec..Vec$LT$T$C$A$GT$$u20$as$u20$core..ops..drop..Drop$GT$4drop17hc10a83171d3ba2f5E
.Ltmp382:
	jmp	.LBB67_2
.LBB67_2:
	movq	-24(%rbp), %rcx
	callq	_ZN4core3ptr79drop_in_place$LT$alloc..raw_vec..RawVec$LT$std..sys..windows..args..Arg$GT$$GT$17h268238d7f7ec62beE
	nop
	addq	$64, %rsp
	popq	%rbp
	retq
	.seh_handlerdata
	.long	($cppxdata$_ZN4core3ptr72drop_in_place$LT$alloc..vec..Vec$LT$std..sys..windows..args..Arg$GT$$GT$17h29be0ede21564ecaE)@IMGREL
	.section	.text,"xr",one_only,_ZN4core3ptr72drop_in_place$LT$alloc..vec..Vec$LT$std..sys..windows..args..Arg$GT$$GT$17h29be0ede21564ecaE
	.seh_endproc
	.def	"?dtor$1@?0?_ZN4core3ptr72drop_in_place$LT$alloc..vec..Vec$LT$std..sys..windows..args..Arg$GT$$GT$17h29be0ede21564ecaE@4HA";
	.scl	3;
	.type	32;
	.endef
	.p2align	4, 0x90
"?dtor$1@?0?_ZN4core3ptr72drop_in_place$LT$alloc..vec..Vec$LT$std..sys..windows..args..Arg$GT$$GT$17h29be0ede21564ecaE@4HA":
.seh_proc "?dtor$1@?0?_ZN4core3ptr72drop_in_place$LT$alloc..vec..Vec$LT$std..sys..windows..args..Arg$GT$$GT$17h29be0ede21564ecaE@4HA"
.LBB67_1:
	movq	%rdx, 16(%rsp)
	pushq	%rbp
	.seh_pushreg %rbp
	subq	$32, %rsp
	.seh_stackalloc 32
	leaq	64(%rdx), %rbp
	.seh_endprologue
	movq	-24(%rbp), %rcx
	callq	_ZN4core3ptr79drop_in_place$LT$alloc..raw_vec..RawVec$LT$std..sys..windows..args..Arg$GT$$GT$17h268238d7f7ec62beE
	nop
	addq	$32, %rsp
	popq	%rbp
	retq
.Ltmp384:
.Lfunc_end67:
	.seh_handlerdata
	.section	.text,"xr",one_only,_ZN4core3ptr72drop_in_place$LT$alloc..vec..Vec$LT$std..sys..windows..args..Arg$GT$$GT$17h29be0ede21564ecaE
	.seh_endproc
	.section	.xdata,"dr",associative,_ZN4core3ptr72drop_in_place$LT$alloc..vec..Vec$LT$std..sys..windows..args..Arg$GT$$GT$17h29be0ede21564ecaE
	.p2align	2
$cppxdata$_ZN4core3ptr72drop_in_place$LT$alloc..vec..Vec$LT$std..sys..windows..args..Arg$GT$$GT$17h29be0ede21564ecaE:
	.long	429065506
	.long	1
	.long	($stateUnwindMap$_ZN4core3ptr72drop_in_place$LT$alloc..vec..Vec$LT$std..sys..windows..args..Arg$GT$$GT$17h29be0ede21564ecaE)@IMGREL
	.long	0
	.long	0
	.long	3
	.long	($ip2state$_ZN4core3ptr72drop_in_place$LT$alloc..vec..Vec$LT$std..sys..windows..args..Arg$GT$$GT$17h29be0ede21564ecaE)@IMGREL
	.long	56
	.long	0
	.long	1
$stateUnwindMap$_ZN4core3ptr72drop_in_place$LT$alloc..vec..Vec$LT$std..sys..windows..args..Arg$GT$$GT$17h29be0ede21564ecaE:
	.long	-1
	.long	"?dtor$1@?0?_ZN4core3ptr72drop_in_place$LT$alloc..vec..Vec$LT$std..sys..windows..args..Arg$GT$$GT$17h29be0ede21564ecaE@4HA"@IMGREL
$ip2state$_ZN4core3ptr72drop_in_place$LT$alloc..vec..Vec$LT$std..sys..windows..args..Arg$GT$$GT$17h29be0ede21564ecaE:
	.long	.Lfunc_begin67@IMGREL
	.long	-1
	.long	.Ltmp381@IMGREL+1
	.long	0
	.long	.Ltmp382@IMGREL+1
	.long	-1
	.section	.text,"xr",one_only,_ZN4core3ptr72drop_in_place$LT$alloc..vec..Vec$LT$std..sys..windows..args..Arg$GT$$GT$17h29be0ede21564ecaE

	.def	_ZN4core3ptr75drop_in_place$LT$core..option..Option$LT$std..ffi..os_str..OsString$GT$$GT$17haceb75093c61b6d0E;
	.scl	3;
	.type	32;
	.endef
	.section	.text,"xr",one_only,_ZN4core3ptr75drop_in_place$LT$core..option..Option$LT$std..ffi..os_str..OsString$GT$$GT$17haceb75093c61b6d0E
	.p2align	4, 0x90
_ZN4core3ptr75drop_in_place$LT$core..option..Option$LT$std..ffi..os_str..OsString$GT$$GT$17haceb75093c61b6d0E:
.Lfunc_begin68:
	.cv_func_id 109
	.cv_loc	109 4 490 0
.seh_proc _ZN4core3ptr75drop_in_place$LT$core..option..Option$LT$std..ffi..os_str..OsString$GT$$GT$17haceb75093c61b6d0E
	subq	$56, %rsp
	.seh_stackalloc 56
	.seh_endprologue
	movq	%rcx, 40(%rsp)
	movq	%rcx, 48(%rsp)
.Ltmp385:
	movb	24(%rcx), %dl
	subb	$2, %dl
	movl	$1, %eax
	xorl	%ecx, %ecx
	cmpb	$0, %dl
	cmoveq	%rcx, %rax
	cmpq	$0, %rax
	jne	.LBB68_2
.LBB68_1:
	addq	$56, %rsp
	retq
.LBB68_2:
	movq	40(%rsp), %rcx
	callq	_ZN4core3ptr47drop_in_place$LT$std..ffi..os_str..OsString$GT$17h39d1be984fa0c5aaE
	jmp	.LBB68_1
.Ltmp386:
.Lfunc_end68:
	.seh_endproc

	.def	_ZN4core3ptr79drop_in_place$LT$alloc..raw_vec..RawVec$LT$std..sys..windows..args..Arg$GT$$GT$17h268238d7f7ec62beE;
	.scl	3;
	.type	32;
	.endef
	.section	.text,"xr",one_only,_ZN4core3ptr79drop_in_place$LT$alloc..raw_vec..RawVec$LT$std..sys..windows..args..Arg$GT$$GT$17h268238d7f7ec62beE
	.p2align	4, 0x90
_ZN4core3ptr79drop_in_place$LT$alloc..raw_vec..RawVec$LT$std..sys..windows..args..Arg$GT$$GT$17h268238d7f7ec62beE:
.Lfunc_begin69:
	.cv_func_id 110
	.cv_loc	110 4 490 0
.seh_proc _ZN4core3ptr79drop_in_place$LT$alloc..raw_vec..RawVec$LT$std..sys..windows..args..Arg$GT$$GT$17h268238d7f7ec62beE
	subq	$40, %rsp
	.seh_stackalloc 40
	.seh_endprologue
	movq	%rcx, 32(%rsp)
.Ltmp387:
	callq	_ZN77_$LT$alloc..raw_vec..RawVec$LT$T$C$A$GT$$u20$as$u20$core..ops..drop..Drop$GT$4drop17he2c7d7c7abaac633E
	nop
	addq	$40, %rsp
	retq
.Ltmp388:
.Lfunc_end69:
	.seh_endproc

	.def	_ZN4core3ptr7mut_ptr31_$LT$impl$u20$$BP$mut$u20$T$GT$13guaranteed_eq17hd03b11ddb8d2c228E;
	.scl	3;
	.type	32;
	.endef
	.section	.text,"xr",one_only,_ZN4core3ptr7mut_ptr31_$LT$impl$u20$$BP$mut$u20$T$GT$13guaranteed_eq17hd03b11ddb8d2c228E
	.p2align	4, 0x90
_ZN4core3ptr7mut_ptr31_$LT$impl$u20$$BP$mut$u20$T$GT$13guaranteed_eq17hd03b11ddb8d2c228E:
.Lfunc_begin70:
	.cv_func_id 111
	.cv_loc	111 6 724 0
.seh_proc _ZN4core3ptr7mut_ptr31_$LT$impl$u20$$BP$mut$u20$T$GT$13guaranteed_eq17hd03b11ddb8d2c228E
	subq	$48, %rsp
	.seh_stackalloc 48
	.seh_endprologue
	movq	%rcx, 8(%rsp)
	movq	%rdx, 16(%rsp)
.Ltmp389:
	.cv_loc	111 6 728 0
	movq	%rcx, 24(%rsp)
	movq	%rdx, 32(%rsp)
.Ltmp390:
	.cv_inline_site_id 112 within 111 inlined_at 6 728 0
	.cv_loc	112 3 800 0
	cmpq	%rdx, %rcx
	sete	%al
	andb	$1, %al
	movb	%al, 46(%rsp)
	movb	46(%rsp), %al
	movb	%al, 6(%rsp)
	movb	6(%rsp), %al
	cmpb	$2, %al
	jne	.LBB70_3
	.cv_loc	112 3 801 0
	movb	$2, 7(%rsp)
	jmp	.LBB70_4
.LBB70_3:
	.cv_loc	112 3 802 0
	movb	6(%rsp), %al
	movb	%al, 47(%rsp)
.Ltmp391:
	.cv_loc	112 3 802 0
	cmpb	$1, %al
	sete	%al
	andb	$1, %al
	movb	%al, 7(%rsp)
.Ltmp392:
.LBB70_4:
	.cv_loc	111 6 729 0
	movb	7(%rsp), %al
	addq	$48, %rsp
	retq
.Ltmp393:
.Lfunc_end70:
	.seh_endproc

	.def	_ZN4core3ptr7mut_ptr31_$LT$impl$u20$$BP$mut$u20$T$GT$7is_null17h3a8c518043b39929E;
	.scl	3;
	.type	32;
	.endef
	.section	.text,"xr",one_only,_ZN4core3ptr7mut_ptr31_$LT$impl$u20$$BP$mut$u20$T$GT$7is_null17h3a8c518043b39929E
	.p2align	4, 0x90
_ZN4core3ptr7mut_ptr31_$LT$impl$u20$$BP$mut$u20$T$GT$7is_null17h3a8c518043b39929E:
.Lfunc_begin71:
	.cv_func_id 113
	.cv_loc	113 6 35 0
.seh_proc _ZN4core3ptr7mut_ptr31_$LT$impl$u20$$BP$mut$u20$T$GT$7is_null17h3a8c518043b39929E
	subq	$120, %rsp
	.seh_stackalloc 120
	.seh_endprologue
	movq	%rcx, 40(%rsp)
	movq	%rcx, 80(%rsp)
.Ltmp394:
	.cv_inline_site_id 114 within 113 inlined_at 6 38 0
	.cv_inline_site_id 115 within 114 inlined_at 4 682 0
	.cv_loc	115 4 578 0
	movq	$0, 96(%rsp)
	movq	96(%rsp), %rax
	movq	%rax, 48(%rsp)
	movq	%rax, 104(%rsp)
.Ltmp395:
	.cv_loc	115 5 134 0
	movq	40(%rsp), %rcx
	movq	48(%rsp), %rax
.Ltmp396:
	movq	%rax, 72(%rsp)
	movq	72(%rsp), %rax
	movq	%rax, 64(%rsp)
	movq	64(%rsp), %rdx
.Ltmp397:
	.cv_loc	113 6 38 0
	callq	_ZN4core3ptr7mut_ptr31_$LT$impl$u20$$BP$mut$u20$T$GT$13guaranteed_eq17hd03b11ddb8d2c228E
	movb	%al, 63(%rsp)
	movb	63(%rsp), %al
	addb	$-2, %al
	setne	%al
	movzbl	%al, %eax
	je	.LBB71_4
	jmp	.LBB71_7
.LBB71_7:
	jmp	.LBB71_5
	ud2
.LBB71_4:
	.cv_loc	113 6 39 0
	movb	$0, 62(%rsp)
	jmp	.LBB71_6
.LBB71_5:
	.cv_loc	113 6 40 0
	movb	63(%rsp), %al
	movb	%al, %cl
	andb	$1, %cl
	movb	%cl, 119(%rsp)
.Ltmp398:
	.cv_loc	113 6 40 0
	andb	$1, %al
	movb	%al, 62(%rsp)
.Ltmp399:
.LBB71_6:
	.cv_loc	113 6 42 0
	movb	62(%rsp), %al
	andb	$1, %al
	movzbl	%al, %eax
	addq	$120, %rsp
	retq
.Ltmp400:
.Lfunc_end71:
	.seh_endproc

	.def	_ZN4core3ptr7mut_ptr31_$LT$impl$u20$$BP$mut$u20$T$GT$7is_null17hc04a313d994e54c4E;
	.scl	3;
	.type	32;
	.endef
	.section	.text,"xr",one_only,_ZN4core3ptr7mut_ptr31_$LT$impl$u20$$BP$mut$u20$T$GT$7is_null17hc04a313d994e54c4E
	.p2align	4, 0x90
_ZN4core3ptr7mut_ptr31_$LT$impl$u20$$BP$mut$u20$T$GT$7is_null17hc04a313d994e54c4E:
.Lfunc_begin72:
	.cv_func_id 116
	.cv_loc	116 6 35 0
.seh_proc _ZN4core3ptr7mut_ptr31_$LT$impl$u20$$BP$mut$u20$T$GT$7is_null17hc04a313d994e54c4E
	subq	$120, %rsp
	.seh_stackalloc 120
	.seh_endprologue
	movq	%rcx, 40(%rsp)
	movq	%rcx, 80(%rsp)
.Ltmp401:
	.cv_inline_site_id 117 within 116 inlined_at 6 38 0
	.cv_inline_site_id 118 within 117 inlined_at 4 682 0
	.cv_loc	118 4 578 0
	movq	$0, 96(%rsp)
	movq	96(%rsp), %rax
	movq	%rax, 48(%rsp)
	movq	%rax, 104(%rsp)
.Ltmp402:
	.cv_loc	118 5 134 0
	movq	40(%rsp), %rcx
	movq	48(%rsp), %rax
.Ltmp403:
	movq	%rax, 72(%rsp)
	movq	72(%rsp), %rax
	movq	%rax, 64(%rsp)
	movq	64(%rsp), %rdx
.Ltmp404:
	.cv_loc	116 6 38 0
	callq	_ZN4core3ptr7mut_ptr31_$LT$impl$u20$$BP$mut$u20$T$GT$13guaranteed_eq17hd03b11ddb8d2c228E
	movb	%al, 63(%rsp)
	movb	63(%rsp), %al
	addb	$-2, %al
	setne	%al
	movzbl	%al, %eax
	je	.LBB72_4
	jmp	.LBB72_7
.LBB72_7:
	jmp	.LBB72_5
	ud2
.LBB72_4:
	.cv_loc	116 6 39 0
	movb	$0, 62(%rsp)
	jmp	.LBB72_6
.LBB72_5:
	.cv_loc	116 6 40 0
	movb	63(%rsp), %al
	movb	%al, %cl
	andb	$1, %cl
	movb	%cl, 119(%rsp)
.Ltmp405:
	.cv_loc	116 6 40 0
	andb	$1, %al
	movb	%al, 62(%rsp)
.Ltmp406:
.LBB72_6:
	.cv_loc	116 6 42 0
	movb	62(%rsp), %al
	andb	$1, %al
	movzbl	%al, %eax
	addq	$120, %rsp
	retq
.Ltmp407:
.Lfunc_end72:
	.seh_endproc

	.def	_ZN4core3ptr7mut_ptr31_$LT$impl$u20$$BP$mut$u20$T$GT$7is_null17he1df5e2f617f9fecE;
	.scl	3;
	.type	32;
	.endef
	.section	.text,"xr",one_only,_ZN4core3ptr7mut_ptr31_$LT$impl$u20$$BP$mut$u20$T$GT$7is_null17he1df5e2f617f9fecE
	.p2align	4, 0x90
_ZN4core3ptr7mut_ptr31_$LT$impl$u20$$BP$mut$u20$T$GT$7is_null17he1df5e2f617f9fecE:
.Lfunc_begin73:
	.cv_func_id 119
	.cv_loc	119 6 35 0
.seh_proc _ZN4core3ptr7mut_ptr31_$LT$impl$u20$$BP$mut$u20$T$GT$7is_null17he1df5e2f617f9fecE
	subq	$120, %rsp
	.seh_stackalloc 120
	.seh_endprologue
	movq	%rcx, 40(%rsp)
	movq	%rcx, 80(%rsp)
.Ltmp408:
	.cv_inline_site_id 120 within 119 inlined_at 6 38 0
	.cv_inline_site_id 121 within 120 inlined_at 4 682 0
	.cv_loc	121 4 578 0
	movq	$0, 96(%rsp)
	movq	96(%rsp), %rax
	movq	%rax, 48(%rsp)
	movq	%rax, 104(%rsp)
.Ltmp409:
	.cv_loc	121 5 134 0
	movq	40(%rsp), %rcx
	movq	48(%rsp), %rax
.Ltmp410:
	movq	%rax, 72(%rsp)
	movq	72(%rsp), %rax
	movq	%rax, 64(%rsp)
	movq	64(%rsp), %rdx
.Ltmp411:
	.cv_loc	119 6 38 0
	callq	_ZN4core3ptr7mut_ptr31_$LT$impl$u20$$BP$mut$u20$T$GT$13guaranteed_eq17hd03b11ddb8d2c228E
	movb	%al, 63(%rsp)
	movb	63(%rsp), %al
	addb	$-2, %al
	setne	%al
	movzbl	%al, %eax
	je	.LBB73_4
	jmp	.LBB73_7
.LBB73_7:
	jmp	.LBB73_5
	ud2
.LBB73_4:
	.cv_loc	119 6 39 0
	movb	$0, 62(%rsp)
	jmp	.LBB73_6
.LBB73_5:
	.cv_loc	119 6 40 0
	movb	63(%rsp), %al
	movb	%al, %cl
	andb	$1, %cl
	movb	%cl, 119(%rsp)
.Ltmp412:
	.cv_loc	119 6 40 0
	andb	$1, %al
	movb	%al, 62(%rsp)
.Ltmp413:
.LBB73_6:
	.cv_loc	119 6 42 0
	movb	62(%rsp), %al
	andb	$1, %al
	movzbl	%al, %eax
	addq	$120, %rsp
	retq
.Ltmp414:
.Lfunc_end73:
	.seh_endproc

	.def	_ZN4core3ptr82drop_in_place$LT$core..option..Option$LT$std..sys..windows..process..Stdio$GT$$GT$17hf2bc3b28af915bb7E;
	.scl	3;
	.type	32;
	.endef
	.section	.text,"xr",one_only,_ZN4core3ptr82drop_in_place$LT$core..option..Option$LT$std..sys..windows..process..Stdio$GT$$GT$17hf2bc3b28af915bb7E
	.p2align	4, 0x90
_ZN4core3ptr82drop_in_place$LT$core..option..Option$LT$std..sys..windows..process..Stdio$GT$$GT$17hf2bc3b28af915bb7E:
.Lfunc_begin74:
	.cv_func_id 122
	.cv_loc	122 4 490 0
.seh_proc _ZN4core3ptr82drop_in_place$LT$core..option..Option$LT$std..sys..windows..process..Stdio$GT$$GT$17hf2bc3b28af915bb7E
	subq	$56, %rsp
	.seh_stackalloc 56
	.seh_endprologue
	movq	%rcx, 40(%rsp)
	movq	%rcx, 48(%rsp)
.Ltmp415:
	movq	(%rcx), %rdx
	subq	$5, %rdx
	movl	$1, %eax
	xorl	%ecx, %ecx
	cmpq	$0, %rdx
	cmoveq	%rcx, %rax
	cmpq	$0, %rax
	jne	.LBB74_2
.LBB74_1:
	addq	$56, %rsp
	retq
.LBB74_2:
	movq	40(%rsp), %rcx
	callq	_ZN4core3ptr54drop_in_place$LT$std..sys..windows..process..Stdio$GT$17h879255d7161e35f9E
	jmp	.LBB74_1
.Ltmp416:
.Lfunc_end74:
	.seh_endproc

	.def	_ZN4core3ptr85drop_in_place$LT$std..rt..lang_start$LT$$LP$$RP$$GT$..$u7b$$u7b$closure$u7d$$u7d$$GT$17h12d2572208cacd91E;
	.scl	3;
	.type	32;
	.endef
	.section	.text,"xr",one_only,_ZN4core3ptr85drop_in_place$LT$std..rt..lang_start$LT$$LP$$RP$$GT$..$u7b$$u7b$closure$u7d$$u7d$$GT$17h12d2572208cacd91E
	.p2align	4, 0x90
_ZN4core3ptr85drop_in_place$LT$std..rt..lang_start$LT$$LP$$RP$$GT$..$u7b$$u7b$closure$u7d$$u7d$$GT$17h12d2572208cacd91E:
.Lfunc_begin75:
	.cv_func_id 123
	.cv_loc	123 4 490 0
.seh_proc _ZN4core3ptr85drop_in_place$LT$std..rt..lang_start$LT$$LP$$RP$$GT$..$u7b$$u7b$closure$u7d$$u7d$$GT$17h12d2572208cacd91E
	pushq	%rax
	.seh_stackalloc 8
	.seh_endprologue
	movq	%rcx, (%rsp)
.Ltmp417:
	popq	%rax
	retq
.Ltmp418:
.Lfunc_end75:
	.seh_endproc

	.def	_ZN4core3ptr93drop_in_place$LT$dyn$u20$core..error..Error$u2b$core..marker..Sync$u2b$core..marker..Send$GT$17h5def91ea9ab4fceaE;
	.scl	3;
	.type	32;
	.endef
	.section	.text,"xr",one_only,_ZN4core3ptr93drop_in_place$LT$dyn$u20$core..error..Error$u2b$core..marker..Sync$u2b$core..marker..Send$GT$17h5def91ea9ab4fceaE
	.p2align	4, 0x90
_ZN4core3ptr93drop_in_place$LT$dyn$u20$core..error..Error$u2b$core..marker..Sync$u2b$core..marker..Send$GT$17h5def91ea9ab4fceaE:
.Lfunc_begin76:
	.cv_func_id 124
	.cv_loc	124 4 490 0
.seh_proc _ZN4core3ptr93drop_in_place$LT$dyn$u20$core..error..Error$u2b$core..marker..Sync$u2b$core..marker..Send$GT$17h5def91ea9ab4fceaE
	subq	$56, %rsp
	.seh_stackalloc 56
	.seh_endprologue
	movq	%rcx, 40(%rsp)
	movq	%rdx, 48(%rsp)
.Ltmp419:
	callq	*(%rdx)
	nop
	addq	$56, %rsp
	retq
.Ltmp420:
.Lfunc_end76:
	.seh_endproc

	.def	_ZN4core3ptr9const_ptr33_$LT$impl$u20$$BP$const$u20$T$GT$7is_null17h38f320cc77bf9ba9E;
	.scl	3;
	.type	32;
	.endef
	.section	.text,"xr",one_only,_ZN4core3ptr9const_ptr33_$LT$impl$u20$$BP$const$u20$T$GT$7is_null17h38f320cc77bf9ba9E
	.p2align	4, 0x90
_ZN4core3ptr9const_ptr33_$LT$impl$u20$$BP$const$u20$T$GT$7is_null17h38f320cc77bf9ba9E:
.Lfunc_begin77:
	.cv_func_id 125
	.cv_loc	125 3 36 0
.seh_proc _ZN4core3ptr9const_ptr33_$LT$impl$u20$$BP$const$u20$T$GT$7is_null17h38f320cc77bf9ba9E
	subq	$104, %rsp
	.seh_stackalloc 104
	.seh_endprologue
	movq	%rcx, 8(%rsp)
	movq	%rcx, 48(%rsp)
.Ltmp421:
	.cv_loc	125 3 39 0
	movq	%rcx, 64(%rsp)
.Ltmp422:
	.cv_inline_site_id 126 within 125 inlined_at 3 39 0
	.cv_inline_site_id 127 within 126 inlined_at 4 516 0
	.cv_loc	127 4 547 0
	movq	$0, 72(%rsp)
	movq	72(%rsp), %rax
	movq	%rax, 16(%rsp)
	movq	%rax, 80(%rsp)
.Ltmp423:
	.cv_loc	127 5 117 0
	movq	8(%rsp), %rax
	movq	16(%rsp), %rcx
.Ltmp424:
	movq	%rcx, 40(%rsp)
	movq	40(%rsp), %rcx
	movq	%rcx, 32(%rsp)
	movq	32(%rsp), %rcx
	movq	%rcx, 88(%rsp)
.Ltmp425:
	.cv_loc	126 3 800 0
	cmpq	%rcx, %rax
	sete	%al
	andb	$1, %al
	movb	%al, 101(%rsp)
	movb	101(%rsp), %al
	movb	%al, 7(%rsp)
	movb	7(%rsp), %al
	cmpb	$2, %al
	jne	.LBB77_4
	.cv_loc	126 3 801 0
	movb	$2, 31(%rsp)
	jmp	.LBB77_5
.LBB77_4:
	.cv_loc	126 3 802 0
	movb	7(%rsp), %al
	movb	%al, 102(%rsp)
.Ltmp426:
	.cv_loc	126 3 802 0
	cmpb	$1, %al
	sete	%al
	andb	$1, %al
	movb	%al, 31(%rsp)
.Ltmp427:
.LBB77_5:
	.cv_loc	125 3 39 0
	movb	31(%rsp), %al
	addb	$-2, %al
	setne	%al
	movzbl	%al, %eax
	je	.LBB77_7
	jmp	.LBB77_10
.LBB77_10:
	jmp	.LBB77_8
	ud2
.LBB77_7:
	.cv_loc	125 3 40 0
	movb	$0, 30(%rsp)
	jmp	.LBB77_9
.LBB77_8:
	.cv_loc	125 3 41 0
	movb	31(%rsp), %al
	movb	%al, %cl
	andb	$1, %cl
	movb	%cl, 103(%rsp)
.Ltmp428:
	.cv_loc	125 3 41 0
	andb	$1, %al
	movb	%al, 30(%rsp)
.Ltmp429:
.LBB77_9:
	.cv_loc	125 3 43 0
	movb	30(%rsp), %al
	andb	$1, %al
	movzbl	%al, %eax
	addq	$104, %rsp
	retq
.Ltmp430:
.Lfunc_end77:
	.seh_endproc

	.def	_ZN4core3str11validations15next_code_point17h7a8b2559a9a54a05E;
	.scl	3;
	.type	32;
	.endef
	.section	.text,"xr",one_only,_ZN4core3str11validations15next_code_point17h7a8b2559a9a54a05E
	.p2align	4, 0x90
_ZN4core3str11validations15next_code_point17h7a8b2559a9a54a05E:
.Lfunc_begin78:
	.cv_func_id 128
	.cv_file	30 "/rustc/90743e7298aca107ddaa0c202a4d3604e29bfeb6\\library\\core\\src\\str\\validations.rs" "BBE7FD5BE2453A6D10CFB30939B2AD2C122A54D0" 2
	.cv_loc	128 30 36 0
.seh_proc _ZN4core3str11validations15next_code_point17h7a8b2559a9a54a05E
	subq	$248, %rsp
	.seh_stackalloc 248
	.seh_endprologue
	movq	%rcx, 120(%rsp)
	movq	%rcx, 160(%rsp)
.Ltmp431:
	.cv_loc	128 30 38 0
	callq	_ZN91_$LT$core..slice..iter..Iter$LT$T$GT$$u20$as$u20$core..iter..traits..iterator..Iterator$GT$4next17ha94d0b891e6360cfE
	movq	%rax, 144(%rsp)
.Ltmp432:
	.cv_inline_site_id 129 within 128 inlined_at 30 38 0
	.cv_loc	129 9 2296 0
	movq	144(%rsp), %rax
	testq	%rax, %rax
	setne	%al
	movzbl	%al, %eax
	je	.LBB78_3
	jmp	.LBB78_23
.LBB78_23:
	jmp	.LBB78_4
	ud2
.LBB78_3:
	.cv_loc	129 9 2298 0
	movq	$0, 136(%rsp)
	jmp	.LBB78_5
.LBB78_4:
	.cv_loc	129 9 2297 0
	movq	144(%rsp), %rax
	movq	%rax, 184(%rsp)
.Ltmp433:
	.cv_loc	129 9 2297 0
	movq	%rax, 136(%rsp)
.Ltmp434:
.LBB78_5:
	.cv_loc	128 30 38 0
	movq	136(%rsp), %rax
	testq	%rax, %rax
	sete	%al
	movzbl	%al, %eax
	jne	.LBB78_7
	jmp	.LBB78_24
.LBB78_24:
	jmp	.LBB78_8
	ud2
.LBB78_7:
	movq	136(%rsp), %rax
	movq	%rax, 192(%rsp)
	movb	(%rax), %al
	movb	%al, 119(%rsp)
	movb	%al, 206(%rsp)
.Ltmp435:
	.cv_loc	128 30 39 0
	cmpb	$-128, %al
	jb	.LBB78_11
	jmp	.LBB78_10
.Ltmp436:
.LBB78_8:
	.cv_inline_site_id 130 within 128 inlined_at 30 38 0
	.cv_loc	130 9 2309 0
	movl	$0, 128(%rsp)
.Ltmp437:
.LBB78_9:
	.cv_loc	128 30 70 0
	jmp	.LBB78_12
.LBB78_10:
	.cv_loc	128 30 46 0
	movq	120(%rsp), %rcx
	movb	119(%rsp), %al
.Ltmp438:
	movb	%al, 207(%rsp)
.Ltmp439:
	.cv_inline_site_id 131 within 128 inlined_at 30 46 0
	.cv_loc	131 30 12 0
	andb	$31, %al
	movzbl	%al, %eax
	movl	%eax, 100(%rsp)
	movl	%eax, 208(%rsp)
.Ltmp440:
	.cv_loc	128 30 49 0
	callq	_ZN91_$LT$core..slice..iter..Iter$LT$T$GT$$u20$as$u20$core..iter..traits..iterator..Iterator$GT$4next17ha94d0b891e6360cfE
	movq	%rax, 104(%rsp)
	jmp	.LBB78_13
.Ltmp441:
.LBB78_11:
	.cv_loc	128 30 40 0
	movb	119(%rsp), %al
	movzbl	%al, %eax
	movl	%eax, 132(%rsp)
	movl	$1, 128(%rsp)
	.cv_file	31 "C:\\Users\\cires\\.cargo\\registry\\src\\github.com-1ecc6299db9ec823\\proc-macro2-1.0.71\\build.rs" "CDCDB8D62E579076A5D90268B6B2D0B53313E8C5" 2
	.cv_loc	128 31 1 0
	jmp	.LBB78_9
.Ltmp442:
.LBB78_12:
	.cv_loc	128 30 70 0
	movl	128(%rsp), %eax
	movl	132(%rsp), %edx
	addq	$248, %rsp
	retq
.LBB78_13:
	.cv_loc	128 30 49 0
	movq	104(%rsp), %rcx
.Ltmp443:
	leaq	__unnamed_7(%rip), %rdx
	callq	_ZN4core6option15Option$LT$T$GT$16unwrap_unchecked17hf13ef28331915c40E
	movq	%rax, 88(%rsp)
	movb	119(%rsp), %al
	movl	100(%rsp), %ecx
	movq	88(%rsp), %rdx
	movb	(%rdx), %dl
	movb	%dl, 87(%rsp)
	movb	%dl, 215(%rsp)
.Ltmp444:
	.cv_loc	128 30 50 0
	movl	%ecx, 216(%rsp)
	movb	%dl, 222(%rsp)
.Ltmp445:
	.cv_inline_site_id 132 within 128 inlined_at 30 50 0
	.cv_loc	132 30 18 0
	shll	$6, %ecx
	andb	$63, %dl
	movzbl	%dl, %edx
	orl	%edx, %ecx
	movl	%ecx, 156(%rsp)
.Ltmp446:
	.cv_loc	128 30 51 0
	cmpb	$-32, %al
	jae	.LBB78_16
.LBB78_15:
	.cv_loc	128 30 69 0
	movl	156(%rsp), %eax
	movl	%eax, 132(%rsp)
	movl	$1, 128(%rsp)
.Ltmp447:
	.cv_loc	128 30 70 0
	jmp	.LBB78_12
.LBB78_16:
	.cv_loc	128 30 56 0
	movq	120(%rsp), %rcx
.Ltmp448:
	callq	_ZN91_$LT$core..slice..iter..Iter$LT$T$GT$$u20$as$u20$core..iter..traits..iterator..Iterator$GT$4next17ha94d0b891e6360cfE
	movq	%rax, 72(%rsp)
	movq	72(%rsp), %rcx
	leaq	__unnamed_8(%rip), %rdx
	callq	_ZN4core6option15Option$LT$T$GT$16unwrap_unchecked17hf13ef28331915c40E
	movq	%rax, 64(%rsp)
	movb	119(%rsp), %al
	movl	100(%rsp), %ecx
	movb	87(%rsp), %dl
	movq	64(%rsp), %r8
	movb	(%r8), %r8b
	movb	%r8b, 223(%rsp)
.Ltmp449:
	.cv_loc	128 30 57 0
	andb	$63, %dl
	movzbl	%dl, %edx
	movl	%edx, 224(%rsp)
	movb	%r8b, 231(%rsp)
.Ltmp450:
	.cv_inline_site_id 133 within 128 inlined_at 30 57 0
	.cv_loc	133 30 18 0
	shll	$6, %edx
	andb	$63, %r8b
	movzbl	%r8b, %r8d
	orl	%r8d, %edx
	movl	%edx, 60(%rsp)
	movl	%edx, 232(%rsp)
.Ltmp451:
	.cv_loc	128 30 58 0
	shll	$12, %ecx
	orl	%edx, %ecx
	movl	%ecx, 156(%rsp)
	.cv_loc	128 30 59 0
	cmpb	$-16, %al
	jae	.LBB78_20
.Ltmp452:
.LBB78_19:
	.cv_loc	128 30 51 0
	jmp	.LBB78_15
.LBB78_20:
	.cv_loc	128 30 64 0
	movq	120(%rsp), %rcx
.Ltmp453:
	callq	_ZN91_$LT$core..slice..iter..Iter$LT$T$GT$$u20$as$u20$core..iter..traits..iterator..Iterator$GT$4next17ha94d0b891e6360cfE
	movq	%rax, 48(%rsp)
	movq	48(%rsp), %rcx
	leaq	__unnamed_9(%rip), %rdx
	callq	_ZN4core6option15Option$LT$T$GT$16unwrap_unchecked17hf13ef28331915c40E
	movq	%rax, 40(%rsp)
	movl	60(%rsp), %ecx
	movl	100(%rsp), %eax
	movq	40(%rsp), %rdx
	movb	(%rdx), %dl
	movb	%dl, 239(%rsp)
.Ltmp454:
	.cv_loc	128 30 65 0
	andl	$7, %eax
	shll	$18, %eax
	movl	%ecx, 240(%rsp)
	movb	%dl, 247(%rsp)
.Ltmp455:
	.cv_inline_site_id 134 within 128 inlined_at 30 65 0
	.cv_loc	134 30 18 0
	shll	$6, %ecx
	andb	$63, %dl
	movzbl	%dl, %edx
	orl	%edx, %ecx
.Ltmp456:
	.cv_loc	128 30 65 0
	orl	%ecx, %eax
	movl	%eax, 156(%rsp)
.Ltmp457:
	.cv_loc	128 30 59 0
	jmp	.LBB78_19
.Ltmp458:
.Lfunc_end78:
	.seh_endproc

	.def	_ZN4core3str21_$LT$impl$u20$str$GT$11starts_with17hb08ede8c0f94d6f5E;
	.scl	3;
	.type	32;
	.endef
	.section	.text,"xr",one_only,_ZN4core3str21_$LT$impl$u20$str$GT$11starts_with17hb08ede8c0f94d6f5E
	.p2align	4, 0x90
_ZN4core3str21_$LT$impl$u20$str$GT$11starts_with17hb08ede8c0f94d6f5E:
.Lfunc_begin79:
	.cv_func_id 135
	.cv_loc	135 22 1082 0
.seh_proc _ZN4core3str21_$LT$impl$u20$str$GT$11starts_with17hb08ede8c0f94d6f5E
	subq	$88, %rsp
	.seh_stackalloc 88
	.seh_endprologue
	movq	%r9, 32(%rsp)
	movq	%r8, 40(%rsp)
	movq	%rdx, %r9
	movq	32(%rsp), %rdx
	movq	%rcx, %r8
	movq	40(%rsp), %rcx
	movq	%r8, 56(%rsp)
	movq	%r9, 64(%rsp)
	movq	%rcx, 72(%rsp)
	movq	%rdx, 80(%rsp)
.Ltmp459:
	.cv_loc	135 22 1083 0
	callq	_ZN55_$LT$$RF$str$u20$as$u20$core..str..pattern..Pattern$GT$12is_prefix_of17h9f776a79acdb6a3aE
	movb	%al, 55(%rsp)
	.cv_loc	135 22 1084 0
	movb	55(%rsp), %al
	andb	$1, %al
	movzbl	%al, %eax
	addq	$88, %rsp
	retq
.Ltmp460:
.Lfunc_end79:
	.seh_endproc

	.def	_ZN4core3str21_$LT$impl$u20$str$GT$16is_char_boundary17hb5663337ea8c10c8E;
	.scl	3;
	.type	32;
	.endef
	.section	.text,"xr",one_only,_ZN4core3str21_$LT$impl$u20$str$GT$16is_char_boundary17hb5663337ea8c10c8E
	.p2align	4, 0x90
_ZN4core3str21_$LT$impl$u20$str$GT$16is_char_boundary17hb5663337ea8c10c8E:
.Lfunc_begin80:
	.cv_func_id 136
	.cv_loc	136 22 211 0
.seh_proc _ZN4core3str21_$LT$impl$u20$str$GT$16is_char_boundary17hb5663337ea8c10c8E
	subq	$232, %rsp
	.seh_stackalloc 232
	.seh_endprologue
	movq	%r8, 56(%rsp)
	movq	%rdx, 64(%rsp)
	movq	%rcx, 72(%rsp)
	movq	%rcx, 96(%rsp)
	movq	%rdx, 104(%rsp)
	movq	%r8, 112(%rsp)
.Ltmp461:
	.cv_loc	136 22 216 0
	cmpq	$0, %r8
	jne	.LBB80_2
	.cv_loc	136 22 217 0
	movb	$1, 87(%rsp)
	.cv_loc	136 22 234 0
	jmp	.LBB80_10
.LBB80_2:
	.cv_loc	136 22 220 0
	movq	64(%rsp), %rax
	movq	72(%rsp), %rcx
	movq	%rcx, 120(%rsp)
	movq	%rax, 128(%rsp)
.Ltmp462:
	.cv_inline_site_id 137 within 136 inlined_at 22 220 0
	.cv_loc	137 22 327 0
	movq	%rcx, 136(%rsp)
	movq	%rax, 144(%rsp)
	movq	136(%rsp), %rax
	movq	%rax, 40(%rsp)
	movq	144(%rsp), %rax
	movq	%rax, 48(%rsp)
.Ltmp463:
	.cv_loc	136 22 220 0
	movq	48(%rsp), %r8
	movq	40(%rsp), %rdx
	movq	56(%rsp), %rcx
	movq	%rdx, 152(%rsp)
	movq	%r8, 160(%rsp)
	movq	%rcx, 168(%rsp)
.Ltmp464:
	.cv_file	32 "/rustc/90743e7298aca107ddaa0c202a4d3604e29bfeb6\\library\\core\\src\\slice\\mod.rs" "469E67EFED13A6BFB15AA7DF3FFAD53171FED1D4" 2
	.cv_loc	137 32 336 0
	callq	_ZN75_$LT$usize$u20$as$u20$core..slice..index..SliceIndex$LT$$u5b$T$u5d$$GT$$GT$3get17h8d2a3103036ed4e2E
	movq	%rax, 88(%rsp)
.Ltmp465:
	.cv_loc	136 22 220 0
	movq	88(%rsp), %rax
	testq	%rax, %rax
	setne	%al
	movzbl	%al, %eax
	je	.LBB80_6
	jmp	.LBB80_11
.LBB80_11:
	jmp	.LBB80_7
	ud2
.LBB80_6:
	.cv_loc	136 22 230 0
	movq	64(%rsp), %rax
	movq	72(%rsp), %rcx
	movq	%rcx, 184(%rsp)
	movq	%rax, 192(%rsp)
.Ltmp466:
	.cv_inline_site_id 138 within 136 inlined_at 22 230 0
	.cv_loc	138 22 160 0
	movq	%rcx, 200(%rsp)
	movq	%rax, 208(%rsp)
.Ltmp467:
	.cv_inline_site_id 139 within 138 inlined_at 22 160 0
	.cv_loc	139 22 327 0
	movq	%rcx, 216(%rsp)
	movq	%rax, 224(%rsp)
	movq	224(%rsp), %rax
	movq	%rax, 32(%rsp)
	jmp	.LBB80_9
.Ltmp468:
.LBB80_7:
	.cv_loc	136 22 232 0
	movq	88(%rsp), %rax
	movb	(%rax), %al
	movb	%al, 182(%rsp)
.Ltmp469:
	.cv_loc	136 22 232 0
	movb	%al, 183(%rsp)
.Ltmp470:
	.cv_file	33 "/rustc/90743e7298aca107ddaa0c202a4d3604e29bfeb6\\library\\core\\src\\num\\mod.rs" "08401C6587351FD8BAAA8C67708024DD1B246804" 2
	.cv_inline_site_id 140 within 136 inlined_at 22 232 0
	.cv_loc	140 33 882 0
	cmpb	$-64, %al
	setge	%al
	andb	$1, %al
	movb	%al, 87(%rsp)
.Ltmp471:
.LBB80_8:
	.cv_loc	136 22 234 0
	jmp	.LBB80_10
.LBB80_9:
	.cv_loc	136 22 230 0
	movq	56(%rsp), %rax
	movq	32(%rsp), %rcx
	cmpq	%rcx, %rax
	sete	%al
	andb	$1, %al
	movb	%al, 87(%rsp)
	jmp	.LBB80_8
.LBB80_10:
	.cv_loc	136 22 234 0
	movb	87(%rsp), %al
	andb	$1, %al
	movzbl	%al, %eax
	addq	$232, %rsp
	retq
.Ltmp472:
.Lfunc_end80:
	.seh_endproc

	.def	_ZN4core3str21_$LT$impl$u20$str$GT$3len17hedffff28b8319014E;
	.scl	3;
	.type	32;
	.endef
	.section	.text,"xr",one_only,_ZN4core3str21_$LT$impl$u20$str$GT$3len17hedffff28b8319014E
	.p2align	4, 0x90
_ZN4core3str21_$LT$impl$u20$str$GT$3len17hedffff28b8319014E:
.Lfunc_begin81:
	.cv_func_id 141
	.cv_loc	141 22 159 0
.seh_proc _ZN4core3str21_$LT$impl$u20$str$GT$3len17hedffff28b8319014E
	subq	$56, %rsp
	.seh_stackalloc 56
	.seh_endprologue
	movq	%rcx, 8(%rsp)
	movq	%rdx, 16(%rsp)
.Ltmp473:
	.cv_loc	141 22 160 0
	movq	%rcx, 24(%rsp)
	movq	%rdx, 32(%rsp)
.Ltmp474:
	.cv_inline_site_id 142 within 141 inlined_at 22 160 0
	.cv_loc	142 22 327 0
	movq	%rcx, 40(%rsp)
	movq	%rdx, 48(%rsp)
	movq	48(%rsp), %rax
	movq	%rax, (%rsp)
.Ltmp475:
	.cv_loc	141 22 161 0
	movq	(%rsp), %rax
	addq	$56, %rsp
	retq
.Ltmp476:
.Lfunc_end81:
	.seh_endproc

	.def	_ZN4core3str21_$LT$impl$u20$str$GT$5parse17h059f986c718974ffE;
	.scl	3;
	.type	32;
	.endef
	.section	.text,"xr",one_only,_ZN4core3str21_$LT$impl$u20$str$GT$5parse17h059f986c718974ffE
	.p2align	4, 0x90
_ZN4core3str21_$LT$impl$u20$str$GT$5parse17h059f986c718974ffE:
.Lfunc_begin82:
	.cv_func_id 143
	.cv_loc	143 22 2338 0
.seh_proc _ZN4core3str21_$LT$impl$u20$str$GT$5parse17h059f986c718974ffE
	subq	$72, %rsp
	.seh_stackalloc 72
	.seh_endprologue
	movq	%rcx, 48(%rsp)
	movq	%rdx, 56(%rsp)
.Ltmp477:
	.cv_loc	143 22 2339 0
	callq	_ZN4core3num60_$LT$impl$u20$core..str..traits..FromStr$u20$for$u20$u32$GT$8from_str17hea47c62755258c9aE
	movq	%rax, 64(%rsp)
	movq	64(%rsp), %rax
	movq	%rax, 40(%rsp)
	.cv_loc	143 22 2340 0
	movq	40(%rsp), %rax
	addq	$72, %rsp
	retq
.Ltmp478:
.Lfunc_end82:
	.seh_endproc

	.def	_ZN4core3str21_$LT$impl$u20$str$GT$5split17ha5d14ff3fffb5d27E;
	.scl	3;
	.type	32;
	.endef
	.section	.text,"xr",one_only,_ZN4core3str21_$LT$impl$u20$str$GT$5split17ha5d14ff3fffb5d27E
	.p2align	4, 0x90
_ZN4core3str21_$LT$impl$u20$str$GT$5split17ha5d14ff3fffb5d27E:
.Lfunc_begin83:
	.cv_func_id 144
	.cv_loc	144 22 1327 0
.seh_proc _ZN4core3str21_$LT$impl$u20$str$GT$5split17ha5d14ff3fffb5d27E
	.seh_handler __CxxFrameHandler3, @unwind, @except
	pushq	%rbp
	.seh_pushreg %rbp
	subq	$272, %rsp
	.seh_stackalloc 272
	leaq	128(%rsp), %rbp
	.seh_setframe %rbp, 128
	.seh_endprologue
	movq	$-2, 136(%rbp)
	movl	%r9d, -92(%rbp)
	movq	%r8, %r9
	movq	%rdx, %r8
	movl	-92(%rbp), %edx
	movq	%rcx, -88(%rbp)
	movq	%rcx, -80(%rbp)
	movq	%r8, 64(%rbp)
	movq	%r9, 72(%rbp)
	movl	%edx, 84(%rbp)
.Ltmp481:
	.cv_loc	144 22 1328 0
	movb	$1, 63(%rbp)
	.cv_loc	144 22 1330 0
	movq	%r8, 88(%rbp)
	movq	%r9, 96(%rbp)
.Ltmp482:
	.cv_inline_site_id 145 within 144 inlined_at 22 1330 0
	.cv_loc	145 22 160 0
	movq	%r8, 104(%rbp)
	movq	%r9, 112(%rbp)
.Ltmp483:
	.cv_inline_site_id 146 within 145 inlined_at 22 160 0
	.cv_loc	146 22 327 0
	movq	%r8, 120(%rbp)
	movq	%r9, 128(%rbp)
	movq	128(%rbp), %rax
	movq	%rax, -72(%rbp)
.Ltmp484:
	.cv_loc	144 22 1331 0
	movb	$0, 63(%rbp)
.Ltmp479:
	leaq	8(%rbp), %rcx
	callq	_ZN52_$LT$char$u20$as$u20$core..str..pattern..Pattern$GT$13into_searcher17hd64427630f8822e6E
.Ltmp480:
	jmp	.LBB83_2
.LBB83_2:
	.cv_loc	144 22 1328 0
	movq	-72(%rbp), %rax
	movq	$0, -64(%rbp)
	movq	%rax, -56(%rbp)
	leaq	-64(%rbp), %rcx
	addq	$16, %rcx
	leaq	8(%rbp), %rdx
	movl	$48, %r8d
	callq	memcpy
	movq	-88(%rbp), %rcx
	movb	$1, (%rbp)
	movb	$0, 1(%rbp)
	leaq	-64(%rbp), %rdx
	movl	$72, %r8d
	callq	memcpy
	movq	-80(%rbp), %rax
	.cv_loc	144 22 1335 0
	addq	$272, %rsp
	popq	%rbp
	retq
	.seh_handlerdata
	.long	($cppxdata$_ZN4core3str21_$LT$impl$u20$str$GT$5split17ha5d14ff3fffb5d27E)@IMGREL
	.section	.text,"xr",one_only,_ZN4core3str21_$LT$impl$u20$str$GT$5split17ha5d14ff3fffb5d27E
	.seh_endproc
	.def	"?dtor$1@?0?_ZN4core3str21_$LT$impl$u20$str$GT$5split17ha5d14ff3fffb5d27E@4HA";
	.scl	3;
	.type	32;
	.endef
	.p2align	4, 0x90
"?dtor$1@?0?_ZN4core3str21_$LT$impl$u20$str$GT$5split17ha5d14ff3fffb5d27E@4HA":
.seh_proc "?dtor$1@?0?_ZN4core3str21_$LT$impl$u20$str$GT$5split17ha5d14ff3fffb5d27E@4HA"
.LBB83_1:
	movq	%rdx, 16(%rsp)
	pushq	%rbp
	.seh_pushreg %rbp
	subq	$32, %rsp
	.seh_stackalloc 32
	leaq	128(%rdx), %rbp
	.seh_endprologue
	testb	$1, 63(%rbp)
	jne	.LBB83_4
	jmp	.LBB83_3
.LBB83_3:
	.cv_loc	144 22 1327 0
	addq	$32, %rsp
	popq	%rbp
	retq
.LBB83_4:
	.cv_loc	144 22 1335 0
	jmp	.LBB83_3
.Ltmp485:
.Lfunc_end83:
	.seh_handlerdata
	.section	.text,"xr",one_only,_ZN4core3str21_$LT$impl$u20$str$GT$5split17ha5d14ff3fffb5d27E
	.seh_endproc
	.section	.xdata,"dr",associative,_ZN4core3str21_$LT$impl$u20$str$GT$5split17ha5d14ff3fffb5d27E
	.p2align	2
$cppxdata$_ZN4core3str21_$LT$impl$u20$str$GT$5split17ha5d14ff3fffb5d27E:
	.long	429065506
	.long	1
	.long	($stateUnwindMap$_ZN4core3str21_$LT$impl$u20$str$GT$5split17ha5d14ff3fffb5d27E)@IMGREL
	.long	0
	.long	0
	.long	3
	.long	($ip2state$_ZN4core3str21_$LT$impl$u20$str$GT$5split17ha5d14ff3fffb5d27E)@IMGREL
	.long	264
	.long	0
	.long	1
$stateUnwindMap$_ZN4core3str21_$LT$impl$u20$str$GT$5split17ha5d14ff3fffb5d27E:
	.long	-1
	.long	"?dtor$1@?0?_ZN4core3str21_$LT$impl$u20$str$GT$5split17ha5d14ff3fffb5d27E@4HA"@IMGREL
$ip2state$_ZN4core3str21_$LT$impl$u20$str$GT$5split17ha5d14ff3fffb5d27E:
	.long	.Lfunc_begin83@IMGREL
	.long	-1
	.long	.Ltmp479@IMGREL+1
	.long	0
	.long	.Ltmp480@IMGREL+1
	.long	-1
	.section	.text,"xr",one_only,_ZN4core3str21_$LT$impl$u20$str$GT$5split17ha5d14ff3fffb5d27E

	.def	_ZN4core3str21_$LT$impl$u20$str$GT$8contains17h65d23746f65c6a96E;
	.scl	3;
	.type	32;
	.endef
	.section	.text,"xr",one_only,_ZN4core3str21_$LT$impl$u20$str$GT$8contains17h65d23746f65c6a96E
	.p2align	4, 0x90
_ZN4core3str21_$LT$impl$u20$str$GT$8contains17h65d23746f65c6a96E:
.Lfunc_begin84:
	.cv_func_id 147
	.cv_loc	147 22 1056 0
.seh_proc _ZN4core3str21_$LT$impl$u20$str$GT$8contains17h65d23746f65c6a96E
	subq	$88, %rsp
	.seh_stackalloc 88
	.seh_endprologue
	movq	%r9, 32(%rsp)
	movq	%r8, 40(%rsp)
	movq	%rdx, %r9
	movq	32(%rsp), %rdx
	movq	%rcx, %r8
	movq	40(%rsp), %rcx
	movq	%r8, 56(%rsp)
	movq	%r9, 64(%rsp)
	movq	%rcx, 72(%rsp)
	movq	%rdx, 80(%rsp)
.Ltmp486:
	.cv_loc	147 22 1057 0
	callq	_ZN4core3str7pattern7Pattern15is_contained_in17h6eda91dfc2ae9f10E
	movb	%al, 55(%rsp)
	.cv_loc	147 22 1058 0
	movb	55(%rsp), %al
	andb	$1, %al
	movzbl	%al, %eax
	addq	$88, %rsp
	retq
.Ltmp487:
.Lfunc_end84:
	.seh_endproc

	.def	_ZN4core3str4iter22SplitInternal$LT$P$GT$4next17h2832a21032158a6dE;
	.scl	3;
	.type	32;
	.endef
	.section	.text,"xr",one_only,_ZN4core3str4iter22SplitInternal$LT$P$GT$4next17h2832a21032158a6dE
	.p2align	4, 0x90
_ZN4core3str4iter22SplitInternal$LT$P$GT$4next17h2832a21032158a6dE:
.Lfunc_begin85:
	.cv_func_id 148
	.cv_file	34 "/rustc/90743e7298aca107ddaa0c202a4d3604e29bfeb6\\library\\core\\src\\str\\iter.rs" "518A14D5ED8C3BFDF421913C279B15CC4E70AF31" 2
	.cv_loc	148 34 601 0
.seh_proc _ZN4core3str4iter22SplitInternal$LT$P$GT$4next17h2832a21032158a6dE
	subq	$216, %rsp
	.seh_stackalloc 216
	.seh_endprologue
	movq	%rcx, 80(%rsp)
	movq	%rcx, 144(%rsp)
.Ltmp488:
	.cv_loc	148 34 602 0
	testb	$1, 65(%rcx)
	jne	.LBB85_2
	.cv_loc	148 34 606 0
	movq	80(%rsp), %rcx
	addq	$16, %rcx
	callq	_ZN81_$LT$core..str..pattern..CharSearcher$u20$as$u20$core..str..pattern..Searcher$GT$8haystack17hf5706c805c53c32eE
	movq	%rax, 64(%rsp)
	movq	%rdx, 72(%rsp)
	movq	%rax, 152(%rsp)
	movq	%rdx, 160(%rsp)
	jmp	.LBB85_4
.LBB85_2:
	.cv_loc	148 34 603 0
	movq	$0, 88(%rsp)
.LBB85_3:
	.cv_loc	148 34 616 0
	movq	88(%rsp), %rax
	movq	96(%rsp), %rdx
	addq	$216, %rsp
	retq
.LBB85_4:
	.cv_loc	148 34 607 0
	movq	80(%rsp), %rdx
.Ltmp489:
	addq	$16, %rdx
	leaq	104(%rsp), %rcx
	callq	_ZN81_$LT$core..str..pattern..CharSearcher$u20$as$u20$core..str..pattern..Searcher$GT$10next_match17h635089e7cfdc5f4cE
	movq	104(%rsp), %rax
	testq	%rax, %rax
	je	.LBB85_7
	jmp	.LBB85_12
.LBB85_12:
	jmp	.LBB85_8
	ud2
.LBB85_7:
	.cv_loc	148 34 614 0
	movq	80(%rsp), %rcx
	callq	_ZN4core3str4iter22SplitInternal$LT$P$GT$7get_end17h31fa6a0ce2fc975cE
	movq	%rdx, 96(%rsp)
	movq	%rax, 88(%rsp)
	jmp	.LBB85_11
.LBB85_8:
	.cv_loc	148 34 609 0
	movq	72(%rsp), %r9
	movq	64(%rsp), %r8
	movq	80(%rsp), %rcx
	movq	112(%rsp), %rax
	movq	%rax, 168(%rsp)
	movq	120(%rsp), %rdx
	movq	%rdx, 40(%rsp)
	movq	%rdx, 176(%rsp)
.Ltmp490:
	.cv_loc	148 34 610 0
	movq	%r8, 184(%rsp)
	movq	%r9, 192(%rsp)
	movq	(%rcx), %rcx
	movq	%rcx, 128(%rsp)
	movq	%rax, 136(%rsp)
.Ltmp491:
	.cv_inline_site_id 149 within 148 inlined_at 34 610 0
	.cv_loc	149 22 511 0
	movq	128(%rsp), %rcx
	movq	136(%rsp), %rdx
	callq	_ZN4core3str6traits108_$LT$impl$u20$core..slice..index..SliceIndex$LT$str$GT$$u20$for$u20$core..ops..range..Range$LT$usize$GT$$GT$13get_unchecked17h01c7ab9ac73cacb2E
	movq	%rax, 48(%rsp)
	movq	%rdx, 56(%rsp)
	movq	56(%rsp), %rax
	movq	48(%rsp), %rcx
	movq	80(%rsp), %rdx
	movq	40(%rsp), %r8
	movq	%rcx, 200(%rsp)
	movq	%rax, 208(%rsp)
.Ltmp492:
	.cv_loc	148 34 611 0
	movq	%r8, (%rdx)
	.cv_loc	148 34 612 0
	movq	%rcx, 88(%rsp)
	movq	%rax, 96(%rsp)
.Ltmp493:
.LBB85_10:
	.cv_loc	148 34 616 0
	jmp	.LBB85_3
.LBB85_11:
.Ltmp494:
	.cv_loc	148 34 614 0
	jmp	.LBB85_10
.Ltmp495:
.Lfunc_end85:
	.seh_endproc

	.def	_ZN4core3str4iter22SplitInternal$LT$P$GT$7get_end17h31fa6a0ce2fc975cE;
	.scl	3;
	.type	32;
	.endef
	.section	.text,"xr",one_only,_ZN4core3str4iter22SplitInternal$LT$P$GT$7get_end17h31fa6a0ce2fc975cE
	.p2align	4, 0x90
_ZN4core3str4iter22SplitInternal$LT$P$GT$7get_end17h31fa6a0ce2fc975cE:
.Lfunc_begin86:
	.cv_func_id 150
	.cv_loc	150 34 587 0
.seh_proc _ZN4core3str4iter22SplitInternal$LT$P$GT$7get_end17h31fa6a0ce2fc975cE
	subq	$152, %rsp
	.seh_stackalloc 152
	.seh_endprologue
	movq	%rcx, 64(%rsp)
	movq	%rcx, 112(%rsp)
.Ltmp496:
	.cv_loc	150 34 588 0
	movb	65(%rcx), %al
	xorb	$-1, %al
	testb	$1, %al
	jne	.LBB86_2
	movb	$0, 94(%rsp)
	jmp	.LBB86_6
.LBB86_2:
	movq	64(%rsp), %rax
	testb	$1, 64(%rax)
	jne	.LBB86_4
	movq	64(%rsp), %rcx
	movq	8(%rcx), %rax
	subq	(%rcx), %rax
	cmpq	$0, %rax
	seta	%al
	andb	$1, %al
	movb	%al, 95(%rsp)
	jmp	.LBB86_5
.LBB86_4:
	movb	$1, 95(%rsp)
.LBB86_5:
	movb	95(%rsp), %al
	andb	$1, %al
	movb	%al, 94(%rsp)
.LBB86_6:
	testb	$1, 94(%rsp)
	jne	.LBB86_8
	.cv_loc	150 34 596 0
	movq	$0, 72(%rsp)
	.cv_loc	150 34 588 0
	jmp	.LBB86_11
.LBB86_8:
	.cv_loc	150 34 589 0
	movq	64(%rsp), %rcx
	movb	$1, 65(%rcx)
	.cv_loc	150 34 592 0
	addq	$16, %rcx
	callq	_ZN81_$LT$core..str..pattern..CharSearcher$u20$as$u20$core..str..pattern..Searcher$GT$8haystack17hf5706c805c53c32eE
	movq	%rax, 48(%rsp)
	movq	%rdx, 56(%rsp)
	movq	56(%rsp), %r9
	movq	48(%rsp), %r8
	movq	64(%rsp), %rax
	movq	%r8, 120(%rsp)
	movq	%r9, 128(%rsp)
	movq	(%rax), %rcx
	movq	8(%rax), %rax
	movq	%rcx, 96(%rsp)
	movq	%rax, 104(%rsp)
.Ltmp497:
	.cv_inline_site_id 151 within 150 inlined_at 34 592 0
	.cv_loc	151 22 511 0
	movq	96(%rsp), %rcx
	movq	104(%rsp), %rdx
	callq	_ZN4core3str6traits108_$LT$impl$u20$core..slice..index..SliceIndex$LT$str$GT$$u20$for$u20$core..ops..range..Range$LT$usize$GT$$GT$13get_unchecked17h01c7ab9ac73cacb2E
	movq	%rax, 32(%rsp)
	movq	%rdx, 40(%rsp)
	movq	40(%rsp), %rax
	movq	32(%rsp), %rcx
	movq	%rcx, 136(%rsp)
	movq	%rax, 144(%rsp)
.Ltmp498:
	.cv_loc	150 34 593 0
	movq	%rcx, 72(%rsp)
	movq	%rax, 80(%rsp)
.Ltmp499:
.LBB86_11:
	.cv_loc	150 34 598 0
	movq	72(%rsp), %rax
	movq	80(%rsp), %rdx
	addq	$152, %rsp
	retq
.Ltmp500:
.Lfunc_end86:
	.seh_endproc

	.def	_ZN4core3str6traits108_$LT$impl$u20$core..slice..index..SliceIndex$LT$str$GT$$u20$for$u20$core..ops..range..Range$LT$usize$GT$$GT$13get_unchecked17h01c7ab9ac73cacb2E;
	.scl	3;
	.type	32;
	.endef
	.section	.text,"xr",one_only,_ZN4core3str6traits108_$LT$impl$u20$core..slice..index..SliceIndex$LT$str$GT$$u20$for$u20$core..ops..range..Range$LT$usize$GT$$GT$13get_unchecked17h01c7ab9ac73cacb2E
	.p2align	4, 0x90
_ZN4core3str6traits108_$LT$impl$u20$core..slice..index..SliceIndex$LT$str$GT$$u20$for$u20$core..ops..range..Range$LT$usize$GT$$GT$13get_unchecked17h01c7ab9ac73cacb2E:
.Lfunc_begin87:
	.cv_func_id 152
	.cv_file	35 "/rustc/90743e7298aca107ddaa0c202a4d3604e29bfeb6\\library\\core\\src\\str\\traits.rs" "593F0C4EFCC706285E436259EE24C520A66E8A50" 2
	.cv_loc	152 35 197 0
.seh_proc _ZN4core3str6traits108_$LT$impl$u20$core..slice..index..SliceIndex$LT$str$GT$$u20$for$u20$core..ops..range..Range$LT$usize$GT$$GT$13get_unchecked17h01c7ab9ac73cacb2E
	subq	$216, %rsp
	.seh_stackalloc 216
	.seh_endprologue
	movq	%rdx, (%rsp)
	movq	%rcx, 8(%rsp)
	movq	%rcx, 56(%rsp)
	movq	%rdx, 64(%rsp)
	movq	%r8, 72(%rsp)
	movq	%r9, 80(%rsp)
.Ltmp501:
	.cv_loc	152 35 198 0
	movq	%r8, 88(%rsp)
	movq	%r9, 96(%rsp)
.Ltmp502:
	.cv_loc	152 35 201 0
	movq	%r8, 104(%rsp)
	movq	%r9, 112(%rsp)
.Ltmp503:
	.cv_inline_site_id 153 within 152 inlined_at 35 201 0
	.cv_loc	153 3 1408 0
	movq	%r8, 120(%rsp)
.Ltmp504:
	.cv_loc	152 35 201 0
	movq	%rcx, 128(%rsp)
.Ltmp505:
	.cv_loc	153 3 897 0
	movq	%r8, 136(%rsp)
	movq	%rcx, 144(%rsp)
.Ltmp506:
	.cv_inline_site_id 154 within 153 inlined_at 3 897 0
	.cv_loc	154 3 461 0
	addq	%rcx, %r8
	movq	%r8, 152(%rsp)
	movq	152(%rsp), %rax
	movq	%rax, 16(%rsp)
	movq	%rax, 160(%rsp)
.Ltmp507:
	.cv_loc	152 35 202 0
	movq	16(%rsp), %rcx
	movq	8(%rsp), %rdx
	movq	(%rsp), %rax
.Ltmp508:
	subq	%rdx, %rax
	movq	%rax, 168(%rsp)
.Ltmp509:
	.cv_loc	152 35 203 0
	movq	%rcx, 176(%rsp)
	movq	%rax, 184(%rsp)
.Ltmp510:
	.cv_inline_site_id 155 within 152 inlined_at 35 203 0
	.cv_loc	155 4 710 0
	movq	%rcx, 192(%rsp)
.Ltmp511:
	.cv_inline_site_id 156 within 155 inlined_at 4 710 0
	.cv_loc	156 3 50 0
	movq	%rcx, 200(%rsp)
.Ltmp512:
	.cv_loc	155 4 710 0
	movq	%rax, 208(%rsp)
.Ltmp513:
	.cv_loc	156 5 117 0
	movq	%rcx, 40(%rsp)
	movq	%rax, 48(%rsp)
	movq	40(%rsp), %rcx
	movq	48(%rsp), %rax
	movq	%rcx, 24(%rsp)
	movq	%rax, 32(%rsp)
	movq	24(%rsp), %rax
	movq	32(%rsp), %rdx
.Ltmp514:
	.cv_loc	152 35 204 0
	addq	$216, %rsp
	retq
.Ltmp515:
.Lfunc_end87:
	.seh_endproc

	.def	_ZN4core3str6traits112_$LT$impl$u20$core..slice..index..SliceIndex$LT$str$GT$$u20$for$u20$core..ops..range..RangeFrom$LT$usize$GT$$GT$13get_unchecked17ha6300ce664386a1eE;
	.scl	3;
	.type	32;
	.endef
	.section	.text,"xr",one_only,_ZN4core3str6traits112_$LT$impl$u20$core..slice..index..SliceIndex$LT$str$GT$$u20$for$u20$core..ops..range..RangeFrom$LT$usize$GT$$GT$13get_unchecked17ha6300ce664386a1eE
	.p2align	4, 0x90
_ZN4core3str6traits112_$LT$impl$u20$core..slice..index..SliceIndex$LT$str$GT$$u20$for$u20$core..ops..range..RangeFrom$LT$usize$GT$$GT$13get_unchecked17ha6300ce664386a1eE:
.Lfunc_begin88:
	.cv_func_id 157
	.cv_loc	157 35 349 0
.seh_proc _ZN4core3str6traits112_$LT$impl$u20$core..slice..index..SliceIndex$LT$str$GT$$u20$for$u20$core..ops..range..RangeFrom$LT$usize$GT$$GT$13get_unchecked17ha6300ce664386a1eE
	subq	$264, %rsp
	.seh_stackalloc 264
	.seh_endprologue
	movq	%r8, (%rsp)
	movq	%rdx, 8(%rsp)
	movq	%rcx, 16(%rsp)
	movq	%rcx, 80(%rsp)
	movq	%rdx, 88(%rsp)
	movq	%r8, 96(%rsp)
.Ltmp516:
	.cv_loc	157 35 350 0
	movq	%rdx, 104(%rsp)
	movq	%r8, 112(%rsp)
.Ltmp517:
	.cv_loc	157 35 353 0
	movq	%rdx, 120(%rsp)
	movq	%r8, 128(%rsp)
.Ltmp518:
	.cv_inline_site_id 158 within 157 inlined_at 35 353 0
	.cv_loc	158 3 1408 0
	movq	%rdx, 136(%rsp)
.Ltmp519:
	.cv_loc	157 35 353 0
	movq	%rcx, 144(%rsp)
.Ltmp520:
	.cv_loc	158 3 897 0
	movq	%rdx, 152(%rsp)
	movq	%rcx, 160(%rsp)
.Ltmp521:
	.cv_inline_site_id 159 within 158 inlined_at 3 897 0
	.cv_loc	159 3 461 0
	addq	%rcx, %rdx
	movq	%rdx, 168(%rsp)
	movq	168(%rsp), %rax
	movq	%rax, 24(%rsp)
	movq	%rax, 176(%rsp)
.Ltmp522:
	.cv_loc	157 35 354 0
	movq	24(%rsp), %rcx
	movq	16(%rsp), %rdx
	movq	(%rsp), %rax
	movq	8(%rsp), %r8
.Ltmp523:
	movq	%r8, 184(%rsp)
	movq	%rax, 192(%rsp)
.Ltmp524:
	.cv_inline_site_id 160 within 157 inlined_at 35 354 0
	.cv_loc	160 3 1388 0
	movq	%r8, 200(%rsp)
	movq	%rax, 208(%rsp)
.Ltmp525:
	.cv_inline_site_id 161 within 160 inlined_at 3 1388 0
	.cv_loc	161 5 97 0
	movq	%r8, 32(%rsp)
	movq	%rax, 40(%rsp)
	movq	40(%rsp), %rax
.Ltmp526:
	.cv_loc	157 35 354 0
	subq	%rdx, %rax
	movq	%rax, 216(%rsp)
.Ltmp527:
	.cv_loc	157 35 355 0
	movq	%rcx, 224(%rsp)
	movq	%rax, 232(%rsp)
.Ltmp528:
	.cv_inline_site_id 162 within 157 inlined_at 35 355 0
	.cv_loc	162 4 710 0
	movq	%rcx, 240(%rsp)
.Ltmp529:
	.cv_inline_site_id 163 within 162 inlined_at 4 710 0
	.cv_loc	163 3 50 0
	movq	%rcx, 248(%rsp)
.Ltmp530:
	.cv_loc	162 4 710 0
	movq	%rax, 256(%rsp)
.Ltmp531:
	.cv_loc	163 5 117 0
	movq	%rcx, 64(%rsp)
	movq	%rax, 72(%rsp)
	movq	64(%rsp), %rcx
	movq	72(%rsp), %rax
	movq	%rcx, 48(%rsp)
	movq	%rax, 56(%rsp)
	movq	48(%rsp), %rax
	movq	56(%rsp), %rdx
.Ltmp532:
	.cv_loc	157 35 356 0
	addq	$264, %rsp
	retq
.Ltmp533:
.Lfunc_end88:
	.seh_endproc

	.def	_ZN4core3str6traits112_$LT$impl$u20$core..slice..index..SliceIndex$LT$str$GT$$u20$for$u20$core..ops..range..RangeFrom$LT$usize$GT$$GT$3get17h2bf81e3a639c4549E;
	.scl	3;
	.type	32;
	.endef
	.section	.text,"xr",one_only,_ZN4core3str6traits112_$LT$impl$u20$core..slice..index..SliceIndex$LT$str$GT$$u20$for$u20$core..ops..range..RangeFrom$LT$usize$GT$$GT$3get17h2bf81e3a639c4549E
	.p2align	4, 0x90
_ZN4core3str6traits112_$LT$impl$u20$core..slice..index..SliceIndex$LT$str$GT$$u20$for$u20$core..ops..range..RangeFrom$LT$usize$GT$$GT$3get17h2bf81e3a639c4549E:
.Lfunc_begin89:
	.cv_func_id 164
	.cv_loc	164 35 329 0
.seh_proc _ZN4core3str6traits112_$LT$impl$u20$core..slice..index..SliceIndex$LT$str$GT$$u20$for$u20$core..ops..range..RangeFrom$LT$usize$GT$$GT$3get17h2bf81e3a639c4549E
	subq	$120, %rsp
	.seh_stackalloc 120
	.seh_endprologue
	movq	%r8, 48(%rsp)
	movq	%rdx, %rax
	movq	48(%rsp), %rdx
	movq	%rax, 56(%rsp)
	movq	%rcx, %r8
	movq	56(%rsp), %rcx
	movq	%r8, 64(%rsp)
	movq	%r8, 96(%rsp)
	movq	%rcx, 104(%rsp)
	movq	%rdx, 112(%rsp)
.Ltmp534:
	.cv_loc	164 35 330 0
	callq	_ZN4core3str21_$LT$impl$u20$str$GT$16is_char_boundary17hb5663337ea8c10c8E
	movb	%al, 79(%rsp)
	movb	79(%rsp), %al
	testb	$1, %al
	jne	.LBB89_3
	jmp	.LBB89_2
.LBB89_2:
	.cv_loc	164 35 335 0
	movq	$0, 80(%rsp)
	.cv_loc	164 35 330 0
	jmp	.LBB89_5
.LBB89_3:
	.cv_loc	164 35 333 0
	movq	48(%rsp), %r8
	movq	56(%rsp), %rdx
	movq	64(%rsp), %rcx
	callq	_ZN4core3str6traits112_$LT$impl$u20$core..slice..index..SliceIndex$LT$str$GT$$u20$for$u20$core..ops..range..RangeFrom$LT$usize$GT$$GT$13get_unchecked17ha6300ce664386a1eE
	movq	%rax, 32(%rsp)
	movq	%rdx, 40(%rsp)
	movq	40(%rsp), %rax
	movq	32(%rsp), %rcx
	movq	%rcx, 80(%rsp)
	movq	%rax, 88(%rsp)
.LBB89_5:
	.cv_loc	164 35 337 0
	movq	80(%rsp), %rax
	movq	88(%rsp), %rdx
	addq	$120, %rsp
	retq
.Ltmp535:
.Lfunc_end89:
	.seh_endproc

	.def	_ZN4core3str6traits112_$LT$impl$u20$core..slice..index..SliceIndex$LT$str$GT$$u20$for$u20$core..ops..range..RangeFrom$LT$usize$GT$$GT$5index17hcdf8bf336f652d57E;
	.scl	3;
	.type	32;
	.endef
	.section	.text,"xr",one_only,_ZN4core3str6traits112_$LT$impl$u20$core..slice..index..SliceIndex$LT$str$GT$$u20$for$u20$core..ops..range..RangeFrom$LT$usize$GT$$GT$5index17hcdf8bf336f652d57E
	.p2align	4, 0x90
_ZN4core3str6traits112_$LT$impl$u20$core..slice..index..SliceIndex$LT$str$GT$$u20$for$u20$core..ops..range..RangeFrom$LT$usize$GT$$GT$5index17hcdf8bf336f652d57E:
.Lfunc_begin90:
	.cv_func_id 165
	.cv_loc	165 35 366 0
.seh_proc _ZN4core3str6traits112_$LT$impl$u20$core..slice..index..SliceIndex$LT$str$GT$$u20$for$u20$core..ops..range..RangeFrom$LT$usize$GT$$GT$5index17hcdf8bf336f652d57E
	subq	$232, %rsp
	.seh_stackalloc 232
	.seh_endprologue
	movq	%r9, 56(%rsp)
	movq	%r8, 64(%rsp)
	movq	%rdx, 72(%rsp)
	movq	%rcx, 80(%rsp)
	movq	%rcx, 128(%rsp)
	movq	%rdx, 136(%rsp)
	movq	%r8, 144(%rsp)
.Ltmp536:
	.cv_loc	165 35 367 0
	movq	%rdx, 152(%rsp)
	movq	%r8, 160(%rsp)
.Ltmp537:
	.cv_inline_site_id 166 within 165 inlined_at 35 367 0
	.cv_loc	166 22 160 0
	movq	%rdx, 168(%rsp)
	movq	%r8, 176(%rsp)
.Ltmp538:
	.cv_inline_site_id 167 within 166 inlined_at 22 160 0
	.cv_loc	167 22 327 0
	movq	%rdx, 184(%rsp)
	movq	%r8, 192(%rsp)
	movq	192(%rsp), %rax
	movq	%rax, 88(%rsp)
.Ltmp539:
	.cv_loc	165 35 367 0
	movq	64(%rsp), %r8
	movq	72(%rsp), %rdx
	movq	80(%rsp), %rcx
	movq	88(%rsp), %rax
	movq	%rcx, 96(%rsp)
	movq	%rax, 104(%rsp)
	movq	96(%rsp), %rax
	movq	%rax, 40(%rsp)
	movq	%rax, 200(%rsp)
	movq	104(%rsp), %rax
	movq	%rax, 48(%rsp)
	movq	%rax, 208(%rsp)
.Ltmp540:
	.cv_loc	165 35 368 0
	callq	_ZN4core3str6traits112_$LT$impl$u20$core..slice..index..SliceIndex$LT$str$GT$$u20$for$u20$core..ops..range..RangeFrom$LT$usize$GT$$GT$3get17h2bf81e3a639c4549E
	movq	%rdx, 120(%rsp)
	movq	%rax, 112(%rsp)
	movq	112(%rsp), %rax
	testq	%rax, %rax
	setne	%al
	movzbl	%al, %eax
	je	.LBB90_4
	jmp	.LBB90_6
.LBB90_6:
	jmp	.LBB90_5
	ud2
.LBB90_4:
	.cv_loc	165 35 370 0
	movq	48(%rsp), %r9
	movq	40(%rsp), %r8
	movq	64(%rsp), %rdx
	movq	72(%rsp), %rcx
	movq	56(%rsp), %r10
	movq	%rsp, %rax
	movq	%r10, 32(%rax)
	callq	_ZN4core3str16slice_error_fail17hf423b1ca73e6e559E
	ud2
.LBB90_5:
	.cv_loc	165 35 369 0
	movq	112(%rsp), %rax
	movq	120(%rsp), %rdx
	movq	%rax, 216(%rsp)
	movq	%rdx, 224(%rsp)
.Ltmp541:
	.cv_loc	165 35 372 0
	addq	$232, %rsp
	retq
.Ltmp542:
.Lfunc_end90:
	.seh_endproc

	.def	_ZN4core3str6traits54_$LT$impl$u20$core..cmp..PartialEq$u20$for$u20$str$GT$2eq17h8312197c7aca69b1E;
	.scl	3;
	.type	32;
	.endef
	.section	.text,"xr",one_only,_ZN4core3str6traits54_$LT$impl$u20$core..cmp..PartialEq$u20$for$u20$str$GT$2eq17h8312197c7aca69b1E
	.p2align	4, 0x90
_ZN4core3str6traits54_$LT$impl$u20$core..cmp..PartialEq$u20$for$u20$str$GT$2eq17h8312197c7aca69b1E:
.Lfunc_begin91:
	.cv_func_id 168
	.cv_loc	168 35 28 0
.seh_proc _ZN4core3str6traits54_$LT$impl$u20$core..cmp..PartialEq$u20$for$u20$str$GT$2eq17h8312197c7aca69b1E
	subq	$168, %rsp
	.seh_stackalloc 168
	.seh_endprologue
	movq	%r9, 40(%rsp)
	movq	%r8, 48(%rsp)
	movq	%rcx, 88(%rsp)
	movq	%rdx, 96(%rsp)
	movq	%r8, 104(%rsp)
	movq	%r9, 112(%rsp)
.Ltmp543:
	.cv_loc	168 35 29 0
	movq	%rcx, 120(%rsp)
	movq	%rdx, 128(%rsp)
.Ltmp544:
	.cv_inline_site_id 169 within 168 inlined_at 35 29 0
	.cv_loc	169 22 327 0
	movq	%rcx, 56(%rsp)
	movq	%rdx, 64(%rsp)
.Ltmp545:
	.cv_loc	168 35 29 0
	movq	40(%rsp), %rax
	movq	48(%rsp), %rcx
	leaq	56(%rsp), %rdx
	movq	%rdx, 136(%rsp)
	movq	%rcx, 144(%rsp)
	movq	%rax, 152(%rsp)
.Ltmp546:
	.cv_loc	169 22 327 0
	movq	%rcx, 72(%rsp)
	movq	%rax, 80(%rsp)
.Ltmp547:
	.cv_loc	168 35 29 0
	leaq	72(%rsp), %rax
	movq	%rax, 160(%rsp)
.Ltmp548:
	.cv_loc	169 25 1548 0
	movq	56(%rsp), %rcx
	movq	64(%rsp), %rdx
	movq	72(%rsp), %r8
	movq	80(%rsp), %r9
	callq	_ZN4core5slice3cmp81_$LT$impl$u20$core..cmp..PartialEq$LT$$u5b$B$u5d$$GT$$u20$for$u20$$u5b$A$u5d$$GT$2eq17h71c202e488b692cdE
	movb	%al, 39(%rsp)
.Ltmp549:
	.cv_loc	168 35 30 0
	movb	39(%rsp), %al
	andb	$1, %al
	movzbl	%al, %eax
	addq	$168, %rsp
	retq
.Ltmp550:
.Lfunc_end91:
	.seh_endproc

	.def	_ZN4core3str6traits66_$LT$impl$u20$core..ops..index..Index$LT$I$GT$$u20$for$u20$str$GT$5index17h080a87d389becc04E;
	.scl	3;
	.type	32;
	.endef
	.section	.text,"xr",one_only,_ZN4core3str6traits66_$LT$impl$u20$core..ops..index..Index$LT$I$GT$$u20$for$u20$str$GT$5index17h080a87d389becc04E
	.p2align	4, 0x90
_ZN4core3str6traits66_$LT$impl$u20$core..ops..index..Index$LT$I$GT$$u20$for$u20$str$GT$5index17h080a87d389becc04E:
.Lfunc_begin92:
	.cv_func_id 170
	.cv_loc	170 35 64 0
.seh_proc _ZN4core3str6traits66_$LT$impl$u20$core..ops..index..Index$LT$I$GT$$u20$for$u20$str$GT$5index17h080a87d389becc04E
	subq	$88, %rsp
	.seh_stackalloc 88
	.seh_endprologue
	movq	%r8, 40(%rsp)
	movq	%rdx, %r8
	movq	%rcx, %rdx
	movq	40(%rsp), %rcx
	movq	%rdx, 64(%rsp)
	movq	%r8, 72(%rsp)
	movq	%rcx, 80(%rsp)
.Ltmp551:
	.cv_loc	170 35 65 0
	callq	_ZN4core3str6traits112_$LT$impl$u20$core..slice..index..SliceIndex$LT$str$GT$$u20$for$u20$core..ops..range..RangeFrom$LT$usize$GT$$GT$5index17hcdf8bf336f652d57E
	movq	%rax, 48(%rsp)
	movq	%rdx, 56(%rsp)
	.cv_loc	170 35 66 0
	movq	56(%rsp), %rdx
	movq	48(%rsp), %rax
	addq	$88, %rsp
	retq
.Ltmp552:
.Lfunc_end92:
	.seh_endproc

	.def	_ZN4core3str7pattern14TwoWaySearcher4next17h2d43b3d21fcac988E;
	.scl	3;
	.type	32;
	.endef
	.section	.text,"xr",one_only,_ZN4core3str7pattern14TwoWaySearcher4next17h2d43b3d21fcac988E
	.p2align	4, 0x90
_ZN4core3str7pattern14TwoWaySearcher4next17h2d43b3d21fcac988E:
.Lfunc_begin93:
	.cv_func_id 171
	.cv_file	36 "/rustc/90743e7298aca107ddaa0c202a4d3604e29bfeb6\\library\\core\\src\\str\\pattern.rs" "DEDC9EE0CC0DDDC3F24181DE53E24EDCB9321DB8" 2
	.cv_loc	171 36 1384 0
.seh_proc _ZN4core3str7pattern14TwoWaySearcher4next17h2d43b3d21fcac988E
	subq	$520, %rsp
	.seh_stackalloc 520
	.seh_endprologue
	movq	%r9, 120(%rsp)
	movq	%r8, %r10
	movq	%r10, 128(%rsp)
	movq	%rdx, 136(%rsp)
	movq	%rcx, 144(%rsp)
	movq	%rcx, 152(%rsp)
	movb	576(%rsp), %cl
	movb	%cl, 167(%rsp)
	movq	568(%rsp), %rax
	movq	%rax, 168(%rsp)
	movq	560(%rsp), %r8
	movq	%r8, 176(%rsp)
	movq	%rdx, 328(%rsp)
	movq	%r10, 336(%rsp)
	movq	%r9, 344(%rsp)
	movq	%r8, 352(%rsp)
	movq	%rax, 360(%rsp)
	andb	$1, %cl
	movb	%cl, 375(%rsp)
.Ltmp553:
	.cv_loc	171 36 1389 0
	movq	32(%rdx), %rcx
	movq	%rcx, 184(%rsp)
	movq	%rcx, 376(%rsp)
.Ltmp554:
	.cv_loc	171 36 1390 0
	subq	$1, %rax
	movq	%rax, 192(%rsp)
	movq	%rax, 384(%rsp)
.LBB93_1:
	.cv_loc	171 36 1395 0
	movq	120(%rsp), %r8
	movq	128(%rsp), %rdx
	movq	136(%rsp), %rax
	movq	192(%rsp), %rcx
.Ltmp555:
	movq	%rdx, 392(%rsp)
	movq	%r8, 400(%rsp)
	addq	32(%rax), %rcx
	movq	%rcx, 408(%rsp)
.Ltmp556:
	.cv_inline_site_id 172 within 171 inlined_at 36 1395 0
	.cv_loc	172 32 336 0
	callq	_ZN75_$LT$usize$u20$as$u20$core..slice..index..SliceIndex$LT$$u5b$T$u5d$$GT$$GT$3get17h8d2a3103036ed4e2E
	movq	%rax, 200(%rsp)
.Ltmp557:
	.cv_loc	171 36 1395 0
	movq	200(%rsp), %rax
	testq	%rax, %rax
	setne	%al
	movzbl	%al, %eax
	je	.LBB93_4
	jmp	.LBB93_58
.LBB93_58:
	jmp	.LBB93_5
	ud2
.LBB93_4:
	.cv_loc	171 36 1398 0
	movq	184(%rsp), %rdx
	movq	144(%rsp), %rcx
	movq	136(%rsp), %rax
	movq	120(%rsp), %r8
	movq	%r8, 32(%rax)
	.cv_loc	171 36 1399 0
	movq	32(%rax), %r8
	callq	_ZN89_$LT$core..str..pattern..RejectAndMatch$u20$as$u20$core..str..pattern..TwoWayStrategy$GT$9rejecting17h1875293791181d9cE
	jmp	.LBB93_57
.LBB93_5:
	.cv_loc	171 36 1396 0
	movq	200(%rsp), %rax
	movb	(%rax), %al
	movb	%al, 118(%rsp)
	movb	%al, 422(%rsp)
.Ltmp558:
	.cv_loc	171 36 1396 0
	movb	%al, 423(%rsp)
.Ltmp559:
	.cv_loc	171 36 1403 0
	callq	_ZN89_$LT$core..str..pattern..RejectAndMatch$u20$as$u20$core..str..pattern..TwoWayStrategy$GT$16use_early_reject17h7562434d365ac511E
	movb	%al, 119(%rsp)
	movb	119(%rsp), %al
	testb	$1, %al
	jne	.LBB93_8
	jmp	.LBB93_7
.LBB93_7:
	movb	$0, 215(%rsp)
	jmp	.LBB93_9
.LBB93_8:
	movq	184(%rsp), %rax
	movq	136(%rsp), %rcx
	cmpq	32(%rcx), %rax
	setne	%al
	andb	$1, %al
	movb	%al, 215(%rsp)
.LBB93_9:
	testb	$1, 215(%rsp)
	jne	.LBB93_11
	.cv_loc	171 36 1408 0
	movb	118(%rsp), %cl
	movq	136(%rsp), %rax
	movq	%rax, 424(%rsp)
	movb	%cl, 439(%rsp)
.Ltmp560:
	.cv_inline_site_id 173 within 171 inlined_at 36 1408 0
	.cv_loc	173 36 1375 0
	movq	24(%rax), %rax
	andb	$63, %cl
	movzbl	%cl, %ecx
	andq	$63, %rcx
	shrq	%cl, %rax
	andq	$1, %rax
	cmpq	$0, %rax
	setne	%al
.Ltmp561:
	.cv_loc	171 36 1408 0
	xorb	$-1, %al
	testb	$1, %al
	jne	.LBB93_15
	jmp	.LBB93_14
.LBB93_11:
	.cv_loc	171 36 1404 0
	movq	184(%rsp), %rdx
	movq	144(%rsp), %rcx
	movq	136(%rsp), %rax
	movq	32(%rax), %r8
	callq	_ZN89_$LT$core..str..pattern..RejectAndMatch$u20$as$u20$core..str..pattern..TwoWayStrategy$GT$9rejecting17h1875293791181d9cE
	.cv_loc	171 31 1 0
	jmp	.LBB93_13
.Ltmp562:
.LBB93_13:
	.cv_loc	171 36 1452 0
	movq	152(%rsp), %rax
	addq	$520, %rsp
	retq
.LBB93_14:
	.cv_loc	171 36 1418 0
	movb	167(%rsp), %al
.Ltmp563:
	testb	$1, %al
	jne	.LBB93_20
	jmp	.LBB93_19
.LBB93_15:
	.cv_loc	171 36 1409 0
	movb	167(%rsp), %al
	movq	136(%rsp), %rcx
	movq	168(%rsp), %rdx
	addq	32(%rcx), %rdx
	movq	%rdx, 32(%rcx)
	.cv_loc	171 36 1410 0
	xorb	$-1, %al
	testb	$1, %al
	jne	.LBB93_17
.LBB93_16:
	.cv_loc	171 31 1 0
	jmp	.LBB93_18
.LBB93_17:
	.cv_loc	171 36 1411 0
	movq	136(%rsp), %rax
	movq	$0, 48(%rax)
	.cv_loc	171 36 1410 0
	jmp	.LBB93_16
.Ltmp564:
.LBB93_18:
	.cv_loc	171 31 1 0
	jmp	.LBB93_1
.LBB93_19:
	.cv_loc	171 36 1418 0
	movq	136(%rsp), %rax
.Ltmp565:
	movq	(%rax), %rcx
	movq	%rcx, 440(%rsp)
	movq	48(%rax), %rdx
	movq	%rdx, 448(%rsp)
.Ltmp566:
	.cv_inline_site_id 174 within 171 inlined_at 36 1418 0
	.cv_loc	174 25 1293 0
	callq	_ZN4core3cmp3Ord3max17h1d4068f218c92264E
	movq	%rax, 216(%rsp)
	jmp	.LBB93_22
.Ltmp567:
.LBB93_20:
	.cv_loc	171 36 1418 0
	movq	136(%rsp), %rax
	movq	(%rax), %rax
	movq	%rax, 216(%rsp)
.LBB93_21:
	.cv_loc	171 36 1419 0
	movq	168(%rsp), %rax
.Ltmp568:
	movq	216(%rsp), %rcx
	movq	%rcx, 224(%rsp)
	movq	%rax, 232(%rsp)
.Ltmp569:
	.cv_file	37 "/rustc/90743e7298aca107ddaa0c202a4d3604e29bfeb6\\library\\core\\src\\iter\\traits\\collect.rs" "59ED617142F1249567719D91C87EB01551C0426F" 2
	.cv_inline_site_id 175 within 171 inlined_at 36 1419 0
	.cv_loc	175 37 273 0
	movq	224(%rsp), %rcx
	movq	232(%rsp), %rax
.Ltmp570:
	.cv_loc	171 36 1419 0
	movq	%rcx, 240(%rsp)
	movq	%rax, 248(%rsp)
.Ltmp571:
	.cv_loc	171 36 1419 0
	jmp	.LBB93_23
.Ltmp572:
.LBB93_22:
	.cv_loc	171 36 1418 0
	jmp	.LBB93_21
.LBB93_23:
	.cv_loc	171 36 1419 0
	leaq	240(%rsp), %rcx
.Ltmp573:
	movq	%rcx, 456(%rsp)
.Ltmp574:
	.cv_inline_site_id 176 within 171 inlined_at 36 1419 0
	.cv_loc	176 23 711 0
	callq	_ZN89_$LT$core..ops..range..Range$LT$T$GT$$u20$as$u20$core..iter..range..RangeIteratorImpl$GT$9spec_next17h744ceddb6bdfac79E
	movq	%rdx, 264(%rsp)
	movq	%rax, 256(%rsp)
.Ltmp575:
	.cv_loc	171 36 1419 0
	movq	256(%rsp), %rax
	testq	%rax, %rax
	je	.LBB93_26
	jmp	.LBB93_59
.LBB93_59:
	jmp	.LBB93_27
	ud2
.Ltmp576:
.LBB93_26:
	.cv_loc	171 36 1430 0
	movb	167(%rsp), %al
	testb	$1, %al
	jne	.LBB93_38
	jmp	.LBB93_37
.LBB93_27:
	.cv_loc	171 36 1419 0
	movq	168(%rsp), %rcx
.Ltmp577:
	movq	264(%rsp), %rax
	movq	%rax, 104(%rsp)
	movq	%rax, 464(%rsp)
.Ltmp578:
	.cv_loc	171 36 1420 0
	cmpq	%rcx, %rax
	setb	%al
	testb	$1, %al
	jne	.LBB93_28
	jmp	.LBB93_29
.LBB93_28:
	movq	120(%rsp), %rcx
	movq	136(%rsp), %rdx
	movq	104(%rsp), %rax
	movq	176(%rsp), %r8
	movb	(%r8,%rax), %r8b
	movb	%r8b, 95(%rsp)
	addq	32(%rdx), %rax
	movq	%rax, 96(%rsp)
	cmpq	%rcx, %rax
	setb	%al
	testb	$1, %al
	jne	.LBB93_30
	jmp	.LBB93_31
.LBB93_29:
	movq	168(%rsp), %rdx
	movq	104(%rsp), %rcx
	leaq	__unnamed_10(%rip), %r8
	callq	_ZN4core9panicking18panic_bounds_check17he019d82aa2caaf8fE
	ud2
.LBB93_30:
	movb	95(%rsp), %al
	movq	128(%rsp), %rcx
	movq	96(%rsp), %rdx
	cmpb	(%rcx,%rdx), %al
	jne	.LBB93_33
	jmp	.LBB93_32
.LBB93_31:
	movq	120(%rsp), %rdx
	movq	96(%rsp), %rcx
	leaq	__unnamed_11(%rip), %r8
	callq	_ZN4core9panicking18panic_bounds_check17he019d82aa2caaf8fE
	ud2
.Ltmp579:
.LBB93_32:
	.cv_loc	171 36 1419 0
	jmp	.LBB93_23
.LBB93_33:
	.cv_loc	171 36 1421 0
	movb	167(%rsp), %al
	movq	136(%rsp), %rcx
	movq	104(%rsp), %rdx
.Ltmp580:
	subq	(%rcx), %rdx
	addq	$1, %rdx
	addq	32(%rcx), %rdx
	movq	%rdx, 32(%rcx)
	.cv_loc	171 36 1422 0
	xorb	$-1, %al
	testb	$1, %al
	jne	.LBB93_35
.Ltmp581:
.LBB93_34:
	.cv_loc	171 31 1 0
	jmp	.LBB93_36
.LBB93_35:
	.cv_loc	171 36 1423 0
	movq	136(%rsp), %rax
.Ltmp582:
	movq	$0, 48(%rax)
	.cv_loc	171 36 1422 0
	jmp	.LBB93_34
.Ltmp583:
.LBB93_36:
	.cv_loc	171 31 1 0
	jmp	.LBB93_18
.LBB93_37:
	.cv_loc	171 36 1430 0
	movq	136(%rsp), %rax
.Ltmp584:
	movq	48(%rax), %rax
	movq	%rax, 272(%rsp)
	jmp	.LBB93_39
.LBB93_38:
	movq	$0, 272(%rsp)
.LBB93_39:
	.cv_loc	171 36 1431 0
	movq	136(%rsp), %rax
.Ltmp585:
	movq	272(%rsp), %rcx
	movq	(%rax), %rax
	movq	%rcx, 280(%rsp)
	movq	%rax, 288(%rsp)
.Ltmp586:
	.cv_file	38 "/rustc/90743e7298aca107ddaa0c202a4d3604e29bfeb6\\library\\core\\src\\iter\\traits\\iterator.rs" "F154A1C522132BA997B73F8A8AF859EB8B18D482" 2
	.cv_inline_site_id 177 within 171 inlined_at 36 1431 0
	.cv_loc	177 38 3156 0
	movq	280(%rsp), %rcx
	movq	288(%rsp), %rdx
	callq	_ZN4core4iter8adapters3rev12Rev$LT$T$GT$3new17h3b0168b5970976f9E
	movq	%rax, 72(%rsp)
	movq	%rdx, 80(%rsp)
	movq	%rax, 472(%rsp)
	movq	%rdx, 480(%rsp)
.Ltmp587:
	.cv_loc	171 36 1431 0
	movq	80(%rsp), %rax
	movq	72(%rsp), %rcx
	movq	%rcx, 296(%rsp)
	movq	%rax, 304(%rsp)
.LBB93_41:
	.cv_loc	171 36 1431 0
	leaq	296(%rsp), %rcx
.Ltmp588:
	movq	%rcx, 488(%rsp)
.Ltmp589:
	.cv_file	39 "/rustc/90743e7298aca107ddaa0c202a4d3604e29bfeb6\\library\\core\\src\\iter\\adapters\\rev.rs" "972B52D3415814BC0C47E984E069AC66391B24F9" 2
	.cv_inline_site_id 178 within 171 inlined_at 36 1431 0
	.cv_loc	178 39 33 0
	movq	%rcx, 496(%rsp)
.Ltmp590:
	.cv_inline_site_id 179 within 178 inlined_at 39 33 0
	.cv_loc	179 23 819 0
	callq	_ZN89_$LT$core..ops..range..Range$LT$T$GT$$u20$as$u20$core..iter..range..RangeIteratorImpl$GT$14spec_next_back17h89a9a12d97840da7E
	movq	%rdx, 320(%rsp)
	movq	%rax, 312(%rsp)
.Ltmp591:
	.cv_loc	171 36 1431 0
	movq	312(%rsp), %rax
	testq	%rax, %rax
	je	.LBB93_44
	jmp	.LBB93_60
.LBB93_60:
	jmp	.LBB93_45
	ud2
.Ltmp592:
.LBB93_44:
	.cv_loc	171 36 1442 0
	movb	167(%rsp), %al
	movq	136(%rsp), %rcx
	movq	168(%rsp), %rdx
	movq	32(%rcx), %r8
	movq	%r8, 64(%rsp)
	movq	%r8, 512(%rsp)
.Ltmp593:
	.cv_loc	171 36 1445 0
	addq	32(%rcx), %rdx
	movq	%rdx, 32(%rcx)
	.cv_loc	171 36 1446 0
	xorb	$-1, %al
	testb	$1, %al
	jne	.LBB93_55
	jmp	.LBB93_54
.Ltmp594:
.LBB93_45:
	.cv_loc	171 36 1431 0
	movq	168(%rsp), %rcx
.Ltmp595:
	movq	320(%rsp), %rax
	movq	%rax, 56(%rsp)
	movq	%rax, 504(%rsp)
.Ltmp596:
	.cv_loc	171 36 1432 0
	cmpq	%rcx, %rax
	setb	%al
	testb	$1, %al
	jne	.LBB93_46
	jmp	.LBB93_47
.LBB93_46:
	movq	120(%rsp), %rcx
	movq	136(%rsp), %rdx
	movq	56(%rsp), %rax
	movq	176(%rsp), %r8
	movb	(%r8,%rax), %r8b
	movb	%r8b, 47(%rsp)
	addq	32(%rdx), %rax
	movq	%rax, 48(%rsp)
	cmpq	%rcx, %rax
	setb	%al
	testb	$1, %al
	jne	.LBB93_48
	jmp	.LBB93_49
.LBB93_47:
	movq	168(%rsp), %rdx
	movq	56(%rsp), %rcx
	leaq	__unnamed_12(%rip), %r8
	callq	_ZN4core9panicking18panic_bounds_check17he019d82aa2caaf8fE
	ud2
.LBB93_48:
	movb	47(%rsp), %al
	movq	128(%rsp), %rcx
	movq	48(%rsp), %rdx
	cmpb	(%rcx,%rdx), %al
	jne	.LBB93_51
	jmp	.LBB93_50
.LBB93_49:
	movq	120(%rsp), %rdx
	movq	48(%rsp), %rcx
	leaq	__unnamed_13(%rip), %r8
	callq	_ZN4core9panicking18panic_bounds_check17he019d82aa2caaf8fE
	ud2
.Ltmp597:
.LBB93_50:
	.cv_loc	171 36 1431 0
	jmp	.LBB93_41
.LBB93_51:
	.cv_loc	171 36 1433 0
	movb	167(%rsp), %al
	movq	136(%rsp), %rcx
.Ltmp598:
	movq	16(%rcx), %rdx
	addq	32(%rcx), %rdx
	movq	%rdx, 32(%rcx)
	.cv_loc	171 36 1434 0
	xorb	$-1, %al
	testb	$1, %al
	jne	.LBB93_53
.Ltmp599:
.LBB93_52:
	.cv_loc	171 31 1 0
	jmp	.LBB93_36
.LBB93_53:
	.cv_loc	171 36 1435 0
	movq	136(%rsp), %rax
	movq	168(%rsp), %rcx
.Ltmp600:
	subq	16(%rax), %rcx
	movq	%rcx, 48(%rax)
	.cv_loc	171 36 1434 0
	jmp	.LBB93_52
.Ltmp601:
.LBB93_54:
	.cv_loc	171 36 1450 0
	movq	64(%rsp), %rdx
	movq	144(%rsp), %rcx
	movq	168(%rsp), %rax
.Ltmp602:
	movq	%rdx, %r8
	addq	%rax, %r8
	callq	_ZN89_$LT$core..str..pattern..RejectAndMatch$u20$as$u20$core..str..pattern..TwoWayStrategy$GT$8matching17h6ebc8dc6ddb5b07eE
	jmp	.LBB93_56
.LBB93_55:
	.cv_loc	171 36 1447 0
	movq	136(%rsp), %rax
	movq	$0, 48(%rax)
	.cv_loc	171 36 1446 0
	jmp	.LBB93_54
.Ltmp603:
.LBB93_56:
	.cv_loc	171 31 1 0
	jmp	.LBB93_13
.Ltmp604:
.LBB93_57:
	.cv_loc	171 31 1 0
	jmp	.LBB93_13
.Ltmp605:
.Lfunc_end93:
	.seh_endproc

	.def	_ZN4core3str7pattern14TwoWaySearcher4next17h4d6821f55355a9d4E;
	.scl	3;
	.type	32;
	.endef
	.section	.text,"xr",one_only,_ZN4core3str7pattern14TwoWaySearcher4next17h4d6821f55355a9d4E
	.p2align	4, 0x90
_ZN4core3str7pattern14TwoWaySearcher4next17h4d6821f55355a9d4E:
.Lfunc_begin94:
	.cv_func_id 180
	.cv_loc	180 36 1384 0
.seh_proc _ZN4core3str7pattern14TwoWaySearcher4next17h4d6821f55355a9d4E
	subq	$520, %rsp
	.seh_stackalloc 520
	.seh_endprologue
	movq	%r9, 120(%rsp)
	movq	%r8, %r10
	movq	%r10, 128(%rsp)
	movq	%rdx, 136(%rsp)
	movq	%rcx, 144(%rsp)
	movq	%rcx, 152(%rsp)
	movb	576(%rsp), %cl
	movb	%cl, 167(%rsp)
	movq	568(%rsp), %rax
	movq	%rax, 168(%rsp)
	movq	560(%rsp), %r8
	movq	%r8, 176(%rsp)
	movq	%rdx, 328(%rsp)
	movq	%r10, 336(%rsp)
	movq	%r9, 344(%rsp)
	movq	%r8, 352(%rsp)
	movq	%rax, 360(%rsp)
	andb	$1, %cl
	movb	%cl, 375(%rsp)
.Ltmp606:
	.cv_loc	180 36 1389 0
	movq	32(%rdx), %rcx
	movq	%rcx, 184(%rsp)
	movq	%rcx, 376(%rsp)
.Ltmp607:
	.cv_loc	180 36 1390 0
	subq	$1, %rax
	movq	%rax, 192(%rsp)
	movq	%rax, 384(%rsp)
.LBB94_1:
	.cv_loc	180 36 1395 0
	movq	120(%rsp), %r8
	movq	128(%rsp), %rdx
	movq	136(%rsp), %rax
	movq	192(%rsp), %rcx
.Ltmp608:
	movq	%rdx, 392(%rsp)
	movq	%r8, 400(%rsp)
	addq	32(%rax), %rcx
	movq	%rcx, 408(%rsp)
.Ltmp609:
	.cv_inline_site_id 181 within 180 inlined_at 36 1395 0
	.cv_loc	181 32 336 0
	callq	_ZN75_$LT$usize$u20$as$u20$core..slice..index..SliceIndex$LT$$u5b$T$u5d$$GT$$GT$3get17h8d2a3103036ed4e2E
	movq	%rax, 200(%rsp)
.Ltmp610:
	.cv_loc	180 36 1395 0
	movq	200(%rsp), %rax
	testq	%rax, %rax
	setne	%al
	movzbl	%al, %eax
	je	.LBB94_4
	jmp	.LBB94_58
.LBB94_58:
	jmp	.LBB94_5
	ud2
.LBB94_4:
	.cv_loc	180 36 1398 0
	movq	184(%rsp), %rdx
	movq	144(%rsp), %rcx
	movq	136(%rsp), %rax
	movq	120(%rsp), %r8
	movq	%r8, 32(%rax)
	.cv_loc	180 36 1399 0
	movq	32(%rax), %r8
	callq	_ZN84_$LT$core..str..pattern..MatchOnly$u20$as$u20$core..str..pattern..TwoWayStrategy$GT$9rejecting17h52fec360d494472eE
	jmp	.LBB94_57
.LBB94_5:
	.cv_loc	180 36 1396 0
	movq	200(%rsp), %rax
	movb	(%rax), %al
	movb	%al, 118(%rsp)
	movb	%al, 422(%rsp)
.Ltmp611:
	.cv_loc	180 36 1396 0
	movb	%al, 423(%rsp)
.Ltmp612:
	.cv_loc	180 36 1403 0
	callq	_ZN84_$LT$core..str..pattern..MatchOnly$u20$as$u20$core..str..pattern..TwoWayStrategy$GT$16use_early_reject17h20f4afa072685f91E
	movb	%al, 119(%rsp)
	movb	119(%rsp), %al
	testb	$1, %al
	jne	.LBB94_8
	jmp	.LBB94_7
.LBB94_7:
	movb	$0, 215(%rsp)
	jmp	.LBB94_9
.LBB94_8:
	movq	184(%rsp), %rax
	movq	136(%rsp), %rcx
	cmpq	32(%rcx), %rax
	setne	%al
	andb	$1, %al
	movb	%al, 215(%rsp)
.LBB94_9:
	testb	$1, 215(%rsp)
	jne	.LBB94_11
	.cv_loc	180 36 1408 0
	movb	118(%rsp), %cl
	movq	136(%rsp), %rax
	movq	%rax, 424(%rsp)
	movb	%cl, 439(%rsp)
.Ltmp613:
	.cv_inline_site_id 182 within 180 inlined_at 36 1408 0
	.cv_loc	182 36 1375 0
	movq	24(%rax), %rax
	andb	$63, %cl
	movzbl	%cl, %ecx
	andq	$63, %rcx
	shrq	%cl, %rax
	andq	$1, %rax
	cmpq	$0, %rax
	setne	%al
.Ltmp614:
	.cv_loc	180 36 1408 0
	xorb	$-1, %al
	testb	$1, %al
	jne	.LBB94_15
	jmp	.LBB94_14
.LBB94_11:
	.cv_loc	180 36 1404 0
	movq	184(%rsp), %rdx
	movq	144(%rsp), %rcx
	movq	136(%rsp), %rax
	movq	32(%rax), %r8
	callq	_ZN84_$LT$core..str..pattern..MatchOnly$u20$as$u20$core..str..pattern..TwoWayStrategy$GT$9rejecting17h52fec360d494472eE
	.cv_loc	180 31 1 0
	jmp	.LBB94_13
.Ltmp615:
.LBB94_13:
	.cv_loc	180 36 1452 0
	movq	152(%rsp), %rax
	addq	$520, %rsp
	retq
.LBB94_14:
	.cv_loc	180 36 1418 0
	movb	167(%rsp), %al
.Ltmp616:
	testb	$1, %al
	jne	.LBB94_20
	jmp	.LBB94_19
.LBB94_15:
	.cv_loc	180 36 1409 0
	movb	167(%rsp), %al
	movq	136(%rsp), %rcx
	movq	168(%rsp), %rdx
	addq	32(%rcx), %rdx
	movq	%rdx, 32(%rcx)
	.cv_loc	180 36 1410 0
	xorb	$-1, %al
	testb	$1, %al
	jne	.LBB94_17
.LBB94_16:
	.cv_loc	180 31 1 0
	jmp	.LBB94_18
.LBB94_17:
	.cv_loc	180 36 1411 0
	movq	136(%rsp), %rax
	movq	$0, 48(%rax)
	.cv_loc	180 36 1410 0
	jmp	.LBB94_16
.Ltmp617:
.LBB94_18:
	.cv_loc	180 31 1 0
	jmp	.LBB94_1
.LBB94_19:
	.cv_loc	180 36 1418 0
	movq	136(%rsp), %rax
.Ltmp618:
	movq	(%rax), %rcx
	movq	%rcx, 440(%rsp)
	movq	48(%rax), %rdx
	movq	%rdx, 448(%rsp)
.Ltmp619:
	.cv_inline_site_id 183 within 180 inlined_at 36 1418 0
	.cv_loc	183 25 1293 0
	callq	_ZN4core3cmp3Ord3max17h1d4068f218c92264E
	movq	%rax, 216(%rsp)
	jmp	.LBB94_22
.Ltmp620:
.LBB94_20:
	.cv_loc	180 36 1418 0
	movq	136(%rsp), %rax
	movq	(%rax), %rax
	movq	%rax, 216(%rsp)
.LBB94_21:
	.cv_loc	180 36 1419 0
	movq	168(%rsp), %rax
.Ltmp621:
	movq	216(%rsp), %rcx
	movq	%rcx, 224(%rsp)
	movq	%rax, 232(%rsp)
.Ltmp622:
	.cv_inline_site_id 184 within 180 inlined_at 36 1419 0
	.cv_loc	184 37 273 0
	movq	224(%rsp), %rcx
	movq	232(%rsp), %rax
.Ltmp623:
	.cv_loc	180 36 1419 0
	movq	%rcx, 240(%rsp)
	movq	%rax, 248(%rsp)
.Ltmp624:
	.cv_loc	180 36 1419 0
	jmp	.LBB94_23
.Ltmp625:
.LBB94_22:
	.cv_loc	180 36 1418 0
	jmp	.LBB94_21
.LBB94_23:
	.cv_loc	180 36 1419 0
	leaq	240(%rsp), %rcx
.Ltmp626:
	movq	%rcx, 456(%rsp)
.Ltmp627:
	.cv_inline_site_id 185 within 180 inlined_at 36 1419 0
	.cv_loc	185 23 711 0
	callq	_ZN89_$LT$core..ops..range..Range$LT$T$GT$$u20$as$u20$core..iter..range..RangeIteratorImpl$GT$9spec_next17h744ceddb6bdfac79E
	movq	%rdx, 264(%rsp)
	movq	%rax, 256(%rsp)
.Ltmp628:
	.cv_loc	180 36 1419 0
	movq	256(%rsp), %rax
	testq	%rax, %rax
	je	.LBB94_26
	jmp	.LBB94_59
.LBB94_59:
	jmp	.LBB94_27
	ud2
.Ltmp629:
.LBB94_26:
	.cv_loc	180 36 1430 0
	movb	167(%rsp), %al
	testb	$1, %al
	jne	.LBB94_38
	jmp	.LBB94_37
.LBB94_27:
	.cv_loc	180 36 1419 0
	movq	168(%rsp), %rcx
.Ltmp630:
	movq	264(%rsp), %rax
	movq	%rax, 104(%rsp)
	movq	%rax, 464(%rsp)
.Ltmp631:
	.cv_loc	180 36 1420 0
	cmpq	%rcx, %rax
	setb	%al
	testb	$1, %al
	jne	.LBB94_28
	jmp	.LBB94_29
.LBB94_28:
	movq	120(%rsp), %rcx
	movq	136(%rsp), %rdx
	movq	104(%rsp), %rax
	movq	176(%rsp), %r8
	movb	(%r8,%rax), %r8b
	movb	%r8b, 95(%rsp)
	addq	32(%rdx), %rax
	movq	%rax, 96(%rsp)
	cmpq	%rcx, %rax
	setb	%al
	testb	$1, %al
	jne	.LBB94_30
	jmp	.LBB94_31
.LBB94_29:
	movq	168(%rsp), %rdx
	movq	104(%rsp), %rcx
	leaq	__unnamed_10(%rip), %r8
	callq	_ZN4core9panicking18panic_bounds_check17he019d82aa2caaf8fE
	ud2
.LBB94_30:
	movb	95(%rsp), %al
	movq	128(%rsp), %rcx
	movq	96(%rsp), %rdx
	cmpb	(%rcx,%rdx), %al
	jne	.LBB94_33
	jmp	.LBB94_32
.LBB94_31:
	movq	120(%rsp), %rdx
	movq	96(%rsp), %rcx
	leaq	__unnamed_11(%rip), %r8
	callq	_ZN4core9panicking18panic_bounds_check17he019d82aa2caaf8fE
	ud2
.Ltmp632:
.LBB94_32:
	.cv_loc	180 36 1419 0
	jmp	.LBB94_23
.LBB94_33:
	.cv_loc	180 36 1421 0
	movb	167(%rsp), %al
	movq	136(%rsp), %rcx
	movq	104(%rsp), %rdx
.Ltmp633:
	subq	(%rcx), %rdx
	addq	$1, %rdx
	addq	32(%rcx), %rdx
	movq	%rdx, 32(%rcx)
	.cv_loc	180 36 1422 0
	xorb	$-1, %al
	testb	$1, %al
	jne	.LBB94_35
.Ltmp634:
.LBB94_34:
	.cv_loc	180 31 1 0
	jmp	.LBB94_36
.LBB94_35:
	.cv_loc	180 36 1423 0
	movq	136(%rsp), %rax
.Ltmp635:
	movq	$0, 48(%rax)
	.cv_loc	180 36 1422 0
	jmp	.LBB94_34
.Ltmp636:
.LBB94_36:
	.cv_loc	180 31 1 0
	jmp	.LBB94_18
.LBB94_37:
	.cv_loc	180 36 1430 0
	movq	136(%rsp), %rax
.Ltmp637:
	movq	48(%rax), %rax
	movq	%rax, 272(%rsp)
	jmp	.LBB94_39
.LBB94_38:
	movq	$0, 272(%rsp)
.LBB94_39:
	.cv_loc	180 36 1431 0
	movq	136(%rsp), %rax
.Ltmp638:
	movq	272(%rsp), %rcx
	movq	(%rax), %rax
	movq	%rcx, 280(%rsp)
	movq	%rax, 288(%rsp)
.Ltmp639:
	.cv_inline_site_id 186 within 180 inlined_at 36 1431 0
	.cv_loc	186 38 3156 0
	movq	280(%rsp), %rcx
	movq	288(%rsp), %rdx
	callq	_ZN4core4iter8adapters3rev12Rev$LT$T$GT$3new17h3b0168b5970976f9E
	movq	%rax, 72(%rsp)
	movq	%rdx, 80(%rsp)
	movq	%rax, 472(%rsp)
	movq	%rdx, 480(%rsp)
.Ltmp640:
	.cv_loc	180 36 1431 0
	movq	80(%rsp), %rax
	movq	72(%rsp), %rcx
	movq	%rcx, 296(%rsp)
	movq	%rax, 304(%rsp)
.LBB94_41:
	.cv_loc	180 36 1431 0
	leaq	296(%rsp), %rcx
.Ltmp641:
	movq	%rcx, 488(%rsp)
.Ltmp642:
	.cv_inline_site_id 187 within 180 inlined_at 36 1431 0
	.cv_loc	187 39 33 0
	movq	%rcx, 496(%rsp)
.Ltmp643:
	.cv_inline_site_id 188 within 187 inlined_at 39 33 0
	.cv_loc	188 23 819 0
	callq	_ZN89_$LT$core..ops..range..Range$LT$T$GT$$u20$as$u20$core..iter..range..RangeIteratorImpl$GT$14spec_next_back17h89a9a12d97840da7E
	movq	%rdx, 320(%rsp)
	movq	%rax, 312(%rsp)
.Ltmp644:
	.cv_loc	180 36 1431 0
	movq	312(%rsp), %rax
	testq	%rax, %rax
	je	.LBB94_44
	jmp	.LBB94_60
.LBB94_60:
	jmp	.LBB94_45
	ud2
.Ltmp645:
.LBB94_44:
	.cv_loc	180 36 1442 0
	movb	167(%rsp), %al
	movq	136(%rsp), %rcx
	movq	168(%rsp), %rdx
	movq	32(%rcx), %r8
	movq	%r8, 64(%rsp)
	movq	%r8, 512(%rsp)
.Ltmp646:
	.cv_loc	180 36 1445 0
	addq	32(%rcx), %rdx
	movq	%rdx, 32(%rcx)
	.cv_loc	180 36 1446 0
	xorb	$-1, %al
	testb	$1, %al
	jne	.LBB94_55
	jmp	.LBB94_54
.Ltmp647:
.LBB94_45:
	.cv_loc	180 36 1431 0
	movq	168(%rsp), %rcx
.Ltmp648:
	movq	320(%rsp), %rax
	movq	%rax, 56(%rsp)
	movq	%rax, 504(%rsp)
.Ltmp649:
	.cv_loc	180 36 1432 0
	cmpq	%rcx, %rax
	setb	%al
	testb	$1, %al
	jne	.LBB94_46
	jmp	.LBB94_47
.LBB94_46:
	movq	120(%rsp), %rcx
	movq	136(%rsp), %rdx
	movq	56(%rsp), %rax
	movq	176(%rsp), %r8
	movb	(%r8,%rax), %r8b
	movb	%r8b, 47(%rsp)
	addq	32(%rdx), %rax
	movq	%rax, 48(%rsp)
	cmpq	%rcx, %rax
	setb	%al
	testb	$1, %al
	jne	.LBB94_48
	jmp	.LBB94_49
.LBB94_47:
	movq	168(%rsp), %rdx
	movq	56(%rsp), %rcx
	leaq	__unnamed_12(%rip), %r8
	callq	_ZN4core9panicking18panic_bounds_check17he019d82aa2caaf8fE
	ud2
.LBB94_48:
	movb	47(%rsp), %al
	movq	128(%rsp), %rcx
	movq	48(%rsp), %rdx
	cmpb	(%rcx,%rdx), %al
	jne	.LBB94_51
	jmp	.LBB94_50
.LBB94_49:
	movq	120(%rsp), %rdx
	movq	48(%rsp), %rcx
	leaq	__unnamed_13(%rip), %r8
	callq	_ZN4core9panicking18panic_bounds_check17he019d82aa2caaf8fE
	ud2
.Ltmp650:
.LBB94_50:
	.cv_loc	180 36 1431 0
	jmp	.LBB94_41
.LBB94_51:
	.cv_loc	180 36 1433 0
	movb	167(%rsp), %al
	movq	136(%rsp), %rcx
.Ltmp651:
	movq	16(%rcx), %rdx
	addq	32(%rcx), %rdx
	movq	%rdx, 32(%rcx)
	.cv_loc	180 36 1434 0
	xorb	$-1, %al
	testb	$1, %al
	jne	.LBB94_53
.Ltmp652:
.LBB94_52:
	.cv_loc	180 31 1 0
	jmp	.LBB94_36
.LBB94_53:
	.cv_loc	180 36 1435 0
	movq	136(%rsp), %rax
	movq	168(%rsp), %rcx
.Ltmp653:
	subq	16(%rax), %rcx
	movq	%rcx, 48(%rax)
	.cv_loc	180 36 1434 0
	jmp	.LBB94_52
.Ltmp654:
.LBB94_54:
	.cv_loc	180 36 1450 0
	movq	64(%rsp), %rdx
	movq	144(%rsp), %rcx
	movq	168(%rsp), %rax
.Ltmp655:
	movq	%rdx, %r8
	addq	%rax, %r8
	callq	_ZN84_$LT$core..str..pattern..MatchOnly$u20$as$u20$core..str..pattern..TwoWayStrategy$GT$8matching17h782a22e6ba3755a9E
	jmp	.LBB94_56
.LBB94_55:
	.cv_loc	180 36 1447 0
	movq	136(%rsp), %rax
	movq	$0, 48(%rax)
	.cv_loc	180 36 1446 0
	jmp	.LBB94_54
.Ltmp656:
.LBB94_56:
	.cv_loc	180 31 1 0
	jmp	.LBB94_13
.Ltmp657:
.LBB94_57:
	.cv_loc	180 31 1 0
	jmp	.LBB94_13
.Ltmp658:
.Lfunc_end94:
	.seh_endproc

	.def	_ZN4core3str7pattern7Pattern15is_contained_in17h6eda91dfc2ae9f10E;
	.scl	3;
	.type	32;
	.endef
	.section	.text,"xr",one_only,_ZN4core3str7pattern7Pattern15is_contained_in17h6eda91dfc2ae9f10E
	.p2align	4, 0x90
_ZN4core3str7pattern7Pattern15is_contained_in17h6eda91dfc2ae9f10E:
.Lfunc_begin95:
	.cv_func_id 189
	.cv_loc	189 36 108 0
.seh_proc _ZN4core3str7pattern7Pattern15is_contained_in17h6eda91dfc2ae9f10E
	.seh_handler __CxxFrameHandler3, @unwind, @except
	pushq	%rbp
	.seh_pushreg %rbp
	subq	$240, %rsp
	.seh_stackalloc 240
	leaq	128(%rsp), %rbp
	.seh_setframe %rbp, 128
	.seh_endprologue
	movq	$-2, 104(%rbp)
	movq	%r9, -88(%rbp)
	movq	%r8, %r9
	movq	%rdx, %r8
	movq	%rcx, %rdx
	movq	-88(%rbp), %rcx
	movq	%rdx, 64(%rbp)
	movq	%r8, 72(%rbp)
	movq	%r9, 80(%rbp)
	movq	%rcx, 88(%rbp)
.Ltmp661:
	.cv_loc	189 36 109 0
	movq	%rsp, %rax
	movq	%rcx, 32(%rax)
	leaq	-40(%rbp), %rcx
	movq	%rcx, -80(%rbp)
	callq	_ZN55_$LT$$RF$str$u20$as$u20$core..str..pattern..Pattern$GT$13into_searcher17hf8ecadc2c2f1b454E
	movq	-80(%rbp), %rdx
.Ltmp659:
	leaq	-64(%rbp), %rcx
	callq	_ZN80_$LT$core..str..pattern..StrSearcher$u20$as$u20$core..str..pattern..Searcher$GT$10next_match17ha0ea590934d574baE
.Ltmp660:
	jmp	.LBB95_2
.LBB95_2:
	leaq	-64(%rbp), %rax
	movq	%rax, 96(%rbp)
.Ltmp662:
	.cv_file	40 "/rustc/90743e7298aca107ddaa0c202a4d3604e29bfeb6\\library\\core\\src\\macros\\mod.rs" "AAE8AD38633F63B1193F93DAC40045A79C2D127E" 2
	.cv_inline_site_id 190 within 189 inlined_at 36 109 0
	.cv_loc	190 40 344 0
	cmpq	$1, -64(%rbp)
	jne	.LBB95_4
	.cv_loc	190 40 345 0
	movb	$1, -65(%rbp)
	jmp	.LBB95_5
.LBB95_4:
	.cv_loc	190 40 346 0
	movb	$0, -65(%rbp)
.Ltmp663:
.LBB95_5:
	.cv_loc	189 36 110 0
	movb	-65(%rbp), %al
	andb	$1, %al
	movzbl	%al, %eax
	addq	$240, %rsp
	popq	%rbp
	retq
	.seh_handlerdata
	.long	($cppxdata$_ZN4core3str7pattern7Pattern15is_contained_in17h6eda91dfc2ae9f10E)@IMGREL
	.section	.text,"xr",one_only,_ZN4core3str7pattern7Pattern15is_contained_in17h6eda91dfc2ae9f10E
	.seh_endproc
	.def	"?dtor$1@?0?_ZN4core3str7pattern7Pattern15is_contained_in17h6eda91dfc2ae9f10E@4HA";
	.scl	3;
	.type	32;
	.endef
	.p2align	4, 0x90
"?dtor$1@?0?_ZN4core3str7pattern7Pattern15is_contained_in17h6eda91dfc2ae9f10E@4HA":
.seh_proc "?dtor$1@?0?_ZN4core3str7pattern7Pattern15is_contained_in17h6eda91dfc2ae9f10E@4HA"
.LBB95_1:
	movq	%rdx, 16(%rsp)
	pushq	%rbp
	.seh_pushreg %rbp
	subq	$48, %rsp
	.seh_stackalloc 48
	leaq	128(%rdx), %rbp
	.seh_endprologue
	.cv_loc	189 36 108 0
	addq	$48, %rsp
	popq	%rbp
	retq
.Ltmp664:
.Lfunc_end95:
	.seh_handlerdata
	.section	.text,"xr",one_only,_ZN4core3str7pattern7Pattern15is_contained_in17h6eda91dfc2ae9f10E
	.seh_endproc
	.section	.xdata,"dr",associative,_ZN4core3str7pattern7Pattern15is_contained_in17h6eda91dfc2ae9f10E
	.p2align	2
$cppxdata$_ZN4core3str7pattern7Pattern15is_contained_in17h6eda91dfc2ae9f10E:
	.long	429065506
	.long	1
	.long	($stateUnwindMap$_ZN4core3str7pattern7Pattern15is_contained_in17h6eda91dfc2ae9f10E)@IMGREL
	.long	0
	.long	0
	.long	3
	.long	($ip2state$_ZN4core3str7pattern7Pattern15is_contained_in17h6eda91dfc2ae9f10E)@IMGREL
	.long	232
	.long	0
	.long	1
$stateUnwindMap$_ZN4core3str7pattern7Pattern15is_contained_in17h6eda91dfc2ae9f10E:
	.long	-1
	.long	"?dtor$1@?0?_ZN4core3str7pattern7Pattern15is_contained_in17h6eda91dfc2ae9f10E@4HA"@IMGREL
$ip2state$_ZN4core3str7pattern7Pattern15is_contained_in17h6eda91dfc2ae9f10E:
	.long	.Lfunc_begin95@IMGREL
	.long	-1
	.long	.Ltmp659@IMGREL+1
	.long	0
	.long	.Ltmp660@IMGREL+1
	.long	-1
	.section	.text,"xr",one_only,_ZN4core3str7pattern7Pattern15is_contained_in17h6eda91dfc2ae9f10E

	.def	_ZN4core4char7methods15encode_utf8_raw17h697091ba56b1b6b8E;
	.scl	3;
	.type	32;
	.endef
	.section	.text,"xr",one_only,_ZN4core4char7methods15encode_utf8_raw17h697091ba56b1b6b8E
	.p2align	4, 0x90
_ZN4core4char7methods15encode_utf8_raw17h697091ba56b1b6b8E:
.Lfunc_begin96:
	.cv_func_id 191
	.cv_file	41 "/rustc/90743e7298aca107ddaa0c202a4d3604e29bfeb6\\library\\core\\src\\char\\methods.rs" "0DD59BD330170BC1679C68121AAFB8F3388E15AB" 2
	.cv_loc	191 41 1729 0
.seh_proc _ZN4core4char7methods15encode_utf8_raw17h697091ba56b1b6b8E
	subq	$648, %rsp
	.seh_stackalloc 648
	.seh_endprologue
	movq	%r8, 112(%rsp)
	movq	%rdx, 120(%rsp)
	movl	%ecx, 132(%rsp)
	movq	%rdx, 344(%rsp)
	movq	%r8, 352(%rsp)
.Ltmp665:
	.cv_loc	191 41 1730 0
	movl	132(%rsp), %ecx
	callq	_ZN4core4char7methods8len_utf817h6078f3fccd3765d8E
	movq	%rax, 136(%rsp)
	.cv_loc	191 41 1731 0
	movq	112(%rsp), %rax
	movq	120(%rsp), %rcx
.Ltmp666:
	movq	136(%rsp), %rdx
	movq	%rcx, 376(%rsp)
	movq	%rax, 384(%rsp)
.Ltmp667:
	.cv_inline_site_id 192 within 191 inlined_at 41 1731 0
	.cv_loc	192 2 30 0
	movq	%rcx, 392(%rsp)
	movq	%rax, 400(%rsp)
.Ltmp668:
	.cv_loc	191 41 1731 0
	movq	%rdx, 144(%rsp)
	movq	%rcx, 152(%rsp)
	movq	%rax, 160(%rsp)
	movq	144(%rsp), %rax
	decq	%rax
	movq	%rax, 104(%rsp)
	subq	$3, %rax
	ja	.LBB96_2
	movq	104(%rsp), %rax
	leaq	.LJTI96_0(%rip), %rcx
	movslq	(%rcx,%rax,4), %rax
	addq	%rcx, %rax
	jmpq	*%rax
.LBB96_2:
	.cv_loc	191 41 1750 0
	leaq	136(%rsp), %rax
	movq	%rax, 528(%rsp)
.Ltmp669:
	.cv_inline_site_id 193 within 191 inlined_at 41 1752 0
	.cv_loc	193 26 323 0
	leaq	136(%rsp), %rax
	movq	%rax, 536(%rsp)
	leaq	_ZN4core3fmt3num3imp54_$LT$impl$u20$core..fmt..Display$u20$for$u20$usize$GT$3fmt17haf95be68cce175c5E(%rip), %rax
	movq	%rax, 544(%rsp)
.Ltmp670:
	.cv_inline_site_id 194 within 193 inlined_at 26 323 0
	.cv_loc	194 26 342 0
	leaq	_ZN4core3fmt3num3imp54_$LT$impl$u20$core..fmt..Display$u20$for$u20$usize$GT$3fmt17haf95be68cce175c5E(%rip), %rax
	movq	%rax, 552(%rsp)
	movq	552(%rsp), %rax
	movq	%rax, 96(%rsp)
	jmp	.LBB96_13
.Ltmp671:
.LBB96_3:
	.cv_loc	191 41 1732 0
	cmpq	$1, 160(%rsp)
	jae	.LBB96_11
	jmp	.LBB96_2
.LBB96_4:
	.cv_loc	191 41 1735 0
	cmpq	$2, 160(%rsp)
	jae	.LBB96_10
	jmp	.LBB96_2
.LBB96_5:
	.cv_loc	191 41 1739 0
	cmpq	$3, 160(%rsp)
	jae	.LBB96_9
	jmp	.LBB96_2
.LBB96_6:
	.cv_loc	191 41 1744 0
	cmpq	$4, 160(%rsp)
	jb	.LBB96_2
	movq	152(%rsp), %r8
	movq	%r8, 408(%rsp)
	movq	152(%rsp), %rdx
	movq	%rdx, %rax
	addq	$1, %rax
	movq	%rax, 416(%rsp)
	movq	152(%rsp), %rcx
	movq	%rcx, %rax
	addq	$2, %rax
	movq	%rax, 424(%rsp)
	movq	152(%rsp), %rax
	movq	%rax, %r9
	addq	$3, %r9
	movq	%r9, 432(%rsp)
.Ltmp672:
	.cv_loc	191 41 1745 0
	movl	132(%rsp), %r9d
	shrl	$18, %r9d
	andl	$7, %r9d
	orb	$-16, %r9b
	movb	%r9b, (%r8)
	.cv_loc	191 41 1746 0
	movl	132(%rsp), %r8d
	shrl	$12, %r8d
	andl	$63, %r8d
	orb	$-128, %r8b
	movb	%r8b, 1(%rdx)
	.cv_loc	191 41 1747 0
	movl	132(%rsp), %edx
	shrl	$6, %edx
	andl	$63, %edx
	orb	$-128, %dl
	movb	%dl, 2(%rcx)
	.cv_loc	191 41 1748 0
	movl	132(%rsp), %ecx
	andl	$63, %ecx
	orb	$-128, %cl
	movb	%cl, 3(%rax)
.Ltmp673:
.LBB96_8:
	.cv_loc	191 41 1757 0
	movq	112(%rsp), %r9
	movq	120(%rsp), %r8
	movq	%r8, 488(%rsp)
	movq	%r9, 496(%rsp)
	movq	136(%rsp), %rax
	movq	%rax, 320(%rsp)
.Ltmp674:
	.cv_inline_site_id 195 within 191 inlined_at 41 1757 0
	.cv_loc	195 2 30 0
	movq	320(%rsp), %rax
	movq	%rax, 504(%rsp)
	movq	%r8, 512(%rsp)
	movq	%r9, 520(%rsp)
.Ltmp675:
	.cv_inline_site_id 196 within 195 inlined_at 2 30 0
	.cv_loc	196 2 460 0
	movq	$0, 328(%rsp)
	movq	%rax, 336(%rsp)
	movq	328(%rsp), %rcx
	movq	336(%rsp), %rdx
	leaq	__unnamed_14(%rip), %rax
	movq	%rax, 32(%rsp)
	callq	_ZN106_$LT$core..ops..range..Range$LT$usize$GT$$u20$as$u20$core..slice..index..SliceIndex$LT$$u5b$T$u5d$$GT$$GT$9index_mut17h31fbe6b207ccd8b7E
	movq	%rax, 80(%rsp)
	movq	%rdx, 88(%rsp)
	jmp	.LBB96_12
.Ltmp676:
.LBB96_9:
	.cv_loc	191 41 1739 0
	movq	152(%rsp), %rdx
	movq	%rdx, 440(%rsp)
	movq	152(%rsp), %rcx
	movq	%rcx, %rax
	addq	$1, %rax
	movq	%rax, 448(%rsp)
	movq	152(%rsp), %rax
	movq	%rax, %r8
	addq	$2, %r8
	movq	%r8, 456(%rsp)
.Ltmp677:
	.cv_loc	191 41 1740 0
	movl	132(%rsp), %r8d
	shrl	$12, %r8d
	andl	$15, %r8d
	orb	$-32, %r8b
	movb	%r8b, (%rdx)
	.cv_loc	191 41 1741 0
	movl	132(%rsp), %edx
	shrl	$6, %edx
	andl	$63, %edx
	orb	$-128, %dl
	movb	%dl, 1(%rcx)
	.cv_loc	191 41 1742 0
	movl	132(%rsp), %ecx
	andl	$63, %ecx
	orb	$-128, %cl
	movb	%cl, 2(%rax)
.Ltmp678:
	.cv_loc	191 41 1743 0
	jmp	.LBB96_8
.LBB96_10:
	.cv_loc	191 41 1735 0
	movq	152(%rsp), %rcx
	movq	%rcx, 464(%rsp)
	movq	152(%rsp), %rax
	movq	%rax, %rdx
	addq	$1, %rdx
	movq	%rdx, 472(%rsp)
.Ltmp679:
	.cv_loc	191 41 1736 0
	movl	132(%rsp), %edx
	shrl	$6, %edx
	andl	$31, %edx
	orb	$-64, %dl
	movb	%dl, (%rcx)
	.cv_loc	191 41 1737 0
	movl	132(%rsp), %ecx
	andl	$63, %ecx
	orb	$-128, %cl
	movb	%cl, 1(%rax)
.Ltmp680:
	.cv_loc	191 41 1738 0
	jmp	.LBB96_8
.LBB96_11:
	.cv_loc	191 41 1732 0
	movq	152(%rsp), %rax
	movq	%rax, 480(%rsp)
.Ltmp681:
	.cv_loc	191 41 1733 0
	movl	132(%rsp), %ecx
	movb	%cl, (%rax)
.Ltmp682:
	.cv_loc	191 41 1734 0
	jmp	.LBB96_8
.Ltmp683:
.LBB96_12:
	.cv_loc	191 41 1758 0
	movq	88(%rsp), %rdx
	movq	80(%rsp), %rax
	addq	$648, %rsp
	retq
.LBB96_13:
.Ltmp684:
	.cv_loc	194 26 342 0
	leaq	136(%rsp), %rax
	movq	%rax, 560(%rsp)
	movq	560(%rsp), %rax
	movq	%rax, 72(%rsp)
	movq	96(%rsp), %rax
	movq	72(%rsp), %rcx
	movq	%rcx, 264(%rsp)
	movq	%rax, 272(%rsp)
.Ltmp685:
	.cv_loc	191 41 1750 0
	leaq	132(%rsp), %rax
	movq	%rax, 568(%rsp)
.Ltmp686:
	.cv_inline_site_id 197 within 191 inlined_at 41 1753 0
	.cv_loc	197 26 323 0
	leaq	132(%rsp), %rax
	movq	%rax, 576(%rsp)
	leaq	_ZN4core3fmt3num53_$LT$impl$u20$core..fmt..UpperHex$u20$for$u20$u32$GT$3fmt17hc31888ec76f3e1b5E(%rip), %rax
	movq	%rax, 584(%rsp)
.Ltmp687:
	.cv_inline_site_id 198 within 197 inlined_at 26 323 0
	.cv_loc	198 26 342 0
	leaq	_ZN4core3fmt3num53_$LT$impl$u20$core..fmt..UpperHex$u20$for$u20$u32$GT$3fmt17hc31888ec76f3e1b5E(%rip), %rax
	movq	%rax, 592(%rsp)
	movq	592(%rsp), %rax
	movq	%rax, 64(%rsp)
	leaq	132(%rsp), %rax
	movq	%rax, 600(%rsp)
	movq	600(%rsp), %rax
	movq	%rax, 56(%rsp)
	movq	112(%rsp), %rax
	movq	64(%rsp), %rcx
	movq	56(%rsp), %rdx
	movq	%rdx, 280(%rsp)
	movq	%rcx, 288(%rsp)
.Ltmp688:
	.cv_loc	191 41 1754 0
	movq	%rax, 312(%rsp)
	.cv_loc	191 41 1750 0
	leaq	312(%rsp), %rax
	movq	%rax, 608(%rsp)
.Ltmp689:
	.cv_inline_site_id 199 within 191 inlined_at 41 1754 0
	.cv_loc	199 26 323 0
	leaq	312(%rsp), %rax
	movq	%rax, 616(%rsp)
	leaq	_ZN4core3fmt3num3imp54_$LT$impl$u20$core..fmt..Display$u20$for$u20$usize$GT$3fmt17haf95be68cce175c5E(%rip), %rax
	movq	%rax, 624(%rsp)
.Ltmp690:
	.cv_inline_site_id 200 within 199 inlined_at 26 323 0
	.cv_loc	200 26 342 0
	leaq	_ZN4core3fmt3num3imp54_$LT$impl$u20$core..fmt..Display$u20$for$u20$usize$GT$3fmt17haf95be68cce175c5E(%rip), %rax
	movq	%rax, 632(%rsp)
	movq	632(%rsp), %rax
	movq	%rax, 48(%rsp)
	leaq	312(%rsp), %rax
	movq	%rax, 640(%rsp)
	movq	640(%rsp), %rax
	movq	%rax, 40(%rsp)
	movq	48(%rsp), %rax
	movq	40(%rsp), %rcx
	movq	%rcx, 296(%rsp)
	movq	%rax, 304(%rsp)
.Ltmp691:
	.cv_loc	191 41 1750 0
	movq	264(%rsp), %rcx
	movq	272(%rsp), %rax
	movq	%rcx, 216(%rsp)
	movq	%rax, 224(%rsp)
	movq	280(%rsp), %rcx
	movq	288(%rsp), %rax
	movq	%rcx, 232(%rsp)
	movq	%rax, 240(%rsp)
	movq	296(%rsp), %rcx
	movq	304(%rsp), %rax
	movq	%rcx, 248(%rsp)
	movq	%rax, 256(%rsp)
	leaq	168(%rsp), %rcx
	leaq	__unnamed_15(%rip), %rdx
	movl	$3, %r8d
	leaq	216(%rsp), %r9
	movq	$3, 32(%rsp)
	callq	_ZN4core3fmt9Arguments6new_v117h7db52591a047e073E
	leaq	__unnamed_16(%rip), %rdx
	leaq	168(%rsp), %rcx
	callq	_ZN4core9panicking9panic_fmt17h1862038ee9bad685E
	ud2
.Ltmp692:
.Lfunc_end96:
	.p2align	2, 0x90
.LJTI96_0:
	.long	.LBB96_3-.LJTI96_0
	.long	.LBB96_4-.LJTI96_0
	.long	.LBB96_5-.LJTI96_0
	.long	.LBB96_6-.LJTI96_0
	.seh_endproc

	.def	_ZN4core4char7methods8len_utf817h6078f3fccd3765d8E;
	.scl	3;
	.type	32;
	.endef
	.section	.text,"xr",one_only,_ZN4core4char7methods8len_utf817h6078f3fccd3765d8E
	.p2align	4, 0x90
_ZN4core4char7methods8len_utf817h6078f3fccd3765d8E:
.Lfunc_begin97:
	.cv_func_id 201
	.cv_loc	201 41 1701 0
.seh_proc _ZN4core4char7methods8len_utf817h6078f3fccd3765d8E
	subq	$24, %rsp
	.seh_stackalloc 24
	.seh_endprologue
	movl	%ecx, 4(%rsp)
	movl	%ecx, 20(%rsp)
.Ltmp693:
	.cv_loc	201 41 1702 0
	cmpl	$128, %ecx
	jb	.LBB97_2
	.cv_loc	201 41 1704 0
	movl	4(%rsp), %eax
	cmpl	$2048, %eax
	jb	.LBB97_5
	jmp	.LBB97_4
.LBB97_2:
	.cv_loc	201 41 1703 0
	movq	$1, 8(%rsp)
.LBB97_3:
	.cv_loc	201 41 1711 0
	movq	8(%rsp), %rax
	addq	$24, %rsp
	retq
.LBB97_4:
	.cv_loc	201 41 1706 0
	movl	4(%rsp), %eax
	cmpl	$65536, %eax
	jb	.LBB97_8
	jmp	.LBB97_7
.LBB97_5:
	.cv_loc	201 41 1705 0
	movq	$2, 8(%rsp)
.LBB97_6:
	.cv_loc	201 41 1702 0
	jmp	.LBB97_3
.LBB97_7:
	.cv_loc	201 41 1709 0
	movq	$4, 8(%rsp)
	.cv_loc	201 41 1706 0
	jmp	.LBB97_9
.LBB97_8:
	.cv_loc	201 41 1707 0
	movq	$3, 8(%rsp)
.LBB97_9:
	.cv_loc	201 41 1704 0
	jmp	.LBB97_6
.Ltmp694:
.Lfunc_end97:
	.seh_endproc

	.def	_ZN4core4hint21unreachable_unchecked17hcb3998262b4a67adE;
	.scl	3;
	.type	32;
	.endef
	.section	.text,"xr",one_only,_ZN4core4hint21unreachable_unchecked17hcb3998262b4a67adE
	.p2align	4, 0x90
_ZN4core4hint21unreachable_unchecked17hcb3998262b4a67adE:
.Lfunc_begin98:
	.cv_func_id 202
	.cv_loc	202 13 104 0
	ud2
.Ltmp695:
.Lfunc_end98:

	.def	_ZN4core4iter6traits8iterator8Iterator3any17h00ba666e39c7adeeE;
	.scl	3;
	.type	32;
	.endef
	.section	.text,"xr",one_only,_ZN4core4iter6traits8iterator8Iterator3any17h00ba666e39c7adeeE
	.p2align	4, 0x90
_ZN4core4iter6traits8iterator8Iterator3any17h00ba666e39c7adeeE:
.Lfunc_begin99:
	.cv_func_id 203
	.cv_loc	203 38 2625 0
.seh_proc _ZN4core4iter6traits8iterator8Iterator3any17h00ba666e39c7adeeE
	subq	$72, %rsp
	.seh_stackalloc 72
	.seh_endprologue
	movq	%rcx, 48(%rsp)
	movq	%rdx, 56(%rsp)
.Ltmp696:
	.cv_loc	203 38 2637 0
	movq	%rdx, 64(%rsp)
.Ltmp697:
	.cv_inline_site_id 204 within 203 inlined_at 38 2637 0
	.cv_loc	204 38 2632 0
	movq	%rdx, 40(%rsp)
.Ltmp698:
	.cv_loc	203 38 2637 0
	movq	40(%rsp), %rdx
	callq	_ZN4core4iter6traits8iterator8Iterator8try_fold17hcee631a276d6c848E
	andb	$1, %al
	movb	%al, 39(%rsp)
	leaq	39(%rsp), %rcx
	leaq	__unnamed_17(%rip), %rdx
	callq	_ZN90_$LT$core..ops..control_flow..ControlFlow$LT$B$C$C$GT$$u20$as$u20$core..cmp..PartialEq$GT$2eq17h85c3c7b5d78d7683E
	movb	%al, 38(%rsp)
	.cv_loc	203 38 2638 0
	movb	38(%rsp), %al
	andb	$1, %al
	movzbl	%al, %eax
	addq	$72, %rsp
	retq
.Ltmp699:
.Lfunc_end99:
	.seh_endproc

	.def	_ZN4core4iter6traits8iterator8Iterator3any5check28_$u7b$$u7b$closure$u7d$$u7d$17h73a8e0f087f5d233E;
	.scl	3;
	.type	32;
	.endef
	.section	.text,"xr",one_only,_ZN4core4iter6traits8iterator8Iterator3any5check28_$u7b$$u7b$closure$u7d$$u7d$17h73a8e0f087f5d233E
	.p2align	4, 0x90
_ZN4core4iter6traits8iterator8Iterator3any5check28_$u7b$$u7b$closure$u7d$$u7d$17h73a8e0f087f5d233E:
.Lfunc_begin100:
	.cv_func_id 205
	.cv_loc	205 38 2632 0
.seh_proc _ZN4core4iter6traits8iterator8Iterator3any5check28_$u7b$$u7b$closure$u7d$$u7d$17h73a8e0f087f5d233E
	subq	$88, %rsp
	.seh_stackalloc 88
	.seh_endprologue
	movq	%rcx, 56(%rsp)
	movq	%rdx, 72(%rsp)
	movq	%r8, 80(%rsp)
.Ltmp700:
	.cv_loc	205 38 2633 0
	movq	%rdx, 40(%rsp)
	movq	%r8, 48(%rsp)
	movq	40(%rsp), %rdx
	movq	48(%rsp), %r8
	callq	_ZN18build_script_build15feature_allowed28_$u7b$$u7b$closure$u7d$$u7d$17hfd5a689e32699baaE
	movb	%al, 38(%rsp)
	movb	38(%rsp), %al
	testb	$1, %al
	jne	.LBB100_3
	jmp	.LBB100_2
.LBB100_2:
	movb	$0, 39(%rsp)
	jmp	.LBB100_4
.LBB100_3:
	movb	$1, 39(%rsp)
.LBB100_4:
	.cv_loc	205 38 2634 0
	movb	39(%rsp), %al
	andb	$1, %al
	movzbl	%al, %eax
	addq	$88, %rsp
	retq
.Ltmp701:
.Lfunc_end100:
	.seh_endproc

	.def	_ZN4core4iter6traits8iterator8Iterator8try_fold17hcee631a276d6c848E;
	.scl	3;
	.type	32;
	.endef
	.section	.text,"xr",one_only,_ZN4core4iter6traits8iterator8Iterator8try_fold17hcee631a276d6c848E
	.p2align	4, 0x90
_ZN4core4iter6traits8iterator8Iterator8try_fold17hcee631a276d6c848E:
.Lfunc_begin101:
	.cv_func_id 206
	.cv_loc	206 38 2230 0
.seh_proc _ZN4core4iter6traits8iterator8Iterator8try_fold17hcee631a276d6c848E
	.seh_handler __CxxFrameHandler3, @unwind, @except
	pushq	%rbp
	.seh_pushreg %rbp
	subq	$160, %rsp
	.seh_stackalloc 160
	leaq	128(%rsp), %rbp
	.seh_setframe %rbp, 128
	.seh_endprologue
	movq	$-2, 24(%rbp)
	movq	%rcx, -72(%rbp)
	movq	%rdx, -64(%rbp)
	movq	%rcx, (%rbp)
.Ltmp712:
	.cv_loc	206 38 2236 0
	movb	$1, -1(%rbp)
.LBB101_1:
	.cv_loc	206 38 2237 0
.Ltmp702:
	movq	-72(%rbp), %rcx
.Ltmp713:
	callq	_ZN90_$LT$core..str..iter..Split$LT$P$GT$$u20$as$u20$core..iter..traits..iterator..Iterator$GT$4next17h8420947d67b3fbf3E
.Ltmp703:
	movq	%rdx, -88(%rbp)
	movq	%rax, -80(%rbp)
	jmp	.LBB101_3
.LBB101_3:
	movq	-88(%rbp), %rax
	movq	-80(%rbp), %rcx
	movq	%rcx, -48(%rbp)
	movq	%rax, -40(%rbp)
	movl	$1, %eax
	xorl	%ecx, %ecx
	cmpq	$0, -48(%rbp)
	cmoveq	%rcx, %rax
	cmpq	$1, %rax
	jne	.LBB101_5
	movq	-48(%rbp), %rcx
	movq	-40(%rbp), %rax
	movq	%rcx, 8(%rbp)
	movq	%rax, 16(%rbp)
	.cv_loc	206 38 2238 0
	movb	$0, -1(%rbp)
	movq	%rcx, -24(%rbp)
	movq	%rax, -16(%rbp)
	movq	-24(%rbp), %rdx
	movq	-16(%rbp), %r8
.Ltmp706:
	leaq	-64(%rbp), %rcx
	callq	_ZN4core4iter6traits8iterator8Iterator3any5check28_$u7b$$u7b$closure$u7d$$u7d$17h73a8e0f087f5d233E
.Ltmp707:
	movb	%al, -89(%rbp)
	jmp	.LBB101_8
.Ltmp714:
.LBB101_5:
	.cv_loc	206 38 2240 0
	movb	$0, -1(%rbp)
.Ltmp704:
	callq	_ZN95_$LT$core..ops..control_flow..ControlFlow$LT$B$C$C$GT$$u20$as$u20$core..ops..try_trait..Try$GT$11from_output17h284cd972df5e42f8E
.Ltmp705:
	movb	%al, -90(%rbp)
	jmp	.LBB101_6
.LBB101_6:
	movb	-90(%rbp), %al
	andb	$1, %al
	movb	%al, -49(%rbp)
.Ltmp715:
.LBB101_7:
	.cv_loc	206 38 2241 0
	movb	-49(%rbp), %al
	andb	$1, %al
	movzbl	%al, %eax
	addq	$160, %rsp
	popq	%rbp
	retq
.LBB101_8:
	.cv_loc	206 38 2238 0
.Ltmp708:
	movb	-89(%rbp), %cl
.Ltmp716:
	andb	$1, %cl
	callq	_ZN95_$LT$core..ops..control_flow..ControlFlow$LT$B$C$C$GT$$u20$as$u20$core..ops..try_trait..Try$GT$6branch17h0158673561adeb19E
.Ltmp709:
	movb	%al, -91(%rbp)
	jmp	.LBB101_9
.LBB101_9:
	movb	-91(%rbp), %al
	andb	$1, %al
	movb	%al, -25(%rbp)
	movzbl	-25(%rbp), %eax
	testb	$1, %al
	je	.LBB101_11
	jmp	.LBB101_16
.LBB101_16:
	jmp	.LBB101_12
	ud2
.LBB101_11:
	movb	$1, -1(%rbp)
.Ltmp717:
	.cv_loc	206 38 2237 0
	jmp	.LBB101_1
.LBB101_12:
	.cv_loc	206 38 2238 0
.Ltmp710:
.Ltmp718:
	callq	_ZN104_$LT$core..ops..control_flow..ControlFlow$LT$B$C$C$GT$$u20$as$u20$core..ops..try_trait..FromResidual$GT$13from_residual17h97be124cdffb0209E
.Ltmp711:
	movb	%al, -92(%rbp)
	jmp	.LBB101_13
.LBB101_13:
	movb	-92(%rbp), %al
	andb	$1, %al
	movb	%al, -49(%rbp)
.Ltmp719:
	.cv_loc	206 38 2241 0
	jmp	.LBB101_7
	.seh_handlerdata
	.long	($cppxdata$_ZN4core4iter6traits8iterator8Iterator8try_fold17hcee631a276d6c848E)@IMGREL
	.section	.text,"xr",one_only,_ZN4core4iter6traits8iterator8Iterator8try_fold17hcee631a276d6c848E
	.seh_endproc
	.def	"?dtor$2@?0?_ZN4core4iter6traits8iterator8Iterator8try_fold17hcee631a276d6c848E@4HA";
	.scl	3;
	.type	32;
	.endef
	.p2align	4, 0x90
"?dtor$2@?0?_ZN4core4iter6traits8iterator8Iterator8try_fold17hcee631a276d6c848E@4HA":
.seh_proc "?dtor$2@?0?_ZN4core4iter6traits8iterator8Iterator8try_fold17hcee631a276d6c848E@4HA"
.LBB101_2:
	movq	%rdx, 16(%rsp)
	pushq	%rbp
	.seh_pushreg %rbp
	subq	$32, %rsp
	.seh_stackalloc 32
	leaq	128(%rdx), %rbp
	.seh_endprologue
	testb	$1, -1(%rbp)
	jne	.LBB101_15
	jmp	.LBB101_14
.LBB101_14:
	.cv_loc	206 38 2230 0
	addq	$32, %rsp
	popq	%rbp
	retq
.LBB101_15:
	.cv_loc	206 38 2241 0
	jmp	.LBB101_14
.Ltmp720:
.Lfunc_end101:
	.seh_handlerdata
	.section	.text,"xr",one_only,_ZN4core4iter6traits8iterator8Iterator8try_fold17hcee631a276d6c848E
	.seh_endproc
	.section	.xdata,"dr",associative,_ZN4core4iter6traits8iterator8Iterator8try_fold17hcee631a276d6c848E
	.p2align	2
$cppxdata$_ZN4core4iter6traits8iterator8Iterator8try_fold17hcee631a276d6c848E:
	.long	429065506
	.long	1
	.long	($stateUnwindMap$_ZN4core4iter6traits8iterator8Iterator8try_fold17hcee631a276d6c848E)@IMGREL
	.long	0
	.long	0
	.long	3
	.long	($ip2state$_ZN4core4iter6traits8iterator8Iterator8try_fold17hcee631a276d6c848E)@IMGREL
	.long	152
	.long	0
	.long	1
$stateUnwindMap$_ZN4core4iter6traits8iterator8Iterator8try_fold17hcee631a276d6c848E:
	.long	-1
	.long	"?dtor$2@?0?_ZN4core4iter6traits8iterator8Iterator8try_fold17hcee631a276d6c848E@4HA"@IMGREL
$ip2state$_ZN4core4iter6traits8iterator8Iterator8try_fold17hcee631a276d6c848E:
	.long	.Lfunc_begin101@IMGREL
	.long	-1
	.long	.Ltmp702@IMGREL+1
	.long	0
	.long	.Ltmp711@IMGREL+1
	.long	-1
	.section	.text,"xr",one_only,_ZN4core4iter6traits8iterator8Iterator8try_fold17hcee631a276d6c848E

	.def	_ZN4core4iter8adapters3rev12Rev$LT$T$GT$3new17h3b0168b5970976f9E;
	.scl	3;
	.type	32;
	.endef
	.section	.text,"xr",one_only,_ZN4core4iter8adapters3rev12Rev$LT$T$GT$3new17h3b0168b5970976f9E
	.p2align	4, 0x90
_ZN4core4iter8adapters3rev12Rev$LT$T$GT$3new17h3b0168b5970976f9E:
.Lfunc_begin102:
	.cv_func_id 207
	.cv_loc	207 39 19 0
.seh_proc _ZN4core4iter8adapters3rev12Rev$LT$T$GT$3new17h3b0168b5970976f9E
	subq	$32, %rsp
	.seh_stackalloc 32
	.seh_endprologue
	movq	%rcx, 16(%rsp)
	movq	%rdx, 24(%rsp)
.Ltmp721:
	.cv_loc	207 39 20 0
	movq	%rcx, (%rsp)
	movq	%rdx, 8(%rsp)
	.cv_loc	207 39 21 0
	movq	(%rsp), %rax
	movq	8(%rsp), %rdx
	addq	$32, %rsp
	retq
.Ltmp722:
.Lfunc_end102:
	.seh_endproc

	.def	_ZN4core5alloc6layout10size_align17h3fa21dd52bf915c7E;
	.scl	3;
	.type	32;
	.endef
	.section	.text,"xr",one_only,_ZN4core5alloc6layout10size_align17h3fa21dd52bf915c7E
	.p2align	4, 0x90
_ZN4core5alloc6layout10size_align17h3fa21dd52bf915c7E:
.Lfunc_begin103:
	.cv_func_id 208
	.cv_file	42 "/rustc/90743e7298aca107ddaa0c202a4d3604e29bfeb6\\library\\core\\src\\alloc\\layout.rs" "D948BB75B6A59615709415F37CE2AD3FB6E56727" 2
	.cv_loc	208 42 19 0
.seh_proc _ZN4core5alloc6layout10size_align17h3fa21dd52bf915c7E
	subq	$16, %rsp
	.seh_stackalloc 16
	.seh_endprologue
.Ltmp723:
	.cv_loc	208 42 20 0
	movq	$1080, (%rsp)
	movq	$8, 8(%rsp)
	.cv_loc	208 42 21 0
	movq	(%rsp), %rax
	movq	8(%rsp), %rdx
	addq	$16, %rsp
	retq
.Ltmp724:
.Lfunc_end103:
	.seh_endproc

	.def	_ZN4core5alloc6layout10size_align17ha401204b796c988bE;
	.scl	3;
	.type	32;
	.endef
	.section	.text,"xr",one_only,_ZN4core5alloc6layout10size_align17ha401204b796c988bE
	.p2align	4, 0x90
_ZN4core5alloc6layout10size_align17ha401204b796c988bE:
.Lfunc_begin104:
	.cv_func_id 209
	.cv_loc	209 42 19 0
.seh_proc _ZN4core5alloc6layout10size_align17ha401204b796c988bE
	subq	$16, %rsp
	.seh_stackalloc 16
	.seh_endprologue
.Ltmp725:
	.cv_loc	209 42 20 0
	movq	$984, (%rsp)
	movq	$8, 8(%rsp)
	.cv_loc	209 42 21 0
	movq	(%rsp), %rax
	movq	8(%rsp), %rdx
	addq	$16, %rsp
	retq
.Ltmp726:
.Lfunc_end104:
	.seh_endproc

	.def	_ZN4core5alloc6layout6Layout5array5inner17hd9234e927eaee230E;
	.scl	3;
	.type	32;
	.endef
	.section	.text,"xr",one_only,_ZN4core5alloc6layout6Layout5array5inner17hd9234e927eaee230E
	.p2align	4, 0x90
_ZN4core5alloc6layout6Layout5array5inner17hd9234e927eaee230E:
.Lfunc_begin105:
	.cv_func_id 210
	.cv_loc	210 42 431 0
.seh_proc _ZN4core5alloc6layout6Layout5array5inner17hd9234e927eaee230E
	subq	$232, %rsp
	.seh_stackalloc 232
	.seh_endprologue
	movq	%r8, 64(%rsp)
	movq	%rdx, 72(%rsp)
	movq	%rcx, 80(%rsp)
	movq	%rcx, 144(%rsp)
	movq	%rdx, 152(%rsp)
	movq	%r8, 160(%rsp)
.Ltmp727:
	.cv_loc	210 42 438 0
	cmpq	$0, %rcx
	jne	.LBB105_2
	movb	$0, 111(%rsp)
	jmp	.LBB105_5
.LBB105_2:
	movq	80(%rsp), %rax
	movq	72(%rsp), %rcx
	movq	%rcx, 168(%rsp)
.Ltmp728:
	.cv_inline_site_id 211 within 210 inlined_at 42 438 0
	.cv_loc	211 42 93 0
	movq	%rcx, 176(%rsp)
.Ltmp729:
	.cv_file	43 "/rustc/90743e7298aca107ddaa0c202a4d3604e29bfeb6\\library\\core\\src\\ptr\\alignment.rs" "3845C34232D679184C6FC219A36272B3CB9EE5C4" 2
	.cv_inline_site_id 212 within 211 inlined_at 42 93 0
	.cv_loc	212 43 96 0
	movq	%rcx, 128(%rsp)
	movq	128(%rsp), %rdx
.Ltmp730:
	.cv_loc	211 42 93 0
	subq	$1, %rdx
	movabsq	$9223372036854775807, %rcx
	subq	%rdx, %rcx
	movq	%rcx, 56(%rsp)
.Ltmp731:
	.cv_loc	210 42 438 0
	cmpq	$0, %rax
	sete	%al
	testb	$1, %al
	jne	.LBB105_4
	movq	80(%rsp), %rcx
	movq	56(%rsp), %rax
	xorl	%edx, %edx
	divq	%rcx
	movq	%rax, %rcx
	movq	64(%rsp), %rax
	cmpq	%rcx, %rax
	seta	%al
	andb	$1, %al
	movb	%al, 111(%rsp)
	jmp	.LBB105_5
.LBB105_4:
	leaq	str.0(%rip), %rcx
	leaq	__unnamed_18(%rip), %r8
	movl	$25, %edx
	callq	_ZN4core9panicking5panic17h8f0a900b6fd3539bE
	ud2
.LBB105_5:
	testb	$1, 111(%rsp)
	jne	.LBB105_7
	.cv_loc	210 42 442 0
	movq	72(%rsp), %rax
	movq	64(%rsp), %rdx
	movq	80(%rsp), %rcx
	imulq	%rdx, %rcx
	movq	%rcx, 40(%rsp)
	movq	%rcx, 184(%rsp)
.Ltmp732:
	.cv_loc	210 42 447 0
	movq	%rcx, 192(%rsp)
	movq	%rax, 200(%rsp)
.Ltmp733:
	.cv_inline_site_id 213 within 210 inlined_at 42 447 0
	.cv_loc	213 43 96 0
	movq	%rax, 136(%rsp)
	movq	136(%rsp), %rax
	movq	%rax, 208(%rsp)
.Ltmp734:
	.cv_loc	213 42 120 0
	movq	%rax, 216(%rsp)
.Ltmp735:
	.cv_inline_site_id 214 within 213 inlined_at 42 120 0
	.cv_loc	214 43 88 0
	movq	%rax, 224(%rsp)
	movq	224(%rsp), %rax
	movq	%rax, 48(%rsp)
	jmp	.LBB105_9
.Ltmp736:
.LBB105_7:
	.cv_loc	210 42 439 0
	movq	$0, 96(%rsp)
.LBB105_8:
	.cv_loc	210 42 448 0
	movq	88(%rsp), %rax
	movq	96(%rsp), %rdx
	addq	$232, %rsp
	retq
.LBB105_9:
	.cv_loc	213 42 120 0
	movq	48(%rsp), %rax
	movq	40(%rsp), %rcx
.Ltmp737:
	movq	%rcx, 112(%rsp)
	movq	%rax, 120(%rsp)
.Ltmp738:
	.cv_loc	210 42 447 0
	movq	112(%rsp), %rcx
	movq	120(%rsp), %rax
	movq	%rcx, 88(%rsp)
	movq	%rax, 96(%rsp)
.Ltmp739:
	.cv_loc	210 42 448 0
	jmp	.LBB105_8
.Ltmp740:
.Lfunc_end105:
	.seh_endproc

	.def	_ZN4core5clone5impls54_$LT$impl$u20$core..clone..Clone$u20$for$u20$usize$GT$5clone17h386056bf64cf52f5E;
	.scl	3;
	.type	32;
	.endef
	.section	.text,"xr",one_only,_ZN4core5clone5impls54_$LT$impl$u20$core..clone..Clone$u20$for$u20$usize$GT$5clone17h386056bf64cf52f5E
	.p2align	4, 0x90
_ZN4core5clone5impls54_$LT$impl$u20$core..clone..Clone$u20$for$u20$usize$GT$5clone17h386056bf64cf52f5E:
.Lfunc_begin106:
	.cv_func_id 215
	.cv_file	44 "/rustc/90743e7298aca107ddaa0c202a4d3604e29bfeb6\\library\\core\\src\\clone.rs" "93EB700F264F8E92A954329C780DB0D09A9B2113" 2
	.cv_loc	215 44 189 0
.seh_proc _ZN4core5clone5impls54_$LT$impl$u20$core..clone..Clone$u20$for$u20$usize$GT$5clone17h386056bf64cf52f5E
	pushq	%rax
	.seh_stackalloc 8
	.seh_endprologue
	movq	%rcx, (%rsp)
.Ltmp741:
	.cv_loc	215 44 190 0
	movq	(%rcx), %rax
	.cv_loc	215 44 191 0
	popq	%rcx
	retq
.Ltmp742:
.Lfunc_end106:
	.seh_endproc

	.def	_ZN4core5slice29_$LT$impl$u20$$u5b$T$u5d$$GT$11starts_with17h3bcf51c28add5042E;
	.scl	3;
	.type	32;
	.endef
	.section	.text,"xr",one_only,_ZN4core5slice29_$LT$impl$u20$$u5b$T$u5d$$GT$11starts_with17h3bcf51c28add5042E
	.p2align	4, 0x90
_ZN4core5slice29_$LT$impl$u20$$u5b$T$u5d$$GT$11starts_with17h3bcf51c28add5042E:
.Lfunc_begin107:
	.cv_func_id 216
	.cv_loc	216 32 2223 0
.seh_proc _ZN4core5slice29_$LT$impl$u20$$u5b$T$u5d$$GT$11starts_with17h3bcf51c28add5042E
	subq	$232, %rsp
	.seh_stackalloc 232
	.seh_endprologue
	movq	%rdx, 64(%rsp)
	movq	%rcx, 72(%rsp)
	movq	%r8, 88(%rsp)
	movq	%r9, 96(%rsp)
	movq	%rcx, 152(%rsp)
	movq	%rdx, 160(%rsp)
.Ltmp743:
	.cv_loc	216 32 2227 0
	movq	96(%rsp), %rax
	movq	%rax, 80(%rsp)
	movq	%rax, 168(%rsp)
.Ltmp744:
	.cv_loc	216 32 2228 0
	cmpq	%rax, %rdx
	jae	.LBB107_2
	movb	$0, 111(%rsp)
	jmp	.LBB107_5
.LBB107_2:
	movq	64(%rsp), %r9
	movq	72(%rsp), %r8
	movq	80(%rsp), %rax
	leaq	88(%rsp), %rcx
	movq	%rcx, 176(%rsp)
	movq	%r8, 184(%rsp)
	movq	%r9, 192(%rsp)
	movq	%rax, 128(%rsp)
.Ltmp745:
	.cv_inline_site_id 217 within 216 inlined_at 32 2228 0
	.cv_loc	217 2 18 0
	movq	128(%rsp), %rax
	movq	%rax, 200(%rsp)
	movq	%r8, 208(%rsp)
	movq	%r9, 216(%rsp)
.Ltmp746:
	.cv_inline_site_id 218 within 217 inlined_at 2 18 0
	.cv_loc	218 2 455 0
	movq	$0, 136(%rsp)
	movq	%rax, 144(%rsp)
	movq	136(%rsp), %rcx
	movq	144(%rsp), %rdx
	leaq	__unnamed_19(%rip), %rax
	movq	%rax, 32(%rsp)
	callq	_ZN106_$LT$core..ops..range..Range$LT$usize$GT$$u20$as$u20$core..slice..index..SliceIndex$LT$$u5b$T$u5d$$GT$$GT$5index17h9fae39915a217b8cE
	movq	%rax, 48(%rsp)
	movq	%rdx, 56(%rsp)
.Ltmp747:
	.cv_loc	216 32 2228 0
	movq	56(%rsp), %rax
	movq	48(%rsp), %rcx
	movq	%rcx, 112(%rsp)
	movq	%rax, 120(%rsp)
	leaq	112(%rsp), %rax
	movq	%rax, 224(%rsp)
.Ltmp748:
	.cv_loc	217 25 1548 0
	movq	88(%rsp), %rcx
	movq	96(%rsp), %rdx
	movq	112(%rsp), %r8
	movq	120(%rsp), %r9
	callq	_ZN4core5slice3cmp81_$LT$impl$u20$core..cmp..PartialEq$LT$$u5b$B$u5d$$GT$$u20$for$u20$$u5b$A$u5d$$GT$2eq17h71c202e488b692cdE
	movb	%al, 47(%rsp)
.Ltmp749:
	.cv_loc	216 32 2228 0
	movb	47(%rsp), %al
	andb	$1, %al
	movb	%al, 111(%rsp)
.Ltmp750:
.LBB107_5:
	.cv_loc	216 32 2229 0
	movb	111(%rsp), %al
	andb	$1, %al
	movzbl	%al, %eax
	addq	$232, %rsp
	retq
.Ltmp751:
.Lfunc_end107:
	.seh_endproc

	.def	_ZN4core5slice3cmp81_$LT$impl$u20$core..cmp..PartialEq$LT$$u5b$B$u5d$$GT$$u20$for$u20$$u5b$A$u5d$$GT$2eq17h71c202e488b692cdE;
	.scl	3;
	.type	32;
	.endef
	.section	.text,"xr",one_only,_ZN4core5slice3cmp81_$LT$impl$u20$core..cmp..PartialEq$LT$$u5b$B$u5d$$GT$$u20$for$u20$$u5b$A$u5d$$GT$2eq17h71c202e488b692cdE
	.p2align	4, 0x90
_ZN4core5slice3cmp81_$LT$impl$u20$core..cmp..PartialEq$LT$$u5b$B$u5d$$GT$$u20$for$u20$$u5b$A$u5d$$GT$2eq17h71c202e488b692cdE:
.Lfunc_begin108:
	.cv_func_id 219
	.cv_file	45 "/rustc/90743e7298aca107ddaa0c202a4d3604e29bfeb6\\library\\core\\src\\slice\\cmp.rs" "1FE8AAE07A3FF6EA0D0248A696C1D25B4264EF21" 2
	.cv_loc	219 45 25 0
.seh_proc _ZN4core5slice3cmp81_$LT$impl$u20$core..cmp..PartialEq$LT$$u5b$B$u5d$$GT$$u20$for$u20$$u5b$A$u5d$$GT$2eq17h71c202e488b692cdE
	subq	$72, %rsp
	.seh_stackalloc 72
	.seh_endprologue
	movq	%rcx, 40(%rsp)
	movq	%rdx, 48(%rsp)
	movq	%r8, 56(%rsp)
	movq	%r9, 64(%rsp)
.Ltmp752:
	.cv_loc	219 45 26 0
	callq	_ZN73_$LT$$u5b$A$u5d$$u20$as$u20$core..slice..cmp..SlicePartialEq$LT$B$GT$$GT$5equal17h7e87e0db059d0706E
	movb	%al, 39(%rsp)
	.cv_loc	219 45 27 0
	movb	39(%rsp), %al
	andb	$1, %al
	movzbl	%al, %eax
	addq	$72, %rsp
	retq
.Ltmp753:
.Lfunc_end108:
	.seh_endproc

	.def	_ZN4core5slice4iter13Iter$LT$T$GT$3new17h38c111e44ae52ac1E;
	.scl	3;
	.type	32;
	.endef
	.section	.text,"xr",one_only,_ZN4core5slice4iter13Iter$LT$T$GT$3new17h38c111e44ae52ac1E
	.p2align	4, 0x90
_ZN4core5slice4iter13Iter$LT$T$GT$3new17h38c111e44ae52ac1E:
.Lfunc_begin109:
	.cv_func_id 220
	.cv_file	46 "/rustc/90743e7298aca107ddaa0c202a4d3604e29bfeb6\\library\\core\\src\\slice\\iter.rs" "81C2A26A7DA62E6A476358CFC723CE2AD4FD0BD3" 2
	.cv_loc	220 46 88 0
.seh_proc _ZN4core5slice4iter13Iter$LT$T$GT$3new17h38c111e44ae52ac1E
	subq	$280, %rsp
	.seh_stackalloc 280
	.seh_endprologue
	movq	%rdx, 48(%rsp)
	movq	%rcx, 56(%rsp)
	movq	%rcx, 112(%rsp)
	movq	%rdx, 120(%rsp)
.Ltmp754:
	.cv_loc	220 46 89 0
	movq	%rcx, 136(%rsp)
	movq	%rdx, 144(%rsp)
.Ltmp755:
	.cv_inline_site_id 221 within 220 inlined_at 46 89 0
	.cv_loc	221 32 470 0
	movq	%rcx, 152(%rsp)
.Ltmp756:
	.cv_loc	220 46 92 0
	callq	_ZN4core3ptr9const_ptr33_$LT$impl$u20$$BP$const$u20$T$GT$7is_null17h38f320cc77bf9ba9E
	.cv_loc	220 46 95 0
	xorl	%eax, %eax
	testb	$1, %al
	jne	.LBB109_3
	movq	48(%rsp), %rcx
	movq	56(%rsp), %rax
	movq	%rax, 240(%rsp)
	movq	%rcx, 248(%rsp)
.Ltmp757:
	.cv_inline_site_id 222 within 220 inlined_at 46 95 0
	.cv_loc	222 3 897 0
	movq	%rax, 256(%rsp)
	movq	%rcx, 264(%rsp)
.Ltmp758:
	.cv_inline_site_id 223 within 222 inlined_at 3 897 0
	.cv_loc	223 3 461 0
	addq	%rcx, %rax
	movq	%rax, 80(%rsp)
	jmp	.LBB109_6
.Ltmp759:
.LBB109_3:
	.cv_loc	220 46 95 0
	movq	48(%rsp), %rcx
	movq	56(%rsp), %rax
	movq	%rax, 160(%rsp)
	movq	%rcx, 168(%rsp)
.Ltmp760:
	.cv_loc	222 3 1085 0
	movq	%rax, 176(%rsp)
.Ltmp761:
	.cv_inline_site_id 224 within 222 inlined_at 3 1085 0
	.cv_loc	224 3 50 0
	movq	%rax, 184(%rsp)
.Ltmp762:
	.cv_loc	222 3 1085 0
	movq	%rcx, 192(%rsp)
.Ltmp763:
	.cv_loc	224 3 1067 0
	movq	%rax, 200(%rsp)
	movq	%rcx, 208(%rsp)
.Ltmp764:
	.cv_inline_site_id 225 within 224 inlined_at 3 1067 0
	.cv_loc	225 3 544 0
	addq	%rcx, %rax
	movq	%rax, 216(%rsp)
	movq	216(%rsp), %rax
	movq	%rax, 40(%rsp)
	movq	%rax, 224(%rsp)
.Ltmp765:
	.cv_loc	224 3 50 0
	movq	40(%rsp), %rax
.Ltmp766:
	movq	%rax, 232(%rsp)
.Ltmp767:
	.cv_loc	224 5 117 0
	movq	%rax, 104(%rsp)
	movq	104(%rsp), %rax
	movq	%rax, 96(%rsp)
	movq	96(%rsp), %rax
	movq	%rax, 80(%rsp)
.Ltmp768:
.LBB109_5:
	.cv_loc	220 46 97 0
	movq	56(%rsp), %rax
.Ltmp769:
	movq	%rax, 272(%rsp)
.Ltmp770:
	.cv_inline_site_id 226 within 220 inlined_at 46 97 0
	.cv_loc	226 10 201 0
	movq	%rax, 88(%rsp)
.Ltmp771:
	.cv_loc	220 46 97 0
	movq	80(%rsp), %rax
	movq	88(%rsp), %rcx
	movq	%rcx, 64(%rsp)
	movq	%rax, 72(%rsp)
.Ltmp772:
	.cv_loc	220 46 99 0
	movq	64(%rsp), %rax
	movq	72(%rsp), %rdx
	addq	$280, %rsp
	retq
.LBB109_6:
.Ltmp773:
	.cv_loc	220 46 95 0
	jmp	.LBB109_5
.Ltmp774:
.Lfunc_end109:
	.seh_endproc

	.def	_ZN4core5slice6memchr12memchr_naive17hc747bac6db8d0602E;
	.scl	3;
	.type	32;
	.endef
	.section	.text,"xr",one_only,_ZN4core5slice6memchr12memchr_naive17hc747bac6db8d0602E
	.p2align	4, 0x90
_ZN4core5slice6memchr12memchr_naive17hc747bac6db8d0602E:
.Lfunc_begin110:
	.cv_func_id 227
	.cv_file	47 "/rustc/90743e7298aca107ddaa0c202a4d3604e29bfeb6\\library\\core\\src\\slice\\memchr.rs" "2B33E3AD6041450B9EF2309DC20A2B9E46C9504A" 2
	.cv_loc	227 47 48 0
.seh_proc _ZN4core5slice6memchr12memchr_naive17hc747bac6db8d0602E
	subq	$120, %rsp
	.seh_stackalloc 120
	.seh_endprologue
	movq	%r8, 48(%rsp)
	movq	%rdx, 56(%rsp)
	movb	%cl, 71(%rsp)
	movb	%cl, 103(%rsp)
	movq	%rdx, 104(%rsp)
	movq	%r8, 112(%rsp)
.Ltmp775:
	.cv_loc	227 47 49 0
	movq	$0, 88(%rsp)
.LBB110_1:
	.cv_loc	227 47 52 0
	movq	48(%rsp), %rax
.Ltmp776:
	cmpq	%rax, 88(%rsp)
	jb	.LBB110_3
	.cv_loc	227 47 60 0
	movq	$0, 72(%rsp)
.Ltmp777:
	.cv_loc	227 47 61 0
	jmp	.LBB110_8
.LBB110_3:
	.cv_loc	227 47 53 0
	movq	48(%rsp), %rcx
.Ltmp778:
	movq	88(%rsp), %rax
	movq	%rax, 40(%rsp)
	cmpq	%rcx, %rax
	setb	%al
	testb	$1, %al
	jne	.LBB110_4
	jmp	.LBB110_5
.LBB110_4:
	movq	56(%rsp), %rax
	movq	40(%rsp), %rcx
	movb	71(%rsp), %dl
	cmpb	%dl, (%rax,%rcx)
	je	.LBB110_7
	jmp	.LBB110_6
.LBB110_5:
	movq	48(%rsp), %rdx
	movq	40(%rsp), %rcx
	leaq	__unnamed_20(%rip), %r8
	callq	_ZN4core9panicking18panic_bounds_check17he019d82aa2caaf8fE
	ud2
.LBB110_6:
	.cv_loc	227 47 57 0
	movq	88(%rsp), %rax
	addq	$1, %rax
	movq	%rax, 88(%rsp)
	.cv_loc	227 47 52 0
	jmp	.LBB110_1
.LBB110_7:
	.cv_loc	227 47 54 0
	movq	88(%rsp), %rax
	movq	%rax, 80(%rsp)
	movq	$1, 72(%rsp)
.Ltmp779:
.LBB110_8:
	.cv_loc	227 47 61 0
	movq	72(%rsp), %rax
	movq	80(%rsp), %rdx
	addq	$120, %rsp
	retq
.Ltmp780:
.Lfunc_end110:
	.seh_endproc

	.def	_ZN4core5slice6memchr6memchr17h8755a6d6e78b6d7dE;
	.scl	3;
	.type	32;
	.endef
	.section	.text,"xr",one_only,_ZN4core5slice6memchr6memchr17h8755a6d6e78b6d7dE
	.p2align	4, 0x90
_ZN4core5slice6memchr6memchr17h8755a6d6e78b6d7dE:
.Lfunc_begin111:
	.cv_func_id 228
	.cv_loc	228 47 38 0
.seh_proc _ZN4core5slice6memchr6memchr17h8755a6d6e78b6d7dE
	subq	$104, %rsp
	.seh_stackalloc 104
	.seh_endprologue
	movq	%r8, 40(%rsp)
	movq	%rdx, 48(%rsp)
	movb	%cl, 63(%rsp)
	movb	%cl, 87(%rsp)
	movq	%rdx, 88(%rsp)
	movq	%r8, 96(%rsp)
.Ltmp781:
	.cv_loc	228 47 40 0
	cmpq	$16, %r8
	jb	.LBB111_2
	.cv_loc	228 47 44 0
	movq	40(%rsp), %r8
	movq	48(%rsp), %rdx
	movb	63(%rsp), %cl
	callq	_ZN4core5slice6memchr14memchr_aligned17h783c1bc6c6378162E
	movq	%rdx, 72(%rsp)
	movq	%rax, 64(%rsp)
	jmp	.LBB111_5
.LBB111_2:
	.cv_loc	228 47 41 0
	movq	40(%rsp), %r8
	movq	48(%rsp), %rdx
	movb	63(%rsp), %cl
	callq	_ZN4core5slice6memchr12memchr_naive17hc747bac6db8d0602E
	movq	%rdx, 72(%rsp)
	movq	%rax, 64(%rsp)
	.cv_loc	228 47 45 0
	jmp	.LBB111_4
.LBB111_4:
	movq	64(%rsp), %rax
	movq	72(%rsp), %rdx
	addq	$104, %rsp
	retq
.LBB111_5:
	jmp	.LBB111_4
.Ltmp782:
.Lfunc_end111:
	.seh_endproc

	.def	_ZN4core6option15Option$LT$T$GT$16unwrap_unchecked17hf13ef28331915c40E;
	.scl	3;
	.type	32;
	.endef
	.section	.text,"xr",one_only,_ZN4core6option15Option$LT$T$GT$16unwrap_unchecked17hf13ef28331915c40E
	.p2align	4, 0x90
_ZN4core6option15Option$LT$T$GT$16unwrap_unchecked17hf13ef28331915c40E:
.Lfunc_begin112:
	.cv_func_id 229
	.cv_loc	229 9 888 0
.seh_proc _ZN4core6option15Option$LT$T$GT$16unwrap_unchecked17hf13ef28331915c40E
	.seh_handler __CxxFrameHandler3, @unwind, @except
	pushq	%rbp
	.seh_pushreg %rbp
	subq	$64, %rsp
	.seh_stackalloc 64
	leaq	64(%rsp), %rbp
	.seh_setframe %rbp, 64
	.seh_endprologue
	movq	$-2, -8(%rbp)
	movq	%rcx, -24(%rbp)
.Ltmp785:
	.cv_loc	229 9 890 0
	movq	-24(%rbp), %rax
	testq	%rax, %rax
	setne	%al
	movzbl	%al, %eax
	je	.LBB112_2
	jmp	.LBB112_8
.LBB112_8:
	jmp	.LBB112_3
	ud2
.LBB112_2:
	.cv_loc	229 9 893 0
.Ltmp783:
	callq	_ZN4core4hint21unreachable_unchecked17hcb3998262b4a67adE
.Ltmp784:
	jmp	.LBB112_5
.LBB112_3:
	.cv_loc	229 9 891 0
	movq	-24(%rbp), %rax
	movq	%rax, -16(%rbp)
	.cv_loc	229 9 895 0
	addq	$64, %rsp
	popq	%rbp
	retq
.LBB112_5:
	ud2
	.seh_handlerdata
	.long	($cppxdata$_ZN4core6option15Option$LT$T$GT$16unwrap_unchecked17hf13ef28331915c40E)@IMGREL
	.section	.text,"xr",one_only,_ZN4core6option15Option$LT$T$GT$16unwrap_unchecked17hf13ef28331915c40E
	.seh_endproc
	.def	"?dtor$4@?0?_ZN4core6option15Option$LT$T$GT$16unwrap_unchecked17hf13ef28331915c40E@4HA";
	.scl	3;
	.type	32;
	.endef
	.p2align	4, 0x90
"?dtor$4@?0?_ZN4core6option15Option$LT$T$GT$16unwrap_unchecked17hf13ef28331915c40E@4HA":
.seh_proc "?dtor$4@?0?_ZN4core6option15Option$LT$T$GT$16unwrap_unchecked17hf13ef28331915c40E@4HA"
.LBB112_4:
	movq	%rdx, 16(%rsp)
	pushq	%rbp
	.seh_pushreg %rbp
	subq	$32, %rsp
	.seh_stackalloc 32
	leaq	64(%rdx), %rbp
	.seh_endprologue
	movl	$1, %eax
	xorl	%ecx, %ecx
	cmpq	$0, -24(%rbp)
	cmoveq	%rcx, %rax
	cmpq	$1, %rax
	je	.LBB112_6
	jmp	.LBB112_7
.LBB112_6:
	jmp	.LBB112_7
.LBB112_7:
	.cv_loc	229 9 888 0
	addq	$32, %rsp
	popq	%rbp
	retq
.Ltmp786:
.Lfunc_end112:
	.seh_handlerdata
	.section	.text,"xr",one_only,_ZN4core6option15Option$LT$T$GT$16unwrap_unchecked17hf13ef28331915c40E
	.seh_endproc
	.section	.xdata,"dr",associative,_ZN4core6option15Option$LT$T$GT$16unwrap_unchecked17hf13ef28331915c40E
	.p2align	2
$cppxdata$_ZN4core6option15Option$LT$T$GT$16unwrap_unchecked17hf13ef28331915c40E:
	.long	429065506
	.long	1
	.long	($stateUnwindMap$_ZN4core6option15Option$LT$T$GT$16unwrap_unchecked17hf13ef28331915c40E)@IMGREL
	.long	0
	.long	0
	.long	3
	.long	($ip2state$_ZN4core6option15Option$LT$T$GT$16unwrap_unchecked17hf13ef28331915c40E)@IMGREL
	.long	56
	.long	0
	.long	1
$stateUnwindMap$_ZN4core6option15Option$LT$T$GT$16unwrap_unchecked17hf13ef28331915c40E:
	.long	-1
	.long	"?dtor$4@?0?_ZN4core6option15Option$LT$T$GT$16unwrap_unchecked17hf13ef28331915c40E@4HA"@IMGREL
$ip2state$_ZN4core6option15Option$LT$T$GT$16unwrap_unchecked17hf13ef28331915c40E:
	.long	.Lfunc_begin112@IMGREL
	.long	-1
	.long	.Ltmp783@IMGREL+1
	.long	0
	.long	.Ltmp784@IMGREL+1
	.long	-1
	.section	.text,"xr",one_only,_ZN4core6option15Option$LT$T$GT$16unwrap_unchecked17hf13ef28331915c40E

	.def	_ZN4core6option15Option$LT$T$GT$3map17h4d5d665f3b33bcd2E;
	.scl	3;
	.type	32;
	.endef
	.section	.text,"xr",one_only,_ZN4core6option15Option$LT$T$GT$3map17h4d5d665f3b33bcd2E
	.p2align	4, 0x90
_ZN4core6option15Option$LT$T$GT$3map17h4d5d665f3b33bcd2E:
.Lfunc_begin113:
	.cv_func_id 230
	.cv_loc	230 9 919 0
.seh_proc _ZN4core6option15Option$LT$T$GT$3map17h4d5d665f3b33bcd2E
	subq	$136, %rsp
	.seh_stackalloc 136
	.seh_endprologue
	movq	%r9, 32(%rsp)
	movq	%r8, 40(%rsp)
	movq	%rcx, 48(%rsp)
	movq	%rcx, 56(%rsp)
	movq	%rdx, 64(%rsp)
	movq	%r8, 112(%rsp)
	movq	%r9, 120(%rsp)
.Ltmp787:
	.cv_loc	230 9 924 0
	movb	$1, 111(%rsp)
	movq	64(%rsp), %rax
	testq	%rax, %rax
	setne	%al
	movzbl	%al, %eax
	je	.LBB113_2
	jmp	.LBB113_8
.LBB113_8:
	jmp	.LBB113_3
	ud2
.LBB113_2:
	.cv_loc	230 9 926 0
	movq	48(%rsp), %rax
	movq	$0, 8(%rax)
	jmp	.LBB113_5
.LBB113_3:
	.cv_loc	230 9 925 0
	movq	32(%rsp), %r8
	movq	40(%rsp), %rdx
	movq	64(%rsp), %rax
	movq	%rax, 128(%rsp)
.Ltmp788:
	.cv_loc	230 9 925 0
	movb	$0, 111(%rsp)
	movq	%rax, 96(%rsp)
	movq	96(%rsp), %r9
	leaq	72(%rsp), %rcx
	callq	_ZN5alloc11collections5btree4node40NodeRef$LT$BorrowType$C$K$C$V$C$Type$GT$6ascend28_$u7b$$u7b$closure$u7d$$u7d$17h6a9068b0c78b72f5E
	movq	48(%rsp), %rax
	movq	72(%rsp), %rcx
	movq	%rcx, (%rax)
	movq	80(%rsp), %rcx
	movq	%rcx, 8(%rax)
	movq	88(%rsp), %rcx
	movq	%rcx, 16(%rax)
.Ltmp789:
.LBB113_5:
	.cv_loc	230 9 928 0
	testb	$1, 111(%rsp)
	jne	.LBB113_7
.LBB113_6:
	movq	56(%rsp), %rax
	addq	$136, %rsp
	retq
.LBB113_7:
	jmp	.LBB113_6
.Ltmp790:
.Lfunc_end113:
	.seh_endproc

	.def	_ZN4core6option15Option$LT$T$GT$3map17h59552ed6129bd958E;
	.scl	3;
	.type	32;
	.endef
	.section	.text,"xr",one_only,_ZN4core6option15Option$LT$T$GT$3map17h59552ed6129bd958E
	.p2align	4, 0x90
_ZN4core6option15Option$LT$T$GT$3map17h59552ed6129bd958E:
.Lfunc_begin114:
	.cv_func_id 231
	.cv_loc	231 9 919 0
.seh_proc _ZN4core6option15Option$LT$T$GT$3map17h59552ed6129bd958E
	subq	$72, %rsp
	.seh_stackalloc 72
	.seh_endprologue
	movl	%ecx, 40(%rsp)
	movl	%edx, 44(%rsp)
.Ltmp791:
	.cv_loc	231 9 924 0
	movb	$1, 63(%rsp)
	movl	40(%rsp), %eax
	testq	%rax, %rax
	je	.LBB114_2
	jmp	.LBB114_8
.LBB114_8:
	jmp	.LBB114_3
	ud2
.LBB114_2:
	.cv_loc	231 9 926 0
	movl	$1114112, 52(%rsp)
	jmp	.LBB114_5
.LBB114_3:
	.cv_loc	231 9 925 0
	movl	44(%rsp), %eax
	movl	%eax, 68(%rsp)
.Ltmp792:
	.cv_loc	231 9 925 0
	movb	$0, 63(%rsp)
	movl	%eax, 56(%rsp)
	movl	56(%rsp), %ecx
	callq	_ZN81_$LT$core..str..iter..Chars$u20$as$u20$core..iter..traits..iterator..Iterator$GT$4next28_$u7b$$u7b$closure$u7d$$u7d$17h7c512ff8b5a58249E
	movl	%eax, 36(%rsp)
	movl	36(%rsp), %eax
	movl	%eax, 52(%rsp)
.Ltmp793:
.LBB114_5:
	.cv_loc	231 9 928 0
	testb	$1, 63(%rsp)
	jne	.LBB114_7
.LBB114_6:
	movl	52(%rsp), %eax
	addq	$72, %rsp
	retq
.LBB114_7:
	jmp	.LBB114_6
.Ltmp794:
.Lfunc_end114:
	.seh_endproc

	.def	_ZN4core6option15Option$LT$T$GT$7is_some17h5f33f1b763094aa5E;
	.scl	3;
	.type	32;
	.endef
	.section	.text,"xr",one_only,_ZN4core6option15Option$LT$T$GT$7is_some17h5f33f1b763094aa5E
	.p2align	4, 0x90
_ZN4core6option15Option$LT$T$GT$7is_some17h5f33f1b763094aa5E:
.Lfunc_begin115:
	.cv_func_id 232
	.cv_loc	232 9 553 0
.seh_proc _ZN4core6option15Option$LT$T$GT$7is_some17h5f33f1b763094aa5E
	subq	$16, %rsp
	.seh_stackalloc 16
	.seh_endprologue
	movq	%rcx, 8(%rsp)
.Ltmp795:
	.cv_loc	232 9 554 0
	movb	24(%rcx), %dl
	subb	$2, %dl
	movl	$1, %eax
	xorl	%ecx, %ecx
	cmpb	$0, %dl
	cmoveq	%rcx, %rax
	cmpq	$1, %rax
	jne	.LBB115_2
	movb	$1, 7(%rsp)
	jmp	.LBB115_3
.LBB115_2:
	movb	$0, 7(%rsp)
.LBB115_3:
	.cv_loc	232 9 555 0
	movb	7(%rsp), %al
	andb	$1, %al
	movzbl	%al, %eax
	addq	$16, %rsp
	retq
.Ltmp796:
.Lfunc_end115:
	.seh_endproc

	.def	_ZN4core6option15Option$LT$T$GT$9unwrap_or17h8f263d135edbee2fE;
	.scl	3;
	.type	32;
	.endef
	.section	.text,"xr",one_only,_ZN4core6option15Option$LT$T$GT$9unwrap_or17h8f263d135edbee2fE
	.p2align	4, 0x90
_ZN4core6option15Option$LT$T$GT$9unwrap_or17h8f263d135edbee2fE:
.Lfunc_begin116:
	.cv_func_id 233
	.cv_loc	233 9 799 0
.seh_proc _ZN4core6option15Option$LT$T$GT$9unwrap_or17h8f263d135edbee2fE
	subq	$48, %rsp
	.seh_stackalloc 48
	.seh_endprologue
	movl	%r8d, (%rsp)
	movb	%r9b, 7(%rsp)
	movl	%ecx, 8(%rsp)
	movb	%dl, 12(%rsp)
	movl	%r8d, 32(%rsp)
	andb	$1, %r9b
	movb	%r9b, 36(%rsp)
.Ltmp797:
	.cv_loc	233 9 803 0
	movb	$1, 31(%rsp)
	movb	12(%rsp), %al
	addb	$-2, %al
	setne	%al
	movzbl	%al, %eax
	je	.LBB116_2
	jmp	.LBB116_7
.LBB116_7:
	jmp	.LBB116_3
	ud2
.LBB116_2:
	.cv_loc	233 9 805 0
	movb	7(%rsp), %al
	movl	(%rsp), %ecx
	movb	$0, 31(%rsp)
	movl	%ecx, 16(%rsp)
	andb	$1, %al
	movb	%al, 20(%rsp)
	jmp	.LBB116_4
.LBB116_3:
	.cv_loc	233 9 804 0
	movl	8(%rsp), %ecx
	movb	12(%rsp), %al
	movl	%ecx, 40(%rsp)
	movb	%al, %dl
	andb	$1, %dl
	movb	%dl, 44(%rsp)
.Ltmp798:
	.cv_loc	233 9 804 0
	movl	%ecx, 16(%rsp)
	andb	$1, %al
	movb	%al, 20(%rsp)
.Ltmp799:
.LBB116_4:
	.cv_loc	233 9 807 0
	testb	$1, 31(%rsp)
	jne	.LBB116_6
.LBB116_5:
	movl	16(%rsp), %eax
	movb	20(%rsp), %dl
	addq	$48, %rsp
	retq
.LBB116_6:
	jmp	.LBB116_5
.Ltmp800:
.Lfunc_end116:
	.seh_endproc

	.def	_ZN4core6result19Result$LT$T$C$E$GT$16unwrap_unchecked17h080cd317f62f4a1cE;
	.scl	3;
	.type	32;
	.endef
	.section	.text,"xr",one_only,_ZN4core6result19Result$LT$T$C$E$GT$16unwrap_unchecked17h080cd317f62f4a1cE
	.p2align	4, 0x90
_ZN4core6result19Result$LT$T$C$E$GT$16unwrap_unchecked17h080cd317f62f4a1cE:
.Lfunc_begin117:
	.cv_func_id 234
	.cv_file	48 "/rustc/90743e7298aca107ddaa0c202a4d3604e29bfeb6\\library\\core\\src\\result.rs" "D1647999EA10DAE04C462A739945296947C79CD4" 2
	.cv_loc	234 48 1531 0
.seh_proc _ZN4core6result19Result$LT$T$C$E$GT$16unwrap_unchecked17h080cd317f62f4a1cE
	.seh_handler __CxxFrameHandler3, @unwind, @except
	pushq	%rbp
	.seh_pushreg %rbp
	subq	$96, %rsp
	.seh_stackalloc 96
	leaq	96(%rsp), %rbp
	.seh_setframe %rbp, 96
	.seh_endprologue
	movq	$-2, -8(%rbp)
	movq	%rcx, -40(%rbp)
	movq	%rdx, -32(%rbp)
.Ltmp803:
	.cv_loc	234 48 1533 0
	movq	-32(%rbp), %rax
	testq	%rax, %rax
	sete	%al
	movzbl	%al, %eax
	jne	.LBB117_2
	jmp	.LBB117_11
.LBB117_11:
	jmp	.LBB117_3
	ud2
.LBB117_2:
	.cv_loc	234 48 1534 0
	movq	-40(%rbp), %rcx
	movq	%rcx, -56(%rbp)
	movq	-32(%rbp), %rax
	movq	%rax, -48(%rbp)
	movq	%rcx, -24(%rbp)
	movq	%rax, -16(%rbp)
	.cv_loc	234 48 1538 0
	xorl	%eax, %eax
	movl	$1, %ecx
	cmpq	$0, -32(%rbp)
	cmoveq	%rcx, %rax
	cmpq	$0, %rax
	je	.LBB117_9
	jmp	.LBB117_10
.LBB117_3:
	.cv_loc	234 48 1536 0
.Ltmp801:
	callq	_ZN4core4hint21unreachable_unchecked17hcb3998262b4a67adE
.Ltmp802:
	jmp	.LBB117_5
.LBB117_5:
	ud2
.LBB117_9:
	.cv_loc	234 48 1538 0
	movq	-48(%rbp), %rdx
	movq	-56(%rbp), %rax
	addq	$96, %rsp
	popq	%rbp
	retq
.LBB117_10:
	jmp	.LBB117_9
	.seh_handlerdata
	.long	($cppxdata$_ZN4core6result19Result$LT$T$C$E$GT$16unwrap_unchecked17h080cd317f62f4a1cE)@IMGREL
	.section	.text,"xr",one_only,_ZN4core6result19Result$LT$T$C$E$GT$16unwrap_unchecked17h080cd317f62f4a1cE
	.seh_endproc
	.def	"?dtor$4@?0?_ZN4core6result19Result$LT$T$C$E$GT$16unwrap_unchecked17h080cd317f62f4a1cE@4HA";
	.scl	3;
	.type	32;
	.endef
	.p2align	4, 0x90
"?dtor$4@?0?_ZN4core6result19Result$LT$T$C$E$GT$16unwrap_unchecked17h080cd317f62f4a1cE@4HA":
.seh_proc "?dtor$4@?0?_ZN4core6result19Result$LT$T$C$E$GT$16unwrap_unchecked17h080cd317f62f4a1cE@4HA"
.LBB117_4:
	movq	%rdx, 16(%rsp)
	pushq	%rbp
	.seh_pushreg %rbp
	subq	$32, %rsp
	.seh_stackalloc 32
	leaq	96(%rdx), %rbp
	.seh_endprologue
	xorl	%eax, %eax
	movl	$1, %ecx
	cmpq	$0, -32(%rbp)
	cmoveq	%rcx, %rax
	cmpq	$0, %rax
	je	.LBB117_6
	jmp	.LBB117_7
.LBB117_6:
	jmp	.LBB117_8
.LBB117_7:
	jmp	.LBB117_8
.LBB117_8:
	.cv_loc	234 48 1531 0
	addq	$32, %rsp
	popq	%rbp
	retq
.Ltmp804:
.Lfunc_end117:
	.seh_handlerdata
	.section	.text,"xr",one_only,_ZN4core6result19Result$LT$T$C$E$GT$16unwrap_unchecked17h080cd317f62f4a1cE
	.seh_endproc
	.section	.xdata,"dr",associative,_ZN4core6result19Result$LT$T$C$E$GT$16unwrap_unchecked17h080cd317f62f4a1cE
	.p2align	2
$cppxdata$_ZN4core6result19Result$LT$T$C$E$GT$16unwrap_unchecked17h080cd317f62f4a1cE:
	.long	429065506
	.long	1
	.long	($stateUnwindMap$_ZN4core6result19Result$LT$T$C$E$GT$16unwrap_unchecked17h080cd317f62f4a1cE)@IMGREL
	.long	0
	.long	0
	.long	3
	.long	($ip2state$_ZN4core6result19Result$LT$T$C$E$GT$16unwrap_unchecked17h080cd317f62f4a1cE)@IMGREL
	.long	88
	.long	0
	.long	1
$stateUnwindMap$_ZN4core6result19Result$LT$T$C$E$GT$16unwrap_unchecked17h080cd317f62f4a1cE:
	.long	-1
	.long	"?dtor$4@?0?_ZN4core6result19Result$LT$T$C$E$GT$16unwrap_unchecked17h080cd317f62f4a1cE@4HA"@IMGREL
$ip2state$_ZN4core6result19Result$LT$T$C$E$GT$16unwrap_unchecked17h080cd317f62f4a1cE:
	.long	.Lfunc_begin117@IMGREL
	.long	-1
	.long	.Ltmp801@IMGREL+1
	.long	0
	.long	.Ltmp802@IMGREL+1
	.long	-1
	.section	.text,"xr",one_only,_ZN4core6result19Result$LT$T$C$E$GT$16unwrap_unchecked17h080cd317f62f4a1cE

	.def	_ZN4core6result19Result$LT$T$C$E$GT$2ok17h5d75c56203231a0fE;
	.scl	3;
	.type	32;
	.endef
	.section	.text,"xr",one_only,_ZN4core6result19Result$LT$T$C$E$GT$2ok17h5d75c56203231a0fE
	.p2align	4, 0x90
_ZN4core6result19Result$LT$T$C$E$GT$2ok17h5d75c56203231a0fE:
.Lfunc_begin118:
	.cv_func_id 235
	.cv_loc	235 48 643 0
.seh_proc _ZN4core6result19Result$LT$T$C$E$GT$2ok17h5d75c56203231a0fE
	subq	$32, %rsp
	.seh_stackalloc 32
	.seh_endprologue
	movq	%rcx, 8(%rsp)
	movq	8(%rsp), %rax
	movq	%rax, (%rsp)
.Ltmp805:
	.cv_loc	235 48 647 0
	movzbl	(%rsp), %eax
	testb	$1, %al
	je	.LBB118_2
	jmp	.LBB118_6
.LBB118_6:
	jmp	.LBB118_3
	ud2
.LBB118_2:
	.cv_loc	235 48 648 0
	movl	4(%rsp), %eax
	movl	%eax, 28(%rsp)
.Ltmp806:
	.cv_loc	235 48 648 0
	movl	%eax, 20(%rsp)
	movl	$1, 16(%rsp)
.Ltmp807:
	.cv_loc	235 48 648 0
	jmp	.LBB118_5
.LBB118_3:
	.cv_loc	235 48 651 0
	movb	1(%rsp), %al
	movb	%al, 27(%rsp)
.Ltmp808:
	.cv_loc	235 48 651 0
	movl	$0, 16(%rsp)
.Ltmp809:
	.cv_loc	235 48 651 0
	jmp	.LBB118_5
.LBB118_5:
	.cv_loc	235 48 653 0
	movl	16(%rsp), %eax
	movl	20(%rsp), %edx
	addq	$32, %rsp
	retq
.Ltmp810:
.Lfunc_end118:
	.seh_endproc

	.def	_ZN4core6result19Result$LT$T$C$E$GT$2ok17ha2a0d1aa2cb42329E;
	.scl	3;
	.type	32;
	.endef
	.section	.text,"xr",one_only,_ZN4core6result19Result$LT$T$C$E$GT$2ok17ha2a0d1aa2cb42329E
	.p2align	4, 0x90
_ZN4core6result19Result$LT$T$C$E$GT$2ok17ha2a0d1aa2cb42329E:
.Lfunc_begin119:
	.cv_func_id 236
	.cv_loc	236 48 643 0
.seh_proc _ZN4core6result19Result$LT$T$C$E$GT$2ok17ha2a0d1aa2cb42329E
	subq	$56, %rsp
	.seh_stackalloc 56
	.seh_endprologue
	movq	%rcx, (%rsp)
.Ltmp811:
	.cv_loc	236 48 647 0
	movq	(%rcx), %rax
	testq	%rax, %rax
.Ltmp812:
	je	.LBB119_2
	jmp	.LBB119_6
.Ltmp813:
.LBB119_6:
	jmp	.LBB119_3
.Ltmp814:
	ud2
.LBB119_2:
.Ltmp815:
	.cv_loc	236 48 648 0
	movq	(%rsp), %rax
	movq	8(%rax), %rcx
	movq	16(%rax), %rax
	movq	%rcx, 40(%rsp)
	movq	%rax, 48(%rsp)
.Ltmp816:
	.cv_loc	236 48 648 0
	movq	%rcx, 8(%rsp)
	movq	%rax, 16(%rsp)
.Ltmp817:
	.cv_loc	236 48 648 0
	jmp	.LBB119_5
.Ltmp818:
.LBB119_3:
	.cv_loc	236 48 651 0
	movq	(%rsp), %rax
	movq	8(%rax), %rcx
	movq	%rcx, 24(%rsp)
	movq	16(%rax), %rax
	movq	%rax, 32(%rsp)
.Ltmp819:
	.cv_loc	236 48 651 0
	movq	$0, 8(%rsp)
.Ltmp820:
	.cv_loc	236 48 651 0
	jmp	.LBB119_5
.Ltmp821:
.LBB119_5:
	.cv_loc	236 48 653 0
	movq	8(%rsp), %rax
	movq	16(%rsp), %rdx
	addq	$56, %rsp
	retq
.Ltmp822:
.Lfunc_end119:
	.seh_endproc

	.def	_ZN4core6result19Result$LT$T$C$E$GT$2ok17ha409355ebb15b267E;
	.scl	3;
	.type	32;
	.endef
	.section	.text,"xr",one_only,_ZN4core6result19Result$LT$T$C$E$GT$2ok17ha409355ebb15b267E
	.p2align	4, 0x90
_ZN4core6result19Result$LT$T$C$E$GT$2ok17ha409355ebb15b267E:
.Lfunc_begin120:
	.cv_func_id 237
	.cv_loc	237 48 643 0
.seh_proc _ZN4core6result19Result$LT$T$C$E$GT$2ok17ha409355ebb15b267E
	subq	$184, %rsp
	.seh_stackalloc 184
	.seh_endprologue
	movq	%rdx, 40(%rsp)
.Ltmp823:
	movq	%rcx, 48(%rsp)
	movq	%rcx, 56(%rsp)
.Ltmp824:
	.cv_loc	237 48 647 0
	movq	(%rdx), %rax
	testq	%rax, %rax
	sete	%al
	movzbl	%al, %eax
.Ltmp825:
	jne	.LBB120_2
	jmp	.LBB120_6
.Ltmp826:
.LBB120_6:
	jmp	.LBB120_3
.Ltmp827:
	ud2
.LBB120_2:
.Ltmp828:
	.cv_loc	237 48 648 0
	movq	40(%rsp), %rdx
	leaq	64(%rsp), %rcx
	movl	$56, %r8d
	callq	memcpy
.Ltmp829:
	.cv_loc	237 48 648 0
	leaq	120(%rsp), %rcx
	leaq	64(%rsp), %rdx
	movl	$56, %r8d
	callq	memcpy
	movq	48(%rsp), %rcx
	leaq	120(%rsp), %rdx
	movl	$56, %r8d
	callq	memcpy
.Ltmp830:
	.cv_loc	237 48 648 0
	jmp	.LBB120_5
.Ltmp831:
.LBB120_3:
	.cv_loc	237 48 651 0
	movq	48(%rsp), %rax
	movq	40(%rsp), %rcx
	movq	8(%rcx), %rcx
	movq	%rcx, 176(%rsp)
.Ltmp832:
	.cv_loc	237 48 651 0
	movq	$0, (%rax)
.Ltmp833:
	.cv_loc	237 48 651 0
	leaq	176(%rsp), %rcx
	callq	_ZN4core3ptr42drop_in_place$LT$std..io..error..Error$GT$17h070ba17eab25c992E
.Ltmp834:
	jmp	.LBB120_5
.Ltmp835:
.LBB120_5:
	.cv_loc	237 48 653 0
	movq	56(%rsp), %rax
	addq	$184, %rsp
	retq
.Ltmp836:
.Lfunc_end120:
	.seh_endproc

	.def	_ZN50_$LT$T$u20$as$u20$core..convert..Into$LT$U$GT$$GT$4into17h48b6352e80886e28E;
	.scl	3;
	.type	32;
	.endef
