	.text
	.def	@feat.00;
	.scl	3;
	.type	0;
	.endef
	.globl	@feat.00
.set @feat.00, 0
	.file	"build_script_build.7a4c3f8f-cgu.0"
	.def	_ZN100_$LT$alloc..string..String$u20$as$u20$core..ops..index..Index$LT$core..ops..range..RangeFull$GT$$GT$5index17h4b3dca254dc6b1feE;
	.scl	3;
	.type	32;
	.endef
	.section	.text,"xr",one_only,_ZN100_$LT$alloc..string..String$u20$as$u20$core..ops..index..Index$LT$core..ops..range..RangeFull$GT$$GT$5index17h4b3dca254dc6b1feE
	.p2align	4, 0x90
_ZN100_$LT$alloc..string..String$u20$as$u20$core..ops..index..Index$LT$core..ops..range..RangeFull$GT$$GT$5index17h4b3dca254dc6b1feE:
.Lfunc_begin0:
	.cv_func_id 0
	.cv_file	1 "/rustc/fe5b13d681f25ee6474be29d748c65adcd91f69e\\library\\alloc\\src\\string.rs" "BC8EEEDBA1437A61D18F34DE43207DA85C97F80A" 2
	.cv_loc	0 1 2257 0
.seh_proc _ZN100_$LT$alloc..string..String$u20$as$u20$core..ops..index..Index$LT$core..ops..range..RangeFull$GT$$GT$5index17h4b3dca254dc6b1feE
	subq	$88, %rsp
	.seh_stackalloc 88
	.seh_endprologue
	movq	%rcx, 72(%rsp)
.Ltmp0:
	.cv_loc	0 1 2258 0
	callq	_ZN72_$LT$alloc..vec..Vec$LT$T$C$A$GT$$u20$as$u20$core..ops..deref..Deref$GT$5deref17h36565d09d99e706aE
	movq	%rax, 56(%rsp)
	movq	%rdx, 64(%rsp)
	movq	64(%rsp), %rdx
	movq	56(%rsp), %rcx
	callq	_ZN4core3str8converts19from_utf8_unchecked17h45cf11d0ddc12d75E
	movq	%rax, 40(%rsp)
	movq	%rdx, 48(%rsp)
	.cv_loc	0 1 2259 0
	movq	48(%rsp), %rdx
	movq	40(%rsp), %rax
	addq	$88, %rsp
	retq
.Ltmp1:
.Lfunc_end0:
	.seh_endproc

	.def	_ZN104_$LT$core..ops..control_flow..ControlFlow$LT$B$C$C$GT$$u20$as$u20$core..ops..try_trait..FromResidual$GT$13from_residual17h5af3b039a9ccc9f6E;
	.scl	3;
	.type	32;
	.endef
	.section	.text,"xr",one_only,_ZN104_$LT$core..ops..control_flow..ControlFlow$LT$B$C$C$GT$$u20$as$u20$core..ops..try_trait..FromResidual$GT$13from_residual17h5af3b039a9ccc9f6E
	.p2align	4, 0x90
_ZN104_$LT$core..ops..control_flow..ControlFlow$LT$B$C$C$GT$$u20$as$u20$core..ops..try_trait..FromResidual$GT$13from_residual17h5af3b039a9ccc9f6E:
.Lfunc_begin1:
	.cv_func_id 1
	.cv_file	2 "/rustc/fe5b13d681f25ee6474be29d748c65adcd91f69e\\library\\core\\src\\ops\\control_flow.rs" "358008375A4C8397714F265F8D759BE7D2481351" 2
	.cv_loc	1 2 119 0
.seh_proc _ZN104_$LT$core..ops..control_flow..ControlFlow$LT$B$C$C$GT$$u20$as$u20$core..ops..try_trait..FromResidual$GT$13from_residual17h5af3b039a9ccc9f6E
	subq	$24, %rsp
	.seh_stackalloc 24
	.seh_endprologue
.Ltmp2:
	.cv_loc	1 2 121 0
	movb	$1, 7(%rsp)
.Ltmp3:
	.cv_loc	1 2 123 0
	movb	7(%rsp), %al
	andb	$1, %al
	movzbl	%al, %eax
	addq	$24, %rsp
	retq
.Ltmp4:
.Lfunc_end1:
	.seh_endproc

	.def	_ZN105_$LT$std..ffi..os_str..OsString$u20$as$u20$core..ops..index..Index$LT$core..ops..range..RangeFull$GT$$GT$5index17h211139df72c57c7aE;
	.scl	3;
	.type	32;
	.endef
	.section	.text,"xr",one_only,_ZN105_$LT$std..ffi..os_str..OsString$u20$as$u20$core..ops..index..Index$LT$core..ops..range..RangeFull$GT$$GT$5index17h211139df72c57c7aE
	.p2align	4, 0x90
_ZN105_$LT$std..ffi..os_str..OsString$u20$as$u20$core..ops..index..Index$LT$core..ops..range..RangeFull$GT$$GT$5index17h211139df72c57c7aE:
.Lfunc_begin2:
	.cv_func_id 2
	.cv_file	3 "/rustc/fe5b13d681f25ee6474be29d748c65adcd91f69e\\library\\std\\src\\ffi\\os_str.rs" "32CFCF9045EBA20A18702CADF1056148CF454618" 2
	.cv_loc	2 3 467 0
.seh_proc _ZN105_$LT$std..ffi..os_str..OsString$u20$as$u20$core..ops..index..Index$LT$core..ops..range..RangeFull$GT$$GT$5index17h211139df72c57c7aE
	subq	$88, %rsp
	.seh_stackalloc 88
	.seh_endprologue
	movq	%rcx, 72(%rsp)
.Ltmp5:
	.cv_loc	2 3 468 0
	callq	_ZN3std3sys7windows6os_str3Buf8as_slice17he6d3559a861cded8E
	movq	%rax, 56(%rsp)
	movq	%rdx, 64(%rsp)
	movq	64(%rsp), %rdx
	movq	56(%rsp), %rcx
	callq	_ZN3std3ffi6os_str5OsStr10from_inner17h33e08f633b595500E
	movq	%rax, 40(%rsp)
	movq	%rdx, 48(%rsp)
	.cv_loc	2 3 469 0
	movq	48(%rsp), %rdx
	movq	40(%rsp), %rax
	addq	$88, %rsp
	retq
.Ltmp6:
.Lfunc_end2:
	.seh_endproc

	.def	_ZN106_$LT$core..ops..range..Range$LT$usize$GT$$u20$as$u20$core..slice..index..SliceIndex$LT$$u5b$T$u5d$$GT$$GT$13get_unchecked17h8d9419e62053e0e6E;
	.scl	3;
	.type	32;
	.endef
	.section	.text,"xr",one_only,_ZN106_$LT$core..ops..range..Range$LT$usize$GT$$u20$as$u20$core..slice..index..SliceIndex$LT$$u5b$T$u5d$$GT$$GT$13get_unchecked17h8d9419e62053e0e6E
	.p2align	4, 0x90
_ZN106_$LT$core..ops..range..Range$LT$usize$GT$$u20$as$u20$core..slice..index..SliceIndex$LT$$u5b$T$u5d$$GT$$GT$13get_unchecked17h8d9419e62053e0e6E:
.Lfunc_begin3:
	.cv_func_id 3
	.cv_file	4 "/rustc/fe5b13d681f25ee6474be29d748c65adcd91f69e\\library\\core\\src\\slice\\index.rs" "2263F7B8A2DE8A953D202C06D47562685FD9C316" 2
	.cv_loc	3 4 277 0
.seh_proc _ZN106_$LT$core..ops..range..Range$LT$usize$GT$$u20$as$u20$core..slice..index..SliceIndex$LT$$u5b$T$u5d$$GT$$GT$13get_unchecked17h8d9419e62053e0e6E
	subq	$200, %rsp
	.seh_stackalloc 200
	.seh_endprologue
	movq	%r9, 64(%rsp)
	movq	%r8, 80(%rsp)
	movq	%rdx, %rax
	movq	64(%rsp), %rdx
	movq	%rax, 72(%rsp)
	movq	%rcx, %r8
	movq	80(%rsp), %rcx
	movq	%r8, 88(%rsp)
	movq	%r8, 128(%rsp)
	movq	%rax, 136(%rsp)
	movq	%rcx, 144(%rsp)
	movq	%rdx, 152(%rsp)
.Ltmp7:
	.cv_loc	3 4 285 0
	callq	_ZN4core3ptr9const_ptr43_$LT$impl$u20$$BP$const$u20$$u5b$T$u5d$$GT$6as_ptr17h40aff9e74e63ef4aE
	movq	%rax, 96(%rsp)
	.cv_file	5 "/rustc/fe5b13d681f25ee6474be29d748c65adcd91f69e\\library\\core\\src\\ptr\\const_ptr.rs" "E130FEAACFD149A6448325AB83A7B0329D9DCF85" 2
	.cv_inline_site_id 4 within 3 inlined_at 4 285 0
	.cv_inline_site_id 5 within 4 inlined_at 5 693 0
	.cv_loc	5 5 412 0
	movq	88(%rsp), %rcx
	movq	96(%rsp), %rax
	movq	%rax, 160(%rsp)
	movq	%rcx, 168(%rsp)
	movq	%rax, 176(%rsp)
	movq	%rcx, 184(%rsp)
.Ltmp8:
	addq	%rcx, %rax
	movq	%rax, 192(%rsp)
	movq	192(%rsp), %rax
	movq	%rax, 56(%rsp)
.Ltmp9:
	.cv_loc	3 4 285 0
	movq	56(%rsp), %rcx
	movq	88(%rsp), %rax
	movq	72(%rsp), %rdx
	subq	%rax, %rdx
	callq	_ZN4core3ptr20slice_from_raw_parts17h3c91452bd7ed0b41E
	movq	%rax, 40(%rsp)
	movq	%rdx, 48(%rsp)
	.cv_loc	3 4 287 0
	movq	48(%rsp), %rdx
	movq	40(%rsp), %rax
	addq	$200, %rsp
	retq
.Ltmp10:
.Lfunc_end3:
	.seh_endproc

	.def	_ZN106_$LT$core..ops..range..Range$LT$usize$GT$$u20$as$u20$core..slice..index..SliceIndex$LT$$u5b$T$u5d$$GT$$GT$17get_unchecked_mut17hc5d9106caff88d8cE;
	.scl	3;
	.type	32;
	.endef
	.section	.text,"xr",one_only,_ZN106_$LT$core..ops..range..Range$LT$usize$GT$$u20$as$u20$core..slice..index..SliceIndex$LT$$u5b$T$u5d$$GT$$GT$17get_unchecked_mut17hc5d9106caff88d8cE
	.p2align	4, 0x90
_ZN106_$LT$core..ops..range..Range$LT$usize$GT$$u20$as$u20$core..slice..index..SliceIndex$LT$$u5b$T$u5d$$GT$$GT$17get_unchecked_mut17hc5d9106caff88d8cE:
.Lfunc_begin4:
	.cv_func_id 6
	.cv_loc	6 4 290 0
.seh_proc _ZN106_$LT$core..ops..range..Range$LT$usize$GT$$u20$as$u20$core..slice..index..SliceIndex$LT$$u5b$T$u5d$$GT$$GT$17get_unchecked_mut17hc5d9106caff88d8cE
	subq	$200, %rsp
	.seh_stackalloc 200
	.seh_endprologue
	movq	%rdx, 64(%rsp)
	movq	%rcx, 72(%rsp)
	movq	%rcx, 112(%rsp)
	movq	%rdx, 120(%rsp)
	movq	%r8, 128(%rsp)
	movq	%r9, 136(%rsp)
	movq	%r8, 184(%rsp)
	movq	%r9, 192(%rsp)
	movq	%r8, 80(%rsp)
	.cv_file	6 "/rustc/fe5b13d681f25ee6474be29d748c65adcd91f69e\\library\\core\\src\\ptr\\mut_ptr.rs" "5859F854D0855F592C59E07606442B757DF41B7F" 2
	.cv_inline_site_id 7 within 6 inlined_at 4 294 0
	.cv_inline_site_id 8 within 7 inlined_at 6 807 0
	.cv_loc	8 6 424 0
	movq	72(%rsp), %rcx
	movq	80(%rsp), %rax
	movq	%rax, 144(%rsp)
	movq	%rcx, 152(%rsp)
	movq	%rax, 160(%rsp)
	movq	%rcx, 168(%rsp)
.Ltmp11:
	addq	%rcx, %rax
	movq	%rax, 176(%rsp)
	movq	176(%rsp), %rax
	movq	%rax, 56(%rsp)
.Ltmp12:
	.cv_loc	6 4 294 0
	movq	56(%rsp), %rcx
	movq	72(%rsp), %rax
	movq	64(%rsp), %rdx
	subq	%rax, %rdx
	callq	_ZN4core3ptr24slice_from_raw_parts_mut17h8d3894fe3192741dE
	movq	%rax, 40(%rsp)
	movq	%rdx, 48(%rsp)
	.cv_loc	6 4 296 0
	movq	48(%rsp), %rdx
	movq	40(%rsp), %rax
	addq	$200, %rsp
	retq
.Ltmp13:
.Lfunc_end4:
	.seh_endproc

	.def	_ZN106_$LT$core..ops..range..Range$LT$usize$GT$$u20$as$u20$core..slice..index..SliceIndex$LT$$u5b$T$u5d$$GT$$GT$3get17h05d68d2f8463f0caE;
	.scl	3;
	.type	32;
	.endef
	.section	.text,"xr",one_only,_ZN106_$LT$core..ops..range..Range$LT$usize$GT$$u20$as$u20$core..slice..index..SliceIndex$LT$$u5b$T$u5d$$GT$$GT$3get17h05d68d2f8463f0caE
	.p2align	4, 0x90
_ZN106_$LT$core..ops..range..Range$LT$usize$GT$$u20$as$u20$core..slice..index..SliceIndex$LT$$u5b$T$u5d$$GT$$GT$3get17h05d68d2f8463f0caE:
.Lfunc_begin5:
	.cv_func_id 9
	.cv_loc	9 4 257 0
.seh_proc _ZN106_$LT$core..ops..range..Range$LT$usize$GT$$u20$as$u20$core..slice..index..SliceIndex$LT$$u5b$T$u5d$$GT$$GT$3get17h05d68d2f8463f0caE
	subq	$136, %rsp
	.seh_stackalloc 136
	.seh_endprologue
	movq	%r9, 48(%rsp)
	movq	%r8, 56(%rsp)
	movq	%rdx, 64(%rsp)
	movq	%rcx, 72(%rsp)
	movq	%rcx, 104(%rsp)
	movq	%rdx, 112(%rsp)
	movq	%r8, 120(%rsp)
	movq	%r9, 128(%rsp)
.Ltmp14:
	.cv_loc	9 4 258 0
	cmpq	%rdx, %rcx
	ja	.LBB5_2
	movq	64(%rsp), %rax
	movq	48(%rsp), %rcx
	cmpq	%rcx, %rax
	seta	%al
	andb	$1, %al
	movb	%al, 103(%rsp)
	jmp	.LBB5_3
.LBB5_2:
	movb	$1, 103(%rsp)
.LBB5_3:
	testb	$1, 103(%rsp)
	jne	.LBB5_5
	.cv_loc	9 4 262 0
	movq	48(%rsp), %r9
	movq	56(%rsp), %r8
	movq	64(%rsp), %rdx
	movq	72(%rsp), %rcx
	callq	_ZN106_$LT$core..ops..range..Range$LT$usize$GT$$u20$as$u20$core..slice..index..SliceIndex$LT$$u5b$T$u5d$$GT$$GT$13get_unchecked17h8d9419e62053e0e6E
	movq	%rax, 32(%rsp)
	movq	%rdx, 40(%rsp)
	jmp	.LBB5_7
.LBB5_5:
	.cv_loc	9 4 259 0
	movq	$0, 80(%rsp)
.LBB5_6:
	.cv_loc	9 4 264 0
	movq	80(%rsp), %rax
	movq	88(%rsp), %rdx
	addq	$136, %rsp
	retq
.LBB5_7:
	.cv_loc	9 4 262 0
	movq	40(%rsp), %rax
	movq	32(%rsp), %rcx
	movq	%rcx, 80(%rsp)
	movq	%rax, 88(%rsp)
	.cv_loc	9 4 258 0
	jmp	.LBB5_6
.Ltmp15:
.Lfunc_end5:
	.seh_endproc

	.def	_ZN106_$LT$core..ops..range..Range$LT$usize$GT$$u20$as$u20$core..slice..index..SliceIndex$LT$$u5b$T$u5d$$GT$$GT$5index17h17900c8e43c763a4E;
	.scl	3;
	.type	32;
	.endef
	.section	.text,"xr",one_only,_ZN106_$LT$core..ops..range..Range$LT$usize$GT$$u20$as$u20$core..slice..index..SliceIndex$LT$$u5b$T$u5d$$GT$$GT$5index17h17900c8e43c763a4E
	.p2align	4, 0x90
_ZN106_$LT$core..ops..range..Range$LT$usize$GT$$u20$as$u20$core..slice..index..SliceIndex$LT$$u5b$T$u5d$$GT$$GT$5index17h17900c8e43c763a4E:
.Lfunc_begin6:
	.cv_func_id 10
	.cv_loc	10 4 299 0
.seh_proc _ZN106_$LT$core..ops..range..Range$LT$usize$GT$$u20$as$u20$core..slice..index..SliceIndex$LT$$u5b$T$u5d$$GT$$GT$5index17h17900c8e43c763a4E
	subq	$120, %rsp
	.seh_stackalloc 120
	.seh_endprologue
	movq	%r9, 48(%rsp)
	movq	%r8, 56(%rsp)
	movq	%rdx, 64(%rsp)
	movq	%rcx, 72(%rsp)
	movq	160(%rsp), %rax
	movq	%rax, 80(%rsp)
	movq	%rcx, 88(%rsp)
	movq	%rdx, 96(%rsp)
	movq	%r8, 104(%rsp)
	movq	%r9, 112(%rsp)
.Ltmp16:
	.cv_loc	10 4 300 0
	cmpq	%rdx, %rcx
	ja	.LBB6_2
	.cv_loc	10 4 302 0
	movq	64(%rsp), %rax
	movq	48(%rsp), %rcx
	cmpq	%rcx, %rax
	ja	.LBB6_4
	jmp	.LBB6_3
.LBB6_2:
	.cv_loc	10 4 301 0
	movq	80(%rsp), %r8
	movq	64(%rsp), %rdx
	movq	72(%rsp), %rcx
	callq	_ZN4core5slice5index22slice_index_order_fail17h519c513974d7fc0bE
	ud2
.LBB6_3:
	.cv_loc	10 4 306 0
	movq	48(%rsp), %r9
	movq	56(%rsp), %r8
	movq	64(%rsp), %rdx
	movq	72(%rsp), %rcx
	callq	_ZN106_$LT$core..ops..range..Range$LT$usize$GT$$u20$as$u20$core..slice..index..SliceIndex$LT$$u5b$T$u5d$$GT$$GT$13get_unchecked17h8d9419e62053e0e6E
	movq	%rax, 32(%rsp)
	movq	%rdx, 40(%rsp)
	jmp	.LBB6_5
.LBB6_4:
	.cv_loc	10 4 303 0
	movq	80(%rsp), %r8
	movq	48(%rsp), %rdx
	movq	64(%rsp), %rcx
	callq	_ZN4core5slice5index24slice_end_index_len_fail17h628b9b2a44ca99edE
	ud2
.LBB6_5:
	.cv_loc	10 4 307 0
	movq	40(%rsp), %rdx
	movq	32(%rsp), %rax
	addq	$120, %rsp
	retq
.Ltmp17:
.Lfunc_end6:
	.seh_endproc

	.def	_ZN106_$LT$core..ops..range..Range$LT$usize$GT$$u20$as$u20$core..slice..index..SliceIndex$LT$$u5b$T$u5d$$GT$$GT$9index_mut17h7368358cae8e49eeE;
	.scl	3;
	.type	32;
	.endef
	.section	.text,"xr",one_only,_ZN106_$LT$core..ops..range..Range$LT$usize$GT$$u20$as$u20$core..slice..index..SliceIndex$LT$$u5b$T$u5d$$GT$$GT$9index_mut17h7368358cae8e49eeE
	.p2align	4, 0x90
_ZN106_$LT$core..ops..range..Range$LT$usize$GT$$u20$as$u20$core..slice..index..SliceIndex$LT$$u5b$T$u5d$$GT$$GT$9index_mut17h7368358cae8e49eeE:
.Lfunc_begin7:
	.cv_func_id 11
	.cv_loc	11 4 310 0
.seh_proc _ZN106_$LT$core..ops..range..Range$LT$usize$GT$$u20$as$u20$core..slice..index..SliceIndex$LT$$u5b$T$u5d$$GT$$GT$9index_mut17h7368358cae8e49eeE
	subq	$120, %rsp
	.seh_stackalloc 120
	.seh_endprologue
	movq	%r9, 48(%rsp)
	movq	%r8, 56(%rsp)
	movq	%rdx, 64(%rsp)
	movq	%rcx, 72(%rsp)
	movq	160(%rsp), %rax
	movq	%rax, 80(%rsp)
	movq	%rcx, 88(%rsp)
	movq	%rdx, 96(%rsp)
	movq	%r8, 104(%rsp)
	movq	%r9, 112(%rsp)
.Ltmp18:
	.cv_loc	11 4 311 0
	cmpq	%rdx, %rcx
	ja	.LBB7_2
	.cv_loc	11 4 313 0
	movq	64(%rsp), %rax
	movq	48(%rsp), %rcx
	cmpq	%rcx, %rax
	ja	.LBB7_4
	jmp	.LBB7_3
.LBB7_2:
	.cv_loc	11 4 312 0
	movq	80(%rsp), %r8
	movq	64(%rsp), %rdx
	movq	72(%rsp), %rcx
	callq	_ZN4core5slice5index22slice_index_order_fail17h519c513974d7fc0bE
	ud2
.LBB7_3:
	.cv_loc	11 4 317 0
	movq	48(%rsp), %r9
	movq	56(%rsp), %r8
	movq	64(%rsp), %rdx
	movq	72(%rsp), %rcx
	callq	_ZN106_$LT$core..ops..range..Range$LT$usize$GT$$u20$as$u20$core..slice..index..SliceIndex$LT$$u5b$T$u5d$$GT$$GT$17get_unchecked_mut17hc5d9106caff88d8cE
	movq	%rax, 32(%rsp)
	movq	%rdx, 40(%rsp)
	jmp	.LBB7_5
.LBB7_4:
	.cv_loc	11 4 314 0
	movq	80(%rsp), %r8
	movq	48(%rsp), %rdx
	movq	64(%rsp), %rcx
	callq	_ZN4core5slice5index24slice_end_index_len_fail17h628b9b2a44ca99edE
	ud2
.LBB7_5:
	.cv_loc	11 4 318 0
	movq	40(%rsp), %rdx
	movq	32(%rsp), %rax
	addq	$120, %rsp
	retq
.Ltmp19:
.Lfunc_end7:
	.seh_endproc

	.def	_ZN108_$LT$core..ops..range..RangeTo$LT$usize$GT$$u20$as$u20$core..slice..index..SliceIndex$LT$$u5b$T$u5d$$GT$$GT$5index17h84c95ff3368a40faE;
	.scl	3;
	.type	32;
	.endef
	.section	.text,"xr",one_only,_ZN108_$LT$core..ops..range..RangeTo$LT$usize$GT$$u20$as$u20$core..slice..index..SliceIndex$LT$$u5b$T$u5d$$GT$$GT$5index17h84c95ff3368a40faE
	.p2align	4, 0x90
_ZN108_$LT$core..ops..range..RangeTo$LT$usize$GT$$u20$as$u20$core..slice..index..SliceIndex$LT$$u5b$T$u5d$$GT$$GT$5index17h84c95ff3368a40faE:
.Lfunc_begin8:
	.cv_func_id 12
	.cv_loc	12 4 349 0
.seh_proc _ZN108_$LT$core..ops..range..RangeTo$LT$usize$GT$$u20$as$u20$core..slice..index..SliceIndex$LT$$u5b$T$u5d$$GT$$GT$5index17h84c95ff3368a40faE
	subq	$104, %rsp
	.seh_stackalloc 104
	.seh_endprologue
	movq	%r9, %rax
	movq	%r8, %r9
	movq	%rdx, %r8
	movq	%rcx, 80(%rsp)
	movq	%r8, 88(%rsp)
	movq	%r9, 96(%rsp)
.Ltmp20:
	.cv_loc	12 4 350 0
	movq	$0, 64(%rsp)
	movq	%rcx, 72(%rsp)
	movq	64(%rsp), %rcx
	movq	72(%rsp), %rdx
	movq	%rax, 32(%rsp)
	callq	_ZN106_$LT$core..ops..range..Range$LT$usize$GT$$u20$as$u20$core..slice..index..SliceIndex$LT$$u5b$T$u5d$$GT$$GT$5index17h17900c8e43c763a4E
	movq	%rax, 48(%rsp)
	movq	%rdx, 56(%rsp)
	.cv_loc	12 4 351 0
	movq	56(%rsp), %rdx
	movq	48(%rsp), %rax
	addq	$104, %rsp
	retq
.Ltmp21:
.Lfunc_end8:
	.seh_endproc

	.def	_ZN108_$LT$core..ops..range..RangeTo$LT$usize$GT$$u20$as$u20$core..slice..index..SliceIndex$LT$$u5b$T$u5d$$GT$$GT$9index_mut17hc28f3f5c511ff4adE;
	.scl	3;
	.type	32;
	.endef
	.section	.text,"xr",one_only,_ZN108_$LT$core..ops..range..RangeTo$LT$usize$GT$$u20$as$u20$core..slice..index..SliceIndex$LT$$u5b$T$u5d$$GT$$GT$9index_mut17hc28f3f5c511ff4adE
	.p2align	4, 0x90
_ZN108_$LT$core..ops..range..RangeTo$LT$usize$GT$$u20$as$u20$core..slice..index..SliceIndex$LT$$u5b$T$u5d$$GT$$GT$9index_mut17hc28f3f5c511ff4adE:
.Lfunc_begin9:
	.cv_func_id 13
	.cv_loc	13 4 354 0
.seh_proc _ZN108_$LT$core..ops..range..RangeTo$LT$usize$GT$$u20$as$u20$core..slice..index..SliceIndex$LT$$u5b$T$u5d$$GT$$GT$9index_mut17hc28f3f5c511ff4adE
	subq	$104, %rsp
	.seh_stackalloc 104
	.seh_endprologue
	movq	%r9, %rax
	movq	%r8, %r9
	movq	%rdx, %r8
	movq	%rcx, 80(%rsp)
	movq	%r8, 88(%rsp)
	movq	%r9, 96(%rsp)
.Ltmp22:
	.cv_loc	13 4 355 0
	movq	$0, 64(%rsp)
	movq	%rcx, 72(%rsp)
	movq	64(%rsp), %rcx
	movq	72(%rsp), %rdx
	movq	%rax, 32(%rsp)
	callq	_ZN106_$LT$core..ops..range..Range$LT$usize$GT$$u20$as$u20$core..slice..index..SliceIndex$LT$$u5b$T$u5d$$GT$$GT$9index_mut17h7368358cae8e49eeE
	movq	%rax, 48(%rsp)
	movq	%rdx, 56(%rsp)
	.cv_loc	13 4 356 0
	movq	56(%rsp), %rdx
	movq	48(%rsp), %rax
	addq	$104, %rsp
	retq
.Ltmp23:
.Lfunc_end9:
	.seh_endproc

	.def	_ZN115_$LT$alloc..collections..btree..map..BTreeMap$LT$K$C$V$GT$$u20$as$u20$core..iter..traits..collect..IntoIterator$GT$9into_iter17h7181afdf41d049d9E;
	.scl	3;
	.type	32;
	.endef
	.section	.text,"xr",one_only,_ZN115_$LT$alloc..collections..btree..map..BTreeMap$LT$K$C$V$GT$$u20$as$u20$core..iter..traits..collect..IntoIterator$GT$9into_iter17h7181afdf41d049d9E
	.p2align	4, 0x90
_ZN115_$LT$alloc..collections..btree..map..BTreeMap$LT$K$C$V$GT$$u20$as$u20$core..iter..traits..collect..IntoIterator$GT$9into_iter17h7181afdf41d049d9E:
.Lfunc_begin10:
	.cv_func_id 14
	.cv_file	7 "/rustc/fe5b13d681f25ee6474be29d748c65adcd91f69e\\library\\alloc\\src\\collections\\btree\\map.rs" "CE6D612BB47A260C54AB0EB82AFC0069B1A55D74" 2
	.cv_loc	14 7 1473 0
.seh_proc _ZN115_$LT$alloc..collections..btree..map..BTreeMap$LT$K$C$V$GT$$u20$as$u20$core..iter..traits..collect..IntoIterator$GT$9into_iter17h7181afdf41d049d9E
	subq	$408, %rsp
	.seh_stackalloc 408
	.seh_endprologue
	movq	%rcx, 80(%rsp)
	movq	%rcx, 88(%rsp)
.Ltmp24:
	.cv_loc	14 7 1474 0
	movq	(%rdx), %rax
	movq	%rax, 120(%rsp)
	movq	8(%rdx), %rax
	movq	%rax, 128(%rsp)
	movq	16(%rdx), %rax
	movq	%rax, 136(%rsp)
.Ltmp25:
	.cv_file	8 "/rustc/fe5b13d681f25ee6474be29d748c65adcd91f69e\\library\\core\\src\\mem\\manually_drop.rs" "05D1F1C923886F7AA54321ED539171C9D20B2BE6" 2
	.cv_inline_site_id 15 within 14 inlined_at 7 1474 0
	.cv_loc	15 8 71 0
	movq	120(%rsp), %rax
	movq	%rax, 368(%rsp)
	movq	128(%rsp), %rax
	movq	%rax, 376(%rsp)
	movq	136(%rsp), %rax
	movq	%rax, 384(%rsp)
	movq	368(%rsp), %rax
	movq	%rax, 96(%rsp)
	movq	376(%rsp), %rax
	movq	%rax, 104(%rsp)
	movq	384(%rsp), %rax
	movq	%rax, 112(%rsp)
.Ltmp26:
	.cv_inline_site_id 16 within 14 inlined_at 7 1475 0
	.cv_loc	16 8 163 0
	leaq	96(%rsp), %rax
	movq	%rax, 400(%rsp)
.Ltmp27:
	leaq	96(%rsp), %rax
	movq	%rax, 72(%rsp)
.Ltmp28:
	.cv_loc	14 7 1475 0
	movq	72(%rsp), %rcx
	callq	_ZN4core6option15Option$LT$T$GT$4take17h1b4935ebb8d60879E
.Ltmp29:
	movq	%rdx, 152(%rsp)
	movq	%rax, 144(%rsp)
.Ltmp30:
	movl	$1, %eax
	xorl	%ecx, %ecx
	cmpq	$0, 152(%rsp)
	cmoveq	%rcx, %rax
	cmpq	$1, %rax
	jne	.LBB10_5
.Ltmp31:
	movq	144(%rsp), %rcx
	movq	152(%rsp), %rdx
	movq	%rcx, 352(%rsp)
	movq	%rdx, 360(%rsp)
	.cv_loc	14 7 1476 0
	callq	_ZN5alloc11collections5btree4node76NodeRef$LT$alloc..collections..btree..node..marker..Owned$C$K$C$V$C$Type$GT$10into_dying17had09167e24683731E
	movq	%rax, 56(%rsp)
	movq	%rdx, 64(%rsp)
	jmp	.LBB10_8
.Ltmp32:
.LBB10_5:
	.cv_loc	14 7 1480 0
	leaq	288(%rsp), %rcx
	callq	_ZN5alloc11collections5btree8navigate39LazyLeafRange$LT$BorrowType$C$K$C$V$GT$4none17h8d66a5d6f069f40cE
.Ltmp33:
	movq	80(%rsp), %rcx
	leaq	288(%rsp), %rdx
	movl	$64, %r8d
	callq	memcpy
	movq	80(%rsp), %rax
	movq	$0, 64(%rax)
.Ltmp34:
.LBB10_7:
	.cv_loc	14 7 1482 0
	movq	88(%rsp), %rax
	addq	$408, %rsp
	retq
.Ltmp35:
.LBB10_8:
	.cv_loc	14 7 1476 0
	movq	64(%rsp), %r8
	movq	56(%rsp), %rdx
.Ltmp36:
	leaq	160(%rsp), %rcx
	callq	_ZN5alloc11collections5btree8navigate178_$LT$impl$u20$alloc..collections..btree..node..NodeRef$LT$alloc..collections..btree..node..marker..Dying$C$K$C$V$C$alloc..collections..btree..node..marker..LeafOrInternal$GT$$GT$10full_range17h72bf2172e30213a2E
.Ltmp37:
	.cv_loc	14 7 1478 0
	leaq	224(%rsp), %rcx
	leaq	160(%rsp), %rdx
	movl	$64, %r8d
	callq	memcpy
	leaq	96(%rsp), %rax
	movq	%rax, 392(%rsp)
.Ltmp38:
	.cv_inline_site_id 17 within 14 inlined_at 7 1478 0
	.cv_loc	17 8 154 0
	leaq	96(%rsp), %rax
	movq	%rax, 48(%rsp)
.Ltmp39:
	.cv_loc	14 7 1478 0
	movq	80(%rsp), %rcx
	movq	48(%rsp), %rax
	movq	16(%rax), %rax
	movq	%rax, 40(%rsp)
	leaq	224(%rsp), %rdx
	movl	$64, %r8d
	callq	memcpy
	movq	40(%rsp), %rcx
	movq	80(%rsp), %rax
	movq	%rcx, 64(%rax)
.Ltmp40:
	.cv_loc	14 7 1475 0
	jmp	.LBB10_7
.Ltmp41:
.Lfunc_end10:
	.seh_endproc

	.def	_ZN119_$LT$core..ptr..non_null..NonNull$LT$T$GT$$u20$as$u20$core..convert..From$LT$core..ptr..unique..Unique$LT$T$GT$$GT$$GT$4from17h8eb28b5b1ed9dc3bE;
	.scl	3;
	.type	32;
	.endef
	.section	.text,"xr",one_only,_ZN119_$LT$core..ptr..non_null..NonNull$LT$T$GT$$u20$as$u20$core..convert..From$LT$core..ptr..unique..Unique$LT$T$GT$$GT$$GT$4from17h8eb28b5b1ed9dc3bE
	.p2align	4, 0x90
_ZN119_$LT$core..ptr..non_null..NonNull$LT$T$GT$$u20$as$u20$core..convert..From$LT$core..ptr..unique..Unique$LT$T$GT$$GT$$GT$4from17h8eb28b5b1ed9dc3bE:
.Lfunc_begin11:
	.cv_func_id 18
	.cv_file	9 "/rustc/fe5b13d681f25ee6474be29d748c65adcd91f69e\\library\\core\\src\\ptr\\non_null.rs" "CF068F8BA267D8D99EBD6EA85010012D34E330A3" 2
	.cv_loc	18 9 764 0
.seh_proc _ZN119_$LT$core..ptr..non_null..NonNull$LT$T$GT$$u20$as$u20$core..convert..From$LT$core..ptr..unique..Unique$LT$T$GT$$GT$$GT$4from17h8eb28b5b1ed9dc3bE
	subq	$56, %rsp
	.seh_stackalloc 56
	.seh_endprologue
	movq	%rcx, 48(%rsp)
.Ltmp42:
	.cv_loc	18 9 767 0
	callq	_ZN4core3ptr6unique15Unique$LT$T$GT$6as_ptr17h7ddb1382cc88d927E
	movq	%rax, 40(%rsp)
	movq	40(%rsp), %rcx
	callq	_ZN4core3ptr8non_null16NonNull$LT$T$GT$13new_unchecked17h0c16f6d7caff1740E
	movq	%rax, 32(%rsp)
	.cv_loc	18 9 768 0
	movq	32(%rsp), %rax
	addq	$56, %rsp
	retq
.Ltmp43:
.Lfunc_end11:
	.seh_endproc

	.def	_ZN153_$LT$core..result..Result$LT$T$C$F$GT$$u20$as$u20$core..ops..try_trait..FromResidual$LT$core..result..Result$LT$core..convert..Infallible$C$E$GT$$GT$$GT$13from_residual17h269336a4712af1f4E;
	.scl	3;
	.type	32;
	.endef
	.section	.text,"xr",one_only,_ZN153_$LT$core..result..Result$LT$T$C$F$GT$$u20$as$u20$core..ops..try_trait..FromResidual$LT$core..result..Result$LT$core..convert..Infallible$C$E$GT$$GT$$GT$13from_residual17h269336a4712af1f4E
	.p2align	4, 0x90
_ZN153_$LT$core..result..Result$LT$T$C$F$GT$$u20$as$u20$core..ops..try_trait..FromResidual$LT$core..result..Result$LT$core..convert..Infallible$C$E$GT$$GT$$GT$13from_residual17h269336a4712af1f4E:
.Lfunc_begin12:
	.cv_func_id 19
	.cv_file	10 "/rustc/fe5b13d681f25ee6474be29d748c65adcd91f69e\\library\\core\\src\\result.rs" "6EDF3826BE3E152C6D0F49A031ACD88B3DF787C7" 2
	.cv_loc	19 10 2104 0
.seh_proc _ZN153_$LT$core..result..Result$LT$T$C$F$GT$$u20$as$u20$core..ops..try_trait..FromResidual$LT$core..result..Result$LT$core..convert..Infallible$C$E$GT$$GT$$GT$13from_residual17h269336a4712af1f4E
	subq	$72, %rsp
	.seh_stackalloc 72
	.seh_endprologue
.Ltmp44:
	.cv_loc	19 10 2106 0
	callq	_ZN50_$LT$T$u20$as$u20$core..convert..From$LT$T$GT$$GT$4from17h2b96bcd9f9febd4bE
	movq	$0, 48(%rsp)
.Ltmp45:
	.cv_loc	19 10 2108 0
	movq	40(%rsp), %rax
	movq	48(%rsp), %rdx
	addq	$72, %rsp
	retq
.Ltmp46:
.Lfunc_end12:
	.seh_endproc

	.def	_ZN166_$LT$$LT$alloc..collections..btree..map..IntoIter$LT$K$C$V$GT$$u20$as$u20$core..ops..drop..Drop$GT$..drop..DropGuard$LT$K$C$V$GT$$u20$as$u20$core..ops..drop..Drop$GT$4drop17hd166e4c26c15c0aaE;
	.scl	3;
	.type	32;
	.endef
	.section	.text,"xr",one_only,_ZN166_$LT$$LT$alloc..collections..btree..map..IntoIter$LT$K$C$V$GT$$u20$as$u20$core..ops..drop..Drop$GT$..drop..DropGuard$LT$K$C$V$GT$$u20$as$u20$core..ops..drop..Drop$GT$4drop17hd166e4c26c15c0aaE
	.p2align	4, 0x90
_ZN166_$LT$$LT$alloc..collections..btree..map..IntoIter$LT$K$C$V$GT$$u20$as$u20$core..ops..drop..Drop$GT$..drop..DropGuard$LT$K$C$V$GT$$u20$as$u20$core..ops..drop..Drop$GT$4drop17hd166e4c26c15c0aaE:
.Lfunc_begin13:
	.cv_func_id 20
	.cv_loc	20 7 1491 0
.seh_proc _ZN166_$LT$$LT$alloc..collections..btree..map..IntoIter$LT$K$C$V$GT$$u20$as$u20$core..ops..drop..Drop$GT$..drop..DropGuard$LT$K$C$V$GT$$u20$as$u20$core..ops..drop..Drop$GT$4drop17hd166e4c26c15c0aaE
	subq	$120, %rsp
	.seh_stackalloc 120
	.seh_endprologue
	movq	%rcx, 32(%rsp)
	movq	%rcx, 112(%rsp)
.LBB13_1:
	.cv_loc	20 7 1494 0
	movq	32(%rsp), %rax
.Ltmp47:
	movq	(%rax), %rdx
	leaq	40(%rsp), %rcx
	callq	_ZN5alloc11collections5btree3map21IntoIter$LT$K$C$V$GT$10dying_next17hb954eebf39a4ae7fE
	movl	$1, %eax
	xorl	%ecx, %ecx
	cmpq	$0, 48(%rsp)
	cmoveq	%rcx, %rax
	cmpq	$1, %rax
	jne	.LBB13_4
	movq	40(%rsp), %rax
	movq	%rax, 64(%rsp)
	movq	48(%rsp), %rax
	movq	%rax, 72(%rsp)
	movq	56(%rsp), %rax
	movq	%rax, 80(%rsp)
	.cv_loc	20 7 1496 0
	movq	64(%rsp), %rax
	movq	%rax, 88(%rsp)
	movq	72(%rsp), %rax
	movq	%rax, 96(%rsp)
	movq	80(%rsp), %rax
	movq	%rax, 104(%rsp)
	leaq	88(%rsp), %rcx
	callq	_ZN5alloc11collections5btree4node173Handle$LT$alloc..collections..btree..node..NodeRef$LT$alloc..collections..btree..node..marker..Dying$C$K$C$V$C$NodeType$GT$$C$alloc..collections..btree..node..marker..KV$GT$12drop_key_val17h1ea27f6e79cef001E
	jmp	.LBB13_5
.LBB13_4:
	.cv_loc	20 7 1498 0
	addq	$120, %rsp
	retq
.LBB13_5:
	.cv_loc	20 7 1494 0
	jmp	.LBB13_1
.Ltmp48:
.Lfunc_end13:
	.seh_endproc

	.def	_ZN3std10sys_common4wtf84Wtf820from_bytes_unchecked17h11ef81ed79006ae4E;
	.scl	3;
	.type	32;
	.endef
	.section	.text,"xr",one_only,_ZN3std10sys_common4wtf84Wtf820from_bytes_unchecked17h11ef81ed79006ae4E
	.p2align	4, 0x90
_ZN3std10sys_common4wtf84Wtf820from_bytes_unchecked17h11ef81ed79006ae4E:
.Lfunc_begin14:
	.cv_func_id 21
	.cv_file	11 "/rustc/fe5b13d681f25ee6474be29d748c65adcd91f69e\\library\\std\\src\\sys_common\\wtf8.rs" "4DE16D377865B71EACDFF9939C3080CE9BB413AC" 2
	.cv_loc	21 11 519 0
.seh_proc _ZN3std10sys_common4wtf84Wtf820from_bytes_unchecked17h11ef81ed79006ae4E
	subq	$48, %rsp
	.seh_stackalloc 48
	.seh_endprologue
	movq	%rcx, 16(%rsp)
	movq	%rdx, 24(%rsp)
.Ltmp49:
	.cv_loc	21 11 520 0
	movq	%rcx, 32(%rsp)
	movq	%rdx, 40(%rsp)
	movq	32(%rsp), %rax
	movq	%rax, (%rsp)
	movq	40(%rsp), %rax
	movq	%rax, 8(%rsp)
	.cv_loc	21 11 521 0
	movq	8(%rsp), %rdx
	movq	(%rsp), %rax
	addq	$48, %rsp
	retq
.Ltmp50:
.Lfunc_end14:
	.seh_endproc

	.def	_ZN3std10sys_common4wtf84Wtf88from_str17hba167712358983b4E;
	.scl	3;
	.type	32;
	.endef
	.section	.text,"xr",one_only,_ZN3std10sys_common4wtf84Wtf88from_str17hba167712358983b4E
	.p2align	4, 0x90
_ZN3std10sys_common4wtf84Wtf88from_str17hba167712358983b4E:
.Lfunc_begin15:
	.cv_func_id 22
	.cv_loc	22 11 510 0
.seh_proc _ZN3std10sys_common4wtf84Wtf88from_str17hba167712358983b4E
	subq	$120, %rsp
	.seh_stackalloc 120
	.seh_endprologue
	movq	%rcx, 72(%rsp)
	movq	%rdx, 80(%rsp)
	movq	%rcx, 88(%rsp)
	movq	%rdx, 96(%rsp)
.Ltmp51:
	.cv_file	12 "/rustc/fe5b13d681f25ee6474be29d748c65adcd91f69e\\library\\core\\src\\str\\mod.rs" "93E00B39D838B71EF3DB56BF8513742693E5A253" 2
	.cv_inline_site_id 23 within 22 inlined_at 11 511 0
	.cv_loc	23 12 326 0
	movq	%rcx, 104(%rsp)
	movq	%rdx, 112(%rsp)
	movq	104(%rsp), %rax
	movq	%rax, 56(%rsp)
	movq	112(%rsp), %rax
	movq	%rax, 64(%rsp)
.Ltmp52:
	.cv_loc	22 11 511 0
	movq	64(%rsp), %rdx
	movq	56(%rsp), %rcx
	callq	_ZN3std10sys_common4wtf84Wtf820from_bytes_unchecked17h11ef81ed79006ae4E
	movq	%rax, 40(%rsp)
	movq	%rdx, 48(%rsp)
	.cv_loc	22 11 512 0
	movq	48(%rsp), %rdx
	movq	40(%rsp), %rax
	addq	$120, %rsp
	retq
.Ltmp53:
.Lfunc_end15:
	.seh_endproc

	.def	_ZN3std10sys_common9backtrace28__rust_begin_short_backtrace17h63cf44edf542d1e7E;
	.scl	3;
	.type	32;
	.endef
	.section	.text,"xr",one_only,_ZN3std10sys_common9backtrace28__rust_begin_short_backtrace17h63cf44edf542d1e7E
	.p2align	4, 0x90
_ZN3std10sys_common9backtrace28__rust_begin_short_backtrace17h63cf44edf542d1e7E:
.Lfunc_begin16:
	.cv_func_id 24
	.cv_file	13 "/rustc/fe5b13d681f25ee6474be29d748c65adcd91f69e\\library\\std\\src\\sys_common\\backtrace.rs" "5DE58ECF45BAAC617C0B4CD333DBDAC8E9DADFC0" 2
	.cv_loc	24 13 118 0
.seh_proc _ZN3std10sys_common9backtrace28__rust_begin_short_backtrace17h63cf44edf542d1e7E
	.seh_handler __CxxFrameHandler3, @unwind, @except
	pushq	%rbp
	.seh_pushreg %rbp
	subq	$48, %rsp
	.seh_stackalloc 48
	leaq	48(%rsp), %rbp
	.seh_setframe %rbp, 48
	.seh_endprologue
	movq	$-2, -8(%rbp)
	movq	%rcx, -16(%rbp)
.Ltmp56:
	.cv_loc	24 13 122 0
	callq	_ZN4core3ops8function6FnOnce9call_once17hb400d753960b571dE
	.cv_loc	24 13 125 0
.Ltmp54:
.Ltmp57:
	callq	_ZN4core4hint9black_box17h2d6c2109570d7eefE
.Ltmp55:
	jmp	.LBB16_2
.Ltmp58:
.LBB16_2:
	.cv_loc	24 13 128 0
	addq	$48, %rsp
	popq	%rbp
	retq
	.seh_handlerdata
	.long	($cppxdata$_ZN3std10sys_common9backtrace28__rust_begin_short_backtrace17h63cf44edf542d1e7E)@IMGREL
	.section	.text,"xr",one_only,_ZN3std10sys_common9backtrace28__rust_begin_short_backtrace17h63cf44edf542d1e7E
	.seh_endproc
	.def	"?dtor$1@?0?_ZN3std10sys_common9backtrace28__rust_begin_short_backtrace17h63cf44edf542d1e7E@4HA";
	.scl	3;
	.type	32;
	.endef
	.p2align	4, 0x90
"?dtor$1@?0?_ZN3std10sys_common9backtrace28__rust_begin_short_backtrace17h63cf44edf542d1e7E@4HA":
.seh_proc "?dtor$1@?0?_ZN3std10sys_common9backtrace28__rust_begin_short_backtrace17h63cf44edf542d1e7E@4HA"
.LBB16_1:
	movq	%rdx, 16(%rsp)
	pushq	%rbp
	.seh_pushreg %rbp
	subq	$32, %rsp
	.seh_stackalloc 32
	leaq	48(%rdx), %rbp
	.seh_endprologue
	.cv_loc	24 13 118 0
	addq	$32, %rsp
	popq	%rbp
	retq
.Ltmp59:
.Lfunc_end16:
	.seh_handlerdata
	.section	.text,"xr",one_only,_ZN3std10sys_common9backtrace28__rust_begin_short_backtrace17h63cf44edf542d1e7E
	.seh_endproc
	.section	.xdata,"dr",associative,_ZN3std10sys_common9backtrace28__rust_begin_short_backtrace17h63cf44edf542d1e7E
	.p2align	2
$cppxdata$_ZN3std10sys_common9backtrace28__rust_begin_short_backtrace17h63cf44edf542d1e7E:
	.long	429065506
	.long	1
	.long	($stateUnwindMap$_ZN3std10sys_common9backtrace28__rust_begin_short_backtrace17h63cf44edf542d1e7E)@IMGREL
	.long	0
	.long	0
	.long	3
	.long	($ip2state$_ZN3std10sys_common9backtrace28__rust_begin_short_backtrace17h63cf44edf542d1e7E)@IMGREL
	.long	40
	.long	0
	.long	1
$stateUnwindMap$_ZN3std10sys_common9backtrace28__rust_begin_short_backtrace17h63cf44edf542d1e7E:
	.long	-1
	.long	"?dtor$1@?0?_ZN3std10sys_common9backtrace28__rust_begin_short_backtrace17h63cf44edf542d1e7E@4HA"@IMGREL
$ip2state$_ZN3std10sys_common9backtrace28__rust_begin_short_backtrace17h63cf44edf542d1e7E:
	.long	.Lfunc_begin16@IMGREL
	.long	-1
	.long	.Ltmp54@IMGREL+1
	.long	0
	.long	.Ltmp55@IMGREL+1
	.long	-1
	.section	.text,"xr",one_only,_ZN3std10sys_common9backtrace28__rust_begin_short_backtrace17h63cf44edf542d1e7E

	.def	_ZN3std2io5error14repr_bitpacked11decode_repr17h9b86aa10ef7aac48E;
	.scl	3;
	.type	32;
	.endef
	.section	.text,"xr",one_only,_ZN3std2io5error14repr_bitpacked11decode_repr17h9b86aa10ef7aac48E
	.p2align	4, 0x90
_ZN3std2io5error14repr_bitpacked11decode_repr17h9b86aa10ef7aac48E:
.Lfunc_begin17:
	.cv_func_id 25
	.cv_file	14 "/rustc/fe5b13d681f25ee6474be29d748c65adcd91f69e\\library\\std\\src\\io\\error\\repr_bitpacked.rs" "9BF46624D62C4517326667DE48CA0BF4265FC899" 2
	.cv_loc	25 14 237 0
.seh_proc _ZN3std2io5error14repr_bitpacked11decode_repr17h9b86aa10ef7aac48E
	.seh_handler __CxxFrameHandler3, @unwind, @except
	pushq	%rbp
	.seh_pushreg %rbp
	subq	$224, %rsp
	.seh_stackalloc 224
	leaq	128(%rsp), %rbp
	.seh_setframe %rbp, 128
	.seh_endprologue
	movq	$-2, 88(%rbp)
	movq	%rdx, -24(%rbp)
	movq	%rcx, %rax
	movq	-24(%rbp), %rcx
	movq	%rax, -16(%rbp)
	movq	%rax, -8(%rbp)
	movq	%rcx, 40(%rbp)
.Ltmp80:
	.cv_loc	25 14 241 0
	movb	$0, 39(%rbp)
	movb	$1, 39(%rbp)
.Ltmp60:
	callq	_ZN4core3ptr8non_null16NonNull$LT$T$GT$6as_ptr17h40bb7a701f7cabe5E
.Ltmp61:
	movq	%rax, (%rbp)
	jmp	.LBB17_2
.LBB17_2:
.Ltmp62:
	movq	(%rbp), %rcx
	callq	_ZN4core3ptr7mut_ptr31_$LT$impl$u20$$BP$mut$u20$T$GT$4addr17h29f18106c4e6a41aE
.Ltmp63:
	movq	%rax, -32(%rbp)
	jmp	.LBB17_3
.LBB17_3:
	movq	-32(%rbp), %rax
	movq	%rax, 8(%rbp)
.Ltmp81:
	.cv_loc	25 14 242 0
	movq	8(%rbp), %rax
	andl	$3, %eax
	movq	%rax, -40(%rbp)
	subq	$3, %rax
	ja	.LBB17_4
	movq	-40(%rbp), %rax
	leaq	.LJTI17_0(%rip), %rcx
	movslq	(%rcx,%rax,4), %rax
	addq	%rcx, %rax
	jmpq	*%rax
.LBB17_4:
	.cv_loc	25 14 271 0
.Ltmp78:
	leaq	__unnamed_1(%rip), %rcx
	leaq	__unnamed_2(%rip), %r8
	movl	$40, %edx
	callq	_ZN4core9panicking5panic17hec2b05800ae70116E
.Ltmp79:
	jmp	.LBB17_9
.LBB17_5:
	.cv_loc	25 14 244 0
	movq	-16(%rbp), %rax
	movq	8(%rbp), %rcx
	sarq	$32, %rcx
	movl	%ecx, 68(%rbp)
.Ltmp82:
	.cv_loc	25 14 245 0
	movl	%ecx, 4(%rax)
	movb	$0, (%rax)
.Ltmp83:
	.cv_loc	25 14 246 0
	jmp	.LBB17_13
.LBB17_6:
	.cv_loc	25 14 248 0
	movl	12(%rbp), %ecx
	movl	%ecx, 60(%rbp)
	.cv_loc	25 14 249 0
.Ltmp74:
.Ltmp84:
	callq	_ZN3std2io5error14repr_bitpacked14kind_from_prim17h509a7ec260e5d7c2E
.Ltmp75:
	movb	%al, -41(%rbp)
	jmp	.LBB17_16
.Ltmp85:
.LBB17_7:
	.cv_loc	25 14 261 0
.Ltmp70:
	movq	-24(%rbp), %rcx
	callq	_ZN4core3ptr8non_null16NonNull$LT$T$GT$4cast17h78ef08790770aabaE
.Ltmp71:
	movq	%rax, -56(%rbp)
	jmp	.LBB17_14
.LBB17_8:
	.cv_loc	25 14 266 0
.Ltmp64:
	movq	-24(%rbp), %rcx
	callq	_ZN4core3ptr8non_null16NonNull$LT$T$GT$6as_ptr17h40bb7a701f7cabe5E
.Ltmp65:
	movq	%rax, -64(%rbp)
	jmp	.LBB17_10
.LBB17_9:
	ud2
.LBB17_10:
	movq	-64(%rbp), %rcx
	movq	%rcx, 72(%rbp)
.Ltmp66:
	movl	$1, %edx
	callq	_ZN4core3ptr7mut_ptr31_$LT$impl$u20$$BP$mut$u20$T$GT$12wrapping_sub17h9274e4d88b39de86E
.Ltmp67:
	movq	%rax, -72(%rbp)
	jmp	.LBB17_11
.LBB17_11:
	movq	-72(%rbp), %rax
	movq	%rax, 80(%rbp)
	movq	%rax, 48(%rbp)
.Ltmp86:
	.cv_loc	25 14 267 0
	movb	$0, 39(%rbp)
	movq	%rax, 24(%rbp)
	movq	24(%rbp), %rcx
.Ltmp68:
	callq	_ZN78_$LT$std..io..error..repr_bitpacked..Repr$u20$as$u20$core..ops..drop..Drop$GT$4drop28_$u7b$$u7b$closure$u7d$$u7d$17h94c40537497f8ee1E
.Ltmp69:
	movq	%rax, -80(%rbp)
	jmp	.LBB17_12
.LBB17_12:
	movq	-16(%rbp), %rax
	movq	-80(%rbp), %rcx
	movq	%rcx, 8(%rax)
	movb	$3, (%rax)
.Ltmp87:
.LBB17_13:
	.cv_loc	25 14 274 0
	testb	$1, 39(%rbp)
	jne	.LBB17_21
	jmp	.LBB17_20
.LBB17_14:
	.cv_loc	25 14 261 0
.Ltmp72:
	movq	-56(%rbp), %rcx
.Ltmp88:
	callq	_ZN4core3ptr8non_null16NonNull$LT$T$GT$6as_ptr17h3cd1877225e0d5d7E
.Ltmp73:
	movq	%rax, -88(%rbp)
	jmp	.LBB17_15
.LBB17_15:
	movq	-16(%rbp), %rax
	movq	-88(%rbp), %rcx
	movq	%rcx, 8(%rax)
	movb	$2, (%rax)
	jmp	.LBB17_13
.LBB17_16:
	.cv_loc	25 14 249 0
	movb	-41(%rbp), %cl
	leaq	8(%rbp), %rax
.Ltmp89:
	movq	%rax, 16(%rbp)
	movq	16(%rbp), %rdx
.Ltmp76:
	callq	_ZN4core6option15Option$LT$T$GT$14unwrap_or_else17hadf6cb56bed5018aE
.Ltmp77:
	movb	%al, -89(%rbp)
	jmp	.LBB17_17
.LBB17_17:
	movq	-16(%rbp), %rax
	movb	-89(%rbp), %cl
	movb	%cl, 67(%rbp)
.Ltmp90:
	.cv_loc	25 14 259 0
	movb	%cl, 1(%rax)
	movb	$1, (%rax)
.Ltmp91:
	.cv_loc	25 14 260 0
	jmp	.LBB17_13
.Ltmp92:
.LBB17_20:
	.cv_loc	25 14 274 0
	movq	-8(%rbp), %rax
	addq	$224, %rsp
	popq	%rbp
	retq
.LBB17_21:
	jmp	.LBB17_20
	.seh_handlerdata
	.long	($cppxdata$_ZN3std2io5error14repr_bitpacked11decode_repr17h9b86aa10ef7aac48E)@IMGREL
	.section	.text,"xr",one_only,_ZN3std2io5error14repr_bitpacked11decode_repr17h9b86aa10ef7aac48E
	.seh_endproc
	.def	"?dtor$1@?0?_ZN3std2io5error14repr_bitpacked11decode_repr17h9b86aa10ef7aac48E@4HA";
	.scl	3;
	.type	32;
	.endef
	.p2align	4, 0x90
"?dtor$1@?0?_ZN3std2io5error14repr_bitpacked11decode_repr17h9b86aa10ef7aac48E@4HA":
.seh_proc "?dtor$1@?0?_ZN3std2io5error14repr_bitpacked11decode_repr17h9b86aa10ef7aac48E@4HA"
.LBB17_1:
	movq	%rdx, 16(%rsp)
	pushq	%rbp
	.seh_pushreg %rbp
	subq	$32, %rsp
	.seh_stackalloc 32
	leaq	128(%rdx), %rbp
	.seh_endprologue
	testb	$1, 39(%rbp)
	jne	.LBB17_19
	jmp	.LBB17_18
.LBB17_18:
	.cv_loc	25 14 237 0
	addq	$32, %rsp
	popq	%rbp
	retq
.LBB17_19:
	.cv_loc	25 14 274 0
	jmp	.LBB17_18
.Ltmp93:
.Lfunc_end17:
	.p2align	2, 0x90
.LJTI17_0:
	.long	.LBB17_7-.LJTI17_0
	.long	.LBB17_8-.LJTI17_0
	.long	.LBB17_5-.LJTI17_0
	.long	.LBB17_6-.LJTI17_0
	.seh_handlerdata
	.section	.text,"xr",one_only,_ZN3std2io5error14repr_bitpacked11decode_repr17h9b86aa10ef7aac48E
	.seh_endproc
	.section	.xdata,"dr",associative,_ZN3std2io5error14repr_bitpacked11decode_repr17h9b86aa10ef7aac48E
	.p2align	2
$cppxdata$_ZN3std2io5error14repr_bitpacked11decode_repr17h9b86aa10ef7aac48E:
	.long	429065506
	.long	1
	.long	($stateUnwindMap$_ZN3std2io5error14repr_bitpacked11decode_repr17h9b86aa10ef7aac48E)@IMGREL
	.long	0
	.long	0
	.long	3
	.long	($ip2state$_ZN3std2io5error14repr_bitpacked11decode_repr17h9b86aa10ef7aac48E)@IMGREL
	.long	216
	.long	0
	.long	1
$stateUnwindMap$_ZN3std2io5error14repr_bitpacked11decode_repr17h9b86aa10ef7aac48E:
	.long	-1
	.long	"?dtor$1@?0?_ZN3std2io5error14repr_bitpacked11decode_repr17h9b86aa10ef7aac48E@4HA"@IMGREL
$ip2state$_ZN3std2io5error14repr_bitpacked11decode_repr17h9b86aa10ef7aac48E:
	.long	.Lfunc_begin17@IMGREL
	.long	-1
	.long	.Ltmp60@IMGREL+1
	.long	0
	.long	.Ltmp77@IMGREL+1
	.long	-1
	.section	.text,"xr",one_only,_ZN3std2io5error14repr_bitpacked11decode_repr17h9b86aa10ef7aac48E

	.def	_ZN3std2io5error14repr_bitpacked11decode_repr28_$u7b$$u7b$closure$u7d$$u7d$17h406e8f0868f0ddbdE;
	.scl	3;
	.type	32;
	.endef
	.section	.text,"xr",one_only,_ZN3std2io5error14repr_bitpacked11decode_repr28_$u7b$$u7b$closure$u7d$$u7d$17h406e8f0868f0ddbdE
	.p2align	4, 0x90
_ZN3std2io5error14repr_bitpacked11decode_repr28_$u7b$$u7b$closure$u7d$$u7d$17h406e8f0868f0ddbdE:
.Lfunc_begin18:
	.cv_func_id 26
	.cv_loc	26 14 249 0
.seh_proc _ZN3std2io5error14repr_bitpacked11decode_repr28_$u7b$$u7b$closure$u7d$$u7d$17h406e8f0868f0ddbdE
	subq	$40, %rsp
	.seh_stackalloc 40
	.seh_endprologue
	movq	%rcx, 32(%rsp)
.Ltmp94:
	.cv_loc	26 14 257 0
	callq	_ZN4core4hint21unreachable_unchecked17hbad392c661716fadE
	ud2
.Ltmp95:
.Lfunc_end18:
	.seh_endproc

	.def	_ZN3std2io5error14repr_bitpacked14kind_from_prim17h509a7ec260e5d7c2E;
	.scl	3;
	.type	32;
	.endef
	.section	.text,"xr",one_only,_ZN3std2io5error14repr_bitpacked14kind_from_prim17h509a7ec260e5d7c2E
	.p2align	4, 0x90
_ZN3std2io5error14repr_bitpacked14kind_from_prim17h509a7ec260e5d7c2E:
.Lfunc_begin19:
	.cv_func_id 27
	.cv_loc	27 14 280 0
.seh_proc _ZN3std2io5error14repr_bitpacked14kind_from_prim17h509a7ec260e5d7c2E
	subq	$664, %rsp
	.seh_stackalloc 664
	.seh_endprologue
	movl	%ecx, (%rsp)
.Ltmp96:
	.cv_loc	27 14 293 0
	movq	%rsp, %rax
	movq	%rax, 8(%rsp)
	cmpl	$0, (%rsp)
	je	.LBB19_2
	movq	%rsp, %rax
	movq	%rax, 24(%rsp)
	cmpl	$1, (%rsp)
	je	.LBB19_5
	jmp	.LBB19_4
.LBB19_2:
	movl	(%rsp), %eax
	movl	%eax, 20(%rsp)
.Ltmp97:
	.cv_loc	27 14 293 0
	movb	$0, 7(%rsp)
.Ltmp98:
.LBB19_3:
	.cv_loc	27 14 336 0
	movb	7(%rsp), %al
	addq	$664, %rsp
	retq
.LBB19_4:
	.cv_loc	27 14 293 0
	movq	%rsp, %rax
	movq	%rax, 40(%rsp)
	cmpl	$2, (%rsp)
	je	.LBB19_7
	jmp	.LBB19_6
.LBB19_5:
	movl	(%rsp), %eax
	movl	%eax, 36(%rsp)
.Ltmp99:
	.cv_loc	27 14 293 0
	movb	$1, 7(%rsp)
.Ltmp100:
	.cv_loc	27 14 293 0
	jmp	.LBB19_3
.LBB19_6:
	movq	%rsp, %rax
	movq	%rax, 56(%rsp)
	cmpl	$3, (%rsp)
	je	.LBB19_9
	jmp	.LBB19_8
.LBB19_7:
	movl	(%rsp), %eax
	movl	%eax, 52(%rsp)
.Ltmp101:
	.cv_loc	27 14 293 0
	movb	$2, 7(%rsp)
.Ltmp102:
	.cv_loc	27 14 293 0
	jmp	.LBB19_3
.LBB19_8:
	movq	%rsp, %rax
	movq	%rax, 72(%rsp)
	cmpl	$4, (%rsp)
	je	.LBB19_11
	jmp	.LBB19_10
.LBB19_9:
	movl	(%rsp), %eax
	movl	%eax, 68(%rsp)
.Ltmp103:
	.cv_loc	27 14 293 0
	movb	$3, 7(%rsp)
.Ltmp104:
	.cv_loc	27 14 293 0
	jmp	.LBB19_3
.LBB19_10:
	movq	%rsp, %rax
	movq	%rax, 88(%rsp)
	cmpl	$5, (%rsp)
	je	.LBB19_13
	jmp	.LBB19_12
.LBB19_11:
	movl	(%rsp), %eax
	movl	%eax, 84(%rsp)
.Ltmp105:
	.cv_loc	27 14 293 0
	movb	$4, 7(%rsp)
.Ltmp106:
	.cv_loc	27 14 293 0
	jmp	.LBB19_3
.LBB19_12:
	movq	%rsp, %rax
	movq	%rax, 104(%rsp)
	cmpl	$6, (%rsp)
	je	.LBB19_15
	jmp	.LBB19_14
.LBB19_13:
	movl	(%rsp), %eax
	movl	%eax, 100(%rsp)
.Ltmp107:
	.cv_loc	27 14 293 0
	movb	$5, 7(%rsp)
.Ltmp108:
	.cv_loc	27 14 293 0
	jmp	.LBB19_3
.LBB19_14:
	movq	%rsp, %rax
	movq	%rax, 120(%rsp)
	cmpl	$7, (%rsp)
	je	.LBB19_17
	jmp	.LBB19_16
.LBB19_15:
	movl	(%rsp), %eax
	movl	%eax, 116(%rsp)
.Ltmp109:
	.cv_loc	27 14 293 0
	movb	$6, 7(%rsp)
.Ltmp110:
	.cv_loc	27 14 293 0
	jmp	.LBB19_3
.LBB19_16:
	movq	%rsp, %rax
	movq	%rax, 136(%rsp)
	cmpl	$8, (%rsp)
	je	.LBB19_19
	jmp	.LBB19_18
.LBB19_17:
	movl	(%rsp), %eax
	movl	%eax, 132(%rsp)
.Ltmp111:
	.cv_loc	27 14 293 0
	movb	$7, 7(%rsp)
.Ltmp112:
	.cv_loc	27 14 293 0
	jmp	.LBB19_3
.LBB19_18:
	movq	%rsp, %rax
	movq	%rax, 152(%rsp)
	cmpl	$9, (%rsp)
	je	.LBB19_21
	jmp	.LBB19_20
.LBB19_19:
	movl	(%rsp), %eax
	movl	%eax, 148(%rsp)
.Ltmp113:
	.cv_loc	27 14 293 0
	movb	$8, 7(%rsp)
.Ltmp114:
	.cv_loc	27 14 293 0
	jmp	.LBB19_3
.LBB19_20:
	movq	%rsp, %rax
	movq	%rax, 168(%rsp)
	cmpl	$10, (%rsp)
	je	.LBB19_23
	jmp	.LBB19_22
.LBB19_21:
	movl	(%rsp), %eax
	movl	%eax, 164(%rsp)
.Ltmp115:
	.cv_loc	27 14 293 0
	movb	$9, 7(%rsp)
.Ltmp116:
	.cv_loc	27 14 293 0
	jmp	.LBB19_3
.LBB19_22:
	movq	%rsp, %rax
	movq	%rax, 184(%rsp)
	cmpl	$11, (%rsp)
	je	.LBB19_25
	jmp	.LBB19_24
.LBB19_23:
	movl	(%rsp), %eax
	movl	%eax, 180(%rsp)
.Ltmp117:
	.cv_loc	27 14 293 0
	movb	$10, 7(%rsp)
.Ltmp118:
	.cv_loc	27 14 293 0
	jmp	.LBB19_3
.LBB19_24:
	movq	%rsp, %rax
	movq	%rax, 200(%rsp)
	cmpl	$12, (%rsp)
	je	.LBB19_27
	jmp	.LBB19_26
.LBB19_25:
	movl	(%rsp), %eax
	movl	%eax, 196(%rsp)
.Ltmp119:
	.cv_loc	27 14 293 0
	movb	$11, 7(%rsp)
.Ltmp120:
	.cv_loc	27 14 293 0
	jmp	.LBB19_3
.LBB19_26:
	movq	%rsp, %rax
	movq	%rax, 216(%rsp)
	cmpl	$13, (%rsp)
	je	.LBB19_29
	jmp	.LBB19_28
.LBB19_27:
	movl	(%rsp), %eax
	movl	%eax, 212(%rsp)
.Ltmp121:
	.cv_loc	27 14 293 0
	movb	$12, 7(%rsp)
.Ltmp122:
	.cv_loc	27 14 293 0
	jmp	.LBB19_3
.LBB19_28:
	movq	%rsp, %rax
	movq	%rax, 232(%rsp)
	cmpl	$14, (%rsp)
	je	.LBB19_31
	jmp	.LBB19_30
.LBB19_29:
	movl	(%rsp), %eax
	movl	%eax, 228(%rsp)
.Ltmp123:
	.cv_loc	27 14 293 0
	movb	$13, 7(%rsp)
.Ltmp124:
	.cv_loc	27 14 293 0
	jmp	.LBB19_3
.LBB19_30:
	movq	%rsp, %rax
	movq	%rax, 248(%rsp)
	cmpl	$15, (%rsp)
	je	.LBB19_33
	jmp	.LBB19_32
.LBB19_31:
	movl	(%rsp), %eax
	movl	%eax, 244(%rsp)
.Ltmp125:
	.cv_loc	27 14 293 0
	movb	$14, 7(%rsp)
.Ltmp126:
	.cv_loc	27 14 293 0
	jmp	.LBB19_3
.LBB19_32:
	movq	%rsp, %rax
	movq	%rax, 264(%rsp)
	cmpl	$16, (%rsp)
	je	.LBB19_35
	jmp	.LBB19_34
.LBB19_33:
	movl	(%rsp), %eax
	movl	%eax, 260(%rsp)
.Ltmp127:
	.cv_loc	27 14 293 0
	movb	$15, 7(%rsp)
.Ltmp128:
	.cv_loc	27 14 293 0
	jmp	.LBB19_3
.LBB19_34:
	movq	%rsp, %rax
	movq	%rax, 280(%rsp)
	cmpl	$17, (%rsp)
	je	.LBB19_37
	jmp	.LBB19_36
.LBB19_35:
	movl	(%rsp), %eax
	movl	%eax, 276(%rsp)
.Ltmp129:
	.cv_loc	27 14 293 0
	movb	$16, 7(%rsp)
.Ltmp130:
	.cv_loc	27 14 293 0
	jmp	.LBB19_3
.LBB19_36:
	movq	%rsp, %rax
	movq	%rax, 296(%rsp)
	cmpl	$18, (%rsp)
	je	.LBB19_39
	jmp	.LBB19_38
.LBB19_37:
	movl	(%rsp), %eax
	movl	%eax, 292(%rsp)
.Ltmp131:
	.cv_loc	27 14 293 0
	movb	$17, 7(%rsp)
.Ltmp132:
	.cv_loc	27 14 293 0
	jmp	.LBB19_3
.LBB19_38:
	movq	%rsp, %rax
	movq	%rax, 312(%rsp)
	cmpl	$19, (%rsp)
	je	.LBB19_41
	jmp	.LBB19_40
.LBB19_39:
	movl	(%rsp), %eax
	movl	%eax, 308(%rsp)
.Ltmp133:
	.cv_loc	27 14 293 0
	movb	$18, 7(%rsp)
.Ltmp134:
	.cv_loc	27 14 293 0
	jmp	.LBB19_3
.LBB19_40:
	movq	%rsp, %rax
	movq	%rax, 328(%rsp)
	cmpl	$20, (%rsp)
	je	.LBB19_43
	jmp	.LBB19_42
.LBB19_41:
	movl	(%rsp), %eax
	movl	%eax, 324(%rsp)
.Ltmp135:
	.cv_loc	27 14 293 0
	movb	$19, 7(%rsp)
.Ltmp136:
	.cv_loc	27 14 293 0
	jmp	.LBB19_3
.LBB19_42:
	movq	%rsp, %rax
	movq	%rax, 344(%rsp)
	cmpl	$21, (%rsp)
	je	.LBB19_45
	jmp	.LBB19_44
.LBB19_43:
	movl	(%rsp), %eax
	movl	%eax, 340(%rsp)
.Ltmp137:
	.cv_loc	27 14 293 0
	movb	$20, 7(%rsp)
.Ltmp138:
	.cv_loc	27 14 293 0
	jmp	.LBB19_3
.LBB19_44:
	movq	%rsp, %rax
	movq	%rax, 360(%rsp)
	cmpl	$22, (%rsp)
	je	.LBB19_47
	jmp	.LBB19_46
.LBB19_45:
	movl	(%rsp), %eax
	movl	%eax, 356(%rsp)
.Ltmp139:
	.cv_loc	27 14 293 0
	movb	$21, 7(%rsp)
.Ltmp140:
	.cv_loc	27 14 293 0
	jmp	.LBB19_3
.LBB19_46:
	movq	%rsp, %rax
	movq	%rax, 376(%rsp)
	cmpl	$23, (%rsp)
	je	.LBB19_49
	jmp	.LBB19_48
.LBB19_47:
	movl	(%rsp), %eax
	movl	%eax, 372(%rsp)
.Ltmp141:
	.cv_loc	27 14 293 0
	movb	$22, 7(%rsp)
.Ltmp142:
	.cv_loc	27 14 293 0
	jmp	.LBB19_3
.LBB19_48:
	movq	%rsp, %rax
	movq	%rax, 392(%rsp)
	cmpl	$24, (%rsp)
	je	.LBB19_51
	jmp	.LBB19_50
.LBB19_49:
	movl	(%rsp), %eax
	movl	%eax, 388(%rsp)
.Ltmp143:
	.cv_loc	27 14 293 0
	movb	$23, 7(%rsp)
.Ltmp144:
	.cv_loc	27 14 293 0
	jmp	.LBB19_3
.LBB19_50:
	movq	%rsp, %rax
	movq	%rax, 408(%rsp)
	cmpl	$25, (%rsp)
	je	.LBB19_53
	jmp	.LBB19_52
.LBB19_51:
	movl	(%rsp), %eax
	movl	%eax, 404(%rsp)
.Ltmp145:
	.cv_loc	27 14 293 0
	movb	$24, 7(%rsp)
.Ltmp146:
	.cv_loc	27 14 293 0
	jmp	.LBB19_3
.LBB19_52:
	movq	%rsp, %rax
	movq	%rax, 424(%rsp)
	cmpl	$26, (%rsp)
	je	.LBB19_55
	jmp	.LBB19_54
.LBB19_53:
	movl	(%rsp), %eax
	movl	%eax, 420(%rsp)
.Ltmp147:
	.cv_loc	27 14 293 0
	movb	$25, 7(%rsp)
.Ltmp148:
	.cv_loc	27 14 293 0
	jmp	.LBB19_3
.LBB19_54:
	movq	%rsp, %rax
	movq	%rax, 440(%rsp)
	cmpl	$27, (%rsp)
	je	.LBB19_57
	jmp	.LBB19_56
.LBB19_55:
	movl	(%rsp), %eax
	movl	%eax, 436(%rsp)
.Ltmp149:
	.cv_loc	27 14 293 0
	movb	$26, 7(%rsp)
.Ltmp150:
	.cv_loc	27 14 293 0
	jmp	.LBB19_3
.LBB19_56:
	movq	%rsp, %rax
	movq	%rax, 456(%rsp)
	cmpl	$28, (%rsp)
	je	.LBB19_59
	jmp	.LBB19_58
.LBB19_57:
	movl	(%rsp), %eax
	movl	%eax, 452(%rsp)
.Ltmp151:
	.cv_loc	27 14 293 0
	movb	$27, 7(%rsp)
.Ltmp152:
	.cv_loc	27 14 293 0
	jmp	.LBB19_3
.LBB19_58:
	movq	%rsp, %rax
	movq	%rax, 472(%rsp)
	cmpl	$29, (%rsp)
	je	.LBB19_61
	jmp	.LBB19_60
.LBB19_59:
	movl	(%rsp), %eax
	movl	%eax, 468(%rsp)
.Ltmp153:
	.cv_loc	27 14 293 0
	movb	$28, 7(%rsp)
.Ltmp154:
	.cv_loc	27 14 293 0
	jmp	.LBB19_3
.LBB19_60:
	movq	%rsp, %rax
	movq	%rax, 488(%rsp)
	cmpl	$30, (%rsp)
	je	.LBB19_63
	jmp	.LBB19_62
.LBB19_61:
	movl	(%rsp), %eax
	movl	%eax, 484(%rsp)
.Ltmp155:
	.cv_loc	27 14 293 0
	movb	$29, 7(%rsp)
.Ltmp156:
	.cv_loc	27 14 293 0
	jmp	.LBB19_3
.LBB19_62:
	movq	%rsp, %rax
	movq	%rax, 504(%rsp)
	cmpl	$31, (%rsp)
	je	.LBB19_65
	jmp	.LBB19_64
.LBB19_63:
	movl	(%rsp), %eax
	movl	%eax, 500(%rsp)
.Ltmp157:
	.cv_loc	27 14 293 0
	movb	$30, 7(%rsp)
.Ltmp158:
	.cv_loc	27 14 293 0
	jmp	.LBB19_3
.LBB19_64:
	movq	%rsp, %rax
	movq	%rax, 520(%rsp)
	cmpl	$32, (%rsp)
	je	.LBB19_67
	jmp	.LBB19_66
.LBB19_65:
	movl	(%rsp), %eax
	movl	%eax, 516(%rsp)
.Ltmp159:
	.cv_loc	27 14 293 0
	movb	$31, 7(%rsp)
.Ltmp160:
	.cv_loc	27 14 293 0
	jmp	.LBB19_3
.LBB19_66:
	movq	%rsp, %rax
	movq	%rax, 536(%rsp)
	cmpl	$33, (%rsp)
	je	.LBB19_69
	jmp	.LBB19_68
.LBB19_67:
	movl	(%rsp), %eax
	movl	%eax, 532(%rsp)
.Ltmp161:
	.cv_loc	27 14 293 0
	movb	$32, 7(%rsp)
.Ltmp162:
	.cv_loc	27 14 293 0
	jmp	.LBB19_3
.LBB19_68:
	movq	%rsp, %rax
	movq	%rax, 552(%rsp)
	cmpl	$34, (%rsp)
	je	.LBB19_71
	jmp	.LBB19_70
.LBB19_69:
	movl	(%rsp), %eax
	movl	%eax, 548(%rsp)
.Ltmp163:
	.cv_loc	27 14 293 0
	movb	$33, 7(%rsp)
.Ltmp164:
	.cv_loc	27 14 293 0
	jmp	.LBB19_3
.LBB19_70:
	movq	%rsp, %rax
	movq	%rax, 568(%rsp)
	cmpl	$35, (%rsp)
	je	.LBB19_73
	jmp	.LBB19_72
.LBB19_71:
	movl	(%rsp), %eax
	movl	%eax, 564(%rsp)
.Ltmp165:
	.cv_loc	27 14 293 0
	movb	$34, 7(%rsp)
.Ltmp166:
	.cv_loc	27 14 293 0
	jmp	.LBB19_3
.LBB19_72:
	movq	%rsp, %rax
	movq	%rax, 584(%rsp)
	cmpl	$39, (%rsp)
	je	.LBB19_75
	jmp	.LBB19_74
.LBB19_73:
	movl	(%rsp), %eax
	movl	%eax, 580(%rsp)
.Ltmp167:
	.cv_loc	27 14 293 0
	movb	$35, 7(%rsp)
.Ltmp168:
	.cv_loc	27 14 293 0
	jmp	.LBB19_3
.LBB19_74:
	movq	%rsp, %rax
	movq	%rax, 600(%rsp)
	cmpl	$37, (%rsp)
	je	.LBB19_77
	jmp	.LBB19_76
.LBB19_75:
	movl	(%rsp), %eax
	movl	%eax, 596(%rsp)
.Ltmp169:
	.cv_loc	27 14 293 0
	movb	$39, 7(%rsp)
.Ltmp170:
	.cv_loc	27 14 293 0
	jmp	.LBB19_3
.LBB19_76:
	movq	%rsp, %rax
	movq	%rax, 616(%rsp)
	cmpl	$36, (%rsp)
	je	.LBB19_79
	jmp	.LBB19_78
.LBB19_77:
	movl	(%rsp), %eax
	movl	%eax, 612(%rsp)
.Ltmp171:
	.cv_loc	27 14 293 0
	movb	$37, 7(%rsp)
.Ltmp172:
	.cv_loc	27 14 293 0
	jmp	.LBB19_3
.LBB19_78:
	movq	%rsp, %rax
	movq	%rax, 632(%rsp)
	cmpl	$38, (%rsp)
	je	.LBB19_81
	jmp	.LBB19_80
.LBB19_79:
	movl	(%rsp), %eax
	movl	%eax, 628(%rsp)
.Ltmp173:
	.cv_loc	27 14 293 0
	movb	$36, 7(%rsp)
.Ltmp174:
	.cv_loc	27 14 293 0
	jmp	.LBB19_3
.LBB19_80:
	movq	%rsp, %rax
	movq	%rax, 648(%rsp)
	cmpl	$40, (%rsp)
	je	.LBB19_83
	jmp	.LBB19_82
.LBB19_81:
	movl	(%rsp), %eax
	movl	%eax, 644(%rsp)
.Ltmp175:
	.cv_loc	27 14 293 0
	movb	$38, 7(%rsp)
.Ltmp176:
	.cv_loc	27 14 293 0
	jmp	.LBB19_3
.LBB19_82:
	movb	$41, 7(%rsp)
	jmp	.LBB19_3
.LBB19_83:
	movl	(%rsp), %eax
	movl	%eax, 660(%rsp)
.Ltmp177:
	.cv_loc	27 14 293 0
	movb	$40, 7(%rsp)
.Ltmp178:
	.cv_loc	27 14 293 0
	jmp	.LBB19_3
.Ltmp179:
.Lfunc_end19:
	.seh_endproc

	.def	_ZN3std2rt10lang_start17hb299269692957488E;
	.scl	2;
	.type	32;
	.endef
	.section	.text,"xr",one_only,_ZN3std2rt10lang_start17hb299269692957488E
	.globl	_ZN3std2rt10lang_start17hb299269692957488E
	.p2align	4, 0x90
_ZN3std2rt10lang_start17hb299269692957488E:
.Lfunc_begin20:
	.cv_func_id 28
	.cv_file	15 "/rustc/fe5b13d681f25ee6474be29d748c65adcd91f69e\\library\\std\\src\\rt.rs" "FDA45B079F39E54B791AB9D76ADB74B19BD1112F" 2
	.cv_loc	28 15 139 0
.seh_proc _ZN3std2rt10lang_start17hb299269692957488E
	subq	$88, %rsp
	.seh_stackalloc 88
	.seh_endprologue
	movq	%r8, %r9
	movq	%rdx, %r8
	movq	%rcx, 56(%rsp)
	movq	%r8, 64(%rsp)
	movq	%r9, 72(%rsp)
.Ltmp180:
	.cv_loc	28 15 145 0
	movq	%rcx, 48(%rsp)
	leaq	48(%rsp), %rcx
	.cv_loc	28 15 144 0
	leaq	__unnamed_3(%rip), %rdx
	callq	_ZN3std2rt19lang_start_internal17hcd536627e149aa85E
	movq	%rax, 40(%rsp)
	movq	40(%rsp), %rax
	movq	%rax, 80(%rsp)
	.cv_loc	28 15 150 0
	addq	$88, %rsp
	retq
.Ltmp181:
.Lfunc_end20:
	.seh_endproc

	.def	_ZN3std2rt10lang_start28_$u7b$$u7b$closure$u7d$$u7d$17h798aef67dcac7e8cE;
	.scl	3;
	.type	32;
	.endef
	.section	.text,"xr",one_only,_ZN3std2rt10lang_start28_$u7b$$u7b$closure$u7d$$u7d$17h798aef67dcac7e8cE
	.p2align	4, 0x90
_ZN3std2rt10lang_start28_$u7b$$u7b$closure$u7d$$u7d$17h798aef67dcac7e8cE:
.Lfunc_begin21:
	.cv_func_id 29
	.cv_loc	29 15 145 0
.seh_proc _ZN3std2rt10lang_start28_$u7b$$u7b$closure$u7d$$u7d$17h798aef67dcac7e8cE
	subq	$56, %rsp
	.seh_stackalloc 56
	.seh_endprologue
	movq	%rcx, 48(%rsp)
.Ltmp182:
	movq	(%rcx), %rcx
	callq	_ZN3std10sys_common9backtrace28__rust_begin_short_backtrace17h63cf44edf542d1e7E
	callq	_ZN54_$LT$$LP$$RP$$u20$as$u20$std..process..Termination$GT$6report17ha204f61868e61bbfE
	movl	%eax, 44(%rsp)
	movl	44(%rsp), %ecx
	callq	_ZN3std7process8ExitCode6to_i3217h935e4c1201338409E
	movl	%eax, 40(%rsp)
	movl	40(%rsp), %eax
	addq	$56, %rsp
	retq
.Ltmp183:
.Lfunc_end21:
	.seh_endproc

	.def	_ZN3std3env6var_os17h68e835f1bec14d18E;
	.scl	3;
	.type	32;
	.endef
	.section	.text,"xr",one_only,_ZN3std3env6var_os17h68e835f1bec14d18E
	.p2align	4, 0x90
_ZN3std3env6var_os17h68e835f1bec14d18E:
.Lfunc_begin22:
	.cv_func_id 30
	.cv_file	16 "/rustc/fe5b13d681f25ee6474be29d748c65adcd91f69e\\library\\std\\src\\env.rs" "773842D3E658686CD7C66F069DD10A10939B7BB4" 2
	.cv_loc	30 16 265 0
.seh_proc _ZN3std3env6var_os17h68e835f1bec14d18E
	.seh_handler __CxxFrameHandler3, @unwind, @except
	pushq	%rbp
	.seh_pushreg %rbp
	subq	$96, %rsp
	.seh_stackalloc 96
	leaq	96(%rsp), %rbp
	.seh_setframe %rbp, 96
	.seh_endprologue
	movq	$-2, -8(%rbp)
	movq	%rcx, -56(%rbp)
	movq	%rcx, -48(%rbp)
	movq	%rdx, -24(%rbp)
	movq	%r8, -16(%rbp)
	.cv_loc	30 16 266 0
.Ltmp184:
	leaq	-24(%rbp), %rcx
.Ltmp188:
	callq	_ZN55_$LT$$RF$T$u20$as$u20$core..convert..AsRef$LT$U$GT$$GT$6as_ref17h284e180f7c6de1b6E
.Ltmp185:
	movq	%rdx, -40(%rbp)
	movq	%rax, -32(%rbp)
	jmp	.LBB22_2
.LBB22_2:
.Ltmp186:
	movq	-40(%rbp), %r8
	movq	-32(%rbp), %rdx
	movq	-56(%rbp), %rcx
	callq	_ZN3std3env7_var_os17hcc209fb147f7b8feE
.Ltmp187:
	jmp	.LBB22_3
.LBB22_3:
	.cv_loc	30 16 267 0
	movq	-48(%rbp), %rax
	addq	$96, %rsp
	popq	%rbp
	retq
	.seh_handlerdata
	.long	($cppxdata$_ZN3std3env6var_os17h68e835f1bec14d18E)@IMGREL
	.section	.text,"xr",one_only,_ZN3std3env6var_os17h68e835f1bec14d18E
	.seh_endproc
	.def	"?dtor$1@?0?_ZN3std3env6var_os17h68e835f1bec14d18E@4HA";
	.scl	3;
	.type	32;
	.endef
	.p2align	4, 0x90
"?dtor$1@?0?_ZN3std3env6var_os17h68e835f1bec14d18E@4HA":
.seh_proc "?dtor$1@?0?_ZN3std3env6var_os17h68e835f1bec14d18E@4HA"
.LBB22_1:
	movq	%rdx, 16(%rsp)
	pushq	%rbp
	.seh_pushreg %rbp
	subq	$32, %rsp
	.seh_stackalloc 32
	leaq	96(%rdx), %rbp
	.seh_endprologue
	.cv_loc	30 16 265 0
	addq	$32, %rsp
	popq	%rbp
	retq
.Ltmp189:
.Lfunc_end22:
	.seh_handlerdata
	.section	.text,"xr",one_only,_ZN3std3env6var_os17h68e835f1bec14d18E
	.seh_endproc
	.section	.xdata,"dr",associative,_ZN3std3env6var_os17h68e835f1bec14d18E
	.p2align	2
$cppxdata$_ZN3std3env6var_os17h68e835f1bec14d18E:
	.long	429065506
	.long	1
	.long	($stateUnwindMap$_ZN3std3env6var_os17h68e835f1bec14d18E)@IMGREL
	.long	0
	.long	0
	.long	3
	.long	($ip2state$_ZN3std3env6var_os17h68e835f1bec14d18E)@IMGREL
	.long	88
	.long	0
	.long	1
$stateUnwindMap$_ZN3std3env6var_os17h68e835f1bec14d18E:
	.long	-1
	.long	"?dtor$1@?0?_ZN3std3env6var_os17h68e835f1bec14d18E@4HA"@IMGREL
$ip2state$_ZN3std3env6var_os17h68e835f1bec14d18E:
	.long	.Lfunc_begin22@IMGREL
	.long	-1
	.long	.Ltmp184@IMGREL+1
	.long	0
	.long	.Ltmp187@IMGREL+1
	.long	-1
	.section	.text,"xr",one_only,_ZN3std3env6var_os17h68e835f1bec14d18E

	.def	_ZN3std3ffi6os_str5OsStr10from_inner17h33e08f633b595500E;
	.scl	3;
	.type	32;
	.endef
	.section	.text,"xr",one_only,_ZN3std3ffi6os_str5OsStr10from_inner17h33e08f633b595500E
	.p2align	4, 0x90
_ZN3std3ffi6os_str5OsStr10from_inner17h33e08f633b595500E:
.Lfunc_begin23:
	.cv_func_id 31
	.cv_loc	31 3 635 0
.seh_proc _ZN3std3ffi6os_str5OsStr10from_inner17h33e08f633b595500E
	subq	$16, %rsp
	.seh_stackalloc 16
	.seh_endprologue
	movq	%rcx, %rax
	movq	%rax, (%rsp)
	movq	%rdx, 8(%rsp)
.Ltmp190:
	.cv_loc	31 3 639 0
	addq	$16, %rsp
	retq
.Ltmp191:
.Lfunc_end23:
	.seh_endproc

	.def	_ZN3std3ffi6os_str5OsStr15to_string_lossy17h11b35eb52a1693aaE;
	.scl	3;
	.type	32;
	.endef
	.section	.text,"xr",one_only,_ZN3std3ffi6os_str5OsStr15to_string_lossy17h11b35eb52a1693aaE
	.p2align	4, 0x90
_ZN3std3ffi6os_str5OsStr15to_string_lossy17h11b35eb52a1693aaE:
.Lfunc_begin24:
	.cv_func_id 32
	.cv_loc	32 3 719 0
.seh_proc _ZN3std3ffi6os_str5OsStr15to_string_lossy17h11b35eb52a1693aaE
	subq	$56, %rsp
	.seh_stackalloc 56
	.seh_endprologue
	movq	%rcx, %rax
	movq	%rax, 32(%rsp)
	movq	%rdx, 40(%rsp)
	movq	%r8, 48(%rsp)
.Ltmp192:
	.cv_loc	32 3 720 0
	callq	_ZN3std3sys7windows6os_str5Slice15to_string_lossy17ha045699bfeb60273E
	.cv_loc	32 3 721 0
	movq	32(%rsp), %rax
	addq	$56, %rsp
	retq
.Ltmp193:
.Lfunc_end24:
	.seh_endproc

	.def	_ZN3std3ffi6os_str85_$LT$impl$u20$core..convert..AsRef$LT$std..ffi..os_str..OsStr$GT$$u20$for$u20$str$GT$6as_ref17h6f518e7136f16e30E;
	.scl	3;
	.type	32;
	.endef
	.section	.text,"xr",one_only,_ZN3std3ffi6os_str85_$LT$impl$u20$core..convert..AsRef$LT$std..ffi..os_str..OsStr$GT$$u20$for$u20$str$GT$6as_ref17h6f518e7136f16e30E
	.p2align	4, 0x90
_ZN3std3ffi6os_str85_$LT$impl$u20$core..convert..AsRef$LT$std..ffi..os_str..OsStr$GT$$u20$for$u20$str$GT$6as_ref17h6f518e7136f16e30E:
.Lfunc_begin25:
	.cv_func_id 33
	.cv_loc	33 3 1265 0
.seh_proc _ZN3std3ffi6os_str85_$LT$impl$u20$core..convert..AsRef$LT$std..ffi..os_str..OsStr$GT$$u20$for$u20$str$GT$6as_ref17h6f518e7136f16e30E
	subq	$88, %rsp
	.seh_stackalloc 88
	.seh_endprologue
	movq	%rcx, 72(%rsp)
	movq	%rdx, 80(%rsp)
.Ltmp194:
	.cv_loc	33 3 1266 0
	callq	_ZN3std3sys7windows6os_str5Slice8from_str17h4b6ac699fbb3a390E
	movq	%rax, 56(%rsp)
	movq	%rdx, 64(%rsp)
	movq	64(%rsp), %rdx
	movq	56(%rsp), %rcx
	callq	_ZN3std3ffi6os_str5OsStr10from_inner17h33e08f633b595500E
	movq	%rax, 40(%rsp)
	movq	%rdx, 48(%rsp)
	.cv_loc	33 3 1267 0
	movq	48(%rsp), %rdx
	movq	40(%rsp), %rax
	addq	$88, %rsp
	retq
.Ltmp195:
.Lfunc_end25:
	.seh_endproc

	.def	_ZN3std3sys7windows6os_str5Slice8from_str17h4b6ac699fbb3a390E;
	.scl	3;
	.type	32;
	.endef
	.section	.text,"xr",one_only,_ZN3std3sys7windows6os_str5Slice8from_str17h4b6ac699fbb3a390E
	.p2align	4, 0x90
_ZN3std3sys7windows6os_str5Slice8from_str17h4b6ac699fbb3a390E:
.Lfunc_begin26:
	.cv_func_id 34
	.cv_file	17 "/rustc/fe5b13d681f25ee6474be29d748c65adcd91f69e\\library\\std\\src\\sys\\windows\\os_str.rs" "2BB01D2A66225C32C56415FD8668158004CDB0EF" 2
	.cv_loc	34 17 153 0
.seh_proc _ZN3std3sys7windows6os_str5Slice8from_str17h4b6ac699fbb3a390E
	subq	$104, %rsp
	.seh_stackalloc 104
	.seh_endprologue
	movq	%rcx, 72(%rsp)
	movq	%rdx, 80(%rsp)
.Ltmp196:
	.cv_loc	34 17 154 0
	callq	_ZN3std10sys_common4wtf84Wtf88from_str17hba167712358983b4E
	movq	%rax, 56(%rsp)
	movq	%rdx, 64(%rsp)
	movq	64(%rsp), %rax
	movq	56(%rsp), %rcx
	movq	%rcx, 88(%rsp)
	movq	%rax, 96(%rsp)
	movq	88(%rsp), %rax
	movq	%rax, 40(%rsp)
	movq	96(%rsp), %rax
	movq	%rax, 48(%rsp)
	.cv_loc	34 17 155 0
	movq	48(%rsp), %rdx
	movq	40(%rsp), %rax
	addq	$104, %rsp
	retq
.Ltmp197:
.Lfunc_end26:
	.seh_endproc

	.def	_ZN3std3sys7windows7process8ExitCode6as_i3217h87f0fbe81c4688fbE;
	.scl	3;
	.type	32;
	.endef
	.section	.text,"xr",one_only,_ZN3std3sys7windows7process8ExitCode6as_i3217h87f0fbe81c4688fbE
	.p2align	4, 0x90
_ZN3std3sys7windows7process8ExitCode6as_i3217h87f0fbe81c4688fbE:
.Lfunc_begin27:
	.cv_func_id 35
	.cv_file	18 "/rustc/fe5b13d681f25ee6474be29d748c65adcd91f69e\\library\\std\\src\\sys\\windows\\process.rs" "48E754ADE7E4D5F6CEA5921EA744ECEC11E68ADD" 2
	.cv_loc	35 18 679 0
.seh_proc _ZN3std3sys7windows7process8ExitCode6as_i3217h87f0fbe81c4688fbE
	pushq	%rax
	.seh_stackalloc 8
	.seh_endprologue
	movq	%rcx, (%rsp)
.Ltmp198:
	.cv_loc	35 18 680 0
	movl	(%rcx), %eax
	.cv_loc	35 18 681 0
	popq	%rcx
	retq
.Ltmp199:
.Lfunc_end27:
	.seh_endproc

	.def	_ZN3std7process7Command3arg17h9de268a1f7533577E;
	.scl	3;
	.type	32;
	.endef
	.section	.text,"xr",one_only,_ZN3std7process7Command3arg17h9de268a1f7533577E
	.p2align	4, 0x90
_ZN3std7process7Command3arg17h9de268a1f7533577E:
.Lfunc_begin28:
	.cv_func_id 36
	.cv_file	19 "/rustc/fe5b13d681f25ee6474be29d748c65adcd91f69e\\library\\std\\src\\process.rs" "E6BE4D9C022251B79814C137B969260463CC80AD" 2
	.cv_loc	36 19 603 0
.seh_proc _ZN3std7process7Command3arg17h9de268a1f7533577E
	.seh_handler __CxxFrameHandler3, @unwind, @except
	pushq	%rbp
	.seh_pushreg %rbp
	subq	$96, %rsp
	.seh_stackalloc 96
	leaq	96(%rsp), %rbp
	.seh_setframe %rbp, 96
	.seh_endprologue
	movq	$-2, -8(%rbp)
	movq	%rcx, -64(%rbp)
	movq	%rdx, -32(%rbp)
	movq	%r8, -24(%rbp)
	movq	%rcx, -16(%rbp)
	movq	%rcx, -56(%rbp)
	.cv_loc	36 19 604 0
.Ltmp200:
	leaq	-32(%rbp), %rcx
.Ltmp204:
	callq	_ZN55_$LT$$RF$T$u20$as$u20$core..convert..AsRef$LT$U$GT$$GT$6as_ref17h284e180f7c6de1b6E
.Ltmp201:
	movq	%rdx, -48(%rbp)
	movq	%rax, -40(%rbp)
	jmp	.LBB28_2
.LBB28_2:
.Ltmp202:
	movq	-48(%rbp), %r8
	movq	-40(%rbp), %rdx
	movq	-56(%rbp), %rcx
	callq	_ZN3std3sys7windows7process7Command3arg17hcaf679bc22cd85fcE
.Ltmp203:
	jmp	.LBB28_3
.LBB28_3:
	.cv_loc	36 19 606 0
	movq	-64(%rbp), %rax
	addq	$96, %rsp
	popq	%rbp
	retq
	.seh_handlerdata
	.long	($cppxdata$_ZN3std7process7Command3arg17h9de268a1f7533577E)@IMGREL
	.section	.text,"xr",one_only,_ZN3std7process7Command3arg17h9de268a1f7533577E
	.seh_endproc
	.def	"?dtor$1@?0?_ZN3std7process7Command3arg17h9de268a1f7533577E@4HA";
	.scl	3;
	.type	32;
	.endef
	.p2align	4, 0x90
"?dtor$1@?0?_ZN3std7process7Command3arg17h9de268a1f7533577E@4HA":
.seh_proc "?dtor$1@?0?_ZN3std7process7Command3arg17h9de268a1f7533577E@4HA"
.LBB28_1:
	movq	%rdx, 16(%rsp)
	pushq	%rbp
	.seh_pushreg %rbp
	subq	$32, %rsp
	.seh_stackalloc 32
	leaq	96(%rdx), %rbp
	.seh_endprologue
	.cv_loc	36 19 603 0
	addq	$32, %rsp
	popq	%rbp
	retq
.Ltmp205:
.Lfunc_end28:
	.seh_handlerdata
	.section	.text,"xr",one_only,_ZN3std7process7Command3arg17h9de268a1f7533577E
	.seh_endproc
	.section	.xdata,"dr",associative,_ZN3std7process7Command3arg17h9de268a1f7533577E
	.p2align	2
$cppxdata$_ZN3std7process7Command3arg17h9de268a1f7533577E:
	.long	429065506
	.long	1
	.long	($stateUnwindMap$_ZN3std7process7Command3arg17h9de268a1f7533577E)@IMGREL
	.long	0
	.long	0
	.long	3
	.long	($ip2state$_ZN3std7process7Command3arg17h9de268a1f7533577E)@IMGREL
	.long	88
	.long	0
	.long	1
$stateUnwindMap$_ZN3std7process7Command3arg17h9de268a1f7533577E:
	.long	-1
	.long	"?dtor$1@?0?_ZN3std7process7Command3arg17h9de268a1f7533577E@4HA"@IMGREL
$ip2state$_ZN3std7process7Command3arg17h9de268a1f7533577E:
	.long	.Lfunc_begin28@IMGREL
	.long	-1
	.long	.Ltmp200@IMGREL+1
	.long	0
	.long	.Ltmp203@IMGREL+1
	.long	-1
	.section	.text,"xr",one_only,_ZN3std7process7Command3arg17h9de268a1f7533577E

	.def	_ZN3std7process7Command3new17h5be2a580348b8f03E;
	.scl	3;
	.type	32;
	.endef
	.section	.text,"xr",one_only,_ZN3std7process7Command3new17h5be2a580348b8f03E
	.p2align	4, 0x90
_ZN3std7process7Command3new17h5be2a580348b8f03E:
.Lfunc_begin29:
	.cv_func_id 37
	.cv_loc	37 19 557 0
.seh_proc _ZN3std7process7Command3new17h5be2a580348b8f03E
	.seh_handler __CxxFrameHandler3, @unwind, @except
	pushq	%rbp
	.seh_pushreg %rbp
	subq	$240, %rsp
	.seh_stackalloc 240
	leaq	128(%rsp), %rbp
	.seh_setframe %rbp, 128
	.seh_endprologue
	movq	$-2, 104(%rbp)
	movq	%rdx, -96(%rbp)
.Ltmp210:
	movq	%rcx, %rax
	movq	-96(%rbp), %rcx
	movq	%rax, -88(%rbp)
	movq	%rax, -80(%rbp)
	.cv_loc	37 19 558 0
.Ltmp206:
.Ltmp211:
	callq	_ZN98_$LT$std..ffi..os_str..OsString$u20$as$u20$core..convert..AsRef$LT$std..ffi..os_str..OsStr$GT$$GT$6as_ref17h4a49489628535354E
.Ltmp207:
	movq	%rdx, -72(%rbp)
	movq	%rax, -64(%rbp)
	jmp	.LBB29_2
.Ltmp212:
.LBB29_2:
.Ltmp208:
	movq	-72(%rbp), %r8
	movq	-64(%rbp), %rdx
	leaq	-56(%rbp), %rcx
	callq	_ZN3std3sys7windows7process7Command3new17hbbfa11e7ffd4dc78E
.Ltmp209:
	jmp	.LBB29_3
.Ltmp213:
.LBB29_3:
	movq	-88(%rbp), %rcx
	leaq	-56(%rbp), %rdx
	movl	$160, %r8d
	callq	memcpy
	movq	-96(%rbp), %rcx
	.cv_loc	37 19 559 0
	callq	_ZN4core3ptr47drop_in_place$LT$std..ffi..os_str..OsString$GT$17h833013778cd57550E
	movq	-80(%rbp), %rax
	addq	$240, %rsp
	popq	%rbp
	retq
.Ltmp214:
	.seh_handlerdata
	.long	($cppxdata$_ZN3std7process7Command3new17h5be2a580348b8f03E)@IMGREL
	.section	.text,"xr",one_only,_ZN3std7process7Command3new17h5be2a580348b8f03E
	.seh_endproc
	.def	"?dtor$1@?0?_ZN3std7process7Command3new17h5be2a580348b8f03E@4HA";
	.scl	3;
	.type	32;
	.endef
	.p2align	4, 0x90
"?dtor$1@?0?_ZN3std7process7Command3new17h5be2a580348b8f03E@4HA":
.seh_proc "?dtor$1@?0?_ZN3std7process7Command3new17h5be2a580348b8f03E@4HA"
.LBB29_1:
	movq	%rdx, 16(%rsp)
	pushq	%rbp
	.seh_pushreg %rbp
	subq	$32, %rsp
	.seh_stackalloc 32
	leaq	128(%rdx), %rbp
.Ltmp215:
	.seh_endprologue
	movq	-96(%rbp), %rcx
	callq	_ZN4core3ptr47drop_in_place$LT$std..ffi..os_str..OsString$GT$17h833013778cd57550E
	.cv_loc	37 19 557 0
	nop
	addq	$32, %rsp
	popq	%rbp
	retq
.Ltmp216:
.Lfunc_end29:
	.seh_handlerdata
	.section	.text,"xr",one_only,_ZN3std7process7Command3new17h5be2a580348b8f03E
	.seh_endproc
	.section	.xdata,"dr",associative,_ZN3std7process7Command3new17h5be2a580348b8f03E
	.p2align	2
$cppxdata$_ZN3std7process7Command3new17h5be2a580348b8f03E:
	.long	429065506
	.long	1
	.long	($stateUnwindMap$_ZN3std7process7Command3new17h5be2a580348b8f03E)@IMGREL
	.long	0
	.long	0
	.long	3
	.long	($ip2state$_ZN3std7process7Command3new17h5be2a580348b8f03E)@IMGREL
	.long	232
	.long	0
	.long	1
$stateUnwindMap$_ZN3std7process7Command3new17h5be2a580348b8f03E:
	.long	-1
	.long	"?dtor$1@?0?_ZN3std7process7Command3new17h5be2a580348b8f03E@4HA"@IMGREL
$ip2state$_ZN3std7process7Command3new17h5be2a580348b8f03E:
	.long	.Lfunc_begin29@IMGREL
	.long	-1
	.long	.Ltmp206@IMGREL+1
	.long	0
	.long	.Ltmp209@IMGREL+1
	.long	-1
	.section	.text,"xr",one_only,_ZN3std7process7Command3new17h5be2a580348b8f03E

	.def	_ZN3std7process8ExitCode6to_i3217h935e4c1201338409E;
	.scl	3;
	.type	32;
	.endef
	.section	.text,"xr",one_only,_ZN3std7process8ExitCode6to_i3217h935e4c1201338409E
	.p2align	4, 0x90
_ZN3std7process8ExitCode6to_i3217h935e4c1201338409E:
.Lfunc_begin30:
	.cv_func_id 38
	.cv_loc	38 19 1745 0
.seh_proc _ZN3std7process8ExitCode6to_i3217h935e4c1201338409E
	subq	$40, %rsp
	.seh_stackalloc 40
	.seh_endprologue
	movl	%ecx, 36(%rsp)
.Ltmp217:
	.cv_loc	38 19 1746 0
	leaq	36(%rsp), %rcx
	callq	_ZN3std3sys7windows7process8ExitCode6as_i3217h87f0fbe81c4688fbE
	movl	%eax, 32(%rsp)
	.cv_loc	38 19 1747 0
	movl	32(%rsp), %eax
	addq	$40, %rsp
	retq
.Ltmp218:
.Lfunc_end30:
	.seh_endproc

	.def	_ZN49_$LT$usize$u20$as$u20$core..iter..range..Step$GT$17forward_unchecked17h555d081127438f70E;
	.scl	3;
	.type	32;
	.endef
	.section	.text,"xr",one_only,_ZN49_$LT$usize$u20$as$u20$core..iter..range..Step$GT$17forward_unchecked17h555d081127438f70E
	.p2align	4, 0x90
_ZN49_$LT$usize$u20$as$u20$core..iter..range..Step$GT$17forward_unchecked17h555d081127438f70E:
.Lfunc_begin31:
	.cv_func_id 39
	.cv_file	20 "/rustc/fe5b13d681f25ee6474be29d748c65adcd91f69e\\library\\core\\src\\iter\\range.rs" "EF573E7C66C83C596F428147C145B236BEB493A5" 2
	.cv_loc	39 20 189 0
.seh_proc _ZN49_$LT$usize$u20$as$u20$core..iter..range..Step$GT$17forward_unchecked17h555d081127438f70E
	subq	$48, %rsp
	.seh_stackalloc 48
	.seh_endprologue
	movq	%rcx, 8(%rsp)
	movq	%rdx, 16(%rsp)
	movq	%rcx, 24(%rsp)
	movq	%rdx, 32(%rsp)
.Ltmp219:
	.cv_file	21 "/rustc/fe5b13d681f25ee6474be29d748c65adcd91f69e\\library\\core\\src\\num\\uint_macros.rs" "54A3B3B9B51771E64DFE99ADCB0480BB77317ABF" 2
	.cv_inline_site_id 40 within 39 inlined_at 20 191 0
	.cv_loc	40 21 464 0
	addq	%rdx, %rcx
	movq	%rcx, 40(%rsp)
	movq	40(%rsp), %rax
	movq	%rax, (%rsp)
.Ltmp220:
	.cv_loc	39 20 192 0
	movq	(%rsp), %rax
	addq	$48, %rsp
	retq
.Ltmp221:
.Lfunc_end31:
	.seh_endproc

	.def	_ZN49_$LT$usize$u20$as$u20$core..iter..range..Step$GT$18backward_unchecked17hbd59e1205e8a2865E;
	.scl	3;
	.type	32;
	.endef
	.section	.text,"xr",one_only,_ZN49_$LT$usize$u20$as$u20$core..iter..range..Step$GT$18backward_unchecked17hbd59e1205e8a2865E
	.p2align	4, 0x90
_ZN49_$LT$usize$u20$as$u20$core..iter..range..Step$GT$18backward_unchecked17hbd59e1205e8a2865E:
.Lfunc_begin32:
	.cv_func_id 41
	.cv_loc	41 20 195 0
.seh_proc _ZN49_$LT$usize$u20$as$u20$core..iter..range..Step$GT$18backward_unchecked17hbd59e1205e8a2865E
	subq	$48, %rsp
	.seh_stackalloc 48
	.seh_endprologue
	movq	%rcx, 8(%rsp)
	movq	%rdx, 16(%rsp)
	movq	%rcx, 24(%rsp)
	movq	%rdx, 32(%rsp)
.Ltmp222:
	.cv_inline_site_id 42 within 41 inlined_at 20 197 0
	.cv_loc	42 21 533 0
	subq	%rdx, %rcx
	movq	%rcx, 40(%rsp)
	movq	40(%rsp), %rax
	movq	%rax, (%rsp)
.Ltmp223:
	.cv_loc	41 20 198 0
	movq	(%rsp), %rax
	addq	$48, %rsp
	retq
.Ltmp224:
.Lfunc_end32:
	.seh_endproc

	.def	_ZN4core3cmp3Ord3max17h721d287e0dfda530E;
	.scl	3;
	.type	32;
	.endef
	.section	.text,"xr",one_only,_ZN4core3cmp3Ord3max17h721d287e0dfda530E
	.p2align	4, 0x90
_ZN4core3cmp3Ord3max17h721d287e0dfda530E:
.Lfunc_begin33:
	.cv_func_id 43
	.cv_file	22 "/rustc/fe5b13d681f25ee6474be29d748c65adcd91f69e\\library\\core\\src\\cmp.rs" "3BBA0D80CFEFCEA18FD3EDB33BEC197BA5770FFC" 2
	.cv_loc	43 22 796 0
.seh_proc _ZN4core3cmp3Ord3max17h721d287e0dfda530E
	subq	$56, %rsp
	.seh_stackalloc 56
	.seh_endprologue
	movq	%rcx, 40(%rsp)
	movq	%rdx, 48(%rsp)
.Ltmp225:
	.cv_loc	43 22 800 0
	callq	_ZN4core3cmp6max_by17hf5000aa5bff8197bE
	movq	%rax, 32(%rsp)
	.cv_loc	43 22 801 0
	movq	32(%rsp), %rax
	addq	$56, %rsp
	retq
.Ltmp226:
.Lfunc_end33:
	.seh_endproc

	.def	_ZN4core3cmp3max17h63123fa651d0c0e7E;
	.scl	3;
	.type	32;
	.endef
	.section	.text,"xr",one_only,_ZN4core3cmp3max17h63123fa651d0c0e7E
	.p2align	4, 0x90
_ZN4core3cmp3max17h63123fa651d0c0e7E:
.Lfunc_begin34:
	.cv_func_id 44
	.cv_loc	44 22 1257 0
.seh_proc _ZN4core3cmp3max17h63123fa651d0c0e7E
	subq	$56, %rsp
	.seh_stackalloc 56
	.seh_endprologue
	movq	%rcx, 40(%rsp)
	movq	%rdx, 48(%rsp)
.Ltmp227:
	.cv_loc	44 22 1258 0
	callq	_ZN4core3cmp3Ord3max17h721d287e0dfda530E
	movq	%rax, 32(%rsp)
	.cv_loc	44 22 1259 0
	movq	32(%rsp), %rax
	addq	$56, %rsp
	retq
.Ltmp228:
.Lfunc_end34:
	.seh_endproc

	.def	_ZN4core3cmp5impls50_$LT$impl$u20$core..cmp..Ord$u20$for$u20$usize$GT$3cmp17h606369d84761c826E;
	.scl	3;
	.type	32;
	.endef
	.section	.text,"xr",one_only,_ZN4core3cmp5impls50_$LT$impl$u20$core..cmp..Ord$u20$for$u20$usize$GT$3cmp17h606369d84761c826E
	.p2align	4, 0x90
_ZN4core3cmp5impls50_$LT$impl$u20$core..cmp..Ord$u20$for$u20$usize$GT$3cmp17h606369d84761c826E:
.Lfunc_begin35:
	.cv_func_id 45
	.cv_loc	45 22 1408 0
.seh_proc _ZN4core3cmp5impls50_$LT$impl$u20$core..cmp..Ord$u20$for$u20$usize$GT$3cmp17h606369d84761c826E
	subq	$40, %rsp
	.seh_stackalloc 40
	.seh_endprologue
	movq	%rdx, (%rsp)
	movq	%rcx, 8(%rsp)
	movq	%rcx, 24(%rsp)
	movq	%rdx, 32(%rsp)
.Ltmp229:
	.cv_loc	45 22 1411 0
	movq	(%rcx), %rax
	cmpq	(%rdx), %rax
	jb	.LBB35_2
	.cv_loc	45 22 1412 0
	movq	(%rsp), %rcx
	movq	8(%rsp), %rax
	movq	(%rax), %rax
	cmpq	(%rcx), %rax
	je	.LBB35_5
	jmp	.LBB35_4
.LBB35_2:
	.cv_loc	45 22 1411 0
	movb	$-1, 23(%rsp)
.LBB35_3:
	.cv_loc	45 22 1414 0
	movb	23(%rsp), %al
	addq	$40, %rsp
	retq
.LBB35_4:
	.cv_loc	45 22 1413 0
	movb	$1, 23(%rsp)
	.cv_loc	45 22 1412 0
	jmp	.LBB35_6
.LBB35_5:
	movb	$0, 23(%rsp)
.LBB35_6:
	.cv_loc	45 22 1411 0
	jmp	.LBB35_3
.Ltmp230:
.Lfunc_end35:
	.seh_endproc

	.def	_ZN4core3cmp5impls57_$LT$impl$u20$core..cmp..PartialOrd$u20$for$u20$usize$GT$2lt17hced1cfd73984b6c5E;
	.scl	3;
	.type	32;
	.endef
	.section	.text,"xr",one_only,_ZN4core3cmp5impls57_$LT$impl$u20$core..cmp..PartialOrd$u20$for$u20$usize$GT$2lt17hced1cfd73984b6c5E
	.p2align	4, 0x90
_ZN4core3cmp5impls57_$LT$impl$u20$core..cmp..PartialOrd$u20$for$u20$usize$GT$2lt17hced1cfd73984b6c5E:
.Lfunc_begin36:
	.cv_func_id 46
	.cv_loc	46 22 1396 0
.seh_proc _ZN4core3cmp5impls57_$LT$impl$u20$core..cmp..PartialOrd$u20$for$u20$usize$GT$2lt17hced1cfd73984b6c5E
	subq	$16, %rsp
	.seh_stackalloc 16
	.seh_endprologue
	movq	%rcx, (%rsp)
	movq	%rdx, 8(%rsp)
.Ltmp231:
	movq	(%rcx), %rax
	cmpq	(%rdx), %rax
	setb	%al
	andb	$1, %al
	movzbl	%al, %eax
	addq	$16, %rsp
	retq
.Ltmp232:
.Lfunc_end36:
	.seh_endproc

	.def	_ZN4core3cmp5impls59_$LT$impl$u20$core..cmp..PartialEq$u20$for$u20$$LP$$RP$$GT$2eq17hcacfb90e7227dfe7E;
	.scl	3;
	.type	32;
	.endef
	.section	.text,"xr",one_only,_ZN4core3cmp5impls59_$LT$impl$u20$core..cmp..PartialEq$u20$for$u20$$LP$$RP$$GT$2eq17hcacfb90e7227dfe7E
	.p2align	4, 0x90
_ZN4core3cmp5impls59_$LT$impl$u20$core..cmp..PartialEq$u20$for$u20$$LP$$RP$$GT$2eq17hcacfb90e7227dfe7E:
.Lfunc_begin37:
	.cv_func_id 47
	.cv_loc	47 22 1322 0
.seh_proc _ZN4core3cmp5impls59_$LT$impl$u20$core..cmp..PartialEq$u20$for$u20$$LP$$RP$$GT$2eq17hcacfb90e7227dfe7E
	subq	$16, %rsp
	.seh_stackalloc 16
	.seh_endprologue
	movq	%rcx, (%rsp)
	movq	%rdx, 8(%rsp)
.Ltmp233:
	.cv_loc	47 22 1324 0
	movb	$1, %al
	andb	$1, %al
	movzbl	%al, %eax
	addq	$16, %rsp
	retq
.Ltmp234:
.Lfunc_end37:
	.seh_endproc

	.def	_ZN4core3cmp5impls69_$LT$impl$u20$core..cmp..PartialEq$LT$$RF$B$GT$$u20$for$u20$$RF$A$GT$2eq17h3c9070efb11730cbE;
	.scl	3;
	.type	32;
	.endef
	.section	.text,"xr",one_only,_ZN4core3cmp5impls69_$LT$impl$u20$core..cmp..PartialEq$LT$$RF$B$GT$$u20$for$u20$$RF$A$GT$2eq17h3c9070efb11730cbE
	.p2align	4, 0x90
_ZN4core3cmp5impls69_$LT$impl$u20$core..cmp..PartialEq$LT$$RF$B$GT$$u20$for$u20$$RF$A$GT$2eq17h3c9070efb11730cbE:
.Lfunc_begin38:
	.cv_func_id 48
	.cv_loc	48 22 1478 0
.seh_proc _ZN4core3cmp5impls69_$LT$impl$u20$core..cmp..PartialEq$LT$$RF$B$GT$$u20$for$u20$$RF$A$GT$2eq17h3c9070efb11730cbE
	subq	$56, %rsp
	.seh_stackalloc 56
	.seh_endprologue
	movq	%rdx, %rax
	movq	%rcx, %rdx
	movq	%rdx, 40(%rsp)
	movq	%rax, 48(%rsp)
.Ltmp235:
	.cv_loc	48 22 1479 0
	movq	(%rdx), %rcx
	movq	8(%rdx), %rdx
	movq	(%rax), %r8
	movq	8(%rax), %r9
	callq	_ZN4core5slice3cmp81_$LT$impl$u20$core..cmp..PartialEq$LT$$u5b$B$u5d$$GT$$u20$for$u20$$u5b$A$u5d$$GT$2eq17h69678e976b53c018E
	movb	%al, 39(%rsp)
	.cv_loc	48 22 1480 0
	movb	39(%rsp), %al
	andb	$1, %al
	movzbl	%al, %eax
	addq	$56, %rsp
	retq
.Ltmp236:
.Lfunc_end38:
	.seh_endproc

	.def	_ZN4core3cmp5impls69_$LT$impl$u20$core..cmp..PartialEq$LT$$RF$B$GT$$u20$for$u20$$RF$A$GT$2eq17h48aa0378107bdbe5E;
	.scl	3;
	.type	32;
	.endef
	.section	.text,"xr",one_only,_ZN4core3cmp5impls69_$LT$impl$u20$core..cmp..PartialEq$LT$$RF$B$GT$$u20$for$u20$$RF$A$GT$2eq17h48aa0378107bdbe5E
	.p2align	4, 0x90
_ZN4core3cmp5impls69_$LT$impl$u20$core..cmp..PartialEq$LT$$RF$B$GT$$u20$for$u20$$RF$A$GT$2eq17h48aa0378107bdbe5E:
.Lfunc_begin39:
	.cv_func_id 49
	.cv_loc	49 22 1478 0
.seh_proc _ZN4core3cmp5impls69_$LT$impl$u20$core..cmp..PartialEq$LT$$RF$B$GT$$u20$for$u20$$RF$A$GT$2eq17h48aa0378107bdbe5E
	subq	$56, %rsp
	.seh_stackalloc 56
	.seh_endprologue
	movq	%rdx, %rax
	movq	%rcx, %rdx
	movq	%rdx, 40(%rsp)
	movq	%rax, 48(%rsp)
.Ltmp237:
	.cv_loc	49 22 1479 0
	movq	(%rdx), %rcx
	movq	8(%rdx), %rdx
	movq	(%rax), %r8
	movq	8(%rax), %r9
	callq	_ZN4core3str6traits54_$LT$impl$u20$core..cmp..PartialEq$u20$for$u20$str$GT$2eq17hc6de9fd3a6deee01E
	movb	%al, 39(%rsp)
	.cv_loc	49 22 1480 0
	movb	39(%rsp), %al
	andb	$1, %al
	movzbl	%al, %eax
	addq	$56, %rsp
	retq
.Ltmp238:
.Lfunc_end39:
	.seh_endproc

	.def	_ZN4core3cmp5impls69_$LT$impl$u20$core..cmp..PartialEq$LT$$RF$B$GT$$u20$for$u20$$RF$A$GT$2ne17hdad10769eb542323E;
	.scl	3;
	.type	32;
	.endef
	.section	.text,"xr",one_only,_ZN4core3cmp5impls69_$LT$impl$u20$core..cmp..PartialEq$LT$$RF$B$GT$$u20$for$u20$$RF$A$GT$2ne17hdad10769eb542323E
	.p2align	4, 0x90
_ZN4core3cmp5impls69_$LT$impl$u20$core..cmp..PartialEq$LT$$RF$B$GT$$u20$for$u20$$RF$A$GT$2ne17hdad10769eb542323E:
.Lfunc_begin40:
	.cv_func_id 50
	.cv_loc	50 22 1482 0
.seh_proc _ZN4core3cmp5impls69_$LT$impl$u20$core..cmp..PartialEq$LT$$RF$B$GT$$u20$for$u20$$RF$A$GT$2ne17hdad10769eb542323E
	subq	$56, %rsp
	.seh_stackalloc 56
	.seh_endprologue
	movq	%rdx, %rax
	movq	%rcx, %rdx
	movq	%rdx, 40(%rsp)
	movq	%rax, 48(%rsp)
.Ltmp239:
	.cv_loc	50 22 1483 0
	movq	(%rdx), %rcx
	movq	8(%rdx), %rdx
	movq	(%rax), %r8
	movq	8(%rax), %r9
	callq	_ZN4core3str6traits54_$LT$impl$u20$core..cmp..PartialEq$u20$for$u20$str$GT$2ne17h725f9ca2b25235e8E
	movb	%al, 39(%rsp)
	.cv_loc	50 22 1484 0
	movb	39(%rsp), %al
	andb	$1, %al
	movzbl	%al, %eax
	addq	$56, %rsp
	retq
.Ltmp240:
.Lfunc_end40:
	.seh_endproc

	.def	_ZN4core3cmp6max_by17hf5000aa5bff8197bE;
	.scl	3;
	.type	32;
	.endef
	.section	.text,"xr",one_only,_ZN4core3cmp6max_by17hf5000aa5bff8197bE
	.p2align	4, 0x90
_ZN4core3cmp6max_by17hf5000aa5bff8197bE:
.Lfunc_begin41:
	.cv_func_id 51
	.cv_loc	51 22 1276 0
.seh_proc _ZN4core3cmp6max_by17hf5000aa5bff8197bE
	.seh_handler __CxxFrameHandler3, @unwind, @except
	pushq	%rbp
	.seh_pushreg %rbp
	subq	$112, %rsp
	.seh_stackalloc 112
	leaq	112(%rsp), %rbp
	.seh_setframe %rbp, 112
	.seh_endprologue
	movq	$-2, -8(%rbp)
	movq	%rcx, -64(%rbp)
	movq	%rdx, -56(%rbp)
.Ltmp243:
	.cv_loc	51 22 1277 0
	movb	$0, -9(%rbp)
	movb	$0, -10(%rbp)
	movb	$1, -9(%rbp)
	movb	$1, -10(%rbp)
	leaq	-64(%rbp), %rax
	movq	%rax, -32(%rbp)
	leaq	-56(%rbp), %rax
	movq	%rax, -24(%rbp)
	movq	-32(%rbp), %rcx
	movq	-24(%rbp), %rdx
.Ltmp241:
	callq	_ZN4core3ops8function6FnOnce9call_once17h2922cef97bbe1631E
.Ltmp242:
	movb	%al, -65(%rbp)
	jmp	.LBB41_2
.LBB41_2:
	movb	-65(%rbp), %al
	movb	%al, -33(%rbp)
	movb	-33(%rbp), %al
	incb	%al
	subb	$2, %al
	jb	.LBB41_5
	jmp	.LBB41_14
.LBB41_14:
	jmp	.LBB41_6
	ud2
.LBB41_5:
	.cv_loc	51 22 1278 0
	movb	$0, -10(%rbp)
	movq	-56(%rbp), %rax
	movq	%rax, -48(%rbp)
	jmp	.LBB41_7
.LBB41_6:
	.cv_loc	51 22 1279 0
	movb	$0, -9(%rbp)
	movq	-64(%rbp), %rax
	movq	%rax, -48(%rbp)
.LBB41_7:
	.cv_loc	51 22 1281 0
	testb	$1, -10(%rbp)
	jne	.LBB41_9
.LBB41_8:
	testb	$1, -9(%rbp)
	jne	.LBB41_13
	jmp	.LBB41_12
.LBB41_9:
	jmp	.LBB41_8
.LBB41_12:
	movq	-48(%rbp), %rax
	addq	$112, %rsp
	popq	%rbp
	retq
.LBB41_13:
	jmp	.LBB41_12
	.seh_handlerdata
	.long	($cppxdata$_ZN4core3cmp6max_by17hf5000aa5bff8197bE)@IMGREL
	.section	.text,"xr",one_only,_ZN4core3cmp6max_by17hf5000aa5bff8197bE
	.seh_endproc
	.def	"?dtor$1@?0?_ZN4core3cmp6max_by17hf5000aa5bff8197bE@4HA";
	.scl	3;
	.type	32;
	.endef
	.p2align	4, 0x90
"?dtor$1@?0?_ZN4core3cmp6max_by17hf5000aa5bff8197bE@4HA":
.seh_proc "?dtor$1@?0?_ZN4core3cmp6max_by17hf5000aa5bff8197bE@4HA"
.LBB41_1:
	movq	%rdx, 16(%rsp)
	pushq	%rbp
	.seh_pushreg %rbp
	subq	$32, %rsp
	.seh_stackalloc 32
	leaq	112(%rdx), %rbp
	.seh_endprologue
	addq	$32, %rsp
	popq	%rbp
	retq
	.seh_handlerdata
	.section	.text,"xr",one_only,_ZN4core3cmp6max_by17hf5000aa5bff8197bE
	.seh_endproc
	.def	"?dtor$3@?0?_ZN4core3cmp6max_by17hf5000aa5bff8197bE@4HA";
	.scl	3;
	.type	32;
	.endef
	.p2align	4, 0x90
"?dtor$3@?0?_ZN4core3cmp6max_by17hf5000aa5bff8197bE@4HA":
.seh_proc "?dtor$3@?0?_ZN4core3cmp6max_by17hf5000aa5bff8197bE@4HA"
.LBB41_3:
	movq	%rdx, 16(%rsp)
	pushq	%rbp
	.seh_pushreg %rbp
	subq	$32, %rsp
	.seh_stackalloc 32
	leaq	112(%rdx), %rbp
	.seh_endprologue
	testb	$1, -9(%rbp)
	jne	.LBB41_11
	jmp	.LBB41_10
.LBB41_10:
	.cv_loc	51 22 1276 0
	addq	$32, %rsp
	popq	%rbp
	retq
.LBB41_11:
	.cv_loc	51 22 1281 0
	jmp	.LBB41_10
.Ltmp244:
.Lfunc_end41:
	.seh_handlerdata
	.section	.text,"xr",one_only,_ZN4core3cmp6max_by17hf5000aa5bff8197bE
	.seh_endproc
	.section	.xdata,"dr",associative,_ZN4core3cmp6max_by17hf5000aa5bff8197bE
	.p2align	2
$cppxdata$_ZN4core3cmp6max_by17hf5000aa5bff8197bE:
	.long	429065506
	.long	2
	.long	($stateUnwindMap$_ZN4core3cmp6max_by17hf5000aa5bff8197bE)@IMGREL
	.long	0
	.long	0
	.long	3
	.long	($ip2state$_ZN4core3cmp6max_by17hf5000aa5bff8197bE)@IMGREL
	.long	104
	.long	0
	.long	1
$stateUnwindMap$_ZN4core3cmp6max_by17hf5000aa5bff8197bE:
	.long	-1
	.long	"?dtor$3@?0?_ZN4core3cmp6max_by17hf5000aa5bff8197bE@4HA"@IMGREL
	.long	0
	.long	"?dtor$1@?0?_ZN4core3cmp6max_by17hf5000aa5bff8197bE@4HA"@IMGREL
$ip2state$_ZN4core3cmp6max_by17hf5000aa5bff8197bE:
	.long	.Lfunc_begin41@IMGREL
	.long	-1
	.long	.Ltmp241@IMGREL+1
	.long	1
	.long	.Ltmp242@IMGREL+1
	.long	-1
	.section	.text,"xr",one_only,_ZN4core3cmp6max_by17hf5000aa5bff8197bE

	.def	_ZN4core3fmt10ArgumentV111new_display17hd6c81c7e0776d253E;
	.scl	3;
	.type	32;
	.endef
	.section	.text,"xr",one_only,_ZN4core3fmt10ArgumentV111new_display17hd6c81c7e0776d253E
	.p2align	4, 0x90
_ZN4core3fmt10ArgumentV111new_display17hd6c81c7e0776d253E:
.Lfunc_begin42:
	.cv_func_id 52
	.cv_file	23 "/rustc/fe5b13d681f25ee6474be29d748c65adcd91f69e\\library\\core\\src\\fmt\\mod.rs" "53D767895F97F3A48E29B8ED9E15C5E6ED06159A" 2
	.cv_loc	52 23 316 0
.seh_proc _ZN4core3fmt10ArgumentV111new_display17hd6c81c7e0776d253E
	subq	$56, %rsp
	.seh_stackalloc 56
	.seh_endprologue
	movq	%rcx, 48(%rsp)
.Ltmp245:
	.cv_loc	52 23 317 0
	leaq	_ZN4core3fmt3num3imp54_$LT$impl$u20$core..fmt..Display$u20$for$u20$usize$GT$3fmt17h08db63e10f8e150dE(%rip), %rdx
	callq	_ZN4core3fmt10ArgumentV13new17h7000a19ea9feb18fE
	movq	%rax, 32(%rsp)
	movq	%rdx, 40(%rsp)
	.cv_loc	52 23 318 0
	movq	40(%rsp), %rdx
	movq	32(%rsp), %rax
	addq	$56, %rsp
	retq
.Ltmp246:
.Lfunc_end42:
	.seh_endproc

	.def	_ZN4core3fmt10ArgumentV113new_upper_hex17h3761d0dc0b118583E;
	.scl	3;
	.type	32;
	.endef
	.section	.text,"xr",one_only,_ZN4core3fmt10ArgumentV113new_upper_hex17h3761d0dc0b118583E
	.p2align	4, 0x90
_ZN4core3fmt10ArgumentV113new_upper_hex17h3761d0dc0b118583E:
.Lfunc_begin43:
	.cv_func_id 53
	.cv_loc	53 23 316 0
.seh_proc _ZN4core3fmt10ArgumentV113new_upper_hex17h3761d0dc0b118583E
	subq	$56, %rsp
	.seh_stackalloc 56
	.seh_endprologue
	movq	%rcx, 48(%rsp)
.Ltmp247:
	.cv_loc	53 23 317 0
	leaq	_ZN4core3fmt3num53_$LT$impl$u20$core..fmt..UpperHex$u20$for$u20$u32$GT$3fmt17h7596e60ace34c1e5E(%rip), %rdx
	callq	_ZN4core3fmt10ArgumentV13new17h0bab648493fb4bd2E
	movq	%rax, 32(%rsp)
	movq	%rdx, 40(%rsp)
	.cv_loc	53 23 318 0
	movq	40(%rsp), %rdx
	movq	32(%rsp), %rax
	addq	$56, %rsp
	retq
.Ltmp248:
.Lfunc_end43:
	.seh_endproc

	.def	_ZN4core3fmt10ArgumentV13new17h0bab648493fb4bd2E;
	.scl	3;
	.type	32;
	.endef
	.section	.text,"xr",one_only,_ZN4core3fmt10ArgumentV13new17h0bab648493fb4bd2E
	.p2align	4, 0x90
_ZN4core3fmt10ArgumentV13new17h0bab648493fb4bd2E:
.Lfunc_begin44:
	.cv_func_id 54
	.cv_loc	54 23 326 0
.seh_proc _ZN4core3fmt10ArgumentV13new17h0bab648493fb4bd2E
	subq	$72, %rsp
	.seh_stackalloc 72
	.seh_endprologue
	movq	%rcx, 8(%rsp)
	movq	%rcx, 40(%rsp)
	movq	%rdx, 48(%rsp)
.Ltmp249:
	.cv_loc	54 23 335 0
	movq	%rdx, 56(%rsp)
	movq	56(%rsp), %rax
	movq	%rax, 16(%rsp)
	movq	8(%rsp), %rax
	movq	%rax, 64(%rsp)
	movq	64(%rsp), %rax
	movq	%rax, (%rsp)
	movq	16(%rsp), %rax
	movq	(%rsp), %rcx
	movq	%rcx, 24(%rsp)
	movq	%rax, 32(%rsp)
	.cv_loc	54 23 336 0
	movq	24(%rsp), %rax
	movq	32(%rsp), %rdx
	addq	$72, %rsp
	retq
.Ltmp250:
.Lfunc_end44:
	.seh_endproc

	.def	_ZN4core3fmt10ArgumentV13new17h7000a19ea9feb18fE;
	.scl	3;
	.type	32;
	.endef
	.section	.text,"xr",one_only,_ZN4core3fmt10ArgumentV13new17h7000a19ea9feb18fE
	.p2align	4, 0x90
_ZN4core3fmt10ArgumentV13new17h7000a19ea9feb18fE:
.Lfunc_begin45:
	.cv_func_id 55
	.cv_loc	55 23 326 0
.seh_proc _ZN4core3fmt10ArgumentV13new17h7000a19ea9feb18fE
	subq	$72, %rsp
	.seh_stackalloc 72
	.seh_endprologue
	movq	%rcx, 8(%rsp)
	movq	%rcx, 40(%rsp)
	movq	%rdx, 48(%rsp)
.Ltmp251:
	.cv_loc	55 23 335 0
	movq	%rdx, 56(%rsp)
	movq	56(%rsp), %rax
	movq	%rax, 16(%rsp)
	movq	8(%rsp), %rax
	movq	%rax, 64(%rsp)
	movq	64(%rsp), %rax
	movq	%rax, (%rsp)
	movq	16(%rsp), %rax
	movq	(%rsp), %rcx
	movq	%rcx, 24(%rsp)
	movq	%rax, 32(%rsp)
	.cv_loc	55 23 336 0
	movq	24(%rsp), %rax
	movq	32(%rsp), %rdx
	addq	$72, %rsp
	retq
.Ltmp252:
.Lfunc_end45:
	.seh_endproc

	.def	_ZN4core3fmt9Arguments6new_v117h33f88a9b458f6d5dE;
	.scl	3;
	.type	32;
	.endef
	.section	.text,"xr",one_only,_ZN4core3fmt9Arguments6new_v117h33f88a9b458f6d5dE
	.p2align	4, 0x90
_ZN4core3fmt9Arguments6new_v117h33f88a9b458f6d5dE:
.Lfunc_begin46:
	.cv_func_id 56
	.cv_loc	56 23 387 0
.seh_proc _ZN4core3fmt9Arguments6new_v117h33f88a9b458f6d5dE
	subq	$200, %rsp
	.seh_stackalloc 200
	.seh_endprologue
	movq	%r9, 48(%rsp)
	movq	%r8, 56(%rsp)
	movq	%rdx, 64(%rsp)
	movq	%rcx, 72(%rsp)
	movq	%rcx, 80(%rsp)
	movq	240(%rsp), %rax
	movq	%rax, 88(%rsp)
	movq	%rdx, 168(%rsp)
	movq	%r8, 176(%rsp)
	movq	%r9, 184(%rsp)
	movq	%rax, 192(%rsp)
.Ltmp253:
	.cv_loc	56 23 388 0
	cmpq	%rax, %r8
	jb	.LBB46_2
	movq	56(%rsp), %rax
	movq	88(%rsp), %rcx
	addq	$1, %rcx
	cmpq	%rcx, %rax
	seta	%al
	andb	$1, %al
	movb	%al, 103(%rsp)
	jmp	.LBB46_3
.LBB46_2:
	movb	$1, 103(%rsp)
.LBB46_3:
	testb	$1, 103(%rsp)
	jne	.LBB46_5
	.cv_loc	56 23 391 0
	movq	80(%rsp), %rax
	movq	72(%rsp), %rcx
	movq	88(%rsp), %rdx
	movq	48(%rsp), %r8
	movq	56(%rsp), %r9
	movq	64(%rsp), %r10
	movq	$0, 152(%rsp)
	movq	%r10, (%rcx)
	movq	%r9, 8(%rcx)
	movq	152(%rsp), %r10
	movq	160(%rsp), %r9
	movq	%r10, 16(%rcx)
	movq	%r9, 24(%rcx)
	movq	%r8, 32(%rcx)
	movq	%rdx, 40(%rcx)
	.cv_loc	56 23 392 0
	addq	$200, %rsp
	retq
.LBB46_5:
	.cv_loc	56 23 389 0
	leaq	104(%rsp), %rcx
	leaq	__unnamed_4(%rip), %rdx
	movl	$1, %r8d
	leaq	__unnamed_5(%rip), %r9
	xorl	%eax, %eax
	movq	$0, 32(%rsp)
	callq	_ZN4core3fmt9Arguments6new_v117h33f88a9b458f6d5dE
	leaq	__unnamed_6(%rip), %rdx
	leaq	104(%rsp), %rcx
	callq	_ZN4core9panicking9panic_fmt17h9a20e90cefbba781E
	ud2
.Ltmp254:
.Lfunc_end46:
	.seh_endproc

	.def	_ZN4core3mem11size_of_val17h9b0cd9f68e5a22aeE;
	.scl	3;
	.type	32;
	.endef
	.section	.text,"xr",one_only,_ZN4core3mem11size_of_val17h9b0cd9f68e5a22aeE
	.p2align	4, 0x90
_ZN4core3mem11size_of_val17h9b0cd9f68e5a22aeE:
.Lfunc_begin47:
	.cv_func_id 57
	.cv_file	24 "/rustc/fe5b13d681f25ee6474be29d748c65adcd91f69e\\library\\core\\src\\mem\\mod.rs" "C5042DD9E6A9AE656F1B6D5AF1BAFDFF25880AFB" 2
	.cv_loc	57 24 332 0
.seh_proc _ZN4core3mem11size_of_val17h9b0cd9f68e5a22aeE
	subq	$32, %rsp
	.seh_stackalloc 32
	.seh_endprologue
	movq	%rcx, 8(%rsp)
	movq	%rdx, 16(%rsp)
.Ltmp255:
	.cv_loc	57 24 334 0
	shlq	$0, %rdx
	movq	%rdx, 24(%rsp)
	movq	24(%rsp), %rax
	movq	%rax, (%rsp)
	.cv_loc	57 24 335 0
	movq	(%rsp), %rax
	addq	$32, %rsp
	retq
.Ltmp256:
.Lfunc_end47:
	.seh_endproc

	.def	_ZN4core3mem12maybe_uninit20MaybeUninit$LT$T$GT$16assume_init_drop17h8d2a053067e9f3d8E;
	.scl	3;
	.type	32;
	.endef
	.section	.text,"xr",one_only,_ZN4core3mem12maybe_uninit20MaybeUninit$LT$T$GT$16assume_init_drop17h8d2a053067e9f3d8E
	.p2align	4, 0x90
_ZN4core3mem12maybe_uninit20MaybeUninit$LT$T$GT$16assume_init_drop17h8d2a053067e9f3d8E:
.Lfunc_begin48:
	.cv_func_id 58
	.cv_file	25 "/rustc/fe5b13d681f25ee6474be29d748c65adcd91f69e\\library\\core\\src\\mem\\maybe_uninit.rs" "DEBE0D5A9D320B7177610070C9639C55F14F199E" 2
	.cv_loc	58 25 731 0
.seh_proc _ZN4core3mem12maybe_uninit20MaybeUninit$LT$T$GT$16assume_init_drop17h8d2a053067e9f3d8E
	subq	$56, %rsp
	.seh_stackalloc 56
	.seh_endprologue
	movq	%rcx, 40(%rsp)
	movq	%rcx, 48(%rsp)
	movq	%rcx, 32(%rsp)
	.cv_loc	58 25 735 0
	movq	32(%rsp), %rcx
.Ltmp257:
	callq	_ZN4core3ptr75drop_in_place$LT$core..option..Option$LT$std..ffi..os_str..OsString$GT$$GT$17h20e7750e985c939cE
	.cv_loc	58 25 736 0
	nop
	addq	$56, %rsp
	retq
.Ltmp258:
.Lfunc_end48:
	.seh_endproc

	.def	_ZN4core3mem12maybe_uninit20MaybeUninit$LT$T$GT$16assume_init_drop17haf7f64c981213596E;
	.scl	3;
	.type	32;
	.endef
	.section	.text,"xr",one_only,_ZN4core3mem12maybe_uninit20MaybeUninit$LT$T$GT$16assume_init_drop17haf7f64c981213596E
	.p2align	4, 0x90
_ZN4core3mem12maybe_uninit20MaybeUninit$LT$T$GT$16assume_init_drop17haf7f64c981213596E:
.Lfunc_begin49:
	.cv_func_id 59
	.cv_loc	59 25 731 0
.seh_proc _ZN4core3mem12maybe_uninit20MaybeUninit$LT$T$GT$16assume_init_drop17haf7f64c981213596E
	subq	$56, %rsp
	.seh_stackalloc 56
	.seh_endprologue
	movq	%rcx, 40(%rsp)
	movq	%rcx, 48(%rsp)
	movq	%rcx, 32(%rsp)
	.cv_loc	59 25 735 0
	movq	32(%rsp), %rcx
.Ltmp259:
	callq	_ZN4core3ptr55drop_in_place$LT$std..sys..windows..process..EnvKey$GT$17hc3f4dba1d1b41115E
	.cv_loc	59 25 736 0
	nop
	addq	$56, %rsp
	retq
.Ltmp260:
.Lfunc_end49:
	.seh_endproc

	.def	_ZN4core3mem4drop17he6869caf3957a772E;
	.scl	3;
	.type	32;
	.endef
	.section	.text,"xr",one_only,_ZN4core3mem4drop17he6869caf3957a772E
	.p2align	4, 0x90
_ZN4core3mem4drop17he6869caf3957a772E:
.Lfunc_begin50:
	.cv_func_id 60
	.cv_loc	60 24 968 0
.seh_proc _ZN4core3mem4drop17he6869caf3957a772E
	subq	$40, %rsp
	.seh_stackalloc 40
	.seh_endprologue
.Ltmp261:
	callq	_ZN4core3ptr160drop_in_place$LT$alloc..collections..btree..map..IntoIter$LT$std..sys..windows..process..EnvKey$C$core..option..Option$LT$std..ffi..os_str..OsString$GT$$GT$$GT$17hce9f0fce0fb2501cE
.Ltmp262:
	nop
	addq	$40, %rsp
	retq
.Ltmp263:
.Lfunc_end50:
	.seh_endproc

	.def	_ZN4core3mem6forget17h4ed05f8d83e604fdE;
	.scl	3;
	.type	32;
	.endef
	.section	.text,"xr",one_only,_ZN4core3mem6forget17h4ed05f8d83e604fdE
	.p2align	4, 0x90
_ZN4core3mem6forget17h4ed05f8d83e604fdE:
.Lfunc_begin51:
	.cv_func_id 61
	.cv_loc	61 24 144 0
.seh_proc _ZN4core3mem6forget17h4ed05f8d83e604fdE
	subq	$24, %rsp
	.seh_stackalloc 24
	.seh_endprologue
	movq	%rcx, (%rsp)
	movq	%rcx, 16(%rsp)
.Ltmp264:
	.cv_inline_site_id 62 within 61 inlined_at 24 145 0
	.cv_loc	62 8 71 0
	movq	%rcx, 8(%rsp)
.Ltmp265:
	.cv_loc	61 24 146 0
	addq	$24, %rsp
	retq
.Ltmp266:
.Lfunc_end51:
	.seh_endproc

	.def	_ZN4core3mem6forget17h75117eb05d61598eE;
	.scl	3;
	.type	32;
	.endef
	.section	.text,"xr",one_only,_ZN4core3mem6forget17h75117eb05d61598eE
	.p2align	4, 0x90
_ZN4core3mem6forget17h75117eb05d61598eE:
.Lfunc_begin52:
	.cv_func_id 63
	.cv_loc	63 24 144 0
.seh_proc _ZN4core3mem6forget17h75117eb05d61598eE
	subq	$16, %rsp
	.seh_stackalloc 16
	.seh_endprologue
.Ltmp267:
	.cv_loc	63 24 146 0
	addq	$16, %rsp
	retq
.Ltmp268:
.Lfunc_end52:
	.seh_endproc

	.def	_ZN4core3mem7replace17h26140b87d8f86a50E;
	.scl	3;
	.type	32;
	.endef
	.section	.text,"xr",one_only,_ZN4core3mem7replace17h26140b87d8f86a50E
	.p2align	4, 0x90
_ZN4core3mem7replace17h26140b87d8f86a50E:
.Lfunc_begin53:
	.cv_func_id 64
	.cv_loc	64 24 893 0
.seh_proc _ZN4core3mem7replace17h26140b87d8f86a50E
	.seh_handler __CxxFrameHandler3, @unwind, @except
	pushq	%rbp
	.seh_pushreg %rbp
	subq	$128, %rsp
	.seh_stackalloc 128
	leaq	128(%rsp), %rbp
	.seh_setframe %rbp, 128
	.seh_endprologue
	movq	$-2, -8(%rbp)
	movq	%r8, -88(%rbp)
.Ltmp273:
	movq	%rdx, -80(%rbp)
	movq	%rcx, %rax
	movq	%rax, -72(%rbp)
	movq	%rdx, -16(%rbp)
.Ltmp274:
	.cv_loc	64 24 898 0
	movb	$0, -17(%rbp)
	movb	$1, -17(%rbp)
.Ltmp269:
	callq	_ZN4core3ptr4read17h887100b84bdd2275E
.Ltmp275:
.Ltmp270:
	jmp	.LBB53_2
.Ltmp276:
.LBB53_2:
	.cv_loc	64 24 899 0
	movq	-80(%rbp), %rcx
	movq	-88(%rbp), %rax
.Ltmp277:
	movb	$0, -17(%rbp)
	vmovups	(%rax), %ymm0
	vmovups	%ymm0, -64(%rbp)
.Ltmp271:
	leaq	-64(%rbp), %rdx
	vzeroupper
	callq	_ZN4core3ptr5write17h260bf614a17e9036E
.Ltmp272:
	jmp	.LBB53_4
.Ltmp278:
.LBB53_4:
	.cv_loc	64 24 902 0
	movq	-72(%rbp), %rax
	addq	$128, %rsp
	popq	%rbp
	retq
.Ltmp279:
	.seh_handlerdata
	.long	($cppxdata$_ZN4core3mem7replace17h26140b87d8f86a50E)@IMGREL
	.section	.text,"xr",one_only,_ZN4core3mem7replace17h26140b87d8f86a50E
	.seh_endproc
	.def	"?dtor$1@?0?_ZN4core3mem7replace17h26140b87d8f86a50E@4HA";
	.scl	3;
	.type	32;
	.endef
	.p2align	4, 0x90
"?dtor$1@?0?_ZN4core3mem7replace17h26140b87d8f86a50E@4HA":
.seh_proc "?dtor$1@?0?_ZN4core3mem7replace17h26140b87d8f86a50E@4HA"
.LBB53_1:
	movq	%rdx, 16(%rsp)
	pushq	%rbp
	.seh_pushreg %rbp
	subq	$32, %rsp
	.seh_stackalloc 32
	leaq	128(%rdx), %rbp
	.seh_endprologue
	testb	$1, -17(%rbp)
	jne	.LBB53_6
	jmp	.LBB53_5
.LBB53_5:
	.cv_loc	64 24 893 0
	addq	$32, %rsp
	popq	%rbp
	retq
.LBB53_6:
	.cv_loc	64 24 902 0
	jmp	.LBB53_5
	.seh_handlerdata
	.section	.text,"xr",one_only,_ZN4core3mem7replace17h26140b87d8f86a50E
	.seh_endproc
	.def	"?dtor$3@?0?_ZN4core3mem7replace17h26140b87d8f86a50E@4HA";
	.scl	3;
	.type	32;
	.endef
	.p2align	4, 0x90
"?dtor$3@?0?_ZN4core3mem7replace17h26140b87d8f86a50E@4HA":
.seh_proc "?dtor$3@?0?_ZN4core3mem7replace17h26140b87d8f86a50E@4HA"
.LBB53_3:
.Ltmp280:
	movq	%rdx, 16(%rsp)
	pushq	%rbp
	.seh_pushreg %rbp
	subq	$32, %rsp
	.seh_stackalloc 32
	leaq	128(%rdx), %rbp
.Ltmp281:
	.seh_endprologue
	.cv_loc	64 24 901 0
	addq	$32, %rsp
	popq	%rbp
	retq
.Ltmp282:
.Lfunc_end53:
	.seh_handlerdata
	.section	.text,"xr",one_only,_ZN4core3mem7replace17h26140b87d8f86a50E
	.seh_endproc
	.section	.xdata,"dr",associative,_ZN4core3mem7replace17h26140b87d8f86a50E
	.p2align	2
$cppxdata$_ZN4core3mem7replace17h26140b87d8f86a50E:
	.long	429065506
	.long	2
	.long	($stateUnwindMap$_ZN4core3mem7replace17h26140b87d8f86a50E)@IMGREL
	.long	0
	.long	0
	.long	4
	.long	($ip2state$_ZN4core3mem7replace17h26140b87d8f86a50E)@IMGREL
	.long	120
	.long	0
	.long	1
$stateUnwindMap$_ZN4core3mem7replace17h26140b87d8f86a50E:
	.long	-1
	.long	"?dtor$1@?0?_ZN4core3mem7replace17h26140b87d8f86a50E@4HA"@IMGREL
	.long	0
	.long	"?dtor$3@?0?_ZN4core3mem7replace17h26140b87d8f86a50E@4HA"@IMGREL
$ip2state$_ZN4core3mem7replace17h26140b87d8f86a50E:
	.long	.Lfunc_begin53@IMGREL
	.long	-1
	.long	.Ltmp269@IMGREL+1
	.long	0
	.long	.Ltmp271@IMGREL+1
	.long	1
	.long	.Ltmp272@IMGREL+1
	.long	-1
	.section	.text,"xr",one_only,_ZN4core3mem7replace17h26140b87d8f86a50E

	.def	_ZN4core3mem7replace17h3f3d0feb061f4d2eE;
	.scl	3;
	.type	32;
	.endef
	.section	.text,"xr",one_only,_ZN4core3mem7replace17h3f3d0feb061f4d2eE
	.p2align	4, 0x90
_ZN4core3mem7replace17h3f3d0feb061f4d2eE:
.Lfunc_begin54:
	.cv_func_id 65
	.cv_loc	65 24 893 0
.seh_proc _ZN4core3mem7replace17h3f3d0feb061f4d2eE
	.seh_handler __CxxFrameHandler3, @unwind, @except
	pushq	%rbp
	.seh_pushreg %rbp
	subq	$128, %rsp
	.seh_stackalloc 128
	leaq	128(%rsp), %rbp
	.seh_setframe %rbp, 128
	.seh_endprologue
	movq	$-2, -8(%rbp)
	movq	%r8, -96(%rbp)
	movq	%rdx, -88(%rbp)
	movq	%rcx, -80(%rbp)
	movq	%rcx, -48(%rbp)
	movq	%rdx, -40(%rbp)
	movq	%r8, -32(%rbp)
.Ltmp287:
	.cv_loc	65 24 898 0
	movb	$0, -49(%rbp)
	movb	$1, -49(%rbp)
.Ltmp283:
	callq	_ZN4core3ptr4read17h09da6b1c65448aaeE
.Ltmp284:
	movq	%rdx, -72(%rbp)
	movq	%rax, -64(%rbp)
	jmp	.LBB54_2
.LBB54_2:
	movq	-96(%rbp), %r8
	movq	-88(%rbp), %rdx
	movq	-80(%rbp), %rcx
	movq	-72(%rbp), %rax
	movq	-64(%rbp), %r9
	movq	%r9, -24(%rbp)
	movq	%rax, -16(%rbp)
.Ltmp288:
	.cv_loc	65 24 899 0
	movb	$0, -49(%rbp)
.Ltmp285:
	callq	_ZN4core3ptr5write17h7a07f1e532a997c2E
.Ltmp286:
	jmp	.LBB54_4
.Ltmp289:
.LBB54_4:
	.cv_loc	65 24 902 0
	movq	-72(%rbp), %rdx
	movq	-64(%rbp), %rax
	addq	$128, %rsp
	popq	%rbp
	retq
	.seh_handlerdata
	.long	($cppxdata$_ZN4core3mem7replace17h3f3d0feb061f4d2eE)@IMGREL
	.section	.text,"xr",one_only,_ZN4core3mem7replace17h3f3d0feb061f4d2eE
	.seh_endproc
	.def	"?dtor$1@?0?_ZN4core3mem7replace17h3f3d0feb061f4d2eE@4HA";
	.scl	3;
	.type	32;
	.endef
	.p2align	4, 0x90
"?dtor$1@?0?_ZN4core3mem7replace17h3f3d0feb061f4d2eE@4HA":
.seh_proc "?dtor$1@?0?_ZN4core3mem7replace17h3f3d0feb061f4d2eE@4HA"
.LBB54_1:
	movq	%rdx, 16(%rsp)
	pushq	%rbp
	.seh_pushreg %rbp
	subq	$32, %rsp
	.seh_stackalloc 32
	leaq	128(%rdx), %rbp
	.seh_endprologue
	testb	$1, -49(%rbp)
	jne	.LBB54_6
	jmp	.LBB54_5
.LBB54_5:
	.cv_loc	65 24 893 0
	addq	$32, %rsp
	popq	%rbp
	retq
.LBB54_6:
	.cv_loc	65 24 902 0
	jmp	.LBB54_5
	.seh_handlerdata
	.section	.text,"xr",one_only,_ZN4core3mem7replace17h3f3d0feb061f4d2eE
	.seh_endproc
	.def	"?dtor$3@?0?_ZN4core3mem7replace17h3f3d0feb061f4d2eE@4HA";
	.scl	3;
	.type	32;
	.endef
	.p2align	4, 0x90
"?dtor$3@?0?_ZN4core3mem7replace17h3f3d0feb061f4d2eE@4HA":
.seh_proc "?dtor$3@?0?_ZN4core3mem7replace17h3f3d0feb061f4d2eE@4HA"
.LBB54_3:
	movq	%rdx, 16(%rsp)
	pushq	%rbp
	.seh_pushreg %rbp
	subq	$32, %rsp
	.seh_stackalloc 32
	leaq	128(%rdx), %rbp
	.seh_endprologue
	.cv_loc	65 24 901 0
	addq	$32, %rsp
	popq	%rbp
	retq
.Ltmp290:
.Lfunc_end54:
	.seh_handlerdata
	.section	.text,"xr",one_only,_ZN4core3mem7replace17h3f3d0feb061f4d2eE
	.seh_endproc
	.section	.xdata,"dr",associative,_ZN4core3mem7replace17h3f3d0feb061f4d2eE
	.p2align	2
$cppxdata$_ZN4core3mem7replace17h3f3d0feb061f4d2eE:
	.long	429065506
	.long	2
	.long	($stateUnwindMap$_ZN4core3mem7replace17h3f3d0feb061f4d2eE)@IMGREL
	.long	0
	.long	0
	.long	4
	.long	($ip2state$_ZN4core3mem7replace17h3f3d0feb061f4d2eE)@IMGREL
	.long	120
	.long	0
	.long	1
$stateUnwindMap$_ZN4core3mem7replace17h3f3d0feb061f4d2eE:
	.long	-1
	.long	"?dtor$1@?0?_ZN4core3mem7replace17h3f3d0feb061f4d2eE@4HA"@IMGREL
	.long	0
	.long	"?dtor$3@?0?_ZN4core3mem7replace17h3f3d0feb061f4d2eE@4HA"@IMGREL
$ip2state$_ZN4core3mem7replace17h3f3d0feb061f4d2eE:
	.long	.Lfunc_begin54@IMGREL
	.long	-1
	.long	.Ltmp283@IMGREL+1
	.long	0
	.long	.Ltmp285@IMGREL+1
	.long	1
	.long	.Ltmp286@IMGREL+1
	.long	-1
	.section	.text,"xr",one_only,_ZN4core3mem7replace17h3f3d0feb061f4d2eE

	.def	_ZN4core3mem7replace17hf26e417d5625d16cE;
	.scl	3;
	.type	32;
	.endef
	.section	.text,"xr",one_only,_ZN4core3mem7replace17hf26e417d5625d16cE
	.p2align	4, 0x90
_ZN4core3mem7replace17hf26e417d5625d16cE:
.Lfunc_begin55:
	.cv_func_id 66
	.cv_loc	66 24 893 0
.seh_proc _ZN4core3mem7replace17hf26e417d5625d16cE
	.seh_handler __CxxFrameHandler3, @unwind, @except
	pushq	%rbp
	.seh_pushreg %rbp
	subq	$96, %rsp
	.seh_stackalloc 96
	leaq	96(%rsp), %rbp
	.seh_setframe %rbp, 96
	.seh_endprologue
	movq	$-2, -8(%rbp)
	movq	%rdx, -64(%rbp)
	movq	%rcx, -56(%rbp)
	movq	%rcx, -32(%rbp)
	movq	%rdx, -24(%rbp)
.Ltmp295:
	.cv_loc	66 24 898 0
	movb	$0, -33(%rbp)
	movb	$1, -33(%rbp)
.Ltmp291:
	callq	_ZN4core3ptr4read17h0a09ec0683704366E
.Ltmp292:
	movq	%rax, -48(%rbp)
	jmp	.LBB55_2
.LBB55_2:
	movq	-64(%rbp), %rdx
	movq	-56(%rbp), %rcx
	movq	-48(%rbp), %rax
	movq	%rax, -16(%rbp)
.Ltmp296:
	.cv_loc	66 24 899 0
	movb	$0, -33(%rbp)
.Ltmp293:
	callq	_ZN4core3ptr5write17h2393d5ecc12d21c1E
.Ltmp294:
	jmp	.LBB55_4
.Ltmp297:
.LBB55_4:
	.cv_loc	66 24 902 0
	movq	-48(%rbp), %rax
	addq	$96, %rsp
	popq	%rbp
	retq
	.seh_handlerdata
	.long	($cppxdata$_ZN4core3mem7replace17hf26e417d5625d16cE)@IMGREL
	.section	.text,"xr",one_only,_ZN4core3mem7replace17hf26e417d5625d16cE
	.seh_endproc
	.def	"?dtor$1@?0?_ZN4core3mem7replace17hf26e417d5625d16cE@4HA";
	.scl	3;
	.type	32;
	.endef
	.p2align	4, 0x90
"?dtor$1@?0?_ZN4core3mem7replace17hf26e417d5625d16cE@4HA":
.seh_proc "?dtor$1@?0?_ZN4core3mem7replace17hf26e417d5625d16cE@4HA"
.LBB55_1:
	movq	%rdx, 16(%rsp)
	pushq	%rbp
	.seh_pushreg %rbp
	subq	$32, %rsp
	.seh_stackalloc 32
	leaq	96(%rdx), %rbp
	.seh_endprologue
	testb	$1, -33(%rbp)
	jne	.LBB55_6
	jmp	.LBB55_5
.LBB55_5:
	.cv_loc	66 24 893 0
	addq	$32, %rsp
	popq	%rbp
	retq
.LBB55_6:
	.cv_loc	66 24 902 0
	jmp	.LBB55_5
	.seh_handlerdata
	.section	.text,"xr",one_only,_ZN4core3mem7replace17hf26e417d5625d16cE
	.seh_endproc
	.def	"?dtor$3@?0?_ZN4core3mem7replace17hf26e417d5625d16cE@4HA";
	.scl	3;
	.type	32;
	.endef
	.p2align	4, 0x90
"?dtor$3@?0?_ZN4core3mem7replace17hf26e417d5625d16cE@4HA":
.seh_proc "?dtor$3@?0?_ZN4core3mem7replace17hf26e417d5625d16cE@4HA"
.LBB55_3:
	movq	%rdx, 16(%rsp)
	pushq	%rbp
	.seh_pushreg %rbp
	subq	$32, %rsp
	.seh_stackalloc 32
	leaq	96(%rdx), %rbp
	.seh_endprologue
	.cv_loc	66 24 901 0
	addq	$32, %rsp
	popq	%rbp
	retq
.Ltmp298:
.Lfunc_end55:
	.seh_handlerdata
	.section	.text,"xr",one_only,_ZN4core3mem7replace17hf26e417d5625d16cE
	.seh_endproc
	.section	.xdata,"dr",associative,_ZN4core3mem7replace17hf26e417d5625d16cE
	.p2align	2
$cppxdata$_ZN4core3mem7replace17hf26e417d5625d16cE:
	.long	429065506
	.long	2
	.long	($stateUnwindMap$_ZN4core3mem7replace17hf26e417d5625d16cE)@IMGREL
	.long	0
	.long	0
	.long	4
	.long	($ip2state$_ZN4core3mem7replace17hf26e417d5625d16cE)@IMGREL
	.long	88
	.long	0
	.long	1
$stateUnwindMap$_ZN4core3mem7replace17hf26e417d5625d16cE:
	.long	-1
	.long	"?dtor$1@?0?_ZN4core3mem7replace17hf26e417d5625d16cE@4HA"@IMGREL
	.long	0
	.long	"?dtor$3@?0?_ZN4core3mem7replace17hf26e417d5625d16cE@4HA"@IMGREL
$ip2state$_ZN4core3mem7replace17hf26e417d5625d16cE:
	.long	.Lfunc_begin55@IMGREL
	.long	-1
	.long	.Ltmp291@IMGREL+1
	.long	0
	.long	.Ltmp293@IMGREL+1
	.long	1
	.long	.Ltmp294@IMGREL+1
	.long	-1
	.section	.text,"xr",one_only,_ZN4core3mem7replace17hf26e417d5625d16cE

	.def	_ZN4core3num20_$LT$impl$u20$u8$GT$21is_utf8_char_boundary17h4ce1b2dfc77e3356E;
	.scl	3;
	.type	32;
	.endef
	.section	.text,"xr",one_only,_ZN4core3num20_$LT$impl$u20$u8$GT$21is_utf8_char_boundary17h4ce1b2dfc77e3356E
	.p2align	4, 0x90
_ZN4core3num20_$LT$impl$u20$u8$GT$21is_utf8_char_boundary17h4ce1b2dfc77e3356E:
.Lfunc_begin56:
	.cv_func_id 67
	.cv_file	26 "/rustc/fe5b13d681f25ee6474be29d748c65adcd91f69e\\library\\core\\src\\num\\mod.rs" "A64A2822BFBAD7644430B3DEF18B99C3D3BA4C91" 2
	.cv_loc	67 26 813 0
.seh_proc _ZN4core3num20_$LT$impl$u20$u8$GT$21is_utf8_char_boundary17h4ce1b2dfc77e3356E
	pushq	%rax
	.seh_stackalloc 8
	.seh_endprologue
	movb	%cl, 7(%rsp)
.Ltmp299:
	.cv_loc	67 26 815 0
	cmpb	$-64, %cl
	setge	%al
	.cv_loc	67 26 816 0
	andb	$1, %al
	movzbl	%al, %eax
	popq	%rcx
	retq
.Ltmp300:
.Lfunc_end56:
	.seh_endproc

	.def	_ZN4core3num23_$LT$impl$u20$usize$GT$11checked_mul17h7f98892f80661540E;
	.scl	3;
	.type	32;
	.endef
	.section	.text,"xr",one_only,_ZN4core3num23_$LT$impl$u20$usize$GT$11checked_mul17h7f98892f80661540E
	.p2align	4, 0x90
_ZN4core3num23_$LT$impl$u20$usize$GT$11checked_mul17h7f98892f80661540E:
.Lfunc_begin57:
	.cv_func_id 68
	.cv_loc	68 21 552 0
.seh_proc _ZN4core3num23_$LT$impl$u20$usize$GT$11checked_mul17h7f98892f80661540E
	subq	$136, %rsp
	.seh_stackalloc 136
	.seh_endprologue
	movq	%rcx, %rax
	movq	%rax, 40(%rsp)
	movq	%rdx, 48(%rsp)
	movq	%rax, 88(%rsp)
	movq	%rdx, 96(%rsp)
.Ltmp301:
	.cv_inline_site_id 69 within 68 inlined_at 21 553 0
	.cv_loc	69 21 1683 0
	mulq	%rdx
	movq	%rax, 104(%rsp)
	seto	112(%rsp)
	movq	104(%rsp), %rcx
	movb	112(%rsp), %al
	movq	%rcx, 120(%rsp)
	movb	%al, 135(%rsp)
.Ltmp302:
	.cv_loc	69 21 1684 0
	movq	%rcx, 72(%rsp)
	movb	%al, 80(%rsp)
.Ltmp303:
	.cv_loc	69 21 1685 0
	movq	72(%rsp), %rax
	movq	%rax, 8(%rsp)
	movb	80(%rsp), %al
	movb	%al, 23(%rsp)
.Ltmp304:
	.cv_loc	68 21 553 0
	movb	23(%rsp), %al
	movq	8(%rsp), %rcx
	movq	%rcx, 56(%rsp)
	movb	%al, %cl
	andb	$1, %cl
	movb	%cl, 70(%rsp)
.Ltmp305:
	.cv_loc	68 21 554 0
	andb	$1, %al
	movb	%al, 71(%rsp)
	movb	71(%rsp), %al
	movb	%al, 7(%rsp)
	movb	7(%rsp), %al
	testb	$1, %al
	jne	.LBB57_4
	jmp	.LBB57_3
.LBB57_3:
	movq	8(%rsp), %rax
	movq	%rax, 32(%rsp)
	movq	$1, 24(%rsp)
	jmp	.LBB57_5
.LBB57_4:
	movq	$0, 24(%rsp)
.Ltmp306:
.LBB57_5:
	.cv_loc	68 21 555 0
	movq	24(%rsp), %rax
	movq	32(%rsp), %rdx
	addq	$136, %rsp
	retq
.Ltmp307:
.Lfunc_end57:
	.seh_endproc

	.def	_ZN4core3num7nonzero12NonZeroUsize13new_unchecked17h4f95a1735aaba8cdE;
	.scl	3;
	.type	32;
	.endef
	.section	.text,"xr",one_only,_ZN4core3num7nonzero12NonZeroUsize13new_unchecked17h4f95a1735aaba8cdE
	.p2align	4, 0x90
_ZN4core3num7nonzero12NonZeroUsize13new_unchecked17h4f95a1735aaba8cdE:
.Lfunc_begin58:
	.cv_func_id 70
	.cv_file	27 "/rustc/fe5b13d681f25ee6474be29d748c65adcd91f69e\\library\\core\\src\\num\\nonzero.rs" "9F856D381476FD688EEC00C3FC2602DE9B96AEFD" 2
	.cv_loc	70 27 56 0
.seh_proc _ZN4core3num7nonzero12NonZeroUsize13new_unchecked17h4f95a1735aaba8cdE
	subq	$16, %rsp
	.seh_stackalloc 16
	.seh_endprologue
	movq	%rcx, 8(%rsp)
.Ltmp308:
	.cv_loc	70 27 60 0
	movq	%rcx, (%rsp)
	.cv_loc	70 27 62 0
	movq	(%rsp), %rax
	addq	$16, %rsp
	retq
.Ltmp309:
.Lfunc_end58:
	.seh_endproc

	.def	_ZN4core3num7nonzero12NonZeroUsize3get17h40d2de6bec0fbd39E;
	.scl	3;
	.type	32;
	.endef
	.section	.text,"xr",one_only,_ZN4core3num7nonzero12NonZeroUsize3get17h40d2de6bec0fbd39E
	.p2align	4, 0x90
_ZN4core3num7nonzero12NonZeroUsize3get17h40d2de6bec0fbd39E:
.Lfunc_begin59:
	.cv_func_id 71
	.cv_loc	71 27 82 0
.seh_proc _ZN4core3num7nonzero12NonZeroUsize3get17h40d2de6bec0fbd39E
	pushq	%rax
	.seh_stackalloc 8
	.seh_endprologue
	movq	%rcx, %rax
	movq	%rax, (%rsp)
.Ltmp310:
	.cv_loc	71 27 84 0
	popq	%rcx
	retq
.Ltmp311:
.Lfunc_end59:
	.seh_endproc

	.def	_ZN4core3ops8function6FnOnce40call_once$u7b$$u7b$vtable.shim$u7d$$u7d$17he591b263f91d0805E;
	.scl	3;
	.type	32;
	.endef
	.section	.text,"xr",one_only,_ZN4core3ops8function6FnOnce40call_once$u7b$$u7b$vtable.shim$u7d$$u7d$17he591b263f91d0805E
	.p2align	4, 0x90
_ZN4core3ops8function6FnOnce40call_once$u7b$$u7b$vtable.shim$u7d$$u7d$17he591b263f91d0805E:
.Lfunc_begin60:
	.cv_func_id 72
	.cv_file	28 "/rustc/fe5b13d681f25ee6474be29d748c65adcd91f69e\\library\\core\\src\\ops\\function.rs" "9BEA7362FFF50BBE301170918847D3CA3912A24A" 2
	.cv_loc	72 28 227 0
.seh_proc _ZN4core3ops8function6FnOnce40call_once$u7b$$u7b$vtable.shim$u7d$$u7d$17he591b263f91d0805E
	subq	$56, %rsp
	.seh_stackalloc 56
	.seh_endprologue
	movq	%rcx, 48(%rsp)
.Ltmp312:
	movq	(%rcx), %rcx
	callq	_ZN4core3ops8function6FnOnce9call_once17h69fcd2521c84c360E
	movl	%eax, 36(%rsp)
	movl	36(%rsp), %eax
	addq	$56, %rsp
	retq
.Ltmp313:
.Lfunc_end60:
	.seh_endproc

	.def	_ZN4core3ops8function6FnOnce9call_once17h2922cef97bbe1631E;
	.scl	3;
	.type	32;
	.endef
	.section	.text,"xr",one_only,_ZN4core3ops8function6FnOnce9call_once17h2922cef97bbe1631E
	.p2align	4, 0x90
_ZN4core3ops8function6FnOnce9call_once17h2922cef97bbe1631E:
.Lfunc_begin61:
	.cv_func_id 73
	.cv_loc	73 28 227 0
.seh_proc _ZN4core3ops8function6FnOnce9call_once17h2922cef97bbe1631E
	subq	$72, %rsp
	.seh_stackalloc 72
	.seh_endprologue
	movq	%rcx, 48(%rsp)
	movq	%rdx, 56(%rsp)
.Ltmp314:
	movq	48(%rsp), %rcx
	movq	56(%rsp), %rdx
	callq	_ZN4core3cmp5impls50_$LT$impl$u20$core..cmp..Ord$u20$for$u20$usize$GT$3cmp17h606369d84761c826E
	movb	%al, 47(%rsp)
	movb	47(%rsp), %al
	addq	$72, %rsp
	retq
.Ltmp315:
.Lfunc_end61:
	.seh_endproc

	.def	_ZN4core3ops8function6FnOnce9call_once17h69fcd2521c84c360E;
	.scl	3;
	.type	32;
	.endef
	.section	.text,"xr",one_only,_ZN4core3ops8function6FnOnce9call_once17h69fcd2521c84c360E
	.p2align	4, 0x90
_ZN4core3ops8function6FnOnce9call_once17h69fcd2521c84c360E:
.Lfunc_begin62:
	.cv_func_id 74
	.cv_loc	74 28 227 0
.seh_proc _ZN4core3ops8function6FnOnce9call_once17h69fcd2521c84c360E
	.seh_handler __CxxFrameHandler3, @unwind, @except
	pushq	%rbp
	.seh_pushreg %rbp
	subq	$64, %rsp
	.seh_stackalloc 64
	leaq	64(%rsp), %rbp
	.seh_setframe %rbp, 64
	.seh_endprologue
	movq	$-2, -8(%rbp)
	movq	%rcx, -16(%rbp)
.Ltmp316:
	leaq	-16(%rbp), %rcx
.Ltmp318:
	callq	_ZN3std2rt10lang_start28_$u7b$$u7b$closure$u7d$$u7d$17h798aef67dcac7e8cE
.Ltmp317:
	movl	%eax, -20(%rbp)
	jmp	.LBB62_2
.LBB62_2:
	movl	-20(%rbp), %eax
	addq	$64, %rsp
	popq	%rbp
	retq
	.seh_handlerdata
	.long	($cppxdata$_ZN4core3ops8function6FnOnce9call_once17h69fcd2521c84c360E)@IMGREL
	.section	.text,"xr",one_only,_ZN4core3ops8function6FnOnce9call_once17h69fcd2521c84c360E
	.seh_endproc
	.def	"?dtor$1@?0?_ZN4core3ops8function6FnOnce9call_once17h69fcd2521c84c360E@4HA";
	.scl	3;
	.type	32;
	.endef
	.p2align	4, 0x90
"?dtor$1@?0?_ZN4core3ops8function6FnOnce9call_once17h69fcd2521c84c360E@4HA":
.seh_proc "?dtor$1@?0?_ZN4core3ops8function6FnOnce9call_once17h69fcd2521c84c360E@4HA"
.LBB62_1:
	movq	%rdx, 16(%rsp)
	pushq	%rbp
	.seh_pushreg %rbp
	subq	$32, %rsp
	.seh_stackalloc 32
	leaq	64(%rdx), %rbp
	.seh_endprologue
	addq	$32, %rsp
	popq	%rbp
	retq
.Ltmp319:
.Lfunc_end62:
	.seh_handlerdata
	.section	.text,"xr",one_only,_ZN4core3ops8function6FnOnce9call_once17h69fcd2521c84c360E
	.seh_endproc
	.section	.xdata,"dr",associative,_ZN4core3ops8function6FnOnce9call_once17h69fcd2521c84c360E
	.p2align	2
$cppxdata$_ZN4core3ops8function6FnOnce9call_once17h69fcd2521c84c360E:
	.long	429065506
	.long	1
	.long	($stateUnwindMap$_ZN4core3ops8function6FnOnce9call_once17h69fcd2521c84c360E)@IMGREL
	.long	0
	.long	0
	.long	3
	.long	($ip2state$_ZN4core3ops8function6FnOnce9call_once17h69fcd2521c84c360E)@IMGREL
	.long	56
	.long	0
	.long	1
$stateUnwindMap$_ZN4core3ops8function6FnOnce9call_once17h69fcd2521c84c360E:
	.long	-1
	.long	"?dtor$1@?0?_ZN4core3ops8function6FnOnce9call_once17h69fcd2521c84c360E@4HA"@IMGREL
$ip2state$_ZN4core3ops8function6FnOnce9call_once17h69fcd2521c84c360E:
	.long	.Lfunc_begin62@IMGREL
	.long	-1
	.long	.Ltmp316@IMGREL+1
	.long	0
	.long	.Ltmp317@IMGREL+1
	.long	-1
	.section	.text,"xr",one_only,_ZN4core3ops8function6FnOnce9call_once17h69fcd2521c84c360E

	.def	_ZN4core3ops8function6FnOnce9call_once17hb400d753960b571dE;
	.scl	3;
	.type	32;
	.endef
	.section	.text,"xr",one_only,_ZN4core3ops8function6FnOnce9call_once17hb400d753960b571dE
	.p2align	4, 0x90
_ZN4core3ops8function6FnOnce9call_once17hb400d753960b571dE:
.Lfunc_begin63:
	.cv_func_id 75
	.cv_loc	75 28 227 0
.seh_proc _ZN4core3ops8function6FnOnce9call_once17hb400d753960b571dE
	subq	$56, %rsp
	.seh_stackalloc 56
	.seh_endprologue
	movq	%rcx, 48(%rsp)
.Ltmp320:
	callq	*%rcx
	nop
	addq	$56, %rsp
	retq
.Ltmp321:
.Lfunc_end63:
	.seh_endproc

	.def	_ZN4core3ptr101drop_in_place$LT$std..io..error..ErrorData$LT$alloc..boxed..Box$LT$std..io..error..Custom$GT$$GT$$GT$17h1f14e204f845821dE;
	.scl	3;
	.type	32;
	.endef
	.section	.text,"xr",one_only,_ZN4core3ptr101drop_in_place$LT$std..io..error..ErrorData$LT$alloc..boxed..Box$LT$std..io..error..Custom$GT$$GT$$GT$17h1f14e204f845821dE
	.p2align	4, 0x90
_ZN4core3ptr101drop_in_place$LT$std..io..error..ErrorData$LT$alloc..boxed..Box$LT$std..io..error..Custom$GT$$GT$$GT$17h1f14e204f845821dE:
.Lfunc_begin64:
	.cv_func_id 76
	.cv_file	29 "/rustc/fe5b13d681f25ee6474be29d748c65adcd91f69e\\library\\core\\src\\ptr\\mod.rs" "CF8AB3B99E10D77E056BDE1ECF45617458F1302A" 2
	.cv_loc	76 29 448 0
.seh_proc _ZN4core3ptr101drop_in_place$LT$std..io..error..ErrorData$LT$alloc..boxed..Box$LT$std..io..error..Custom$GT$$GT$$GT$17h1f14e204f845821dE
	subq	$56, %rsp
	.seh_stackalloc 56
	.seh_endprologue
	movq	%rcx, 40(%rsp)
	movq	%rcx, 48(%rsp)
.Ltmp322:
	movb	(%rcx), %al
	subb	$3, %al
	jb	.LBB64_2
	jmp	.LBB64_1
.LBB64_1:
	movq	40(%rsp), %rcx
	addq	$8, %rcx
	callq	_ZN4core3ptr68drop_in_place$LT$alloc..boxed..Box$LT$std..io..error..Custom$GT$$GT$17hc73265a36caa2de4E
.LBB64_2:
	nop
	addq	$56, %rsp
	retq
.Ltmp323:
.Lfunc_end64:
	.seh_endproc

	.def	_ZN4core3ptr117drop_in_place$LT$alloc..boxed..Box$LT$dyn$u20$std..error..Error$u2b$core..marker..Send$u2b$core..marker..Sync$GT$$GT$17hae123006f0fe4875E;
	.scl	3;
	.type	32;
	.endef
	.section	.text,"xr",one_only,_ZN4core3ptr117drop_in_place$LT$alloc..boxed..Box$LT$dyn$u20$std..error..Error$u2b$core..marker..Send$u2b$core..marker..Sync$GT$$GT$17hae123006f0fe4875E
	.p2align	4, 0x90
_ZN4core3ptr117drop_in_place$LT$alloc..boxed..Box$LT$dyn$u20$std..error..Error$u2b$core..marker..Send$u2b$core..marker..Sync$GT$$GT$17hae123006f0fe4875E:
.Lfunc_begin65:
	.cv_func_id 77
	.cv_loc	77 29 448 0
.seh_proc _ZN4core3ptr117drop_in_place$LT$alloc..boxed..Box$LT$dyn$u20$std..error..Error$u2b$core..marker..Send$u2b$core..marker..Sync$GT$$GT$17hae123006f0fe4875E
	.seh_handler __CxxFrameHandler3, @unwind, @except
	pushq	%rbp
	.seh_pushreg %rbp
	subq	$64, %rsp
	.seh_stackalloc 64
	leaq	64(%rsp), %rbp
	.seh_setframe %rbp, 64
	.seh_endprologue
	movq	$-2, -8(%rbp)
	movq	%rcx, %rax
	movq	%rax, -24(%rbp)
	movq	%rax, -16(%rbp)
.Ltmp326:
	movq	(%rax), %rcx
	movq	8(%rax), %rax
	movq	(%rax), %rax
.Ltmp324:
	callq	*%rax
.Ltmp325:
	jmp	.LBB65_2
.LBB65_2:
	movq	-24(%rbp), %rax
	movq	(%rax), %rcx
	movq	8(%rax), %rdx
	callq	_ZN5alloc5alloc8box_free17h7306d05b75efb921E
	nop
	addq	$64, %rsp
	popq	%rbp
	retq
	.seh_handlerdata
	.long	($cppxdata$_ZN4core3ptr117drop_in_place$LT$alloc..boxed..Box$LT$dyn$u20$std..error..Error$u2b$core..marker..Send$u2b$core..marker..Sync$GT$$GT$17hae123006f0fe4875E)@IMGREL
	.section	.text,"xr",one_only,_ZN4core3ptr117drop_in_place$LT$alloc..boxed..Box$LT$dyn$u20$std..error..Error$u2b$core..marker..Send$u2b$core..marker..Sync$GT$$GT$17hae123006f0fe4875E
	.seh_endproc
	.def	"?dtor$1@?0?_ZN4core3ptr117drop_in_place$LT$alloc..boxed..Box$LT$dyn$u20$std..error..Error$u2b$core..marker..Send$u2b$core..marker..Sync$GT$$GT$17hae123006f0fe4875E@4HA";
	.scl	3;
	.type	32;
	.endef
	.p2align	4, 0x90
"?dtor$1@?0?_ZN4core3ptr117drop_in_place$LT$alloc..boxed..Box$LT$dyn$u20$std..error..Error$u2b$core..marker..Send$u2b$core..marker..Sync$GT$$GT$17hae123006f0fe4875E@4HA":
.seh_proc "?dtor$1@?0?_ZN4core3ptr117drop_in_place$LT$alloc..boxed..Box$LT$dyn$u20$std..error..Error$u2b$core..marker..Send$u2b$core..marker..Sync$GT$$GT$17hae123006f0fe4875E@4HA"
.LBB65_1:
	movq	%rdx, 16(%rsp)
	pushq	%rbp
	.seh_pushreg %rbp
	subq	$32, %rsp
	.seh_stackalloc 32
	leaq	64(%rdx), %rbp
	.seh_endprologue
	movq	-24(%rbp), %rax
	movq	(%rax), %rcx
	movq	8(%rax), %rdx
	callq	_ZN5alloc5alloc8box_free17h7306d05b75efb921E
	nop
	addq	$32, %rsp
	popq	%rbp
	retq
.Ltmp327:
.Lfunc_end65:
	.seh_handlerdata
	.section	.text,"xr",one_only,_ZN4core3ptr117drop_in_place$LT$alloc..boxed..Box$LT$dyn$u20$std..error..Error$u2b$core..marker..Send$u2b$core..marker..Sync$GT$$GT$17hae123006f0fe4875E
	.seh_endproc
	.section	.xdata,"dr",associative,_ZN4core3ptr117drop_in_place$LT$alloc..boxed..Box$LT$dyn$u20$std..error..Error$u2b$core..marker..Send$u2b$core..marker..Sync$GT$$GT$17hae123006f0fe4875E
	.p2align	2
$cppxdata$_ZN4core3ptr117drop_in_place$LT$alloc..boxed..Box$LT$dyn$u20$std..error..Error$u2b$core..marker..Send$u2b$core..marker..Sync$GT$$GT$17hae123006f0fe4875E:
	.long	429065506
	.long	1
	.long	($stateUnwindMap$_ZN4core3ptr117drop_in_place$LT$alloc..boxed..Box$LT$dyn$u20$std..error..Error$u2b$core..marker..Send$u2b$core..marker..Sync$GT$$GT$17hae123006f0fe4875E)@IMGREL
	.long	0
	.long	0
	.long	3
	.long	($ip2state$_ZN4core3ptr117drop_in_place$LT$alloc..boxed..Box$LT$dyn$u20$std..error..Error$u2b$core..marker..Send$u2b$core..marker..Sync$GT$$GT$17hae123006f0fe4875E)@IMGREL
	.long	56
	.long	0
	.long	1
$stateUnwindMap$_ZN4core3ptr117drop_in_place$LT$alloc..boxed..Box$LT$dyn$u20$std..error..Error$u2b$core..marker..Send$u2b$core..marker..Sync$GT$$GT$17hae123006f0fe4875E:
	.long	-1
	.long	"?dtor$1@?0?_ZN4core3ptr117drop_in_place$LT$alloc..boxed..Box$LT$dyn$u20$std..error..Error$u2b$core..marker..Send$u2b$core..marker..Sync$GT$$GT$17hae123006f0fe4875E@4HA"@IMGREL
$ip2state$_ZN4core3ptr117drop_in_place$LT$alloc..boxed..Box$LT$dyn$u20$std..error..Error$u2b$core..marker..Send$u2b$core..marker..Sync$GT$$GT$17hae123006f0fe4875E:
	.long	.Lfunc_begin65@IMGREL
	.long	-1
	.long	.Ltmp324@IMGREL+1
	.long	0
	.long	.Ltmp325@IMGREL+1
	.long	-1
	.section	.text,"xr",one_only,_ZN4core3ptr117drop_in_place$LT$alloc..boxed..Box$LT$dyn$u20$std..error..Error$u2b$core..marker..Send$u2b$core..marker..Sync$GT$$GT$17hae123006f0fe4875E

	.def	_ZN4core3ptr160drop_in_place$LT$alloc..collections..btree..map..BTreeMap$LT$std..sys..windows..process..EnvKey$C$core..option..Option$LT$std..ffi..os_str..OsString$GT$$GT$$GT$17h731ef39c42e80f6aE;
	.scl	3;
	.type	32;
	.endef
	.section	.text,"xr",one_only,_ZN4core3ptr160drop_in_place$LT$alloc..collections..btree..map..BTreeMap$LT$std..sys..windows..process..EnvKey$C$core..option..Option$LT$std..ffi..os_str..OsString$GT$$GT$$GT$17h731ef39c42e80f6aE
	.p2align	4, 0x90
_ZN4core3ptr160drop_in_place$LT$alloc..collections..btree..map..BTreeMap$LT$std..sys..windows..process..EnvKey$C$core..option..Option$LT$std..ffi..os_str..OsString$GT$$GT$$GT$17h731ef39c42e80f6aE:
.Lfunc_begin66:
	.cv_func_id 78
	.cv_loc	78 29 448 0
.seh_proc _ZN4core3ptr160drop_in_place$LT$alloc..collections..btree..map..BTreeMap$LT$std..sys..windows..process..EnvKey$C$core..option..Option$LT$std..ffi..os_str..OsString$GT$$GT$$GT$17h731ef39c42e80f6aE
	subq	$40, %rsp
	.seh_stackalloc 40
	.seh_endprologue
	movq	%rcx, 32(%rsp)
.Ltmp328:
	callq	_ZN95_$LT$alloc..collections..btree..map..BTreeMap$LT$K$C$V$GT$$u20$as$u20$core..ops..drop..Drop$GT$4drop17hc7d18d53bbee4835E
	nop
	addq	$40, %rsp
	retq
.Ltmp329:
.Lfunc_end66:
	.seh_endproc

	.def	_ZN4core3ptr160drop_in_place$LT$alloc..collections..btree..map..IntoIter$LT$std..sys..windows..process..EnvKey$C$core..option..Option$LT$std..ffi..os_str..OsString$GT$$GT$$GT$17hce9f0fce0fb2501cE;
	.scl	3;
	.type	32;
	.endef
	.section	.text,"xr",one_only,_ZN4core3ptr160drop_in_place$LT$alloc..collections..btree..map..IntoIter$LT$std..sys..windows..process..EnvKey$C$core..option..Option$LT$std..ffi..os_str..OsString$GT$$GT$$GT$17hce9f0fce0fb2501cE
	.p2align	4, 0x90
_ZN4core3ptr160drop_in_place$LT$alloc..collections..btree..map..IntoIter$LT$std..sys..windows..process..EnvKey$C$core..option..Option$LT$std..ffi..os_str..OsString$GT$$GT$$GT$17hce9f0fce0fb2501cE:
.Lfunc_begin67:
	.cv_func_id 79
	.cv_loc	79 29 448 0
.seh_proc _ZN4core3ptr160drop_in_place$LT$alloc..collections..btree..map..IntoIter$LT$std..sys..windows..process..EnvKey$C$core..option..Option$LT$std..ffi..os_str..OsString$GT$$GT$$GT$17hce9f0fce0fb2501cE
	subq	$40, %rsp
	.seh_stackalloc 40
	.seh_endprologue
	movq	%rcx, 32(%rsp)
.Ltmp330:
	callq	_ZN95_$LT$alloc..collections..btree..map..IntoIter$LT$K$C$V$GT$$u20$as$u20$core..ops..drop..Drop$GT$4drop17h46ca8508c0f18d5cE
	nop
	addq	$40, %rsp
	retq
.Ltmp331:
.Lfunc_end67:
	.seh_endproc

	.def	_ZN4core3ptr20slice_from_raw_parts17h3c91452bd7ed0b41E;
	.scl	3;
	.type	32;
	.endef
	.section	.text,"xr",one_only,_ZN4core3ptr20slice_from_raw_parts17h3c91452bd7ed0b41E
	.p2align	4, 0x90
_ZN4core3ptr20slice_from_raw_parts17h3c91452bd7ed0b41E:
.Lfunc_begin68:
	.cv_func_id 80
	.cv_loc	80 29 573 0
.seh_proc _ZN4core3ptr20slice_from_raw_parts17h3c91452bd7ed0b41E
	subq	$88, %rsp
	.seh_stackalloc 88
	.seh_endprologue
	movq	%rdx, 56(%rsp)
	movq	%rcx, 72(%rsp)
	movq	%rdx, 80(%rsp)
.Ltmp332:
	.cv_loc	80 29 574 0
	callq	_ZN4core3ptr9const_ptr33_$LT$impl$u20$$BP$const$u20$T$GT$4cast17h8897d96369085efdE
	movq	%rax, 64(%rsp)
	movq	56(%rsp), %rdx
	movq	64(%rsp), %rcx
	callq	_ZN4core3ptr8metadata14from_raw_parts17h2ead687b16b0b15aE
	movq	%rax, 40(%rsp)
	movq	%rdx, 48(%rsp)
	.cv_loc	80 29 575 0
	movq	48(%rsp), %rdx
	movq	40(%rsp), %rax
	addq	$88, %rsp
	retq
.Ltmp333:
.Lfunc_end68:
	.seh_endproc

	.def	_ZN4core3ptr231drop_in_place$LT$$LT$alloc..collections..btree..map..IntoIter$LT$K$C$V$GT$$u20$as$u20$core..ops..drop..Drop$GT$..drop..DropGuard$LT$std..sys..windows..process..EnvKey$C$core..option..Option$LT$std..ffi..os_str..OsString$GT$$GT$$GT$17he7dc50ced2f65fb6E;
	.scl	3;
	.type	32;
	.endef
	.section	.text,"xr",one_only,_ZN4core3ptr231drop_in_place$LT$$LT$alloc..collections..btree..map..IntoIter$LT$K$C$V$GT$$u20$as$u20$core..ops..drop..Drop$GT$..drop..DropGuard$LT$std..sys..windows..process..EnvKey$C$core..option..Option$LT$std..ffi..os_str..OsString$GT$$GT$$GT$17he7dc50ced2f65fb6E
	.p2align	4, 0x90
_ZN4core3ptr231drop_in_place$LT$$LT$alloc..collections..btree..map..IntoIter$LT$K$C$V$GT$$u20$as$u20$core..ops..drop..Drop$GT$..drop..DropGuard$LT$std..sys..windows..process..EnvKey$C$core..option..Option$LT$std..ffi..os_str..OsString$GT$$GT$$GT$17he7dc50ced2f65fb6E:
.Lfunc_begin69:
	.cv_func_id 81
	.cv_loc	81 29 448 0
.seh_proc _ZN4core3ptr231drop_in_place$LT$$LT$alloc..collections..btree..map..IntoIter$LT$K$C$V$GT$$u20$as$u20$core..ops..drop..Drop$GT$..drop..DropGuard$LT$std..sys..windows..process..EnvKey$C$core..option..Option$LT$std..ffi..os_str..OsString$GT$$GT$$GT$17he7dc50ced2f65fb6E
	subq	$40, %rsp
	.seh_stackalloc 40
	.seh_endprologue
	movq	%rcx, 32(%rsp)
.Ltmp334:
	callq	_ZN166_$LT$$LT$alloc..collections..btree..map..IntoIter$LT$K$C$V$GT$$u20$as$u20$core..ops..drop..Drop$GT$..drop..DropGuard$LT$K$C$V$GT$$u20$as$u20$core..ops..drop..Drop$GT$4drop17hd166e4c26c15c0aaE
	nop
	addq	$40, %rsp
	retq
.Ltmp335:
.Lfunc_end69:
	.seh_endproc

	.def	_ZN4core3ptr24slice_from_raw_parts_mut17h8d3894fe3192741dE;
	.scl	3;
	.type	32;
	.endef
	.section	.text,"xr",one_only,_ZN4core3ptr24slice_from_raw_parts_mut17h8d3894fe3192741dE
	.p2align	4, 0x90
_ZN4core3ptr24slice_from_raw_parts_mut17h8d3894fe3192741dE:
.Lfunc_begin70:
	.cv_func_id 82
	.cv_loc	82 29 605 0
.seh_proc _ZN4core3ptr24slice_from_raw_parts_mut17h8d3894fe3192741dE
	subq	$88, %rsp
	.seh_stackalloc 88
	.seh_endprologue
	movq	%rdx, 48(%rsp)
	movq	%rcx, 64(%rsp)
	movq	%rdx, 72(%rsp)
	movq	%rcx, 80(%rsp)
	movq	%rcx, 56(%rsp)
	.cv_loc	82 29 606 0
	movq	48(%rsp), %rdx
	movq	56(%rsp), %rcx
.Ltmp336:
	callq	_ZN4core3ptr8metadata18from_raw_parts_mut17hcad8dd33370f0715E
	movq	%rax, 32(%rsp)
	movq	%rdx, 40(%rsp)
	.cv_loc	82 29 607 0
	movq	40(%rsp), %rdx
	movq	32(%rsp), %rax
	addq	$88, %rsp
	retq
.Ltmp337:
.Lfunc_end70:
	.seh_endproc

	.def	_ZN4core3ptr24slice_from_raw_parts_mut17ha4ad86a4cda508e7E;
	.scl	3;
	.type	32;
	.endef
	.section	.text,"xr",one_only,_ZN4core3ptr24slice_from_raw_parts_mut17ha4ad86a4cda508e7E
	.p2align	4, 0x90
_ZN4core3ptr24slice_from_raw_parts_mut17ha4ad86a4cda508e7E:
.Lfunc_begin71:
	.cv_func_id 83
	.cv_loc	83 29 605 0
.seh_proc _ZN4core3ptr24slice_from_raw_parts_mut17ha4ad86a4cda508e7E
	subq	$88, %rsp
	.seh_stackalloc 88
	.seh_endprologue
	movq	%rdx, 48(%rsp)
	movq	%rcx, 64(%rsp)
	movq	%rdx, 72(%rsp)
	movq	%rcx, 80(%rsp)
	movq	%rcx, 56(%rsp)
	.cv_loc	83 29 606 0
	movq	48(%rsp), %rdx
	movq	56(%rsp), %rcx
.Ltmp338:
	callq	_ZN4core3ptr8metadata18from_raw_parts_mut17hbc07de64c9c9aefbE
	movq	%rax, 32(%rsp)
	movq	%rdx, 40(%rsp)
	.cv_loc	83 29 607 0
	movq	40(%rsp), %rdx
	movq	32(%rsp), %rax
	addq	$88, %rsp
	retq
.Ltmp339:
.Lfunc_end71:
	.seh_endproc

	.def	_ZN4core3ptr24slice_from_raw_parts_mut17hd56189517b0c208cE;
	.scl	3;
	.type	32;
	.endef
	.section	.text,"xr",one_only,_ZN4core3ptr24slice_from_raw_parts_mut17hd56189517b0c208cE
	.p2align	4, 0x90
_ZN4core3ptr24slice_from_raw_parts_mut17hd56189517b0c208cE:
.Lfunc_begin72:
	.cv_func_id 84
	.cv_loc	84 29 605 0
.seh_proc _ZN4core3ptr24slice_from_raw_parts_mut17hd56189517b0c208cE
	subq	$88, %rsp
	.seh_stackalloc 88
	.seh_endprologue
	movq	%rdx, 48(%rsp)
	movq	%rcx, 64(%rsp)
	movq	%rdx, 72(%rsp)
	movq	%rcx, 80(%rsp)
	movq	%rcx, 56(%rsp)
	.cv_loc	84 29 606 0
	movq	48(%rsp), %rdx
	movq	56(%rsp), %rcx
.Ltmp340:
	callq	_ZN4core3ptr8metadata18from_raw_parts_mut17h7fdff47384806ff3E
	movq	%rax, 32(%rsp)
	movq	%rdx, 40(%rsp)
	.cv_loc	84 29 607 0
	movq	40(%rsp), %rdx
	movq	32(%rsp), %rax
	addq	$88, %rsp
	retq
.Ltmp341:
.Lfunc_end72:
	.seh_endproc

	.def	_ZN4core3ptr41drop_in_place$LT$std..process..Output$GT$17h4d3d0ccae72b05c1E;
	.scl	3;
	.type	32;
	.endef
	.section	.text,"xr",one_only,_ZN4core3ptr41drop_in_place$LT$std..process..Output$GT$17h4d3d0ccae72b05c1E
	.p2align	4, 0x90
_ZN4core3ptr41drop_in_place$LT$std..process..Output$GT$17h4d3d0ccae72b05c1E:
.Lfunc_begin73:
	.cv_func_id 85
	.cv_loc	85 29 448 0
.seh_proc _ZN4core3ptr41drop_in_place$LT$std..process..Output$GT$17h4d3d0ccae72b05c1E
	.seh_handler __CxxFrameHandler3, @unwind, @except
	pushq	%rbp
	.seh_pushreg %rbp
	subq	$64, %rsp
	.seh_stackalloc 64
	leaq	64(%rsp), %rbp
	.seh_setframe %rbp, 64
	.seh_endprologue
	movq	$-2, -8(%rbp)
	movq	%rcx, -24(%rbp)
	movq	%rcx, -16(%rbp)
.Ltmp342:
.Ltmp344:
	callq	_ZN4core3ptr46drop_in_place$LT$alloc..vec..Vec$LT$u8$GT$$GT$17hcad8922cde66373aE
.Ltmp343:
	jmp	.LBB73_2
.LBB73_2:
	movq	-24(%rbp), %rcx
	addq	$24, %rcx
	callq	_ZN4core3ptr46drop_in_place$LT$alloc..vec..Vec$LT$u8$GT$$GT$17hcad8922cde66373aE
	nop
	addq	$64, %rsp
	popq	%rbp
	retq
	.seh_handlerdata
	.long	($cppxdata$_ZN4core3ptr41drop_in_place$LT$std..process..Output$GT$17h4d3d0ccae72b05c1E)@IMGREL
	.section	.text,"xr",one_only,_ZN4core3ptr41drop_in_place$LT$std..process..Output$GT$17h4d3d0ccae72b05c1E
	.seh_endproc
	.def	"?dtor$1@?0?_ZN4core3ptr41drop_in_place$LT$std..process..Output$GT$17h4d3d0ccae72b05c1E@4HA";
	.scl	3;
	.type	32;
	.endef
	.p2align	4, 0x90
"?dtor$1@?0?_ZN4core3ptr41drop_in_place$LT$std..process..Output$GT$17h4d3d0ccae72b05c1E@4HA":
.seh_proc "?dtor$1@?0?_ZN4core3ptr41drop_in_place$LT$std..process..Output$GT$17h4d3d0ccae72b05c1E@4HA"
.LBB73_1:
	movq	%rdx, 16(%rsp)
	pushq	%rbp
	.seh_pushreg %rbp
	subq	$32, %rsp
	.seh_stackalloc 32
	leaq	64(%rdx), %rbp
	.seh_endprologue
	movq	-24(%rbp), %rcx
	addq	$24, %rcx
	callq	_ZN4core3ptr46drop_in_place$LT$alloc..vec..Vec$LT$u8$GT$$GT$17hcad8922cde66373aE
	nop
	addq	$32, %rsp
	popq	%rbp
	retq
.Ltmp345:
.Lfunc_end73:
	.seh_handlerdata
	.section	.text,"xr",one_only,_ZN4core3ptr41drop_in_place$LT$std..process..Output$GT$17h4d3d0ccae72b05c1E
	.seh_endproc
	.section	.xdata,"dr",associative,_ZN4core3ptr41drop_in_place$LT$std..process..Output$GT$17h4d3d0ccae72b05c1E
	.p2align	2
$cppxdata$_ZN4core3ptr41drop_in_place$LT$std..process..Output$GT$17h4d3d0ccae72b05c1E:
	.long	429065506
	.long	1
	.long	($stateUnwindMap$_ZN4core3ptr41drop_in_place$LT$std..process..Output$GT$17h4d3d0ccae72b05c1E)@IMGREL
	.long	0
	.long	0
	.long	3
	.long	($ip2state$_ZN4core3ptr41drop_in_place$LT$std..process..Output$GT$17h4d3d0ccae72b05c1E)@IMGREL
	.long	56
	.long	0
	.long	1
$stateUnwindMap$_ZN4core3ptr41drop_in_place$LT$std..process..Output$GT$17h4d3d0ccae72b05c1E:
	.long	-1
	.long	"?dtor$1@?0?_ZN4core3ptr41drop_in_place$LT$std..process..Output$GT$17h4d3d0ccae72b05c1E@4HA"@IMGREL
$ip2state$_ZN4core3ptr41drop_in_place$LT$std..process..Output$GT$17h4d3d0ccae72b05c1E:
	.long	.Lfunc_begin73@IMGREL
	.long	-1
	.long	.Ltmp342@IMGREL+1
	.long	0
	.long	.Ltmp343@IMGREL+1
	.long	-1
	.section	.text,"xr",one_only,_ZN4core3ptr41drop_in_place$LT$std..process..Output$GT$17h4d3d0ccae72b05c1E

	.def	_ZN4core3ptr42drop_in_place$LT$alloc..string..String$GT$17h0bb9fd202bf46d54E;
	.scl	3;
	.type	32;
	.endef
	.section	.text,"xr",one_only,_ZN4core3ptr42drop_in_place$LT$alloc..string..String$GT$17h0bb9fd202bf46d54E
	.p2align	4, 0x90
_ZN4core3ptr42drop_in_place$LT$alloc..string..String$GT$17h0bb9fd202bf46d54E:
.Lfunc_begin74:
	.cv_func_id 86
	.cv_loc	86 29 448 0
.seh_proc _ZN4core3ptr42drop_in_place$LT$alloc..string..String$GT$17h0bb9fd202bf46d54E
	subq	$40, %rsp
	.seh_stackalloc 40
	.seh_endprologue
	movq	%rcx, 32(%rsp)
.Ltmp346:
	callq	_ZN4core3ptr46drop_in_place$LT$alloc..vec..Vec$LT$u8$GT$$GT$17hcad8922cde66373aE
	nop
	addq	$40, %rsp
	retq
.Ltmp347:
.Lfunc_end74:
	.seh_endproc

	.def	_ZN4core3ptr42drop_in_place$LT$std..io..error..Error$GT$17h95d3f83b44cd527bE;
	.scl	3;
	.type	32;
	.endef
	.section	.text,"xr",one_only,_ZN4core3ptr42drop_in_place$LT$std..io..error..Error$GT$17h95d3f83b44cd527bE
	.p2align	4, 0x90
_ZN4core3ptr42drop_in_place$LT$std..io..error..Error$GT$17h95d3f83b44cd527bE:
.Lfunc_begin75:
	.cv_func_id 87
	.cv_loc	87 29 448 0
.seh_proc _ZN4core3ptr42drop_in_place$LT$std..io..error..Error$GT$17h95d3f83b44cd527bE
	subq	$40, %rsp
	.seh_stackalloc 40
	.seh_endprologue
	movq	%rcx, 32(%rsp)
.Ltmp348:
	callq	_ZN4core3ptr57drop_in_place$LT$std..io..error..repr_bitpacked..Repr$GT$17hc504a9ae69ea12c2E
	nop
	addq	$40, %rsp
	retq
.Ltmp349:
.Lfunc_end75:
	.seh_endproc

	.def	_ZN4core3ptr42drop_in_place$LT$std..process..Command$GT$17h0cd12303f211686cE;
	.scl	3;
	.type	32;
	.endef
	.section	.text,"xr",one_only,_ZN4core3ptr42drop_in_place$LT$std..process..Command$GT$17h0cd12303f211686cE
	.p2align	4, 0x90
_ZN4core3ptr42drop_in_place$LT$std..process..Command$GT$17h0cd12303f211686cE:
.Lfunc_begin76:
	.cv_func_id 88
	.cv_loc	88 29 448 0
.seh_proc _ZN4core3ptr42drop_in_place$LT$std..process..Command$GT$17h0cd12303f211686cE
	subq	$40, %rsp
	.seh_stackalloc 40
	.seh_endprologue
	movq	%rcx, 32(%rsp)
.Ltmp350:
	callq	_ZN4core3ptr56drop_in_place$LT$std..sys..windows..process..Command$GT$17h8e59d0ec83a4a9d8E
	nop
	addq	$40, %rsp
	retq
.Ltmp351:
.Lfunc_end76:
	.seh_endproc

	.def	_ZN4core3ptr43drop_in_place$LT$std..io..error..Custom$GT$17h8868728980de5e35E;
	.scl	3;
	.type	32;
	.endef
	.section	.text,"xr",one_only,_ZN4core3ptr43drop_in_place$LT$std..io..error..Custom$GT$17h8868728980de5e35E
	.p2align	4, 0x90
_ZN4core3ptr43drop_in_place$LT$std..io..error..Custom$GT$17h8868728980de5e35E:
.Lfunc_begin77:
	.cv_func_id 89
	.cv_loc	89 29 448 0
.seh_proc _ZN4core3ptr43drop_in_place$LT$std..io..error..Custom$GT$17h8868728980de5e35E
	subq	$40, %rsp
	.seh_stackalloc 40
	.seh_endprologue
	movq	%rcx, 32(%rsp)
.Ltmp352:
	callq	_ZN4core3ptr117drop_in_place$LT$alloc..boxed..Box$LT$dyn$u20$std..error..Error$u2b$core..marker..Send$u2b$core..marker..Sync$GT$$GT$17hae123006f0fe4875E
	nop
	addq	$40, %rsp
	retq
.Ltmp353:
.Lfunc_end77:
	.seh_endproc

	.def	_ZN4core3ptr46drop_in_place$LT$alloc..vec..Vec$LT$u8$GT$$GT$17hcad8922cde66373aE;
	.scl	3;
	.type	32;
	.endef
	.section	.text,"xr",one_only,_ZN4core3ptr46drop_in_place$LT$alloc..vec..Vec$LT$u8$GT$$GT$17hcad8922cde66373aE
	.p2align	4, 0x90
_ZN4core3ptr46drop_in_place$LT$alloc..vec..Vec$LT$u8$GT$$GT$17hcad8922cde66373aE:
.Lfunc_begin78:
	.cv_func_id 90
	.cv_loc	90 29 448 0
.seh_proc _ZN4core3ptr46drop_in_place$LT$alloc..vec..Vec$LT$u8$GT$$GT$17hcad8922cde66373aE
	.seh_handler __CxxFrameHandler3, @unwind, @except
	pushq	%rbp
	.seh_pushreg %rbp
	subq	$64, %rsp
	.seh_stackalloc 64
	leaq	64(%rsp), %rbp
	.seh_setframe %rbp, 64
	.seh_endprologue
	movq	$-2, -8(%rbp)
	movq	%rcx, -24(%rbp)
	movq	%rcx, -16(%rbp)
.Ltmp354:
.Ltmp356:
	callq	_ZN70_$LT$alloc..vec..Vec$LT$T$C$A$GT$$u20$as$u20$core..ops..drop..Drop$GT$4drop17hd59ec70482d05d82E
.Ltmp355:
	jmp	.LBB78_2
.LBB78_2:
	movq	-24(%rbp), %rcx
	callq	_ZN4core3ptr53drop_in_place$LT$alloc..raw_vec..RawVec$LT$u8$GT$$GT$17hc25f668b10dad678E
	nop
	addq	$64, %rsp
	popq	%rbp
	retq
	.seh_handlerdata
	.long	($cppxdata$_ZN4core3ptr46drop_in_place$LT$alloc..vec..Vec$LT$u8$GT$$GT$17hcad8922cde66373aE)@IMGREL
	.section	.text,"xr",one_only,_ZN4core3ptr46drop_in_place$LT$alloc..vec..Vec$LT$u8$GT$$GT$17hcad8922cde66373aE
	.seh_endproc
	.def	"?dtor$1@?0?_ZN4core3ptr46drop_in_place$LT$alloc..vec..Vec$LT$u8$GT$$GT$17hcad8922cde66373aE@4HA";
	.scl	3;
	.type	32;
	.endef
	.p2align	4, 0x90
"?dtor$1@?0?_ZN4core3ptr46drop_in_place$LT$alloc..vec..Vec$LT$u8$GT$$GT$17hcad8922cde66373aE@4HA":
.seh_proc "?dtor$1@?0?_ZN4core3ptr46drop_in_place$LT$alloc..vec..Vec$LT$u8$GT$$GT$17hcad8922cde66373aE@4HA"
.LBB78_1:
	movq	%rdx, 16(%rsp)
	pushq	%rbp
	.seh_pushreg %rbp
	subq	$32, %rsp
	.seh_stackalloc 32
	leaq	64(%rdx), %rbp
	.seh_endprologue
	movq	-24(%rbp), %rcx
	callq	_ZN4core3ptr53drop_in_place$LT$alloc..raw_vec..RawVec$LT$u8$GT$$GT$17hc25f668b10dad678E
	nop
	addq	$32, %rsp
	popq	%rbp
	retq
.Ltmp357:
.Lfunc_end78:
	.seh_handlerdata
	.section	.text,"xr",one_only,_ZN4core3ptr46drop_in_place$LT$alloc..vec..Vec$LT$u8$GT$$GT$17hcad8922cde66373aE
	.seh_endproc
	.section	.xdata,"dr",associative,_ZN4core3ptr46drop_in_place$LT$alloc..vec..Vec$LT$u8$GT$$GT$17hcad8922cde66373aE
	.p2align	2
$cppxdata$_ZN4core3ptr46drop_in_place$LT$alloc..vec..Vec$LT$u8$GT$$GT$17hcad8922cde66373aE:
	.long	429065506
	.long	1
	.long	($stateUnwindMap$_ZN4core3ptr46drop_in_place$LT$alloc..vec..Vec$LT$u8$GT$$GT$17hcad8922cde66373aE)@IMGREL
	.long	0
	.long	0
	.long	3
	.long	($ip2state$_ZN4core3ptr46drop_in_place$LT$alloc..vec..Vec$LT$u8$GT$$GT$17hcad8922cde66373aE)@IMGREL
	.long	56
	.long	0
	.long	1
$stateUnwindMap$_ZN4core3ptr46drop_in_place$LT$alloc..vec..Vec$LT$u8$GT$$GT$17hcad8922cde66373aE:
	.long	-1
	.long	"?dtor$1@?0?_ZN4core3ptr46drop_in_place$LT$alloc..vec..Vec$LT$u8$GT$$GT$17hcad8922cde66373aE@4HA"@IMGREL
$ip2state$_ZN4core3ptr46drop_in_place$LT$alloc..vec..Vec$LT$u8$GT$$GT$17hcad8922cde66373aE:
	.long	.Lfunc_begin78@IMGREL
	.long	-1
	.long	.Ltmp354@IMGREL+1
	.long	0
	.long	.Ltmp355@IMGREL+1
	.long	-1
	.section	.text,"xr",one_only,_ZN4core3ptr46drop_in_place$LT$alloc..vec..Vec$LT$u8$GT$$GT$17hcad8922cde66373aE

	.def	_ZN4core3ptr47drop_in_place$LT$alloc..vec..Vec$LT$u16$GT$$GT$17hbc5cfe44a6b25df9E;
	.scl	3;
	.type	32;
	.endef
	.section	.text,"xr",one_only,_ZN4core3ptr47drop_in_place$LT$alloc..vec..Vec$LT$u16$GT$$GT$17hbc5cfe44a6b25df9E
	.p2align	4, 0x90
_ZN4core3ptr47drop_in_place$LT$alloc..vec..Vec$LT$u16$GT$$GT$17hbc5cfe44a6b25df9E:
.Lfunc_begin79:
	.cv_func_id 91
	.cv_loc	91 29 448 0
.seh_proc _ZN4core3ptr47drop_in_place$LT$alloc..vec..Vec$LT$u16$GT$$GT$17hbc5cfe44a6b25df9E
	.seh_handler __CxxFrameHandler3, @unwind, @except
	pushq	%rbp
	.seh_pushreg %rbp
	subq	$64, %rsp
	.seh_stackalloc 64
	leaq	64(%rsp), %rbp
	.seh_setframe %rbp, 64
	.seh_endprologue
	movq	$-2, -8(%rbp)
	movq	%rcx, -24(%rbp)
	movq	%rcx, -16(%rbp)
.Ltmp358:
.Ltmp360:
	callq	_ZN70_$LT$alloc..vec..Vec$LT$T$C$A$GT$$u20$as$u20$core..ops..drop..Drop$GT$4drop17h590afb5da5e61484E
.Ltmp359:
	jmp	.LBB79_2
.LBB79_2:
	movq	-24(%rbp), %rcx
	callq	_ZN4core3ptr54drop_in_place$LT$alloc..raw_vec..RawVec$LT$u16$GT$$GT$17hb39dbd6985cfca5dE
	nop
	addq	$64, %rsp
	popq	%rbp
	retq
	.seh_handlerdata
	.long	($cppxdata$_ZN4core3ptr47drop_in_place$LT$alloc..vec..Vec$LT$u16$GT$$GT$17hbc5cfe44a6b25df9E)@IMGREL
	.section	.text,"xr",one_only,_ZN4core3ptr47drop_in_place$LT$alloc..vec..Vec$LT$u16$GT$$GT$17hbc5cfe44a6b25df9E
	.seh_endproc
	.def	"?dtor$1@?0?_ZN4core3ptr47drop_in_place$LT$alloc..vec..Vec$LT$u16$GT$$GT$17hbc5cfe44a6b25df9E@4HA";
	.scl	3;
	.type	32;
	.endef
	.p2align	4, 0x90
"?dtor$1@?0?_ZN4core3ptr47drop_in_place$LT$alloc..vec..Vec$LT$u16$GT$$GT$17hbc5cfe44a6b25df9E@4HA":
.seh_proc "?dtor$1@?0?_ZN4core3ptr47drop_in_place$LT$alloc..vec..Vec$LT$u16$GT$$GT$17hbc5cfe44a6b25df9E@4HA"
.LBB79_1:
	movq	%rdx, 16(%rsp)
	pushq	%rbp
	.seh_pushreg %rbp
	subq	$32, %rsp
	.seh_stackalloc 32
	leaq	64(%rdx), %rbp
	.seh_endprologue
	movq	-24(%rbp), %rcx
	callq	_ZN4core3ptr54drop_in_place$LT$alloc..raw_vec..RawVec$LT$u16$GT$$GT$17hb39dbd6985cfca5dE
	nop
	addq	$32, %rsp
	popq	%rbp
	retq
.Ltmp361:
.Lfunc_end79:
	.seh_handlerdata
	.section	.text,"xr",one_only,_ZN4core3ptr47drop_in_place$LT$alloc..vec..Vec$LT$u16$GT$$GT$17hbc5cfe44a6b25df9E
	.seh_endproc
	.section	.xdata,"dr",associative,_ZN4core3ptr47drop_in_place$LT$alloc..vec..Vec$LT$u16$GT$$GT$17hbc5cfe44a6b25df9E
	.p2align	2
$cppxdata$_ZN4core3ptr47drop_in_place$LT$alloc..vec..Vec$LT$u16$GT$$GT$17hbc5cfe44a6b25df9E:
	.long	429065506
	.long	1
	.long	($stateUnwindMap$_ZN4core3ptr47drop_in_place$LT$alloc..vec..Vec$LT$u16$GT$$GT$17hbc5cfe44a6b25df9E)@IMGREL
	.long	0
	.long	0
	.long	3
	.long	($ip2state$_ZN4core3ptr47drop_in_place$LT$alloc..vec..Vec$LT$u16$GT$$GT$17hbc5cfe44a6b25df9E)@IMGREL
	.long	56
	.long	0
	.long	1
$stateUnwindMap$_ZN4core3ptr47drop_in_place$LT$alloc..vec..Vec$LT$u16$GT$$GT$17hbc5cfe44a6b25df9E:
	.long	-1
	.long	"?dtor$1@?0?_ZN4core3ptr47drop_in_place$LT$alloc..vec..Vec$LT$u16$GT$$GT$17hbc5cfe44a6b25df9E@4HA"@IMGREL
$ip2state$_ZN4core3ptr47drop_in_place$LT$alloc..vec..Vec$LT$u16$GT$$GT$17hbc5cfe44a6b25df9E:
	.long	.Lfunc_begin79@IMGREL
	.long	-1
	.long	.Ltmp358@IMGREL+1
	.long	0
	.long	.Ltmp359@IMGREL+1
	.long	-1
	.section	.text,"xr",one_only,_ZN4core3ptr47drop_in_place$LT$alloc..vec..Vec$LT$u16$GT$$GT$17hbc5cfe44a6b25df9E

	.def	_ZN4core3ptr47drop_in_place$LT$std..ffi..os_str..OsString$GT$17h833013778cd57550E;
	.scl	3;
	.type	32;
	.endef
	.section	.text,"xr",one_only,_ZN4core3ptr47drop_in_place$LT$std..ffi..os_str..OsString$GT$17h833013778cd57550E
	.p2align	4, 0x90
_ZN4core3ptr47drop_in_place$LT$std..ffi..os_str..OsString$GT$17h833013778cd57550E:
.Lfunc_begin80:
	.cv_func_id 92
	.cv_loc	92 29 448 0
.seh_proc _ZN4core3ptr47drop_in_place$LT$std..ffi..os_str..OsString$GT$17h833013778cd57550E
	subq	$40, %rsp
	.seh_stackalloc 40
	.seh_endprologue
	movq	%rcx, 32(%rsp)
.Ltmp362:
	callq	_ZN4core3ptr51drop_in_place$LT$std..sys..windows..os_str..Buf$GT$17h4d0292552f1f8dc5E
	nop
	addq	$40, %rsp
	retq
.Ltmp363:
.Lfunc_end80:
	.seh_endproc

	.def	_ZN4core3ptr4read17h09da6b1c65448aaeE;
	.scl	3;
	.type	32;
	.endef
	.section	.text,"xr",one_only,_ZN4core3ptr4read17h09da6b1c65448aaeE
	.p2align	4, 0x90
_ZN4core3ptr4read17h09da6b1c65448aaeE:
.Lfunc_begin81:
	.cv_func_id 93
	.cv_loc	93 29 970 0
.seh_proc _ZN4core3ptr4read17h09da6b1c65448aaeE
	subq	$112, %rsp
	.seh_stackalloc 112
	.seh_endprologue
	movq	%rcx, 24(%rsp)
	movq	%rcx, 48(%rsp)
.Ltmp364:
	.cv_inline_site_id 94 within 93 inlined_at 29 978 0
	.cv_loc	94 25 322 0
	movq	80(%rsp), %rax
	movq	88(%rsp), %rcx
.Ltmp365:
	.cv_loc	93 29 978 0
	movq	%rcx, 40(%rsp)
	movq	%rax, 32(%rsp)
	.cv_inline_site_id 95 within 93 inlined_at 29 986 0
	.cv_loc	95 25 576 0
	leaq	32(%rsp), %rax
	movq	%rax, 56(%rsp)
.Ltmp366:
	leaq	32(%rsp), %rax
	movq	%rax, 16(%rsp)
.Ltmp367:
	.cv_loc	93 29 986 0
	movq	16(%rsp), %rax
	movq	24(%rsp), %rcx
	vmovdqu	(%rcx), %xmm0
	vmovdqu	%xmm0, (%rax)
	.cv_loc	93 29 987 0
	movq	32(%rsp), %rcx
	movq	%rcx, (%rsp)
	movq	40(%rsp), %rax
	movq	%rax, 8(%rsp)
	movq	%rcx, 64(%rsp)
	movq	%rax, 72(%rsp)
	movq	%rcx, 96(%rsp)
	movq	%rax, 104(%rsp)
.Ltmp368:
	.cv_loc	93 29 989 0
	movq	8(%rsp), %rdx
	movq	(%rsp), %rax
	addq	$112, %rsp
	retq
.Ltmp369:
.Lfunc_end81:
	.seh_endproc

	.def	_ZN4core3ptr4read17h0a09ec0683704366E;
	.scl	3;
	.type	32;
	.endef
	.section	.text,"xr",one_only,_ZN4core3ptr4read17h0a09ec0683704366E
	.p2align	4, 0x90
_ZN4core3ptr4read17h0a09ec0683704366E:
.Lfunc_begin82:
	.cv_func_id 96
	.cv_loc	96 29 970 0
.seh_proc _ZN4core3ptr4read17h0a09ec0683704366E
	subq	$64, %rsp
	.seh_stackalloc 64
	.seh_endprologue
	movq	%rcx, 8(%rsp)
	movq	%rcx, 24(%rsp)
.Ltmp370:
	.cv_inline_site_id 97 within 96 inlined_at 29 978 0
	.cv_loc	97 25 322 0
	movq	48(%rsp), %rax
.Ltmp371:
	.cv_loc	96 29 978 0
	movq	%rax, 16(%rsp)
	leaq	16(%rsp), %rax
	movq	%rax, 32(%rsp)
	.cv_loc	96 29 986 0
	movq	8(%rsp), %rax
.Ltmp372:
	movq	(%rax), %rax
	movq	%rax, 16(%rsp)
	.cv_loc	96 29 987 0
	movq	16(%rsp), %rax
	movq	%rax, (%rsp)
	movq	%rax, 40(%rsp)
	movq	%rax, 56(%rsp)
.Ltmp373:
	.cv_loc	96 29 989 0
	movq	(%rsp), %rax
	addq	$64, %rsp
	retq
.Ltmp374:
.Lfunc_end82:
	.seh_endproc

	.def	_ZN4core3ptr4read17h6b0ae538791ab650E;
	.scl	3;
	.type	32;
	.endef
	.section	.text,"xr",one_only,_ZN4core3ptr4read17h6b0ae538791ab650E
	.p2align	4, 0x90
_ZN4core3ptr4read17h6b0ae538791ab650E:
.Lfunc_begin83:
	.cv_func_id 98
	.cv_loc	98 29 970 0
.seh_proc _ZN4core3ptr4read17h6b0ae538791ab650E
	subq	$120, %rsp
	.seh_stackalloc 120
	.seh_endprologue
	movq	%rdx, 8(%rsp)
	movq	%rcx, 16(%rsp)
	movq	%rcx, 24(%rsp)
	movq	%rdx, 80(%rsp)
	.cv_inline_site_id 99 within 98 inlined_at 29 986 0
	.cv_loc	99 25 576 0
	leaq	32(%rsp), %rax
	movq	%rax, 88(%rsp)
.Ltmp375:
	leaq	32(%rsp), %rax
	movq	%rax, (%rsp)
.Ltmp376:
	.cv_loc	98 29 986 0
	movq	16(%rsp), %rax
	movq	(%rsp), %rcx
	movq	8(%rsp), %rdx
	movq	(%rdx), %r8
	movq	%r8, (%rcx)
	movq	8(%rdx), %r8
	movq	%r8, 8(%rcx)
	movq	16(%rdx), %rdx
	movq	%rdx, 16(%rcx)
	.cv_loc	98 29 987 0
	movq	32(%rsp), %rcx
	movq	%rcx, 56(%rsp)
	movq	40(%rsp), %rcx
	movq	%rcx, 64(%rsp)
	movq	48(%rsp), %rcx
	movq	%rcx, 72(%rsp)
.Ltmp377:
	.cv_inline_site_id 100 within 98 inlined_at 29 987 0
	.cv_loc	100 25 634 0
	movq	56(%rsp), %rcx
	movq	%rcx, 96(%rsp)
	movq	64(%rsp), %rcx
	movq	%rcx, 104(%rsp)
	movq	72(%rsp), %rcx
	movq	%rcx, 112(%rsp)
.Ltmp378:
	.cv_inline_site_id 101 within 100 inlined_at 25 634 0
	.cv_loc	101 8 89 0
	movq	96(%rsp), %rcx
	movq	%rcx, (%rax)
	movq	104(%rsp), %rcx
	movq	%rcx, 8(%rax)
	movq	112(%rsp), %rcx
	movq	%rcx, 16(%rax)
.Ltmp379:
	.cv_loc	98 29 989 0
	movq	24(%rsp), %rax
	addq	$120, %rsp
	retq
.Ltmp380:
.Lfunc_end83:
	.seh_endproc

	.def	_ZN4core3ptr4read17h887100b84bdd2275E;
	.scl	3;
	.type	32;
	.endef
	.section	.text,"xr",one_only,_ZN4core3ptr4read17h887100b84bdd2275E
	.p2align	4, 0x90
_ZN4core3ptr4read17h887100b84bdd2275E:
.Lfunc_begin84:
	.cv_func_id 102
	.cv_loc	102 29 970 0
.seh_proc _ZN4core3ptr4read17h887100b84bdd2275E
	subq	$144, %rsp
	.seh_stackalloc 144
	.seh_endprologue
	movq	%rdx, 8(%rsp)
	movq	%rcx, 16(%rsp)
	movq	%rcx, 24(%rsp)
	movq	%rdx, 96(%rsp)
	.cv_inline_site_id 103 within 102 inlined_at 29 986 0
	.cv_loc	103 25 576 0
	leaq	32(%rsp), %rax
	movq	%rax, 104(%rsp)
.Ltmp381:
	leaq	32(%rsp), %rax
	movq	%rax, (%rsp)
.Ltmp382:
	.cv_loc	102 29 986 0
	movq	16(%rsp), %rax
	movq	(%rsp), %rcx
	movq	8(%rsp), %rdx
	movq	(%rdx), %r8
	movq	%r8, (%rcx)
	movq	8(%rdx), %r8
	movq	%r8, 8(%rcx)
	movq	16(%rdx), %r8
	movq	%r8, 16(%rcx)
	movq	24(%rdx), %rdx
	movq	%rdx, 24(%rcx)
	.cv_loc	102 29 987 0
	movq	32(%rsp), %rcx
	movq	%rcx, 64(%rsp)
	movq	40(%rsp), %rcx
	movq	%rcx, 72(%rsp)
	movq	48(%rsp), %rcx
	movq	%rcx, 80(%rsp)
	movq	56(%rsp), %rcx
	movq	%rcx, 88(%rsp)
.Ltmp383:
	.cv_inline_site_id 104 within 102 inlined_at 29 987 0
	.cv_loc	104 25 634 0
	movq	64(%rsp), %rcx
	movq	%rcx, 112(%rsp)
	movq	72(%rsp), %rcx
	movq	%rcx, 120(%rsp)
	movq	80(%rsp), %rcx
	movq	%rcx, 128(%rsp)
	movq	88(%rsp), %rcx
	movq	%rcx, 136(%rsp)
.Ltmp384:
	.cv_inline_site_id 105 within 104 inlined_at 25 634 0
	.cv_loc	105 8 89 0
	movq	112(%rsp), %rcx
	movq	%rcx, (%rax)
	movq	120(%rsp), %rcx
	movq	%rcx, 8(%rax)
	movq	128(%rsp), %rcx
	movq	%rcx, 16(%rax)
	movq	136(%rsp), %rcx
	movq	%rcx, 24(%rax)
.Ltmp385:
	.cv_loc	102 29 989 0
	movq	24(%rsp), %rax
	addq	$144, %rsp
	retq
.Ltmp386:
.Lfunc_end84:
	.seh_endproc

	.def	_ZN4core3ptr4read17h909c0aae9f11a5eaE;
	.scl	3;
	.type	32;
	.endef
	.section	.text,"xr",one_only,_ZN4core3ptr4read17h909c0aae9f11a5eaE
	.p2align	4, 0x90
_ZN4core3ptr4read17h909c0aae9f11a5eaE:
.Lfunc_begin85:
	.cv_func_id 106
	.cv_loc	106 29 970 0
.seh_proc _ZN4core3ptr4read17h909c0aae9f11a5eaE
	subq	$112, %rsp
	.seh_stackalloc 112
	.seh_endprologue
	movq	%rcx, 24(%rsp)
	movq	%rcx, 48(%rsp)
.Ltmp387:
	.cv_inline_site_id 107 within 106 inlined_at 29 978 0
	.cv_loc	107 25 322 0
	movq	80(%rsp), %rax
	movq	88(%rsp), %rcx
.Ltmp388:
	.cv_loc	106 29 978 0
	movq	%rcx, 40(%rsp)
	movq	%rax, 32(%rsp)
	.cv_inline_site_id 108 within 106 inlined_at 29 986 0
	.cv_loc	108 25 576 0
	leaq	32(%rsp), %rax
	movq	%rax, 56(%rsp)
.Ltmp389:
	leaq	32(%rsp), %rax
	movq	%rax, 16(%rsp)
.Ltmp390:
	.cv_loc	106 29 986 0
	movq	16(%rsp), %rax
	movq	24(%rsp), %rcx
	vmovdqu	(%rcx), %xmm0
	vmovdqu	%xmm0, (%rax)
	.cv_loc	106 29 987 0
	movq	32(%rsp), %rcx
	movq	%rcx, (%rsp)
	movq	40(%rsp), %rax
	movq	%rax, 8(%rsp)
	movq	%rcx, 64(%rsp)
	movq	%rax, 72(%rsp)
	movq	%rcx, 96(%rsp)
	movq	%rax, 104(%rsp)
.Ltmp391:
	.cv_loc	106 29 989 0
	movq	8(%rsp), %rdx
	movq	(%rsp), %rax
	addq	$112, %rsp
	retq
.Ltmp392:
.Lfunc_end85:
	.seh_endproc

	.def	_ZN4core3ptr4read17hc6782f199be6eea8E;
	.scl	3;
	.type	32;
	.endef
	.section	.text,"xr",one_only,_ZN4core3ptr4read17hc6782f199be6eea8E
	.p2align	4, 0x90
_ZN4core3ptr4read17hc6782f199be6eea8E:
.Lfunc_begin86:
	.cv_func_id 109
	.cv_loc	109 29 970 0
.seh_proc _ZN4core3ptr4read17hc6782f199be6eea8E
	subq	$120, %rsp
	.seh_stackalloc 120
	.seh_endprologue
	movq	%rdx, 8(%rsp)
	movq	%rcx, 16(%rsp)
	movq	%rcx, 24(%rsp)
	movq	%rdx, 80(%rsp)
	.cv_inline_site_id 110 within 109 inlined_at 29 986 0
	.cv_loc	110 25 576 0
	leaq	32(%rsp), %rax
	movq	%rax, 88(%rsp)
.Ltmp393:
	leaq	32(%rsp), %rax
	movq	%rax, (%rsp)
.Ltmp394:
	.cv_loc	109 29 986 0
	movq	16(%rsp), %rax
	movq	(%rsp), %rcx
	movq	8(%rsp), %rdx
	movq	(%rdx), %r8
	movq	%r8, (%rcx)
	movq	8(%rdx), %r8
	movq	%r8, 8(%rcx)
	movq	16(%rdx), %rdx
	movq	%rdx, 16(%rcx)
	.cv_loc	109 29 987 0
	movq	32(%rsp), %rcx
	movq	%rcx, 56(%rsp)
	movq	40(%rsp), %rcx
	movq	%rcx, 64(%rsp)
	movq	48(%rsp), %rcx
	movq	%rcx, 72(%rsp)
.Ltmp395:
	.cv_inline_site_id 111 within 109 inlined_at 29 987 0
	.cv_loc	111 25 634 0
	movq	56(%rsp), %rcx
	movq	%rcx, 96(%rsp)
	movq	64(%rsp), %rcx
	movq	%rcx, 104(%rsp)
	movq	72(%rsp), %rcx
	movq	%rcx, 112(%rsp)
.Ltmp396:
	.cv_inline_site_id 112 within 111 inlined_at 25 634 0
	.cv_loc	112 8 89 0
	movq	96(%rsp), %rcx
	movq	%rcx, (%rax)
	movq	104(%rsp), %rcx
	movq	%rcx, 8(%rax)
	movq	112(%rsp), %rcx
	movq	%rcx, 16(%rax)
.Ltmp397:
	.cv_loc	109 29 989 0
	movq	24(%rsp), %rax
	addq	$120, %rsp
	retq
.Ltmp398:
.Lfunc_end86:
	.seh_endproc

	.def	_ZN4core3ptr4read17hc6fd98bfc890306dE;
	.scl	3;
	.type	32;
	.endef
	.section	.text,"xr",one_only,_ZN4core3ptr4read17hc6fd98bfc890306dE
	.p2align	4, 0x90
_ZN4core3ptr4read17hc6fd98bfc890306dE:
.Lfunc_begin87:
	.cv_func_id 113
	.cv_loc	113 29 970 0
.seh_proc _ZN4core3ptr4read17hc6fd98bfc890306dE
	subq	$120, %rsp
	.seh_stackalloc 120
	.seh_endprologue
	movq	%rdx, 8(%rsp)
	movq	%rcx, 16(%rsp)
	movq	%rcx, 24(%rsp)
	movq	%rdx, 80(%rsp)
	.cv_inline_site_id 114 within 113 inlined_at 29 986 0
	.cv_loc	114 25 576 0
	leaq	32(%rsp), %rax
	movq	%rax, 88(%rsp)
.Ltmp399:
	leaq	32(%rsp), %rax
	movq	%rax, (%rsp)
.Ltmp400:
	.cv_loc	113 29 986 0
	movq	16(%rsp), %rax
	movq	(%rsp), %rcx
	movq	8(%rsp), %rdx
	movq	(%rdx), %r8
	movq	%r8, (%rcx)
	movq	8(%rdx), %r8
	movq	%r8, 8(%rcx)
	movq	16(%rdx), %rdx
	movq	%rdx, 16(%rcx)
	.cv_loc	113 29 987 0
	movq	32(%rsp), %rcx
	movq	%rcx, 56(%rsp)
	movq	40(%rsp), %rcx
	movq	%rcx, 64(%rsp)
	movq	48(%rsp), %rcx
	movq	%rcx, 72(%rsp)
.Ltmp401:
	.cv_inline_site_id 115 within 113 inlined_at 29 987 0
	.cv_loc	115 25 634 0
	movq	56(%rsp), %rcx
	movq	%rcx, 96(%rsp)
	movq	64(%rsp), %rcx
	movq	%rcx, 104(%rsp)
	movq	72(%rsp), %rcx
	movq	%rcx, 112(%rsp)
.Ltmp402:
	.cv_inline_site_id 116 within 115 inlined_at 25 634 0
	.cv_loc	116 8 89 0
	movq	96(%rsp), %rcx
	movq	%rcx, (%rax)
	movq	104(%rsp), %rcx
	movq	%rcx, 8(%rax)
	movq	112(%rsp), %rcx
	movq	%rcx, 16(%rax)
.Ltmp403:
	.cv_loc	113 29 989 0
	movq	24(%rsp), %rax
	addq	$120, %rsp
	retq
.Ltmp404:
.Lfunc_end87:
	.seh_endproc

	.def	_ZN4core3ptr4read17heecb98c62630e92aE;
	.scl	3;
	.type	32;
	.endef
	.section	.text,"xr",one_only,_ZN4core3ptr4read17heecb98c62630e92aE
	.p2align	4, 0x90
_ZN4core3ptr4read17heecb98c62630e92aE:
.Lfunc_begin88:
	.cv_func_id 117
	.cv_loc	117 29 970 0
.seh_proc _ZN4core3ptr4read17heecb98c62630e92aE
	subq	$72, %rsp
	.seh_stackalloc 72
	.seh_endprologue
	movq	%rcx, 16(%rsp)
	movq	%rcx, 32(%rsp)
.Ltmp405:
	.cv_inline_site_id 118 within 117 inlined_at 29 978 0
	.cv_loc	118 25 322 0
	movq	56(%rsp), %rax
.Ltmp406:
	.cv_loc	117 29 978 0
	movq	%rax, 24(%rsp)
	.cv_inline_site_id 119 within 117 inlined_at 29 986 0
	.cv_loc	119 25 576 0
	leaq	24(%rsp), %rax
	movq	%rax, 40(%rsp)
.Ltmp407:
	leaq	24(%rsp), %rax
	movq	%rax, 8(%rsp)
.Ltmp408:
	.cv_loc	117 29 986 0
	movq	8(%rsp), %rax
	movq	16(%rsp), %rcx
	movq	(%rcx), %rcx
	movq	%rcx, (%rax)
	.cv_loc	117 29 987 0
	movq	24(%rsp), %rax
	movq	%rax, 48(%rsp)
	movq	%rax, (%rsp)
	movq	%rax, 64(%rsp)
.Ltmp409:
	.cv_loc	117 29 989 0
	movq	(%rsp), %rax
	addq	$72, %rsp
	retq
.Ltmp410:
.Lfunc_end88:
	.seh_endproc

	.def	_ZN4core3ptr50drop_in_place$LT$alloc..borrow..Cow$LT$str$GT$$GT$17ha2d8070139135345E;
	.scl	3;
	.type	32;
	.endef
	.section	.text,"xr",one_only,_ZN4core3ptr50drop_in_place$LT$alloc..borrow..Cow$LT$str$GT$$GT$17ha2d8070139135345E
	.p2align	4, 0x90
_ZN4core3ptr50drop_in_place$LT$alloc..borrow..Cow$LT$str$GT$$GT$17ha2d8070139135345E:
.Lfunc_begin89:
	.cv_func_id 120
	.cv_loc	120 29 448 0
.seh_proc _ZN4core3ptr50drop_in_place$LT$alloc..borrow..Cow$LT$str$GT$$GT$17ha2d8070139135345E
	subq	$56, %rsp
	.seh_stackalloc 56
	.seh_endprologue
	movq	%rcx, 40(%rsp)
	movq	%rcx, 48(%rsp)
.Ltmp411:
	cmpq	$0, (%rcx)
	jne	.LBB89_2
.LBB89_1:
	addq	$56, %rsp
	retq
.LBB89_2:
	movq	40(%rsp), %rcx
	addq	$8, %rcx
	callq	_ZN4core3ptr42drop_in_place$LT$alloc..string..String$GT$17h0bb9fd202bf46d54E
	jmp	.LBB89_1
.Ltmp412:
.Lfunc_end89:
	.seh_endproc

	.def	_ZN4core3ptr51drop_in_place$LT$std..sys..windows..os_str..Buf$GT$17h4d0292552f1f8dc5E;
	.scl	3;
	.type	32;
	.endef
	.section	.text,"xr",one_only,_ZN4core3ptr51drop_in_place$LT$std..sys..windows..os_str..Buf$GT$17h4d0292552f1f8dc5E
	.p2align	4, 0x90
_ZN4core3ptr51drop_in_place$LT$std..sys..windows..os_str..Buf$GT$17h4d0292552f1f8dc5E:
.Lfunc_begin90:
	.cv_func_id 121
	.cv_loc	121 29 448 0
.seh_proc _ZN4core3ptr51drop_in_place$LT$std..sys..windows..os_str..Buf$GT$17h4d0292552f1f8dc5E
	subq	$40, %rsp
	.seh_stackalloc 40
	.seh_endprologue
	movq	%rcx, 32(%rsp)
.Ltmp413:
	callq	_ZN4core3ptr51drop_in_place$LT$std..sys_common..wtf8..Wtf8Buf$GT$17h34c6c18b89dd3174E
	nop
	addq	$40, %rsp
	retq
.Ltmp414:
.Lfunc_end90:
	.seh_endproc

	.def	_ZN4core3ptr51drop_in_place$LT$std..sys_common..wtf8..Wtf8Buf$GT$17h34c6c18b89dd3174E;
	.scl	3;
	.type	32;
	.endef
	.section	.text,"xr",one_only,_ZN4core3ptr51drop_in_place$LT$std..sys_common..wtf8..Wtf8Buf$GT$17h34c6c18b89dd3174E
	.p2align	4, 0x90
_ZN4core3ptr51drop_in_place$LT$std..sys_common..wtf8..Wtf8Buf$GT$17h34c6c18b89dd3174E:
.Lfunc_begin91:
	.cv_func_id 122
	.cv_loc	122 29 448 0
.seh_proc _ZN4core3ptr51drop_in_place$LT$std..sys_common..wtf8..Wtf8Buf$GT$17h34c6c18b89dd3174E
	subq	$40, %rsp
	.seh_stackalloc 40
	.seh_endprologue
	movq	%rcx, 32(%rsp)
.Ltmp415:
	callq	_ZN4core3ptr46drop_in_place$LT$alloc..vec..Vec$LT$u8$GT$$GT$17hcad8922cde66373aE
	nop
	addq	$40, %rsp
	retq
.Ltmp416:
.Lfunc_end91:
	.seh_endproc

	.def	_ZN4core3ptr52drop_in_place$LT$std..sys..windows..process..Arg$GT$17hae5ae8168c4ae1b2E;
	.scl	3;
	.type	32;
	.endef
	.section	.text,"xr",one_only,_ZN4core3ptr52drop_in_place$LT$std..sys..windows..process..Arg$GT$17hae5ae8168c4ae1b2E
	.p2align	4, 0x90
_ZN4core3ptr52drop_in_place$LT$std..sys..windows..process..Arg$GT$17hae5ae8168c4ae1b2E:
.Lfunc_begin92:
	.cv_func_id 123
	.cv_loc	123 29 448 0
.seh_proc _ZN4core3ptr52drop_in_place$LT$std..sys..windows..process..Arg$GT$17hae5ae8168c4ae1b2E
	subq	$56, %rsp
	.seh_stackalloc 56
	.seh_endprologue
	movq	%rcx, 40(%rsp)
	movq	%rcx, 48(%rsp)
.Ltmp417:
	cmpq	$0, (%rcx)
	jne	.LBB92_2
	movq	40(%rsp), %rcx
	addq	$8, %rcx
	callq	_ZN4core3ptr47drop_in_place$LT$std..ffi..os_str..OsString$GT$17h833013778cd57550E
	jmp	.LBB92_3
.LBB92_2:
	movq	40(%rsp), %rcx
	addq	$8, %rcx
	callq	_ZN4core3ptr47drop_in_place$LT$std..ffi..os_str..OsString$GT$17h833013778cd57550E
.LBB92_3:
	nop
	addq	$56, %rsp
	retq
.Ltmp418:
.Lfunc_end92:
	.seh_endproc

	.def	_ZN4core3ptr53drop_in_place$LT$alloc..raw_vec..RawVec$LT$u8$GT$$GT$17hc25f668b10dad678E;
	.scl	3;
	.type	32;
	.endef
	.section	.text,"xr",one_only,_ZN4core3ptr53drop_in_place$LT$alloc..raw_vec..RawVec$LT$u8$GT$$GT$17hc25f668b10dad678E
	.p2align	4, 0x90
_ZN4core3ptr53drop_in_place$LT$alloc..raw_vec..RawVec$LT$u8$GT$$GT$17hc25f668b10dad678E:
.Lfunc_begin93:
	.cv_func_id 124
	.cv_loc	124 29 448 0
.seh_proc _ZN4core3ptr53drop_in_place$LT$alloc..raw_vec..RawVec$LT$u8$GT$$GT$17hc25f668b10dad678E
	subq	$40, %rsp
	.seh_stackalloc 40
	.seh_endprologue
	movq	%rcx, 32(%rsp)
.Ltmp419:
	callq	_ZN77_$LT$alloc..raw_vec..RawVec$LT$T$C$A$GT$$u20$as$u20$core..ops..drop..Drop$GT$4drop17hf15c19eaaf5e0a03E
	nop
	addq	$40, %rsp
	retq
.Ltmp420:
.Lfunc_end93:
	.seh_endproc

	.def	_ZN4core3ptr54drop_in_place$LT$alloc..raw_vec..RawVec$LT$u16$GT$$GT$17hb39dbd6985cfca5dE;
	.scl	3;
	.type	32;
	.endef
	.section	.text,"xr",one_only,_ZN4core3ptr54drop_in_place$LT$alloc..raw_vec..RawVec$LT$u16$GT$$GT$17hb39dbd6985cfca5dE
	.p2align	4, 0x90
_ZN4core3ptr54drop_in_place$LT$alloc..raw_vec..RawVec$LT$u16$GT$$GT$17hb39dbd6985cfca5dE:
.Lfunc_begin94:
	.cv_func_id 125
	.cv_loc	125 29 448 0
.seh_proc _ZN4core3ptr54drop_in_place$LT$alloc..raw_vec..RawVec$LT$u16$GT$$GT$17hb39dbd6985cfca5dE
	subq	$40, %rsp
	.seh_stackalloc 40
	.seh_endprologue
	movq	%rcx, 32(%rsp)
.Ltmp421:
	callq	_ZN77_$LT$alloc..raw_vec..RawVec$LT$T$C$A$GT$$u20$as$u20$core..ops..drop..Drop$GT$4drop17h431540f1781cc844E
	nop
	addq	$40, %rsp
	retq
.Ltmp422:
.Lfunc_end94:
	.seh_endproc

	.def	_ZN4core3ptr54drop_in_place$LT$std..sys..windows..handle..Handle$GT$17hdda1af7546b3c5f8E;
	.scl	3;
	.type	32;
	.endef
	.section	.text,"xr",one_only,_ZN4core3ptr54drop_in_place$LT$std..sys..windows..handle..Handle$GT$17hdda1af7546b3c5f8E
	.p2align	4, 0x90
_ZN4core3ptr54drop_in_place$LT$std..sys..windows..handle..Handle$GT$17hdda1af7546b3c5f8E:
.Lfunc_begin95:
	.cv_func_id 126
	.cv_loc	126 29 448 0
.seh_proc _ZN4core3ptr54drop_in_place$LT$std..sys..windows..handle..Handle$GT$17hdda1af7546b3c5f8E
	subq	$40, %rsp
	.seh_stackalloc 40
	.seh_endprologue
	movq	%rcx, 32(%rsp)
.Ltmp423:
	callq	_ZN4core3ptr62drop_in_place$LT$std..os..windows..io..handle..OwnedHandle$GT$17h9e9b027137dda256E
	nop
	addq	$40, %rsp
	retq
.Ltmp424:
.Lfunc_end95:
	.seh_endproc

	.def	_ZN4core3ptr54drop_in_place$LT$std..sys..windows..process..Stdio$GT$17hde882b80d977c306E;
	.scl	3;
	.type	32;
	.endef
	.section	.text,"xr",one_only,_ZN4core3ptr54drop_in_place$LT$std..sys..windows..process..Stdio$GT$17hde882b80d977c306E
	.p2align	4, 0x90
_ZN4core3ptr54drop_in_place$LT$std..sys..windows..process..Stdio$GT$17hde882b80d977c306E:
.Lfunc_begin96:
	.cv_func_id 127
	.cv_loc	127 29 448 0
.seh_proc _ZN4core3ptr54drop_in_place$LT$std..sys..windows..process..Stdio$GT$17hde882b80d977c306E
	subq	$56, %rsp
	.seh_stackalloc 56
	.seh_endprologue
	movq	%rcx, 40(%rsp)
	movq	%rcx, 48(%rsp)
.Ltmp425:
	movl	(%rcx), %eax
	subl	$3, %eax
	jb	.LBB96_2
	jmp	.LBB96_1
.LBB96_1:
	movq	40(%rsp), %rcx
	addq	$8, %rcx
	callq	_ZN4core3ptr54drop_in_place$LT$std..sys..windows..handle..Handle$GT$17hdda1af7546b3c5f8E
.LBB96_2:
	nop
	addq	$56, %rsp
	retq
.Ltmp426:
.Lfunc_end96:
	.seh_endproc

	.def	_ZN4core3ptr55drop_in_place$LT$std..sys..windows..process..EnvKey$GT$17hc3f4dba1d1b41115E;
	.scl	3;
	.type	32;
	.endef
	.section	.text,"xr",one_only,_ZN4core3ptr55drop_in_place$LT$std..sys..windows..process..EnvKey$GT$17hc3f4dba1d1b41115E
	.p2align	4, 0x90
_ZN4core3ptr55drop_in_place$LT$std..sys..windows..process..EnvKey$GT$17hc3f4dba1d1b41115E:
.Lfunc_begin97:
	.cv_func_id 128
	.cv_loc	128 29 448 0
.seh_proc _ZN4core3ptr55drop_in_place$LT$std..sys..windows..process..EnvKey$GT$17hc3f4dba1d1b41115E
	.seh_handler __CxxFrameHandler3, @unwind, @except
	pushq	%rbp
	.seh_pushreg %rbp
	subq	$64, %rsp
	.seh_stackalloc 64
	leaq	64(%rsp), %rbp
	.seh_setframe %rbp, 64
	.seh_endprologue
	movq	$-2, -8(%rbp)
	movq	%rcx, -24(%rbp)
	movq	%rcx, -16(%rbp)
.Ltmp427:
.Ltmp429:
	callq	_ZN4core3ptr47drop_in_place$LT$std..ffi..os_str..OsString$GT$17h833013778cd57550E
.Ltmp428:
	jmp	.LBB97_2
.LBB97_2:
	movq	-24(%rbp), %rcx
	addq	$24, %rcx
	callq	_ZN4core3ptr47drop_in_place$LT$alloc..vec..Vec$LT$u16$GT$$GT$17hbc5cfe44a6b25df9E
	nop
	addq	$64, %rsp
	popq	%rbp
	retq
	.seh_handlerdata
	.long	($cppxdata$_ZN4core3ptr55drop_in_place$LT$std..sys..windows..process..EnvKey$GT$17hc3f4dba1d1b41115E)@IMGREL
	.section	.text,"xr",one_only,_ZN4core3ptr55drop_in_place$LT$std..sys..windows..process..EnvKey$GT$17hc3f4dba1d1b41115E
	.seh_endproc
	.def	"?dtor$1@?0?_ZN4core3ptr55drop_in_place$LT$std..sys..windows..process..EnvKey$GT$17hc3f4dba1d1b41115E@4HA";
	.scl	3;
	.type	32;
	.endef
	.p2align	4, 0x90
"?dtor$1@?0?_ZN4core3ptr55drop_in_place$LT$std..sys..windows..process..EnvKey$GT$17hc3f4dba1d1b41115E@4HA":
.seh_proc "?dtor$1@?0?_ZN4core3ptr55drop_in_place$LT$std..sys..windows..process..EnvKey$GT$17hc3f4dba1d1b41115E@4HA"
.LBB97_1:
	movq	%rdx, 16(%rsp)
	pushq	%rbp
	.seh_pushreg %rbp
	subq	$32, %rsp
	.seh_stackalloc 32
	leaq	64(%rdx), %rbp
	.seh_endprologue
	movq	-24(%rbp), %rcx
	addq	$24, %rcx
	callq	_ZN4core3ptr47drop_in_place$LT$alloc..vec..Vec$LT$u16$GT$$GT$17hbc5cfe44a6b25df9E
	nop
	addq	$32, %rsp
	popq	%rbp
	retq
.Ltmp430:
.Lfunc_end97:
	.seh_handlerdata
	.section	.text,"xr",one_only,_ZN4core3ptr55drop_in_place$LT$std..sys..windows..process..EnvKey$GT$17hc3f4dba1d1b41115E
	.seh_endproc
	.section	.xdata,"dr",associative,_ZN4core3ptr55drop_in_place$LT$std..sys..windows..process..EnvKey$GT$17hc3f4dba1d1b41115E
	.p2align	2
$cppxdata$_ZN4core3ptr55drop_in_place$LT$std..sys..windows..process..EnvKey$GT$17hc3f4dba1d1b41115E:
	.long	429065506
	.long	1
	.long	($stateUnwindMap$_ZN4core3ptr55drop_in_place$LT$std..sys..windows..process..EnvKey$GT$17hc3f4dba1d1b41115E)@IMGREL
	.long	0
	.long	0
	.long	3
	.long	($ip2state$_ZN4core3ptr55drop_in_place$LT$std..sys..windows..process..EnvKey$GT$17hc3f4dba1d1b41115E)@IMGREL
	.long	56
	.long	0
	.long	1
$stateUnwindMap$_ZN4core3ptr55drop_in_place$LT$std..sys..windows..process..EnvKey$GT$17hc3f4dba1d1b41115E:
	.long	-1
	.long	"?dtor$1@?0?_ZN4core3ptr55drop_in_place$LT$std..sys..windows..process..EnvKey$GT$17hc3f4dba1d1b41115E@4HA"@IMGREL
$ip2state$_ZN4core3ptr55drop_in_place$LT$std..sys..windows..process..EnvKey$GT$17hc3f4dba1d1b41115E:
	.long	.Lfunc_begin97@IMGREL
	.long	-1
	.long	.Ltmp427@IMGREL+1
	.long	0
	.long	.Ltmp428@IMGREL+1
	.long	-1
	.section	.text,"xr",one_only,_ZN4core3ptr55drop_in_place$LT$std..sys..windows..process..EnvKey$GT$17hc3f4dba1d1b41115E

	.def	_ZN4core3ptr56drop_in_place$LT$std..sys..windows..process..Command$GT$17h8e59d0ec83a4a9d8E;
	.scl	3;
	.type	32;
	.endef
	.section	.text,"xr",one_only,_ZN4core3ptr56drop_in_place$LT$std..sys..windows..process..Command$GT$17h8e59d0ec83a4a9d8E
	.p2align	4, 0x90
_ZN4core3ptr56drop_in_place$LT$std..sys..windows..process..Command$GT$17h8e59d0ec83a4a9d8E:
.Lfunc_begin98:
	.cv_func_id 129
	.cv_loc	129 29 448 0
.seh_proc _ZN4core3ptr56drop_in_place$LT$std..sys..windows..process..Command$GT$17h8e59d0ec83a4a9d8E
	.seh_handler __CxxFrameHandler3, @unwind, @except
	pushq	%rbp
	.seh_pushreg %rbp
	subq	$64, %rsp
	.seh_stackalloc 64
	leaq	64(%rsp), %rbp
	.seh_setframe %rbp, 64
	.seh_endprologue
	movq	$-2, -8(%rbp)
	movq	%rcx, -24(%rbp)
	movq	%rcx, -16(%rbp)
.Ltmp431:
.Ltmp443:
	callq	_ZN4core3ptr47drop_in_place$LT$std..ffi..os_str..OsString$GT$17h833013778cd57550E
.Ltmp432:
	jmp	.LBB98_2
.LBB98_2:
	movq	-24(%rbp), %rcx
	addq	$24, %rcx
.Ltmp433:
	callq	_ZN4core3ptr75drop_in_place$LT$alloc..vec..Vec$LT$std..sys..windows..process..Arg$GT$$GT$17h50e4d28629d954adE
.Ltmp434:
	jmp	.LBB98_4
.LBB98_4:
	movq	-24(%rbp), %rcx
	addq	$48, %rcx
.Ltmp435:
	callq	_ZN4core3ptr57drop_in_place$LT$std..sys_common..process..CommandEnv$GT$17h7f5c58ae2936fb43E
.Ltmp436:
	jmp	.LBB98_6
.LBB98_6:
	movq	-24(%rbp), %rcx
	addq	$80, %rcx
.Ltmp437:
	callq	_ZN4core3ptr75drop_in_place$LT$core..option..Option$LT$std..ffi..os_str..OsString$GT$$GT$17h20e7750e985c939cE
.Ltmp438:
	jmp	.LBB98_8
.LBB98_8:
	movq	-24(%rbp), %rcx
	addq	$104, %rcx
.Ltmp439:
	callq	_ZN4core3ptr82drop_in_place$LT$core..option..Option$LT$std..sys..windows..process..Stdio$GT$$GT$17hfcfd209757eb4436E
.Ltmp440:
	jmp	.LBB98_10
.LBB98_10:
	movq	-24(%rbp), %rcx
	addq	$120, %rcx
.Ltmp441:
	callq	_ZN4core3ptr82drop_in_place$LT$core..option..Option$LT$std..sys..windows..process..Stdio$GT$$GT$17hfcfd209757eb4436E
.Ltmp442:
	jmp	.LBB98_12
.LBB98_12:
	movq	-24(%rbp), %rcx
	addq	$136, %rcx
	callq	_ZN4core3ptr82drop_in_place$LT$core..option..Option$LT$std..sys..windows..process..Stdio$GT$$GT$17hfcfd209757eb4436E
	nop
	addq	$64, %rsp
	popq	%rbp
	retq
	.seh_handlerdata
	.long	($cppxdata$_ZN4core3ptr56drop_in_place$LT$std..sys..windows..process..Command$GT$17h8e59d0ec83a4a9d8E)@IMGREL
	.section	.text,"xr",one_only,_ZN4core3ptr56drop_in_place$LT$std..sys..windows..process..Command$GT$17h8e59d0ec83a4a9d8E
	.seh_endproc
	.def	"?dtor$1@?0?_ZN4core3ptr56drop_in_place$LT$std..sys..windows..process..Command$GT$17h8e59d0ec83a4a9d8E@4HA";
	.scl	3;
	.type	32;
	.endef
	.p2align	4, 0x90
"?dtor$1@?0?_ZN4core3ptr56drop_in_place$LT$std..sys..windows..process..Command$GT$17h8e59d0ec83a4a9d8E@4HA":
.seh_proc "?dtor$1@?0?_ZN4core3ptr56drop_in_place$LT$std..sys..windows..process..Command$GT$17h8e59d0ec83a4a9d8E@4HA"
.LBB98_1:
	movq	%rdx, 16(%rsp)
	pushq	%rbp
	.seh_pushreg %rbp
	subq	$32, %rsp
	.seh_stackalloc 32
	leaq	64(%rdx), %rbp
	.seh_endprologue
	movq	-24(%rbp), %rcx
	addq	$24, %rcx
	callq	_ZN4core3ptr75drop_in_place$LT$alloc..vec..Vec$LT$std..sys..windows..process..Arg$GT$$GT$17h50e4d28629d954adE
	nop
	addq	$32, %rsp
	popq	%rbp
	retq
	.seh_handlerdata
	.section	.text,"xr",one_only,_ZN4core3ptr56drop_in_place$LT$std..sys..windows..process..Command$GT$17h8e59d0ec83a4a9d8E
	.seh_endproc
	.def	"?dtor$3@?0?_ZN4core3ptr56drop_in_place$LT$std..sys..windows..process..Command$GT$17h8e59d0ec83a4a9d8E@4HA";
	.scl	3;
	.type	32;
	.endef
	.p2align	4, 0x90
"?dtor$3@?0?_ZN4core3ptr56drop_in_place$LT$std..sys..windows..process..Command$GT$17h8e59d0ec83a4a9d8E@4HA":
.seh_proc "?dtor$3@?0?_ZN4core3ptr56drop_in_place$LT$std..sys..windows..process..Command$GT$17h8e59d0ec83a4a9d8E@4HA"
.LBB98_3:
	movq	%rdx, 16(%rsp)
	pushq	%rbp
	.seh_pushreg %rbp
	subq	$32, %rsp
	.seh_stackalloc 32
	leaq	64(%rdx), %rbp
	.seh_endprologue
	movq	-24(%rbp), %rcx
	addq	$48, %rcx
	callq	_ZN4core3ptr57drop_in_place$LT$std..sys_common..process..CommandEnv$GT$17h7f5c58ae2936fb43E
	nop
	addq	$32, %rsp
	popq	%rbp
	retq
	.seh_handlerdata
	.section	.text,"xr",one_only,_ZN4core3ptr56drop_in_place$LT$std..sys..windows..process..Command$GT$17h8e59d0ec83a4a9d8E
	.seh_endproc
	.def	"?dtor$5@?0?_ZN4core3ptr56drop_in_place$LT$std..sys..windows..process..Command$GT$17h8e59d0ec83a4a9d8E@4HA";
	.scl	3;
	.type	32;
	.endef
	.p2align	4, 0x90
"?dtor$5@?0?_ZN4core3ptr56drop_in_place$LT$std..sys..windows..process..Command$GT$17h8e59d0ec83a4a9d8E@4HA":
.seh_proc "?dtor$5@?0?_ZN4core3ptr56drop_in_place$LT$std..sys..windows..process..Command$GT$17h8e59d0ec83a4a9d8E@4HA"
.LBB98_5:
	movq	%rdx, 16(%rsp)
	pushq	%rbp
	.seh_pushreg %rbp
	subq	$32, %rsp
	.seh_stackalloc 32
	leaq	64(%rdx), %rbp
	.seh_endprologue
	movq	-24(%rbp), %rcx
	addq	$80, %rcx
	callq	_ZN4core3ptr75drop_in_place$LT$core..option..Option$LT$std..ffi..os_str..OsString$GT$$GT$17h20e7750e985c939cE
	nop
	addq	$32, %rsp
	popq	%rbp
	retq
	.seh_handlerdata
	.section	.text,"xr",one_only,_ZN4core3ptr56drop_in_place$LT$std..sys..windows..process..Command$GT$17h8e59d0ec83a4a9d8E
	.seh_endproc
	.def	"?dtor$7@?0?_ZN4core3ptr56drop_in_place$LT$std..sys..windows..process..Command$GT$17h8e59d0ec83a4a9d8E@4HA";
	.scl	3;
	.type	32;
	.endef
	.p2align	4, 0x90
"?dtor$7@?0?_ZN4core3ptr56drop_in_place$LT$std..sys..windows..process..Command$GT$17h8e59d0ec83a4a9d8E@4HA":
.seh_proc "?dtor$7@?0?_ZN4core3ptr56drop_in_place$LT$std..sys..windows..process..Command$GT$17h8e59d0ec83a4a9d8E@4HA"
.LBB98_7:
	movq	%rdx, 16(%rsp)
	pushq	%rbp
	.seh_pushreg %rbp
	subq	$32, %rsp
	.seh_stackalloc 32
	leaq	64(%rdx), %rbp
	.seh_endprologue
	movq	-24(%rbp), %rcx
	addq	$104, %rcx
	callq	_ZN4core3ptr82drop_in_place$LT$core..option..Option$LT$std..sys..windows..process..Stdio$GT$$GT$17hfcfd209757eb4436E
	nop
	addq	$32, %rsp
	popq	%rbp
	retq
	.seh_handlerdata
	.section	.text,"xr",one_only,_ZN4core3ptr56drop_in_place$LT$std..sys..windows..process..Command$GT$17h8e59d0ec83a4a9d8E
	.seh_endproc
	.def	"?dtor$9@?0?_ZN4core3ptr56drop_in_place$LT$std..sys..windows..process..Command$GT$17h8e59d0ec83a4a9d8E@4HA";
	.scl	3;
	.type	32;
	.endef
	.p2align	4, 0x90
"?dtor$9@?0?_ZN4core3ptr56drop_in_place$LT$std..sys..windows..process..Command$GT$17h8e59d0ec83a4a9d8E@4HA":
.seh_proc "?dtor$9@?0?_ZN4core3ptr56drop_in_place$LT$std..sys..windows..process..Command$GT$17h8e59d0ec83a4a9d8E@4HA"
.LBB98_9:
	movq	%rdx, 16(%rsp)
	pushq	%rbp
	.seh_pushreg %rbp
	subq	$32, %rsp
	.seh_stackalloc 32
	leaq	64(%rdx), %rbp
	.seh_endprologue
	movq	-24(%rbp), %rcx
	addq	$120, %rcx
	callq	_ZN4core3ptr82drop_in_place$LT$core..option..Option$LT$std..sys..windows..process..Stdio$GT$$GT$17hfcfd209757eb4436E
	nop
	addq	$32, %rsp
	popq	%rbp
	retq
	.seh_handlerdata
	.section	.text,"xr",one_only,_ZN4core3ptr56drop_in_place$LT$std..sys..windows..process..Command$GT$17h8e59d0ec83a4a9d8E
	.seh_endproc
	.def	"?dtor$11@?0?_ZN4core3ptr56drop_in_place$LT$std..sys..windows..process..Command$GT$17h8e59d0ec83a4a9d8E@4HA";
	.scl	3;
	.type	32;
	.endef
	.p2align	4, 0x90
"?dtor$11@?0?_ZN4core3ptr56drop_in_place$LT$std..sys..windows..process..Command$GT$17h8e59d0ec83a4a9d8E@4HA":
.seh_proc "?dtor$11@?0?_ZN4core3ptr56drop_in_place$LT$std..sys..windows..process..Command$GT$17h8e59d0ec83a4a9d8E@4HA"
.LBB98_11:
	movq	%rdx, 16(%rsp)
	pushq	%rbp
	.seh_pushreg %rbp
	subq	$32, %rsp
	.seh_stackalloc 32
	leaq	64(%rdx), %rbp
	.seh_endprologue
	movq	-24(%rbp), %rcx
	addq	$136, %rcx
	callq	_ZN4core3ptr82drop_in_place$LT$core..option..Option$LT$std..sys..windows..process..Stdio$GT$$GT$17hfcfd209757eb4436E
	nop
	addq	$32, %rsp
	popq	%rbp
	retq
.Ltmp444:
.Lfunc_end98:
	.seh_handlerdata
	.section	.text,"xr",one_only,_ZN4core3ptr56drop_in_place$LT$std..sys..windows..process..Command$GT$17h8e59d0ec83a4a9d8E
	.seh_endproc
	.section	.xdata,"dr",associative,_ZN4core3ptr56drop_in_place$LT$std..sys..windows..process..Command$GT$17h8e59d0ec83a4a9d8E
	.p2align	2
$cppxdata$_ZN4core3ptr56drop_in_place$LT$std..sys..windows..process..Command$GT$17h8e59d0ec83a4a9d8E:
	.long	429065506
	.long	6
	.long	($stateUnwindMap$_ZN4core3ptr56drop_in_place$LT$std..sys..windows..process..Command$GT$17h8e59d0ec83a4a9d8E)@IMGREL
	.long	0
	.long	0
	.long	8
	.long	($ip2state$_ZN4core3ptr56drop_in_place$LT$std..sys..windows..process..Command$GT$17h8e59d0ec83a4a9d8E)@IMGREL
	.long	56
	.long	0
	.long	1
$stateUnwindMap$_ZN4core3ptr56drop_in_place$LT$std..sys..windows..process..Command$GT$17h8e59d0ec83a4a9d8E:
	.long	-1
	.long	"?dtor$11@?0?_ZN4core3ptr56drop_in_place$LT$std..sys..windows..process..Command$GT$17h8e59d0ec83a4a9d8E@4HA"@IMGREL
	.long	0
	.long	"?dtor$9@?0?_ZN4core3ptr56drop_in_place$LT$std..sys..windows..process..Command$GT$17h8e59d0ec83a4a9d8E@4HA"@IMGREL
	.long	1
	.long	"?dtor$7@?0?_ZN4core3ptr56drop_in_place$LT$std..sys..windows..process..Command$GT$17h8e59d0ec83a4a9d8E@4HA"@IMGREL
	.long	2
	.long	"?dtor$5@?0?_ZN4core3ptr56drop_in_place$LT$std..sys..windows..process..Command$GT$17h8e59d0ec83a4a9d8E@4HA"@IMGREL
	.long	3
	.long	"?dtor$3@?0?_ZN4core3ptr56drop_in_place$LT$std..sys..windows..process..Command$GT$17h8e59d0ec83a4a9d8E@4HA"@IMGREL
	.long	4
	.long	"?dtor$1@?0?_ZN4core3ptr56drop_in_place$LT$std..sys..windows..process..Command$GT$17h8e59d0ec83a4a9d8E@4HA"@IMGREL
$ip2state$_ZN4core3ptr56drop_in_place$LT$std..sys..windows..process..Command$GT$17h8e59d0ec83a4a9d8E:
	.long	.Lfunc_begin98@IMGREL
	.long	-1
	.long	.Ltmp431@IMGREL+1
	.long	5
	.long	.Ltmp433@IMGREL+1
	.long	4
	.long	.Ltmp435@IMGREL+1
	.long	3
	.long	.Ltmp437@IMGREL+1
	.long	2
	.long	.Ltmp439@IMGREL+1
	.long	1
	.long	.Ltmp441@IMGREL+1
	.long	0
	.long	.Ltmp442@IMGREL+1
	.long	-1
	.section	.text,"xr",one_only,_ZN4core3ptr56drop_in_place$LT$std..sys..windows..process..Command$GT$17h8e59d0ec83a4a9d8E

	.def	_ZN4core3ptr57drop_in_place$LT$std..io..error..repr_bitpacked..Repr$GT$17hc504a9ae69ea12c2E;
	.scl	3;
	.type	32;
	.endef
	.section	.text,"xr",one_only,_ZN4core3ptr57drop_in_place$LT$std..io..error..repr_bitpacked..Repr$GT$17hc504a9ae69ea12c2E
	.p2align	4, 0x90
_ZN4core3ptr57drop_in_place$LT$std..io..error..repr_bitpacked..Repr$GT$17hc504a9ae69ea12c2E:
.Lfunc_begin99:
	.cv_func_id 130
	.cv_loc	130 29 448 0
.seh_proc _ZN4core3ptr57drop_in_place$LT$std..io..error..repr_bitpacked..Repr$GT$17hc504a9ae69ea12c2E
	subq	$40, %rsp
	.seh_stackalloc 40
	.seh_endprologue
	movq	%rcx, 32(%rsp)
.Ltmp445:
	callq	_ZN78_$LT$std..io..error..repr_bitpacked..Repr$u20$as$u20$core..ops..drop..Drop$GT$4drop17hf5088c2c6c65a4b7E
	nop
	addq	$40, %rsp
	retq
.Ltmp446:
.Lfunc_end99:
	.seh_endproc

	.def	_ZN4core3ptr57drop_in_place$LT$std..sys_common..process..CommandEnv$GT$17h7f5c58ae2936fb43E;
	.scl	3;
	.type	32;
	.endef
	.section	.text,"xr",one_only,_ZN4core3ptr57drop_in_place$LT$std..sys_common..process..CommandEnv$GT$17h7f5c58ae2936fb43E
	.p2align	4, 0x90
_ZN4core3ptr57drop_in_place$LT$std..sys_common..process..CommandEnv$GT$17h7f5c58ae2936fb43E:
.Lfunc_begin100:
	.cv_func_id 131
	.cv_loc	131 29 448 0
.seh_proc _ZN4core3ptr57drop_in_place$LT$std..sys_common..process..CommandEnv$GT$17h7f5c58ae2936fb43E
	subq	$40, %rsp
	.seh_stackalloc 40
	.seh_endprologue
	movq	%rcx, 32(%rsp)
.Ltmp447:
	callq	_ZN4core3ptr160drop_in_place$LT$alloc..collections..btree..map..BTreeMap$LT$std..sys..windows..process..EnvKey$C$core..option..Option$LT$std..ffi..os_str..OsString$GT$$GT$$GT$17h731ef39c42e80f6aE
	nop
	addq	$40, %rsp
	retq
.Ltmp448:
.Lfunc_end100:
	.seh_endproc

	.def	_ZN4core3ptr5write17h2393d5ecc12d21c1E;
	.scl	3;
	.type	32;
	.endef
	.section	.text,"xr",one_only,_ZN4core3ptr5write17h2393d5ecc12d21c1E
	.p2align	4, 0x90
_ZN4core3ptr5write17h2393d5ecc12d21c1E:
.Lfunc_begin101:
	.cv_func_id 132
	.cv_loc	132 29 1165 0
.seh_proc _ZN4core3ptr5write17h2393d5ecc12d21c1E
	subq	$16, %rsp
	.seh_stackalloc 16
	.seh_endprologue
	movq	%rdx, (%rsp)
	movq	%rcx, 8(%rsp)
.Ltmp449:
	.cv_loc	132 29 1177 0
	movq	(%rsp), %rax
	movq	%rax, (%rcx)
	.cv_loc	132 29 1180 0
	addq	$16, %rsp
	retq
.Ltmp450:
.Lfunc_end101:
	.seh_endproc

	.def	_ZN4core3ptr5write17h260bf614a17e9036E;
	.scl	3;
	.type	32;
	.endef
	.section	.text,"xr",one_only,_ZN4core3ptr5write17h260bf614a17e9036E
	.p2align	4, 0x90
_ZN4core3ptr5write17h260bf614a17e9036E:
.Lfunc_begin102:
	.cv_func_id 133
	.cv_loc	133 29 1165 0
.seh_proc _ZN4core3ptr5write17h260bf614a17e9036E
	pushq	%rax
	.seh_stackalloc 8
	.seh_endprologue
	movq	%rcx, (%rsp)
.Ltmp451:
	.cv_loc	133 29 1177 0
	movq	(%rdx), %rax
	movq	%rax, (%rcx)
	movq	8(%rdx), %rax
	movq	%rax, 8(%rcx)
	movq	16(%rdx), %rax
	movq	%rax, 16(%rcx)
	movq	24(%rdx), %rax
	movq	%rax, 24(%rcx)
	.cv_loc	133 29 1180 0
	popq	%rax
	retq
.Ltmp452:
.Lfunc_end102:
	.seh_endproc

	.def	_ZN4core3ptr5write17h7a07f1e532a997c2E;
	.scl	3;
	.type	32;
	.endef
	.section	.text,"xr",one_only,_ZN4core3ptr5write17h7a07f1e532a997c2E
	.p2align	4, 0x90
_ZN4core3ptr5write17h7a07f1e532a997c2E:
.Lfunc_begin103:
	.cv_func_id 134
	.cv_loc	134 29 1165 0
.seh_proc _ZN4core3ptr5write17h7a07f1e532a997c2E
	subq	$24, %rsp
	.seh_stackalloc 24
	.seh_endprologue
	movq	%rdx, (%rsp)
	movq	%r8, 8(%rsp)
	movq	%rcx, 16(%rsp)
.Ltmp453:
	.cv_loc	134 29 1177 0
	movq	(%rsp), %rax
	movq	%rax, (%rcx)
	movq	8(%rsp), %rax
	movq	%rax, 8(%rcx)
	.cv_loc	134 29 1180 0
	addq	$24, %rsp
	retq
.Ltmp454:
.Lfunc_end103:
	.seh_endproc

	.def	_ZN4core3ptr5write17hf0061b7f6960f72cE;
	.scl	3;
	.type	32;
	.endef
	.section	.text,"xr",one_only,_ZN4core3ptr5write17hf0061b7f6960f72cE
	.p2align	4, 0x90
_ZN4core3ptr5write17hf0061b7f6960f72cE:
.Lfunc_begin104:
	.cv_func_id 135
	.cv_loc	135 29 1165 0
.seh_proc _ZN4core3ptr5write17hf0061b7f6960f72cE
	pushq	%rax
	.seh_stackalloc 8
	.seh_endprologue
	movq	%rcx, (%rsp)
.Ltmp455:
	.cv_loc	135 29 1177 0
	movq	(%rdx), %rax
	movq	%rax, (%rcx)
	movq	8(%rdx), %rax
	movq	%rax, 8(%rcx)
	movq	16(%rdx), %rax
	movq	%rax, 16(%rcx)
	.cv_loc	135 29 1180 0
	popq	%rax
	retq
.Ltmp456:
.Lfunc_end104:
	.seh_endproc

	.def	_ZN4core3ptr62drop_in_place$LT$$u5b$std..sys..windows..process..Arg$u5d$$GT$17h9ad49b103475a876E;
	.scl	3;
	.type	32;
	.endef
	.section	.text,"xr",one_only,_ZN4core3ptr62drop_in_place$LT$$u5b$std..sys..windows..process..Arg$u5d$$GT$17h9ad49b103475a876E
	.p2align	4, 0x90
_ZN4core3ptr62drop_in_place$LT$$u5b$std..sys..windows..process..Arg$u5d$$GT$17h9ad49b103475a876E:
.Lfunc_begin105:
	.cv_func_id 136
	.cv_loc	136 29 448 0
.seh_proc _ZN4core3ptr62drop_in_place$LT$$u5b$std..sys..windows..process..Arg$u5d$$GT$17h9ad49b103475a876E
	.seh_handler __CxxFrameHandler3, @unwind, @except
	pushq	%rbp
	.seh_pushreg %rbp
	subq	$80, %rsp
	.seh_stackalloc 80
	leaq	80(%rsp), %rbp
	.seh_setframe %rbp, 80
	.seh_endprologue
	movq	$-2, -8(%rbp)
	movq	%rdx, %rax
	movq	%rcx, -24(%rbp)
	movq	%rax, -16(%rbp)
.Ltmp459:
	movq	%rcx, -32(%rbp)
	shlq	$5, %rax
	addq	-32(%rbp), %rax
	movq	%rax, -40(%rbp)
.LBB105_1:
	movq	-40(%rbp), %rax
	cmpq	%rax, -32(%rbp)
	je	.LBB105_3
	movq	-32(%rbp), %rcx
	movq	%rcx, %rax
	addq	$32, %rax
	movq	%rax, -32(%rbp)
.Ltmp457:
	callq	_ZN4core3ptr52drop_in_place$LT$std..sys..windows..process..Arg$GT$17hae5ae8168c4ae1b2E
.Ltmp458:
	jmp	.LBB105_1
.LBB105_3:
	addq	$80, %rsp
	popq	%rbp
	retq
.LBB105_4:
	movq	-40(%rbp), %rax
	cmpq	%rax, -32(%rbp)
	je	.LBB105_8
	jmp	.LBB105_6
	.seh_handlerdata
	.long	($cppxdata$_ZN4core3ptr62drop_in_place$LT$$u5b$std..sys..windows..process..Arg$u5d$$GT$17h9ad49b103475a876E)@IMGREL
	.section	.text,"xr",one_only,_ZN4core3ptr62drop_in_place$LT$$u5b$std..sys..windows..process..Arg$u5d$$GT$17h9ad49b103475a876E
	.seh_endproc
	.def	"?dtor$5@?0?_ZN4core3ptr62drop_in_place$LT$$u5b$std..sys..windows..process..Arg$u5d$$GT$17h9ad49b103475a876E@4HA";
	.scl	3;
	.type	32;
	.endef
	.p2align	4, 0x90
"?dtor$5@?0?_ZN4core3ptr62drop_in_place$LT$$u5b$std..sys..windows..process..Arg$u5d$$GT$17h9ad49b103475a876E@4HA":
.seh_proc "?dtor$5@?0?_ZN4core3ptr62drop_in_place$LT$$u5b$std..sys..windows..process..Arg$u5d$$GT$17h9ad49b103475a876E@4HA"
.LBB105_5:
	movq	%rdx, 16(%rsp)
	pushq	%rbp
	.seh_pushreg %rbp
	subq	$32, %rsp
	.seh_stackalloc 32
	leaq	80(%rdx), %rbp
	.seh_endprologue
	jmp	.LBB105_4
.LBB105_6:
	movq	-32(%rbp), %rcx
	movq	-32(%rbp), %rax
	addq	$32, %rax
	movq	%rax, -32(%rbp)
	callq	_ZN4core3ptr52drop_in_place$LT$std..sys..windows..process..Arg$GT$17hae5ae8168c4ae1b2E
	jmp	.LBB105_4
.LBB105_8:
	addq	$32, %rsp
	popq	%rbp
	retq
	.seh_handlerdata
	.section	.text,"xr",one_only,_ZN4core3ptr62drop_in_place$LT$$u5b$std..sys..windows..process..Arg$u5d$$GT$17h9ad49b103475a876E
	.seh_endproc
	.def	"?dtor$7@?0?_ZN4core3ptr62drop_in_place$LT$$u5b$std..sys..windows..process..Arg$u5d$$GT$17h9ad49b103475a876E@4HA";
	.scl	3;
	.type	32;
	.endef
	.p2align	4, 0x90
"?dtor$7@?0?_ZN4core3ptr62drop_in_place$LT$$u5b$std..sys..windows..process..Arg$u5d$$GT$17h9ad49b103475a876E@4HA":
.seh_proc "?dtor$7@?0?_ZN4core3ptr62drop_in_place$LT$$u5b$std..sys..windows..process..Arg$u5d$$GT$17h9ad49b103475a876E@4HA"
.LBB105_7:
	movq	%rdx, 16(%rsp)
	pushq	%rbp
	.seh_pushreg %rbp
	subq	$32, %rsp
	.seh_stackalloc 32
	leaq	80(%rdx), %rbp
	.seh_endprologue
	addq	$32, %rsp
	popq	%rbp
	retq
.Ltmp460:
.Lfunc_end105:
	.seh_handlerdata
	.section	.text,"xr",one_only,_ZN4core3ptr62drop_in_place$LT$$u5b$std..sys..windows..process..Arg$u5d$$GT$17h9ad49b103475a876E
	.seh_endproc
	.section	.xdata,"dr",associative,_ZN4core3ptr62drop_in_place$LT$$u5b$std..sys..windows..process..Arg$u5d$$GT$17h9ad49b103475a876E
	.p2align	2
$cppxdata$_ZN4core3ptr62drop_in_place$LT$$u5b$std..sys..windows..process..Arg$u5d$$GT$17h9ad49b103475a876E:
	.long	429065506
	.long	2
	.long	($stateUnwindMap$_ZN4core3ptr62drop_in_place$LT$$u5b$std..sys..windows..process..Arg$u5d$$GT$17h9ad49b103475a876E)@IMGREL
	.long	0
	.long	0
	.long	3
	.long	($ip2state$_ZN4core3ptr62drop_in_place$LT$$u5b$std..sys..windows..process..Arg$u5d$$GT$17h9ad49b103475a876E)@IMGREL
	.long	72
	.long	0
	.long	1
$stateUnwindMap$_ZN4core3ptr62drop_in_place$LT$$u5b$std..sys..windows..process..Arg$u5d$$GT$17h9ad49b103475a876E:
	.long	-1
	.long	"?dtor$7@?0?_ZN4core3ptr62drop_in_place$LT$$u5b$std..sys..windows..process..Arg$u5d$$GT$17h9ad49b103475a876E@4HA"@IMGREL
	.long	0
	.long	"?dtor$5@?0?_ZN4core3ptr62drop_in_place$LT$$u5b$std..sys..windows..process..Arg$u5d$$GT$17h9ad49b103475a876E@4HA"@IMGREL
$ip2state$_ZN4core3ptr62drop_in_place$LT$$u5b$std..sys..windows..process..Arg$u5d$$GT$17h9ad49b103475a876E:
	.long	.Lfunc_begin105@IMGREL
	.long	-1
	.long	.Ltmp457@IMGREL+1
	.long	1
	.long	.Ltmp458@IMGREL+1
	.long	-1
	.section	.text,"xr",one_only,_ZN4core3ptr62drop_in_place$LT$$u5b$std..sys..windows..process..Arg$u5d$$GT$17h9ad49b103475a876E

	.def	_ZN4core3ptr62drop_in_place$LT$std..os..windows..io..handle..OwnedHandle$GT$17h9e9b027137dda256E;
	.scl	3;
	.type	32;
	.endef
	.section	.text,"xr",one_only,_ZN4core3ptr62drop_in_place$LT$std..os..windows..io..handle..OwnedHandle$GT$17h9e9b027137dda256E
	.p2align	4, 0x90
_ZN4core3ptr62drop_in_place$LT$std..os..windows..io..handle..OwnedHandle$GT$17h9e9b027137dda256E:
.Lfunc_begin106:
	.cv_func_id 137
	.cv_loc	137 29 448 0
.seh_proc _ZN4core3ptr62drop_in_place$LT$std..os..windows..io..handle..OwnedHandle$GT$17h9e9b027137dda256E
	subq	$40, %rsp
	.seh_stackalloc 40
	.seh_endprologue
	movq	%rcx, 32(%rsp)
.Ltmp461:
	callq	_ZN83_$LT$std..os..windows..io..handle..OwnedHandle$u20$as$u20$core..ops..drop..Drop$GT$4drop17h7da39e5854adc59dE
	nop
	addq	$40, %rsp
	retq
.Ltmp462:
.Lfunc_end106:
	.seh_endproc

	.def	_ZN4core3ptr68drop_in_place$LT$alloc..boxed..Box$LT$std..io..error..Custom$GT$$GT$17hc73265a36caa2de4E;
	.scl	3;
	.type	32;
	.endef
	.section	.text,"xr",one_only,_ZN4core3ptr68drop_in_place$LT$alloc..boxed..Box$LT$std..io..error..Custom$GT$$GT$17hc73265a36caa2de4E
	.p2align	4, 0x90
_ZN4core3ptr68drop_in_place$LT$alloc..boxed..Box$LT$std..io..error..Custom$GT$$GT$17hc73265a36caa2de4E:
.Lfunc_begin107:
	.cv_func_id 138
	.cv_loc	138 29 448 0
.seh_proc _ZN4core3ptr68drop_in_place$LT$alloc..boxed..Box$LT$std..io..error..Custom$GT$$GT$17hc73265a36caa2de4E
	.seh_handler __CxxFrameHandler3, @unwind, @except
	pushq	%rbp
	.seh_pushreg %rbp
	subq	$64, %rsp
	.seh_stackalloc 64
	leaq	64(%rsp), %rbp
	.seh_setframe %rbp, 64
	.seh_endprologue
	movq	$-2, -8(%rbp)
	movq	%rcx, -24(%rbp)
	movq	%rcx, -16(%rbp)
.Ltmp465:
	movq	(%rcx), %rcx
.Ltmp463:
	callq	_ZN4core3ptr43drop_in_place$LT$std..io..error..Custom$GT$17h8868728980de5e35E
.Ltmp464:
	jmp	.LBB107_2
.LBB107_2:
	movq	-24(%rbp), %rax
	movq	(%rax), %rcx
	callq	_ZN5alloc5alloc8box_free17h5601d2a91ac9d2ddE
	nop
	addq	$64, %rsp
	popq	%rbp
	retq
	.seh_handlerdata
	.long	($cppxdata$_ZN4core3ptr68drop_in_place$LT$alloc..boxed..Box$LT$std..io..error..Custom$GT$$GT$17hc73265a36caa2de4E)@IMGREL
	.section	.text,"xr",one_only,_ZN4core3ptr68drop_in_place$LT$alloc..boxed..Box$LT$std..io..error..Custom$GT$$GT$17hc73265a36caa2de4E
	.seh_endproc
	.def	"?dtor$1@?0?_ZN4core3ptr68drop_in_place$LT$alloc..boxed..Box$LT$std..io..error..Custom$GT$$GT$17hc73265a36caa2de4E@4HA";
	.scl	3;
	.type	32;
	.endef
	.p2align	4, 0x90
"?dtor$1@?0?_ZN4core3ptr68drop_in_place$LT$alloc..boxed..Box$LT$std..io..error..Custom$GT$$GT$17hc73265a36caa2de4E@4HA":
.seh_proc "?dtor$1@?0?_ZN4core3ptr68drop_in_place$LT$alloc..boxed..Box$LT$std..io..error..Custom$GT$$GT$17hc73265a36caa2de4E@4HA"
.LBB107_1:
	movq	%rdx, 16(%rsp)
	pushq	%rbp
	.seh_pushreg %rbp
	subq	$32, %rsp
	.seh_stackalloc 32
	leaq	64(%rdx), %rbp
	.seh_endprologue
	movq	-24(%rbp), %rax
	movq	(%rax), %rcx
	callq	_ZN5alloc5alloc8box_free17h5601d2a91ac9d2ddE
	nop
	addq	$32, %rsp
	popq	%rbp
	retq
.Ltmp466:
.Lfunc_end107:
	.seh_handlerdata
	.section	.text,"xr",one_only,_ZN4core3ptr68drop_in_place$LT$alloc..boxed..Box$LT$std..io..error..Custom$GT$$GT$17hc73265a36caa2de4E
	.seh_endproc
	.section	.xdata,"dr",associative,_ZN4core3ptr68drop_in_place$LT$alloc..boxed..Box$LT$std..io..error..Custom$GT$$GT$17hc73265a36caa2de4E
	.p2align	2
$cppxdata$_ZN4core3ptr68drop_in_place$LT$alloc..boxed..Box$LT$std..io..error..Custom$GT$$GT$17hc73265a36caa2de4E:
	.long	429065506
	.long	1
	.long	($stateUnwindMap$_ZN4core3ptr68drop_in_place$LT$alloc..boxed..Box$LT$std..io..error..Custom$GT$$GT$17hc73265a36caa2de4E)@IMGREL
	.long	0
	.long	0
	.long	3
	.long	($ip2state$_ZN4core3ptr68drop_in_place$LT$alloc..boxed..Box$LT$std..io..error..Custom$GT$$GT$17hc73265a36caa2de4E)@IMGREL
	.long	56
	.long	0
	.long	1
$stateUnwindMap$_ZN4core3ptr68drop_in_place$LT$alloc..boxed..Box$LT$std..io..error..Custom$GT$$GT$17hc73265a36caa2de4E:
	.long	-1
	.long	"?dtor$1@?0?_ZN4core3ptr68drop_in_place$LT$alloc..boxed..Box$LT$std..io..error..Custom$GT$$GT$17hc73265a36caa2de4E@4HA"@IMGREL
$ip2state$_ZN4core3ptr68drop_in_place$LT$alloc..boxed..Box$LT$std..io..error..Custom$GT$$GT$17hc73265a36caa2de4E:
	.long	.Lfunc_begin107@IMGREL
	.long	-1
	.long	.Ltmp463@IMGREL+1
	.long	0
	.long	.Ltmp464@IMGREL+1
	.long	-1
	.section	.text,"xr",one_only,_ZN4core3ptr68drop_in_place$LT$alloc..boxed..Box$LT$std..io..error..Custom$GT$$GT$17hc73265a36caa2de4E

	.def	_ZN4core3ptr6unique15Unique$LT$T$GT$13new_unchecked17h024bbaae93e8d880E;
	.scl	3;
	.type	32;
	.endef
	.section	.text,"xr",one_only,_ZN4core3ptr6unique15Unique$LT$T$GT$13new_unchecked17h024bbaae93e8d880E
	.p2align	4, 0x90
_ZN4core3ptr6unique15Unique$LT$T$GT$13new_unchecked17h024bbaae93e8d880E:
.Lfunc_begin108:
	.cv_func_id 139
	.cv_file	30 "/rustc/fe5b13d681f25ee6474be29d748c65adcd91f69e\\library\\core\\src\\ptr\\unique.rs" "CD5B9BFFD03E4809E90EEB8743748791215617A7" 2
	.cv_loc	139 30 88 0
.seh_proc _ZN4core3ptr6unique15Unique$LT$T$GT$13new_unchecked17h024bbaae93e8d880E
	subq	$16, %rsp
	.seh_stackalloc 16
	.seh_endprologue
	movq	%rcx, 8(%rsp)
.Ltmp467:
	.cv_loc	139 30 90 0
	movq	%rcx, (%rsp)
	.cv_loc	139 30 91 0
	movq	(%rsp), %rax
	addq	$16, %rsp
	retq
.Ltmp468:
.Lfunc_end108:
	.seh_endproc

	.def	_ZN4core3ptr6unique15Unique$LT$T$GT$13new_unchecked17h276befaaf480da0fE;
	.scl	3;
	.type	32;
	.endef
	.section	.text,"xr",one_only,_ZN4core3ptr6unique15Unique$LT$T$GT$13new_unchecked17h276befaaf480da0fE
	.p2align	4, 0x90
_ZN4core3ptr6unique15Unique$LT$T$GT$13new_unchecked17h276befaaf480da0fE:
.Lfunc_begin109:
	.cv_func_id 140
	.cv_loc	140 30 88 0
.seh_proc _ZN4core3ptr6unique15Unique$LT$T$GT$13new_unchecked17h276befaaf480da0fE
	subq	$16, %rsp
	.seh_stackalloc 16
	.seh_endprologue
	movq	%rcx, 8(%rsp)
.Ltmp469:
	.cv_loc	140 30 90 0
	movq	%rcx, (%rsp)
	.cv_loc	140 30 91 0
	movq	(%rsp), %rax
	addq	$16, %rsp
	retq
.Ltmp470:
.Lfunc_end109:
	.seh_endproc

	.def	_ZN4core3ptr6unique15Unique$LT$T$GT$4cast17h111c78c6bec4be0aE;
	.scl	3;
	.type	32;
	.endef
	.section	.text,"xr",one_only,_ZN4core3ptr6unique15Unique$LT$T$GT$4cast17h111c78c6bec4be0aE
	.p2align	4, 0x90
_ZN4core3ptr6unique15Unique$LT$T$GT$4cast17h111c78c6bec4be0aE:
.Lfunc_begin110:
	.cv_func_id 141
	.cv_loc	141 30 140 0
.seh_proc _ZN4core3ptr6unique15Unique$LT$T$GT$4cast17h111c78c6bec4be0aE
	subq	$56, %rsp
	.seh_stackalloc 56
	.seh_endprologue
	movq	%rcx, 48(%rsp)
.Ltmp471:
	.cv_loc	141 30 144 0
	callq	_ZN4core3ptr6unique15Unique$LT$T$GT$6as_ptr17hffe9dc5df4942994E
	movq	%rax, 40(%rsp)
	movq	40(%rsp), %rcx
	callq	_ZN4core3ptr6unique15Unique$LT$T$GT$13new_unchecked17h276befaaf480da0fE
	movq	%rax, 32(%rsp)
	.cv_loc	141 30 145 0
	movq	32(%rsp), %rax
	addq	$56, %rsp
	retq
.Ltmp472:
.Lfunc_end110:
	.seh_endproc

	.def	_ZN4core3ptr6unique15Unique$LT$T$GT$4cast17h663df04030a0ceadE;
	.scl	3;
	.type	32;
	.endef
	.section	.text,"xr",one_only,_ZN4core3ptr6unique15Unique$LT$T$GT$4cast17h663df04030a0ceadE
	.p2align	4, 0x90
_ZN4core3ptr6unique15Unique$LT$T$GT$4cast17h663df04030a0ceadE:
.Lfunc_begin111:
	.cv_func_id 142
	.cv_loc	142 30 140 0
.seh_proc _ZN4core3ptr6unique15Unique$LT$T$GT$4cast17h663df04030a0ceadE
	subq	$72, %rsp
	.seh_stackalloc 72
	.seh_endprologue
	movq	%rcx, 56(%rsp)
	movq	%rdx, 64(%rsp)
.Ltmp473:
	.cv_loc	142 30 144 0
	callq	_ZN4core3ptr6unique15Unique$LT$T$GT$6as_ptr17h39910648c62fb8c4E
	movq	%rax, 48(%rsp)
	movq	48(%rsp), %rcx
	callq	_ZN4core3ptr6unique15Unique$LT$T$GT$13new_unchecked17h276befaaf480da0fE
	movq	%rax, 40(%rsp)
	.cv_loc	142 30 145 0
	movq	40(%rsp), %rax
	addq	$72, %rsp
	retq
.Ltmp474:
.Lfunc_end111:
	.seh_endproc

	.def	_ZN4core3ptr6unique15Unique$LT$T$GT$4cast17h9328770aa734514fE;
	.scl	3;
	.type	32;
	.endef
	.section	.text,"xr",one_only,_ZN4core3ptr6unique15Unique$LT$T$GT$4cast17h9328770aa734514fE
	.p2align	4, 0x90
_ZN4core3ptr6unique15Unique$LT$T$GT$4cast17h9328770aa734514fE:
.Lfunc_begin112:
	.cv_func_id 143
	.cv_loc	143 30 140 0
.seh_proc _ZN4core3ptr6unique15Unique$LT$T$GT$4cast17h9328770aa734514fE
	subq	$56, %rsp
	.seh_stackalloc 56
	.seh_endprologue
	movq	%rcx, 48(%rsp)
.Ltmp475:
	.cv_loc	143 30 144 0
	callq	_ZN4core3ptr6unique15Unique$LT$T$GT$6as_ptr17h2fc8d58e59dcf580E
	movq	%rax, 40(%rsp)
	movq	40(%rsp), %rcx
	callq	_ZN4core3ptr6unique15Unique$LT$T$GT$13new_unchecked17h276befaaf480da0fE
	movq	%rax, 32(%rsp)
	.cv_loc	143 30 145 0
	movq	32(%rsp), %rax
	addq	$56, %rsp
	retq
.Ltmp476:
.Lfunc_end112:
	.seh_endproc

	.def	_ZN4core3ptr6unique15Unique$LT$T$GT$4cast17hcd4868b7ee839c0cE;
	.scl	3;
	.type	32;
	.endef
	.section	.text,"xr",one_only,_ZN4core3ptr6unique15Unique$LT$T$GT$4cast17hcd4868b7ee839c0cE
	.p2align	4, 0x90
_ZN4core3ptr6unique15Unique$LT$T$GT$4cast17hcd4868b7ee839c0cE:
.Lfunc_begin113:
	.cv_func_id 144
	.cv_loc	144 30 140 0
.seh_proc _ZN4core3ptr6unique15Unique$LT$T$GT$4cast17hcd4868b7ee839c0cE
	subq	$56, %rsp
	.seh_stackalloc 56
	.seh_endprologue
	movq	%rcx, 48(%rsp)
.Ltmp477:
	.cv_loc	144 30 144 0
	callq	_ZN4core3ptr6unique15Unique$LT$T$GT$6as_ptr17h7ddb1382cc88d927E
	movq	%rax, 40(%rsp)
	movq	40(%rsp), %rcx
	callq	_ZN4core3ptr6unique15Unique$LT$T$GT$13new_unchecked17h276befaaf480da0fE
	movq	%rax, 32(%rsp)
	.cv_loc	144 30 145 0
	movq	32(%rsp), %rax
	addq	$56, %rsp
	retq
.Ltmp478:
.Lfunc_end113:
	.seh_endproc

	.def	_ZN4core3ptr6unique15Unique$LT$T$GT$4cast17hf3cd8d34c4e4a796E;
	.scl	3;
	.type	32;
	.endef
	.section	.text,"xr",one_only,_ZN4core3ptr6unique15Unique$LT$T$GT$4cast17hf3cd8d34c4e4a796E
	.p2align	4, 0x90
_ZN4core3ptr6unique15Unique$LT$T$GT$4cast17hf3cd8d34c4e4a796E:
.Lfunc_begin114:
	.cv_func_id 145
	.cv_loc	145 30 140 0
.seh_proc _ZN4core3ptr6unique15Unique$LT$T$GT$4cast17hf3cd8d34c4e4a796E
	subq	$56, %rsp
	.seh_stackalloc 56
	.seh_endprologue
	movq	%rcx, 48(%rsp)
.Ltmp479:
	.cv_loc	145 30 144 0
	callq	_ZN4core3ptr6unique15Unique$LT$T$GT$6as_ptr17h36df3736bcde1a5eE
	movq	%rax, 40(%rsp)
	movq	40(%rsp), %rcx
	callq	_ZN4core3ptr6unique15Unique$LT$T$GT$13new_unchecked17h276befaaf480da0fE
	movq	%rax, 32(%rsp)
	.cv_loc	145 30 145 0
	movq	32(%rsp), %rax
	addq	$56, %rsp
	retq
.Ltmp480:
.Lfunc_end114:
	.seh_endproc

	.def	_ZN4core3ptr6unique15Unique$LT$T$GT$6as_ptr17h2fc8d58e59dcf580E;
	.scl	3;
	.type	32;
	.endef
	.section	.text,"xr",one_only,_ZN4core3ptr6unique15Unique$LT$T$GT$6as_ptr17h2fc8d58e59dcf580E
	.p2align	4, 0x90
_ZN4core3ptr6unique15Unique$LT$T$GT$6as_ptr17h2fc8d58e59dcf580E:
.Lfunc_begin115:
	.cv_func_id 146
	.cv_loc	146 30 107 0
.seh_proc _ZN4core3ptr6unique15Unique$LT$T$GT$6as_ptr17h2fc8d58e59dcf580E
	pushq	%rax
	.seh_stackalloc 8
	.seh_endprologue
	movq	%rcx, %rax
	movq	%rax, (%rsp)
.Ltmp481:
	.cv_loc	146 30 109 0
	popq	%rcx
	retq
.Ltmp482:
.Lfunc_end115:
	.seh_endproc

	.def	_ZN4core3ptr6unique15Unique$LT$T$GT$6as_ptr17h36df3736bcde1a5eE;
	.scl	3;
	.type	32;
	.endef
	.section	.text,"xr",one_only,_ZN4core3ptr6unique15Unique$LT$T$GT$6as_ptr17h36df3736bcde1a5eE
	.p2align	4, 0x90
_ZN4core3ptr6unique15Unique$LT$T$GT$6as_ptr17h36df3736bcde1a5eE:
.Lfunc_begin116:
	.cv_func_id 147
	.cv_loc	147 30 107 0
.seh_proc _ZN4core3ptr6unique15Unique$LT$T$GT$6as_ptr17h36df3736bcde1a5eE
	pushq	%rax
	.seh_stackalloc 8
	.seh_endprologue
	movq	%rcx, %rax
	movq	%rax, (%rsp)
.Ltmp483:
	.cv_loc	147 30 109 0
	popq	%rcx
	retq
.Ltmp484:
.Lfunc_end116:
	.seh_endproc

	.def	_ZN4core3ptr6unique15Unique$LT$T$GT$6as_ptr17h39910648c62fb8c4E;
	.scl	3;
	.type	32;
	.endef
	.section	.text,"xr",one_only,_ZN4core3ptr6unique15Unique$LT$T$GT$6as_ptr17h39910648c62fb8c4E
	.p2align	4, 0x90
_ZN4core3ptr6unique15Unique$LT$T$GT$6as_ptr17h39910648c62fb8c4E:
.Lfunc_begin117:
	.cv_func_id 148
	.cv_loc	148 30 107 0
.seh_proc _ZN4core3ptr6unique15Unique$LT$T$GT$6as_ptr17h39910648c62fb8c4E
	subq	$16, %rsp
	.seh_stackalloc 16
	.seh_endprologue
	movq	%rcx, %rax
	movq	%rax, (%rsp)
	movq	%rdx, 8(%rsp)
.Ltmp485:
	.cv_loc	148 30 109 0
	addq	$16, %rsp
	retq
.Ltmp486:
.Lfunc_end117:
	.seh_endproc

	.def	_ZN4core3ptr6unique15Unique$LT$T$GT$6as_ptr17h7ddb1382cc88d927E;
	.scl	3;
	.type	32;
	.endef
	.section	.text,"xr",one_only,_ZN4core3ptr6unique15Unique$LT$T$GT$6as_ptr17h7ddb1382cc88d927E
	.p2align	4, 0x90
_ZN4core3ptr6unique15Unique$LT$T$GT$6as_ptr17h7ddb1382cc88d927E:
.Lfunc_begin118:
	.cv_func_id 149
	.cv_loc	149 30 107 0
.seh_proc _ZN4core3ptr6unique15Unique$LT$T$GT$6as_ptr17h7ddb1382cc88d927E
	pushq	%rax
	.seh_stackalloc 8
	.seh_endprologue
	movq	%rcx, %rax
	movq	%rax, (%rsp)
.Ltmp487:
	.cv_loc	149 30 109 0
	popq	%rcx
	retq
.Ltmp488:
.Lfunc_end118:
	.seh_endproc

	.def	_ZN4core3ptr6unique15Unique$LT$T$GT$6as_ptr17hffe9dc5df4942994E;
	.scl	3;
	.type	32;
	.endef
	.section	.text,"xr",one_only,_ZN4core3ptr6unique15Unique$LT$T$GT$6as_ptr17hffe9dc5df4942994E
	.p2align	4, 0x90
_ZN4core3ptr6unique15Unique$LT$T$GT$6as_ptr17hffe9dc5df4942994E:
.Lfunc_begin119:
	.cv_func_id 150
	.cv_loc	150 30 107 0
.seh_proc _ZN4core3ptr6unique15Unique$LT$T$GT$6as_ptr17hffe9dc5df4942994E
	pushq	%rax
	.seh_stackalloc 8
	.seh_endprologue
	movq	%rcx, %rax
	movq	%rax, (%rsp)
.Ltmp489:
	.cv_loc	150 30 109 0
	popq	%rcx
	retq
.Ltmp490:
.Lfunc_end119:
	.seh_endproc

	.def	_ZN4core3ptr6unique15Unique$LT$T$GT$6as_ref17h1eb21346ae526291E;
	.scl	3;
	.type	32;
	.endef
	.section	.text,"xr",one_only,_ZN4core3ptr6unique15Unique$LT$T$GT$6as_ref17h1eb21346ae526291E
	.p2align	4, 0x90
_ZN4core3ptr6unique15Unique$LT$T$GT$6as_ref17h1eb21346ae526291E:
.Lfunc_begin120:
	.cv_func_id 151
	.cv_loc	151 30 118 0
.seh_proc _ZN4core3ptr6unique15Unique$LT$T$GT$6as_ref17h1eb21346ae526291E
	subq	$56, %rsp
	.seh_stackalloc 56
	.seh_endprologue
	movq	%rcx, %rax
	movq	%rax, 48(%rsp)
.Ltmp491:
	.cv_loc	151 30 121 0
	movq	(%rax), %rcx
	movq	8(%rax), %rdx
	callq	_ZN4core3ptr6unique15Unique$LT$T$GT$6as_ptr17h39910648c62fb8c4E
	movq	%rax, 32(%rsp)
	movq	%rdx, 40(%rsp)
	.cv_loc	151 30 122 0
	movq	40(%rsp), %rdx
	movq	32(%rsp), %rax
	addq	$56, %rsp
	retq
.Ltmp492:
.Lfunc_end120:
	.seh_endproc

	.def	_ZN4core3ptr6unique15Unique$LT$T$GT$6as_ref17h27ee7eeaa149a93eE;
	.scl	3;
	.type	32;
	.endef
	.section	.text,"xr",one_only,_ZN4core3ptr6unique15Unique$LT$T$GT$6as_ref17h27ee7eeaa149a93eE
	.p2align	4, 0x90
_ZN4core3ptr6unique15Unique$LT$T$GT$6as_ref17h27ee7eeaa149a93eE:
.Lfunc_begin121:
	.cv_func_id 152
	.cv_loc	152 30 118 0
.seh_proc _ZN4core3ptr6unique15Unique$LT$T$GT$6as_ref17h27ee7eeaa149a93eE
	subq	$56, %rsp
	.seh_stackalloc 56
	.seh_endprologue
	movq	%rcx, 48(%rsp)
.Ltmp493:
	.cv_loc	152 30 121 0
	movq	(%rcx), %rcx
	callq	_ZN4core3ptr6unique15Unique$LT$T$GT$6as_ptr17h2fc8d58e59dcf580E
	movq	%rax, 40(%rsp)
	.cv_loc	152 30 122 0
	movq	40(%rsp), %rax
	addq	$56, %rsp
	retq
.Ltmp494:
.Lfunc_end121:
	.seh_endproc

	.def	_ZN4core3ptr72drop_in_place$LT$alloc..collections..btree..mem..replace..PanicGuard$GT$17h35073b9a8c0948e3E;
	.scl	3;
	.type	32;
	.endef
	.section	.text,"xr",one_only,_ZN4core3ptr72drop_in_place$LT$alloc..collections..btree..mem..replace..PanicGuard$GT$17h35073b9a8c0948e3E
	.p2align	4, 0x90
_ZN4core3ptr72drop_in_place$LT$alloc..collections..btree..mem..replace..PanicGuard$GT$17h35073b9a8c0948e3E:
.Lfunc_begin122:
	.cv_func_id 153
	.cv_loc	153 29 448 0
.seh_proc _ZN4core3ptr72drop_in_place$LT$alloc..collections..btree..mem..replace..PanicGuard$GT$17h35073b9a8c0948e3E
	subq	$40, %rsp
	.seh_stackalloc 40
	.seh_endprologue
	movq	%rcx, 32(%rsp)
.Ltmp495:
	callq	_ZN93_$LT$alloc..collections..btree..mem..replace..PanicGuard$u20$as$u20$core..ops..drop..Drop$GT$4drop17h21adcd219429cd10E
	nop
	addq	$40, %rsp
	retq
.Ltmp496:
.Lfunc_end122:
	.seh_endproc

	.def	_ZN4core3ptr75drop_in_place$LT$alloc..vec..Vec$LT$std..sys..windows..process..Arg$GT$$GT$17h50e4d28629d954adE;
	.scl	3;
	.type	32;
	.endef
	.section	.text,"xr",one_only,_ZN4core3ptr75drop_in_place$LT$alloc..vec..Vec$LT$std..sys..windows..process..Arg$GT$$GT$17h50e4d28629d954adE
	.p2align	4, 0x90
_ZN4core3ptr75drop_in_place$LT$alloc..vec..Vec$LT$std..sys..windows..process..Arg$GT$$GT$17h50e4d28629d954adE:
.Lfunc_begin123:
	.cv_func_id 154
	.cv_loc	154 29 448 0
.seh_proc _ZN4core3ptr75drop_in_place$LT$alloc..vec..Vec$LT$std..sys..windows..process..Arg$GT$$GT$17h50e4d28629d954adE
	.seh_handler __CxxFrameHandler3, @unwind, @except
	pushq	%rbp
	.seh_pushreg %rbp
	subq	$64, %rsp
	.seh_stackalloc 64
	leaq	64(%rsp), %rbp
	.seh_setframe %rbp, 64
	.seh_endprologue
	movq	$-2, -8(%rbp)
	movq	%rcx, -24(%rbp)
	movq	%rcx, -16(%rbp)
.Ltmp497:
.Ltmp499:
	callq	_ZN70_$LT$alloc..vec..Vec$LT$T$C$A$GT$$u20$as$u20$core..ops..drop..Drop$GT$4drop17h5355d3b136e20e21E
.Ltmp498:
	jmp	.LBB123_2
.LBB123_2:
	movq	-24(%rbp), %rcx
	callq	_ZN4core3ptr82drop_in_place$LT$alloc..raw_vec..RawVec$LT$std..sys..windows..process..Arg$GT$$GT$17h1c4033846c5aebfeE
	nop
	addq	$64, %rsp
	popq	%rbp
	retq
	.seh_handlerdata
	.long	($cppxdata$_ZN4core3ptr75drop_in_place$LT$alloc..vec..Vec$LT$std..sys..windows..process..Arg$GT$$GT$17h50e4d28629d954adE)@IMGREL
	.section	.text,"xr",one_only,_ZN4core3ptr75drop_in_place$LT$alloc..vec..Vec$LT$std..sys..windows..process..Arg$GT$$GT$17h50e4d28629d954adE
	.seh_endproc
	.def	"?dtor$1@?0?_ZN4core3ptr75drop_in_place$LT$alloc..vec..Vec$LT$std..sys..windows..process..Arg$GT$$GT$17h50e4d28629d954adE@4HA";
	.scl	3;
	.type	32;
	.endef
	.p2align	4, 0x90
"?dtor$1@?0?_ZN4core3ptr75drop_in_place$LT$alloc..vec..Vec$LT$std..sys..windows..process..Arg$GT$$GT$17h50e4d28629d954adE@4HA":
.seh_proc "?dtor$1@?0?_ZN4core3ptr75drop_in_place$LT$alloc..vec..Vec$LT$std..sys..windows..process..Arg$GT$$GT$17h50e4d28629d954adE@4HA"
.LBB123_1:
	movq	%rdx, 16(%rsp)
	pushq	%rbp
	.seh_pushreg %rbp
	subq	$32, %rsp
	.seh_stackalloc 32
	leaq	64(%rdx), %rbp
	.seh_endprologue
	movq	-24(%rbp), %rcx
	callq	_ZN4core3ptr82drop_in_place$LT$alloc..raw_vec..RawVec$LT$std..sys..windows..process..Arg$GT$$GT$17h1c4033846c5aebfeE
	nop
	addq	$32, %rsp
	popq	%rbp
	retq
.Ltmp500:
.Lfunc_end123:
	.seh_handlerdata
	.section	.text,"xr",one_only,_ZN4core3ptr75drop_in_place$LT$alloc..vec..Vec$LT$std..sys..windows..process..Arg$GT$$GT$17h50e4d28629d954adE
	.seh_endproc
	.section	.xdata,"dr",associative,_ZN4core3ptr75drop_in_place$LT$alloc..vec..Vec$LT$std..sys..windows..process..Arg$GT$$GT$17h50e4d28629d954adE
	.p2align	2
$cppxdata$_ZN4core3ptr75drop_in_place$LT$alloc..vec..Vec$LT$std..sys..windows..process..Arg$GT$$GT$17h50e4d28629d954adE:
	.long	429065506
	.long	1
	.long	($stateUnwindMap$_ZN4core3ptr75drop_in_place$LT$alloc..vec..Vec$LT$std..sys..windows..process..Arg$GT$$GT$17h50e4d28629d954adE)@IMGREL
	.long	0
	.long	0
	.long	3
	.long	($ip2state$_ZN4core3ptr75drop_in_place$LT$alloc..vec..Vec$LT$std..sys..windows..process..Arg$GT$$GT$17h50e4d28629d954adE)@IMGREL
	.long	56
	.long	0
	.long	1
$stateUnwindMap$_ZN4core3ptr75drop_in_place$LT$alloc..vec..Vec$LT$std..sys..windows..process..Arg$GT$$GT$17h50e4d28629d954adE:
	.long	-1
	.long	"?dtor$1@?0?_ZN4core3ptr75drop_in_place$LT$alloc..vec..Vec$LT$std..sys..windows..process..Arg$GT$$GT$17h50e4d28629d954adE@4HA"@IMGREL
$ip2state$_ZN4core3ptr75drop_in_place$LT$alloc..vec..Vec$LT$std..sys..windows..process..Arg$GT$$GT$17h50e4d28629d954adE:
	.long	.Lfunc_begin123@IMGREL
	.long	-1
	.long	.Ltmp497@IMGREL+1
	.long	0
	.long	.Ltmp498@IMGREL+1
	.long	-1
	.section	.text,"xr",one_only,_ZN4core3ptr75drop_in_place$LT$alloc..vec..Vec$LT$std..sys..windows..process..Arg$GT$$GT$17h50e4d28629d954adE

	.def	_ZN4core3ptr75drop_in_place$LT$core..option..Option$LT$std..ffi..os_str..OsString$GT$$GT$17h20e7750e985c939cE;
	.scl	3;
	.type	32;
	.endef
	.section	.text,"xr",one_only,_ZN4core3ptr75drop_in_place$LT$core..option..Option$LT$std..ffi..os_str..OsString$GT$$GT$17h20e7750e985c939cE
	.p2align	4, 0x90
_ZN4core3ptr75drop_in_place$LT$core..option..Option$LT$std..ffi..os_str..OsString$GT$$GT$17h20e7750e985c939cE:
.Lfunc_begin124:
	.cv_func_id 155
	.cv_loc	155 29 448 0
.seh_proc _ZN4core3ptr75drop_in_place$LT$core..option..Option$LT$std..ffi..os_str..OsString$GT$$GT$17h20e7750e985c939cE
	subq	$56, %rsp
	.seh_stackalloc 56
	.seh_endprologue
	movq	%rcx, %rdx
	movq	%rdx, 40(%rsp)
	movq	%rdx, 48(%rsp)
.Ltmp501:
	movl	$1, %eax
	xorl	%ecx, %ecx
	cmpq	$0, (%rdx)
	cmoveq	%rcx, %rax
	cmpq	$0, %rax
	jne	.LBB124_2
.LBB124_1:
	addq	$56, %rsp
	retq
.LBB124_2:
	movq	40(%rsp), %rcx
	callq	_ZN4core3ptr47drop_in_place$LT$std..ffi..os_str..OsString$GT$17h833013778cd57550E
	jmp	.LBB124_1
.Ltmp502:
.Lfunc_end124:
	.seh_endproc

	.def	_ZN4core3ptr7mut_ptr31_$LT$impl$u20$$BP$mut$u20$T$GT$12wrapping_sub17h9274e4d88b39de86E;
	.scl	3;
	.type	32;
	.endef
	.section	.text,"xr",one_only,_ZN4core3ptr7mut_ptr31_$LT$impl$u20$$BP$mut$u20$T$GT$12wrapping_sub17h9274e4d88b39de86E
	.p2align	4, 0x90
_ZN4core3ptr7mut_ptr31_$LT$impl$u20$$BP$mut$u20$T$GT$12wrapping_sub17h9274e4d88b39de86E:
.Lfunc_begin125:
	.cv_func_id 156
	.cv_loc	156 6 991 0
.seh_proc _ZN4core3ptr7mut_ptr31_$LT$impl$u20$$BP$mut$u20$T$GT$12wrapping_sub17h9274e4d88b39de86E
	subq	$88, %rsp
	.seh_stackalloc 88
	.seh_endprologue
	movq	%rcx, 8(%rsp)
	movq	%rcx, 24(%rsp)
	movq	%rdx, 32(%rsp)
	movq	%rdx, 40(%rsp)
	movq	$0, 48(%rsp)
	movq	%rdx, 56(%rsp)
.Ltmp503:
	.cv_file	31 "/rustc/fe5b13d681f25ee6474be29d748c65adcd91f69e\\library\\core\\src\\num\\int_macros.rs" "A274E0DEDD61CF352CAF424697DE135844399A3D" 2
	.cv_inline_site_id 157 within 156 inlined_at 6 995 0
	.cv_inline_site_id 158 within 157 inlined_at 31 1338 0
	.cv_loc	158 31 1162 0
	xorl	%eax, %eax
	subq	%rdx, %rax
	movq	%rax, 16(%rsp)
.Ltmp504:
	.cv_inline_site_id 159 within 156 inlined_at 6 995 0
	.cv_loc	159 6 485 0
	movq	16(%rsp), %rcx
	movq	8(%rsp), %rax
	movq	%rax, 64(%rsp)
	movq	%rcx, 72(%rsp)
.Ltmp505:
	addq	%rcx, %rax
	movq	%rax, 80(%rsp)
	movq	80(%rsp), %rax
	movq	%rax, (%rsp)
.Ltmp506:
	.cv_loc	156 6 996 0
	movq	(%rsp), %rax
	addq	$88, %rsp
	retq
.Ltmp507:
.Lfunc_end125:
	.seh_endproc

	.def	_ZN4core3ptr7mut_ptr31_$LT$impl$u20$$BP$mut$u20$T$GT$13guaranteed_eq17h2c4103d08a457a79E;
	.scl	3;
	.type	32;
	.endef
	.section	.text,"xr",one_only,_ZN4core3ptr7mut_ptr31_$LT$impl$u20$$BP$mut$u20$T$GT$13guaranteed_eq17h2c4103d08a457a79E
	.p2align	4, 0x90
_ZN4core3ptr7mut_ptr31_$LT$impl$u20$$BP$mut$u20$T$GT$13guaranteed_eq17h2c4103d08a457a79E:
.Lfunc_begin126:
	.cv_func_id 160
	.cv_loc	160 6 617 0
.seh_proc _ZN4core3ptr7mut_ptr31_$LT$impl$u20$$BP$mut$u20$T$GT$13guaranteed_eq17h2c4103d08a457a79E
	subq	$32, %rsp
	.seh_stackalloc 32
	.seh_endprologue
	movq	%rcx, 8(%rsp)
	movq	%rdx, 16(%rsp)
.Ltmp508:
	.cv_loc	160 6 621 0
	cmpq	%rdx, %rcx
	sete	%al
	andb	$1, %al
	movb	%al, 31(%rsp)
	movb	31(%rsp), %al
	movb	%al, 7(%rsp)
	.cv_loc	160 6 622 0
	movb	7(%rsp), %al
	andb	$1, %al
	movzbl	%al, %eax
	addq	$32, %rsp
	retq
.Ltmp509:
.Lfunc_end126:
	.seh_endproc

	.def	_ZN4core3ptr7mut_ptr31_$LT$impl$u20$$BP$mut$u20$T$GT$4addr17h29f18106c4e6a41aE;
	.scl	3;
	.type	32;
	.endef
	.section	.text,"xr",one_only,_ZN4core3ptr7mut_ptr31_$LT$impl$u20$$BP$mut$u20$T$GT$4addr17h29f18106c4e6a41aE
	.p2align	4, 0x90
_ZN4core3ptr7mut_ptr31_$LT$impl$u20$$BP$mut$u20$T$GT$4addr17h29f18106c4e6a41aE:
.Lfunc_begin127:
	.cv_func_id 161
	.cv_loc	161 6 174 0
.seh_proc _ZN4core3ptr7mut_ptr31_$LT$impl$u20$$BP$mut$u20$T$GT$4addr17h29f18106c4e6a41aE
	pushq	%rax
	.seh_stackalloc 8
	.seh_endprologue
	movq	%rcx, %rax
	movq	%rax, (%rsp)
.Ltmp510:
	.cv_loc	161 6 180 0
	popq	%rcx
	retq
.Ltmp511:
.Lfunc_end127:
	.seh_endproc

	.def	_ZN4core3ptr7mut_ptr31_$LT$impl$u20$$BP$mut$u20$T$GT$4addr17h5bd1dce147ba7774E;
	.scl	3;
	.type	32;
	.endef
	.section	.text,"xr",one_only,_ZN4core3ptr7mut_ptr31_$LT$impl$u20$$BP$mut$u20$T$GT$4addr17h5bd1dce147ba7774E
	.p2align	4, 0x90
_ZN4core3ptr7mut_ptr31_$LT$impl$u20$$BP$mut$u20$T$GT$4addr17h5bd1dce147ba7774E:
.Lfunc_begin128:
	.cv_func_id 162
	.cv_loc	162 6 174 0
.seh_proc _ZN4core3ptr7mut_ptr31_$LT$impl$u20$$BP$mut$u20$T$GT$4addr17h5bd1dce147ba7774E
	pushq	%rax
	.seh_stackalloc 8
	.seh_endprologue
	movq	%rcx, %rax
	movq	%rax, (%rsp)
.Ltmp512:
	.cv_loc	162 6 180 0
	popq	%rcx
	retq
.Ltmp513:
.Lfunc_end128:
	.seh_endproc

	.def	_ZN4core3ptr7mut_ptr31_$LT$impl$u20$$BP$mut$u20$T$GT$7is_null17ha438967f353ee1b3E;
	.scl	3;
	.type	32;
	.endef
	.section	.text,"xr",one_only,_ZN4core3ptr7mut_ptr31_$LT$impl$u20$$BP$mut$u20$T$GT$7is_null17ha438967f353ee1b3E
	.p2align	4, 0x90
_ZN4core3ptr7mut_ptr31_$LT$impl$u20$$BP$mut$u20$T$GT$7is_null17ha438967f353ee1b3E:
.Lfunc_begin129:
	.cv_func_id 163
	.cv_loc	163 6 36 0
.seh_proc _ZN4core3ptr7mut_ptr31_$LT$impl$u20$$BP$mut$u20$T$GT$7is_null17ha438967f353ee1b3E
	subq	$72, %rsp
	.seh_stackalloc 72
	.seh_endprologue
	movq	%rcx, 48(%rsp)
	movq	%rcx, 56(%rsp)
	movq	$0, 64(%rsp)
	.cv_loc	163 6 39 0
	movq	48(%rsp), %rcx
.Ltmp514:
	xorl	%eax, %eax
	movl	%eax, %edx
	callq	_ZN4core3ptr7mut_ptr31_$LT$impl$u20$$BP$mut$u20$T$GT$13guaranteed_eq17h2c4103d08a457a79E
	movb	%al, 47(%rsp)
	.cv_loc	163 6 40 0
	movb	47(%rsp), %al
	andb	$1, %al
	movzbl	%al, %eax
	addq	$72, %rsp
	retq
.Ltmp515:
.Lfunc_end129:
	.seh_endproc

	.def	_ZN4core3ptr7mut_ptr31_$LT$impl$u20$$BP$mut$u20$T$GT$7is_null17hbd1a60e4965a58f0E;
	.scl	3;
	.type	32;
	.endef
	.section	.text,"xr",one_only,_ZN4core3ptr7mut_ptr31_$LT$impl$u20$$BP$mut$u20$T$GT$7is_null17hbd1a60e4965a58f0E
	.p2align	4, 0x90
_ZN4core3ptr7mut_ptr31_$LT$impl$u20$$BP$mut$u20$T$GT$7is_null17hbd1a60e4965a58f0E:
.Lfunc_begin130:
	.cv_func_id 164
	.cv_loc	164 6 36 0
.seh_proc _ZN4core3ptr7mut_ptr31_$LT$impl$u20$$BP$mut$u20$T$GT$7is_null17hbd1a60e4965a58f0E
	subq	$72, %rsp
	.seh_stackalloc 72
	.seh_endprologue
	movq	%rcx, 56(%rsp)
	movq	%rcx, 48(%rsp)
	movq	$0, 64(%rsp)
	.cv_loc	164 6 39 0
	movq	48(%rsp), %rcx
.Ltmp516:
	xorl	%eax, %eax
	movl	%eax, %edx
	callq	_ZN4core3ptr7mut_ptr31_$LT$impl$u20$$BP$mut$u20$T$GT$13guaranteed_eq17h2c4103d08a457a79E
	movb	%al, 47(%rsp)
	.cv_loc	164 6 40 0
	movb	47(%rsp), %al
	andb	$1, %al
	movzbl	%al, %eax
	addq	$72, %rsp
	retq
.Ltmp517:
.Lfunc_end130:
	.seh_endproc

	.def	_ZN4core3ptr7mut_ptr31_$LT$impl$u20$$BP$mut$u20$T$GT$7is_null17hd5edac056c33f95aE;
	.scl	3;
	.type	32;
	.endef
	.section	.text,"xr",one_only,_ZN4core3ptr7mut_ptr31_$LT$impl$u20$$BP$mut$u20$T$GT$7is_null17hd5edac056c33f95aE
	.p2align	4, 0x90
_ZN4core3ptr7mut_ptr31_$LT$impl$u20$$BP$mut$u20$T$GT$7is_null17hd5edac056c33f95aE:
.Lfunc_begin131:
	.cv_func_id 165
	.cv_loc	165 6 36 0
.seh_proc _ZN4core3ptr7mut_ptr31_$LT$impl$u20$$BP$mut$u20$T$GT$7is_null17hd5edac056c33f95aE
	subq	$72, %rsp
	.seh_stackalloc 72
	.seh_endprologue
	movq	%rcx, 56(%rsp)
	movq	%rcx, 48(%rsp)
	movq	$0, 64(%rsp)
	.cv_loc	165 6 39 0
	movq	48(%rsp), %rcx
.Ltmp518:
	xorl	%eax, %eax
	movl	%eax, %edx
	callq	_ZN4core3ptr7mut_ptr31_$LT$impl$u20$$BP$mut$u20$T$GT$13guaranteed_eq17h2c4103d08a457a79E
	movb	%al, 47(%rsp)
	.cv_loc	165 6 40 0
	movb	47(%rsp), %al
	andb	$1, %al
	movzbl	%al, %eax
	addq	$72, %rsp
	retq
.Ltmp519:
.Lfunc_end131:
	.seh_endproc

	.def	_ZN4core3ptr82drop_in_place$LT$alloc..raw_vec..RawVec$LT$std..sys..windows..process..Arg$GT$$GT$17h1c4033846c5aebfeE;
	.scl	3;
	.type	32;
	.endef
	.section	.text,"xr",one_only,_ZN4core3ptr82drop_in_place$LT$alloc..raw_vec..RawVec$LT$std..sys..windows..process..Arg$GT$$GT$17h1c4033846c5aebfeE
	.p2align	4, 0x90
_ZN4core3ptr82drop_in_place$LT$alloc..raw_vec..RawVec$LT$std..sys..windows..process..Arg$GT$$GT$17h1c4033846c5aebfeE:
.Lfunc_begin132:
	.cv_func_id 166
	.cv_loc	166 29 448 0
.seh_proc _ZN4core3ptr82drop_in_place$LT$alloc..raw_vec..RawVec$LT$std..sys..windows..process..Arg$GT$$GT$17h1c4033846c5aebfeE
	subq	$40, %rsp
	.seh_stackalloc 40
	.seh_endprologue
	movq	%rcx, 32(%rsp)
.Ltmp520:
	callq	_ZN77_$LT$alloc..raw_vec..RawVec$LT$T$C$A$GT$$u20$as$u20$core..ops..drop..Drop$GT$4drop17h234b377a7f7326f6E
	nop
	addq	$40, %rsp
	retq
.Ltmp521:
.Lfunc_end132:
	.seh_endproc

	.def	_ZN4core3ptr82drop_in_place$LT$core..option..Option$LT$std..sys..windows..process..Stdio$GT$$GT$17hfcfd209757eb4436E;
	.scl	3;
	.type	32;
	.endef
	.section	.text,"xr",one_only,_ZN4core3ptr82drop_in_place$LT$core..option..Option$LT$std..sys..windows..process..Stdio$GT$$GT$17hfcfd209757eb4436E
	.p2align	4, 0x90
_ZN4core3ptr82drop_in_place$LT$core..option..Option$LT$std..sys..windows..process..Stdio$GT$$GT$17hfcfd209757eb4436E:
.Lfunc_begin133:
	.cv_func_id 167
	.cv_loc	167 29 448 0
.seh_proc _ZN4core3ptr82drop_in_place$LT$core..option..Option$LT$std..sys..windows..process..Stdio$GT$$GT$17hfcfd209757eb4436E
	subq	$56, %rsp
	.seh_stackalloc 56
	.seh_endprologue
	movq	%rcx, 40(%rsp)
	movq	%rcx, 48(%rsp)
.Ltmp522:
	movq	(%rcx), %rdx
	subq	$4, %rdx
	movl	$1, %eax
	xorl	%ecx, %ecx
	cmpq	$0, %rdx
	cmoveq	%rcx, %rax
	cmpq	$0, %rax
	jne	.LBB133_2
.LBB133_1:
	addq	$56, %rsp
	retq
.LBB133_2:
	movq	40(%rsp), %rcx
	callq	_ZN4core3ptr54drop_in_place$LT$std..sys..windows..process..Stdio$GT$17hde882b80d977c306E
	jmp	.LBB133_1
.Ltmp523:
.Lfunc_end133:
	.seh_endproc

	.def	_ZN4core3ptr85drop_in_place$LT$std..rt..lang_start$LT$$LP$$RP$$GT$..$u7b$$u7b$closure$u7d$$u7d$$GT$17h4a44247c92229ed1E;
	.scl	3;
	.type	32;
	.endef
	.section	.text,"xr",one_only,_ZN4core3ptr85drop_in_place$LT$std..rt..lang_start$LT$$LP$$RP$$GT$..$u7b$$u7b$closure$u7d$$u7d$$GT$17h4a44247c92229ed1E
	.p2align	4, 0x90
_ZN4core3ptr85drop_in_place$LT$std..rt..lang_start$LT$$LP$$RP$$GT$..$u7b$$u7b$closure$u7d$$u7d$$GT$17h4a44247c92229ed1E:
.Lfunc_begin134:
	.cv_func_id 168
	.cv_loc	168 29 448 0
.seh_proc _ZN4core3ptr85drop_in_place$LT$std..rt..lang_start$LT$$LP$$RP$$GT$..$u7b$$u7b$closure$u7d$$u7d$$GT$17h4a44247c92229ed1E
	pushq	%rax
	.seh_stackalloc 8
	.seh_endprologue
	movq	%rcx, (%rsp)
.Ltmp524:
	popq	%rax
	retq
.Ltmp525:
.Lfunc_end134:
	.seh_endproc

	.def	_ZN4core3ptr8metadata14from_raw_parts17h2ead687b16b0b15aE;
	.scl	3;
	.type	32;
	.endef
	.section	.text,"xr",one_only,_ZN4core3ptr8metadata14from_raw_parts17h2ead687b16b0b15aE
	.p2align	4, 0x90
_ZN4core3ptr8metadata14from_raw_parts17h2ead687b16b0b15aE:
.Lfunc_begin135:
	.cv_func_id 169
	.cv_file	32 "/rustc/fe5b13d681f25ee6474be29d748c65adcd91f69e\\library\\core\\src\\ptr\\metadata.rs" "A3D5FDE97989D0A4BD69120825B84ABD0D52BA57" 2
	.cv_loc	169 32 110 0
.seh_proc _ZN4core3ptr8metadata14from_raw_parts17h2ead687b16b0b15aE
	subq	$48, %rsp
	.seh_stackalloc 48
	.seh_endprologue
	movq	%rcx, 32(%rsp)
	movq	%rdx, 40(%rsp)
.Ltmp526:
	.cv_loc	169 32 117 0
	movq	%rcx, 16(%rsp)
	movq	%rdx, 24(%rsp)
	movq	16(%rsp), %rcx
	movq	24(%rsp), %rax
	movq	%rcx, (%rsp)
	movq	%rax, 8(%rsp)
	movq	(%rsp), %rax
	movq	8(%rsp), %rdx
	.cv_loc	169 32 118 0
	addq	$48, %rsp
	retq
.Ltmp527:
.Lfunc_end135:
	.seh_endproc

	.def	_ZN4core3ptr8metadata18from_raw_parts_mut17h7fdff47384806ff3E;
	.scl	3;
	.type	32;
	.endef
	.section	.text,"xr",one_only,_ZN4core3ptr8metadata18from_raw_parts_mut17h7fdff47384806ff3E
	.p2align	4, 0x90
_ZN4core3ptr8metadata18from_raw_parts_mut17h7fdff47384806ff3E:
.Lfunc_begin136:
	.cv_func_id 170
	.cv_loc	170 32 127 0
.seh_proc _ZN4core3ptr8metadata18from_raw_parts_mut17h7fdff47384806ff3E
	subq	$48, %rsp
	.seh_stackalloc 48
	.seh_endprologue
	movq	%rcx, 32(%rsp)
	movq	%rdx, 40(%rsp)
.Ltmp528:
	.cv_loc	170 32 134 0
	movq	%rcx, 16(%rsp)
	movq	%rdx, 24(%rsp)
	movq	16(%rsp), %rcx
	movq	24(%rsp), %rax
	movq	%rcx, (%rsp)
	movq	%rax, 8(%rsp)
	movq	(%rsp), %rax
	movq	8(%rsp), %rdx
	.cv_loc	170 32 135 0
	addq	$48, %rsp
	retq
.Ltmp529:
.Lfunc_end136:
	.seh_endproc

	.def	_ZN4core3ptr8metadata18from_raw_parts_mut17hbc07de64c9c9aefbE;
	.scl	3;
	.type	32;
	.endef
	.section	.text,"xr",one_only,_ZN4core3ptr8metadata18from_raw_parts_mut17hbc07de64c9c9aefbE
	.p2align	4, 0x90
_ZN4core3ptr8metadata18from_raw_parts_mut17hbc07de64c9c9aefbE:
.Lfunc_begin137:
	.cv_func_id 171
	.cv_loc	171 32 127 0
.seh_proc _ZN4core3ptr8metadata18from_raw_parts_mut17hbc07de64c9c9aefbE
	subq	$48, %rsp
	.seh_stackalloc 48
	.seh_endprologue
	movq	%rcx, 32(%rsp)
	movq	%rdx, 40(%rsp)
.Ltmp530:
	.cv_loc	171 32 134 0
	movq	%rcx, 16(%rsp)
	movq	%rdx, 24(%rsp)
	movq	16(%rsp), %rcx
	movq	24(%rsp), %rax
	movq	%rcx, (%rsp)
	movq	%rax, 8(%rsp)
	movq	(%rsp), %rax
	movq	8(%rsp), %rdx
	.cv_loc	171 32 135 0
	addq	$48, %rsp
	retq
.Ltmp531:
.Lfunc_end137:
	.seh_endproc

	.def	_ZN4core3ptr8metadata18from_raw_parts_mut17hcad8dd33370f0715E;
	.scl	3;
	.type	32;
	.endef
	.section	.text,"xr",one_only,_ZN4core3ptr8metadata18from_raw_parts_mut17hcad8dd33370f0715E
	.p2align	4, 0x90
_ZN4core3ptr8metadata18from_raw_parts_mut17hcad8dd33370f0715E:
.Lfunc_begin138:
	.cv_func_id 172
	.cv_loc	172 32 127 0
.seh_proc _ZN4core3ptr8metadata18from_raw_parts_mut17hcad8dd33370f0715E
	subq	$48, %rsp
	.seh_stackalloc 48
	.seh_endprologue
	movq	%rcx, 32(%rsp)
	movq	%rdx, 40(%rsp)
.Ltmp532:
	.cv_loc	172 32 134 0
	movq	%rcx, 16(%rsp)
	movq	%rdx, 24(%rsp)
	movq	16(%rsp), %rcx
	movq	24(%rsp), %rax
	movq	%rcx, (%rsp)
	movq	%rax, 8(%rsp)
	movq	(%rsp), %rax
	movq	8(%rsp), %rdx
	.cv_loc	172 32 135 0
	addq	$48, %rsp
	retq
.Ltmp533:
.Lfunc_end138:
	.seh_endproc

	.def	_ZN4core3ptr8metadata8metadata17h10822e49eb17ad79E;
	.scl	3;
	.type	32;
	.endef
	.section	.text,"xr",one_only,_ZN4core3ptr8metadata8metadata17h10822e49eb17ad79E
	.p2align	4, 0x90
_ZN4core3ptr8metadata8metadata17h10822e49eb17ad79E:
.Lfunc_begin139:
	.cv_func_id 173
	.cv_loc	173 32 93 0
.seh_proc _ZN4core3ptr8metadata8metadata17h10822e49eb17ad79E
	subq	$32, %rsp
	.seh_stackalloc 32
	.seh_endprologue
	movq	%rcx, 16(%rsp)
	movq	%rdx, 24(%rsp)
.Ltmp534:
	.cv_loc	173 32 97 0
	movq	%rcx, (%rsp)
	movq	%rdx, 8(%rsp)
	movq	8(%rsp), %rax
	.cv_loc	173 32 98 0
	addq	$32, %rsp
	retq
.Ltmp535:
.Lfunc_end139:
	.seh_endproc

	.def	_ZN4core3ptr8non_null16NonNull$LT$T$GT$13new_unchecked17h0c16f6d7caff1740E;
	.scl	3;
	.type	32;
	.endef
	.section	.text,"xr",one_only,_ZN4core3ptr8non_null16NonNull$LT$T$GT$13new_unchecked17h0c16f6d7caff1740E
	.p2align	4, 0x90
_ZN4core3ptr8non_null16NonNull$LT$T$GT$13new_unchecked17h0c16f6d7caff1740E:
.Lfunc_begin140:
	.cv_func_id 174
	.cv_loc	174 9 195 0
.seh_proc _ZN4core3ptr8non_null16NonNull$LT$T$GT$13new_unchecked17h0c16f6d7caff1740E
	subq	$16, %rsp
	.seh_stackalloc 16
	.seh_endprologue
	movq	%rcx, 8(%rsp)
.Ltmp536:
	.cv_loc	174 9 197 0
	movq	%rcx, (%rsp)
	.cv_loc	174 9 198 0
	movq	(%rsp), %rax
	addq	$16, %rsp
	retq
.Ltmp537:
.Lfunc_end140:
	.seh_endproc

	.def	_ZN4core3ptr8non_null16NonNull$LT$T$GT$13new_unchecked17h6fb70ae295eb470aE;
	.scl	3;
	.type	32;
	.endef
	.section	.text,"xr",one_only,_ZN4core3ptr8non_null16NonNull$LT$T$GT$13new_unchecked17h6fb70ae295eb470aE
	.p2align	4, 0x90
_ZN4core3ptr8non_null16NonNull$LT$T$GT$13new_unchecked17h6fb70ae295eb470aE:
.Lfunc_begin141:
	.cv_func_id 175
	.cv_loc	175 9 195 0
.seh_proc _ZN4core3ptr8non_null16NonNull$LT$T$GT$13new_unchecked17h6fb70ae295eb470aE
	subq	$16, %rsp
	.seh_stackalloc 16
	.seh_endprologue
	movq	%rcx, 8(%rsp)
.Ltmp538:
	.cv_loc	175 9 197 0
	movq	%rcx, (%rsp)
	.cv_loc	175 9 198 0
	movq	(%rsp), %rax
	addq	$16, %rsp
	retq
.Ltmp539:
.Lfunc_end141:
	.seh_endproc

	.def	_ZN4core3ptr8non_null16NonNull$LT$T$GT$13new_unchecked17heae8e91736a57bdeE;
	.scl	3;
	.type	32;
	.endef
	.section	.text,"xr",one_only,_ZN4core3ptr8non_null16NonNull$LT$T$GT$13new_unchecked17heae8e91736a57bdeE
	.p2align	4, 0x90
_ZN4core3ptr8non_null16NonNull$LT$T$GT$13new_unchecked17heae8e91736a57bdeE:
.Lfunc_begin142:
	.cv_func_id 176
	.cv_loc	176 9 195 0
.seh_proc _ZN4core3ptr8non_null16NonNull$LT$T$GT$13new_unchecked17heae8e91736a57bdeE
	subq	$16, %rsp
	.seh_stackalloc 16
	.seh_endprologue
	movq	%rcx, 8(%rsp)
.Ltmp540:
	.cv_loc	176 9 197 0
	movq	%rcx, (%rsp)
	.cv_loc	176 9 198 0
	movq	(%rsp), %rax
	addq	$16, %rsp
	retq
.Ltmp541:
.Lfunc_end142:
	.seh_endproc

	.def	_ZN4core3ptr8non_null16NonNull$LT$T$GT$4cast17h132547fe2b4ca6b1E;
	.scl	3;
	.type	32;
	.endef
	.section	.text,"xr",one_only,_ZN4core3ptr8non_null16NonNull$LT$T$GT$4cast17h132547fe2b4ca6b1E
	.p2align	4, 0x90
_ZN4core3ptr8non_null16NonNull$LT$T$GT$4cast17h132547fe2b4ca6b1E:
.Lfunc_begin143:
	.cv_func_id 177
	.cv_loc	177 9 448 0
.seh_proc _ZN4core3ptr8non_null16NonNull$LT$T$GT$4cast17h132547fe2b4ca6b1E
	subq	$56, %rsp
	.seh_stackalloc 56
	.seh_endprologue
	movq	%rcx, 48(%rsp)
.Ltmp542:
	.cv_loc	177 9 450 0
	callq	_ZN4core3ptr8non_null16NonNull$LT$T$GT$6as_ptr17hea73b93f9b971229E
	movq	%rax, 40(%rsp)
	movq	40(%rsp), %rcx
	callq	_ZN4core3ptr8non_null16NonNull$LT$T$GT$13new_unchecked17h0c16f6d7caff1740E
	movq	%rax, 32(%rsp)
	.cv_loc	177 9 451 0
	movq	32(%rsp), %rax
	addq	$56, %rsp
	retq
.Ltmp543:
.Lfunc_end143:
	.seh_endproc

	.def	_ZN4core3ptr8non_null16NonNull$LT$T$GT$4cast17h78ef08790770aabaE;
	.scl	3;
	.type	32;
	.endef
	.section	.text,"xr",one_only,_ZN4core3ptr8non_null16NonNull$LT$T$GT$4cast17h78ef08790770aabaE
	.p2align	4, 0x90
_ZN4core3ptr8non_null16NonNull$LT$T$GT$4cast17h78ef08790770aabaE:
.Lfunc_begin144:
	.cv_func_id 178
	.cv_loc	178 9 448 0
.seh_proc _ZN4core3ptr8non_null16NonNull$LT$T$GT$4cast17h78ef08790770aabaE
	subq	$56, %rsp
	.seh_stackalloc 56
	.seh_endprologue
	movq	%rcx, 48(%rsp)
.Ltmp544:
	.cv_loc	178 9 450 0
	callq	_ZN4core3ptr8non_null16NonNull$LT$T$GT$6as_ptr17h40bb7a701f7cabe5E
	movq	%rax, 40(%rsp)
	movq	40(%rsp), %rcx
	callq	_ZN4core3ptr8non_null16NonNull$LT$T$GT$13new_unchecked17heae8e91736a57bdeE
	movq	%rax, 32(%rsp)
	.cv_loc	178 9 451 0
	movq	32(%rsp), %rax
	addq	$56, %rsp
	retq
.Ltmp545:
.Lfunc_end144:
	.seh_endproc

	.def	_ZN4core3ptr8non_null16NonNull$LT$T$GT$4cast17h8a9e1a428912c7cdE;
	.scl	3;
	.type	32;
	.endef
	.section	.text,"xr",one_only,_ZN4core3ptr8non_null16NonNull$LT$T$GT$4cast17h8a9e1a428912c7cdE
	.p2align	4, 0x90
_ZN4core3ptr8non_null16NonNull$LT$T$GT$4cast17h8a9e1a428912c7cdE:
.Lfunc_begin145:
	.cv_func_id 179
	.cv_loc	179 9 448 0
.seh_proc _ZN4core3ptr8non_null16NonNull$LT$T$GT$4cast17h8a9e1a428912c7cdE
	subq	$56, %rsp
	.seh_stackalloc 56
	.seh_endprologue
	movq	%rcx, 48(%rsp)
.Ltmp546:
	.cv_loc	179 9 450 0
	callq	_ZN4core3ptr8non_null16NonNull$LT$T$GT$6as_ptr17hc904e8990ebb9638E
	movq	%rax, 40(%rsp)
	movq	40(%rsp), %rcx
	callq	_ZN4core3ptr8non_null16NonNull$LT$T$GT$13new_unchecked17h6fb70ae295eb470aE
	movq	%rax, 32(%rsp)
	.cv_loc	179 9 451 0
	movq	32(%rsp), %rax
	addq	$56, %rsp
	retq
.Ltmp547:
.Lfunc_end145:
	.seh_endproc

	.def	_ZN4core3ptr8non_null16NonNull$LT$T$GT$6as_ptr17h3cd1877225e0d5d7E;
	.scl	3;
	.type	32;
	.endef
	.section	.text,"xr",one_only,_ZN4core3ptr8non_null16NonNull$LT$T$GT$6as_ptr17h3cd1877225e0d5d7E
	.p2align	4, 0x90
_ZN4core3ptr8non_null16NonNull$LT$T$GT$6as_ptr17h3cd1877225e0d5d7E:
.Lfunc_begin146:
	.cv_func_id 180
	.cv_loc	180 9 325 0
.seh_proc _ZN4core3ptr8non_null16NonNull$LT$T$GT$6as_ptr17h3cd1877225e0d5d7E
	pushq	%rax
	.seh_stackalloc 8
	.seh_endprologue
	movq	%rcx, %rax
	movq	%rax, (%rsp)
.Ltmp548:
	.cv_loc	180 9 327 0
	popq	%rcx
	retq
.Ltmp549:
.Lfunc_end146:
	.seh_endproc

	.def	_ZN4core3ptr8non_null16NonNull$LT$T$GT$6as_ptr17h40bb7a701f7cabe5E;
	.scl	3;
	.type	32;
	.endef
	.section	.text,"xr",one_only,_ZN4core3ptr8non_null16NonNull$LT$T$GT$6as_ptr17h40bb7a701f7cabe5E
	.p2align	4, 0x90
_ZN4core3ptr8non_null16NonNull$LT$T$GT$6as_ptr17h40bb7a701f7cabe5E:
.Lfunc_begin147:
	.cv_func_id 181
	.cv_loc	181 9 325 0
.seh_proc _ZN4core3ptr8non_null16NonNull$LT$T$GT$6as_ptr17h40bb7a701f7cabe5E
	pushq	%rax
	.seh_stackalloc 8
	.seh_endprologue
	movq	%rcx, %rax
	movq	%rax, (%rsp)
.Ltmp550:
	.cv_loc	181 9 327 0
	popq	%rcx
	retq
.Ltmp551:
.Lfunc_end147:
	.seh_endproc

	.def	_ZN4core3ptr8non_null16NonNull$LT$T$GT$6as_ptr17h6e3395a1ea794a7cE;
	.scl	3;
	.type	32;
	.endef
	.section	.text,"xr",one_only,_ZN4core3ptr8non_null16NonNull$LT$T$GT$6as_ptr17h6e3395a1ea794a7cE
	.p2align	4, 0x90
_ZN4core3ptr8non_null16NonNull$LT$T$GT$6as_ptr17h6e3395a1ea794a7cE:
.Lfunc_begin148:
	.cv_func_id 182
	.cv_loc	182 9 325 0
.seh_proc _ZN4core3ptr8non_null16NonNull$LT$T$GT$6as_ptr17h6e3395a1ea794a7cE
	pushq	%rax
	.seh_stackalloc 8
	.seh_endprologue
	movq	%rcx, %rax
	movq	%rax, (%rsp)
.Ltmp552:
	.cv_loc	182 9 327 0
	popq	%rcx
	retq
.Ltmp553:
.Lfunc_end148:
	.seh_endproc

	.def	_ZN4core3ptr8non_null16NonNull$LT$T$GT$6as_ptr17hc904e8990ebb9638E;
	.scl	3;
	.type	32;
	.endef
	.section	.text,"xr",one_only,_ZN4core3ptr8non_null16NonNull$LT$T$GT$6as_ptr17hc904e8990ebb9638E
	.p2align	4, 0x90
_ZN4core3ptr8non_null16NonNull$LT$T$GT$6as_ptr17hc904e8990ebb9638E:
.Lfunc_begin149:
	.cv_func_id 183
	.cv_loc	183 9 325 0
.seh_proc _ZN4core3ptr8non_null16NonNull$LT$T$GT$6as_ptr17hc904e8990ebb9638E
	pushq	%rax
	.seh_stackalloc 8
	.seh_endprologue
	movq	%rcx, %rax
	movq	%rax, (%rsp)
.Ltmp554:
	.cv_loc	183 9 327 0
	popq	%rcx
	retq
.Ltmp555:
.Lfunc_end149:
	.seh_endproc

	.def	_ZN4core3ptr8non_null16NonNull$LT$T$GT$6as_ptr17hea73b93f9b971229E;
	.scl	3;
	.type	32;
	.endef
	.section	.text,"xr",one_only,_ZN4core3ptr8non_null16NonNull$LT$T$GT$6as_ptr17hea73b93f9b971229E
	.p2align	4, 0x90
_ZN4core3ptr8non_null16NonNull$LT$T$GT$6as_ptr17hea73b93f9b971229E:
.Lfunc_begin150:
	.cv_func_id 184
	.cv_loc	184 9 325 0
.seh_proc _ZN4core3ptr8non_null16NonNull$LT$T$GT$6as_ptr17hea73b93f9b971229E
	pushq	%rax
	.seh_stackalloc 8
	.seh_endprologue
	movq	%rcx, %rax
	movq	%rax, (%rsp)
.Ltmp556:
	.cv_loc	184 9 327 0
	popq	%rcx
	retq
.Ltmp557:
.Lfunc_end150:
	.seh_endproc

	.def	_ZN4core3ptr92drop_in_place$LT$dyn$u20$std..error..Error$u2b$core..marker..Send$u2b$core..marker..Sync$GT$17hdc8cd1f61ce47a11E;
	.scl	3;
	.type	32;
	.endef
	.section	.text,"xr",one_only,_ZN4core3ptr92drop_in_place$LT$dyn$u20$std..error..Error$u2b$core..marker..Send$u2b$core..marker..Sync$GT$17hdc8cd1f61ce47a11E
	.p2align	4, 0x90
_ZN4core3ptr92drop_in_place$LT$dyn$u20$std..error..Error$u2b$core..marker..Send$u2b$core..marker..Sync$GT$17hdc8cd1f61ce47a11E:
.Lfunc_begin151:
	.cv_func_id 185
	.cv_loc	185 29 448 0
.seh_proc _ZN4core3ptr92drop_in_place$LT$dyn$u20$std..error..Error$u2b$core..marker..Send$u2b$core..marker..Sync$GT$17hdc8cd1f61ce47a11E
	subq	$56, %rsp
	.seh_stackalloc 56
	.seh_endprologue
	movq	%rcx, 40(%rsp)
	movq	%rdx, 48(%rsp)
.Ltmp558:
	callq	*(%rdx)
	nop
	addq	$56, %rsp
	retq
.Ltmp559:
.Lfunc_end151:
	.seh_endproc

	.def	_ZN4core3ptr9const_ptr33_$LT$impl$u20$$BP$const$u20$T$GT$13guaranteed_eq17h2adad5a3366bfd48E;
	.scl	3;
	.type	32;
	.endef
	.section	.text,"xr",one_only,_ZN4core3ptr9const_ptr33_$LT$impl$u20$$BP$const$u20$T$GT$13guaranteed_eq17h2adad5a3366bfd48E
	.p2align	4, 0x90
_ZN4core3ptr9const_ptr33_$LT$impl$u20$$BP$const$u20$T$GT$13guaranteed_eq17h2adad5a3366bfd48E:
.Lfunc_begin152:
	.cv_func_id 186
	.cv_loc	186 5 595 0
.seh_proc _ZN4core3ptr9const_ptr33_$LT$impl$u20$$BP$const$u20$T$GT$13guaranteed_eq17h2adad5a3366bfd48E
	subq	$32, %rsp
	.seh_stackalloc 32
	.seh_endprologue
	movq	%rcx, 8(%rsp)
	movq	%rdx, 16(%rsp)
.Ltmp560:
	.cv_loc	186 5 599 0
	cmpq	%rdx, %rcx
	sete	%al
	andb	$1, %al
	movb	%al, 31(%rsp)
	movb	31(%rsp), %al
	movb	%al, 7(%rsp)
	.cv_loc	186 5 600 0
	movb	7(%rsp), %al
	andb	$1, %al
	movzbl	%al, %eax
	addq	$32, %rsp
	retq
.Ltmp561:
.Lfunc_end152:
	.seh_endproc

	.def	_ZN4core3ptr9const_ptr33_$LT$impl$u20$$BP$const$u20$T$GT$4addr17h90a54b00f195fc8eE;
	.scl	3;
	.type	32;
	.endef
	.section	.text,"xr",one_only,_ZN4core3ptr9const_ptr33_$LT$impl$u20$$BP$const$u20$T$GT$4addr17h90a54b00f195fc8eE
	.p2align	4, 0x90
_ZN4core3ptr9const_ptr33_$LT$impl$u20$$BP$const$u20$T$GT$4addr17h90a54b00f195fc8eE:
.Lfunc_begin153:
	.cv_func_id 187
	.cv_loc	187 5 170 0
.seh_proc _ZN4core3ptr9const_ptr33_$LT$impl$u20$$BP$const$u20$T$GT$4addr17h90a54b00f195fc8eE
	pushq	%rax
	.seh_stackalloc 8
	.seh_endprologue
	movq	%rcx, %rax
	movq	%rax, (%rsp)
.Ltmp562:
	.cv_loc	187 5 176 0
	popq	%rcx
	retq
.Ltmp563:
.Lfunc_end153:
	.seh_endproc

	.def	_ZN4core3ptr9const_ptr33_$LT$impl$u20$$BP$const$u20$T$GT$4cast17h8897d96369085efdE;
	.scl	3;
	.type	32;
	.endef
	.section	.text,"xr",one_only,_ZN4core3ptr9const_ptr33_$LT$impl$u20$$BP$const$u20$T$GT$4cast17h8897d96369085efdE
	.p2align	4, 0x90
_ZN4core3ptr9const_ptr33_$LT$impl$u20$$BP$const$u20$T$GT$4cast17h8897d96369085efdE:
.Lfunc_begin154:
	.cv_func_id 188
	.cv_loc	188 5 47 0
.seh_proc _ZN4core3ptr9const_ptr33_$LT$impl$u20$$BP$const$u20$T$GT$4cast17h8897d96369085efdE
	pushq	%rax
	.seh_stackalloc 8
	.seh_endprologue
	movq	%rcx, %rax
	movq	%rax, (%rsp)
.Ltmp564:
	.cv_loc	188 5 49 0
	popq	%rcx
	retq
.Ltmp565:
.Lfunc_end154:
	.seh_endproc

	.def	_ZN4core3ptr9const_ptr33_$LT$impl$u20$$BP$const$u20$T$GT$4read17hc60a704573de6ea6E;
	.scl	3;
	.type	32;
	.endef
	.section	.text,"xr",one_only,_ZN4core3ptr9const_ptr33_$LT$impl$u20$$BP$const$u20$T$GT$4read17hc60a704573de6ea6E
	.p2align	4, 0x90
_ZN4core3ptr9const_ptr33_$LT$impl$u20$$BP$const$u20$T$GT$4read17hc60a704573de6ea6E:
.Lfunc_begin155:
	.cv_func_id 189
	.cv_loc	189 5 893 0
.seh_proc _ZN4core3ptr9const_ptr33_$LT$impl$u20$$BP$const$u20$T$GT$4read17hc60a704573de6ea6E
	subq	$56, %rsp
	.seh_stackalloc 56
	.seh_endprologue
	movq	%rcx, 48(%rsp)
.Ltmp566:
	.cv_loc	189 5 898 0
	callq	_ZN4core3ptr4read17heecb98c62630e92aE
	movq	%rax, 40(%rsp)
	.cv_loc	189 5 899 0
	movq	40(%rsp), %rax
	addq	$56, %rsp
	retq
.Ltmp567:
.Lfunc_end155:
	.seh_endproc

	.def	_ZN4core3ptr9const_ptr33_$LT$impl$u20$$BP$const$u20$T$GT$7is_null17hd81569fdf7acd83bE;
	.scl	3;
	.type	32;
	.endef
	.section	.text,"xr",one_only,_ZN4core3ptr9const_ptr33_$LT$impl$u20$$BP$const$u20$T$GT$7is_null17hd81569fdf7acd83bE
	.p2align	4, 0x90
_ZN4core3ptr9const_ptr33_$LT$impl$u20$$BP$const$u20$T$GT$7is_null17hd81569fdf7acd83bE:
.Lfunc_begin156:
	.cv_func_id 190
	.cv_loc	190 5 37 0
.seh_proc _ZN4core3ptr9const_ptr33_$LT$impl$u20$$BP$const$u20$T$GT$7is_null17hd81569fdf7acd83bE
	subq	$72, %rsp
	.seh_stackalloc 72
	.seh_endprologue
	movq	%rcx, 48(%rsp)
	movq	%rcx, 56(%rsp)
	movq	$0, 64(%rsp)
	.cv_loc	190 5 40 0
	movq	48(%rsp), %rcx
.Ltmp568:
	xorl	%eax, %eax
	movl	%eax, %edx
	callq	_ZN4core3ptr9const_ptr33_$LT$impl$u20$$BP$const$u20$T$GT$13guaranteed_eq17h2adad5a3366bfd48E
	movb	%al, 47(%rsp)
	.cv_loc	190 5 41 0
	movb	47(%rsp), %al
	andb	$1, %al
	movzbl	%al, %eax
	addq	$72, %rsp
	retq
.Ltmp569:
.Lfunc_end156:
	.seh_endproc

	.def	_ZN4core3ptr9const_ptr43_$LT$impl$u20$$BP$const$u20$$u5b$T$u5d$$GT$3len17hf182eda68bd041c5E;
	.scl	3;
	.type	32;
	.endef
	.section	.text,"xr",one_only,_ZN4core3ptr9const_ptr43_$LT$impl$u20$$BP$const$u20$$u5b$T$u5d$$GT$3len17hf182eda68bd041c5E
	.p2align	4, 0x90
_ZN4core3ptr9const_ptr43_$LT$impl$u20$$BP$const$u20$$u5b$T$u5d$$GT$3len17hf182eda68bd041c5E:
.Lfunc_begin157:
	.cv_func_id 191
	.cv_loc	191 5 1067 0
.seh_proc _ZN4core3ptr9const_ptr43_$LT$impl$u20$$BP$const$u20$$u5b$T$u5d$$GT$3len17hf182eda68bd041c5E
	subq	$56, %rsp
	.seh_stackalloc 56
	.seh_endprologue
	movq	%rcx, 40(%rsp)
	movq	%rdx, 48(%rsp)
.Ltmp570:
	.cv_loc	191 5 1068 0
	callq	_ZN4core3ptr8metadata8metadata17h10822e49eb17ad79E
	movq	%rax, 32(%rsp)
	.cv_loc	191 5 1069 0
	movq	32(%rsp), %rax
	addq	$56, %rsp
	retq
.Ltmp571:
.Lfunc_end157:
	.seh_endproc

	.def	_ZN4core3ptr9const_ptr43_$LT$impl$u20$$BP$const$u20$$u5b$T$u5d$$GT$6as_ptr17h064253d60633ff78E;
	.scl	3;
	.type	32;
	.endef
	.section	.text,"xr",one_only,_ZN4core3ptr9const_ptr43_$LT$impl$u20$$BP$const$u20$$u5b$T$u5d$$GT$6as_ptr17h064253d60633ff78E
	.p2align	4, 0x90
_ZN4core3ptr9const_ptr43_$LT$impl$u20$$BP$const$u20$$u5b$T$u5d$$GT$6as_ptr17h064253d60633ff78E:
.Lfunc_begin158:
	.cv_func_id 192
	.cv_loc	192 5 1087 0
.seh_proc _ZN4core3ptr9const_ptr43_$LT$impl$u20$$BP$const$u20$$u5b$T$u5d$$GT$6as_ptr17h064253d60633ff78E
	subq	$16, %rsp
	.seh_stackalloc 16
	.seh_endprologue
	movq	%rcx, %rax
	movq	%rax, (%rsp)
	movq	%rdx, 8(%rsp)
.Ltmp572:
	.cv_loc	192 5 1089 0
	addq	$16, %rsp
	retq
.Ltmp573:
.Lfunc_end158:
	.seh_endproc

	.def	_ZN4core3ptr9const_ptr43_$LT$impl$u20$$BP$const$u20$$u5b$T$u5d$$GT$6as_ptr17h40aff9e74e63ef4aE;
	.scl	3;
	.type	32;
	.endef
	.section	.text,"xr",one_only,_ZN4core3ptr9const_ptr43_$LT$impl$u20$$BP$const$u20$$u5b$T$u5d$$GT$6as_ptr17h40aff9e74e63ef4aE
	.p2align	4, 0x90
_ZN4core3ptr9const_ptr43_$LT$impl$u20$$BP$const$u20$$u5b$T$u5d$$GT$6as_ptr17h40aff9e74e63ef4aE:
.Lfunc_begin159:
	.cv_func_id 193
	.cv_loc	193 5 1087 0
.seh_proc _ZN4core3ptr9const_ptr43_$LT$impl$u20$$BP$const$u20$$u5b$T$u5d$$GT$6as_ptr17h40aff9e74e63ef4aE
	subq	$16, %rsp
	.seh_stackalloc 16
	.seh_endprologue
	movq	%rcx, %rax
	movq	%rax, (%rsp)
	movq	%rdx, 8(%rsp)
.Ltmp574:
	.cv_loc	193 5 1089 0
	addq	$16, %rsp
	retq
.Ltmp575:
.Lfunc_end159:
	.seh_endproc

	.def	_ZN4core3str11validations15next_code_point17h96a04dcc77587c4fE;
	.scl	3;
	.type	32;
	.endef
	.section	.text,"xr",one_only,_ZN4core3str11validations15next_code_point17h96a04dcc77587c4fE
	.p2align	4, 0x90
_ZN4core3str11validations15next_code_point17h96a04dcc77587c4fE:
.Lfunc_begin160:
	.cv_func_id 194
	.cv_file	33 "/rustc/fe5b13d681f25ee6474be29d748c65adcd91f69e\\library\\core\\src\\str\\validations.rs" "6C8F5265D1B9015608DC0320250B46DF795E5BD0" 2
	.cv_loc	194 33 36 0
.seh_proc _ZN4core3str11validations15next_code_point17h96a04dcc77587c4fE
	subq	$200, %rsp
	.seh_stackalloc 200
	.seh_endprologue
	movq	%rcx, 112(%rsp)
	movq	%rcx, 152(%rsp)
.Ltmp576:
	.cv_loc	194 33 38 0
	callq	_ZN91_$LT$core..slice..iter..Iter$LT$T$GT$$u20$as$u20$core..iter..traits..iterator..Iterator$GT$4next17h649ccab4bb79aef7E
	movq	%rax, 120(%rsp)
	movq	120(%rsp), %rcx
	callq	_ZN75_$LT$core..option..Option$LT$T$GT$$u20$as$u20$core..ops..try_trait..Try$GT$6branch17h1d83cd2b3fbad15bE
	movq	%rax, 136(%rsp)
	movq	136(%rsp), %rax
	testq	%rax, %rax
	sete	%al
	movzbl	%al, %eax
	jne	.LBB160_4
	jmp	.LBB160_25
.LBB160_25:
	jmp	.LBB160_5
	ud2
.LBB160_4:
	movq	136(%rsp), %rax
	movq	%rax, 168(%rsp)
	movb	(%rax), %al
	movb	%al, 111(%rsp)
	movb	%al, 183(%rsp)
.Ltmp577:
	.cv_loc	194 33 39 0
	cmpb	$-128, %al
	jb	.LBB160_9
	jmp	.LBB160_8
.Ltmp578:
.LBB160_5:
	.cv_loc	194 33 38 0
	callq	_ZN84_$LT$core..option..Option$LT$T$GT$$u20$as$u20$core..ops..try_trait..FromResidual$GT$13from_residual17h1a92801d1a3126c7E
	movl	%edx, 132(%rsp)
	movl	%eax, 128(%rsp)
.Ltmp579:
	.cv_file	34 "C:\\Users\\cires\\.cargo\\registry\\src\\github.com-1ecc6299db9ec823\\proc-macro2-1.0.71\\build.rs" "CDCDB8D62E579076A5D90268B6B2D0B53313E8C5" 2
	.cv_loc	194 34 1 0
	jmp	.LBB160_7
.LBB160_7:
	.cv_loc	194 33 70 0
	jmp	.LBB160_10
.LBB160_8:
	.cv_loc	194 33 46 0
	movb	111(%rsp), %cl
.Ltmp580:
	movl	$2, %edx
	callq	_ZN4core3str11validations15utf8_first_byte17ha00b505870bd41d4E
	movl	%eax, 104(%rsp)
	movl	%eax, 184(%rsp)
	jmp	.LBB160_11
.LBB160_9:
	.cv_loc	194 33 40 0
	movb	111(%rsp), %al
	movzbl	%al, %eax
	movl	%eax, 132(%rsp)
	movl	$1, 128(%rsp)
	.cv_loc	194 34 1 0
	jmp	.LBB160_7
.Ltmp581:
.LBB160_10:
	.cv_loc	194 33 70 0
	movl	128(%rsp), %eax
	movl	132(%rsp), %edx
	addq	$200, %rsp
	retq
.LBB160_11:
	.cv_loc	194 33 49 0
	movq	112(%rsp), %rcx
.Ltmp582:
	callq	_ZN91_$LT$core..slice..iter..Iter$LT$T$GT$$u20$as$u20$core..iter..traits..iterator..Iterator$GT$4next17h649ccab4bb79aef7E
	movq	%rax, 96(%rsp)
	movq	96(%rsp), %rcx
	leaq	__unnamed_7(%rip), %rdx
	callq	_ZN4core6option15Option$LT$T$GT$16unwrap_unchecked17h8d086597903534e0E
	movq	%rax, 88(%rsp)
	movl	104(%rsp), %ecx
	movq	88(%rsp), %rax
	movb	(%rax), %dl
	movb	%dl, 87(%rsp)
	movb	%dl, 190(%rsp)
.Ltmp583:
	.cv_loc	194 33 50 0
	callq	_ZN4core3str11validations18utf8_acc_cont_byte17h32e606a60669eca1E
	movl	%eax, 148(%rsp)
	.cv_loc	194 33 51 0
	movb	111(%rsp), %al
.Ltmp584:
	cmpb	$-32, %al
	jae	.LBB160_16
.LBB160_15:
	.cv_loc	194 33 69 0
	movl	148(%rsp), %eax
	movl	%eax, 132(%rsp)
	movl	$1, 128(%rsp)
.Ltmp585:
	.cv_loc	194 33 70 0
	jmp	.LBB160_10
.LBB160_16:
	.cv_loc	194 33 56 0
	movq	112(%rsp), %rcx
.Ltmp586:
	callq	_ZN91_$LT$core..slice..iter..Iter$LT$T$GT$$u20$as$u20$core..iter..traits..iterator..Iterator$GT$4next17h649ccab4bb79aef7E
	movq	%rax, 72(%rsp)
	movq	72(%rsp), %rcx
	leaq	__unnamed_8(%rip), %rdx
	callq	_ZN4core6option15Option$LT$T$GT$16unwrap_unchecked17h8d086597903534e0E
	movq	%rax, 64(%rsp)
	movb	87(%rsp), %al
	movq	64(%rsp), %rcx
	movb	(%rcx), %dl
	movb	%dl, 191(%rsp)
.Ltmp587:
	.cv_loc	194 33 57 0
	andb	$63, %al
	movzbl	%al, %ecx
	callq	_ZN4core3str11validations18utf8_acc_cont_byte17h32e606a60669eca1E
	movl	%eax, 60(%rsp)
	movl	%eax, 192(%rsp)
	.cv_loc	194 33 58 0
	movb	111(%rsp), %al
	movl	60(%rsp), %edx
	movl	104(%rsp), %ecx
.Ltmp588:
	shll	$12, %ecx
	orl	%edx, %ecx
	movl	%ecx, 148(%rsp)
	.cv_loc	194 33 59 0
	cmpb	$-16, %al
	jae	.LBB160_21
.Ltmp589:
.LBB160_20:
	.cv_loc	194 33 51 0
	jmp	.LBB160_15
.LBB160_21:
	.cv_loc	194 33 64 0
	movq	112(%rsp), %rcx
.Ltmp590:
	callq	_ZN91_$LT$core..slice..iter..Iter$LT$T$GT$$u20$as$u20$core..iter..traits..iterator..Iterator$GT$4next17h649ccab4bb79aef7E
	movq	%rax, 48(%rsp)
	movq	48(%rsp), %rcx
	leaq	__unnamed_9(%rip), %rdx
	callq	_ZN4core6option15Option$LT$T$GT$16unwrap_unchecked17h8d086597903534e0E
	movq	%rax, 40(%rsp)
	movl	60(%rsp), %ecx
	movl	104(%rsp), %eax
	movq	40(%rsp), %rdx
	movb	(%rdx), %dl
	movb	%dl, 199(%rsp)
.Ltmp591:
	.cv_loc	194 33 65 0
	andl	$7, %eax
	shll	$18, %eax
	movl	%eax, 32(%rsp)
	callq	_ZN4core3str11validations18utf8_acc_cont_byte17h32e606a60669eca1E
	movl	%eax, 36(%rsp)
	movl	36(%rsp), %ecx
	movl	32(%rsp), %eax
	orl	%ecx, %eax
	movl	%eax, 148(%rsp)
.Ltmp592:
	.cv_loc	194 33 59 0
	jmp	.LBB160_20
.Ltmp593:
.Lfunc_end160:
	.seh_endproc

	.def	_ZN4core3str11validations15utf8_first_byte17ha00b505870bd41d4E;
	.scl	3;
	.type	32;
	.endef
	.section	.text,"xr",one_only,_ZN4core3str11validations15utf8_first_byte17ha00b505870bd41d4E
	.p2align	4, 0x90
_ZN4core3str11validations15utf8_first_byte17ha00b505870bd41d4E:
.Lfunc_begin161:
	.cv_func_id 195
	.cv_loc	195 33 11 0
.seh_proc _ZN4core3str11validations15utf8_first_byte17ha00b505870bd41d4E
	pushq	%rax
	.seh_stackalloc 8
	.seh_endprologue
	movb	%cl, 2(%rsp)
	movb	%cl, 3(%rsp)
	movl	%edx, 4(%rsp)
.Ltmp594:
	.cv_loc	195 33 12 0
	movb	%dl, %cl
	andb	$7, %cl
	movb	$127, %al
	shrb	%cl, %al
	movb	2(%rsp), %cl
	andb	%al, %cl
	movzbl	%cl, %eax
	.cv_loc	195 33 13 0
	popq	%rcx
	retq
.Ltmp595:
.Lfunc_end161:
	.seh_endproc

	.def	_ZN4core3str11validations18utf8_acc_cont_byte17h32e606a60669eca1E;
	.scl	3;
	.type	32;
	.endef
	.section	.text,"xr",one_only,_ZN4core3str11validations18utf8_acc_cont_byte17h32e606a60669eca1E
	.p2align	4, 0x90
_ZN4core3str11validations18utf8_acc_cont_byte17h32e606a60669eca1E:
.Lfunc_begin162:
	.cv_func_id 196
	.cv_loc	196 33 17 0
.seh_proc _ZN4core3str11validations18utf8_acc_cont_byte17h32e606a60669eca1E
	pushq	%rax
	.seh_stackalloc 8
	.seh_endprologue
	movl	%ecx, %eax
	movl	%eax, (%rsp)
	movb	%dl, 7(%rsp)
.Ltmp596:
	.cv_loc	196 33 18 0
	shll	$6, %eax
	andb	$63, %dl
	movzbl	%dl, %ecx
	orl	%ecx, %eax
	.cv_loc	196 33 19 0
	popq	%rcx
	retq
.Ltmp597:
.Lfunc_end162:
	.seh_endproc

	.def	_ZN4core3str21_$LT$impl$u20$str$GT$11starts_with17h674c1f79f50a5e6bE;
	.scl	3;
	.type	32;
	.endef
	.section	.text,"xr",one_only,_ZN4core3str21_$LT$impl$u20$str$GT$11starts_with17h674c1f79f50a5e6bE
	.p2align	4, 0x90
_ZN4core3str21_$LT$impl$u20$str$GT$11starts_with17h674c1f79f50a5e6bE:
.Lfunc_begin163:
	.cv_func_id 197
	.cv_loc	197 12 1081 0
.seh_proc _ZN4core3str21_$LT$impl$u20$str$GT$11starts_with17h674c1f79f50a5e6bE
	subq	$88, %rsp
	.seh_stackalloc 88
	.seh_endprologue
	movq	%r9, 32(%rsp)
	movq	%r8, 40(%rsp)
	movq	%rdx, %r9
	movq	32(%rsp), %rdx
	movq	%rcx, %r8
	movq	40(%rsp), %rcx
	movq	%r8, 56(%rsp)
	movq	%r9, 64(%rsp)
	movq	%rcx, 72(%rsp)
	movq	%rdx, 80(%rsp)
.Ltmp598:
	.cv_loc	197 12 1082 0
	callq	_ZN55_$LT$$RF$str$u20$as$u20$core..str..pattern..Pattern$GT$12is_prefix_of17hf16fba8b096d08d1E
	movb	%al, 55(%rsp)
	.cv_loc	197 12 1083 0
	movb	55(%rsp), %al
	andb	$1, %al
	movzbl	%al, %eax
	addq	$88, %rsp
	retq
.Ltmp599:
.Lfunc_end163:
	.seh_endproc

	.def	_ZN4core3str21_$LT$impl$u20$str$GT$13get_unchecked17h1f856440a3e5695aE;
	.scl	3;
	.type	32;
	.endef
	.section	.text,"xr",one_only,_ZN4core3str21_$LT$impl$u20$str$GT$13get_unchecked17h1f856440a3e5695aE
	.p2align	4, 0x90
_ZN4core3str21_$LT$impl$u20$str$GT$13get_unchecked17h1f856440a3e5695aE:
.Lfunc_begin164:
	.cv_func_id 198
	.cv_loc	198 12 506 0
.seh_proc _ZN4core3str21_$LT$impl$u20$str$GT$13get_unchecked17h1f856440a3e5695aE
	subq	$104, %rsp
	.seh_stackalloc 104
	.seh_endprologue
	movq	%r9, 40(%rsp)
	movq	%r8, 48(%rsp)
	movq	%rdx, %r9
	movq	40(%rsp), %rdx
	movq	%rcx, %r8
	movq	48(%rsp), %rcx
	movq	%r8, 72(%rsp)
	movq	%r9, 80(%rsp)
	movq	%rcx, 88(%rsp)
	movq	%rdx, 96(%rsp)
.Ltmp600:
	.cv_loc	198 12 510 0
	callq	_ZN4core3str6traits108_$LT$impl$u20$core..slice..index..SliceIndex$LT$str$GT$$u20$for$u20$core..ops..range..Range$LT$usize$GT$$GT$13get_unchecked17hbec9c78faee9e8d8E
	movq	%rax, 56(%rsp)
	movq	%rdx, 64(%rsp)
	.cv_loc	198 12 511 0
	movq	64(%rsp), %rdx
	movq	56(%rsp), %rax
	addq	$104, %rsp
	retq
.Ltmp601:
.Lfunc_end164:
	.seh_endproc

	.def	_ZN4core3str21_$LT$impl$u20$str$GT$16is_char_boundary17h505a291e724554dcE;
	.scl	3;
	.type	32;
	.endef
	.section	.text,"xr",one_only,_ZN4core3str21_$LT$impl$u20$str$GT$16is_char_boundary17h505a291e724554dcE
	.p2align	4, 0x90
_ZN4core3str21_$LT$impl$u20$str$GT$16is_char_boundary17h505a291e724554dcE:
.Lfunc_begin165:
	.cv_func_id 199
	.cv_loc	199 12 210 0
.seh_proc _ZN4core3str21_$LT$impl$u20$str$GT$16is_char_boundary17h505a291e724554dcE
	subq	$168, %rsp
	.seh_stackalloc 168
	.seh_endprologue
	movq	%r8, 64(%rsp)
	movq	%rdx, 72(%rsp)
	movq	%rcx, 80(%rsp)
	movq	%rcx, 104(%rsp)
	movq	%rdx, 112(%rsp)
	movq	%r8, 120(%rsp)
.Ltmp602:
	.cv_loc	199 12 215 0
	cmpq	$0, %r8
	jne	.LBB165_2
	.cv_loc	199 12 216 0
	movb	$1, 95(%rsp)
	.cv_loc	199 12 233 0
	jmp	.LBB165_11
.LBB165_2:
	.cv_inline_site_id 200 within 199 inlined_at 12 219 0
	.cv_loc	200 12 326 0
	movq	72(%rsp), %rax
	movq	80(%rsp), %rcx
	movq	%rcx, 136(%rsp)
	movq	%rax, 144(%rsp)
.Ltmp603:
	movq	%rcx, 152(%rsp)
	movq	%rax, 160(%rsp)
	movq	152(%rsp), %rax
	movq	%rax, 48(%rsp)
	movq	160(%rsp), %rax
	movq	%rax, 56(%rsp)
.Ltmp604:
	.cv_loc	199 12 219 0
	movq	64(%rsp), %r8
	movq	56(%rsp), %rdx
	movq	48(%rsp), %rcx
	callq	_ZN4core5slice29_$LT$impl$u20$$u5b$T$u5d$$GT$3get17hae0a8de450d0aaabE
	movq	%rax, 96(%rsp)
	movq	96(%rsp), %rax
	testq	%rax, %rax
	setne	%al
	movzbl	%al, %eax
	je	.LBB165_6
	jmp	.LBB165_12
.LBB165_12:
	jmp	.LBB165_7
	ud2
.LBB165_6:
	.cv_loc	199 12 229 0
	movq	72(%rsp), %rdx
	movq	80(%rsp), %rcx
	callq	_ZN4core3str21_$LT$impl$u20$str$GT$3len17h3d8c4b0fccd400cfE
	movq	%rax, 40(%rsp)
	jmp	.LBB165_10
.LBB165_7:
	.cv_loc	199 12 231 0
	movq	96(%rsp), %rax
	movb	(%rax), %cl
	movb	%cl, 135(%rsp)
.Ltmp605:
	.cv_loc	199 12 231 0
	callq	_ZN4core3num20_$LT$impl$u20$u8$GT$21is_utf8_char_boundary17h4ce1b2dfc77e3356E
	andb	$1, %al
	movb	%al, 95(%rsp)
.Ltmp606:
	.cv_loc	199 12 231 0
	jmp	.LBB165_9
.LBB165_9:
	.cv_loc	199 12 233 0
	jmp	.LBB165_11
.LBB165_10:
	.cv_loc	199 12 229 0
	movq	64(%rsp), %rax
	movq	40(%rsp), %rcx
	cmpq	%rcx, %rax
	sete	%al
	andb	$1, %al
	movb	%al, 95(%rsp)
	jmp	.LBB165_9
.LBB165_11:
	.cv_loc	199 12 233 0
	movb	95(%rsp), %al
	andb	$1, %al
	movzbl	%al, %eax
	addq	$168, %rsp
	retq
.Ltmp607:
.Lfunc_end165:
	.seh_endproc

	.def	_ZN4core3str21_$LT$impl$u20$str$GT$3len17h3d8c4b0fccd400cfE;
	.scl	3;
	.type	32;
	.endef
	.section	.text,"xr",one_only,_ZN4core3str21_$LT$impl$u20$str$GT$3len17h3d8c4b0fccd400cfE
	.p2align	4, 0x90
_ZN4core3str21_$LT$impl$u20$str$GT$3len17h3d8c4b0fccd400cfE:
.Lfunc_begin166:
	.cv_func_id 201
	.cv_loc	201 12 158 0
.seh_proc _ZN4core3str21_$LT$impl$u20$str$GT$3len17h3d8c4b0fccd400cfE
	subq	$56, %rsp
	.seh_stackalloc 56
	.seh_endprologue
	movq	%rcx, 8(%rsp)
	movq	%rdx, 16(%rsp)
	movq	%rcx, 24(%rsp)
	movq	%rdx, 32(%rsp)
.Ltmp608:
	.cv_inline_site_id 202 within 201 inlined_at 12 159 0
	.cv_loc	202 12 326 0
	movq	%rcx, 40(%rsp)
	movq	%rdx, 48(%rsp)
	movq	40(%rsp), %rax
	movq	48(%rsp), %rax
	movq	%rax, (%rsp)
.Ltmp609:
	.cv_loc	201 12 160 0
	movq	(%rsp), %rax
	addq	$56, %rsp
	retq
.Ltmp610:
.Lfunc_end166:
	.seh_endproc

	.def	_ZN4core3str21_$LT$impl$u20$str$GT$5chars17hf7bc0f44916c62c0E;
	.scl	3;
	.type	32;
	.endef
	.section	.text,"xr",one_only,_ZN4core3str21_$LT$impl$u20$str$GT$5chars17hf7bc0f44916c62c0E
	.p2align	4, 0x90
_ZN4core3str21_$LT$impl$u20$str$GT$5chars17hf7bc0f44916c62c0E:
.Lfunc_begin167:
	.cv_func_id 203
	.cv_loc	203 12 781 0
.seh_proc _ZN4core3str21_$LT$impl$u20$str$GT$5chars17hf7bc0f44916c62c0E
	subq	$136, %rsp
	.seh_stackalloc 136
	.seh_endprologue
	movq	%rcx, 88(%rsp)
	movq	%rdx, 96(%rsp)
	movq	%rcx, 104(%rsp)
	movq	%rdx, 112(%rsp)
.Ltmp611:
	.cv_inline_site_id 204 within 203 inlined_at 12 782 0
	.cv_loc	204 12 326 0
	movq	%rcx, 120(%rsp)
	movq	%rdx, 128(%rsp)
	movq	120(%rsp), %rax
	movq	%rax, 56(%rsp)
	movq	128(%rsp), %rax
	movq	%rax, 64(%rsp)
.Ltmp612:
	.cv_loc	203 12 782 0
	movq	64(%rsp), %rdx
	movq	56(%rsp), %rcx
	callq	_ZN4core5slice29_$LT$impl$u20$$u5b$T$u5d$$GT$4iter17h0615190d289020f2E
	movq	%rax, 40(%rsp)
	movq	%rdx, 48(%rsp)
	movq	48(%rsp), %rax
	movq	40(%rsp), %rcx
	movq	%rcx, 72(%rsp)
	movq	%rax, 80(%rsp)
	.cv_loc	203 12 783 0
	movq	72(%rsp), %rax
	movq	80(%rsp), %rdx
	addq	$136, %rsp
	retq
.Ltmp613:
.Lfunc_end167:
	.seh_endproc

	.def	_ZN4core3str21_$LT$impl$u20$str$GT$5parse17hfe62fdcb21a78b0aE;
	.scl	3;
	.type	32;
	.endef
	.section	.text,"xr",one_only,_ZN4core3str21_$LT$impl$u20$str$GT$5parse17hfe62fdcb21a78b0aE
	.p2align	4, 0x90
_ZN4core3str21_$LT$impl$u20$str$GT$5parse17hfe62fdcb21a78b0aE:
.Lfunc_begin168:
	.cv_func_id 205
	.cv_loc	205 12 2344 0
.seh_proc _ZN4core3str21_$LT$impl$u20$str$GT$5parse17hfe62fdcb21a78b0aE
	subq	$72, %rsp
	.seh_stackalloc 72
	.seh_endprologue
	movq	%rcx, 48(%rsp)
	movq	%rdx, 56(%rsp)
.Ltmp614:
	.cv_loc	205 12 2345 0
	callq	_ZN4core3num60_$LT$impl$u20$core..str..traits..FromStr$u20$for$u20$u32$GT$8from_str17h6297ca04356070eeE
	movq	%rax, 64(%rsp)
	movq	64(%rsp), %rax
	movq	%rax, 40(%rsp)
	.cv_loc	205 12 2346 0
	movq	40(%rsp), %rax
	addq	$72, %rsp
	retq
.Ltmp615:
.Lfunc_end168:
	.seh_endproc

	.def	_ZN4core3str21_$LT$impl$u20$str$GT$5split17hd646631315e9fcd1E;
	.scl	3;
	.type	32;
	.endef
	.section	.text,"xr",one_only,_ZN4core3str21_$LT$impl$u20$str$GT$5split17hd646631315e9fcd1E
	.p2align	4, 0x90
_ZN4core3str21_$LT$impl$u20$str$GT$5split17hd646631315e9fcd1E:
.Lfunc_begin169:
	.cv_func_id 206
	.cv_loc	206 12 1326 0
.seh_proc _ZN4core3str21_$LT$impl$u20$str$GT$5split17hd646631315e9fcd1E
	.seh_handler __CxxFrameHandler3, @unwind, @except
	pushq	%rbp
	.seh_pushreg %rbp
	subq	$240, %rsp
	.seh_stackalloc 240
	leaq	128(%rsp), %rbp
	.seh_setframe %rbp, 128
	.seh_endprologue
	movq	$-2, 104(%rbp)
	movl	%r9d, -92(%rbp)
	movq	%r8, -88(%rbp)
	movq	%rdx, %rax
	movq	-88(%rbp), %rdx
	movq	%rax, -80(%rbp)
	movq	%rcx, %rax
	movq	-80(%rbp), %rcx
	movq	%rax, -72(%rbp)
	movq	%rax, -64(%rbp)
	movq	%rcx, 80(%rbp)
	movq	%rdx, 88(%rbp)
	movl	%r9d, 100(%rbp)
.Ltmp620:
	.cv_loc	206 12 1327 0
	movb	$0, 79(%rbp)
	movb	$1, 79(%rbp)
	.cv_loc	206 12 1329 0
.Ltmp616:
	callq	_ZN4core3str21_$LT$impl$u20$str$GT$3len17h3d8c4b0fccd400cfE
.Ltmp617:
	movq	%rax, -56(%rbp)
	jmp	.LBB169_2
.LBB169_2:
	.cv_loc	206 12 1330 0
	movq	-88(%rbp), %r9
	movq	-80(%rbp), %r8
	movl	-92(%rbp), %edx
	movb	$0, 79(%rbp)
.Ltmp618:
	leaq	24(%rbp), %rcx
	callq	_ZN52_$LT$char$u20$as$u20$core..str..pattern..Pattern$GT$13into_searcher17h5fe46d17bea7f067E
.Ltmp619:
	jmp	.LBB169_3
.LBB169_3:
	.cv_loc	206 12 1327 0
	movq	-56(%rbp), %rax
	movq	$0, -48(%rbp)
	movq	%rax, -40(%rbp)
	leaq	-48(%rbp), %rcx
	addq	$16, %rcx
	leaq	24(%rbp), %rdx
	movl	$48, %r8d
	callq	memcpy
	movq	-72(%rbp), %rcx
	movb	$1, 16(%rbp)
	movb	$0, 17(%rbp)
	leaq	-48(%rbp), %rdx
	movl	$72, %r8d
	callq	memcpy
	movq	-64(%rbp), %rax
	.cv_loc	206 12 1334 0
	addq	$240, %rsp
	popq	%rbp
	retq
	.seh_handlerdata
	.long	($cppxdata$_ZN4core3str21_$LT$impl$u20$str$GT$5split17hd646631315e9fcd1E)@IMGREL
	.section	.text,"xr",one_only,_ZN4core3str21_$LT$impl$u20$str$GT$5split17hd646631315e9fcd1E
	.seh_endproc
	.def	"?dtor$1@?0?_ZN4core3str21_$LT$impl$u20$str$GT$5split17hd646631315e9fcd1E@4HA";
	.scl	3;
	.type	32;
	.endef
	.p2align	4, 0x90
"?dtor$1@?0?_ZN4core3str21_$LT$impl$u20$str$GT$5split17hd646631315e9fcd1E@4HA":
.seh_proc "?dtor$1@?0?_ZN4core3str21_$LT$impl$u20$str$GT$5split17hd646631315e9fcd1E@4HA"
.LBB169_1:
	movq	%rdx, 16(%rsp)
	pushq	%rbp
	.seh_pushreg %rbp
	subq	$32, %rsp
	.seh_stackalloc 32
	leaq	128(%rdx), %rbp
	.seh_endprologue
	testb	$1, 79(%rbp)
	jne	.LBB169_5
	jmp	.LBB169_4
.LBB169_4:
	.cv_loc	206 12 1326 0
	addq	$32, %rsp
	popq	%rbp
	retq
.LBB169_5:
	.cv_loc	206 12 1334 0
	jmp	.LBB169_4
.Ltmp621:
.Lfunc_end169:
	.seh_handlerdata
	.section	.text,"xr",one_only,_ZN4core3str21_$LT$impl$u20$str$GT$5split17hd646631315e9fcd1E
	.seh_endproc
	.section	.xdata,"dr",associative,_ZN4core3str21_$LT$impl$u20$str$GT$5split17hd646631315e9fcd1E
	.p2align	2
$cppxdata$_ZN4core3str21_$LT$impl$u20$str$GT$5split17hd646631315e9fcd1E:
	.long	429065506
	.long	1
	.long	($stateUnwindMap$_ZN4core3str21_$LT$impl$u20$str$GT$5split17hd646631315e9fcd1E)@IMGREL
	.long	0
	.long	0
	.long	3
	.long	($ip2state$_ZN4core3str21_$LT$impl$u20$str$GT$5split17hd646631315e9fcd1E)@IMGREL
	.long	232
	.long	0
	.long	1
$stateUnwindMap$_ZN4core3str21_$LT$impl$u20$str$GT$5split17hd646631315e9fcd1E:
	.long	-1
	.long	"?dtor$1@?0?_ZN4core3str21_$LT$impl$u20$str$GT$5split17hd646631315e9fcd1E@4HA"@IMGREL
$ip2state$_ZN4core3str21_$LT$impl$u20$str$GT$5split17hd646631315e9fcd1E:
	.long	.Lfunc_begin169@IMGREL
	.long	-1
	.long	.Ltmp616@IMGREL+1
	.long	0
	.long	.Ltmp619@IMGREL+1
	.long	-1
	.section	.text,"xr",one_only,_ZN4core3str21_$LT$impl$u20$str$GT$5split17hd646631315e9fcd1E

	.def	_ZN4core3str21_$LT$impl$u20$str$GT$8contains17h7f0288f560ad744aE;
	.scl	3;
	.type	32;
	.endef
	.section	.text,"xr",one_only,_ZN4core3str21_$LT$impl$u20$str$GT$8contains17h7f0288f560ad744aE
	.p2align	4, 0x90
_ZN4core3str21_$LT$impl$u20$str$GT$8contains17h7f0288f560ad744aE:
.Lfunc_begin170:
	.cv_func_id 207
	.cv_loc	207 12 1055 0
.seh_proc _ZN4core3str21_$LT$impl$u20$str$GT$8contains17h7f0288f560ad744aE
	subq	$88, %rsp
	.seh_stackalloc 88
	.seh_endprologue
	movq	%r9, 32(%rsp)
	movq	%r8, 40(%rsp)
	movq	%rdx, %r9
	movq	32(%rsp), %rdx
	movq	%rcx, %r8
	movq	40(%rsp), %rcx
	movq	%r8, 56(%rsp)
	movq	%r9, 64(%rsp)
	movq	%rcx, 72(%rsp)
	movq	%rdx, 80(%rsp)
.Ltmp622:
	.cv_loc	207 12 1056 0
	callq	_ZN4core3str7pattern7Pattern15is_contained_in17he332a9d8c53148e7E
	movb	%al, 55(%rsp)
	.cv_loc	207 12 1057 0
	movb	55(%rsp), %al
	andb	$1, %al
	movzbl	%al, %eax
	addq	$88, %rsp
	retq
.Ltmp623:
.Lfunc_end170:
	.seh_endproc

	.def	_ZN4core3str4iter22SplitInternal$LT$P$GT$4next17h626e4ef3e373a8bdE;
	.scl	3;
	.type	32;
	.endef
	.section	.text,"xr",one_only,_ZN4core3str4iter22SplitInternal$LT$P$GT$4next17h626e4ef3e373a8bdE
	.p2align	4, 0x90
_ZN4core3str4iter22SplitInternal$LT$P$GT$4next17h626e4ef3e373a8bdE:
.Lfunc_begin171:
	.cv_func_id 208
	.cv_file	35 "/rustc/fe5b13d681f25ee6474be29d748c65adcd91f69e\\library\\core\\src\\str\\iter.rs" "86090CE6F0F1465883423E6F09235E78616CE4BB" 2
	.cv_loc	208 35 602 0
.seh_proc _ZN4core3str4iter22SplitInternal$LT$P$GT$4next17h626e4ef3e373a8bdE
	subq	$200, %rsp
	.seh_stackalloc 200
	.seh_endprologue
	movq	%rcx, 80(%rsp)
	movq	%rcx, 144(%rsp)
.Ltmp624:
	.cv_loc	208 35 603 0
	testb	$1, 65(%rcx)
	jne	.LBB171_2
	.cv_loc	208 35 607 0
	movq	80(%rsp), %rcx
	addq	$16, %rcx
	callq	_ZN81_$LT$core..str..pattern..CharSearcher$u20$as$u20$core..str..pattern..Searcher$GT$8haystack17hb45fface844dbcd4E
	movq	%rax, 64(%rsp)
	movq	%rdx, 72(%rsp)
	movq	%rax, 152(%rsp)
	movq	%rdx, 160(%rsp)
	jmp	.LBB171_4
.LBB171_2:
	.cv_loc	208 35 604 0
	movq	$0, 88(%rsp)
.LBB171_3:
	.cv_loc	208 35 617 0
	movq	88(%rsp), %rax
	movq	96(%rsp), %rdx
	addq	$200, %rsp
	retq
.LBB171_4:
	.cv_loc	208 35 608 0
	movq	80(%rsp), %rdx
.Ltmp625:
	addq	$16, %rdx
	leaq	104(%rsp), %rcx
	callq	_ZN81_$LT$core..str..pattern..CharSearcher$u20$as$u20$core..str..pattern..Searcher$GT$10next_match17h21eeea0639ee5b2bE
	movq	104(%rsp), %rax
	testq	%rax, %rax
	je	.LBB171_7
	jmp	.LBB171_12
.LBB171_12:
	jmp	.LBB171_8
	ud2
.LBB171_7:
	.cv_loc	208 35 615 0
	movq	80(%rsp), %rcx
	callq	_ZN4core3str4iter22SplitInternal$LT$P$GT$7get_end17hac200094da3dbf31E
	movq	%rdx, 96(%rsp)
	movq	%rax, 88(%rsp)
	jmp	.LBB171_11
.LBB171_8:
	.cv_loc	208 35 610 0
	movq	72(%rsp), %rdx
	movq	64(%rsp), %rcx
	movq	80(%rsp), %r8
	movq	112(%rsp), %rax
	movq	%rax, 168(%rsp)
	movq	120(%rsp), %r9
	movq	%r9, 40(%rsp)
	movq	%r9, 176(%rsp)
.Ltmp626:
	.cv_loc	208 35 611 0
	movq	(%r8), %r8
	movq	%r8, 128(%rsp)
	movq	%rax, 136(%rsp)
	movq	128(%rsp), %r8
	movq	136(%rsp), %r9
	callq	_ZN4core3str21_$LT$impl$u20$str$GT$13get_unchecked17h1f856440a3e5695aE
	movq	%rax, 48(%rsp)
	movq	%rdx, 56(%rsp)
	movq	%rax, 184(%rsp)
	movq	%rdx, 192(%rsp)
	.cv_loc	208 35 612 0
	movq	56(%rsp), %rax
	movq	48(%rsp), %rcx
	movq	80(%rsp), %rdx
	movq	40(%rsp), %r8
.Ltmp627:
	movq	%r8, (%rdx)
	.cv_loc	208 35 613 0
	movq	%rcx, 88(%rsp)
	movq	%rax, 96(%rsp)
.Ltmp628:
.LBB171_10:
	.cv_loc	208 35 617 0
	jmp	.LBB171_3
.LBB171_11:
.Ltmp629:
	.cv_loc	208 35 615 0
	jmp	.LBB171_10
.Ltmp630:
.Lfunc_end171:
	.seh_endproc

	.def	_ZN4core3str4iter22SplitInternal$LT$P$GT$7get_end17hac200094da3dbf31E;
	.scl	3;
	.type	32;
	.endef
	.section	.text,"xr",one_only,_ZN4core3str4iter22SplitInternal$LT$P$GT$7get_end17hac200094da3dbf31E
	.p2align	4, 0x90
_ZN4core3str4iter22SplitInternal$LT$P$GT$7get_end17hac200094da3dbf31E:
.Lfunc_begin172:
	.cv_func_id 209
	.cv_loc	209 35 588 0
.seh_proc _ZN4core3str4iter22SplitInternal$LT$P$GT$7get_end17hac200094da3dbf31E
	subq	$136, %rsp
	.seh_stackalloc 136
	.seh_endprologue
	movq	%rcx, 64(%rsp)
	movq	%rcx, 112(%rsp)
.Ltmp631:
	.cv_loc	209 35 589 0
	movb	65(%rcx), %al
	xorb	$-1, %al
	testb	$1, %al
	jne	.LBB172_2
	movb	$0, 94(%rsp)
	jmp	.LBB172_6
.LBB172_2:
	movq	64(%rsp), %rax
	testb	$1, 64(%rax)
	jne	.LBB172_4
	movq	64(%rsp), %rcx
	movq	8(%rcx), %rax
	subq	(%rcx), %rax
	cmpq	$0, %rax
	seta	%al
	andb	$1, %al
	movb	%al, 95(%rsp)
	jmp	.LBB172_5
.LBB172_4:
	movb	$1, 95(%rsp)
.LBB172_5:
	movb	95(%rsp), %al
	andb	$1, %al
	movb	%al, 94(%rsp)
.LBB172_6:
	testb	$1, 94(%rsp)
	jne	.LBB172_8
	.cv_loc	209 35 597 0
	movq	$0, 72(%rsp)
	.cv_loc	209 35 589 0
	jmp	.LBB172_11
.LBB172_8:
	.cv_loc	209 35 590 0
	movq	64(%rsp), %rcx
	movb	$1, 65(%rcx)
	.cv_loc	209 35 593 0
	addq	$16, %rcx
	callq	_ZN81_$LT$core..str..pattern..CharSearcher$u20$as$u20$core..str..pattern..Searcher$GT$8haystack17hb45fface844dbcd4E
	movq	%rax, 48(%rsp)
	movq	%rdx, 56(%rsp)
	movq	56(%rsp), %rdx
	movq	48(%rsp), %rcx
	movq	64(%rsp), %rax
	movq	(%rax), %r8
	movq	8(%rax), %rax
	movq	%r8, 96(%rsp)
	movq	%rax, 104(%rsp)
	movq	96(%rsp), %r8
	movq	104(%rsp), %r9
	callq	_ZN4core3str21_$LT$impl$u20$str$GT$13get_unchecked17h1f856440a3e5695aE
	movq	%rax, 32(%rsp)
	movq	%rdx, 40(%rsp)
	movq	%rax, 120(%rsp)
	movq	%rdx, 128(%rsp)
	.cv_loc	209 35 594 0
	movq	40(%rsp), %rax
	movq	32(%rsp), %rcx
.Ltmp632:
	movq	%rcx, 72(%rsp)
	movq	%rax, 80(%rsp)
.Ltmp633:
.LBB172_11:
	.cv_loc	209 35 599 0
	movq	72(%rsp), %rax
	movq	80(%rsp), %rdx
	addq	$136, %rsp
	retq
.Ltmp634:
.Lfunc_end172:
	.seh_endproc

	.def	_ZN4core3str6traits108_$LT$impl$u20$core..slice..index..SliceIndex$LT$str$GT$$u20$for$u20$core..ops..range..Range$LT$usize$GT$$GT$13get_unchecked17hbec9c78faee9e8d8E;
	.scl	3;
	.type	32;
	.endef
	.section	.text,"xr",one_only,_ZN4core3str6traits108_$LT$impl$u20$core..slice..index..SliceIndex$LT$str$GT$$u20$for$u20$core..ops..range..Range$LT$usize$GT$$GT$13get_unchecked17hbec9c78faee9e8d8E
	.p2align	4, 0x90
_ZN4core3str6traits108_$LT$impl$u20$core..slice..index..SliceIndex$LT$str$GT$$u20$for$u20$core..ops..range..Range$LT$usize$GT$$GT$13get_unchecked17hbec9c78faee9e8d8E:
.Lfunc_begin173:
	.cv_func_id 210
	.cv_file	36 "/rustc/fe5b13d681f25ee6474be29d748c65adcd91f69e\\library\\core\\src\\str\\traits.rs" "4DBBCA9F9C7B455BEB20916D3CC94EBAB81A89EA" 2
	.cv_loc	210 36 197 0
.seh_proc _ZN4core3str6traits108_$LT$impl$u20$core..slice..index..SliceIndex$LT$str$GT$$u20$for$u20$core..ops..range..Range$LT$usize$GT$$GT$13get_unchecked17hbec9c78faee9e8d8E
	subq	$200, %rsp
	.seh_stackalloc 200
	.seh_endprologue
	movq	%r9, 56(%rsp)
	movq	%r8, 72(%rsp)
	movq	%rdx, %rax
	movq	56(%rsp), %rdx
	movq	%rax, 64(%rsp)
	movq	%rcx, %r8
	movq	72(%rsp), %rcx
	movq	%r8, 80(%rsp)
	movq	%r8, 96(%rsp)
	movq	%rax, 104(%rsp)
	movq	%rcx, 112(%rsp)
	movq	%rdx, 120(%rsp)
.Ltmp635:
	.cv_loc	210 36 198 0
	movq	%rcx, 128(%rsp)
	movq	%rdx, 136(%rsp)
.Ltmp636:
	.cv_loc	210 36 201 0
	callq	_ZN4core3ptr9const_ptr43_$LT$impl$u20$$BP$const$u20$$u5b$T$u5d$$GT$6as_ptr17h40aff9e74e63ef4aE
	movq	%rax, 88(%rsp)
	.cv_inline_site_id 211 within 210 inlined_at 36 201 0
	.cv_inline_site_id 212 within 211 inlined_at 5 693 0
	.cv_loc	212 5 412 0
	movq	80(%rsp), %rcx
	movq	88(%rsp), %rax
	movq	%rax, 160(%rsp)
	movq	%rcx, 168(%rsp)
	movq	%rax, 176(%rsp)
	movq	%rcx, 184(%rsp)
.Ltmp637:
	addq	%rcx, %rax
	movq	%rax, 192(%rsp)
	movq	192(%rsp), %rax
	movq	%rax, 48(%rsp)
.Ltmp638:
	.cv_loc	210 36 201 0
	movq	%rax, 144(%rsp)
	.cv_loc	210 36 202 0
	movq	48(%rsp), %rcx
	movq	80(%rsp), %rax
	movq	64(%rsp), %rdx
.Ltmp639:
	subq	%rax, %rdx
	movq	%rdx, 152(%rsp)
.Ltmp640:
	.cv_loc	210 36 203 0
	callq	_ZN4core3ptr20slice_from_raw_parts17h3c91452bd7ed0b41E
	movq	%rax, 32(%rsp)
	movq	%rdx, 40(%rsp)
.Ltmp641:
	.cv_loc	210 36 204 0
	movq	40(%rsp), %rdx
	movq	32(%rsp), %rax
	addq	$200, %rsp
	retq
.Ltmp642:
.Lfunc_end173:
	.seh_endproc

	.def	_ZN4core3str6traits112_$LT$impl$u20$core..slice..index..SliceIndex$LT$str$GT$$u20$for$u20$core..ops..range..RangeFrom$LT$usize$GT$$GT$13get_unchecked17haec2e03b794c8bbeE;
	.scl	3;
	.type	32;
	.endef
	.section	.text,"xr",one_only,_ZN4core3str6traits112_$LT$impl$u20$core..slice..index..SliceIndex$LT$str$GT$$u20$for$u20$core..ops..range..RangeFrom$LT$usize$GT$$GT$13get_unchecked17haec2e03b794c8bbeE
	.p2align	4, 0x90
_ZN4core3str6traits112_$LT$impl$u20$core..slice..index..SliceIndex$LT$str$GT$$u20$for$u20$core..ops..range..RangeFrom$LT$usize$GT$$GT$13get_unchecked17haec2e03b794c8bbeE:
.Lfunc_begin174:
	.cv_func_id 213
	.cv_loc	213 36 349 0
.seh_proc _ZN4core3str6traits112_$LT$impl$u20$core..slice..index..SliceIndex$LT$str$GT$$u20$for$u20$core..ops..range..RangeFrom$LT$usize$GT$$GT$13get_unchecked17haec2e03b794c8bbeE
	subq	$200, %rsp
	.seh_stackalloc 200
	.seh_endprologue
	movq	%r8, 72(%rsp)
	movq	%rdx, %rax
	movq	72(%rsp), %rdx
	movq	%rax, 80(%rsp)
	movq	%rcx, %rax
	movq	80(%rsp), %rcx
	movq	%rax, 88(%rsp)
	movq	%rax, 104(%rsp)
	movq	%rcx, 112(%rsp)
	movq	%rdx, 120(%rsp)
.Ltmp643:
	.cv_loc	213 36 350 0
	movq	%rcx, 128(%rsp)
	movq	%rdx, 136(%rsp)
.Ltmp644:
	.cv_loc	213 36 353 0
	callq	_ZN4core3ptr9const_ptr43_$LT$impl$u20$$BP$const$u20$$u5b$T$u5d$$GT$6as_ptr17h40aff9e74e63ef4aE
	movq	%rax, 96(%rsp)
	.cv_inline_site_id 214 within 213 inlined_at 36 353 0
	.cv_inline_site_id 215 within 214 inlined_at 5 693 0
	.cv_loc	215 5 412 0
	movq	88(%rsp), %rcx
	movq	96(%rsp), %rax
	movq	%rax, 160(%rsp)
	movq	%rcx, 168(%rsp)
	movq	%rax, 176(%rsp)
	movq	%rcx, 184(%rsp)
.Ltmp645:
	addq	%rcx, %rax
	movq	%rax, 192(%rsp)
	movq	192(%rsp), %rax
	movq	%rax, 64(%rsp)
.Ltmp646:
	.cv_loc	213 36 353 0
	movq	%rax, 144(%rsp)
	.cv_loc	213 36 354 0
	movq	72(%rsp), %rdx
	movq	80(%rsp), %rcx
.Ltmp647:
	callq	_ZN4core3ptr9const_ptr43_$LT$impl$u20$$BP$const$u20$$u5b$T$u5d$$GT$3len17hf182eda68bd041c5E
	movq	%rax, 56(%rsp)
	movq	64(%rsp), %rcx
	movq	88(%rsp), %rax
	movq	56(%rsp), %rdx
	subq	%rax, %rdx
	movq	%rdx, 152(%rsp)
.Ltmp648:
	.cv_loc	213 36 355 0
	callq	_ZN4core3ptr20slice_from_raw_parts17h3c91452bd7ed0b41E
	movq	%rax, 40(%rsp)
	movq	%rdx, 48(%rsp)
.Ltmp649:
	.cv_loc	213 36 356 0
	movq	48(%rsp), %rdx
	movq	40(%rsp), %rax
	addq	$200, %rsp
	retq
.Ltmp650:
.Lfunc_end174:
	.seh_endproc

	.def	_ZN4core3str6traits112_$LT$impl$u20$core..slice..index..SliceIndex$LT$str$GT$$u20$for$u20$core..ops..range..RangeFrom$LT$usize$GT$$GT$3get17hae6aac9a07379475E;
	.scl	3;
	.type	32;
	.endef
	.section	.text,"xr",one_only,_ZN4core3str6traits112_$LT$impl$u20$core..slice..index..SliceIndex$LT$str$GT$$u20$for$u20$core..ops..range..RangeFrom$LT$usize$GT$$GT$3get17hae6aac9a07379475E
	.p2align	4, 0x90
_ZN4core3str6traits112_$LT$impl$u20$core..slice..index..SliceIndex$LT$str$GT$$u20$for$u20$core..ops..range..RangeFrom$LT$usize$GT$$GT$3get17hae6aac9a07379475E:
.Lfunc_begin175:
	.cv_func_id 216
	.cv_loc	216 36 329 0
.seh_proc _ZN4core3str6traits112_$LT$impl$u20$core..slice..index..SliceIndex$LT$str$GT$$u20$for$u20$core..ops..range..RangeFrom$LT$usize$GT$$GT$3get17hae6aac9a07379475E
	subq	$120, %rsp
	.seh_stackalloc 120
	.seh_endprologue
	movq	%r8, 48(%rsp)
	movq	%rdx, %rax
	movq	48(%rsp), %rdx
	movq	%rax, 56(%rsp)
	movq	%rcx, %r8
	movq	56(%rsp), %rcx
	movq	%r8, 64(%rsp)
	movq	%r8, 96(%rsp)
	movq	%rcx, 104(%rsp)
	movq	%rdx, 112(%rsp)
.Ltmp651:
	.cv_loc	216 36 330 0
	callq	_ZN4core3str21_$LT$impl$u20$str$GT$16is_char_boundary17h505a291e724554dcE
	movb	%al, 79(%rsp)
	movb	79(%rsp), %al
	testb	$1, %al
	jne	.LBB175_3
	jmp	.LBB175_2
.LBB175_2:
	.cv_loc	216 36 335 0
	movq	$0, 80(%rsp)
	.cv_loc	216 36 330 0
	jmp	.LBB175_5
.LBB175_3:
	.cv_loc	216 36 333 0
	movq	48(%rsp), %r8
	movq	56(%rsp), %rdx
	movq	64(%rsp), %rcx
	callq	_ZN4core3str6traits112_$LT$impl$u20$core..slice..index..SliceIndex$LT$str$GT$$u20$for$u20$core..ops..range..RangeFrom$LT$usize$GT$$GT$13get_unchecked17haec2e03b794c8bbeE
	movq	%rax, 32(%rsp)
	movq	%rdx, 40(%rsp)
	movq	40(%rsp), %rax
	movq	32(%rsp), %rcx
	movq	%rcx, 80(%rsp)
	movq	%rax, 88(%rsp)
.LBB175_5:
	.cv_loc	216 36 337 0
	movq	80(%rsp), %rax
	movq	88(%rsp), %rdx
	addq	$120, %rsp
	retq
.Ltmp652:
.Lfunc_end175:
	.seh_endproc

	.def	_ZN4core3str6traits112_$LT$impl$u20$core..slice..index..SliceIndex$LT$str$GT$$u20$for$u20$core..ops..range..RangeFrom$LT$usize$GT$$GT$5index17h27f1992d82bcd0aeE;
	.scl	3;
	.type	32;
	.endef
	.section	.text,"xr",one_only,_ZN4core3str6traits112_$LT$impl$u20$core..slice..index..SliceIndex$LT$str$GT$$u20$for$u20$core..ops..range..RangeFrom$LT$usize$GT$$GT$5index17h27f1992d82bcd0aeE
	.p2align	4, 0x90
_ZN4core3str6traits112_$LT$impl$u20$core..slice..index..SliceIndex$LT$str$GT$$u20$for$u20$core..ops..range..RangeFrom$LT$usize$GT$$GT$5index17h27f1992d82bcd0aeE:
.Lfunc_begin176:
	.cv_func_id 217
	.cv_loc	217 36 366 0
.seh_proc _ZN4core3str6traits112_$LT$impl$u20$core..slice..index..SliceIndex$LT$str$GT$$u20$for$u20$core..ops..range..RangeFrom$LT$usize$GT$$GT$5index17h27f1992d82bcd0aeE
	subq	$184, %rsp
	.seh_stackalloc 184
	.seh_endprologue
	movq	%r9, 56(%rsp)
	movq	%r8, 64(%rsp)
	movq	%rdx, %rax
	movq	64(%rsp), %rdx
	movq	%rax, 72(%rsp)
	movq	%rcx, %rax
	movq	72(%rsp), %rcx
	movq	%rax, 80(%rsp)
	movq	%rax, 128(%rsp)
	movq	%rcx, 136(%rsp)
	movq	%rdx, 144(%rsp)
.Ltmp653:
	.cv_loc	217 36 367 0
	callq	_ZN4core3str21_$LT$impl$u20$str$GT$3len17h3d8c4b0fccd400cfE
	movq	%rax, 88(%rsp)
	movq	64(%rsp), %r8
	movq	72(%rsp), %rdx
	movq	80(%rsp), %rcx
	movq	88(%rsp), %rax
	movq	%rcx, 96(%rsp)
	movq	%rax, 104(%rsp)
	movq	96(%rsp), %rax
	movq	%rax, 40(%rsp)
	movq	%rax, 152(%rsp)
	movq	104(%rsp), %rax
	movq	%rax, 48(%rsp)
	movq	%rax, 160(%rsp)
.Ltmp654:
	.cv_loc	217 36 368 0
	callq	_ZN4core3str6traits112_$LT$impl$u20$core..slice..index..SliceIndex$LT$str$GT$$u20$for$u20$core..ops..range..RangeFrom$LT$usize$GT$$GT$3get17hae6aac9a07379475E
	movq	%rdx, 120(%rsp)
	movq	%rax, 112(%rsp)
	movq	112(%rsp), %rax
	testq	%rax, %rax
	setne	%al
	movzbl	%al, %eax
	je	.LBB176_4
	jmp	.LBB176_6
.LBB176_6:
	jmp	.LBB176_5
	ud2
.LBB176_4:
	.cv_loc	217 36 370 0
	movq	48(%rsp), %r9
	movq	40(%rsp), %r8
	movq	64(%rsp), %rdx
	movq	72(%rsp), %rcx
	movq	56(%rsp), %r10
	movq	%rsp, %rax
	movq	%r10, 32(%rax)
	callq	_ZN4core3str16slice_error_fail17hdf3d2a7c1f8c0374E
	ud2
.LBB176_5:
	.cv_loc	217 36 369 0
	movq	112(%rsp), %rax
	movq	120(%rsp), %rdx
	movq	%rax, 168(%rsp)
	movq	%rdx, 176(%rsp)
.Ltmp655:
	.cv_loc	217 36 372 0
	addq	$184, %rsp
	retq
.Ltmp656:
.Lfunc_end176:
	.seh_endproc

	.def	_ZN4core3str6traits54_$LT$impl$u20$core..cmp..PartialEq$u20$for$u20$str$GT$2eq17hc6de9fd3a6deee01E;
	.scl	3;
	.type	32;
	.endef
	.section	.text,"xr",one_only,_ZN4core3str6traits54_$LT$impl$u20$core..cmp..PartialEq$u20$for$u20$str$GT$2eq17hc6de9fd3a6deee01E
	.p2align	4, 0x90
_ZN4core3str6traits54_$LT$impl$u20$core..cmp..PartialEq$u20$for$u20$str$GT$2eq17hc6de9fd3a6deee01E:
.Lfunc_begin177:
	.cv_func_id 218
	.cv_loc	218 36 28 0
.seh_proc _ZN4core3str6traits54_$LT$impl$u20$core..cmp..PartialEq$u20$for$u20$str$GT$2eq17hc6de9fd3a6deee01E
	subq	$184, %rsp
	.seh_stackalloc 184
	.seh_endprologue
	movq	%r9, 40(%rsp)
	movq	%r8, 48(%rsp)
	movq	%rcx, 88(%rsp)
	movq	%rdx, 96(%rsp)
	movq	%r8, 104(%rsp)
	movq	%r9, 112(%rsp)
	movq	%rcx, 152(%rsp)
	movq	%rdx, 160(%rsp)
.Ltmp657:
	.cv_inline_site_id 219 within 218 inlined_at 36 29 0
	.cv_loc	219 12 326 0
	movq	%rcx, 168(%rsp)
	movq	%rdx, 176(%rsp)
	movq	168(%rsp), %rax
	movq	176(%rsp), %rcx
.Ltmp658:
	.cv_loc	218 36 29 0
	movq	%rcx, 64(%rsp)
	movq	%rax, 56(%rsp)
	.cv_inline_site_id 220 within 218 inlined_at 36 29 0
	.cv_loc	220 12 326 0
	movq	40(%rsp), %rax
	movq	48(%rsp), %rcx
	movq	%rcx, 120(%rsp)
	movq	%rax, 128(%rsp)
.Ltmp659:
	movq	%rcx, 136(%rsp)
	movq	%rax, 144(%rsp)
	movq	136(%rsp), %rax
	movq	144(%rsp), %rcx
.Ltmp660:
	.cv_loc	218 36 29 0
	movq	%rcx, 80(%rsp)
	movq	%rax, 72(%rsp)
	leaq	56(%rsp), %rcx
	leaq	72(%rsp), %rdx
	callq	_ZN4core3cmp5impls69_$LT$impl$u20$core..cmp..PartialEq$LT$$RF$B$GT$$u20$for$u20$$RF$A$GT$2eq17h3c9070efb11730cbE
	movb	%al, 39(%rsp)
	.cv_loc	218 36 30 0
	movb	39(%rsp), %al
	andb	$1, %al
	movzbl	%al, %eax
	addq	$184, %rsp
	retq
.Ltmp661:
.Lfunc_end177:
	.seh_endproc

	.def	_ZN4core3str6traits54_$LT$impl$u20$core..cmp..PartialEq$u20$for$u20$str$GT$2ne17h725f9ca2b25235e8E;
	.scl	3;
	.type	32;
	.endef
	.section	.text,"xr",one_only,_ZN4core3str6traits54_$LT$impl$u20$core..cmp..PartialEq$u20$for$u20$str$GT$2ne17h725f9ca2b25235e8E
	.p2align	4, 0x90
_ZN4core3str6traits54_$LT$impl$u20$core..cmp..PartialEq$u20$for$u20$str$GT$2ne17h725f9ca2b25235e8E:
.Lfunc_begin178:
	.cv_func_id 221
	.cv_loc	221 36 32 0
.seh_proc _ZN4core3str6traits54_$LT$impl$u20$core..cmp..PartialEq$u20$for$u20$str$GT$2ne17h725f9ca2b25235e8E
	subq	$72, %rsp
	.seh_stackalloc 72
	.seh_endprologue
	movq	%rcx, 40(%rsp)
	movq	%rdx, 48(%rsp)
	movq	%r8, 56(%rsp)
	movq	%r9, 64(%rsp)
.Ltmp662:
	.cv_loc	221 36 33 0
	callq	_ZN4core3str6traits54_$LT$impl$u20$core..cmp..PartialEq$u20$for$u20$str$GT$2eq17hc6de9fd3a6deee01E
	movb	%al, 39(%rsp)
	movb	39(%rsp), %al
