	.text
	.def	@feat.00;
	.scl	3;
	.type	0;
	.endef
	.globl	@feat.00
.set @feat.00, 0
	.file	"3yvrzxmi0mq2o1hz"
	.def	_ZN3std10sys_common9backtrace28__rust_begin_short_backtrace17h3bb560edae52021eE;
	.scl	3;
	.type	32;
	.endef
	.section	.text,"xr",one_only,_ZN3std10sys_common9backtrace28__rust_begin_short_backtrace17h3bb560edae52021eE
	.p2align	4, 0x90
_ZN3std10sys_common9backtrace28__rust_begin_short_backtrace17h3bb560edae52021eE:
.Lfunc_begin0:
	.cv_func_id 0
	.cv_file	1 "/rustc/bf8716f1cd6416266807706bcae0ecb2e51c9d4a\\library\\std\\src\\sys_common\\backtrace.rs" "3A19B2F88E2280D45BCABB7E739DFB52568C7A9DDD31C38CB8D3813EAEEA508E" 3
	.cv_loc	0 1 151 0
.seh_proc _ZN3std10sys_common9backtrace28__rust_begin_short_backtrace17h3bb560edae52021eE
	subq	$56, %rsp
	.seh_stackalloc 56
	.seh_endprologue
.Ltmp0:
	.cv_file	2 "/rustc/bf8716f1cd6416266807706bcae0ecb2e51c9d4a\\library\\core\\src\\hint.rs" "C374795C6EAEAEDBAF5D854D6718229AE25D6E7563B106BE410B37E80823BAFA" 3
	.cv_inline_site_id 1 within 0 inlined_at 1 158 0
	.cv_loc	1 2 285 0
	movq	%rcx, 48(%rsp)
.Ltmp1:
	.cv_loc	0 1 155 0
	callq	_ZN4core3ops8function6FnOnce9call_once17h340ad667c7f4f38cE
.Ltmp2:
	.cv_loc	1 2 286 0
	#APP
	#NO_APP
.Ltmp3:
	.cv_loc	0 1 161 0
	nop
	addq	$56, %rsp
	retq
.Ltmp4:
.Lfunc_end0:
	.seh_endproc

	.def	_ZN3std2rt10lang_start17h2fe6f2f17097ae34E;
	.scl	2;
	.type	32;
	.endef
	.section	.text,"xr",one_only,_ZN3std2rt10lang_start17h2fe6f2f17097ae34E
	.globl	_ZN3std2rt10lang_start17h2fe6f2f17097ae34E
	.p2align	4, 0x90
_ZN3std2rt10lang_start17h2fe6f2f17097ae34E:
.Lfunc_begin1:
	.cv_func_id 2
	.cv_file	3 "/rustc/bf8716f1cd6416266807706bcae0ecb2e51c9d4a\\library\\std\\src\\rt.rs" "7DE1A9690DC20309CA9404793CB4783442BB5506DEEC94DEDBE13D104CB8FCDF" 3
	.cv_loc	2 3 159 0
.seh_proc _ZN3std2rt10lang_start17h2fe6f2f17097ae34E
	subq	$104, %rsp
	.seh_stackalloc 104
	.seh_endprologue
	movb	%r9b, %al
	movq	%r8, %r9
	movq	%rdx, %r8
	movq	%rcx, 64(%rsp)
	movq	%r8, 72(%rsp)
	movq	%r9, 80(%rsp)
	movb	%al, 95(%rsp)
.Ltmp5:
	.cv_loc	2 3 166 0
	movq	%rcx, 56(%rsp)
	.cv_loc	2 3 165 0
	leaq	56(%rsp), %rcx
	leaq	__unnamed_1(%rip), %rdx
	movb	%al, 32(%rsp)
	callq	_ZN3std2rt19lang_start_internal17he5c31dcd30b804c6E
	movq	%rax, 48(%rsp)
	movq	48(%rsp), %rax
	movq	%rax, 96(%rsp)
	.cv_loc	2 3 172 0
	addq	$104, %rsp
	retq
.Ltmp6:
.Lfunc_end1:
	.seh_endproc

	.def	_ZN3std2rt10lang_start28_$u7b$$u7b$closure$u7d$$u7d$17ha6dbd5f4d78df3eeE;
	.scl	3;
	.type	32;
	.endef
	.section	.text,"xr",one_only,_ZN3std2rt10lang_start28_$u7b$$u7b$closure$u7d$$u7d$17ha6dbd5f4d78df3eeE
	.p2align	4, 0x90
_ZN3std2rt10lang_start28_$u7b$$u7b$closure$u7d$$u7d$17ha6dbd5f4d78df3eeE:
.Lfunc_begin2:
	.cv_func_id 3
	.cv_loc	3 3 166 0
.seh_proc _ZN3std2rt10lang_start28_$u7b$$u7b$closure$u7d$$u7d$17ha6dbd5f4d78df3eeE
	subq	$56, %rsp
	.seh_stackalloc 56
	.seh_endprologue
	movq	%rcx, 40(%rsp)
.Ltmp7:
	movq	(%rcx), %rcx
	callq	_ZN3std10sys_common9backtrace28__rust_begin_short_backtrace17h3bb560edae52021eE
	callq	_ZN54_$LT$$LP$$RP$$u20$as$u20$std..process..Termination$GT$6report17h08ca75c3ba541949E
	movl	%eax, 36(%rsp)
.Ltmp8:
	.cv_file	4 "/rustc/bf8716f1cd6416266807706bcae0ecb2e51c9d4a\\library\\std\\src\\process.rs" "116373B3F7ADBD85589F2769246A0F1C1F568190CEF17DD822747D7EFFF640A7" 3
	.cv_inline_site_id 4 within 3 inlined_at 3 166 0
	.cv_loc	4 4 1959 0
	leaq	36(%rsp), %rax
	movq	%rax, 48(%rsp)
.Ltmp9:
	.cv_file	5 "/rustc/bf8716f1cd6416266807706bcae0ecb2e51c9d4a\\library\\std\\src\\sys\\windows\\process.rs" "61E89BC84FF1E449F01F13A10F967755EF012EBE26CEE9E97F6BFD671D39A6A5" 3
	.cv_inline_site_id 5 within 4 inlined_at 4 1959 0
	.cv_loc	5 5 764 0
	movl	36(%rsp), %eax
.Ltmp10:
	.cv_loc	3 3 166 0
	addq	$56, %rsp
	retq
.Ltmp11:
.Lfunc_end2:
	.seh_endproc

	.def	_ZN4core3ops8function6FnOnce40call_once$u7b$$u7b$vtable.shim$u7d$$u7d$17h758d54c1024b57eeE;
	.scl	3;
	.type	32;
	.endef
	.section	.text,"xr",one_only,_ZN4core3ops8function6FnOnce40call_once$u7b$$u7b$vtable.shim$u7d$$u7d$17h758d54c1024b57eeE
	.p2align	4, 0x90
_ZN4core3ops8function6FnOnce40call_once$u7b$$u7b$vtable.shim$u7d$$u7d$17h758d54c1024b57eeE:
.Lfunc_begin3:
	.cv_func_id 6
	.cv_file	6 "/rustc/bf8716f1cd6416266807706bcae0ecb2e51c9d4a\\library\\core\\src\\ops\\function.rs" "56CE021EFEA9987501544CAA0F9655C530CF8DDA7C72CD71DDE4BB5210DBF612" 3
	.cv_loc	6 6 250 0
.seh_proc _ZN4core3ops8function6FnOnce40call_once$u7b$$u7b$vtable.shim$u7d$$u7d$17h758d54c1024b57eeE
	subq	$56, %rsp
	.seh_stackalloc 56
	.seh_endprologue
	movq	%rcx, 48(%rsp)
.Ltmp12:
	movq	(%rcx), %rcx
	callq	_ZN4core3ops8function6FnOnce9call_once17h6422fa800111d7d3E
	nop
	addq	$56, %rsp
	retq
.Ltmp13:
.Lfunc_end3:
	.seh_endproc

	.def	_ZN4core3ops8function6FnOnce9call_once17h340ad667c7f4f38cE;
	.scl	3;
	.type	32;
	.endef
	.section	.text,"xr",one_only,_ZN4core3ops8function6FnOnce9call_once17h340ad667c7f4f38cE
	.p2align	4, 0x90
_ZN4core3ops8function6FnOnce9call_once17h340ad667c7f4f38cE:
.Lfunc_begin4:
	.cv_func_id 7
	.cv_loc	7 6 250 0
.seh_proc _ZN4core3ops8function6FnOnce9call_once17h340ad667c7f4f38cE
	subq	$56, %rsp
	.seh_stackalloc 56
	.seh_endprologue
	movq	%rcx, 48(%rsp)
.Ltmp14:
	callq	*%rcx
	nop
	addq	$56, %rsp
	retq
.Ltmp15:
.Lfunc_end4:
	.seh_endproc

	.def	_ZN4core3ops8function6FnOnce9call_once17h6422fa800111d7d3E;
	.scl	3;
	.type	32;
	.endef
	.section	.text,"xr",one_only,_ZN4core3ops8function6FnOnce9call_once17h6422fa800111d7d3E
	.p2align	4, 0x90
_ZN4core3ops8function6FnOnce9call_once17h6422fa800111d7d3E:
.Lfunc_begin5:
	.cv_func_id 8
	.cv_loc	8 6 250 0
.seh_proc _ZN4core3ops8function6FnOnce9call_once17h6422fa800111d7d3E
	.seh_handler __CxxFrameHandler3, @unwind, @except
	pushq	%rbp
	.seh_pushreg %rbp
	subq	$64, %rsp
	.seh_stackalloc 64
	leaq	64(%rsp), %rbp
	.seh_setframe %rbp, 64
	.seh_endprologue
	movq	$-2, -8(%rbp)
	movq	%rcx, -16(%rbp)
.Ltmp16:
	leaq	-16(%rbp), %rcx
.Ltmp18:
	callq	_ZN3std2rt10lang_start28_$u7b$$u7b$closure$u7d$$u7d$17ha6dbd5f4d78df3eeE
.Ltmp17:
	movl	%eax, -20(%rbp)
	jmp	.LBB5_2
.LBB5_2:
	movl	-20(%rbp), %eax
	addq	$64, %rsp
	popq	%rbp
	retq
	.seh_handlerdata
	.long	($cppxdata$_ZN4core3ops8function6FnOnce9call_once17h6422fa800111d7d3E)@IMGREL
	.section	.text,"xr",one_only,_ZN4core3ops8function6FnOnce9call_once17h6422fa800111d7d3E
	.seh_endproc
	.def	"?dtor$1@?0?_ZN4core3ops8function6FnOnce9call_once17h6422fa800111d7d3E@4HA";
	.scl	3;
	.type	32;
	.endef
	.p2align	4, 0x90
"?dtor$1@?0?_ZN4core3ops8function6FnOnce9call_once17h6422fa800111d7d3E@4HA":
.seh_proc "?dtor$1@?0?_ZN4core3ops8function6FnOnce9call_once17h6422fa800111d7d3E@4HA"
.LBB5_1:
	movq	%rdx, 16(%rsp)
	pushq	%rbp
	.seh_pushreg %rbp
	subq	$32, %rsp
	.seh_stackalloc 32
	leaq	64(%rdx), %rbp
	.seh_endprologue
	addq	$32, %rsp
	popq	%rbp
	retq
.Ltmp19:
.Lfunc_end5:
	.seh_handlerdata
	.section	.text,"xr",one_only,_ZN4core3ops8function6FnOnce9call_once17h6422fa800111d7d3E
	.seh_endproc
	.section	.xdata,"dr",associative,_ZN4core3ops8function6FnOnce9call_once17h6422fa800111d7d3E
	.p2align	2, 0x0
$cppxdata$_ZN4core3ops8function6FnOnce9call_once17h6422fa800111d7d3E:
	.long	429065506
	.long	1
	.long	($stateUnwindMap$_ZN4core3ops8function6FnOnce9call_once17h6422fa800111d7d3E)@IMGREL
	.long	0
	.long	0
	.long	3
	.long	($ip2state$_ZN4core3ops8function6FnOnce9call_once17h6422fa800111d7d3E)@IMGREL
	.long	56
	.long	0
	.long	1
$stateUnwindMap$_ZN4core3ops8function6FnOnce9call_once17h6422fa800111d7d3E:
	.long	-1
	.long	"?dtor$1@?0?_ZN4core3ops8function6FnOnce9call_once17h6422fa800111d7d3E@4HA"@IMGREL
$ip2state$_ZN4core3ops8function6FnOnce9call_once17h6422fa800111d7d3E:
	.long	.Lfunc_begin5@IMGREL
	.long	-1
	.long	.Ltmp16@IMGREL+1
	.long	0
	.long	.Ltmp17@IMGREL+1
	.long	-1
	.section	.text,"xr",one_only,_ZN4core3ops8function6FnOnce9call_once17h6422fa800111d7d3E

	.def	_ZN4core3ptr85drop_in_place$LT$std..rt..lang_start$LT$$LP$$RP$$GT$..$u7b$$u7b$closure$u7d$$u7d$$GT$17h477249e6ccd54123E;
	.scl	3;
	.type	32;
	.endef
	.section	.text,"xr",one_only,_ZN4core3ptr85drop_in_place$LT$std..rt..lang_start$LT$$LP$$RP$$GT$..$u7b$$u7b$closure$u7d$$u7d$$GT$17h477249e6ccd54123E
	.p2align	4, 0x90
_ZN4core3ptr85drop_in_place$LT$std..rt..lang_start$LT$$LP$$RP$$GT$..$u7b$$u7b$closure$u7d$$u7d$$GT$17h477249e6ccd54123E:
.Lfunc_begin6:
	.cv_func_id 9
	.cv_file	7 "/rustc/bf8716f1cd6416266807706bcae0ecb2e51c9d4a\\library\\core\\src\\ptr\\mod.rs" "CF94BF36447DDE68553E3D1F0BE7113713EE71A6230F398B17602AD5FCEAF4AD" 3
	.cv_loc	9 7 507 0
.seh_proc _ZN4core3ptr85drop_in_place$LT$std..rt..lang_start$LT$$LP$$RP$$GT$..$u7b$$u7b$closure$u7d$$u7d$$GT$17h477249e6ccd54123E
	pushq	%rax
	.seh_stackalloc 8
	.seh_endprologue
	movq	%rcx, (%rsp)
.Ltmp20:
	popq	%rax
	retq
.Ltmp21:
.Lfunc_end6:
	.seh_endproc

	.def	_ZN54_$LT$$LP$$RP$$u20$as$u20$std..process..Termination$GT$6report17h08ca75c3ba541949E;
	.scl	3;
	.type	32;
	.endef
	.section	.text,"xr",one_only,_ZN54_$LT$$LP$$RP$$u20$as$u20$std..process..Termination$GT$6report17h08ca75c3ba541949E
	.p2align	4, 0x90
_ZN54_$LT$$LP$$RP$$u20$as$u20$std..process..Termination$GT$6report17h08ca75c3ba541949E:
.Lfunc_begin7:
	.cv_func_id 10
	.cv_loc	10 4 2331 0
.seh_proc _ZN54_$LT$$LP$$RP$$u20$as$u20$std..process..Termination$GT$6report17h08ca75c3ba541949E
	pushq	%rax
	.seh_stackalloc 8
	.seh_endprologue
.Ltmp22:
	.cv_loc	10 4 2333 0
	xorl	%eax, %eax
	popq	%rcx
	retq
.Ltmp23:
.Lfunc_end7:
	.seh_endproc

	.def	_ZN15applause_derive4main17h8e747a7cc3ee23f1E;
	.scl	3;
	.type	32;
	.endef
	.section	.text,"xr",one_only,_ZN15applause_derive4main17h8e747a7cc3ee23f1E
	.p2align	4, 0x90
_ZN15applause_derive4main17h8e747a7cc3ee23f1E:
.Lfunc_begin8:
	.cv_func_id 11
	.cv_file	8 "c:\\Users\\cires\\projects\\applause\\applause_derive\\src\\lib.rs" "01BA4719C80B6FE911B091A7C05124B64EEECE964E09C058EF8F9805DACA546B" 3
	.cv_loc	11 8 1 0
.seh_proc _ZN15applause_derive4main17h8e747a7cc3ee23f1E
	subq	$40, %rsp
	.seh_stackalloc 40
	.seh_endprologue
.Ltmp24:
	leaq	__unnamed_2(%rip), %rcx
	xorl	%eax, %eax
	movl	%eax, %edx
	callq	_ZN4test16test_main_static17hf2b2efb7c2992dfcE
	nop
	addq	$40, %rsp
	retq
.Ltmp25:
.Lfunc_end8:
	.seh_endproc

	.def	main;
	.scl	2;
	.type	32;
	.endef
	.section	.text,"xr",one_only,main
	.globl	main
	.p2align	4, 0x90
main:
.Lfunc_begin9:
.seh_proc main
	subq	$40, %rsp
	.seh_stackalloc 40
	.seh_endprologue
	movq	%rdx, %r8
	movslq	%ecx, %rdx
	leaq	_ZN15applause_derive4main17h8e747a7cc3ee23f1E(%rip), %rcx
	xorl	%r9d, %r9d
	callq	_ZN3std2rt10lang_start17h2fe6f2f17097ae34E
	nop
	addq	$40, %rsp
	retq
.Lfunc_end9:
	.seh_endproc

	.section	.rdata,"dr",one_only,__unnamed_1
	.p2align	3, 0x0
__unnamed_1:
	.quad	_ZN4core3ptr85drop_in_place$LT$std..rt..lang_start$LT$$LP$$RP$$GT$..$u7b$$u7b$closure$u7d$$u7d$$GT$17h477249e6ccd54123E
	.asciz	"\b\000\000\000\000\000\000\000\b\000\000\000\000\000\000"
	.quad	_ZN4core3ops8function6FnOnce40call_once$u7b$$u7b$vtable.shim$u7d$$u7d$17h758d54c1024b57eeE
	.quad	_ZN3std2rt10lang_start28_$u7b$$u7b$closure$u7d$$u7d$17ha6dbd5f4d78df3eeE
	.quad	_ZN3std2rt10lang_start28_$u7b$$u7b$closure$u7d$$u7d$17ha6dbd5f4d78df3eeE

	.section	.rdata,"dr",one_only,__unnamed_2
	.p2align	3, 0x0
__unnamed_2:
