	.text
	.def	@feat.00;
	.scl	3;
	.type	0;
	.endef
	.globl	@feat.00
.set @feat.00, 0
	.file	"log.2e4e6124-cgu.0"
	.def	_ZN102_$LT$core..iter..adapters..map..Map$LT$I$C$F$GT$$u20$as$u20$core..iter..traits..iterator..Iterator$GT$4next17h910563bbe92a73feE;
	.scl	2;
	.type	32;
	.endef
	.section	.text,"xr",one_only,_ZN102_$LT$core..iter..adapters..map..Map$LT$I$C$F$GT$$u20$as$u20$core..iter..traits..iterator..Iterator$GT$4next17h910563bbe92a73feE
	.globl	_ZN102_$LT$core..iter..adapters..map..Map$LT$I$C$F$GT$$u20$as$u20$core..iter..traits..iterator..Iterator$GT$4next17h910563bbe92a73feE
	.p2align	4, 0x90
_ZN102_$LT$core..iter..adapters..map..Map$LT$I$C$F$GT$$u20$as$u20$core..iter..traits..iterator..Iterator$GT$4next17h910563bbe92a73feE:
.Lfunc_begin0:
	.cv_func_id 0
	.cv_file	1 "/rustc/fe5b13d681f25ee6474be29d748c65adcd91f69e\\library\\core\\src\\iter\\adapters\\map.rs" "BC31A4F7DD3939F157F47AAF847E8257D273D311" 2
	.cv_loc	0 1 102 0
.seh_proc _ZN102_$LT$core..iter..adapters..map..Map$LT$I$C$F$GT$$u20$as$u20$core..iter..traits..iterator..Iterator$GT$4next17h910563bbe92a73feE
	subq	$72, %rsp
	.seh_stackalloc 72
	.seh_endprologue
	movq	%rcx, 40(%rsp)
	movq	%rcx, 64(%rsp)
.Ltmp0:
	.cv_loc	0 1 103 0
	callq	_ZN108_$LT$core..iter..adapters..filter..Filter$LT$I$C$P$GT$$u20$as$u20$core..iter..traits..iterator..Iterator$GT$4next17hcc5d0cd693c301c0E
	movq	%rax, 48(%rsp)
	movq	%rdx, 56(%rsp)
	movq	56(%rsp), %rdx
	movq	48(%rsp), %rcx
	movq	40(%rsp), %r8
	callq	_ZN4core6option15Option$LT$T$GT$3map17h908a462d3f31ffddE
	movq	%rax, 32(%rsp)
	.cv_loc	0 1 104 0
	movq	32(%rsp), %rax
	addq	$72, %rsp
	retq
.Ltmp1:
.Lfunc_end0:
	.seh_endproc

	.def	_ZN102_$LT$core..iter..adapters..zip..Zip$LT$A$C$B$GT$$u20$as$u20$core..iter..traits..iterator..Iterator$GT$4next17h09ecc82d88f51b69E;
	.scl	2;
	.type	32;
	.endef
	.section	.text,"xr",one_only,_ZN102_$LT$core..iter..adapters..zip..Zip$LT$A$C$B$GT$$u20$as$u20$core..iter..traits..iterator..Iterator$GT$4next17h09ecc82d88f51b69E
	.globl	_ZN102_$LT$core..iter..adapters..zip..Zip$LT$A$C$B$GT$$u20$as$u20$core..iter..traits..iterator..Iterator$GT$4next17h09ecc82d88f51b69E
	.p2align	4, 0x90
_ZN102_$LT$core..iter..adapters..zip..Zip$LT$A$C$B$GT$$u20$as$u20$core..iter..traits..iterator..Iterator$GT$4next17h09ecc82d88f51b69E:
.Lfunc_begin1:
	.cv_func_id 1
	.cv_file	2 "/rustc/fe5b13d681f25ee6474be29d748c65adcd91f69e\\library\\core\\src\\iter\\adapters\\zip.rs" "3251F721F64B054D00D93915C9A9C0C6AFD0B6BF" 2
	.cv_loc	1 2 83 0
.seh_proc _ZN102_$LT$core..iter..adapters..zip..Zip$LT$A$C$B$GT$$u20$as$u20$core..iter..traits..iterator..Iterator$GT$4next17h09ecc82d88f51b69E
	subq	$56, %rsp
	.seh_stackalloc 56
	.seh_endprologue
	movq	%rcx, 48(%rsp)
.Ltmp2:
	.cv_loc	1 2 84 0
	callq	_ZN111_$LT$core..iter..adapters..zip..Zip$LT$A$C$B$GT$$u20$as$u20$core..iter..adapters..zip..ZipImpl$LT$A$C$B$GT$$GT$4next17heb9f899fb210dc57E
	movq	%rax, 32(%rsp)
	movq	%rdx, 40(%rsp)
	.cv_loc	1 2 85 0
	movq	40(%rsp), %rdx
	movq	32(%rsp), %rax
	addq	$56, %rsp
	retq
.Ltmp3:
.Lfunc_end1:
	.seh_endproc

	.def	_ZN104_$LT$core..ops..control_flow..ControlFlow$LT$B$C$C$GT$$u20$as$u20$core..ops..try_trait..FromResidual$GT$13from_residual17h2913dfedb7a29910E;
	.scl	2;
	.type	32;
	.endef
	.section	.text,"xr",one_only,_ZN104_$LT$core..ops..control_flow..ControlFlow$LT$B$C$C$GT$$u20$as$u20$core..ops..try_trait..FromResidual$GT$13from_residual17h2913dfedb7a29910E
	.globl	_ZN104_$LT$core..ops..control_flow..ControlFlow$LT$B$C$C$GT$$u20$as$u20$core..ops..try_trait..FromResidual$GT$13from_residual17h2913dfedb7a29910E
	.p2align	4, 0x90
_ZN104_$LT$core..ops..control_flow..ControlFlow$LT$B$C$C$GT$$u20$as$u20$core..ops..try_trait..FromResidual$GT$13from_residual17h2913dfedb7a29910E:
.Lfunc_begin2:
	.cv_func_id 2
	.cv_file	3 "/rustc/fe5b13d681f25ee6474be29d748c65adcd91f69e\\library\\core\\src\\ops\\control_flow.rs" "358008375A4C8397714F265F8D759BE7D2481351" 2
	.cv_loc	2 3 119 0
.seh_proc _ZN104_$LT$core..ops..control_flow..ControlFlow$LT$B$C$C$GT$$u20$as$u20$core..ops..try_trait..FromResidual$GT$13from_residual17h2913dfedb7a29910E
	subq	$32, %rsp
	.seh_stackalloc 32
	.seh_endprologue
	movq	%rcx, (%rsp)
.Ltmp4:
	.cv_loc	2 3 121 0
	movq	(%rsp), %rax
	movq	%rax, 24(%rsp)
.Ltmp5:
	.cv_loc	2 3 121 0
	movq	%rax, 16(%rsp)
	movq	$1, 8(%rsp)
.Ltmp6:
	.cv_loc	2 3 123 0
	movq	8(%rsp), %rax
	movq	16(%rsp), %rdx
	addq	$32, %rsp
	retq
.Ltmp7:
.Lfunc_end2:
	.seh_endproc

	.def	_ZN104_$LT$core..ops..control_flow..ControlFlow$LT$B$C$C$GT$$u20$as$u20$core..ops..try_trait..FromResidual$GT$13from_residual17h4a2d22356a7c8e1bE;
	.scl	2;
	.type	32;
	.endef
	.section	.text,"xr",one_only,_ZN104_$LT$core..ops..control_flow..ControlFlow$LT$B$C$C$GT$$u20$as$u20$core..ops..try_trait..FromResidual$GT$13from_residual17h4a2d22356a7c8e1bE
	.globl	_ZN104_$LT$core..ops..control_flow..ControlFlow$LT$B$C$C$GT$$u20$as$u20$core..ops..try_trait..FromResidual$GT$13from_residual17h4a2d22356a7c8e1bE
	.p2align	4, 0x90
_ZN104_$LT$core..ops..control_flow..ControlFlow$LT$B$C$C$GT$$u20$as$u20$core..ops..try_trait..FromResidual$GT$13from_residual17h4a2d22356a7c8e1bE:
.Lfunc_begin3:
	.cv_func_id 3
	.cv_loc	3 3 119 0
.seh_proc _ZN104_$LT$core..ops..control_flow..ControlFlow$LT$B$C$C$GT$$u20$as$u20$core..ops..try_trait..FromResidual$GT$13from_residual17h4a2d22356a7c8e1bE
	subq	$24, %rsp
	.seh_stackalloc 24
	.seh_endprologue
.Ltmp8:
	.cv_loc	3 3 121 0
	movb	$1, 7(%rsp)
.Ltmp9:
	.cv_loc	3 3 123 0
	movb	7(%rsp), %al
	andb	$1, %al
	movzbl	%al, %eax
	addq	$24, %rsp
	retq
.Ltmp10:
.Lfunc_end3:
	.seh_endproc

	.def	_ZN108_$LT$core..iter..adapters..filter..Filter$LT$I$C$P$GT$$u20$as$u20$core..iter..traits..iterator..Iterator$GT$4next17hcc5d0cd693c301c0E;
	.scl	2;
	.type	32;
	.endef
	.section	.text,"xr",one_only,_ZN108_$LT$core..iter..adapters..filter..Filter$LT$I$C$P$GT$$u20$as$u20$core..iter..traits..iterator..Iterator$GT$4next17hcc5d0cd693c301c0E
	.globl	_ZN108_$LT$core..iter..adapters..filter..Filter$LT$I$C$P$GT$$u20$as$u20$core..iter..traits..iterator..Iterator$GT$4next17hcc5d0cd693c301c0E
	.p2align	4, 0x90
_ZN108_$LT$core..iter..adapters..filter..Filter$LT$I$C$P$GT$$u20$as$u20$core..iter..traits..iterator..Iterator$GT$4next17hcc5d0cd693c301c0E:
.Lfunc_begin4:
	.cv_func_id 4
	.cv_file	4 "/rustc/fe5b13d681f25ee6474be29d748c65adcd91f69e\\library\\core\\src\\iter\\adapters\\filter.rs" "86B03BCCC0062DF7D860560F2CF1AF76535BD53F" 2
	.cv_loc	4 4 55 0
.seh_proc _ZN108_$LT$core..iter..adapters..filter..Filter$LT$I$C$P$GT$$u20$as$u20$core..iter..traits..iterator..Iterator$GT$4next17hcc5d0cd693c301c0E
	subq	$56, %rsp
	.seh_stackalloc 56
	.seh_endprologue
	movq	%rcx, 48(%rsp)
.Ltmp11:
	.cv_loc	4 4 56 0
	movq	%rcx, %rdx
	callq	_ZN4core4iter6traits8iterator8Iterator4find17h860932188422169eE
	movq	%rax, 32(%rsp)
	movq	%rdx, 40(%rsp)
	.cv_loc	4 4 57 0
	movq	40(%rsp), %rdx
	movq	32(%rsp), %rax
	addq	$56, %rsp
	retq
.Ltmp12:
.Lfunc_end4:
	.seh_endproc

	.def	_ZN111_$LT$core..iter..adapters..zip..Zip$LT$A$C$B$GT$$u20$as$u20$core..iter..adapters..zip..ZipImpl$LT$A$C$B$GT$$GT$3new17h6c7670a475a290c5E;
	.scl	2;
	.type	32;
	.endef
	.section	.text,"xr",one_only,_ZN111_$LT$core..iter..adapters..zip..Zip$LT$A$C$B$GT$$u20$as$u20$core..iter..adapters..zip..ZipImpl$LT$A$C$B$GT$$GT$3new17h6c7670a475a290c5E
	.globl	_ZN111_$LT$core..iter..adapters..zip..Zip$LT$A$C$B$GT$$u20$as$u20$core..iter..adapters..zip..ZipImpl$LT$A$C$B$GT$$GT$3new17h6c7670a475a290c5E
	.p2align	4, 0x90
_ZN111_$LT$core..iter..adapters..zip..Zip$LT$A$C$B$GT$$u20$as$u20$core..iter..adapters..zip..ZipImpl$LT$A$C$B$GT$$GT$3new17h6c7670a475a290c5E:
.Lfunc_begin5:
	.cv_func_id 5
	.cv_loc	5 2 263 0
.seh_proc _ZN111_$LT$core..iter..adapters..zip..Zip$LT$A$C$B$GT$$u20$as$u20$core..iter..adapters..zip..ZipImpl$LT$A$C$B$GT$$GT$3new17h6c7670a475a290c5E
	.seh_handler __CxxFrameHandler3, @unwind, @except
	pushq	%rbp
	.seh_pushreg %rbp
	pushq	%rsi
	.seh_pushreg %rsi
	subq	$136, %rsp
	.seh_stackalloc 136
	leaq	128(%rsp), %rbp
	.seh_setframe %rbp, 128
	.seh_endprologue
	movq	$-2, (%rbp)
	movq	%rcx, -72(%rbp)
	movq	%rcx, -64(%rbp)
	movq	64(%rbp), %rax
	movq	%rdx, -48(%rbp)
	movq	%r8, -40(%rbp)
	movq	%r9, -32(%rbp)
	movq	%rax, -24(%rbp)
	.cv_loc	5 2 264 0
.Ltmp13:
	leaq	-48(%rbp), %rcx
.Ltmp19:
	callq	_ZN4core4iter8adapters3zip27TrustedRandomAccessNoCoerce4size17h11b231b420bbaf0eE
.Ltmp14:
	movq	%rax, -56(%rbp)
	jmp	.LBB5_2
.LBB5_2:
	movq	-56(%rbp), %rax
	movq	%rax, -16(%rbp)
	.cv_loc	5 2 265 0
.Ltmp15:
	leaq	-32(%rbp), %rcx
.Ltmp20:
	callq	_ZN4core4iter8adapters3zip27TrustedRandomAccessNoCoerce4size17h11b231b420bbaf0eE
.Ltmp16:
	movq	%rax, -80(%rbp)
	jmp	.LBB5_3
.LBB5_3:
.Ltmp17:
	movq	-80(%rbp), %rdx
	movq	-56(%rbp), %rcx
	callq	_ZN4core3cmp3min17h31c7416b5b0ce311E
.Ltmp18:
	movq	%rax, -88(%rbp)
	jmp	.LBB5_4
.LBB5_4:
	movq	-64(%rbp), %rax
	movq	-72(%rbp), %rcx
	movq	-56(%rbp), %rdx
	movq	-88(%rbp), %r8
	movq	%r8, -8(%rbp)
.Ltmp21:
	.cv_loc	5 2 266 0
	movq	-48(%rbp), %rsi
	movq	-40(%rbp), %r11
	movq	-32(%rbp), %r10
	movq	-24(%rbp), %r9
	movq	%rsi, (%rcx)
	movq	%r11, 8(%rcx)
	movq	%r10, 16(%rcx)
	movq	%r9, 24(%rcx)
	movq	$0, 32(%rcx)
	movq	%r8, 40(%rcx)
	movq	%rdx, 48(%rcx)
.Ltmp22:
	.cv_loc	5 2 267 0
	addq	$136, %rsp
	popq	%rsi
	popq	%rbp
	retq
	.seh_handlerdata
	.long	($cppxdata$_ZN111_$LT$core..iter..adapters..zip..Zip$LT$A$C$B$GT$$u20$as$u20$core..iter..adapters..zip..ZipImpl$LT$A$C$B$GT$$GT$3new17h6c7670a475a290c5E)@IMGREL
	.section	.text,"xr",one_only,_ZN111_$LT$core..iter..adapters..zip..Zip$LT$A$C$B$GT$$u20$as$u20$core..iter..adapters..zip..ZipImpl$LT$A$C$B$GT$$GT$3new17h6c7670a475a290c5E
	.seh_endproc
	.def	"?dtor$1@?0?_ZN111_$LT$core..iter..adapters..zip..Zip$LT$A$C$B$GT$$u20$as$u20$core..iter..adapters..zip..ZipImpl$LT$A$C$B$GT$$GT$3new17h6c7670a475a290c5E@4HA";
	.scl	3;
	.type	32;
	.endef
	.p2align	4, 0x90
"?dtor$1@?0?_ZN111_$LT$core..iter..adapters..zip..Zip$LT$A$C$B$GT$$u20$as$u20$core..iter..adapters..zip..ZipImpl$LT$A$C$B$GT$$GT$3new17h6c7670a475a290c5E@4HA":
.seh_proc "?dtor$1@?0?_ZN111_$LT$core..iter..adapters..zip..Zip$LT$A$C$B$GT$$u20$as$u20$core..iter..adapters..zip..ZipImpl$LT$A$C$B$GT$$GT$3new17h6c7670a475a290c5E@4HA"
.LBB5_1:
	movq	%rdx, 16(%rsp)
	pushq	%rbp
	.seh_pushreg %rbp
	pushq	%rsi
	.seh_pushreg %rsi
	subq	$40, %rsp
	.seh_stackalloc 40
	leaq	128(%rdx), %rbp
	.seh_endprologue
	.cv_loc	5 2 263 0
	addq	$40, %rsp
	popq	%rsi
	popq	%rbp
	retq
.Ltmp23:
.Lfunc_end5:
	.seh_handlerdata
	.section	.text,"xr",one_only,_ZN111_$LT$core..iter..adapters..zip..Zip$LT$A$C$B$GT$$u20$as$u20$core..iter..adapters..zip..ZipImpl$LT$A$C$B$GT$$GT$3new17h6c7670a475a290c5E
	.seh_endproc
	.section	.xdata,"dr",associative,_ZN111_$LT$core..iter..adapters..zip..Zip$LT$A$C$B$GT$$u20$as$u20$core..iter..adapters..zip..ZipImpl$LT$A$C$B$GT$$GT$3new17h6c7670a475a290c5E
	.p2align	2
$cppxdata$_ZN111_$LT$core..iter..adapters..zip..Zip$LT$A$C$B$GT$$u20$as$u20$core..iter..adapters..zip..ZipImpl$LT$A$C$B$GT$$GT$3new17h6c7670a475a290c5E:
	.long	429065506
	.long	1
	.long	($stateUnwindMap$_ZN111_$LT$core..iter..adapters..zip..Zip$LT$A$C$B$GT$$u20$as$u20$core..iter..adapters..zip..ZipImpl$LT$A$C$B$GT$$GT$3new17h6c7670a475a290c5E)@IMGREL
	.long	0
	.long	0
	.long	3
	.long	($ip2state$_ZN111_$LT$core..iter..adapters..zip..Zip$LT$A$C$B$GT$$u20$as$u20$core..iter..adapters..zip..ZipImpl$LT$A$C$B$GT$$GT$3new17h6c7670a475a290c5E)@IMGREL
	.long	128
	.long	0
	.long	1
$stateUnwindMap$_ZN111_$LT$core..iter..adapters..zip..Zip$LT$A$C$B$GT$$u20$as$u20$core..iter..adapters..zip..ZipImpl$LT$A$C$B$GT$$GT$3new17h6c7670a475a290c5E:
	.long	-1
	.long	"?dtor$1@?0?_ZN111_$LT$core..iter..adapters..zip..Zip$LT$A$C$B$GT$$u20$as$u20$core..iter..adapters..zip..ZipImpl$LT$A$C$B$GT$$GT$3new17h6c7670a475a290c5E@4HA"@IMGREL
$ip2state$_ZN111_$LT$core..iter..adapters..zip..Zip$LT$A$C$B$GT$$u20$as$u20$core..iter..adapters..zip..ZipImpl$LT$A$C$B$GT$$GT$3new17h6c7670a475a290c5E:
	.long	.Lfunc_begin5@IMGREL
	.long	-1
	.long	.Ltmp13@IMGREL+1
	.long	0
	.long	.Ltmp18@IMGREL+1
	.long	-1
	.section	.text,"xr",one_only,_ZN111_$LT$core..iter..adapters..zip..Zip$LT$A$C$B$GT$$u20$as$u20$core..iter..adapters..zip..ZipImpl$LT$A$C$B$GT$$GT$3new17h6c7670a475a290c5E

	.def	_ZN111_$LT$core..iter..adapters..zip..Zip$LT$A$C$B$GT$$u20$as$u20$core..iter..adapters..zip..ZipImpl$LT$A$C$B$GT$$GT$4next17heb9f899fb210dc57E;
	.scl	2;
	.type	32;
	.endef
	.section	.text,"xr",one_only,_ZN111_$LT$core..iter..adapters..zip..Zip$LT$A$C$B$GT$$u20$as$u20$core..iter..adapters..zip..ZipImpl$LT$A$C$B$GT$$GT$4next17heb9f899fb210dc57E
	.globl	_ZN111_$LT$core..iter..adapters..zip..Zip$LT$A$C$B$GT$$u20$as$u20$core..iter..adapters..zip..ZipImpl$LT$A$C$B$GT$$GT$4next17heb9f899fb210dc57E
	.p2align	4, 0x90
_ZN111_$LT$core..iter..adapters..zip..Zip$LT$A$C$B$GT$$u20$as$u20$core..iter..adapters..zip..ZipImpl$LT$A$C$B$GT$$GT$4next17heb9f899fb210dc57E:
.Lfunc_begin6:
	.cv_func_id 6
	.cv_loc	6 2 270 0
.seh_proc _ZN111_$LT$core..iter..adapters..zip..Zip$LT$A$C$B$GT$$u20$as$u20$core..iter..adapters..zip..ZipImpl$LT$A$C$B$GT$$GT$4next17heb9f899fb210dc57E
	.seh_handler __CxxFrameHandler3, @unwind, @except
	pushq	%rbp
	.seh_pushreg %rbp
	subq	$144, %rsp
	.seh_stackalloc 144
	leaq	128(%rsp), %rbp
	.seh_setframe %rbp, 128
	.seh_endprologue
	movq	$-2, 8(%rbp)
	movq	%rcx, -64(%rbp)
	movq	%rcx, -16(%rbp)
.Ltmp26:
	.cv_loc	6 2 271 0
	movq	32(%rcx), %rax
	cmpq	40(%rcx), %rax
	jb	.LBB6_2
	.cv_loc	6 2 280 0
	movb	$0, -17(%rbp)
	testb	$1, -17(%rbp)
	jne	.LBB6_7
	jmp	.LBB6_6
.LBB6_2:
	.cv_loc	6 2 272 0
	movq	-64(%rbp), %rcx
	movq	32(%rcx), %rdx
	movq	%rdx, -88(%rbp)
	movq	%rdx, -8(%rbp)
.Ltmp27:
	.cv_loc	6 2 275 0
	movq	32(%rcx), %rax
	incq	%rax
	movq	%rax, 32(%rcx)
	.cv_loc	6 2 278 0
	callq	_ZN91_$LT$core..slice..iter..Iter$LT$T$GT$$u20$as$u20$core..iter..traits..iterator..Iterator$GT$24__iterator_get_unchecked17h9b7cdf380546d218E
	movq	-64(%rbp), %rcx
	movq	-88(%rbp), %rdx
	movq	%rax, -80(%rbp)
	addq	$16, %rcx
.Ltmp24:
	callq	_ZN91_$LT$core..slice..iter..Iter$LT$T$GT$$u20$as$u20$core..iter..traits..iterator..Iterator$GT$24__iterator_get_unchecked17h9b7cdf380546d218E
.Ltmp25:
	movq	%rax, -72(%rbp)
	jmp	.LBB6_4
.LBB6_4:
	movq	-72(%rbp), %rax
	movq	-80(%rbp), %rcx
	movq	%rcx, -40(%rbp)
	movq	%rax, -32(%rbp)
	movq	-40(%rbp), %rcx
	movq	-32(%rbp), %rax
	movq	%rcx, -56(%rbp)
	movq	%rax, -48(%rbp)
.Ltmp28:
.LBB6_5:
	.cv_loc	6 2 294 0
	movq	-56(%rbp), %rax
	movq	-48(%rbp), %rdx
	addq	$144, %rsp
	popq	%rbp
	retq
.LBB6_6:
	.cv_loc	6 2 292 0
	movq	$0, -56(%rbp)
	.cv_loc	6 2 280 0
	jmp	.LBB6_8
.LBB6_7:
	.cv_loc	6 2 281 0
	movq	-64(%rbp), %rcx
	movq	32(%rcx), %rdx
	movq	%rdx, (%rbp)
.Ltmp29:
	.cv_loc	6 2 283 0
	movq	32(%rcx), %rax
	addq	$1, %rax
	movq	%rax, 32(%rcx)
	.cv_loc	6 2 284 0
	movq	40(%rcx), %rax
	addq	$1, %rax
	movq	%rax, 40(%rcx)
	.cv_loc	6 2 288 0
	callq	_ZN91_$LT$core..slice..iter..Iter$LT$T$GT$$u20$as$u20$core..iter..traits..iterator..Iterator$GT$24__iterator_get_unchecked17h9b7cdf380546d218E
	.cv_loc	6 2 290 0
	movq	$0, -56(%rbp)
.Ltmp30:
.LBB6_8:
	.cv_loc	6 2 271 0
	jmp	.LBB6_5
	.seh_handlerdata
	.long	($cppxdata$_ZN111_$LT$core..iter..adapters..zip..Zip$LT$A$C$B$GT$$u20$as$u20$core..iter..adapters..zip..ZipImpl$LT$A$C$B$GT$$GT$4next17heb9f899fb210dc57E)@IMGREL
	.section	.text,"xr",one_only,_ZN111_$LT$core..iter..adapters..zip..Zip$LT$A$C$B$GT$$u20$as$u20$core..iter..adapters..zip..ZipImpl$LT$A$C$B$GT$$GT$4next17heb9f899fb210dc57E
	.seh_endproc
	.def	"?dtor$3@?0?_ZN111_$LT$core..iter..adapters..zip..Zip$LT$A$C$B$GT$$u20$as$u20$core..iter..adapters..zip..ZipImpl$LT$A$C$B$GT$$GT$4next17heb9f899fb210dc57E@4HA";
	.scl	3;
	.type	32;
	.endef
	.p2align	4, 0x90
"?dtor$3@?0?_ZN111_$LT$core..iter..adapters..zip..Zip$LT$A$C$B$GT$$u20$as$u20$core..iter..adapters..zip..ZipImpl$LT$A$C$B$GT$$GT$4next17heb9f899fb210dc57E@4HA":
.seh_proc "?dtor$3@?0?_ZN111_$LT$core..iter..adapters..zip..Zip$LT$A$C$B$GT$$u20$as$u20$core..iter..adapters..zip..ZipImpl$LT$A$C$B$GT$$GT$4next17heb9f899fb210dc57E@4HA"
.LBB6_3:
	movq	%rdx, 16(%rsp)
	pushq	%rbp
	.seh_pushreg %rbp
	subq	$32, %rsp
	.seh_stackalloc 32
	leaq	128(%rdx), %rbp
	.seh_endprologue
	.cv_loc	6 2 270 0
	addq	$32, %rsp
	popq	%rbp
	retq
.Ltmp31:
.Lfunc_end6:
	.seh_handlerdata
	.section	.text,"xr",one_only,_ZN111_$LT$core..iter..adapters..zip..Zip$LT$A$C$B$GT$$u20$as$u20$core..iter..adapters..zip..ZipImpl$LT$A$C$B$GT$$GT$4next17heb9f899fb210dc57E
	.seh_endproc
	.section	.xdata,"dr",associative,_ZN111_$LT$core..iter..adapters..zip..Zip$LT$A$C$B$GT$$u20$as$u20$core..iter..adapters..zip..ZipImpl$LT$A$C$B$GT$$GT$4next17heb9f899fb210dc57E
	.p2align	2
$cppxdata$_ZN111_$LT$core..iter..adapters..zip..Zip$LT$A$C$B$GT$$u20$as$u20$core..iter..adapters..zip..ZipImpl$LT$A$C$B$GT$$GT$4next17heb9f899fb210dc57E:
	.long	429065506
	.long	1
	.long	($stateUnwindMap$_ZN111_$LT$core..iter..adapters..zip..Zip$LT$A$C$B$GT$$u20$as$u20$core..iter..adapters..zip..ZipImpl$LT$A$C$B$GT$$GT$4next17heb9f899fb210dc57E)@IMGREL
	.long	0
	.long	0
	.long	3
	.long	($ip2state$_ZN111_$LT$core..iter..adapters..zip..Zip$LT$A$C$B$GT$$u20$as$u20$core..iter..adapters..zip..ZipImpl$LT$A$C$B$GT$$GT$4next17heb9f899fb210dc57E)@IMGREL
	.long	136
	.long	0
	.long	1
$stateUnwindMap$_ZN111_$LT$core..iter..adapters..zip..Zip$LT$A$C$B$GT$$u20$as$u20$core..iter..adapters..zip..ZipImpl$LT$A$C$B$GT$$GT$4next17heb9f899fb210dc57E:
	.long	-1
	.long	"?dtor$3@?0?_ZN111_$LT$core..iter..adapters..zip..Zip$LT$A$C$B$GT$$u20$as$u20$core..iter..adapters..zip..ZipImpl$LT$A$C$B$GT$$GT$4next17heb9f899fb210dc57E@4HA"@IMGREL
$ip2state$_ZN111_$LT$core..iter..adapters..zip..Zip$LT$A$C$B$GT$$u20$as$u20$core..iter..adapters..zip..ZipImpl$LT$A$C$B$GT$$GT$4next17heb9f899fb210dc57E:
	.long	.Lfunc_begin6@IMGREL
	.long	-1
	.long	.Ltmp24@IMGREL+1
	.long	0
	.long	.Ltmp25@IMGREL+1
	.long	-1
	.section	.text,"xr",one_only,_ZN111_$LT$core..iter..adapters..zip..Zip$LT$A$C$B$GT$$u20$as$u20$core..iter..adapters..zip..ZipImpl$LT$A$C$B$GT$$GT$4next17heb9f899fb210dc57E

	.def	_ZN42_$LT$$RF$T$u20$as$u20$core..fmt..Debug$GT$3fmt17h5720c67ce515e36dE;
	.scl	2;
	.type	32;
	.endef
	.section	.text,"xr",one_only,_ZN42_$LT$$RF$T$u20$as$u20$core..fmt..Debug$GT$3fmt17h5720c67ce515e36dE
	.globl	_ZN42_$LT$$RF$T$u20$as$u20$core..fmt..Debug$GT$3fmt17h5720c67ce515e36dE
	.p2align	4, 0x90
_ZN42_$LT$$RF$T$u20$as$u20$core..fmt..Debug$GT$3fmt17h5720c67ce515e36dE:
.Lfunc_begin7:
	.cv_func_id 7
	.cv_file	5 "/rustc/fe5b13d681f25ee6474be29d748c65adcd91f69e\\library\\core\\src\\fmt\\mod.rs" "53D767895F97F3A48E29B8ED9E15C5E6ED06159A" 2
	.cv_loc	7 5 2132 0
.seh_proc _ZN42_$LT$$RF$T$u20$as$u20$core..fmt..Debug$GT$3fmt17h5720c67ce515e36dE
	subq	$56, %rsp
	.seh_stackalloc 56
	.seh_endprologue
	movq	%rcx, 40(%rsp)
	movq	%rdx, 48(%rsp)
.Ltmp32:
	movq	(%rcx), %rcx
	callq	_ZN47_$LT$log..Level$u20$as$u20$core..fmt..Debug$GT$3fmt17h90a2c755dc62e880E
	movb	%al, 39(%rsp)
	movb	39(%rsp), %al
	andb	$1, %al
	movzbl	%al, %eax
	addq	$56, %rsp
	retq
.Ltmp33:
.Lfunc_end7:
	.seh_endproc

	.def	_ZN42_$LT$$RF$T$u20$as$u20$core..fmt..Debug$GT$3fmt17h635d9539efd5e570E;
	.scl	2;
	.type	32;
	.endef
	.section	.text,"xr",one_only,_ZN42_$LT$$RF$T$u20$as$u20$core..fmt..Debug$GT$3fmt17h635d9539efd5e570E
	.globl	_ZN42_$LT$$RF$T$u20$as$u20$core..fmt..Debug$GT$3fmt17h635d9539efd5e570E
	.p2align	4, 0x90
_ZN42_$LT$$RF$T$u20$as$u20$core..fmt..Debug$GT$3fmt17h635d9539efd5e570E:
.Lfunc_begin8:
	.cv_func_id 8
	.cv_loc	8 5 2132 0
.seh_proc _ZN42_$LT$$RF$T$u20$as$u20$core..fmt..Debug$GT$3fmt17h635d9539efd5e570E
	subq	$56, %rsp
	.seh_stackalloc 56
	.seh_endprologue
	movq	%rdx, %r8
	movq	%rcx, %rax
	movq	%rax, 40(%rsp)
	movq	%r8, 48(%rsp)
.Ltmp34:
	movq	(%rax), %rcx
	movq	8(%rax), %rdx
	callq	_ZN40_$LT$str$u20$as$u20$core..fmt..Debug$GT$3fmt17hfdb349b233e9102fE
	movb	%al, 39(%rsp)
	movb	39(%rsp), %al
	andb	$1, %al
	movzbl	%al, %eax
	addq	$56, %rsp
	retq
.Ltmp35:
.Lfunc_end8:
	.seh_endproc

	.def	_ZN42_$LT$$RF$T$u20$as$u20$core..fmt..Debug$GT$3fmt17h6468a82795828303E;
	.scl	2;
	.type	32;
	.endef
	.section	.text,"xr",one_only,_ZN42_$LT$$RF$T$u20$as$u20$core..fmt..Debug$GT$3fmt17h6468a82795828303E
	.globl	_ZN42_$LT$$RF$T$u20$as$u20$core..fmt..Debug$GT$3fmt17h6468a82795828303E
	.p2align	4, 0x90
_ZN42_$LT$$RF$T$u20$as$u20$core..fmt..Debug$GT$3fmt17h6468a82795828303E:
.Lfunc_begin9:
	.cv_func_id 9
	.cv_loc	9 5 2132 0
.seh_proc _ZN42_$LT$$RF$T$u20$as$u20$core..fmt..Debug$GT$3fmt17h6468a82795828303E
	subq	$56, %rsp
	.seh_stackalloc 56
	.seh_endprologue
	movq	%rcx, 40(%rsp)
	movq	%rdx, 48(%rsp)
.Ltmp36:
	movq	(%rcx), %rcx
	callq	_ZN42_$LT$$RF$T$u20$as$u20$core..fmt..Debug$GT$3fmt17h635d9539efd5e570E
	movb	%al, 39(%rsp)
	movb	39(%rsp), %al
	andb	$1, %al
	movzbl	%al, %eax
	addq	$56, %rsp
	retq
.Ltmp37:
.Lfunc_end9:
	.seh_endproc

	.def	_ZN42_$LT$$RF$T$u20$as$u20$core..fmt..Debug$GT$3fmt17h670df0a7a56edc72E;
	.scl	2;
	.type	32;
	.endef
	.section	.text,"xr",one_only,_ZN42_$LT$$RF$T$u20$as$u20$core..fmt..Debug$GT$3fmt17h670df0a7a56edc72E
	.globl	_ZN42_$LT$$RF$T$u20$as$u20$core..fmt..Debug$GT$3fmt17h670df0a7a56edc72E
	.p2align	4, 0x90
_ZN42_$LT$$RF$T$u20$as$u20$core..fmt..Debug$GT$3fmt17h670df0a7a56edc72E:
.Lfunc_begin10:
	.cv_func_id 10
	.cv_loc	10 5 2132 0
.seh_proc _ZN42_$LT$$RF$T$u20$as$u20$core..fmt..Debug$GT$3fmt17h670df0a7a56edc72E
	subq	$56, %rsp
	.seh_stackalloc 56
	.seh_endprologue
	movq	%rcx, 40(%rsp)
	movq	%rdx, 48(%rsp)
.Ltmp38:
	movq	(%rcx), %rcx
	callq	_ZN66_$LT$core..option..Option$LT$T$GT$$u20$as$u20$core..fmt..Debug$GT$3fmt17ha4e9676efdeb7e64E
	movb	%al, 39(%rsp)
	movb	39(%rsp), %al
	andb	$1, %al
	movzbl	%al, %eax
	addq	$56, %rsp
	retq
.Ltmp39:
.Lfunc_end10:
	.seh_endproc

	.def	_ZN42_$LT$$RF$T$u20$as$u20$core..fmt..Debug$GT$3fmt17h7c4cebf3c1817e2cE;
	.scl	2;
	.type	32;
	.endef
	.section	.text,"xr",one_only,_ZN42_$LT$$RF$T$u20$as$u20$core..fmt..Debug$GT$3fmt17h7c4cebf3c1817e2cE
	.globl	_ZN42_$LT$$RF$T$u20$as$u20$core..fmt..Debug$GT$3fmt17h7c4cebf3c1817e2cE
	.p2align	4, 0x90
_ZN42_$LT$$RF$T$u20$as$u20$core..fmt..Debug$GT$3fmt17h7c4cebf3c1817e2cE:
.Lfunc_begin11:
	.cv_func_id 11
	.cv_loc	11 5 2132 0
.seh_proc _ZN42_$LT$$RF$T$u20$as$u20$core..fmt..Debug$GT$3fmt17h7c4cebf3c1817e2cE
	subq	$56, %rsp
	.seh_stackalloc 56
	.seh_endprologue
	movq	%rcx, 40(%rsp)
	movq	%rdx, 48(%rsp)
.Ltmp40:
	movq	(%rcx), %rcx
	callq	_ZN48_$LT$log..Record$u20$as$u20$core..fmt..Debug$GT$3fmt17h106448032abf377aE
	movb	%al, 39(%rsp)
	movb	39(%rsp), %al
	andb	$1, %al
	movzbl	%al, %eax
	addq	$56, %rsp
	retq
.Ltmp41:
.Lfunc_end11:
	.seh_endproc

	.def	_ZN42_$LT$$RF$T$u20$as$u20$core..fmt..Debug$GT$3fmt17h83a1dc77a29aa15fE;
	.scl	2;
	.type	32;
	.endef
	.section	.text,"xr",one_only,_ZN42_$LT$$RF$T$u20$as$u20$core..fmt..Debug$GT$3fmt17h83a1dc77a29aa15fE
	.globl	_ZN42_$LT$$RF$T$u20$as$u20$core..fmt..Debug$GT$3fmt17h83a1dc77a29aa15fE
	.p2align	4, 0x90
_ZN42_$LT$$RF$T$u20$as$u20$core..fmt..Debug$GT$3fmt17h83a1dc77a29aa15fE:
.Lfunc_begin12:
	.cv_func_id 12
	.cv_loc	12 5 2132 0
.seh_proc _ZN42_$LT$$RF$T$u20$as$u20$core..fmt..Debug$GT$3fmt17h83a1dc77a29aa15fE
	subq	$56, %rsp
	.seh_stackalloc 56
	.seh_endprologue
	movq	%rcx, 40(%rsp)
	movq	%rdx, 48(%rsp)
.Ltmp42:
	movq	(%rcx), %rcx
	callq	_ZN57_$LT$core..fmt..Arguments$u20$as$u20$core..fmt..Debug$GT$3fmt17h91f4b89cc299c20eE
	movb	%al, 39(%rsp)
	movb	39(%rsp), %al
	andb	$1, %al
	movzbl	%al, %eax
	addq	$56, %rsp
	retq
.Ltmp43:
.Lfunc_end12:
	.seh_endproc

	.def	_ZN42_$LT$$RF$T$u20$as$u20$core..fmt..Debug$GT$3fmt17h938cb10cb95e9a94E;
	.scl	2;
	.type	32;
	.endef
	.section	.text,"xr",one_only,_ZN42_$LT$$RF$T$u20$as$u20$core..fmt..Debug$GT$3fmt17h938cb10cb95e9a94E
	.globl	_ZN42_$LT$$RF$T$u20$as$u20$core..fmt..Debug$GT$3fmt17h938cb10cb95e9a94E
	.p2align	4, 0x90
_ZN42_$LT$$RF$T$u20$as$u20$core..fmt..Debug$GT$3fmt17h938cb10cb95e9a94E:
.Lfunc_begin13:
	.cv_func_id 13
	.cv_loc	13 5 2132 0
.seh_proc _ZN42_$LT$$RF$T$u20$as$u20$core..fmt..Debug$GT$3fmt17h938cb10cb95e9a94E
	subq	$56, %rsp
	.seh_stackalloc 56
	.seh_endprologue
	movq	%rcx, 40(%rsp)
	movq	%rdx, 48(%rsp)
.Ltmp44:
	movq	(%rcx), %rcx
	callq	_ZN45_$LT$$LP$$RP$$u20$as$u20$core..fmt..Debug$GT$3fmt17h7b5684130a2afd0aE
	movb	%al, 39(%rsp)
	movb	39(%rsp), %al
	andb	$1, %al
	movzbl	%al, %eax
	addq	$56, %rsp
	retq
.Ltmp45:
.Lfunc_end13:
	.seh_endproc

	.def	_ZN42_$LT$$RF$T$u20$as$u20$core..fmt..Debug$GT$3fmt17hc2689975728b25ecE;
	.scl	2;
	.type	32;
	.endef
	.section	.text,"xr",one_only,_ZN42_$LT$$RF$T$u20$as$u20$core..fmt..Debug$GT$3fmt17hc2689975728b25ecE
	.globl	_ZN42_$LT$$RF$T$u20$as$u20$core..fmt..Debug$GT$3fmt17hc2689975728b25ecE
	.p2align	4, 0x90
_ZN42_$LT$$RF$T$u20$as$u20$core..fmt..Debug$GT$3fmt17hc2689975728b25ecE:
.Lfunc_begin14:
	.cv_func_id 14
	.cv_loc	14 5 2132 0
.seh_proc _ZN42_$LT$$RF$T$u20$as$u20$core..fmt..Debug$GT$3fmt17hc2689975728b25ecE
	subq	$56, %rsp
	.seh_stackalloc 56
	.seh_endprologue
	movq	%rcx, 40(%rsp)
	movq	%rdx, 48(%rsp)
.Ltmp46:
	movq	(%rcx), %rcx
	callq	_ZN50_$LT$log..Metadata$u20$as$u20$core..fmt..Debug$GT$3fmt17hec56975f196ff8b3E
	movb	%al, 39(%rsp)
	movb	39(%rsp), %al
	andb	$1, %al
	movzbl	%al, %eax
	addq	$56, %rsp
	retq
.Ltmp47:
.Lfunc_end14:
	.seh_endproc

	.def	_ZN42_$LT$$RF$T$u20$as$u20$core..fmt..Debug$GT$3fmt17hd6a548397533adacE;
	.scl	2;
	.type	32;
	.endef
	.section	.text,"xr",one_only,_ZN42_$LT$$RF$T$u20$as$u20$core..fmt..Debug$GT$3fmt17hd6a548397533adacE
	.globl	_ZN42_$LT$$RF$T$u20$as$u20$core..fmt..Debug$GT$3fmt17hd6a548397533adacE
	.p2align	4, 0x90
_ZN42_$LT$$RF$T$u20$as$u20$core..fmt..Debug$GT$3fmt17hd6a548397533adacE:
.Lfunc_begin15:
	.cv_func_id 15
	.cv_loc	15 5 2132 0
.seh_proc _ZN42_$LT$$RF$T$u20$as$u20$core..fmt..Debug$GT$3fmt17hd6a548397533adacE
	subq	$56, %rsp
	.seh_stackalloc 56
	.seh_endprologue
	movq	%rcx, 40(%rsp)
	movq	%rdx, 48(%rsp)
.Ltmp48:
	movq	(%rcx), %rcx
	callq	_ZN56_$LT$log..MaybeStaticStr$u20$as$u20$core..fmt..Debug$GT$3fmt17he01fb711f02a0cadE
	movb	%al, 39(%rsp)
	movb	39(%rsp), %al
	andb	$1, %al
	movzbl	%al, %eax
	addq	$56, %rsp
	retq
.Ltmp49:
.Lfunc_end15:
	.seh_endproc

	.def	_ZN42_$LT$$RF$T$u20$as$u20$core..fmt..Debug$GT$3fmt17hda7a981420d0ecfaE;
	.scl	2;
	.type	32;
	.endef
	.section	.text,"xr",one_only,_ZN42_$LT$$RF$T$u20$as$u20$core..fmt..Debug$GT$3fmt17hda7a981420d0ecfaE
	.globl	_ZN42_$LT$$RF$T$u20$as$u20$core..fmt..Debug$GT$3fmt17hda7a981420d0ecfaE
	.p2align	4, 0x90
_ZN42_$LT$$RF$T$u20$as$u20$core..fmt..Debug$GT$3fmt17hda7a981420d0ecfaE:
.Lfunc_begin16:
	.cv_func_id 16
	.cv_loc	16 5 2132 0
.seh_proc _ZN42_$LT$$RF$T$u20$as$u20$core..fmt..Debug$GT$3fmt17hda7a981420d0ecfaE
	subq	$56, %rsp
	.seh_stackalloc 56
	.seh_endprologue
	movq	%rcx, 40(%rsp)
	movq	%rdx, 48(%rsp)
.Ltmp50:
	movq	(%rcx), %rcx
	callq	_ZN66_$LT$core..option..Option$LT$T$GT$$u20$as$u20$core..fmt..Debug$GT$3fmt17hdee1f27fd344fb85E
	movb	%al, 39(%rsp)
	movb	39(%rsp), %al
	andb	$1, %al
	movzbl	%al, %eax
	addq	$56, %rsp
	retq
.Ltmp51:
.Lfunc_end16:
	.seh_endproc

	.def	_ZN42_$LT$$RF$T$u20$as$u20$core..fmt..Debug$GT$3fmt17hfc8f4514cf10c3c7E;
	.scl	2;
	.type	32;
	.endef
	.section	.text,"xr",one_only,_ZN42_$LT$$RF$T$u20$as$u20$core..fmt..Debug$GT$3fmt17hfc8f4514cf10c3c7E
	.globl	_ZN42_$LT$$RF$T$u20$as$u20$core..fmt..Debug$GT$3fmt17hfc8f4514cf10c3c7E
	.p2align	4, 0x90
_ZN42_$LT$$RF$T$u20$as$u20$core..fmt..Debug$GT$3fmt17hfc8f4514cf10c3c7E:
.Lfunc_begin17:
	.cv_func_id 17
	.cv_loc	17 5 2132 0
.seh_proc _ZN42_$LT$$RF$T$u20$as$u20$core..fmt..Debug$GT$3fmt17hfc8f4514cf10c3c7E
	subq	$56, %rsp
	.seh_stackalloc 56
	.seh_endprologue
	movq	%rcx, 40(%rsp)
	movq	%rdx, 48(%rsp)
.Ltmp52:
	movq	(%rcx), %rcx
	callq	_ZN4core3fmt3num50_$LT$impl$u20$core..fmt..Debug$u20$for$u20$u32$GT$3fmt17h4e6018afc9d77d60E
	movb	%al, 39(%rsp)
	movb	39(%rsp), %al
	andb	$1, %al
	movzbl	%al, %eax
	addq	$56, %rsp
	retq
.Ltmp53:
.Lfunc_end17:
	.seh_endproc

	.def	_ZN44_$LT$$RF$T$u20$as$u20$core..fmt..Display$GT$3fmt17h657ea7e77e8d9ae3E;
	.scl	2;
	.type	32;
	.endef
	.section	.text,"xr",one_only,_ZN44_$LT$$RF$T$u20$as$u20$core..fmt..Display$GT$3fmt17h657ea7e77e8d9ae3E
	.globl	_ZN44_$LT$$RF$T$u20$as$u20$core..fmt..Display$GT$3fmt17h657ea7e77e8d9ae3E
	.p2align	4, 0x90
_ZN44_$LT$$RF$T$u20$as$u20$core..fmt..Display$GT$3fmt17h657ea7e77e8d9ae3E:
.Lfunc_begin18:
	.cv_func_id 18
	.cv_loc	18 5 2132 0
.seh_proc _ZN44_$LT$$RF$T$u20$as$u20$core..fmt..Display$GT$3fmt17h657ea7e77e8d9ae3E
	subq	$56, %rsp
	.seh_stackalloc 56
	.seh_endprologue
	movq	%rdx, %r8
	movq	%rcx, %rax
	movq	%rax, 40(%rsp)
	movq	%r8, 48(%rsp)
.Ltmp54:
	movq	(%rax), %rcx
	movq	8(%rax), %rdx
	callq	_ZN42_$LT$str$u20$as$u20$core..fmt..Display$GT$3fmt17hef6abda0d36f4331E
	movb	%al, 39(%rsp)
	movb	39(%rsp), %al
	andb	$1, %al
	movzbl	%al, %eax
	addq	$56, %rsp
	retq
.Ltmp55:
.Lfunc_end18:
	.seh_endproc

	.def	_ZN45_$LT$$LP$$RP$$u20$as$u20$core..fmt..Debug$GT$3fmt17h7b5684130a2afd0aE;
	.scl	3;
	.type	32;
	.endef
	.section	.text,"xr",one_only,_ZN45_$LT$$LP$$RP$$u20$as$u20$core..fmt..Debug$GT$3fmt17h7b5684130a2afd0aE
	.p2align	4, 0x90
_ZN45_$LT$$LP$$RP$$u20$as$u20$core..fmt..Debug$GT$3fmt17h7b5684130a2afd0aE:
.Lfunc_begin19:
	.cv_func_id 19
	.cv_loc	19 5 2342 0
.seh_proc _ZN45_$LT$$LP$$RP$$u20$as$u20$core..fmt..Debug$GT$3fmt17h7b5684130a2afd0aE
	subq	$72, %rsp
	.seh_stackalloc 72
	.seh_endprologue
	movq	%rdx, 40(%rsp)
	movq	%rcx, %rax
	movq	40(%rsp), %rcx
	movq	%rax, 56(%rsp)
	movq	%rcx, 64(%rsp)
.Ltmp56:
	.cv_loc	19 5 2343 0
	leaq	__unnamed_1(%rip), %rdx
	movl	$2, %r8d
	callq	_ZN4core3fmt9Formatter3pad17h6b4a4ffd2509ab9bE
	movb	%al, 55(%rsp)
	.cv_loc	19 5 2344 0
	movb	55(%rsp), %al
	andb	$1, %al
	movzbl	%al, %eax
	addq	$72, %rsp
	retq
.Ltmp57:
.Lfunc_end19:
	.seh_endproc

	.def	_ZN4core3cmp3Ord3min17ha15fdb545e792345E;
	.scl	2;
	.type	32;
	.endef
	.section	.text,"xr",one_only,_ZN4core3cmp3Ord3min17ha15fdb545e792345E
	.globl	_ZN4core3cmp3Ord3min17ha15fdb545e792345E
	.p2align	4, 0x90
_ZN4core3cmp3Ord3min17ha15fdb545e792345E:
.Lfunc_begin20:
	.cv_func_id 20
	.cv_file	6 "/rustc/fe5b13d681f25ee6474be29d748c65adcd91f69e\\library\\core\\src\\cmp.rs" "3BBA0D80CFEFCEA18FD3EDB33BEC197BA5770FFC" 2
	.cv_loc	20 6 816 0
.seh_proc _ZN4core3cmp3Ord3min17ha15fdb545e792345E
	subq	$56, %rsp
	.seh_stackalloc 56
	.seh_endprologue
	movq	%rcx, 40(%rsp)
	movq	%rdx, 48(%rsp)
.Ltmp58:
	.cv_loc	20 6 820 0
	callq	_ZN4core3cmp6min_by17he3006e80fe739e35E
	movq	%rax, 32(%rsp)
	.cv_loc	20 6 821 0
	movq	32(%rsp), %rax
	addq	$56, %rsp
	retq
.Ltmp59:
.Lfunc_end20:
	.seh_endproc

	.def	_ZN4core3cmp3min17h31c7416b5b0ce311E;
	.scl	2;
	.type	32;
	.endef
	.section	.text,"xr",one_only,_ZN4core3cmp3min17h31c7416b5b0ce311E
	.globl	_ZN4core3cmp3min17h31c7416b5b0ce311E
	.p2align	4, 0x90
_ZN4core3cmp3min17h31c7416b5b0ce311E:
.Lfunc_begin21:
	.cv_func_id 21
	.cv_loc	21 6 1194 0
.seh_proc _ZN4core3cmp3min17h31c7416b5b0ce311E
	subq	$56, %rsp
	.seh_stackalloc 56
	.seh_endprologue
	movq	%rcx, 40(%rsp)
	movq	%rdx, 48(%rsp)
.Ltmp60:
	.cv_loc	21 6 1195 0
	callq	_ZN4core3cmp3Ord3min17ha15fdb545e792345E
	movq	%rax, 32(%rsp)
	.cv_loc	21 6 1196 0
	movq	32(%rsp), %rax
	addq	$56, %rsp
	retq
.Ltmp61:
.Lfunc_end21:
	.seh_endproc

	.def	_ZN4core3cmp5impls50_$LT$impl$u20$core..cmp..Ord$u20$for$u20$usize$GT$3cmp17hd007dc599714b83aE;
	.scl	3;
	.type	32;
	.endef
	.section	.text,"xr",one_only,_ZN4core3cmp5impls50_$LT$impl$u20$core..cmp..Ord$u20$for$u20$usize$GT$3cmp17hd007dc599714b83aE
	.p2align	4, 0x90
_ZN4core3cmp5impls50_$LT$impl$u20$core..cmp..Ord$u20$for$u20$usize$GT$3cmp17hd007dc599714b83aE:
.Lfunc_begin22:
	.cv_func_id 22
	.cv_loc	22 6 1408 0
.seh_proc _ZN4core3cmp5impls50_$LT$impl$u20$core..cmp..Ord$u20$for$u20$usize$GT$3cmp17hd007dc599714b83aE
	subq	$40, %rsp
	.seh_stackalloc 40
	.seh_endprologue
	movq	%rdx, (%rsp)
	movq	%rcx, 8(%rsp)
	movq	%rcx, 24(%rsp)
	movq	%rdx, 32(%rsp)
.Ltmp62:
	.cv_loc	22 6 1411 0
	movq	(%rcx), %rax
	cmpq	(%rdx), %rax
	jb	.LBB22_2
	.cv_loc	22 6 1412 0
	movq	(%rsp), %rcx
	movq	8(%rsp), %rax
	movq	(%rax), %rax
	cmpq	(%rcx), %rax
	je	.LBB22_5
	jmp	.LBB22_4
.LBB22_2:
	.cv_loc	22 6 1411 0
	movb	$-1, 23(%rsp)
.LBB22_3:
	.cv_loc	22 6 1414 0
	movb	23(%rsp), %al
	addq	$40, %rsp
	retq
.LBB22_4:
	.cv_loc	22 6 1413 0
	movb	$1, 23(%rsp)
	.cv_loc	22 6 1412 0
	jmp	.LBB22_6
.LBB22_5:
	movb	$0, 23(%rsp)
.LBB22_6:
	.cv_loc	22 6 1411 0
	jmp	.LBB22_3
.Ltmp63:
.Lfunc_end22:
	.seh_endproc

	.def	_ZN4core3cmp5impls59_$LT$impl$u20$core..cmp..PartialEq$u20$for$u20$$LP$$RP$$GT$2eq17h2cd55a9bf01bc729E;
	.scl	3;
	.type	32;
	.endef
	.section	.text,"xr",one_only,_ZN4core3cmp5impls59_$LT$impl$u20$core..cmp..PartialEq$u20$for$u20$$LP$$RP$$GT$2eq17h2cd55a9bf01bc729E
	.p2align	4, 0x90
_ZN4core3cmp5impls59_$LT$impl$u20$core..cmp..PartialEq$u20$for$u20$$LP$$RP$$GT$2eq17h2cd55a9bf01bc729E:
.Lfunc_begin23:
	.cv_func_id 23
	.cv_loc	23 6 1322 0
.seh_proc _ZN4core3cmp5impls59_$LT$impl$u20$core..cmp..PartialEq$u20$for$u20$$LP$$RP$$GT$2eq17h2cd55a9bf01bc729E
	subq	$16, %rsp
	.seh_stackalloc 16
	.seh_endprologue
	movq	%rcx, (%rsp)
	movq	%rdx, 8(%rsp)
.Ltmp64:
	.cv_loc	23 6 1324 0
	movb	$1, %al
	andb	$1, %al
	movzbl	%al, %eax
	addq	$16, %rsp
	retq
.Ltmp65:
.Lfunc_end23:
	.seh_endproc

	.def	_ZN4core3cmp6min_by17he3006e80fe739e35E;
	.scl	2;
	.type	32;
	.endef
	.section	.text,"xr",one_only,_ZN4core3cmp6min_by17he3006e80fe739e35E
	.globl	_ZN4core3cmp6min_by17he3006e80fe739e35E
	.p2align	4, 0x90
_ZN4core3cmp6min_by17he3006e80fe739e35E:
.Lfunc_begin24:
	.cv_func_id 24
	.cv_loc	24 6 1213 0
.seh_proc _ZN4core3cmp6min_by17he3006e80fe739e35E
	.seh_handler __CxxFrameHandler3, @unwind, @except
	pushq	%rbp
	.seh_pushreg %rbp
	subq	$112, %rsp
	.seh_stackalloc 112
	leaq	112(%rsp), %rbp
	.seh_setframe %rbp, 112
	.seh_endprologue
	movq	$-2, -8(%rbp)
	movq	%rcx, -64(%rbp)
	movq	%rdx, -56(%rbp)
.Ltmp68:
	.cv_loc	24 6 1214 0
	movb	$0, -9(%rbp)
	movb	$0, -10(%rbp)
	movb	$1, -9(%rbp)
	movb	$1, -10(%rbp)
	leaq	-64(%rbp), %rax
	movq	%rax, -32(%rbp)
	leaq	-56(%rbp), %rax
	movq	%rax, -24(%rbp)
	movq	-32(%rbp), %rcx
	movq	-24(%rbp), %rdx
.Ltmp66:
	callq	_ZN4core3ops8function6FnOnce9call_once17h2f55dcb0c32030a7E
.Ltmp67:
	movb	%al, -65(%rbp)
	jmp	.LBB24_2
.LBB24_2:
	movb	-65(%rbp), %al
	movb	%al, -33(%rbp)
	movb	-33(%rbp), %al
	incb	%al
	subb	$2, %al
	jb	.LBB24_5
	jmp	.LBB24_14
.LBB24_14:
	jmp	.LBB24_6
	ud2
.LBB24_5:
	.cv_loc	24 6 1215 0
	movb	$0, -9(%rbp)
	movq	-64(%rbp), %rax
	movq	%rax, -48(%rbp)
	jmp	.LBB24_7
.LBB24_6:
	.cv_loc	24 6 1216 0
	movb	$0, -10(%rbp)
	movq	-56(%rbp), %rax
	movq	%rax, -48(%rbp)
.LBB24_7:
	.cv_loc	24 6 1218 0
	testb	$1, -10(%rbp)
	jne	.LBB24_9
.LBB24_8:
	testb	$1, -9(%rbp)
	jne	.LBB24_13
	jmp	.LBB24_12
.LBB24_9:
	jmp	.LBB24_8
.LBB24_12:
	movq	-48(%rbp), %rax
	addq	$112, %rsp
	popq	%rbp
	retq
.LBB24_13:
	jmp	.LBB24_12
	.seh_handlerdata
	.long	($cppxdata$_ZN4core3cmp6min_by17he3006e80fe739e35E)@IMGREL
	.section	.text,"xr",one_only,_ZN4core3cmp6min_by17he3006e80fe739e35E
	.seh_endproc
	.def	"?dtor$1@?0?_ZN4core3cmp6min_by17he3006e80fe739e35E@4HA";
	.scl	3;
	.type	32;
	.endef
	.p2align	4, 0x90
"?dtor$1@?0?_ZN4core3cmp6min_by17he3006e80fe739e35E@4HA":
.seh_proc "?dtor$1@?0?_ZN4core3cmp6min_by17he3006e80fe739e35E@4HA"
.LBB24_1:
	movq	%rdx, 16(%rsp)
	pushq	%rbp
	.seh_pushreg %rbp
	subq	$32, %rsp
	.seh_stackalloc 32
	leaq	112(%rdx), %rbp
	.seh_endprologue
	addq	$32, %rsp
	popq	%rbp
	retq
	.seh_handlerdata
	.section	.text,"xr",one_only,_ZN4core3cmp6min_by17he3006e80fe739e35E
	.seh_endproc
	.def	"?dtor$3@?0?_ZN4core3cmp6min_by17he3006e80fe739e35E@4HA";
	.scl	3;
	.type	32;
	.endef
	.p2align	4, 0x90
"?dtor$3@?0?_ZN4core3cmp6min_by17he3006e80fe739e35E@4HA":
.seh_proc "?dtor$3@?0?_ZN4core3cmp6min_by17he3006e80fe739e35E@4HA"
.LBB24_3:
	movq	%rdx, 16(%rsp)
	pushq	%rbp
	.seh_pushreg %rbp
	subq	$32, %rsp
	.seh_stackalloc 32
	leaq	112(%rdx), %rbp
	.seh_endprologue
	testb	$1, -9(%rbp)
	jne	.LBB24_11
	jmp	.LBB24_10
.LBB24_10:
	.cv_loc	24 6 1213 0
	addq	$32, %rsp
	popq	%rbp
	retq
.LBB24_11:
	.cv_loc	24 6 1218 0
	jmp	.LBB24_10
.Ltmp69:
.Lfunc_end24:
	.seh_handlerdata
	.section	.text,"xr",one_only,_ZN4core3cmp6min_by17he3006e80fe739e35E
	.seh_endproc
	.section	.xdata,"dr",associative,_ZN4core3cmp6min_by17he3006e80fe739e35E
	.p2align	2
$cppxdata$_ZN4core3cmp6min_by17he3006e80fe739e35E:
	.long	429065506
	.long	2
	.long	($stateUnwindMap$_ZN4core3cmp6min_by17he3006e80fe739e35E)@IMGREL
	.long	0
	.long	0
	.long	3
	.long	($ip2state$_ZN4core3cmp6min_by17he3006e80fe739e35E)@IMGREL
	.long	104
	.long	0
	.long	1
$stateUnwindMap$_ZN4core3cmp6min_by17he3006e80fe739e35E:
	.long	-1
	.long	"?dtor$3@?0?_ZN4core3cmp6min_by17he3006e80fe739e35E@4HA"@IMGREL
	.long	0
	.long	"?dtor$1@?0?_ZN4core3cmp6min_by17he3006e80fe739e35E@4HA"@IMGREL
$ip2state$_ZN4core3cmp6min_by17he3006e80fe739e35E:
	.long	.Lfunc_begin24@IMGREL
	.long	-1
	.long	.Ltmp66@IMGREL+1
	.long	1
	.long	.Ltmp67@IMGREL+1
	.long	-1
	.section	.text,"xr",one_only,_ZN4core3cmp6min_by17he3006e80fe739e35E

	.def	_ZN4core3fmt10ArgumentV111new_display17hd6612502856238ccE;
	.scl	2;
	.type	32;
	.endef
	.section	.text,"xr",one_only,_ZN4core3fmt10ArgumentV111new_display17hd6612502856238ccE
	.globl	_ZN4core3fmt10ArgumentV111new_display17hd6612502856238ccE
	.p2align	4, 0x90
_ZN4core3fmt10ArgumentV111new_display17hd6612502856238ccE:
.Lfunc_begin25:
	.cv_func_id 25
	.cv_loc	25 5 316 0
.seh_proc _ZN4core3fmt10ArgumentV111new_display17hd6612502856238ccE
	subq	$56, %rsp
	.seh_stackalloc 56
	.seh_endprologue
	movq	%rcx, 48(%rsp)
.Ltmp70:
	.cv_loc	25 5 317 0
	leaq	_ZN44_$LT$$RF$T$u20$as$u20$core..fmt..Display$GT$3fmt17h657ea7e77e8d9ae3E(%rip), %rdx
	callq	_ZN4core3fmt10ArgumentV13new17hf6f256da44afe27bE
	movq	%rax, 32(%rsp)
	movq	%rdx, 40(%rsp)
	.cv_loc	25 5 318 0
	movq	40(%rsp), %rdx
	movq	32(%rsp), %rax
	addq	$56, %rsp
	retq
.Ltmp71:
.Lfunc_end25:
	.seh_endproc

	.def	_ZN4core3fmt10ArgumentV13new17hf6f256da44afe27bE;
	.scl	2;
	.type	32;
	.endef
	.section	.text,"xr",one_only,_ZN4core3fmt10ArgumentV13new17hf6f256da44afe27bE
	.globl	_ZN4core3fmt10ArgumentV13new17hf6f256da44afe27bE
	.p2align	4, 0x90
_ZN4core3fmt10ArgumentV13new17hf6f256da44afe27bE:
.Lfunc_begin26:
	.cv_func_id 26
	.cv_loc	26 5 326 0
.seh_proc _ZN4core3fmt10ArgumentV13new17hf6f256da44afe27bE
	subq	$72, %rsp
	.seh_stackalloc 72
	.seh_endprologue
	movq	%rcx, 8(%rsp)
	movq	%rcx, 40(%rsp)
	movq	%rdx, 48(%rsp)
.Ltmp72:
	.cv_loc	26 5 335 0
	movq	%rdx, 56(%rsp)
	movq	56(%rsp), %rax
	movq	%rax, 16(%rsp)
	movq	8(%rsp), %rax
	movq	%rax, 64(%rsp)
	movq	64(%rsp), %rax
	movq	%rax, (%rsp)
	movq	16(%rsp), %rax
	movq	(%rsp), %rcx
	movq	%rcx, 24(%rsp)
	movq	%rax, 32(%rsp)
	.cv_loc	26 5 336 0
	movq	24(%rsp), %rax
	movq	32(%rsp), %rdx
	addq	$72, %rsp
	retq
.Ltmp73:
.Lfunc_end26:
	.seh_endproc

	.def	_ZN4core3fmt3num50_$LT$impl$u20$core..fmt..Debug$u20$for$u20$u32$GT$3fmt17h4e6018afc9d77d60E;
	.scl	3;
	.type	32;
	.endef
	.section	.text,"xr",one_only,_ZN4core3fmt3num50_$LT$impl$u20$core..fmt..Debug$u20$for$u20$u32$GT$3fmt17h4e6018afc9d77d60E
	.p2align	4, 0x90
_ZN4core3fmt3num50_$LT$impl$u20$core..fmt..Debug$u20$for$u20$u32$GT$3fmt17h4e6018afc9d77d60E:
.Lfunc_begin27:
	.cv_func_id 27
	.cv_file	7 "/rustc/fe5b13d681f25ee6474be29d748c65adcd91f69e\\library\\core\\src\\fmt\\num.rs" "D4FDA2C0F9393AECE605220F774CD65DF055FF49" 2
	.cv_loc	27 7 185 0
.seh_proc _ZN4core3fmt3num50_$LT$impl$u20$core..fmt..Debug$u20$for$u20$u32$GT$3fmt17h4e6018afc9d77d60E
	subq	$88, %rsp
	.seh_stackalloc 88
	.seh_endprologue
	movq	%rdx, 48(%rsp)
	movq	%rcx, %rax
	movq	48(%rsp), %rcx
	movq	%rax, 56(%rsp)
	movq	%rax, 72(%rsp)
	movq	%rcx, 80(%rsp)
.Ltmp74:
	.cv_loc	27 7 186 0
	callq	_ZN4core3fmt9Formatter15debug_lower_hex17hcee18a105e6e191fE
	movb	%al, 70(%rsp)
	movb	70(%rsp), %al
	testb	$1, %al
	jne	.LBB27_3
	jmp	.LBB27_2
.LBB27_2:
	.cv_loc	27 7 188 0
	movq	48(%rsp), %rcx
	callq	_ZN4core3fmt9Formatter15debug_upper_hex17h5dcb6e421d255653E
	movb	%al, 47(%rsp)
	jmp	.LBB27_6
.LBB27_3:
	.cv_loc	27 7 187 0
	movq	48(%rsp), %rdx
	movq	56(%rsp), %rcx
	callq	_ZN4core3fmt3num53_$LT$impl$u20$core..fmt..LowerHex$u20$for$u20$u32$GT$3fmt17hab6b0ef3266fb03dE
	andb	$1, %al
	movb	%al, 71(%rsp)
	.cv_loc	27 7 186 0
	jmp	.LBB27_5
.LBB27_5:
	.cv_loc	27 7 193 0
	movb	71(%rsp), %al
	andb	$1, %al
	movzbl	%al, %eax
	addq	$88, %rsp
	retq
.LBB27_6:
	.cv_loc	27 7 188 0
	movb	47(%rsp), %al
	testb	$1, %al
	jne	.LBB27_8
	jmp	.LBB27_7
.LBB27_7:
	.cv_loc	27 7 191 0
	movq	48(%rsp), %rdx
	movq	56(%rsp), %rcx
	callq	_ZN4core3fmt3num3imp52_$LT$impl$u20$core..fmt..Display$u20$for$u20$u32$GT$3fmt17hf4ca15ad15c17335E
	andb	$1, %al
	movb	%al, 71(%rsp)
	jmp	.LBB27_11
.LBB27_8:
	.cv_loc	27 7 189 0
	movq	48(%rsp), %rdx
	movq	56(%rsp), %rcx
	callq	_ZN4core3fmt3num53_$LT$impl$u20$core..fmt..UpperHex$u20$for$u20$u32$GT$3fmt17h7596e60ace34c1e5E
	andb	$1, %al
	movb	%al, 71(%rsp)
	.cv_loc	27 7 188 0
	jmp	.LBB27_10
.LBB27_10:
	.cv_loc	27 7 186 0
	jmp	.LBB27_5
.LBB27_11:
	.cv_loc	27 7 188 0
	jmp	.LBB27_10
.Ltmp75:
.Lfunc_end27:
	.seh_endproc

	.def	_ZN4core3fmt9Arguments6new_v117h68c9a4aeb67fe82bE;
	.scl	3;
	.type	32;
	.endef
	.section	.text,"xr",one_only,_ZN4core3fmt9Arguments6new_v117h68c9a4aeb67fe82bE
	.p2align	4, 0x90
_ZN4core3fmt9Arguments6new_v117h68c9a4aeb67fe82bE:
.Lfunc_begin28:
	.cv_func_id 28
	.cv_loc	28 5 387 0
.seh_proc _ZN4core3fmt9Arguments6new_v117h68c9a4aeb67fe82bE
	subq	$200, %rsp
	.seh_stackalloc 200
	.seh_endprologue
	movq	%r9, 48(%rsp)
	movq	%r8, 56(%rsp)
	movq	%rdx, 64(%rsp)
	movq	%rcx, 72(%rsp)
	movq	%rcx, 80(%rsp)
	movq	240(%rsp), %rax
	movq	%rax, 88(%rsp)
	movq	%rdx, 168(%rsp)
	movq	%r8, 176(%rsp)
	movq	%r9, 184(%rsp)
	movq	%rax, 192(%rsp)
.Ltmp76:
	.cv_loc	28 5 388 0
	cmpq	%rax, %r8
	jb	.LBB28_2
	movq	56(%rsp), %rax
	movq	88(%rsp), %rcx
	addq	$1, %rcx
	cmpq	%rcx, %rax
	seta	%al
	andb	$1, %al
	movb	%al, 103(%rsp)
	jmp	.LBB28_3
.LBB28_2:
	movb	$1, 103(%rsp)
.LBB28_3:
	testb	$1, 103(%rsp)
	jne	.LBB28_5
	.cv_loc	28 5 391 0
	movq	80(%rsp), %rax
	movq	72(%rsp), %rcx
	movq	88(%rsp), %rdx
	movq	48(%rsp), %r8
	movq	56(%rsp), %r9
	movq	64(%rsp), %r10
	movq	$0, 152(%rsp)
	movq	%r10, (%rcx)
	movq	%r9, 8(%rcx)
	movq	152(%rsp), %r10
	movq	160(%rsp), %r9
	movq	%r10, 16(%rcx)
	movq	%r9, 24(%rcx)
	movq	%r8, 32(%rcx)
	movq	%rdx, 40(%rcx)
	.cv_loc	28 5 392 0
	addq	$200, %rsp
	retq
.LBB28_5:
	.cv_loc	28 5 389 0
	leaq	104(%rsp), %rcx
	leaq	__unnamed_2(%rip), %rdx
	movl	$1, %r8d
	leaq	__unnamed_3(%rip), %r9
	xorl	%eax, %eax
	movq	$0, 32(%rsp)
	callq	_ZN4core3fmt9Arguments6new_v117h68c9a4aeb67fe82bE
	leaq	__unnamed_4(%rip), %rdx
	leaq	104(%rsp), %rcx
	callq	_ZN4core9panicking9panic_fmt17h9a20e90cefbba781E
	ud2
.Ltmp77:
.Lfunc_end28:
	.seh_endproc

	.def	_ZN4core3mem7replace17h52db0085dc56e666E;
	.scl	2;
	.type	32;
	.endef
	.section	.text,"xr",one_only,_ZN4core3mem7replace17h52db0085dc56e666E
	.globl	_ZN4core3mem7replace17h52db0085dc56e666E
	.p2align	4, 0x90
_ZN4core3mem7replace17h52db0085dc56e666E:
.Lfunc_begin29:
	.cv_func_id 29
	.cv_file	8 "/rustc/fe5b13d681f25ee6474be29d748c65adcd91f69e\\library\\core\\src\\mem\\mod.rs" "C5042DD9E6A9AE656F1B6D5AF1BAFDFF25880AFB" 2
	.cv_loc	29 8 893 0
.seh_proc _ZN4core3mem7replace17h52db0085dc56e666E
	.seh_handler __CxxFrameHandler3, @unwind, @except
	pushq	%rbp
	.seh_pushreg %rbp
	subq	$128, %rsp
	.seh_stackalloc 128
	leaq	128(%rsp), %rbp
	.seh_setframe %rbp, 128
	.seh_endprologue
	movq	$-2, -8(%rbp)
	movq	%r8, -96(%rbp)
	movq	%rdx, -88(%rbp)
	movq	%rcx, -80(%rbp)
	movq	%rcx, -48(%rbp)
	movq	%rdx, -40(%rbp)
	movq	%r8, -32(%rbp)
.Ltmp82:
	.cv_loc	29 8 898 0
	movb	$0, -49(%rbp)
	movb	$1, -49(%rbp)
.Ltmp78:
	callq	_ZN4core3ptr4read17h431be5276fbda627E
.Ltmp79:
	movq	%rdx, -72(%rbp)
	movq	%rax, -64(%rbp)
	jmp	.LBB29_2
.LBB29_2:
	movq	-96(%rbp), %r8
	movq	-88(%rbp), %rdx
	movq	-80(%rbp), %rcx
	movq	-72(%rbp), %rax
	movq	-64(%rbp), %r9
	movq	%r9, -24(%rbp)
	movq	%rax, -16(%rbp)
.Ltmp83:
	.cv_loc	29 8 899 0
	movb	$0, -49(%rbp)
.Ltmp80:
	callq	_ZN4core3ptr5write17h40e27f857311fec3E
.Ltmp81:
	jmp	.LBB29_4
.Ltmp84:
.LBB29_4:
	.cv_loc	29 8 902 0
	movq	-72(%rbp), %rdx
	movq	-64(%rbp), %rax
	addq	$128, %rsp
	popq	%rbp
	retq
	.seh_handlerdata
	.long	($cppxdata$_ZN4core3mem7replace17h52db0085dc56e666E)@IMGREL
	.section	.text,"xr",one_only,_ZN4core3mem7replace17h52db0085dc56e666E
	.seh_endproc
	.def	"?dtor$1@?0?_ZN4core3mem7replace17h52db0085dc56e666E@4HA";
	.scl	3;
	.type	32;
	.endef
	.p2align	4, 0x90
"?dtor$1@?0?_ZN4core3mem7replace17h52db0085dc56e666E@4HA":
.seh_proc "?dtor$1@?0?_ZN4core3mem7replace17h52db0085dc56e666E@4HA"
.LBB29_1:
	movq	%rdx, 16(%rsp)
	pushq	%rbp
	.seh_pushreg %rbp
	subq	$32, %rsp
	.seh_stackalloc 32
	leaq	128(%rdx), %rbp
	.seh_endprologue
	testb	$1, -49(%rbp)
	jne	.LBB29_6
	jmp	.LBB29_5
.LBB29_5:
	.cv_loc	29 8 893 0
	addq	$32, %rsp
	popq	%rbp
	retq
.LBB29_6:
	.cv_loc	29 8 902 0
	jmp	.LBB29_5
	.seh_handlerdata
	.section	.text,"xr",one_only,_ZN4core3mem7replace17h52db0085dc56e666E
	.seh_endproc
	.def	"?dtor$3@?0?_ZN4core3mem7replace17h52db0085dc56e666E@4HA";
	.scl	3;
	.type	32;
	.endef
	.p2align	4, 0x90
"?dtor$3@?0?_ZN4core3mem7replace17h52db0085dc56e666E@4HA":
.seh_proc "?dtor$3@?0?_ZN4core3mem7replace17h52db0085dc56e666E@4HA"
.LBB29_3:
	movq	%rdx, 16(%rsp)
	pushq	%rbp
	.seh_pushreg %rbp
	subq	$32, %rsp
	.seh_stackalloc 32
	leaq	128(%rdx), %rbp
	.seh_endprologue
	.cv_loc	29 8 901 0
	addq	$32, %rsp
	popq	%rbp
	retq
.Ltmp85:
.Lfunc_end29:
	.seh_handlerdata
	.section	.text,"xr",one_only,_ZN4core3mem7replace17h52db0085dc56e666E
	.seh_endproc
	.section	.xdata,"dr",associative,_ZN4core3mem7replace17h52db0085dc56e666E
	.p2align	2
$cppxdata$_ZN4core3mem7replace17h52db0085dc56e666E:
	.long	429065506
	.long	2
	.long	($stateUnwindMap$_ZN4core3mem7replace17h52db0085dc56e666E)@IMGREL
	.long	0
	.long	0
	.long	4
	.long	($ip2state$_ZN4core3mem7replace17h52db0085dc56e666E)@IMGREL
	.long	120
	.long	0
	.long	1
$stateUnwindMap$_ZN4core3mem7replace17h52db0085dc56e666E:
	.long	-1
	.long	"?dtor$1@?0?_ZN4core3mem7replace17h52db0085dc56e666E@4HA"@IMGREL
	.long	0
	.long	"?dtor$3@?0?_ZN4core3mem7replace17h52db0085dc56e666E@4HA"@IMGREL
$ip2state$_ZN4core3mem7replace17h52db0085dc56e666E:
	.long	.Lfunc_begin29@IMGREL
	.long	-1
	.long	.Ltmp78@IMGREL+1
	.long	0
	.long	.Ltmp80@IMGREL+1
	.long	1
	.long	.Ltmp81@IMGREL+1
	.long	-1
	.section	.text,"xr",one_only,_ZN4core3mem7replace17h52db0085dc56e666E

	.def	_ZN4core3num20_$LT$impl$u20$u8$GT$18is_ascii_uppercase17h7f6005c17894dfd9E;
	.scl	3;
	.type	32;
	.endef
	.section	.text,"xr",one_only,_ZN4core3num20_$LT$impl$u20$u8$GT$18is_ascii_uppercase17h7f6005c17894dfd9E
	.p2align	4, 0x90
_ZN4core3num20_$LT$impl$u20$u8$GT$18is_ascii_uppercase17h7f6005c17894dfd9E:
.Lfunc_begin30:
	.cv_func_id 30
	.cv_file	9 "/rustc/fe5b13d681f25ee6474be29d748c65adcd91f69e\\library\\core\\src\\num\\mod.rs" "A64A2822BFBAD7644430B3DEF18B99C3D3BA4C91" 2
	.cv_loc	30 9 481 0
.seh_proc _ZN4core3num20_$LT$impl$u20$u8$GT$18is_ascii_uppercase17h7f6005c17894dfd9E
	subq	$24, %rsp
	.seh_stackalloc 24
	.seh_endprologue
	movq	%rcx, (%rsp)
	movq	%rcx, 16(%rsp)
.Ltmp86:
	.cv_loc	30 9 482 0
	movb	$65, %al
	cmpb	(%rcx), %al
	jbe	.LBB30_2
.LBB30_1:
	movb	$0, 15(%rsp)
	jmp	.LBB30_4
.LBB30_2:
	movq	(%rsp), %rax
	cmpb	$90, (%rax)
	ja	.LBB30_1
	movb	$1, 15(%rsp)
.LBB30_4:
	.cv_loc	30 9 483 0
	movb	15(%rsp), %al
	andb	$1, %al
	movzbl	%al, %eax
	addq	$24, %rsp
	retq
.Ltmp87:
.Lfunc_end30:
	.seh_endproc

	.def	_ZN4core3num20_$LT$impl$u20$u8$GT$18to_ascii_lowercase17hf3e37911c9058416E;
	.scl	3;
	.type	32;
	.endef
	.section	.text,"xr",one_only,_ZN4core3num20_$LT$impl$u20$u8$GT$18to_ascii_lowercase17hf3e37911c9058416E
	.p2align	4, 0x90
_ZN4core3num20_$LT$impl$u20$u8$GT$18to_ascii_lowercase17hf3e37911c9058416E:
.Lfunc_begin31:
	.cv_func_id 31
	.cv_loc	31 9 335 0
.seh_proc _ZN4core3num20_$LT$impl$u20$u8$GT$18to_ascii_lowercase17hf3e37911c9058416E
	subq	$56, %rsp
	.seh_stackalloc 56
	.seh_endprologue
	movq	%rcx, 48(%rsp)
.Ltmp88:
	.cv_loc	31 9 337 0
	movb	(%rcx), %al
	movb	%al, 46(%rsp)
	callq	_ZN4core3num20_$LT$impl$u20$u8$GT$18is_ascii_uppercase17h7f6005c17894dfd9E
	movb	%al, 47(%rsp)
	movb	46(%rsp), %al
	movb	47(%rsp), %cl
	andb	$1, %cl
	shlb	$5, %cl
	orb	%cl, %al
	.cv_loc	31 9 338 0
	addq	$56, %rsp
	retq
.Ltmp89:
.Lfunc_end31:
	.seh_endproc

	.def	_ZN4core3num20_$LT$impl$u20$u8$GT$20eq_ignore_ascii_case17h14aaf127c7dd1c10E;
	.scl	3;
	.type	32;
	.endef
	.section	.text,"xr",one_only,_ZN4core3num20_$LT$impl$u20$u8$GT$20eq_ignore_ascii_case17h14aaf127c7dd1c10E
	.p2align	4, 0x90
_ZN4core3num20_$LT$impl$u20$u8$GT$20eq_ignore_ascii_case17h14aaf127c7dd1c10E:
.Lfunc_begin32:
	.cv_func_id 32
	.cv_loc	32 9 361 0
.seh_proc _ZN4core3num20_$LT$impl$u20$u8$GT$20eq_ignore_ascii_case17h14aaf127c7dd1c10E
	subq	$72, %rsp
	.seh_stackalloc 72
	.seh_endprologue
	movq	%rdx, 40(%rsp)
	movq	%rcx, 56(%rsp)
	movq	%rdx, 64(%rsp)
.Ltmp90:
	.cv_loc	32 9 362 0
	callq	_ZN4core3num20_$LT$impl$u20$u8$GT$18to_ascii_lowercase17hf3e37911c9058416E
	movb	%al, 55(%rsp)
	movq	40(%rsp), %rcx
	callq	_ZN4core3num20_$LT$impl$u20$u8$GT$18to_ascii_lowercase17hf3e37911c9058416E
	movb	%al, 39(%rsp)
	movb	55(%rsp), %al
	movb	39(%rsp), %cl
	cmpb	%cl, %al
	sete	%al
	.cv_loc	32 9 363 0
	andb	$1, %al
	movzbl	%al, %eax
	addq	$72, %rsp
	retq
.Ltmp91:
.Lfunc_end32:
	.seh_endproc

	.def	_ZN4core3ops12control_flow24ControlFlow$LT$B$C$C$GT$11break_value17h60827ea1c8c8024bE;
	.scl	2;
	.type	32;
	.endef
	.section	.text,"xr",one_only,_ZN4core3ops12control_flow24ControlFlow$LT$B$C$C$GT$11break_value17h60827ea1c8c8024bE
	.globl	_ZN4core3ops12control_flow24ControlFlow$LT$B$C$C$GT$11break_value17h60827ea1c8c8024bE
	.p2align	4, 0x90
_ZN4core3ops12control_flow24ControlFlow$LT$B$C$C$GT$11break_value17h60827ea1c8c8024bE:
.Lfunc_begin33:
	.cv_func_id 33
	.cv_loc	33 3 178 0
.seh_proc _ZN4core3ops12control_flow24ControlFlow$LT$B$C$C$GT$11break_value17h60827ea1c8c8024bE
	subq	$40, %rsp
	.seh_stackalloc 40
	.seh_endprologue
	movq	%rcx, (%rsp)
	movq	%rdx, 8(%rsp)
.Ltmp92:
	.cv_loc	33 3 179 0
	movq	(%rsp), %rax
	testq	%rax, %rax
	je	.LBB33_2
	jmp	.LBB33_7
.LBB33_7:
	jmp	.LBB33_3
	ud2
.LBB33_2:
	.cv_loc	33 3 180 0
	movq	$0, 16(%rsp)
	jmp	.LBB33_4
.LBB33_3:
	.cv_loc	33 3 181 0
	movq	8(%rsp), %rax
	movq	%rax, 32(%rsp)
.Ltmp93:
	.cv_loc	33 3 181 0
	movq	%rax, 24(%rsp)
	movq	$1, 16(%rsp)
.Ltmp94:
.LBB33_4:
	.cv_loc	33 3 183 0
	cmpq	$1, (%rsp)
	jne	.LBB33_6
.LBB33_5:
	movq	16(%rsp), %rax
	movq	24(%rsp), %rdx
	addq	$40, %rsp
	retq
.LBB33_6:
	jmp	.LBB33_5
.Ltmp95:
.Lfunc_end33:
	.seh_endproc

	.def	_ZN4core3ops8function5impls79_$LT$impl$u20$core..ops..function..FnMut$LT$A$GT$$u20$for$u20$$RF$mut$u20$F$GT$8call_mut17hb5688ecf8231de17E;
	.scl	2;
	.type	32;
	.endef
	.section	.text,"xr",one_only,_ZN4core3ops8function5impls79_$LT$impl$u20$core..ops..function..FnMut$LT$A$GT$$u20$for$u20$$RF$mut$u20$F$GT$8call_mut17hb5688ecf8231de17E
	.globl	_ZN4core3ops8function5impls79_$LT$impl$u20$core..ops..function..FnMut$LT$A$GT$$u20$for$u20$$RF$mut$u20$F$GT$8call_mut17hb5688ecf8231de17E
	.p2align	4, 0x90
_ZN4core3ops8function5impls79_$LT$impl$u20$core..ops..function..FnMut$LT$A$GT$$u20$for$u20$$RF$mut$u20$F$GT$8call_mut17hb5688ecf8231de17E:
.Lfunc_begin34:
	.cv_func_id 34
	.cv_file	10 "/rustc/fe5b13d681f25ee6474be29d748c65adcd91f69e\\library\\core\\src\\ops\\function.rs" "9BEA7362FFF50BBE301170918847D3CA3912A24A" 2
	.cv_loc	34 10 268 0
.seh_proc _ZN4core3ops8function5impls79_$LT$impl$u20$core..ops..function..FnMut$LT$A$GT$$u20$for$u20$$RF$mut$u20$F$GT$8call_mut17hb5688ecf8231de17E
	subq	$56, %rsp
	.seh_stackalloc 56
	.seh_endprologue
	movq	%rdx, 40(%rsp)
	movq	%rcx, 48(%rsp)
.Ltmp96:
	.cv_loc	34 10 269 0
	movq	(%rcx), %rcx
	movq	40(%rsp), %rdx
	callq	_ZN57_$LT$log..Level$u20$as$u20$core..str..traits..FromStr$GT$8from_str28_$u7b$$u7b$closure$u7d$$u7d$17hfdb53d33ab730de9E
	movb	%al, 39(%rsp)
	.cv_loc	34 10 270 0
	movb	39(%rsp), %al
	andb	$1, %al
	movzbl	%al, %eax
	addq	$56, %rsp
	retq
.Ltmp97:
.Lfunc_end34:
	.seh_endproc

	.def	_ZN4core3ops8function5impls80_$LT$impl$u20$core..ops..function..FnOnce$LT$A$GT$$u20$for$u20$$RF$mut$u20$F$GT$9call_once17h26bef1b05c4185a3E;
	.scl	2;
	.type	32;
	.endef
	.section	.text,"xr",one_only,_ZN4core3ops8function5impls80_$LT$impl$u20$core..ops..function..FnOnce$LT$A$GT$$u20$for$u20$$RF$mut$u20$F$GT$9call_once17h26bef1b05c4185a3E
	.globl	_ZN4core3ops8function5impls80_$LT$impl$u20$core..ops..function..FnOnce$LT$A$GT$$u20$for$u20$$RF$mut$u20$F$GT$9call_once17h26bef1b05c4185a3E
	.p2align	4, 0x90
_ZN4core3ops8function5impls80_$LT$impl$u20$core..ops..function..FnOnce$LT$A$GT$$u20$for$u20$$RF$mut$u20$F$GT$9call_once17h26bef1b05c4185a3E:
.Lfunc_begin35:
	.cv_func_id 35
	.cv_loc	35 10 279 0
.seh_proc _ZN4core3ops8function5impls80_$LT$impl$u20$core..ops..function..FnOnce$LT$A$GT$$u20$for$u20$$RF$mut$u20$F$GT$9call_once17h26bef1b05c4185a3E
	subq	$56, %rsp
	.seh_stackalloc 56
	.seh_endprologue
	movq	%rdx, 40(%rsp)
	movq	%rcx, 48(%rsp)
.Ltmp98:
	.cv_loc	35 10 280 0
	movq	40(%rsp), %rdx
	callq	_ZN57_$LT$log..Level$u20$as$u20$core..str..traits..FromStr$GT$8from_str28_$u7b$$u7b$closure$u7d$$u7d$17h41fcd24d17090d10E
	movq	%rax, 32(%rsp)
	.cv_loc	35 10 281 0
	movq	32(%rsp), %rax
	addq	$56, %rsp
	retq
.Ltmp99:
.Lfunc_end35:
	.seh_endproc

	.def	_ZN4core3ops8function6FnOnce9call_once17h2f55dcb0c32030a7E;
	.scl	3;
	.type	32;
	.endef
	.section	.text,"xr",one_only,_ZN4core3ops8function6FnOnce9call_once17h2f55dcb0c32030a7E
	.p2align	4, 0x90
_ZN4core3ops8function6FnOnce9call_once17h2f55dcb0c32030a7E:
.Lfunc_begin36:
	.cv_func_id 36
	.cv_loc	36 10 227 0
.seh_proc _ZN4core3ops8function6FnOnce9call_once17h2f55dcb0c32030a7E
	subq	$72, %rsp
	.seh_stackalloc 72
	.seh_endprologue
	movq	%rcx, 48(%rsp)
	movq	%rdx, 56(%rsp)
.Ltmp100:
	movq	48(%rsp), %rcx
	movq	56(%rsp), %rdx
	callq	_ZN4core3cmp5impls50_$LT$impl$u20$core..cmp..Ord$u20$for$u20$usize$GT$3cmp17hd007dc599714b83aE
	movb	%al, 47(%rsp)
	movb	47(%rsp), %al
	addq	$72, %rsp
	retq
.Ltmp101:
.Lfunc_end36:
	.seh_endproc

	.def	_ZN4core3ops8function6FnOnce9call_once17hf66d0ab5f47ccfecE;
	.scl	3;
	.type	32;
	.endef
	.section	.text,"xr",one_only,_ZN4core3ops8function6FnOnce9call_once17hf66d0ab5f47ccfecE
	.p2align	4, 0x90
_ZN4core3ops8function6FnOnce9call_once17hf66d0ab5f47ccfecE:
.Lfunc_begin37:
	.cv_func_id 37
	.cv_loc	37 10 227 0
.seh_proc _ZN4core3ops8function6FnOnce9call_once17hf66d0ab5f47ccfecE
	subq	$72, %rsp
	.seh_stackalloc 72
	.seh_endprologue
	movq	%rcx, %rax
	movq	%rax, 40(%rsp)
	movq	%rdx, 48(%rsp)
	movq	%r8, 56(%rsp)
.Ltmp102:
	movq	48(%rsp), %rdx
	movq	56(%rsp), %r8
	callq	_ZN3log14MaybeStaticStr6Static17h3a77f9508dc35f0cE
	movq	40(%rsp), %rax
	addq	$72, %rsp
	retq
.Ltmp103:
.Lfunc_end37:
	.seh_endproc

	.def	_ZN4core3ptr28drop_in_place$LT$$RF$u32$GT$17h68f4c6e3c04e4620E;
	.scl	3;
	.type	32;
	.endef
	.section	.text,"xr",one_only,_ZN4core3ptr28drop_in_place$LT$$RF$u32$GT$17h68f4c6e3c04e4620E
	.p2align	4, 0x90
_ZN4core3ptr28drop_in_place$LT$$RF$u32$GT$17h68f4c6e3c04e4620E:
.Lfunc_begin38:
	.cv_func_id 38
	.cv_file	11 "/rustc/fe5b13d681f25ee6474be29d748c65adcd91f69e\\library\\core\\src\\ptr\\mod.rs" "CF8AB3B99E10D77E056BDE1ECF45617458F1302A" 2
	.cv_loc	38 11 448 0
.seh_proc _ZN4core3ptr28drop_in_place$LT$$RF$u32$GT$17h68f4c6e3c04e4620E
	pushq	%rax
	.seh_stackalloc 8
	.seh_endprologue
	movq	%rcx, (%rsp)
.Ltmp104:
	popq	%rax
	retq
.Ltmp105:
.Lfunc_end38:
	.seh_endproc

	.def	_ZN4core3ptr32drop_in_place$LT$$RF$$RF$str$GT$17hc05820c3de09ad81E;
	.scl	3;
	.type	32;
	.endef
	.section	.text,"xr",one_only,_ZN4core3ptr32drop_in_place$LT$$RF$$RF$str$GT$17hc05820c3de09ad81E
	.p2align	4, 0x90
_ZN4core3ptr32drop_in_place$LT$$RF$$RF$str$GT$17hc05820c3de09ad81E:
.Lfunc_begin39:
	.cv_func_id 39
	.cv_loc	39 11 448 0
.seh_proc _ZN4core3ptr32drop_in_place$LT$$RF$$RF$str$GT$17hc05820c3de09ad81E
	pushq	%rax
	.seh_stackalloc 8
	.seh_endprologue
	movq	%rcx, (%rsp)
.Ltmp106:
	popq	%rax
	retq
.Ltmp107:
.Lfunc_end39:
	.seh_endproc

	.def	_ZN4core3ptr33drop_in_place$LT$$RF$$LP$$RP$$GT$17hfd8ec0dc85dd6335E;
	.scl	3;
	.type	32;
	.endef
	.section	.text,"xr",one_only,_ZN4core3ptr33drop_in_place$LT$$RF$$LP$$RP$$GT$17hfd8ec0dc85dd6335E
	.p2align	4, 0x90
_ZN4core3ptr33drop_in_place$LT$$RF$$LP$$RP$$GT$17hfd8ec0dc85dd6335E:
.Lfunc_begin40:
	.cv_func_id 40
	.cv_loc	40 11 448 0
.seh_proc _ZN4core3ptr33drop_in_place$LT$$RF$$LP$$RP$$GT$17hfd8ec0dc85dd6335E
	pushq	%rax
	.seh_stackalloc 8
	.seh_endprologue
	movq	%rcx, (%rsp)
.Ltmp108:
	popq	%rax
	retq
.Ltmp109:
.Lfunc_end40:
	.seh_endproc

	.def	_ZN4core3ptr35drop_in_place$LT$$RF$log..Level$GT$17hf59c5fd4265e59d0E;
	.scl	3;
	.type	32;
	.endef
	.section	.text,"xr",one_only,_ZN4core3ptr35drop_in_place$LT$$RF$log..Level$GT$17hf59c5fd4265e59d0E
	.p2align	4, 0x90
_ZN4core3ptr35drop_in_place$LT$$RF$log..Level$GT$17hf59c5fd4265e59d0E:
.Lfunc_begin41:
	.cv_func_id 41
	.cv_loc	41 11 448 0
.seh_proc _ZN4core3ptr35drop_in_place$LT$$RF$log..Level$GT$17hf59c5fd4265e59d0E
	pushq	%rax
	.seh_stackalloc 8
	.seh_endprologue
	movq	%rcx, (%rsp)
.Ltmp110:
	popq	%rax
	retq
.Ltmp111:
.Lfunc_end41:
	.seh_endproc

	.def	_ZN4core3ptr35drop_in_place$LT$log..NopLogger$GT$17h1df29150a583e0bdE;
	.scl	3;
	.type	32;
	.endef
	.section	.text,"xr",one_only,_ZN4core3ptr35drop_in_place$LT$log..NopLogger$GT$17h1df29150a583e0bdE
	.p2align	4, 0x90
_ZN4core3ptr35drop_in_place$LT$log..NopLogger$GT$17h1df29150a583e0bdE:
.Lfunc_begin42:
	.cv_func_id 42
	.cv_loc	42 11 448 0
.seh_proc _ZN4core3ptr35drop_in_place$LT$log..NopLogger$GT$17h1df29150a583e0bdE
	pushq	%rax
	.seh_stackalloc 8
	.seh_endprologue
	movq	%rcx, (%rsp)
.Ltmp112:
	popq	%rax
	retq
.Ltmp113:
.Lfunc_end42:
	.seh_endproc

	.def	_ZN4core3ptr36drop_in_place$LT$$RF$log..Record$GT$17h47c2f20fdc9c138aE;
	.scl	3;
	.type	32;
	.endef
	.section	.text,"xr",one_only,_ZN4core3ptr36drop_in_place$LT$$RF$log..Record$GT$17h47c2f20fdc9c138aE
	.p2align	4, 0x90
_ZN4core3ptr36drop_in_place$LT$$RF$log..Record$GT$17h47c2f20fdc9c138aE:
.Lfunc_begin43:
	.cv_func_id 43
	.cv_loc	43 11 448 0
.seh_proc _ZN4core3ptr36drop_in_place$LT$$RF$log..Record$GT$17h47c2f20fdc9c138aE
	pushq	%rax
	.seh_stackalloc 8
	.seh_endprologue
	movq	%rcx, (%rsp)
.Ltmp114:
	popq	%rax
	retq
.Ltmp115:
.Lfunc_end43:
	.seh_endproc

	.def	_ZN4core3ptr38drop_in_place$LT$$RF$log..Metadata$GT$17h5d9dd453585a1d33E;
	.scl	3;
	.type	32;
	.endef
	.section	.text,"xr",one_only,_ZN4core3ptr38drop_in_place$LT$$RF$log..Metadata$GT$17h5d9dd453585a1d33E
	.p2align	4, 0x90
_ZN4core3ptr38drop_in_place$LT$$RF$log..Metadata$GT$17h5d9dd453585a1d33E:
.Lfunc_begin44:
	.cv_func_id 44
	.cv_loc	44 11 448 0
.seh_proc _ZN4core3ptr38drop_in_place$LT$$RF$log..Metadata$GT$17h5d9dd453585a1d33E
	pushq	%rax
	.seh_stackalloc 8
	.seh_endprologue
	movq	%rcx, (%rsp)
.Ltmp116:
	popq	%rax
	retq
.Ltmp117:
.Lfunc_end44:
	.seh_endproc

	.def	_ZN4core3ptr44drop_in_place$LT$$RF$log..MaybeStaticStr$GT$17he36a721f19c6f0d6E;
	.scl	3;
	.type	32;
	.endef
	.section	.text,"xr",one_only,_ZN4core3ptr44drop_in_place$LT$$RF$log..MaybeStaticStr$GT$17he36a721f19c6f0d6E
	.p2align	4, 0x90
_ZN4core3ptr44drop_in_place$LT$$RF$log..MaybeStaticStr$GT$17he36a721f19c6f0d6E:
.Lfunc_begin45:
	.cv_func_id 45
	.cv_loc	45 11 448 0
.seh_proc _ZN4core3ptr44drop_in_place$LT$$RF$log..MaybeStaticStr$GT$17he36a721f19c6f0d6E
	pushq	%rax
	.seh_stackalloc 8
	.seh_endprologue
	movq	%rcx, (%rsp)
.Ltmp118:
	popq	%rax
	retq
.Ltmp119:
.Lfunc_end45:
	.seh_endproc

	.def	_ZN4core3ptr45drop_in_place$LT$$RF$core..fmt..Arguments$GT$17h070b9ddde7072516E;
	.scl	3;
	.type	32;
	.endef
	.section	.text,"xr",one_only,_ZN4core3ptr45drop_in_place$LT$$RF$core..fmt..Arguments$GT$17h070b9ddde7072516E
	.p2align	4, 0x90
_ZN4core3ptr45drop_in_place$LT$$RF$core..fmt..Arguments$GT$17h070b9ddde7072516E:
.Lfunc_begin46:
	.cv_func_id 46
	.cv_loc	46 11 448 0
.seh_proc _ZN4core3ptr45drop_in_place$LT$$RF$core..fmt..Arguments$GT$17h070b9ddde7072516E
	pushq	%rax
	.seh_stackalloc 8
	.seh_endprologue
	movq	%rcx, (%rsp)
.Ltmp120:
	popq	%rax
	retq
.Ltmp121:
.Lfunc_end46:
	.seh_endproc

	.def	_ZN4core3ptr4read17h431be5276fbda627E;
	.scl	2;
	.type	32;
	.endef
	.section	.text,"xr",one_only,_ZN4core3ptr4read17h431be5276fbda627E
	.globl	_ZN4core3ptr4read17h431be5276fbda627E
	.p2align	4, 0x90
_ZN4core3ptr4read17h431be5276fbda627E:
.Lfunc_begin47:
	.cv_func_id 47
	.cv_loc	47 11 970 0
.seh_proc _ZN4core3ptr4read17h431be5276fbda627E
	subq	$120, %rsp
	.seh_stackalloc 120
	.seh_endprologue
	movq	%rcx, 24(%rsp)
	movq	%rcx, 56(%rsp)
.Ltmp122:
	.cv_file	12 "/rustc/fe5b13d681f25ee6474be29d748c65adcd91f69e\\library\\core\\src\\mem\\maybe_uninit.rs" "DEBE0D5A9D320B7177610070C9639C55F14F199E" 2
	.cv_inline_site_id 48 within 47 inlined_at 11 978 0
	.cv_loc	48 12 322 0
	movq	88(%rsp), %rax
	movq	96(%rsp), %rcx
.Ltmp123:
	.cv_loc	47 11 978 0
	movq	%rcx, 40(%rsp)
	movq	%rax, 32(%rsp)
	leaq	32(%rsp), %rax
	movq	%rax, 64(%rsp)
	.cv_loc	47 11 986 0
	movq	24(%rsp), %rax
.Ltmp124:
	vmovdqu	(%rax), %xmm0
	vmovdqa	%xmm0, 32(%rsp)
	.cv_loc	47 11 987 0
	movq	32(%rsp), %rcx
	movq	%rcx, 8(%rsp)
	movq	40(%rsp), %rax
	movq	%rax, 16(%rsp)
	movq	%rcx, 72(%rsp)
	movq	%rax, 80(%rsp)
	movq	%rcx, 104(%rsp)
	movq	%rax, 112(%rsp)
.Ltmp125:
	.cv_loc	47 11 989 0
	movq	16(%rsp), %rdx
	movq	8(%rsp), %rax
	addq	$120, %rsp
	retq
.Ltmp126:
.Lfunc_end47:
	.seh_endproc

	.def	_ZN4core3ptr56drop_in_place$LT$$RF$core..option..Option$LT$u32$GT$$GT$17hdb005de00aae6c46E;
	.scl	3;
	.type	32;
	.endef
	.section	.text,"xr",one_only,_ZN4core3ptr56drop_in_place$LT$$RF$core..option..Option$LT$u32$GT$$GT$17hdb005de00aae6c46E
	.p2align	4, 0x90
_ZN4core3ptr56drop_in_place$LT$$RF$core..option..Option$LT$u32$GT$$GT$17hdb005de00aae6c46E:
.Lfunc_begin48:
	.cv_func_id 49
	.cv_loc	49 11 448 0
.seh_proc _ZN4core3ptr56drop_in_place$LT$$RF$core..option..Option$LT$u32$GT$$GT$17hdb005de00aae6c46E
	pushq	%rax
	.seh_stackalloc 8
	.seh_endprologue
	movq	%rcx, (%rsp)
.Ltmp127:
	popq	%rax
	retq
.Ltmp128:
.Lfunc_end48:
	.seh_endproc

	.def	_ZN4core3ptr5write17h40e27f857311fec3E;
	.scl	2;
	.type	32;
	.endef
	.section	.text,"xr",one_only,_ZN4core3ptr5write17h40e27f857311fec3E
	.globl	_ZN4core3ptr5write17h40e27f857311fec3E
	.p2align	4, 0x90
_ZN4core3ptr5write17h40e27f857311fec3E:
.Lfunc_begin49:
	.cv_func_id 50
	.cv_loc	50 11 1165 0
.seh_proc _ZN4core3ptr5write17h40e27f857311fec3E
	subq	$24, %rsp
	.seh_stackalloc 24
	.seh_endprologue
	movq	%rdx, (%rsp)
	movq	%r8, 8(%rsp)
	movq	%rcx, 16(%rsp)
.Ltmp129:
	.cv_loc	50 11 1177 0
	movq	(%rsp), %rax
	movq	%rax, (%rcx)
	movq	8(%rsp), %rax
	movq	%rax, 8(%rcx)
	.cv_loc	50 11 1180 0
	addq	$24, %rsp
	retq
.Ltmp130:
.Lfunc_end49:
	.seh_endproc

	.def	_ZN4core3ptr72drop_in_place$LT$$RF$core..option..Option$LT$log..MaybeStaticStr$GT$$GT$17hb3c88a8b54d506b7E;
	.scl	3;
	.type	32;
	.endef
	.section	.text,"xr",one_only,_ZN4core3ptr72drop_in_place$LT$$RF$core..option..Option$LT$log..MaybeStaticStr$GT$$GT$17hb3c88a8b54d506b7E
	.p2align	4, 0x90
_ZN4core3ptr72drop_in_place$LT$$RF$core..option..Option$LT$log..MaybeStaticStr$GT$$GT$17hb3c88a8b54d506b7E:
.Lfunc_begin50:
	.cv_func_id 51
	.cv_loc	51 11 448 0
.seh_proc _ZN4core3ptr72drop_in_place$LT$$RF$core..option..Option$LT$log..MaybeStaticStr$GT$$GT$17hb3c88a8b54d506b7E
	pushq	%rax
	.seh_stackalloc 8
	.seh_endprologue
	movq	%rcx, (%rsp)
.Ltmp131:
	popq	%rax
	retq
.Ltmp132:
.Lfunc_end50:
	.seh_endproc

	.def	_ZN4core3ptr7mut_ptr31_$LT$impl$u20$$BP$mut$u20$T$GT$13guaranteed_eq17hf55a9e01aa5237f6E;
	.scl	2;
	.type	32;
	.endef
	.section	.text,"xr",one_only,_ZN4core3ptr7mut_ptr31_$LT$impl$u20$$BP$mut$u20$T$GT$13guaranteed_eq17hf55a9e01aa5237f6E
	.globl	_ZN4core3ptr7mut_ptr31_$LT$impl$u20$$BP$mut$u20$T$GT$13guaranteed_eq17hf55a9e01aa5237f6E
	.p2align	4, 0x90
_ZN4core3ptr7mut_ptr31_$LT$impl$u20$$BP$mut$u20$T$GT$13guaranteed_eq17hf55a9e01aa5237f6E:
.Lfunc_begin51:
	.cv_func_id 52
	.cv_file	13 "/rustc/fe5b13d681f25ee6474be29d748c65adcd91f69e\\library\\core\\src\\ptr\\mut_ptr.rs" "5859F854D0855F592C59E07606442B757DF41B7F" 2
	.cv_loc	52 13 617 0
.seh_proc _ZN4core3ptr7mut_ptr31_$LT$impl$u20$$BP$mut$u20$T$GT$13guaranteed_eq17hf55a9e01aa5237f6E
	subq	$32, %rsp
	.seh_stackalloc 32
	.seh_endprologue
	movq	%rcx, 8(%rsp)
	movq	%rdx, 16(%rsp)
.Ltmp133:
	.cv_loc	52 13 621 0
	cmpq	%rdx, %rcx
	sete	%al
	andb	$1, %al
	movb	%al, 31(%rsp)
	movb	31(%rsp), %al
	movb	%al, 7(%rsp)
	.cv_loc	52 13 622 0
	movb	7(%rsp), %al
	andb	$1, %al
	movzbl	%al, %eax
	addq	$32, %rsp
	retq
.Ltmp134:
.Lfunc_end51:
	.seh_endproc

	.def	_ZN4core3ptr7mut_ptr31_$LT$impl$u20$$BP$mut$u20$T$GT$4addr17h1e56ad61539dd2b0E;
	.scl	2;
	.type	32;
	.endef
	.section	.text,"xr",one_only,_ZN4core3ptr7mut_ptr31_$LT$impl$u20$$BP$mut$u20$T$GT$4addr17h1e56ad61539dd2b0E
	.globl	_ZN4core3ptr7mut_ptr31_$LT$impl$u20$$BP$mut$u20$T$GT$4addr17h1e56ad61539dd2b0E
	.p2align	4, 0x90
_ZN4core3ptr7mut_ptr31_$LT$impl$u20$$BP$mut$u20$T$GT$4addr17h1e56ad61539dd2b0E:
.Lfunc_begin52:
	.cv_func_id 53
	.cv_loc	53 13 174 0
.seh_proc _ZN4core3ptr7mut_ptr31_$LT$impl$u20$$BP$mut$u20$T$GT$4addr17h1e56ad61539dd2b0E
	pushq	%rax
	.seh_stackalloc 8
	.seh_endprologue
	movq	%rcx, %rax
	movq	%rax, (%rsp)
.Ltmp135:
	.cv_loc	53 13 180 0
	popq	%rcx
	retq
.Ltmp136:
.Lfunc_end52:
	.seh_endproc

	.def	_ZN4core3ptr7mut_ptr31_$LT$impl$u20$$BP$mut$u20$T$GT$4addr17hed9a07f8e3063576E;
	.scl	2;
	.type	32;
	.endef
	.section	.text,"xr",one_only,_ZN4core3ptr7mut_ptr31_$LT$impl$u20$$BP$mut$u20$T$GT$4addr17hed9a07f8e3063576E
	.globl	_ZN4core3ptr7mut_ptr31_$LT$impl$u20$$BP$mut$u20$T$GT$4addr17hed9a07f8e3063576E
	.p2align	4, 0x90
_ZN4core3ptr7mut_ptr31_$LT$impl$u20$$BP$mut$u20$T$GT$4addr17hed9a07f8e3063576E:
.Lfunc_begin53:
	.cv_func_id 54
	.cv_loc	54 13 174 0
.seh_proc _ZN4core3ptr7mut_ptr31_$LT$impl$u20$$BP$mut$u20$T$GT$4addr17hed9a07f8e3063576E
	pushq	%rax
	.seh_stackalloc 8
	.seh_endprologue
	movq	%rcx, %rax
	movq	%rax, (%rsp)
.Ltmp137:
	.cv_loc	54 13 180 0
	popq	%rcx
	retq
.Ltmp138:
.Lfunc_end53:
	.seh_endproc

	.def	_ZN4core3ptr7mut_ptr31_$LT$impl$u20$$BP$mut$u20$T$GT$7is_null17h547f9973846340d7E;
	.scl	2;
	.type	32;
	.endef
	.section	.text,"xr",one_only,_ZN4core3ptr7mut_ptr31_$LT$impl$u20$$BP$mut$u20$T$GT$7is_null17h547f9973846340d7E
	.globl	_ZN4core3ptr7mut_ptr31_$LT$impl$u20$$BP$mut$u20$T$GT$7is_null17h547f9973846340d7E
	.p2align	4, 0x90
_ZN4core3ptr7mut_ptr31_$LT$impl$u20$$BP$mut$u20$T$GT$7is_null17h547f9973846340d7E:
.Lfunc_begin54:
	.cv_func_id 55
	.cv_loc	55 13 36 0
.seh_proc _ZN4core3ptr7mut_ptr31_$LT$impl$u20$$BP$mut$u20$T$GT$7is_null17h547f9973846340d7E
	subq	$72, %rsp
	.seh_stackalloc 72
	.seh_endprologue
	movq	%rcx, 56(%rsp)
	movq	%rcx, 48(%rsp)
	movq	$0, 64(%rsp)
	.cv_loc	55 13 39 0
	movq	48(%rsp), %rcx
.Ltmp139:
	xorl	%eax, %eax
	movl	%eax, %edx
	callq	_ZN4core3ptr7mut_ptr31_$LT$impl$u20$$BP$mut$u20$T$GT$13guaranteed_eq17hf55a9e01aa5237f6E
	movb	%al, 47(%rsp)
	.cv_loc	55 13 40 0
	movb	47(%rsp), %al
	andb	$1, %al
	movzbl	%al, %eax
	addq	$72, %rsp
	retq
.Ltmp140:
.Lfunc_end54:
	.seh_endproc

	.def	_ZN4core3ptr8non_null16NonNull$LT$T$GT$13new_unchecked17h4f565325f6696055E;
	.scl	2;
	.type	32;
	.endef
	.section	.text,"xr",one_only,_ZN4core3ptr8non_null16NonNull$LT$T$GT$13new_unchecked17h4f565325f6696055E
	.globl	_ZN4core3ptr8non_null16NonNull$LT$T$GT$13new_unchecked17h4f565325f6696055E
	.p2align	4, 0x90
_ZN4core3ptr8non_null16NonNull$LT$T$GT$13new_unchecked17h4f565325f6696055E:
.Lfunc_begin55:
	.cv_func_id 56
	.cv_file	14 "/rustc/fe5b13d681f25ee6474be29d748c65adcd91f69e\\library\\core\\src\\ptr\\non_null.rs" "CF068F8BA267D8D99EBD6EA85010012D34E330A3" 2
	.cv_loc	56 14 195 0
.seh_proc _ZN4core3ptr8non_null16NonNull$LT$T$GT$13new_unchecked17h4f565325f6696055E
	subq	$16, %rsp
	.seh_stackalloc 16
	.seh_endprologue
	movq	%rcx, 8(%rsp)
.Ltmp141:
	.cv_loc	56 14 197 0
	movq	%rcx, (%rsp)
	.cv_loc	56 14 198 0
	movq	(%rsp), %rax
	addq	$16, %rsp
	retq
.Ltmp142:
.Lfunc_end55:
	.seh_endproc

	.def	_ZN4core3ptr8non_null16NonNull$LT$T$GT$13new_unchecked17hbbebeb8dac47bb53E;
	.scl	2;
	.type	32;
	.endef
	.section	.text,"xr",one_only,_ZN4core3ptr8non_null16NonNull$LT$T$GT$13new_unchecked17hbbebeb8dac47bb53E
	.globl	_ZN4core3ptr8non_null16NonNull$LT$T$GT$13new_unchecked17hbbebeb8dac47bb53E
	.p2align	4, 0x90
_ZN4core3ptr8non_null16NonNull$LT$T$GT$13new_unchecked17hbbebeb8dac47bb53E:
.Lfunc_begin56:
	.cv_func_id 57
	.cv_loc	57 14 195 0
.seh_proc _ZN4core3ptr8non_null16NonNull$LT$T$GT$13new_unchecked17hbbebeb8dac47bb53E
	subq	$16, %rsp
	.seh_stackalloc 16
	.seh_endprologue
	movq	%rcx, 8(%rsp)
.Ltmp143:
	.cv_loc	57 14 197 0
	movq	%rcx, (%rsp)
	.cv_loc	57 14 198 0
	movq	(%rsp), %rax
	addq	$16, %rsp
	retq
.Ltmp144:
.Lfunc_end56:
	.seh_endproc

	.def	_ZN4core3ptr8non_null16NonNull$LT$T$GT$6as_ptr17h4ca0d9ea90f86ab8E;
	.scl	2;
	.type	32;
	.endef
	.section	.text,"xr",one_only,_ZN4core3ptr8non_null16NonNull$LT$T$GT$6as_ptr17h4ca0d9ea90f86ab8E
	.globl	_ZN4core3ptr8non_null16NonNull$LT$T$GT$6as_ptr17h4ca0d9ea90f86ab8E
	.p2align	4, 0x90
_ZN4core3ptr8non_null16NonNull$LT$T$GT$6as_ptr17h4ca0d9ea90f86ab8E:
.Lfunc_begin57:
	.cv_func_id 58
	.cv_loc	58 14 325 0
.seh_proc _ZN4core3ptr8non_null16NonNull$LT$T$GT$6as_ptr17h4ca0d9ea90f86ab8E
	pushq	%rax
	.seh_stackalloc 8
	.seh_endprologue
	movq	%rcx, %rax
	movq	%rax, (%rsp)
.Ltmp145:
	.cv_loc	58 14 327 0
	popq	%rcx
	retq
.Ltmp146:
.Lfunc_end57:
	.seh_endproc

	.def	_ZN4core3ptr8non_null16NonNull$LT$T$GT$6as_ptr17h5cf332a2f7ec5615E;
	.scl	2;
	.type	32;
	.endef
	.section	.text,"xr",one_only,_ZN4core3ptr8non_null16NonNull$LT$T$GT$6as_ptr17h5cf332a2f7ec5615E
	.globl	_ZN4core3ptr8non_null16NonNull$LT$T$GT$6as_ptr17h5cf332a2f7ec5615E
	.p2align	4, 0x90
_ZN4core3ptr8non_null16NonNull$LT$T$GT$6as_ptr17h5cf332a2f7ec5615E:
.Lfunc_begin58:
	.cv_func_id 59
	.cv_loc	59 14 325 0
.seh_proc _ZN4core3ptr8non_null16NonNull$LT$T$GT$6as_ptr17h5cf332a2f7ec5615E
	pushq	%rax
	.seh_stackalloc 8
	.seh_endprologue
	movq	%rcx, %rax
	movq	%rax, (%rsp)
.Ltmp147:
	.cv_loc	59 14 327 0
	popq	%rcx
	retq
.Ltmp148:
.Lfunc_end58:
	.seh_endproc

	.def	_ZN4core3ptr9const_ptr33_$LT$impl$u20$$BP$const$u20$T$GT$13guaranteed_eq17hff95097659f63631E;
	.scl	2;
	.type	32;
	.endef
	.section	.text,"xr",one_only,_ZN4core3ptr9const_ptr33_$LT$impl$u20$$BP$const$u20$T$GT$13guaranteed_eq17hff95097659f63631E
	.globl	_ZN4core3ptr9const_ptr33_$LT$impl$u20$$BP$const$u20$T$GT$13guaranteed_eq17hff95097659f63631E
	.p2align	4, 0x90
_ZN4core3ptr9const_ptr33_$LT$impl$u20$$BP$const$u20$T$GT$13guaranteed_eq17hff95097659f63631E:
.Lfunc_begin59:
	.cv_func_id 60
	.cv_file	15 "/rustc/fe5b13d681f25ee6474be29d748c65adcd91f69e\\library\\core\\src\\ptr\\const_ptr.rs" "E130FEAACFD149A6448325AB83A7B0329D9DCF85" 2
	.cv_loc	60 15 595 0
.seh_proc _ZN4core3ptr9const_ptr33_$LT$impl$u20$$BP$const$u20$T$GT$13guaranteed_eq17hff95097659f63631E
	subq	$32, %rsp
	.seh_stackalloc 32
	.seh_endprologue
	movq	%rcx, 8(%rsp)
	movq	%rdx, 16(%rsp)
.Ltmp149:
	.cv_loc	60 15 599 0
	cmpq	%rdx, %rcx
	sete	%al
	andb	$1, %al
	movb	%al, 31(%rsp)
	movb	31(%rsp), %al
	movb	%al, 7(%rsp)
	.cv_loc	60 15 600 0
	movb	7(%rsp), %al
	andb	$1, %al
	movzbl	%al, %eax
	addq	$32, %rsp
	retq
.Ltmp150:
.Lfunc_end59:
	.seh_endproc

	.def	_ZN4core3ptr9const_ptr33_$LT$impl$u20$$BP$const$u20$T$GT$4addr17h3e9f52fd271ff1e3E;
	.scl	2;
	.type	32;
	.endef
	.section	.text,"xr",one_only,_ZN4core3ptr9const_ptr33_$LT$impl$u20$$BP$const$u20$T$GT$4addr17h3e9f52fd271ff1e3E
	.globl	_ZN4core3ptr9const_ptr33_$LT$impl$u20$$BP$const$u20$T$GT$4addr17h3e9f52fd271ff1e3E
	.p2align	4, 0x90
_ZN4core3ptr9const_ptr33_$LT$impl$u20$$BP$const$u20$T$GT$4addr17h3e9f52fd271ff1e3E:
.Lfunc_begin60:
	.cv_func_id 61
	.cv_loc	61 15 170 0
.seh_proc _ZN4core3ptr9const_ptr33_$LT$impl$u20$$BP$const$u20$T$GT$4addr17h3e9f52fd271ff1e3E
	pushq	%rax
	.seh_stackalloc 8
	.seh_endprologue
	movq	%rcx, %rax
	movq	%rax, (%rsp)
.Ltmp151:
	.cv_loc	61 15 176 0
	popq	%rcx
	retq
.Ltmp152:
.Lfunc_end60:
	.seh_endproc

	.def	_ZN4core3ptr9const_ptr33_$LT$impl$u20$$BP$const$u20$T$GT$4addr17h42ed21bfa0a450d7E;
	.scl	2;
	.type	32;
	.endef
	.section	.text,"xr",one_only,_ZN4core3ptr9const_ptr33_$LT$impl$u20$$BP$const$u20$T$GT$4addr17h42ed21bfa0a450d7E
	.globl	_ZN4core3ptr9const_ptr33_$LT$impl$u20$$BP$const$u20$T$GT$4addr17h42ed21bfa0a450d7E
	.p2align	4, 0x90
_ZN4core3ptr9const_ptr33_$LT$impl$u20$$BP$const$u20$T$GT$4addr17h42ed21bfa0a450d7E:
.Lfunc_begin61:
	.cv_func_id 62
	.cv_loc	62 15 170 0
.seh_proc _ZN4core3ptr9const_ptr33_$LT$impl$u20$$BP$const$u20$T$GT$4addr17h42ed21bfa0a450d7E
	pushq	%rax
	.seh_stackalloc 8
	.seh_endprologue
	movq	%rcx, %rax
	movq	%rax, (%rsp)
.Ltmp153:
	.cv_loc	62 15 176 0
	popq	%rcx
	retq
.Ltmp154:
.Lfunc_end61:
	.seh_endproc

	.def	_ZN4core3ptr9const_ptr33_$LT$impl$u20$$BP$const$u20$T$GT$7is_null17ha806058515d4aaebE;
	.scl	2;
	.type	32;
	.endef
	.section	.text,"xr",one_only,_ZN4core3ptr9const_ptr33_$LT$impl$u20$$BP$const$u20$T$GT$7is_null17ha806058515d4aaebE
	.globl	_ZN4core3ptr9const_ptr33_$LT$impl$u20$$BP$const$u20$T$GT$7is_null17ha806058515d4aaebE
	.p2align	4, 0x90
_ZN4core3ptr9const_ptr33_$LT$impl$u20$$BP$const$u20$T$GT$7is_null17ha806058515d4aaebE:
.Lfunc_begin62:
	.cv_func_id 63
	.cv_loc	63 15 37 0
.seh_proc _ZN4core3ptr9const_ptr33_$LT$impl$u20$$BP$const$u20$T$GT$7is_null17ha806058515d4aaebE
	subq	$72, %rsp
	.seh_stackalloc 72
	.seh_endprologue
	movq	%rcx, 56(%rsp)
	movq	%rcx, 48(%rsp)
	movq	$0, 64(%rsp)
	.cv_loc	63 15 40 0
	movq	48(%rsp), %rcx
.Ltmp155:
	xorl	%eax, %eax
	movl	%eax, %edx
	callq	_ZN4core3ptr9const_ptr33_$LT$impl$u20$$BP$const$u20$T$GT$13guaranteed_eq17hff95097659f63631E
	movb	%al, 47(%rsp)
	.cv_loc	63 15 41 0
	movb	47(%rsp), %al
	andb	$1, %al
	movzbl	%al, %eax
	addq	$72, %rsp
	retq
.Ltmp156:
.Lfunc_end62:
	.seh_endproc

	.def	_ZN4core3ptr9const_ptr33_$LT$impl$u20$$BP$const$u20$T$GT$7is_null17hded3ffcb6e258febE;
	.scl	2;
	.type	32;
	.endef
	.section	.text,"xr",one_only,_ZN4core3ptr9const_ptr33_$LT$impl$u20$$BP$const$u20$T$GT$7is_null17hded3ffcb6e258febE
	.globl	_ZN4core3ptr9const_ptr33_$LT$impl$u20$$BP$const$u20$T$GT$7is_null17hded3ffcb6e258febE
	.p2align	4, 0x90
_ZN4core3ptr9const_ptr33_$LT$impl$u20$$BP$const$u20$T$GT$7is_null17hded3ffcb6e258febE:
.Lfunc_begin63:
	.cv_func_id 64
	.cv_loc	64 15 37 0
.seh_proc _ZN4core3ptr9const_ptr33_$LT$impl$u20$$BP$const$u20$T$GT$7is_null17hded3ffcb6e258febE
	subq	$72, %rsp
	.seh_stackalloc 72
	.seh_endprologue
	movq	%rcx, 48(%rsp)
	movq	%rcx, 56(%rsp)
	movq	$0, 64(%rsp)
	.cv_loc	64 15 40 0
	movq	48(%rsp), %rcx
.Ltmp157:
	xorl	%eax, %eax
	movl	%eax, %edx
	callq	_ZN4core3ptr9const_ptr33_$LT$impl$u20$$BP$const$u20$T$GT$13guaranteed_eq17hff95097659f63631E
	movb	%al, 47(%rsp)
	.cv_loc	64 15 41 0
	movb	47(%rsp), %al
	andb	$1, %al
	movzbl	%al, %eax
	addq	$72, %rsp
	retq
.Ltmp158:
.Lfunc_end63:
	.seh_endproc

	.def	_ZN4core3str21_$LT$impl$u20$str$GT$20eq_ignore_ascii_case17hd390e5300c2615faE;
	.scl	3;
	.type	32;
	.endef
	.section	.text,"xr",one_only,_ZN4core3str21_$LT$impl$u20$str$GT$20eq_ignore_ascii_case17hd390e5300c2615faE
	.p2align	4, 0x90
_ZN4core3str21_$LT$impl$u20$str$GT$20eq_ignore_ascii_case17hd390e5300c2615faE:
.Lfunc_begin64:
	.cv_func_id 65
	.cv_file	16 "/rustc/fe5b13d681f25ee6474be29d748c65adcd91f69e\\library\\core\\src\\str\\mod.rs" "93E00B39D838B71EF3DB56BF8513742693E5A253" 2
	.cv_loc	65 16 2384 0
.seh_proc _ZN4core3str21_$LT$impl$u20$str$GT$20eq_ignore_ascii_case17hd390e5300c2615faE
	subq	$184, %rsp
	.seh_stackalloc 184
	.seh_endprologue
	movq	%r9, 56(%rsp)
	movq	%r8, 64(%rsp)
	movq	%rcx, 88(%rsp)
	movq	%rdx, 96(%rsp)
	movq	%r8, 104(%rsp)
	movq	%r9, 112(%rsp)
	movq	%rcx, 152(%rsp)
	movq	%rdx, 160(%rsp)
.Ltmp159:
	.cv_inline_site_id 66 within 65 inlined_at 16 2385 0
	.cv_loc	66 16 326 0
	movq	%rcx, 168(%rsp)
	movq	%rdx, 176(%rsp)
	movq	168(%rsp), %rax
	movq	%rax, 72(%rsp)
	movq	176(%rsp), %rax
	movq	%rax, 80(%rsp)
.Ltmp160:
	.cv_inline_site_id 67 within 65 inlined_at 16 2385 0
	.cv_loc	67 16 326 0
	movq	56(%rsp), %rax
	movq	64(%rsp), %rcx
	movq	%rcx, 120(%rsp)
	movq	%rax, 128(%rsp)
.Ltmp161:
	movq	%rcx, 136(%rsp)
	movq	%rax, 144(%rsp)
	movq	136(%rsp), %rax
	movq	%rax, 40(%rsp)
	movq	144(%rsp), %rax
	movq	%rax, 48(%rsp)
.Ltmp162:
	.cv_loc	65 16 2385 0
	movq	48(%rsp), %r9
	movq	40(%rsp), %r8
	movq	80(%rsp), %rdx
	movq	72(%rsp), %rcx
	callq	_ZN4core5slice5ascii30_$LT$impl$u20$$u5b$u8$u5d$$GT$20eq_ignore_ascii_case17he34ff0992eb358c3E
	movb	%al, 39(%rsp)
	.cv_loc	65 16 2386 0
	movb	39(%rsp), %al
	andb	$1, %al
	movzbl	%al, %eax
	addq	$184, %rsp
	retq
.Ltmp163:
.Lfunc_end64:
	.seh_endproc

	.def	_ZN4core4hint9spin_loop17h2c8e725e846f1ccdE;
	.scl	3;
	.type	32;
	.endef
	.section	.text,"xr",one_only,_ZN4core4hint9spin_loop17h2c8e725e846f1ccdE
	.p2align	4, 0x90
_ZN4core4hint9spin_loop17h2c8e725e846f1ccdE:
.Lfunc_begin65:
	.cv_func_id 68
	.cv_file	17 "/rustc/fe5b13d681f25ee6474be29d748c65adcd91f69e\\library\\core\\src\\hint.rs" "2C246297CA38687610CDE154E48CDA5EDE93D9F8" 2
	.cv_loc	68 17 110 0
.seh_proc _ZN4core4hint9spin_loop17h2c8e725e846f1ccdE
	subq	$40, %rsp
	.seh_stackalloc 40
	.seh_endprologue
.Ltmp164:
	.cv_loc	68 17 122 0
	callq	_ZN4core9core_arch3x864sse29_mm_pause17h102d85781c4748fcE
	.cv_loc	68 17 155 0
	nop
	addq	$40, %rsp
	retq
.Ltmp165:
.Lfunc_end65:
	.seh_endproc

	.def	_ZN4core4iter6traits8iterator8Iterator3all17h38914eebca33fd3dE;
	.scl	2;
	.type	32;
	.endef
	.section	.text,"xr",one_only,_ZN4core4iter6traits8iterator8Iterator3all17h38914eebca33fd3dE
	.globl	_ZN4core4iter6traits8iterator8Iterator3all17h38914eebca33fd3dE
	.p2align	4, 0x90
_ZN4core4iter6traits8iterator8Iterator3all17h38914eebca33fd3dE:
.Lfunc_begin66:
	.cv_func_id 69
	.cv_file	18 "/rustc/fe5b13d681f25ee6474be29d748c65adcd91f69e\\library\\core\\src\\iter\\traits\\iterator.rs" "A071F56D5BBFC4ED1D7A3A337ECEC4BE1B8A7CC7" 2
	.cv_loc	69 18 2529 0
.seh_proc _ZN4core4iter6traits8iterator8Iterator3all17h38914eebca33fd3dE
	subq	$72, %rsp
	.seh_stackalloc 72
	.seh_endprologue
	movq	%rcx, 40(%rsp)
	movq	%rcx, 56(%rsp)
.Ltmp166:
	.cv_loc	69 18 2540 0
	callq	_ZN4core4iter6traits8iterator8Iterator3all5check17h7db93a0357ecba09E
	movq	40(%rsp), %rcx
	callq	_ZN4core4iter6traits8iterator8Iterator8try_fold17h5630217be3c48ac8E
	andb	$1, %al
	movb	%al, 55(%rsp)
	leaq	55(%rsp), %rcx
	leaq	__unnamed_5(%rip), %rdx
	callq	_ZN90_$LT$core..ops..control_flow..ControlFlow$LT$B$C$C$GT$$u20$as$u20$core..cmp..PartialEq$GT$2eq17h125725596078de97E
	movb	%al, 39(%rsp)
	.cv_loc	69 18 2541 0
	movb	39(%rsp), %al
	andb	$1, %al
	movzbl	%al, %eax
	addq	$72, %rsp
	retq
.Ltmp167:
.Lfunc_end66:
	.seh_endproc

	.def	_ZN4core4iter6traits8iterator8Iterator3all5check17h7db93a0357ecba09E;
	.scl	2;
	.type	32;
	.endef
	.section	.text,"xr",one_only,_ZN4core4iter6traits8iterator8Iterator3all5check17h7db93a0357ecba09E
	.globl	_ZN4core4iter6traits8iterator8Iterator3all5check17h7db93a0357ecba09E
	.p2align	4, 0x90
_ZN4core4iter6traits8iterator8Iterator3all5check17h7db93a0357ecba09E:
.Lfunc_begin67:
	.cv_func_id 70
	.cv_loc	70 18 2535 0
.seh_proc _ZN4core4iter6traits8iterator8Iterator3all5check17h7db93a0357ecba09E
	subq	$16, %rsp
	.seh_stackalloc 16
	.seh_endprologue
.Ltmp168:
	.cv_loc	70 18 2539 0
	addq	$16, %rsp
	retq
.Ltmp169:
.Lfunc_end67:
	.seh_endproc

	.def	_ZN4core4iter6traits8iterator8Iterator3all5check28_$u7b$$u7b$closure$u7d$$u7d$17hbbb389a15496225fE;
	.scl	2;
	.type	32;
	.endef
	.section	.text,"xr",one_only,_ZN4core4iter6traits8iterator8Iterator3all5check28_$u7b$$u7b$closure$u7d$$u7d$17hbbb389a15496225fE
	.globl	_ZN4core4iter6traits8iterator8Iterator3all5check28_$u7b$$u7b$closure$u7d$$u7d$17hbbb389a15496225fE
	.p2align	4, 0x90
_ZN4core4iter6traits8iterator8Iterator3all5check28_$u7b$$u7b$closure$u7d$$u7d$17hbbb389a15496225fE:
.Lfunc_begin68:
	.cv_func_id 71
	.cv_loc	71 18 2536 0
.seh_proc _ZN4core4iter6traits8iterator8Iterator3all5check28_$u7b$$u7b$closure$u7d$$u7d$17hbbb389a15496225fE
	subq	$88, %rsp
	.seh_stackalloc 88
	.seh_endprologue
	movq	%rcx, 56(%rsp)
	movq	%rdx, 72(%rsp)
	movq	%r8, 80(%rsp)
.Ltmp170:
	.cv_loc	71 18 2537 0
	movq	%rdx, 40(%rsp)
	movq	%r8, 48(%rsp)
	movq	40(%rsp), %rdx
	movq	48(%rsp), %r8
	callq	_ZN4core5slice5ascii30_$LT$impl$u20$$u5b$u8$u5d$$GT$20eq_ignore_ascii_case28_$u7b$$u7b$closure$u7d$$u7d$17h65883b03b8edfa79E
	movb	%al, 38(%rsp)
	movb	38(%rsp), %al
	testb	$1, %al
	jne	.LBB68_3
	jmp	.LBB68_2
.LBB68_2:
	movb	$1, 39(%rsp)
	jmp	.LBB68_4
.LBB68_3:
	movb	$0, 39(%rsp)
.LBB68_4:
	.cv_loc	71 18 2538 0
	movb	39(%rsp), %al
	andb	$1, %al
	movzbl	%al, %eax
	addq	$88, %rsp
	retq
.Ltmp171:
.Lfunc_end68:
	.seh_endproc

	.def	_ZN4core4iter6traits8iterator8Iterator3map17h4a2f868875fad492E;
	.scl	2;
	.type	32;
	.endef
	.section	.text,"xr",one_only,_ZN4core4iter6traits8iterator8Iterator3map17h4a2f868875fad492E
	.globl	_ZN4core4iter6traits8iterator8Iterator3map17h4a2f868875fad492E
	.p2align	4, 0x90
_ZN4core4iter6traits8iterator8Iterator3map17h4a2f868875fad492E:
.Lfunc_begin69:
	.cv_func_id 72
	.cv_loc	72 18 724 0
.seh_proc _ZN4core4iter6traits8iterator8Iterator3map17h4a2f868875fad492E
	subq	$72, %rsp
	.seh_stackalloc 72
	.seh_endprologue
	movq	%rcx, 48(%rsp)
	movq	%rdx, 56(%rsp)
.Ltmp172:
	.cv_loc	72 18 729 0
	callq	_ZN4core4iter8adapters3map16Map$LT$I$C$F$GT$3new17h8d9c55953881e439E
	movq	%rax, 32(%rsp)
	movq	%rdx, 40(%rsp)
	.cv_loc	72 18 730 0
	movq	40(%rsp), %rdx
	movq	32(%rsp), %rax
	addq	$72, %rsp
	retq
.Ltmp173:
.Lfunc_end69:
	.seh_endproc

	.def	_ZN4core4iter6traits8iterator8Iterator3map17h5f8c5b443b2bc66aE;
	.scl	2;
	.type	32;
	.endef
	.section	.text,"xr",one_only,_ZN4core4iter6traits8iterator8Iterator3map17h5f8c5b443b2bc66aE
	.globl	_ZN4core4iter6traits8iterator8Iterator3map17h5f8c5b443b2bc66aE
	.p2align	4, 0x90
_ZN4core4iter6traits8iterator8Iterator3map17h5f8c5b443b2bc66aE:
.Lfunc_begin70:
	.cv_func_id 73
	.cv_loc	73 18 724 0
.seh_proc _ZN4core4iter6traits8iterator8Iterator3map17h5f8c5b443b2bc66aE
	subq	$72, %rsp
	.seh_stackalloc 72
	.seh_endprologue
	movq	%rcx, 48(%rsp)
	movq	%rdx, 56(%rsp)
.Ltmp174:
	.cv_loc	73 18 729 0
	callq	_ZN4core4iter8adapters3map16Map$LT$I$C$F$GT$3new17h019b0c021c44c231E
	movq	%rax, 32(%rsp)
	movq	%rdx, 40(%rsp)
	.cv_loc	73 18 730 0
	movq	40(%rsp), %rdx
	movq	32(%rsp), %rax
	addq	$72, %rsp
	retq
.Ltmp175:
.Lfunc_end70:
	.seh_endproc

	.def	_ZN4core4iter6traits8iterator8Iterator3map17hb82e66b91b56a6c7E;
	.scl	2;
	.type	32;
	.endef
	.section	.text,"xr",one_only,_ZN4core4iter6traits8iterator8Iterator3map17hb82e66b91b56a6c7E
	.globl	_ZN4core4iter6traits8iterator8Iterator3map17hb82e66b91b56a6c7E
	.p2align	4, 0x90
_ZN4core4iter6traits8iterator8Iterator3map17hb82e66b91b56a6c7E:
.Lfunc_begin71:
	.cv_func_id 74
	.cv_loc	74 18 724 0
.seh_proc _ZN4core4iter6traits8iterator8Iterator3map17hb82e66b91b56a6c7E
	subq	$72, %rsp
	.seh_stackalloc 72
	.seh_endprologue
	movq	%rcx, 48(%rsp)
	movq	%rdx, 56(%rsp)
.Ltmp176:
	.cv_loc	74 18 729 0
	callq	_ZN4core4iter8adapters3map16Map$LT$I$C$F$GT$3new17h497a0c219bf5c56bE
	movq	%rax, 32(%rsp)
	movq	%rdx, 40(%rsp)
	.cv_loc	74 18 730 0
	movq	40(%rsp), %rdx
	movq	32(%rsp), %rax
	addq	$72, %rsp
	retq
.Ltmp177:
.Lfunc_end71:
	.seh_endproc

	.def	_ZN4core4iter6traits8iterator8Iterator4find17h860932188422169eE;
	.scl	2;
	.type	32;
	.endef
	.section	.text,"xr",one_only,_ZN4core4iter6traits8iterator8Iterator4find17h860932188422169eE
	.globl	_ZN4core4iter6traits8iterator8Iterator4find17h860932188422169eE
	.p2align	4, 0x90
_ZN4core4iter6traits8iterator8Iterator4find17h860932188422169eE:
.Lfunc_begin72:
	.cv_func_id 75
	.cv_loc	75 18 2642 0
.seh_proc _ZN4core4iter6traits8iterator8Iterator4find17h860932188422169eE
	subq	$104, %rsp
	.seh_stackalloc 104
	.seh_endprologue
	movq	%rdx, 64(%rsp)
	movq	%rcx, %rax
	movq	64(%rsp), %rcx
	movq	%rax, 72(%rsp)
	movq	%rax, 88(%rsp)
	movq	%rcx, 96(%rsp)
.Ltmp178:
	.cv_loc	75 18 2654 0
	callq	_ZN4core4iter6traits8iterator8Iterator4find5check17h4bb76cde207409a1E
	movq	%rax, 80(%rsp)
	movq	80(%rsp), %rdx
	movq	72(%rsp), %rcx
	callq	_ZN4core4iter6traits8iterator8Iterator8try_fold17h855498efeec6d246E
	movq	%rax, 48(%rsp)
	movq	%rdx, 56(%rsp)
	movq	56(%rsp), %rdx
	movq	48(%rsp), %rcx
	callq	_ZN4core3ops12control_flow24ControlFlow$LT$B$C$C$GT$11break_value17h60827ea1c8c8024bE
	movq	%rax, 32(%rsp)
	movq	%rdx, 40(%rsp)
	.cv_loc	75 18 2655 0
	movq	40(%rsp), %rdx
	movq	32(%rsp), %rax
	addq	$104, %rsp
	retq
.Ltmp179:
.Lfunc_end72:
	.seh_endproc

	.def	_ZN4core4iter6traits8iterator8Iterator4find5check17h4bb76cde207409a1E;
	.scl	2;
	.type	32;
	.endef
	.section	.text,"xr",one_only,_ZN4core4iter6traits8iterator8Iterator4find5check17h4bb76cde207409a1E
	.globl	_ZN4core4iter6traits8iterator8Iterator4find5check17h4bb76cde207409a1E
	.p2align	4, 0x90
_ZN4core4iter6traits8iterator8Iterator4find5check17h4bb76cde207409a1E:
.Lfunc_begin73:
	.cv_func_id 76
	.cv_loc	76 18 2648 0
.seh_proc _ZN4core4iter6traits8iterator8Iterator4find5check17h4bb76cde207409a1E
	subq	$16, %rsp
	.seh_stackalloc 16
	.seh_endprologue
	movq	%rcx, 8(%rsp)
.Ltmp180:
	.cv_loc	76 18 2649 0
	movq	%rcx, (%rsp)
	.cv_loc	76 18 2652 0
	movq	(%rsp), %rax
	addq	$16, %rsp
	retq
.Ltmp181:
.Lfunc_end73:
	.seh_endproc

	.def	_ZN4core4iter6traits8iterator8Iterator4find5check28_$u7b$$u7b$closure$u7d$$u7d$17h2417acd0217bd5d1E;
	.scl	2;
	.type	32;
	.endef
	.section	.text,"xr",one_only,_ZN4core4iter6traits8iterator8Iterator4find5check28_$u7b$$u7b$closure$u7d$$u7d$17h2417acd0217bd5d1E
	.globl	_ZN4core4iter6traits8iterator8Iterator4find5check28_$u7b$$u7b$closure$u7d$$u7d$17h2417acd0217bd5d1E
	.p2align	4, 0x90
_ZN4core4iter6traits8iterator8Iterator4find5check28_$u7b$$u7b$closure$u7d$$u7d$17h2417acd0217bd5d1E:
.Lfunc_begin74:
	.cv_func_id 77
	.cv_loc	77 18 2649 0
.seh_proc _ZN4core4iter6traits8iterator8Iterator4find5check28_$u7b$$u7b$closure$u7d$$u7d$17h2417acd0217bd5d1E
	.seh_handler __CxxFrameHandler3, @unwind, @except
	pushq	%rbp
	.seh_pushreg %rbp
	subq	$96, %rsp
	.seh_stackalloc 96
	leaq	96(%rsp), %rbp
	.seh_setframe %rbp, 96
	.seh_endprologue
	movq	$-2, -8(%rbp)
	movq	%rdx, -56(%rbp)
	movq	%rcx, -16(%rbp)
.Ltmp184:
	.cv_loc	77 18 2650 0
	movb	$0, -17(%rbp)
	movb	$1, -17(%rbp)
	leaq	-56(%rbp), %rax
	movq	%rax, -32(%rbp)
	movq	-32(%rbp), %rdx
.Ltmp182:
	callq	_ZN4core3ops8function5impls79_$LT$impl$u20$core..ops..function..FnMut$LT$A$GT$$u20$for$u20$$RF$mut$u20$F$GT$8call_mut17hb5688ecf8231de17E
.Ltmp183:
	movb	%al, -57(%rbp)
	jmp	.LBB74_2
.LBB74_2:
	movb	-57(%rbp), %al
	testb	$1, %al
	jne	.LBB74_4
	jmp	.LBB74_3
.LBB74_3:
	movq	$0, -48(%rbp)
	movq	%rax, -40(%rbp)
	jmp	.LBB74_5
.LBB74_4:
	movb	$0, -17(%rbp)
	movq	-56(%rbp), %rax
	movq	%rax, -40(%rbp)
	movq	$1, -48(%rbp)
.LBB74_5:
	.cv_loc	77 18 2651 0
	testb	$1, -17(%rbp)
	jne	.LBB74_7
.LBB74_6:
	movq	-48(%rbp), %rax
	movq	-40(%rbp), %rdx
	addq	$96, %rsp
	popq	%rbp
	retq
.LBB74_7:
	jmp	.LBB74_6
	.seh_handlerdata
	.long	($cppxdata$_ZN4core4iter6traits8iterator8Iterator4find5check28_$u7b$$u7b$closure$u7d$$u7d$17h2417acd0217bd5d1E)@IMGREL
	.section	.text,"xr",one_only,_ZN4core4iter6traits8iterator8Iterator4find5check28_$u7b$$u7b$closure$u7d$$u7d$17h2417acd0217bd5d1E
	.seh_endproc
	.def	"?dtor$1@?0?_ZN4core4iter6traits8iterator8Iterator4find5check28_$u7b$$u7b$closure$u7d$$u7d$17h2417acd0217bd5d1E@4HA";
	.scl	3;
	.type	32;
	.endef
	.p2align	4, 0x90
"?dtor$1@?0?_ZN4core4iter6traits8iterator8Iterator4find5check28_$u7b$$u7b$closure$u7d$$u7d$17h2417acd0217bd5d1E@4HA":
.seh_proc "?dtor$1@?0?_ZN4core4iter6traits8iterator8Iterator4find5check28_$u7b$$u7b$closure$u7d$$u7d$17h2417acd0217bd5d1E@4HA"
.LBB74_1:
	movq	%rdx, 16(%rsp)
	pushq	%rbp
	.seh_pushreg %rbp
	subq	$32, %rsp
	.seh_stackalloc 32
	leaq	96(%rdx), %rbp
	.seh_endprologue
	.cv_loc	77 18 2649 0
	addq	$32, %rsp
	popq	%rbp
	retq
.Ltmp185:
.Lfunc_end74:
	.seh_handlerdata
	.section	.text,"xr",one_only,_ZN4core4iter6traits8iterator8Iterator4find5check28_$u7b$$u7b$closure$u7d$$u7d$17h2417acd0217bd5d1E
	.seh_endproc
	.section	.xdata,"dr",associative,_ZN4core4iter6traits8iterator8Iterator4find5check28_$u7b$$u7b$closure$u7d$$u7d$17h2417acd0217bd5d1E
	.p2align	2
$cppxdata$_ZN4core4iter6traits8iterator8Iterator4find5check28_$u7b$$u7b$closure$u7d$$u7d$17h2417acd0217bd5d1E:
	.long	429065506
	.long	1
	.long	($stateUnwindMap$_ZN4core4iter6traits8iterator8Iterator4find5check28_$u7b$$u7b$closure$u7d$$u7d$17h2417acd0217bd5d1E)@IMGREL
	.long	0
	.long	0
	.long	3
	.long	($ip2state$_ZN4core4iter6traits8iterator8Iterator4find5check28_$u7b$$u7b$closure$u7d$$u7d$17h2417acd0217bd5d1E)@IMGREL
	.long	88
	.long	0
	.long	1
$stateUnwindMap$_ZN4core4iter6traits8iterator8Iterator4find5check28_$u7b$$u7b$closure$u7d$$u7d$17h2417acd0217bd5d1E:
	.long	-1
	.long	"?dtor$1@?0?_ZN4core4iter6traits8iterator8Iterator4find5check28_$u7b$$u7b$closure$u7d$$u7d$17h2417acd0217bd5d1E@4HA"@IMGREL
$ip2state$_ZN4core4iter6traits8iterator8Iterator4find5check28_$u7b$$u7b$closure$u7d$$u7d$17h2417acd0217bd5d1E:
	.long	.Lfunc_begin74@IMGREL
	.long	-1
	.long	.Ltmp182@IMGREL+1
	.long	0
	.long	.Ltmp183@IMGREL+1
	.long	-1
	.section	.text,"xr",one_only,_ZN4core4iter6traits8iterator8Iterator4find5check28_$u7b$$u7b$closure$u7d$$u7d$17h2417acd0217bd5d1E

	.def	_ZN4core4iter6traits8iterator8Iterator6filter17hfd5a30d06e9c86efE;
	.scl	2;
	.type	32;
	.endef
	.section	.text,"xr",one_only,_ZN4core4iter6traits8iterator8Iterator6filter17hfd5a30d06e9c86efE
	.globl	_ZN4core4iter6traits8iterator8Iterator6filter17hfd5a30d06e9c86efE
	.p2align	4, 0x90
_ZN4core4iter6traits8iterator8Iterator6filter17hfd5a30d06e9c86efE:
.Lfunc_begin75:
	.cv_func_id 78
	.cv_loc	78 18 844 0
.seh_proc _ZN4core4iter6traits8iterator8Iterator6filter17hfd5a30d06e9c86efE
	subq	$72, %rsp
	.seh_stackalloc 72
	.seh_endprologue
	movq	%rcx, 48(%rsp)
	movq	%rdx, 56(%rsp)
.Ltmp186:
	.cv_loc	78 18 849 0
	callq	_ZN4core4iter8adapters6filter19Filter$LT$I$C$P$GT$3new17hca6c7eb9d8e6005aE
	movq	%rax, 32(%rsp)
	movq	%rdx, 40(%rsp)
	.cv_loc	78 18 850 0
	movq	40(%rsp), %rdx
	movq	32(%rsp), %rax
	addq	$72, %rsp
	retq
.Ltmp187:
.Lfunc_end75:
	.seh_endproc

	.def	_ZN4core4iter6traits8iterator8Iterator8try_fold17h5630217be3c48ac8E;
	.scl	2;
	.type	32;
	.endef
	.section	.text,"xr",one_only,_ZN4core4iter6traits8iterator8Iterator8try_fold17h5630217be3c48ac8E
	.globl	_ZN4core4iter6traits8iterator8Iterator8try_fold17h5630217be3c48ac8E
	.p2align	4, 0x90
_ZN4core4iter6traits8iterator8Iterator8try_fold17h5630217be3c48ac8E:
.Lfunc_begin76:
	.cv_func_id 79
	.cv_loc	79 18 2178 0
.seh_proc _ZN4core4iter6traits8iterator8Iterator8try_fold17h5630217be3c48ac8E
	.seh_handler __CxxFrameHandler3, @unwind, @except
	pushq	%rbp
	.seh_pushreg %rbp
	subq	$160, %rsp
	.seh_stackalloc 160
	leaq	128(%rsp), %rbp
	.seh_setframe %rbp, 128
	.seh_endprologue
	movq	$-2, 24(%rbp)
	movq	%rcx, -64(%rbp)
	movq	%rcx, (%rbp)
.Ltmp198:
	.cv_loc	79 18 2184 0
	movb	$0, -1(%rbp)
	movb	$1, -1(%rbp)
.LBB76_1:
	.cv_loc	79 18 2185 0
.Ltmp188:
	movq	-64(%rbp), %rcx
.Ltmp199:
	callq	_ZN102_$LT$core..iter..adapters..zip..Zip$LT$A$C$B$GT$$u20$as$u20$core..iter..traits..iterator..Iterator$GT$4next17h09ecc82d88f51b69E
.Ltmp189:
	movq	%rdx, -80(%rbp)
	movq	%rax, -72(%rbp)
	jmp	.LBB76_3
.LBB76_3:
	movq	-80(%rbp), %rax
	movq	-72(%rbp), %rcx
	movq	%rcx, -48(%rbp)
	movq	%rax, -40(%rbp)
	movl	$1, %eax
	xorl	%ecx, %ecx
	cmpq	$0, -48(%rbp)
	cmoveq	%rcx, %rax
	cmpq	$1, %rax
	jne	.LBB76_5
	movq	-48(%rbp), %rcx
	movq	-40(%rbp), %rax
	movq	%rcx, 8(%rbp)
	movq	%rax, 16(%rbp)
	.cv_loc	79 18 2186 0
	movb	$0, -1(%rbp)
	movq	%rcx, -24(%rbp)
	movq	%rax, -16(%rbp)
	movq	-24(%rbp), %rdx
	movq	-16(%rbp), %r8
.Ltmp192:
	leaq	-56(%rbp), %rcx
	callq	_ZN4core4iter6traits8iterator8Iterator3all5check28_$u7b$$u7b$closure$u7d$$u7d$17hbbb389a15496225fE
.Ltmp193:
	movb	%al, -81(%rbp)
	jmp	.LBB76_8
.LBB76_5:
	.cv_loc	79 18 2188 0
	movb	$0, -1(%rbp)
.Ltmp190:
	callq	_ZN95_$LT$core..ops..control_flow..ControlFlow$LT$B$C$C$GT$$u20$as$u20$core..ops..try_trait..Try$GT$11from_output17h8416e31701352bc8E
.Ltmp191:
	movb	%al, -82(%rbp)
	jmp	.LBB76_6
.LBB76_6:
	movb	-82(%rbp), %al
	andb	$1, %al
	movb	%al, -49(%rbp)
.Ltmp200:
	.cv_loc	79 18 2189 0
	movb	$0, -1(%rbp)
.LBB76_7:
	movb	-49(%rbp), %al
	andb	$1, %al
	movzbl	%al, %eax
	addq	$160, %rsp
	popq	%rbp
	retq
.LBB76_8:
	.cv_loc	79 18 2186 0
.Ltmp194:
	movb	-81(%rbp), %cl
.Ltmp201:
	andb	$1, %cl
	callq	_ZN95_$LT$core..ops..control_flow..ControlFlow$LT$B$C$C$GT$$u20$as$u20$core..ops..try_trait..Try$GT$6branch17h58c1b4813aab06d8E
.Ltmp195:
	movb	%al, -83(%rbp)
	jmp	.LBB76_9
.LBB76_9:
	movb	-83(%rbp), %al
	andb	$1, %al
	movb	%al, -25(%rbp)
	movzbl	-25(%rbp), %eax
	testb	$1, %al
	je	.LBB76_11
	jmp	.LBB76_16
.LBB76_16:
	jmp	.LBB76_12
	ud2
.LBB76_11:
	movb	$1, -1(%rbp)
	.cv_loc	79 18 2185 0
	jmp	.LBB76_1
.LBB76_12:
	.cv_loc	79 18 2186 0
.Ltmp196:
.Ltmp202:
	callq	_ZN104_$LT$core..ops..control_flow..ControlFlow$LT$B$C$C$GT$$u20$as$u20$core..ops..try_trait..FromResidual$GT$13from_residual17h4a2d22356a7c8e1bE
.Ltmp197:
	movb	%al, -84(%rbp)
	jmp	.LBB76_13
.LBB76_13:
	movb	-84(%rbp), %al
	andb	$1, %al
	movb	%al, -49(%rbp)
.Ltmp203:
	.cv_loc	79 18 2189 0
	movb	$0, -1(%rbp)
	jmp	.LBB76_7
	.seh_handlerdata
	.long	($cppxdata$_ZN4core4iter6traits8iterator8Iterator8try_fold17h5630217be3c48ac8E)@IMGREL
	.section	.text,"xr",one_only,_ZN4core4iter6traits8iterator8Iterator8try_fold17h5630217be3c48ac8E
	.seh_endproc
	.def	"?dtor$2@?0?_ZN4core4iter6traits8iterator8Iterator8try_fold17h5630217be3c48ac8E@4HA";
	.scl	3;
	.type	32;
	.endef
	.p2align	4, 0x90
"?dtor$2@?0?_ZN4core4iter6traits8iterator8Iterator8try_fold17h5630217be3c48ac8E@4HA":
.seh_proc "?dtor$2@?0?_ZN4core4iter6traits8iterator8Iterator8try_fold17h5630217be3c48ac8E@4HA"
.LBB76_2:
	movq	%rdx, 16(%rsp)
	pushq	%rbp
	.seh_pushreg %rbp
	subq	$32, %rsp
	.seh_stackalloc 32
	leaq	128(%rdx), %rbp
	.seh_endprologue
	testb	$1, -1(%rbp)
	jne	.LBB76_15
	jmp	.LBB76_14
.LBB76_14:
	.cv_loc	79 18 2178 0
	addq	$32, %rsp
	popq	%rbp
	retq
.LBB76_15:
	.cv_loc	79 18 2189 0
	jmp	.LBB76_14
.Ltmp204:
.Lfunc_end76:
	.seh_handlerdata
	.section	.text,"xr",one_only,_ZN4core4iter6traits8iterator8Iterator8try_fold17h5630217be3c48ac8E
	.seh_endproc
	.section	.xdata,"dr",associative,_ZN4core4iter6traits8iterator8Iterator8try_fold17h5630217be3c48ac8E
	.p2align	2
$cppxdata$_ZN4core4iter6traits8iterator8Iterator8try_fold17h5630217be3c48ac8E:
	.long	429065506
	.long	1
	.long	($stateUnwindMap$_ZN4core4iter6traits8iterator8Iterator8try_fold17h5630217be3c48ac8E)@IMGREL
	.long	0
	.long	0
	.long	3
	.long	($ip2state$_ZN4core4iter6traits8iterator8Iterator8try_fold17h5630217be3c48ac8E)@IMGREL
	.long	152
	.long	0
	.long	1
$stateUnwindMap$_ZN4core4iter6traits8iterator8Iterator8try_fold17h5630217be3c48ac8E:
	.long	-1
	.long	"?dtor$2@?0?_ZN4core4iter6traits8iterator8Iterator8try_fold17h5630217be3c48ac8E@4HA"@IMGREL
$ip2state$_ZN4core4iter6traits8iterator8Iterator8try_fold17h5630217be3c48ac8E:
	.long	.Lfunc_begin76@IMGREL
	.long	-1
	.long	.Ltmp188@IMGREL+1
	.long	0
	.long	.Ltmp197@IMGREL+1
	.long	-1
	.section	.text,"xr",one_only,_ZN4core4iter6traits8iterator8Iterator8try_fold17h5630217be3c48ac8E

	.def	_ZN4core4iter6traits8iterator8Iterator8try_fold17h855498efeec6d246E;
	.scl	2;
	.type	32;
	.endef
	.section	.text,"xr",one_only,_ZN4core4iter6traits8iterator8Iterator8try_fold17h855498efeec6d246E
	.globl	_ZN4core4iter6traits8iterator8Iterator8try_fold17h855498efeec6d246E
	.p2align	4, 0x90
_ZN4core4iter6traits8iterator8Iterator8try_fold17h855498efeec6d246E:
.Lfunc_begin77:
	.cv_func_id 80
	.cv_loc	80 18 2178 0
.seh_proc _ZN4core4iter6traits8iterator8Iterator8try_fold17h855498efeec6d246E
	.seh_handler __CxxFrameHandler3, @unwind, @except
	pushq	%rbp
	.seh_pushreg %rbp
	subq	$224, %rsp
	.seh_stackalloc 224
	leaq	128(%rsp), %rbp
	.seh_setframe %rbp, 128
	.seh_endprologue
	movq	$-2, 88(%rbp)
	movq	%rcx, -16(%rbp)
	movq	%rdx, -8(%rbp)
	movq	%rcx, 64(%rbp)
.Ltmp215:
	.cv_loc	80 18 2184 0
	movb	$0, 63(%rbp)
	movb	$1, 63(%rbp)
.LBB77_1:
	.cv_loc	80 18 2185 0
.Ltmp205:
	movq	-16(%rbp), %rcx
.Ltmp216:
	callq	_ZN90_$LT$core..option..IntoIter$LT$A$GT$$u20$as$u20$core..iter..traits..iterator..Iterator$GT$4next17hc372f4100af765f7E
.Ltmp206:
	movq	%rdx, -32(%rbp)
	movq	%rax, -24(%rbp)
	jmp	.LBB77_3
.LBB77_3:
	movq	-32(%rbp), %rax
	movq	-24(%rbp), %rcx
	movq	%rcx, 16(%rbp)
	movq	%rax, 24(%rbp)
	cmpq	$1, 16(%rbp)
	jne	.LBB77_5
	movq	24(%rbp), %rax
	movq	%rax, 72(%rbp)
	.cv_loc	80 18 2186 0
	movb	$0, 63(%rbp)
	movq	%rax, 48(%rbp)
	movq	48(%rbp), %rdx
.Ltmp209:
	leaq	-8(%rbp), %rcx
	callq	_ZN4core4iter6traits8iterator8Iterator4find5check28_$u7b$$u7b$closure$u7d$$u7d$17h2417acd0217bd5d1E
.Ltmp210:
	movq	%rdx, -48(%rbp)
	movq	%rax, -40(%rbp)
	jmp	.LBB77_8
.LBB77_5:
	.cv_loc	80 18 2188 0
	movb	$0, 63(%rbp)
.Ltmp207:
	callq	_ZN95_$LT$core..ops..control_flow..ControlFlow$LT$B$C$C$GT$$u20$as$u20$core..ops..try_trait..Try$GT$11from_output17hcefc1400a97143c3E
.Ltmp208:
	movq	%rdx, -64(%rbp)
	movq	%rax, -56(%rbp)
	jmp	.LBB77_6
.LBB77_6:
	movq	-64(%rbp), %rax
	movq	-56(%rbp), %rcx
	movq	%rcx, (%rbp)
	movq	%rax, 8(%rbp)
.Ltmp217:
	.cv_loc	80 18 2189 0
	movb	$0, 63(%rbp)
.LBB77_7:
	movq	(%rbp), %rax
	movq	8(%rbp), %rdx
	addq	$224, %rsp
	popq	%rbp
	retq
.LBB77_8:
	.cv_loc	80 18 2186 0
.Ltmp211:
	movq	-48(%rbp), %rdx
	movq	-40(%rbp), %rcx
.Ltmp218:
	callq	_ZN95_$LT$core..ops..control_flow..ControlFlow$LT$B$C$C$GT$$u20$as$u20$core..ops..try_trait..Try$GT$6branch17ha5be5d2cde4be412E
.Ltmp212:
	movq	%rdx, -80(%rbp)
	movq	%rax, -72(%rbp)
	jmp	.LBB77_9
.LBB77_9:
	movq	-80(%rbp), %rax
	movq	-72(%rbp), %rcx
	movq	%rcx, 32(%rbp)
	movq	%rax, 40(%rbp)
	movq	32(%rbp), %rax
	testq	%rax, %rax
	je	.LBB77_11
	jmp	.LBB77_16
.LBB77_16:
	jmp	.LBB77_12
	ud2
.LBB77_11:
	movb	$1, 63(%rbp)
	.cv_loc	80 18 2185 0
	jmp	.LBB77_1
.LBB77_12:
	.cv_loc	80 18 2186 0
	movq	40(%rbp), %rcx
	movq	%rcx, 80(%rbp)
	.cv_loc	80 18 2186 0
.Ltmp213:
.Ltmp219:
	callq	_ZN104_$LT$core..ops..control_flow..ControlFlow$LT$B$C$C$GT$$u20$as$u20$core..ops..try_trait..FromResidual$GT$13from_residual17h2913dfedb7a29910E
.Ltmp214:
	movq	%rdx, -96(%rbp)
	movq	%rax, -88(%rbp)
	jmp	.LBB77_13
.LBB77_13:
	movq	-96(%rbp), %rax
	movq	-88(%rbp), %rcx
	movq	%rcx, (%rbp)
	movq	%rax, 8(%rbp)
.Ltmp220:
	.cv_loc	80 18 2189 0
	movb	$0, 63(%rbp)
	jmp	.LBB77_7
	.seh_handlerdata
	.long	($cppxdata$_ZN4core4iter6traits8iterator8Iterator8try_fold17h855498efeec6d246E)@IMGREL
	.section	.text,"xr",one_only,_ZN4core4iter6traits8iterator8Iterator8try_fold17h855498efeec6d246E
	.seh_endproc
	.def	"?dtor$2@?0?_ZN4core4iter6traits8iterator8Iterator8try_fold17h855498efeec6d246E@4HA";
	.scl	3;
	.type	32;
	.endef
	.p2align	4, 0x90
"?dtor$2@?0?_ZN4core4iter6traits8iterator8Iterator8try_fold17h855498efeec6d246E@4HA":
.seh_proc "?dtor$2@?0?_ZN4core4iter6traits8iterator8Iterator8try_fold17h855498efeec6d246E@4HA"
.LBB77_2:
	movq	%rdx, 16(%rsp)
	pushq	%rbp
	.seh_pushreg %rbp
	subq	$32, %rsp
	.seh_stackalloc 32
	leaq	128(%rdx), %rbp
	.seh_endprologue
	testb	$1, 63(%rbp)
	jne	.LBB77_15
	jmp	.LBB77_14
.LBB77_14:
	.cv_loc	80 18 2178 0
	addq	$32, %rsp
	popq	%rbp
	retq
.LBB77_15:
	.cv_loc	80 18 2189 0
	jmp	.LBB77_14
.Ltmp221:
.Lfunc_end77:
	.seh_handlerdata
	.section	.text,"xr",one_only,_ZN4core4iter6traits8iterator8Iterator8try_fold17h855498efeec6d246E
	.seh_endproc
	.section	.xdata,"dr",associative,_ZN4core4iter6traits8iterator8Iterator8try_fold17h855498efeec6d246E
	.p2align	2
$cppxdata$_ZN4core4iter6traits8iterator8Iterator8try_fold17h855498efeec6d246E:
	.long	429065506
	.long	1
	.long	($stateUnwindMap$_ZN4core4iter6traits8iterator8Iterator8try_fold17h855498efeec6d246E)@IMGREL
	.long	0
	.long	0
	.long	3
	.long	($ip2state$_ZN4core4iter6traits8iterator8Iterator8try_fold17h855498efeec6d246E)@IMGREL
	.long	216
	.long	0
	.long	1
$stateUnwindMap$_ZN4core4iter6traits8iterator8Iterator8try_fold17h855498efeec6d246E:
	.long	-1
	.long	"?dtor$2@?0?_ZN4core4iter6traits8iterator8Iterator8try_fold17h855498efeec6d246E@4HA"@IMGREL
$ip2state$_ZN4core4iter6traits8iterator8Iterator8try_fold17h855498efeec6d246E:
	.long	.Lfunc_begin77@IMGREL
	.long	-1
	.long	.Ltmp205@IMGREL+1
	.long	0
	.long	.Ltmp214@IMGREL+1
	.long	-1
	.section	.text,"xr",one_only,_ZN4core4iter6traits8iterator8Iterator8try_fold17h855498efeec6d246E

	.def	_ZN4core4iter8adapters3map16Map$LT$I$C$F$GT$3new17h019b0c021c44c231E;
	.scl	2;
	.type	32;
	.endef
	.section	.text,"xr",one_only,_ZN4core4iter8adapters3map16Map$LT$I$C$F$GT$3new17h019b0c021c44c231E
	.globl	_ZN4core4iter8adapters3map16Map$LT$I$C$F$GT$3new17h019b0c021c44c231E
	.p2align	4, 0x90
_ZN4core4iter8adapters3map16Map$LT$I$C$F$GT$3new17h019b0c021c44c231E:
.Lfunc_begin78:
	.cv_func_id 81
	.cv_loc	81 1 68 0
.seh_proc _ZN4core4iter8adapters3map16Map$LT$I$C$F$GT$3new17h019b0c021c44c231E
	subq	$40, %rsp
	.seh_stackalloc 40
	.seh_endprologue
	movq	%rcx, 16(%rsp)
	movq	%rdx, 24(%rsp)
.Ltmp222:
	.cv_loc	81 1 69 0
	movq	%rcx, (%rsp)
	movq	%rdx, 8(%rsp)
	.cv_loc	81 1 70 0
	movq	(%rsp), %rax
	movq	8(%rsp), %rdx
	addq	$40, %rsp
	retq
.Ltmp223:
.Lfunc_end78:
	.seh_endproc

	.def	_ZN4core4iter8adapters3map16Map$LT$I$C$F$GT$3new17h497a0c219bf5c56bE;
	.scl	2;
	.type	32;
	.endef
	.section	.text,"xr",one_only,_ZN4core4iter8adapters3map16Map$LT$I$C$F$GT$3new17h497a0c219bf5c56bE
	.globl	_ZN4core4iter8adapters3map16Map$LT$I$C$F$GT$3new17h497a0c219bf5c56bE
	.p2align	4, 0x90
_ZN4core4iter8adapters3map16Map$LT$I$C$F$GT$3new17h497a0c219bf5c56bE:
.Lfunc_begin79:
	.cv_func_id 82
	.cv_loc	82 1 68 0
.seh_proc _ZN4core4iter8adapters3map16Map$LT$I$C$F$GT$3new17h497a0c219bf5c56bE
	subq	$40, %rsp
	.seh_stackalloc 40
	.seh_endprologue
	movq	%rcx, 16(%rsp)
	movq	%rdx, 24(%rsp)
.Ltmp224:
	.cv_loc	82 1 69 0
	movq	%rcx, (%rsp)
	movq	%rdx, 8(%rsp)
	.cv_loc	82 1 70 0
	movq	(%rsp), %rax
	movq	8(%rsp), %rdx
	addq	$40, %rsp
	retq
.Ltmp225:
.Lfunc_end79:
	.seh_endproc

	.def	_ZN4core4iter8adapters3map16Map$LT$I$C$F$GT$3new17h8d9c55953881e439E;
	.scl	2;
	.type	32;
	.endef
	.section	.text,"xr",one_only,_ZN4core4iter8adapters3map16Map$LT$I$C$F$GT$3new17h8d9c55953881e439E
	.globl	_ZN4core4iter8adapters3map16Map$LT$I$C$F$GT$3new17h8d9c55953881e439E
	.p2align	4, 0x90
_ZN4core4iter8adapters3map16Map$LT$I$C$F$GT$3new17h8d9c55953881e439E:
.Lfunc_begin80:
	.cv_func_id 83
	.cv_loc	83 1 68 0
.seh_proc _ZN4core4iter8adapters3map16Map$LT$I$C$F$GT$3new17h8d9c55953881e439E
	subq	$40, %rsp
	.seh_stackalloc 40
	.seh_endprologue
	movq	%rcx, 16(%rsp)
	movq	%rdx, 24(%rsp)
.Ltmp226:
	.cv_loc	83 1 69 0
	movq	%rcx, (%rsp)
	movq	%rdx, 8(%rsp)
	.cv_loc	83 1 70 0
	movq	(%rsp), %rax
	movq	8(%rsp), %rdx
	addq	$40, %rsp
	retq
.Ltmp227:
.Lfunc_end80:
	.seh_endproc

	.def	_ZN4core4iter8adapters3zip27TrustedRandomAccessNoCoerce4size17h11b231b420bbaf0eE;
	.scl	2;
	.type	32;
	.endef
	.section	.text,"xr",one_only,_ZN4core4iter8adapters3zip27TrustedRandomAccessNoCoerce4size17h11b231b420bbaf0eE
	.globl	_ZN4core4iter8adapters3zip27TrustedRandomAccessNoCoerce4size17h11b231b420bbaf0eE
	.p2align	4, 0x90
_ZN4core4iter8adapters3zip27TrustedRandomAccessNoCoerce4size17h11b231b420bbaf0eE:
.Lfunc_begin81:
	.cv_func_id 84
	.cv_loc	84 2 539 0
.seh_proc _ZN4core4iter8adapters3zip27TrustedRandomAccessNoCoerce4size17h11b231b420bbaf0eE
	subq	$72, %rsp
	.seh_stackalloc 72
	.seh_endprologue
	movq	%rcx, %rdx
	movq	%rdx, 64(%rsp)
.Ltmp228:
	.cv_loc	84 2 543 0
	leaq	40(%rsp), %rcx
	callq	_ZN91_$LT$core..slice..iter..Iter$LT$T$GT$$u20$as$u20$core..iter..traits..iterator..Iterator$GT$9size_hint17hb01d0aac6c767708E
	movq	40(%rsp), %rax
	.cv_loc	84 2 544 0
	addq	$72, %rsp
	retq
.Ltmp229:
.Lfunc_end81:
	.seh_endproc

	.def	_ZN4core4iter8adapters3zip3zip17hedfd02938a83c930E;
	.scl	2;
	.type	32;
	.endef
	.section	.text,"xr",one_only,_ZN4core4iter8adapters3zip3zip17hedfd02938a83c930E
	.globl	_ZN4core4iter8adapters3zip3zip17hedfd02938a83c930E
	.p2align	4, 0x90
_ZN4core4iter8adapters3zip3zip17hedfd02938a83c930E:
.Lfunc_begin82:
	.cv_func_id 85
	.cv_loc	85 2 66 0
.seh_proc _ZN4core4iter8adapters3zip3zip17hedfd02938a83c930E
	.seh_handler __CxxFrameHandler3, @unwind, @except
	pushq	%rbp
	.seh_pushreg %rbp
	subq	$192, %rsp
	.seh_stackalloc 192
	leaq	128(%rsp), %rbp
	.seh_setframe %rbp, 128
	.seh_endprologue
	movq	$-2, 56(%rbp)
	movq	%r9, -48(%rbp)
	movq	%r8, -40(%rbp)
	movq	%rdx, %rax
	movq	-40(%rbp), %rdx
	movq	%rax, -32(%rbp)
	movq	%rcx, %rax
	movq	-32(%rbp), %rcx
	movq	%rax, -24(%rbp)
	movq	%rax, -16(%rbp)
	movq	112(%rbp), %rax
	movq	%rax, -8(%rbp)
	movq	%rcx, 24(%rbp)
	movq	%rdx, 32(%rbp)
	movq	%r9, 40(%rbp)
	movq	%rax, 48(%rbp)
.Ltmp236:
	.cv_loc	85 2 71 0
	movb	$0, 23(%rbp)
	movb	$0, 22(%rbp)
	movb	$1, 23(%rbp)
.Ltmp230:
	callq	_ZN4core5slice4iter87_$LT$impl$u20$core..iter..traits..collect..IntoIterator$u20$for$u20$$RF$$u5b$T$u5d$$GT$9into_iter17hafd0476aa4960030E
.Ltmp231:
	movq	%rdx, (%rbp)
	movq	%rax, 8(%rbp)
	jmp	.LBB82_2
.LBB82_2:
	movq	-8(%rbp), %rdx
	movq	-48(%rbp), %rcx
	movq	(%rbp), %rax
	movq	8(%rbp), %r8
	movq	%r8, -80(%rbp)
	movq	%rax, -72(%rbp)
	movb	$1, 22(%rbp)
	movb	$0, 23(%rbp)
.Ltmp232:
	callq	_ZN4core5slice4iter87_$LT$impl$u20$core..iter..traits..collect..IntoIterator$u20$for$u20$$RF$$u5b$T$u5d$$GT$9into_iter17hafd0476aa4960030E
.Ltmp233:
	movq	%rdx, -64(%rbp)
	movq	%rax, -56(%rbp)
	jmp	.LBB82_4
.LBB82_4:
	movq	-56(%rbp), %r9
	movq	-72(%rbp), %r8
	movq	-80(%rbp), %rdx
	movq	-24(%rbp), %rcx
	movq	-64(%rbp), %r10
	movb	$0, 22(%rbp)
.Ltmp234:
	movq	%rsp, %rax
	movq	%r10, 32(%rax)
	callq	_ZN111_$LT$core..iter..adapters..zip..Zip$LT$A$C$B$GT$$u20$as$u20$core..iter..adapters..zip..ZipImpl$LT$A$C$B$GT$$GT$3new17h6c7670a475a290c5E
.Ltmp235:
	jmp	.LBB82_5
.LBB82_5:
	movq	-16(%rbp), %rax
	movb	$0, 22(%rbp)
	.cv_loc	85 2 72 0
	addq	$192, %rsp
	popq	%rbp
	retq
	.seh_handlerdata
	.long	($cppxdata$_ZN4core4iter8adapters3zip3zip17hedfd02938a83c930E)@IMGREL
	.section	.text,"xr",one_only,_ZN4core4iter8adapters3zip3zip17hedfd02938a83c930E
	.seh_endproc
	.def	"?dtor$1@?0?_ZN4core4iter8adapters3zip3zip17hedfd02938a83c930E@4HA";
	.scl	3;
	.type	32;
	.endef
	.p2align	4, 0x90
"?dtor$1@?0?_ZN4core4iter8adapters3zip3zip17hedfd02938a83c930E@4HA":
.seh_proc "?dtor$1@?0?_ZN4core4iter8adapters3zip3zip17hedfd02938a83c930E@4HA"
.LBB82_1:
	movq	%rdx, 16(%rsp)
	pushq	%rbp
	.seh_pushreg %rbp
	subq	$48, %rsp
	.seh_stackalloc 48
	leaq	128(%rdx), %rbp
	.seh_endprologue
	testb	$1, 23(%rbp)
	jne	.LBB82_9
	jmp	.LBB82_8
.LBB82_8:
	.cv_loc	85 2 66 0
	addq	$48, %rsp
	popq	%rbp
	retq
.LBB82_9:
	.cv_loc	85 2 72 0
	jmp	.LBB82_8
	.seh_handlerdata
	.section	.text,"xr",one_only,_ZN4core4iter8adapters3zip3zip17hedfd02938a83c930E
	.seh_endproc
	.def	"?dtor$3@?0?_ZN4core4iter8adapters3zip3zip17hedfd02938a83c930E@4HA";
	.scl	3;
	.type	32;
	.endef
	.p2align	4, 0x90
"?dtor$3@?0?_ZN4core4iter8adapters3zip3zip17hedfd02938a83c930E@4HA":
.seh_proc "?dtor$3@?0?_ZN4core4iter8adapters3zip3zip17hedfd02938a83c930E@4HA"
.LBB82_3:
	movq	%rdx, 16(%rsp)
	pushq	%rbp
	.seh_pushreg %rbp
	subq	$48, %rsp
	.seh_stackalloc 48
	leaq	128(%rdx), %rbp
	.seh_endprologue
	.cv_loc	85 2 71 0
	testb	$1, 22(%rbp)
	jne	.LBB82_7
	jmp	.LBB82_6
.LBB82_6:
	addq	$48, %rsp
	popq	%rbp
	retq
.LBB82_7:
	addq	$48, %rsp
	popq	%rbp
	retq
.Ltmp237:
.Lfunc_end82:
	.seh_handlerdata
	.section	.text,"xr",one_only,_ZN4core4iter8adapters3zip3zip17hedfd02938a83c930E
	.seh_endproc
	.section	.xdata,"dr",associative,_ZN4core4iter8adapters3zip3zip17hedfd02938a83c930E
	.p2align	2
$cppxdata$_ZN4core4iter8adapters3zip3zip17hedfd02938a83c930E:
	.long	429065506
	.long	2
	.long	($stateUnwindMap$_ZN4core4iter8adapters3zip3zip17hedfd02938a83c930E)@IMGREL
	.long	0
	.long	0
	.long	4
	.long	($ip2state$_ZN4core4iter8adapters3zip3zip17hedfd02938a83c930E)@IMGREL
	.long	184
	.long	0
	.long	1
$stateUnwindMap$_ZN4core4iter8adapters3zip3zip17hedfd02938a83c930E:
	.long	-1
	.long	"?dtor$1@?0?_ZN4core4iter8adapters3zip3zip17hedfd02938a83c930E@4HA"@IMGREL
	.long	0
	.long	"?dtor$3@?0?_ZN4core4iter8adapters3zip3zip17hedfd02938a83c930E@4HA"@IMGREL
$ip2state$_ZN4core4iter8adapters3zip3zip17hedfd02938a83c930E:
	.long	.Lfunc_begin82@IMGREL
	.long	-1
	.long	.Ltmp230@IMGREL+1
	.long	0
	.long	.Ltmp232@IMGREL+1
	.long	1
	.long	.Ltmp235@IMGREL+1
	.long	-1
	.section	.text,"xr",one_only,_ZN4core4iter8adapters3zip3zip17hedfd02938a83c930E

	.def	_ZN4core4iter8adapters6filter19Filter$LT$I$C$P$GT$3new17hca6c7eb9d8e6005aE;
	.scl	2;
	.type	32;
	.endef
	.section	.text,"xr",one_only,_ZN4core4iter8adapters6filter19Filter$LT$I$C$P$GT$3new17hca6c7eb9d8e6005aE
	.globl	_ZN4core4iter8adapters6filter19Filter$LT$I$C$P$GT$3new17hca6c7eb9d8e6005aE
	.p2align	4, 0x90
_ZN4core4iter8adapters6filter19Filter$LT$I$C$P$GT$3new17hca6c7eb9d8e6005aE:
.Lfunc_begin83:
	.cv_func_id 86
	.cv_loc	86 4 21 0
.seh_proc _ZN4core4iter8adapters6filter19Filter$LT$I$C$P$GT$3new17hca6c7eb9d8e6005aE
	subq	$40, %rsp
	.seh_stackalloc 40
	.seh_endprologue
	movq	%rcx, 16(%rsp)
	movq	%rdx, 24(%rsp)
.Ltmp238:
	.cv_loc	86 4 22 0
	movq	%rcx, (%rsp)
	movq	%rdx, 8(%rsp)
	.cv_loc	86 4 23 0
	movq	(%rsp), %rax
	movq	8(%rsp), %rdx
	addq	$40, %rsp
	retq
.Ltmp239:
.Lfunc_end83:
	.seh_endproc

	.def	_ZN4core4sync6atomic11AtomicUsize16compare_exchange17h56a5e7233944c95bE;
	.scl	3;
	.type	32;
	.endef
	.section	.text,"xr",one_only,_ZN4core4sync6atomic11AtomicUsize16compare_exchange17h56a5e7233944c95bE
	.p2align	4, 0x90
_ZN4core4sync6atomic11AtomicUsize16compare_exchange17h56a5e7233944c95bE:
.Lfunc_begin84:
	.cv_func_id 87
	.cv_file	19 "/rustc/fe5b13d681f25ee6474be29d748c65adcd91f69e\\library\\core\\src\\sync\\atomic.rs" "888824658D0CE35948E2EC34EEB180666DCFB7CF" 2
	.cv_loc	87 19 1871 0
.seh_proc _ZN4core4sync6atomic11AtomicUsize16compare_exchange17h56a5e7233944c95bE
	subq	$136, %rsp
	.seh_stackalloc 136
	.seh_endprologue
	movb	%r9b, 63(%rsp)
	movq	%r8, 64(%rsp)
	movq	%rdx, 72(%rsp)
	movb	176(%rsp), %al
	movb	%al, 87(%rsp)
	movq	%rcx, 96(%rsp)
	movq	%rdx, 104(%rsp)
	movq	%r8, 112(%rsp)
	movb	%r9b, 127(%rsp)
	movq	%rcx, 88(%rsp)
	movq	%rcx, 128(%rsp)
	.cv_loc	87 19 1877 0
	movb	87(%rsp), %al
	movb	63(%rsp), %r9b
	movq	64(%rsp), %r8
	movq	72(%rsp), %rdx
	movq	88(%rsp), %rcx
.Ltmp240:
	movb	%al, 32(%rsp)
	callq	_ZN4core4sync6atomic23atomic_compare_exchange17hd916544e64fc8061E
	movq	%rax, 40(%rsp)
	movq	%rdx, 48(%rsp)
	.cv_loc	87 19 1878 0
	movq	48(%rsp), %rdx
	movq	40(%rsp), %rax
	addq	$136, %rsp
	retq
.Ltmp241:
.Lfunc_end84:
	.seh_endproc

	.def	_ZN4core4sync6atomic11AtomicUsize4load17h848325e4fa62f54eE;
	.scl	3;
	.type	32;
	.endef
	.section	.text,"xr",one_only,_ZN4core4sync6atomic11AtomicUsize4load17h848325e4fa62f54eE
	.p2align	4, 0x90
_ZN4core4sync6atomic11AtomicUsize4load17h848325e4fa62f54eE:
.Lfunc_begin85:
	.cv_func_id 88
	.cv_loc	88 19 1707 0
.seh_proc _ZN4core4sync6atomic11AtomicUsize4load17h848325e4fa62f54eE
	subq	$88, %rsp
	.seh_stackalloc 88
	.seh_endprologue
	movb	%dl, 55(%rsp)
	movq	%rcx, 64(%rsp)
	movb	%dl, 79(%rsp)
	movq	%rcx, 56(%rsp)
	movq	%rcx, 80(%rsp)
	.cv_loc	88 19 1709 0
	movb	55(%rsp), %dl
	movq	56(%rsp), %rcx
.Ltmp242:
	callq	_ZN4core4sync6atomic11atomic_load17h9f81690d1c766ea6E
	movq	%rax, 40(%rsp)
	.cv_loc	88 19 1710 0
	movq	40(%rsp), %rax
	addq	$88, %rsp
	retq
.Ltmp243:
.Lfunc_end85:
	.seh_endproc

	.def	_ZN4core4sync6atomic11AtomicUsize5store17h86541f727ce5762fE;
	.scl	3;
	.type	32;
	.endef
	.section	.text,"xr",one_only,_ZN4core4sync6atomic11AtomicUsize5store17h86541f727ce5762fE
	.p2align	4, 0x90
_ZN4core4sync6atomic11AtomicUsize5store17h86541f727ce5762fE:
.Lfunc_begin86:
	.cv_func_id 89
	.cv_loc	89 19 1733 0
.seh_proc _ZN4core4sync6atomic11AtomicUsize5store17h86541f727ce5762fE
	subq	$88, %rsp
	.seh_stackalloc 88
	.seh_endprologue
	movb	%r8b, 39(%rsp)
	movq	%rdx, 40(%rsp)
	movq	%rcx, 56(%rsp)
	movq	%rdx, 64(%rsp)
	movb	%r8b, 79(%rsp)
	movq	%rcx, 48(%rsp)
	movq	%rcx, 80(%rsp)
	.cv_loc	89 19 1735 0
	movb	39(%rsp), %r8b
	movq	40(%rsp), %rdx
	movq	48(%rsp), %rcx
.Ltmp244:
	callq	_ZN4core4sync6atomic12atomic_store17h3376afd0f6139e9eE
	.cv_loc	89 19 1736 0
	nop
	addq	$88, %rsp
	retq
.Ltmp245:
.Lfunc_end86:
	.seh_endproc

	.def	_ZN4core4sync6atomic11atomic_load17h9f81690d1c766ea6E;
	.scl	2;
	.type	32;
	.endef
	.section	.text,"xr",one_only,_ZN4core4sync6atomic11atomic_load17h9f81690d1c766ea6E
	.globl	_ZN4core4sync6atomic11atomic_load17h9f81690d1c766ea6E
	.p2align	4, 0x90
_ZN4core4sync6atomic11atomic_load17h9f81690d1c766ea6E:
.Lfunc_begin87:
	.cv_func_id 90
	.cv_loc	90 19 2566 0
.seh_proc _ZN4core4sync6atomic11atomic_load17h9f81690d1c766ea6E
	subq	$184, %rsp
	.seh_stackalloc 184
	.seh_endprologue
	movq	%rcx, 48(%rsp)
	movb	%dl, 71(%rsp)
	movq	%rcx, 176(%rsp)
.Ltmp246:
	.cv_loc	90 19 2569 0
	movzbl	71(%rsp), %eax
	movq	%rax, 56(%rsp)
	movq	56(%rsp), %rax
	leaq	.LJTI87_0(%rip), %rcx
	movslq	(%rcx,%rax,4), %rax
	addq	%rcx, %rax
	jmpq	*%rax
	ud2
.LBB87_2:
	.cv_loc	90 19 2571 0
	movq	48(%rsp), %rax
	movq	(%rax), %rax
	movq	%rax, 72(%rsp)
	jmp	.LBB87_12
.LBB87_3:
	.cv_loc	90 19 2573 0
	leaq	80(%rsp), %rcx
	leaq	__unnamed_6(%rip), %rdx
	movl	$1, %r8d
	leaq	__unnamed_3(%rip), %r9
	xorl	%eax, %eax
	movq	$0, 32(%rsp)
	callq	_ZN4core3fmt9Arguments6new_v117h68c9a4aeb67fe82bE
	jmp	.LBB87_11
.LBB87_4:
	.cv_loc	90 19 2570 0
	movq	48(%rsp), %rax
	movq	(%rax), %rax
	movq	%rax, 72(%rsp)
	jmp	.LBB87_10
.LBB87_5:
	.cv_loc	90 19 2574 0
	leaq	128(%rsp), %rcx
	leaq	__unnamed_7(%rip), %rdx
	movl	$1, %r8d
	leaq	__unnamed_3(%rip), %r9
	xorl	%eax, %eax
	movq	$0, 32(%rsp)
	callq	_ZN4core3fmt9Arguments6new_v117h68c9a4aeb67fe82bE
	jmp	.LBB87_9
.LBB87_6:
	.cv_loc	90 19 2572 0
	movq	48(%rsp), %rax
	movq	(%rax), %rax
	movq	%rax, 72(%rsp)
	jmp	.LBB87_8
.LBB87_8:
	.cv_loc	90 19 2577 0
	movq	72(%rsp), %rax
	addq	$184, %rsp
	retq
.LBB87_9:
	.cv_loc	90 19 2574 0
	leaq	__unnamed_8(%rip), %rdx
	leaq	128(%rsp), %rcx
	callq	_ZN4core9panicking9panic_fmt17h9a20e90cefbba781E
	ud2
.LBB87_10:
	.cv_loc	90 19 2570 0
	jmp	.LBB87_8
.LBB87_11:
	.cv_loc	90 19 2573 0
	leaq	__unnamed_9(%rip), %rdx
	leaq	80(%rsp), %rcx
	callq	_ZN4core9panicking9panic_fmt17h9a20e90cefbba781E
	ud2
.LBB87_12:
	.cv_loc	90 19 2571 0
	jmp	.LBB87_8
.Ltmp247:
.Lfunc_end87:
	.p2align	2, 0x90
.LJTI87_0:
	.long	.LBB87_2-.LJTI87_0
	.long	.LBB87_3-.LJTI87_0
	.long	.LBB87_4-.LJTI87_0
	.long	.LBB87_5-.LJTI87_0
	.long	.LBB87_6-.LJTI87_0
	.seh_endproc

	.def	_ZN4core4sync6atomic12atomic_store17h3376afd0f6139e9eE;
	.scl	2;
	.type	32;
	.endef
	.section	.text,"xr",one_only,_ZN4core4sync6atomic12atomic_store17h3376afd0f6139e9eE
	.globl	_ZN4core4sync6atomic12atomic_store17h3376afd0f6139e9eE
	.p2align	4, 0x90
_ZN4core4sync6atomic12atomic_store17h3376afd0f6139e9eE:
.Lfunc_begin88:
	.cv_func_id 91
	.cv_loc	91 19 2552 0
.seh_proc _ZN4core4sync6atomic12atomic_store17h3376afd0f6139e9eE
	subq	$184, %rsp
	.seh_stackalloc 184
	.seh_endprologue
	movq	%rdx, 40(%rsp)
	movq	%rcx, 48(%rsp)
	movb	%r8b, 71(%rsp)
	movq	%rcx, 168(%rsp)
	movq	%rdx, 176(%rsp)
.Ltmp248:
	.cv_loc	91 19 2555 0
	movzbl	71(%rsp), %eax
	movq	%rax, 56(%rsp)
	movq	56(%rsp), %rax
	leaq	.LJTI88_0(%rip), %rcx
	movslq	(%rcx,%rax,4), %rax
	addq	%rcx, %rax
	jmpq	*%rax
	ud2
.LBB88_2:
	.cv_loc	91 19 2557 0
	movq	48(%rsp), %rax
	movq	40(%rsp), %rcx
	movq	%rcx, (%rax)
	jmp	.LBB88_12
.LBB88_3:
	.cv_loc	91 19 2556 0
	movq	48(%rsp), %rax
	movq	40(%rsp), %rcx
	movq	%rcx, (%rax)
	jmp	.LBB88_11
.LBB88_4:
	.cv_loc	91 19 2559 0
	leaq	72(%rsp), %rcx
	leaq	__unnamed_10(%rip), %rdx
	movl	$1, %r8d
	leaq	__unnamed_3(%rip), %r9
	xorl	%eax, %eax
	movq	$0, 32(%rsp)
	callq	_ZN4core3fmt9Arguments6new_v117h68c9a4aeb67fe82bE
	jmp	.LBB88_10
.LBB88_5:
	.cv_loc	91 19 2560 0
	leaq	120(%rsp), %rcx
	leaq	__unnamed_11(%rip), %rdx
	movl	$1, %r8d
	leaq	__unnamed_3(%rip), %r9
	xorl	%eax, %eax
	movq	$0, 32(%rsp)
	callq	_ZN4core3fmt9Arguments6new_v117h68c9a4aeb67fe82bE
	jmp	.LBB88_9
.LBB88_6:
	.cv_loc	91 19 2558 0
	movq	48(%rsp), %rcx
	movq	40(%rsp), %rax
	xchgq	%rax, (%rcx)
	jmp	.LBB88_8
.LBB88_8:
	.cv_loc	91 19 2563 0
	addq	$184, %rsp
	retq
.LBB88_9:
	.cv_loc	91 19 2560 0
	leaq	__unnamed_12(%rip), %rdx
	leaq	120(%rsp), %rcx
	callq	_ZN4core9panicking9panic_fmt17h9a20e90cefbba781E
	ud2
.LBB88_10:
	.cv_loc	91 19 2559 0
	leaq	__unnamed_13(%rip), %rdx
	leaq	72(%rsp), %rcx
	callq	_ZN4core9panicking9panic_fmt17h9a20e90cefbba781E
	ud2
.LBB88_11:
	.cv_loc	91 19 2556 0
	jmp	.LBB88_8
.LBB88_12:
	.cv_loc	91 19 2557 0
	jmp	.LBB88_8
.Ltmp249:
.Lfunc_end88:
	.p2align	2, 0x90
.LJTI88_0:
	.long	.LBB88_2-.LJTI88_0
	.long	.LBB88_3-.LJTI88_0
	.long	.LBB88_4-.LJTI88_0
	.long	.LBB88_5-.LJTI88_0
	.long	.LBB88_6-.LJTI88_0
	.seh_endproc

	.def	_ZN4core4sync6atomic14spin_loop_hint17h217c5516eff9bb61E;
	.scl	3;
	.type	32;
	.endef
	.section	.text,"xr",one_only,_ZN4core4sync6atomic14spin_loop_hint17h217c5516eff9bb61E
	.p2align	4, 0x90
_ZN4core4sync6atomic14spin_loop_hint17h217c5516eff9bb61E:
.Lfunc_begin89:
	.cv_func_id 92
	.cv_loc	92 19 3012 0
.seh_proc _ZN4core4sync6atomic14spin_loop_hint17h217c5516eff9bb61E
	subq	$40, %rsp
	.seh_stackalloc 40
	.seh_endprologue
.Ltmp250:
	.cv_loc	92 19 3013 0
	callq	_ZN4core4hint9spin_loop17h2c8e725e846f1ccdE
	.cv_loc	92 19 3014 0
	nop
	addq	$40, %rsp
	retq
.Ltmp251:
.Lfunc_end89:
	.seh_endproc

	.def	_ZN4core4sync6atomic23atomic_compare_exchange17hd916544e64fc8061E;
	.scl	2;
	.type	32;
	.endef
	.section	.text,"xr",one_only,_ZN4core4sync6atomic23atomic_compare_exchange17hd916544e64fc8061E
	.globl	_ZN4core4sync6atomic23atomic_compare_exchange17hd916544e64fc8061E
	.p2align	4, 0x90
_ZN4core4sync6atomic23atomic_compare_exchange17hd916544e64fc8061E:
.Lfunc_begin90:
	.cv_func_id 93
	.cv_loc	93 19 2628 0
.seh_proc _ZN4core4sync6atomic23atomic_compare_exchange17hd916544e64fc8061E
	subq	$344, %rsp
	.seh_stackalloc 344
	.seh_endprologue
	movq	%r8, 80(%rsp)
	movq	%rdx, 88(%rsp)
	movq	%rcx, 96(%rsp)
	movb	384(%rsp), %al
	movq	%rcx, 296(%rsp)
	movq	%rdx, 304(%rsp)
	movq	%r8, 312(%rsp)
	movb	%r9b, 327(%rsp)
.Ltmp252:
	.cv_loc	93 19 2637 0
	movb	%r9b, 144(%rsp)
	movb	%al, 145(%rsp)
	movzbl	144(%rsp), %eax
	movq	%rax, 104(%rsp)
	movq	104(%rsp), %rax
	leaq	.LJTI90_0(%rip), %rcx
	movslq	(%rcx,%rax,4), %rax
	addq	%rcx, %rax
	jmpq	*%rax
	ud2
.LBB90_2:
	movzbl	145(%rsp), %eax
	cmpq	$0, %rax
	je	.LBB90_25
	jmp	.LBB90_7
.LBB90_3:
	movzbl	145(%rsp), %eax
	cmpq	$0, %rax
	je	.LBB90_23
	jmp	.LBB90_7
.LBB90_4:
	movzbl	145(%rsp), %eax
	movq	%rax, 72(%rsp)
	testq	%rax, %rax
	je	.LBB90_19
	jmp	.LBB90_40
.LBB90_40:
	movq	72(%rsp), %rax
	subq	$2, %rax
	je	.LBB90_20
	jmp	.LBB90_7
.LBB90_5:
	movzbl	145(%rsp), %eax
	movq	%rax, 64(%rsp)
	testq	%rax, %rax
	je	.LBB90_15
	jmp	.LBB90_39
.LBB90_39:
	movq	64(%rsp), %rax
	subq	$2, %rax
	je	.LBB90_16
	jmp	.LBB90_7
.LBB90_6:
	movzbl	145(%rsp), %eax
	movq	%rax, 56(%rsp)
	testq	%rax, %rax
	je	.LBB90_8
	jmp	.LBB90_37
.LBB90_37:
	movq	56(%rsp), %rax
	subq	$2, %rax
	je	.LBB90_9
	jmp	.LBB90_38
.LBB90_38:
	movq	56(%rsp), %rax
	subq	$4, %rax
	je	.LBB90_10
	jmp	.LBB90_7
.LBB90_7:
	movzbl	145(%rsp), %eax
	movq	%rax, 48(%rsp)
	subq	$1, %rax
	je	.LBB90_27
	jmp	.LBB90_41
.LBB90_41:
	movq	48(%rsp), %rax
	subq	$3, %rax
	je	.LBB90_28
	jmp	.LBB90_26
.LBB90_8:
	.cv_loc	93 19 2645 0
	movq	96(%rsp), %rcx
	movq	80(%rsp), %rdx
	movq	88(%rsp), %rax
	lock		cmpxchgq	%rdx, (%rcx)
	movq	%rax, %rcx
	sete	%al
	andb	$1, %al
	movq	%rcx, 128(%rsp)
	movb	%al, 136(%rsp)
	jmp	.LBB90_14
.LBB90_9:
	.cv_loc	93 19 2646 0
	movq	96(%rsp), %rcx
	movq	80(%rsp), %rdx
	movq	88(%rsp), %rax
	lock		cmpxchgq	%rdx, (%rcx)
	movq	%rax, %rcx
	sete	%al
	andb	$1, %al
	movq	%rcx, 128(%rsp)
	movb	%al, 136(%rsp)
	jmp	.LBB90_13
.LBB90_10:
	.cv_loc	93 19 2642 0
	movq	96(%rsp), %rcx
	movq	80(%rsp), %rdx
	movq	88(%rsp), %rax
	lock		cmpxchgq	%rdx, (%rcx)
	movq	%rax, %rcx
	sete	%al
	andb	$1, %al
	movq	%rcx, 128(%rsp)
	movb	%al, 136(%rsp)
	jmp	.LBB90_12
.LBB90_12:
	.cv_loc	93 19 2636 0
	movq	128(%rsp), %rax
	movq	%rax, 40(%rsp)
	movq	%rax, 328(%rsp)
	movb	136(%rsp), %al
	movb	%al, %cl
	andb	$1, %cl
	movb	%cl, 343(%rsp)
.Ltmp253:
	.cv_loc	93 19 2652 0
	testb	$1, %al
	jne	.LBB90_34
	jmp	.LBB90_33
.Ltmp254:
.LBB90_13:
	.cv_loc	93 19 2646 0
	jmp	.LBB90_12
.LBB90_14:
	.cv_loc	93 19 2645 0
	jmp	.LBB90_12
.LBB90_15:
	.cv_loc	93 19 2644 0
	movq	96(%rsp), %rcx
	movq	80(%rsp), %rdx
	movq	88(%rsp), %rax
	lock		cmpxchgq	%rdx, (%rcx)
	movq	%rax, %rcx
	sete	%al
	andb	$1, %al
	movq	%rcx, 128(%rsp)
	movb	%al, 136(%rsp)
	jmp	.LBB90_18
.LBB90_16:
	.cv_loc	93 19 2640 0
	movq	96(%rsp), %rcx
	movq	80(%rsp), %rdx
	movq	88(%rsp), %rax
	lock		cmpxchgq	%rdx, (%rcx)
	movq	%rax, %rcx
	sete	%al
	andb	$1, %al
	movq	%rcx, 128(%rsp)
	movb	%al, 136(%rsp)
	jmp	.LBB90_12
.LBB90_18:
	.cv_loc	93 19 2644 0
	jmp	.LBB90_12
.LBB90_19:
	.cv_loc	93 19 2643 0
	movq	96(%rsp), %rcx
	movq	80(%rsp), %rdx
	movq	88(%rsp), %rax
	lock		cmpxchgq	%rdx, (%rcx)
	movq	%rax, %rcx
	sete	%al
	andb	$1, %al
	movq	%rcx, 128(%rsp)
	movb	%al, 136(%rsp)
	jmp	.LBB90_22
.LBB90_20:
	.cv_loc	93 19 2638 0
	movq	96(%rsp), %rcx
	movq	80(%rsp), %rdx
	movq	88(%rsp), %rax
	lock		cmpxchgq	%rdx, (%rcx)
	movq	%rax, %rcx
	sete	%al
	andb	$1, %al
	movq	%rcx, 128(%rsp)
	movb	%al, 136(%rsp)
	jmp	.LBB90_12
.LBB90_22:
	.cv_loc	93 19 2643 0
	jmp	.LBB90_12
.LBB90_23:
	.cv_loc	93 19 2639 0
	movq	96(%rsp), %rcx
	movq	80(%rsp), %rdx
	movq	88(%rsp), %rax
	lock		cmpxchgq	%rdx, (%rcx)
	movq	%rax, %rcx
	sete	%al
	andb	$1, %al
	movq	%rcx, 128(%rsp)
	movb	%al, 136(%rsp)
	jmp	.LBB90_12
.LBB90_25:
	.cv_loc	93 19 2641 0
	movq	96(%rsp), %rcx
	movq	80(%rsp), %rdx
	movq	88(%rsp), %rax
	lock		cmpxchgq	%rdx, (%rcx)
	movq	%rax, %rcx
	sete	%al
	andb	$1, %al
	movq	%rcx, 128(%rsp)
	movb	%al, 136(%rsp)
	jmp	.LBB90_32
.LBB90_26:
	.cv_loc	93 19 2649 0
	leaq	248(%rsp), %rcx
	leaq	__unnamed_14(%rip), %rdx
	movl	$1, %r8d
	leaq	__unnamed_3(%rip), %r9
	xorl	%eax, %eax
	movq	$0, 32(%rsp)
	callq	_ZN4core3fmt9Arguments6new_v117h68c9a4aeb67fe82bE
	jmp	.LBB90_29
.LBB90_27:
	.cv_loc	93 19 2648 0
	leaq	200(%rsp), %rcx
	leaq	__unnamed_15(%rip), %rdx
	movl	$1, %r8d
	leaq	__unnamed_3(%rip), %r9
	xorl	%eax, %eax
	movq	$0, 32(%rsp)
	callq	_ZN4core3fmt9Arguments6new_v117h68c9a4aeb67fe82bE
	jmp	.LBB90_31
.LBB90_28:
	.cv_loc	93 19 2647 0
	leaq	152(%rsp), %rcx
	leaq	__unnamed_16(%rip), %rdx
	movl	$1, %r8d
	leaq	__unnamed_3(%rip), %r9
	xorl	%eax, %eax
	movq	$0, 32(%rsp)
	callq	_ZN4core3fmt9Arguments6new_v117h68c9a4aeb67fe82bE
	jmp	.LBB90_30
.LBB90_29:
	.cv_loc	93 19 2649 0
	leaq	__unnamed_17(%rip), %rdx
	leaq	248(%rsp), %rcx
	callq	_ZN4core9panicking9panic_fmt17h9a20e90cefbba781E
	ud2
.LBB90_30:
	.cv_loc	93 19 2647 0
	leaq	__unnamed_18(%rip), %rdx
	leaq	152(%rsp), %rcx
	callq	_ZN4core9panicking9panic_fmt17h9a20e90cefbba781E
	ud2
.LBB90_31:
	.cv_loc	93 19 2648 0
	leaq	__unnamed_19(%rip), %rdx
	leaq	200(%rsp), %rcx
	callq	_ZN4core9panicking9panic_fmt17h9a20e90cefbba781E
	ud2
.LBB90_32:
	.cv_loc	93 19 2641 0
	jmp	.LBB90_12
.LBB90_33:
	.cv_loc	93 19 2652 0
	movq	40(%rsp), %rax
.Ltmp255:
	movq	%rax, 120(%rsp)
	movq	$1, 112(%rsp)
	jmp	.LBB90_35
.LBB90_34:
	movq	40(%rsp), %rax
	movq	%rax, 120(%rsp)
	movq	$0, 112(%rsp)
.Ltmp256:
.LBB90_35:
	.cv_loc	93 19 2653 0
	movq	112(%rsp), %rax
	movq	120(%rsp), %rdx
	addq	$344, %rsp
	retq
.Ltmp257:
.Lfunc_end90:
	.p2align	2, 0x90
.LJTI90_0:
	.long	.LBB90_2-.LJTI90_0
	.long	.LBB90_3-.LJTI90_0
	.long	.LBB90_4-.LJTI90_0
	.long	.LBB90_5-.LJTI90_0
	.long	.LBB90_6-.LJTI90_0
	.seh_endproc

	.def	_ZN4core5clone5impls52_$LT$impl$u20$core..clone..Clone$u20$for$u20$u32$GT$5clone17h4c89926f0371a418E;
	.scl	3;
	.type	32;
	.endef
	.section	.text,"xr",one_only,_ZN4core5clone5impls52_$LT$impl$u20$core..clone..Clone$u20$for$u20$u32$GT$5clone17h4c89926f0371a418E
	.p2align	4, 0x90
_ZN4core5clone5impls52_$LT$impl$u20$core..clone..Clone$u20$for$u20$u32$GT$5clone17h4c89926f0371a418E:
.Lfunc_begin91:
	.cv_func_id 94
	.cv_file	20 "/rustc/fe5b13d681f25ee6474be29d748c65adcd91f69e\\library\\core\\src\\clone.rs" "E65B389422399FE874A4BE548407CA0F34033715" 2
	.cv_loc	94 20 191 0
.seh_proc _ZN4core5clone5impls52_$LT$impl$u20$core..clone..Clone$u20$for$u20$u32$GT$5clone17h4c89926f0371a418E
	pushq	%rax
	.seh_stackalloc 8
	.seh_endprologue
	movq	%rcx, (%rsp)
.Ltmp258:
	.cv_loc	94 20 192 0
	movl	(%rcx), %eax
	.cv_loc	94 20 193 0
	popq	%rcx
	retq
.Ltmp259:
.Lfunc_end91:
	.seh_endproc

	.def	_ZN4core5clone5impls54_$LT$impl$u20$core..clone..Clone$u20$for$u20$$RF$T$GT$5clone17hdc07adaee88cc3f7E;
	.scl	2;
	.type	32;
	.endef
	.section	.text,"xr",one_only,_ZN4core5clone5impls54_$LT$impl$u20$core..clone..Clone$u20$for$u20$$RF$T$GT$5clone17hdc07adaee88cc3f7E
	.globl	_ZN4core5clone5impls54_$LT$impl$u20$core..clone..Clone$u20$for$u20$$RF$T$GT$5clone17hdc07adaee88cc3f7E
	.p2align	4, 0x90
_ZN4core5clone5impls54_$LT$impl$u20$core..clone..Clone$u20$for$u20$$RF$T$GT$5clone17hdc07adaee88cc3f7E:
.Lfunc_begin92:
	.cv_func_id 95
	.cv_loc	95 20 239 0
.seh_proc _ZN4core5clone5impls54_$LT$impl$u20$core..clone..Clone$u20$for$u20$$RF$T$GT$5clone17hdc07adaee88cc3f7E
	pushq	%rax
	.seh_stackalloc 8
	.seh_endprologue
	movq	%rcx, (%rsp)
.Ltmp260:
	.cv_loc	95 20 240 0
	movq	(%rcx), %rax
	movq	8(%rcx), %rdx
	.cv_loc	95 20 241 0
	popq	%rcx
	retq
.Ltmp261:
.Lfunc_end92:
	.seh_endproc

	.def	_ZN4core5slice29_$LT$impl$u20$$u5b$T$u5d$$GT$4iter17h527d162fc7e4dce3E;
	.scl	2;
	.type	32;
	.endef
	.section	.text,"xr",one_only,_ZN4core5slice29_$LT$impl$u20$$u5b$T$u5d$$GT$4iter17h527d162fc7e4dce3E
	.globl	_ZN4core5slice29_$LT$impl$u20$$u5b$T$u5d$$GT$4iter17h527d162fc7e4dce3E
	.p2align	4, 0x90
_ZN4core5slice29_$LT$impl$u20$$u5b$T$u5d$$GT$4iter17h527d162fc7e4dce3E:
.Lfunc_begin93:
	.cv_func_id 96
	.cv_file	21 "/rustc/fe5b13d681f25ee6474be29d748c65adcd91f69e\\library\\core\\src\\slice\\mod.rs" "C7B7F381DCC8A049A0728071D1BE3B63B65668C2" 2
	.cv_loc	96 21 733 0
.seh_proc _ZN4core5slice29_$LT$impl$u20$$u5b$T$u5d$$GT$4iter17h527d162fc7e4dce3E
	subq	$72, %rsp
	.seh_stackalloc 72
	.seh_endprologue
	movq	%rcx, 56(%rsp)
	movq	%rdx, 64(%rsp)
.Ltmp262:
	.cv_loc	96 21 734 0
	callq	_ZN4core5slice4iter13Iter$LT$T$GT$3new17hb9ff884b09c1edf3E
	movq	%rax, 40(%rsp)
	movq	%rdx, 48(%rsp)
	.cv_loc	96 21 735 0
	movq	48(%rsp), %rdx
	movq	40(%rsp), %rax
	addq	$72, %rsp
	retq
.Ltmp263:
.Lfunc_end93:
	.seh_endproc

	.def	_ZN4core5slice29_$LT$impl$u20$$u5b$T$u5d$$GT$4iter17h74a2fb88822c2affE;
	.scl	2;
	.type	32;
	.endef
	.section	.text,"xr",one_only,_ZN4core5slice29_$LT$impl$u20$$u5b$T$u5d$$GT$4iter17h74a2fb88822c2affE
	.globl	_ZN4core5slice29_$LT$impl$u20$$u5b$T$u5d$$GT$4iter17h74a2fb88822c2affE
	.p2align	4, 0x90
_ZN4core5slice29_$LT$impl$u20$$u5b$T$u5d$$GT$4iter17h74a2fb88822c2affE:
.Lfunc_begin94:
	.cv_func_id 97
	.cv_loc	97 21 733 0
.seh_proc _ZN4core5slice29_$LT$impl$u20$$u5b$T$u5d$$GT$4iter17h74a2fb88822c2affE
	subq	$72, %rsp
	.seh_stackalloc 72
	.seh_endprologue
	movq	%rcx, 56(%rsp)
	movq	%rdx, 64(%rsp)
.Ltmp264:
	.cv_loc	97 21 734 0
	callq	_ZN4core5slice4iter13Iter$LT$T$GT$3new17h2dcaa61792fdf1f8E
	movq	%rax, 40(%rsp)
	movq	%rdx, 48(%rsp)
	.cv_loc	97 21 735 0
	movq	48(%rsp), %rdx
	movq	40(%rsp), %rax
	addq	$72, %rsp
	retq
.Ltmp265:
.Lfunc_end94:
	.seh_endproc

	.def	_ZN4core5slice29_$LT$impl$u20$$u5b$T$u5d$$GT$6as_ptr17h76502592c2f3d7afE;
	.scl	2;
	.type	32;
	.endef
	.section	.text,"xr",one_only,_ZN4core5slice29_$LT$impl$u20$$u5b$T$u5d$$GT$6as_ptr17h76502592c2f3d7afE
	.globl	_ZN4core5slice29_$LT$impl$u20$$u5b$T$u5d$$GT$6as_ptr17h76502592c2f3d7afE
	.p2align	4, 0x90
_ZN4core5slice29_$LT$impl$u20$$u5b$T$u5d$$GT$6as_ptr17h76502592c2f3d7afE:
.Lfunc_begin95:
	.cv_func_id 98
	.cv_loc	98 21 477 0
.seh_proc _ZN4core5slice29_$LT$impl$u20$$u5b$T$u5d$$GT$6as_ptr17h76502592c2f3d7afE
	subq	$16, %rsp
	.seh_stackalloc 16
	.seh_endprologue
	movq	%rcx, %rax
	movq	%rax, (%rsp)
	movq	%rdx, 8(%rsp)
.Ltmp266:
	.cv_loc	98 21 479 0
	addq	$16, %rsp
	retq
.Ltmp267:
.Lfunc_end95:
	.seh_endproc

	.def	_ZN4core5slice29_$LT$impl$u20$$u5b$T$u5d$$GT$6as_ptr17hfd902a0994de4fd6E;
	.scl	2;
	.type	32;
	.endef
	.section	.text,"xr",one_only,_ZN4core5slice29_$LT$impl$u20$$u5b$T$u5d$$GT$6as_ptr17hfd902a0994de4fd6E
	.globl	_ZN4core5slice29_$LT$impl$u20$$u5b$T$u5d$$GT$6as_ptr17hfd902a0994de4fd6E
	.p2align	4, 0x90
_ZN4core5slice29_$LT$impl$u20$$u5b$T$u5d$$GT$6as_ptr17hfd902a0994de4fd6E:
.Lfunc_begin96:
	.cv_func_id 99
	.cv_loc	99 21 477 0
.seh_proc _ZN4core5slice29_$LT$impl$u20$$u5b$T$u5d$$GT$6as_ptr17hfd902a0994de4fd6E
	subq	$16, %rsp
	.seh_stackalloc 16
	.seh_endprologue
	movq	%rcx, %rax
	movq	%rax, (%rsp)
	movq	%rdx, 8(%rsp)
.Ltmp268:
	.cv_loc	99 21 479 0
	addq	$16, %rsp
	retq
.Ltmp269:
.Lfunc_end96:
	.seh_endproc

	.def	_ZN4core5slice4iter13Iter$LT$T$GT$3new17h2dcaa61792fdf1f8E;
	.scl	2;
	.type	32;
	.endef
	.section	.text,"xr",one_only,_ZN4core5slice4iter13Iter$LT$T$GT$3new17h2dcaa61792fdf1f8E
	.globl	_ZN4core5slice4iter13Iter$LT$T$GT$3new17h2dcaa61792fdf1f8E
	.p2align	4, 0x90
_ZN4core5slice4iter13Iter$LT$T$GT$3new17h2dcaa61792fdf1f8E:
.Lfunc_begin97:
	.cv_func_id 100
	.cv_file	22 "/rustc/fe5b13d681f25ee6474be29d748c65adcd91f69e\\library\\core\\src\\slice\\iter.rs" "D1C4D45C74D9A073C074630CD26CBF2B71890A1C" 2
	.cv_loc	100 22 88 0
.seh_proc _ZN4core5slice4iter13Iter$LT$T$GT$3new17h2dcaa61792fdf1f8E
	subq	$200, %rsp
	.seh_stackalloc 200
	.seh_endprologue
	movq	%rdx, 56(%rsp)
	movq	%rcx, 96(%rsp)
	movq	%rdx, 104(%rsp)
.Ltmp270:
	.cv_loc	100 22 89 0
	callq	_ZN4core5slice29_$LT$impl$u20$$u5b$T$u5d$$GT$6as_ptr17h76502592c2f3d7afE
	movq	%rax, 64(%rsp)
	movq	%rax, 112(%rsp)
	.cv_loc	100 22 92 0
	movq	64(%rsp), %rcx
.Ltmp271:
	callq	_ZN4core3ptr9const_ptr33_$LT$impl$u20$$BP$const$u20$T$GT$7is_null17ha806058515d4aaebE
	.cv_loc	100 22 94 0
	jmp	.LBB97_4
.LBB97_4:
	movl	$16, %eax
	cmpq	$0, %rax
	jne	.LBB97_6
	.cv_inline_site_id 101 within 100 inlined_at 22 95 0
	.cv_inline_site_id 102 within 101 inlined_at 15 819 0
	.cv_loc	102 15 474 0
	movq	56(%rsp), %rcx
	movq	64(%rsp), %rax
	movq	%rax, 120(%rsp)
	movq	%rcx, 128(%rsp)
	movq	%rax, 136(%rsp)
	movq	%rcx, 144(%rsp)
.Ltmp272:
	addq	%rcx, %rax
	movq	%rax, 152(%rsp)
	movq	152(%rsp), %rax
	movq	%rax, 48(%rsp)
.Ltmp273:
	.cv_loc	100 22 95 0
	jmp	.LBB97_9
.LBB97_6:
	.cv_inline_site_id 103 within 100 inlined_at 22 97 0
	.cv_inline_site_id 104 within 103 inlined_at 15 693 0
	.cv_loc	104 15 412 0
	movq	64(%rsp), %rax
	movq	56(%rsp), %rcx
	movq	%rax, 160(%rsp)
	movq	%rcx, 168(%rsp)
	movq	%rax, 176(%rsp)
	movq	%rcx, 184(%rsp)
.Ltmp274:
	shlq	$4, %rcx
	addq	%rcx, %rax
	movq	%rax, 192(%rsp)
	movq	192(%rsp), %rax
.Ltmp275:
	.cv_loc	100 22 97 0
	movq	%rax, 88(%rsp)
	.cv_loc	100 22 94 0
	jmp	.LBB97_8
.LBB97_8:
	.cv_loc	100 22 100 0
	movq	64(%rsp), %rcx
.Ltmp276:
	callq	_ZN4core3ptr8non_null16NonNull$LT$T$GT$13new_unchecked17hbbebeb8dac47bb53E
	movq	%rax, 40(%rsp)
	jmp	.LBB97_10
.Ltmp277:
.LBB97_9:
	.cv_loc	100 22 95 0
	movq	48(%rsp), %rax
	movq	%rax, 88(%rsp)
	.cv_loc	100 22 94 0
	jmp	.LBB97_8
.LBB97_10:
	.cv_loc	100 22 100 0
	movq	40(%rsp), %rcx
.Ltmp278:
	movq	88(%rsp), %rax
	movq	%rcx, 72(%rsp)
	movq	%rax, 80(%rsp)
.Ltmp279:
	.cv_loc	100 22 102 0
	movq	72(%rsp), %rax
	movq	80(%rsp), %rdx
	addq	$200, %rsp
	retq
.Ltmp280:
.Lfunc_end97:
	.seh_endproc

	.def	_ZN4core5slice4iter13Iter$LT$T$GT$3new17hb9ff884b09c1edf3E;
	.scl	2;
	.type	32;
	.endef
	.section	.text,"xr",one_only,_ZN4core5slice4iter13Iter$LT$T$GT$3new17hb9ff884b09c1edf3E
	.globl	_ZN4core5slice4iter13Iter$LT$T$GT$3new17hb9ff884b09c1edf3E
	.p2align	4, 0x90
_ZN4core5slice4iter13Iter$LT$T$GT$3new17hb9ff884b09c1edf3E:
.Lfunc_begin98:
	.cv_func_id 105
	.cv_loc	105 22 88 0
.seh_proc _ZN4core5slice4iter13Iter$LT$T$GT$3new17hb9ff884b09c1edf3E
	subq	$200, %rsp
	.seh_stackalloc 200
	.seh_endprologue
	movq	%rdx, 56(%rsp)
	movq	%rcx, 96(%rsp)
	movq	%rdx, 104(%rsp)
.Ltmp281:
	.cv_loc	105 22 89 0
	callq	_ZN4core5slice29_$LT$impl$u20$$u5b$T$u5d$$GT$6as_ptr17hfd902a0994de4fd6E
	movq	%rax, 64(%rsp)
	movq	%rax, 112(%rsp)
	.cv_loc	105 22 92 0
	movq	64(%rsp), %rcx
.Ltmp282:
	callq	_ZN4core3ptr9const_ptr33_$LT$impl$u20$$BP$const$u20$T$GT$7is_null17hded3ffcb6e258febE
	.cv_loc	105 22 94 0
	jmp	.LBB98_4
.LBB98_4:
	movl	$1, %eax
	cmpq	$0, %rax
	jne	.LBB98_6
	.cv_inline_site_id 106 within 105 inlined_at 22 95 0
	.cv_inline_site_id 107 within 106 inlined_at 15 819 0
	.cv_loc	107 15 474 0
	movq	56(%rsp), %rcx
	movq	64(%rsp), %rax
	movq	%rax, 120(%rsp)
	movq	%rcx, 128(%rsp)
	movq	%rax, 136(%rsp)
	movq	%rcx, 144(%rsp)
.Ltmp283:
	addq	%rcx, %rax
	movq	%rax, 152(%rsp)
	movq	152(%rsp), %rax
	movq	%rax, 48(%rsp)
.Ltmp284:
	.cv_loc	105 22 95 0
	jmp	.LBB98_9
.LBB98_6:
	.cv_inline_site_id 108 within 105 inlined_at 22 97 0
	.cv_inline_site_id 109 within 108 inlined_at 15 693 0
	.cv_loc	109 15 412 0
	movq	56(%rsp), %rcx
	movq	64(%rsp), %rax
	movq	%rax, 160(%rsp)
	movq	%rcx, 168(%rsp)
	movq	%rax, 176(%rsp)
	movq	%rcx, 184(%rsp)
.Ltmp285:
	addq	%rcx, %rax
	movq	%rax, 192(%rsp)
	movq	192(%rsp), %rax
.Ltmp286:
	.cv_loc	105 22 97 0
	movq	%rax, 88(%rsp)
	.cv_loc	105 22 94 0
	jmp	.LBB98_8
.LBB98_8:
	.cv_loc	105 22 100 0
	movq	64(%rsp), %rcx
.Ltmp287:
	callq	_ZN4core3ptr8non_null16NonNull$LT$T$GT$13new_unchecked17h4f565325f6696055E
	movq	%rax, 40(%rsp)
	jmp	.LBB98_10
.Ltmp288:
.LBB98_9:
	.cv_loc	105 22 95 0
	movq	48(%rsp), %rax
	movq	%rax, 88(%rsp)
	.cv_loc	105 22 94 0
	jmp	.LBB98_8
.LBB98_10:
	.cv_loc	105 22 100 0
	movq	40(%rsp), %rcx
.Ltmp289:
	movq	88(%rsp), %rax
	movq	%rcx, 72(%rsp)
	movq	%rax, 80(%rsp)
.Ltmp290:
	.cv_loc	105 22 102 0
	movq	72(%rsp), %rax
	movq	80(%rsp), %rdx
	addq	$200, %rsp
	retq
.Ltmp291:
.Lfunc_end98:
	.seh_endproc

	.def	_ZN4core5slice4iter87_$LT$impl$u20$core..iter..traits..collect..IntoIterator$u20$for$u20$$RF$$u5b$T$u5d$$GT$9into_iter17hafd0476aa4960030E;
	.scl	2;
	.type	32;
	.endef
	.section	.text,"xr",one_only,_ZN4core5slice4iter87_$LT$impl$u20$core..iter..traits..collect..IntoIterator$u20$for$u20$$RF$$u5b$T$u5d$$GT$9into_iter17hafd0476aa4960030E
	.globl	_ZN4core5slice4iter87_$LT$impl$u20$core..iter..traits..collect..IntoIterator$u20$for$u20$$RF$$u5b$T$u5d$$GT$9into_iter17hafd0476aa4960030E
	.p2align	4, 0x90
_ZN4core5slice4iter87_$LT$impl$u20$core..iter..traits..collect..IntoIterator$u20$for$u20$$RF$$u5b$T$u5d$$GT$9into_iter17hafd0476aa4960030E:
.Lfunc_begin99:
	.cv_func_id 110
	.cv_loc	110 22 23 0
.seh_proc _ZN4core5slice4iter87_$LT$impl$u20$core..iter..traits..collect..IntoIterator$u20$for$u20$$RF$$u5b$T$u5d$$GT$9into_iter17hafd0476aa4960030E
	subq	$72, %rsp
	.seh_stackalloc 72
	.seh_endprologue
	movq	%rcx, 56(%rsp)
	movq	%rdx, 64(%rsp)
.Ltmp292:
	.cv_loc	110 22 24 0
	callq	_ZN4core5slice29_$LT$impl$u20$$u5b$T$u5d$$GT$4iter17h527d162fc7e4dce3E
	movq	%rax, 40(%rsp)
	movq	%rdx, 48(%rsp)
	.cv_loc	110 22 25 0
	movq	48(%rsp), %rdx
	movq	40(%rsp), %rax
	addq	$72, %rsp
	retq
.Ltmp293:
.Lfunc_end99:
	.seh_endproc

	.def	_ZN4core5slice5ascii30_$LT$impl$u20$$u5b$u8$u5d$$GT$20eq_ignore_ascii_case17he34ff0992eb358c3E;
	.scl	3;
	.type	32;
	.endef
	.section	.text,"xr",one_only,_ZN4core5slice5ascii30_$LT$impl$u20$$u5b$u8$u5d$$GT$20eq_ignore_ascii_case17he34ff0992eb358c3E
	.p2align	4, 0x90
_ZN4core5slice5ascii30_$LT$impl$u20$$u5b$u8$u5d$$GT$20eq_ignore_ascii_case17he34ff0992eb358c3E:
.Lfunc_begin100:
	.cv_func_id 111
	.cv_file	23 "/rustc/fe5b13d681f25ee6474be29d748c65adcd91f69e\\library\\core\\src\\slice\\ascii.rs" "DD5F94CDF862B4A62EFF484B076B39BABEE7E79C" 2
	.cv_loc	111 23 27 0
.seh_proc _ZN4core5slice5ascii30_$LT$impl$u20$$u5b$u8$u5d$$GT$20eq_ignore_ascii_case17he34ff0992eb358c3E
	subq	$184, %rsp
	.seh_stackalloc 184
	.seh_endprologue
	movq	%r9, 56(%rsp)
	movq	%r8, 64(%rsp)
	movq	%rdx, 72(%rsp)
	movq	%rcx, 80(%rsp)
	movq	%rcx, 152(%rsp)
	movq	%rdx, 160(%rsp)
	movq	%r8, 168(%rsp)
	movq	%r9, 176(%rsp)
.Ltmp294:
	.cv_loc	111 23 28 0
	cmpq	%r9, %rdx
	je	.LBB100_2
	movb	$0, 95(%rsp)
	jmp	.LBB100_5
.LBB100_2:
	movq	56(%rsp), %rax
	movq	64(%rsp), %r9
	movq	72(%rsp), %r8
	movq	80(%rsp), %rdx
	leaq	96(%rsp), %rcx
	movq	%rax, 32(%rsp)
	callq	_ZN4core4iter8adapters3zip3zip17hedfd02938a83c930E
	leaq	96(%rsp), %rcx
	callq	_ZN4core4iter6traits8iterator8Iterator3all17h38914eebca33fd3dE
	movb	%al, 55(%rsp)
	movb	55(%rsp), %al
	andb	$1, %al
	movb	%al, 95(%rsp)
.LBB100_5:
	.cv_loc	111 23 29 0
	movb	95(%rsp), %al
	andb	$1, %al
	movzbl	%al, %eax
	addq	$184, %rsp
	retq
.Ltmp295:
.Lfunc_end100:
	.seh_endproc

	.def	_ZN4core5slice5ascii30_$LT$impl$u20$$u5b$u8$u5d$$GT$20eq_ignore_ascii_case28_$u7b$$u7b$closure$u7d$$u7d$17h65883b03b8edfa79E;
	.scl	2;
	.type	32;
	.endef
	.section	.text,"xr",one_only,_ZN4core5slice5ascii30_$LT$impl$u20$$u5b$u8$u5d$$GT$20eq_ignore_ascii_case28_$u7b$$u7b$closure$u7d$$u7d$17h65883b03b8edfa79E
	.globl	_ZN4core5slice5ascii30_$LT$impl$u20$$u5b$u8$u5d$$GT$20eq_ignore_ascii_case28_$u7b$$u7b$closure$u7d$$u7d$17h65883b03b8edfa79E
	.p2align	4, 0x90
_ZN4core5slice5ascii30_$LT$impl$u20$$u5b$u8$u5d$$GT$20eq_ignore_ascii_case28_$u7b$$u7b$closure$u7d$$u7d$17h65883b03b8edfa79E:
.Lfunc_begin101:
	.cv_func_id 112
	.cv_loc	112 23 28 0
.seh_proc _ZN4core5slice5ascii30_$LT$impl$u20$$u5b$u8$u5d$$GT$20eq_ignore_ascii_case28_$u7b$$u7b$closure$u7d$$u7d$17h65883b03b8edfa79E
	subq	$104, %rsp
	.seh_stackalloc 104
	.seh_endprologue
	movq	%r8, 40(%rsp)
	movq	%rdx, %rax
	movq	40(%rsp), %rdx
	movq	%rax, 48(%rsp)
	movq	%rcx, %rax
	movq	48(%rsp), %rcx
	movq	%rax, 64(%rsp)
	movq	%rcx, 72(%rsp)
	movq	%rdx, 80(%rsp)
.Ltmp296:
	movq	%rcx, 88(%rsp)
	movq	%rdx, 96(%rsp)
.Ltmp297:
	.cv_loc	112 23 28 0
	callq	_ZN4core3num20_$LT$impl$u20$u8$GT$20eq_ignore_ascii_case17h14aaf127c7dd1c10E
	movb	%al, 63(%rsp)
.Ltmp298:
	.cv_loc	112 23 28 0
	movb	63(%rsp), %al
	andb	$1, %al
	movzbl	%al, %eax
	addq	$104, %rsp
	retq
.Ltmp299:
.Lfunc_end101:
	.seh_endproc

	.def	_ZN4core6option15Option$LT$T$GT$3map17h7e880d2db4df37a7E;
	.scl	2;
	.type	32;
	.endef
	.section	.text,"xr",one_only,_ZN4core6option15Option$LT$T$GT$3map17h7e880d2db4df37a7E
	.globl	_ZN4core6option15Option$LT$T$GT$3map17h7e880d2db4df37a7E
	.p2align	4, 0x90
_ZN4core6option15Option$LT$T$GT$3map17h7e880d2db4df37a7E:
.Lfunc_begin102:
	.cv_func_id 113
	.cv_file	24 "/rustc/fe5b13d681f25ee6474be29d748c65adcd91f69e\\library\\core\\src\\option.rs" "003A3408713E597C51AE708047238F1A54668FB9" 2
	.cv_loc	113 24 906 0
.seh_proc _ZN4core6option15Option$LT$T$GT$3map17h7e880d2db4df37a7E
	subq	$104, %rsp
	.seh_stackalloc 104
	.seh_endprologue
	movq	%rcx, 48(%rsp)
	movq	%rdx, 56(%rsp)
.Ltmp300:
	.cv_loc	113 24 911 0
	movb	$0, 87(%rsp)
	movb	$1, 87(%rsp)
	movq	48(%rsp), %rax
	testq	%rax, %rax
	je	.LBB102_2
	jmp	.LBB102_8
.LBB102_8:
	jmp	.LBB102_3
	ud2
.LBB102_2:
	.cv_loc	113 24 913 0
	movq	$6, 64(%rsp)
	jmp	.LBB102_5
.LBB102_3:
	.cv_loc	113 24 912 0
	movq	56(%rsp), %rax
	movq	%rax, 96(%rsp)
.Ltmp301:
	.cv_loc	113 24 912 0
	movb	$0, 87(%rsp)
	movq	%rax, 72(%rsp)
	movq	72(%rsp), %rcx
	callq	_ZN63_$LT$log..LevelFilter$u20$as$u20$core..str..traits..FromStr$GT$8from_str28_$u7b$$u7b$closure$u7d$$u7d$17h3332c06452f2c62fE
	movq	%rax, 40(%rsp)
	movq	40(%rsp), %rax
	movq	%rax, 64(%rsp)
.Ltmp302:
.LBB102_5:
	.cv_loc	113 24 915 0
	testb	$1, 87(%rsp)
	jne	.LBB102_7
.LBB102_6:
	movq	64(%rsp), %rax
	addq	$104, %rsp
	retq
.LBB102_7:
	jmp	.LBB102_6
.Ltmp303:
.Lfunc_end102:
	.seh_endproc

	.def	_ZN4core6option15Option$LT$T$GT$3map17h908a462d3f31ffddE;
	.scl	2;
	.type	32;
	.endef
	.section	.text,"xr",one_only,_ZN4core6option15Option$LT$T$GT$3map17h908a462d3f31ffddE
	.globl	_ZN4core6option15Option$LT$T$GT$3map17h908a462d3f31ffddE
	.p2align	4, 0x90
_ZN4core6option15Option$LT$T$GT$3map17h908a462d3f31ffddE:
.Lfunc_begin103:
	.cv_func_id 114
	.cv_loc	114 24 906 0
.seh_proc _ZN4core6option15Option$LT$T$GT$3map17h908a462d3f31ffddE
	subq	$104, %rsp
	.seh_stackalloc 104
	.seh_endprologue
	movq	%r8, 40(%rsp)
	movq	%rcx, 48(%rsp)
	movq	%rdx, 56(%rsp)
	movq	%r8, 88(%rsp)
.Ltmp304:
	.cv_loc	114 24 911 0
	movb	$0, 87(%rsp)
	movb	$1, 87(%rsp)
	movq	48(%rsp), %rax
	testq	%rax, %rax
	je	.LBB103_2
	jmp	.LBB103_8
.LBB103_8:
	jmp	.LBB103_3
	ud2
.LBB103_2:
	.cv_loc	114 24 913 0
	movq	$0, 64(%rsp)
	jmp	.LBB103_5
.LBB103_3:
	.cv_loc	114 24 912 0
	movq	40(%rsp), %rcx
	movq	56(%rsp), %rax
	movq	%rax, 96(%rsp)
.Ltmp305:
	.cv_loc	114 24 912 0
	movb	$0, 87(%rsp)
	movq	%rax, 72(%rsp)
	movq	72(%rsp), %rdx
	callq	_ZN4core3ops8function5impls80_$LT$impl$u20$core..ops..function..FnOnce$LT$A$GT$$u20$for$u20$$RF$mut$u20$F$GT$9call_once17h26bef1b05c4185a3E
	movq	%rax, 32(%rsp)
	movq	32(%rsp), %rax
	movq	%rax, 64(%rsp)
.Ltmp306:
.LBB103_5:
	.cv_loc	114 24 915 0
	testb	$1, 87(%rsp)
	jne	.LBB103_7
.LBB103_6:
	movq	64(%rsp), %rax
	addq	$104, %rsp
	retq
.LBB103_7:
	jmp	.LBB103_6
.Ltmp307:
.Lfunc_end103:
	.seh_endproc

	.def	_ZN4core6option15Option$LT$T$GT$3map17hfde2c780e7bf9d17E;
	.scl	2;
	.type	32;
	.endef
	.section	.text,"xr",one_only,_ZN4core6option15Option$LT$T$GT$3map17hfde2c780e7bf9d17E
	.globl	_ZN4core6option15Option$LT$T$GT$3map17hfde2c780e7bf9d17E
	.p2align	4, 0x90
_ZN4core6option15Option$LT$T$GT$3map17hfde2c780e7bf9d17E:
.Lfunc_begin104:
	.cv_func_id 115
	.cv_loc	115 24 906 0
.seh_proc _ZN4core6option15Option$LT$T$GT$3map17hfde2c780e7bf9d17E
	subq	$136, %rsp
	.seh_stackalloc 136
	.seh_endprologue
	movq	%rcx, 32(%rsp)
	movq	%rcx, 40(%rsp)
	movq	%rdx, 48(%rsp)
	movq	%r8, 56(%rsp)
.Ltmp308:
	.cv_loc	115 24 911 0
	movb	$0, 111(%rsp)
	movb	$1, 111(%rsp)
	movq	48(%rsp), %rax
	testq	%rax, %rax
	setne	%al
	movzbl	%al, %eax
	je	.LBB104_2
	jmp	.LBB104_8
.LBB104_8:
	jmp	.LBB104_3
	ud2
.LBB104_2:
	.cv_loc	115 24 913 0
	movq	32(%rsp), %rax
	movq	$2, (%rax)
	jmp	.LBB104_5
.LBB104_3:
	.cv_loc	115 24 912 0
	movq	48(%rsp), %rcx
	movq	56(%rsp), %rax
	movq	%rcx, 120(%rsp)
	movq	%rax, 128(%rsp)
.Ltmp309:
	.cv_loc	115 24 912 0
	movb	$0, 111(%rsp)
	movq	%rcx, 88(%rsp)
	movq	%rax, 96(%rsp)
	movq	88(%rsp), %rdx
	movq	96(%rsp), %r8
	leaq	64(%rsp), %rcx
	callq	_ZN4core3ops8function6FnOnce9call_once17hf66d0ab5f47ccfecE
	movq	32(%rsp), %rax
	movq	64(%rsp), %rcx
	movq	%rcx, (%rax)
	movq	72(%rsp), %rcx
	movq	%rcx, 8(%rax)
	movq	80(%rsp), %rcx
	movq	%rcx, 16(%rax)
.Ltmp310:
.LBB104_5:
	.cv_loc	115 24 915 0
	testb	$1, 111(%rsp)
	jne	.LBB104_7
.LBB104_6:
	movq	40(%rsp), %rax
	addq	$136, %rsp
	retq
.LBB104_7:
	jmp	.LBB104_6
.Ltmp311:
.Lfunc_end104:
	.seh_endproc

	.def	_ZN4core6option15Option$LT$T$GT$4take17hb6fcf31d1ccaae0cE;
	.scl	2;
	.type	32;
	.endef
	.section	.text,"xr",one_only,_ZN4core6option15Option$LT$T$GT$4take17hb6fcf31d1ccaae0cE
	.globl	_ZN4core6option15Option$LT$T$GT$4take17hb6fcf31d1ccaae0cE
	.p2align	4, 0x90
_ZN4core6option15Option$LT$T$GT$4take17hb6fcf31d1ccaae0cE:
.Lfunc_begin105:
	.cv_func_id 116
	.cv_loc	116 24 1572 0
.seh_proc _ZN4core6option15Option$LT$T$GT$4take17hb6fcf31d1ccaae0cE
	subq	$72, %rsp
	.seh_stackalloc 72
	.seh_endprologue
	movq	%rcx, 64(%rsp)
.Ltmp312:
	.cv_loc	116 24 1574 0
	movq	$0, 48(%rsp)
	movq	48(%rsp), %rdx
	movq	56(%rsp), %r8
	callq	_ZN4core3mem7replace17h52db0085dc56e666E
	movq	%rax, 32(%rsp)
	movq	%rdx, 40(%rsp)
	.cv_loc	116 24 1575 0
	movq	40(%rsp), %rdx
	movq	32(%rsp), %rax
	addq	$72, %rsp
	retq
.Ltmp313:
.Lfunc_end105:
	.seh_endproc

	.def	_ZN4core6option15Option$LT$T$GT$6unwrap17hca9a5f98996dfb9cE;
	.scl	2;
	.type	32;
	.endef
	.section	.text,"xr",one_only,_ZN4core6option15Option$LT$T$GT$6unwrap17hca9a5f98996dfb9cE
	.globl	_ZN4core6option15Option$LT$T$GT$6unwrap17hca9a5f98996dfb9cE
	.p2align	4, 0x90
_ZN4core6option15Option$LT$T$GT$6unwrap17hca9a5f98996dfb9cE:
.Lfunc_begin106:
	.cv_func_id 117
	.cv_loc	117 24 752 0
.seh_proc _ZN4core6option15Option$LT$T$GT$6unwrap17hca9a5f98996dfb9cE
	subq	$56, %rsp
	.seh_stackalloc 56
	.seh_endprologue
	movq	%rdx, 32(%rsp)
	movq	%rcx, 40(%rsp)
.Ltmp314:
	.cv_loc	117 24 753 0
	movq	40(%rsp), %rax
	addq	$-6, %rax
	setne	%al
	movzbl	%al, %eax
	je	.LBB106_2
	jmp	.LBB106_4
.LBB106_4:
	jmp	.LBB106_3
	ud2
.LBB106_2:
	.cv_loc	117 24 755 0
	movq	32(%rsp), %r8
	leaq	__unnamed_20(%rip), %rcx
	movl	$43, %edx
	callq	_ZN4core9panicking5panic17hec2b05800ae70116E
	ud2
.LBB106_3:
	.cv_loc	117 24 754 0
	movq	40(%rsp), %rax
	movq	%rax, 48(%rsp)
	.cv_loc	117 24 757 0
	addq	$56, %rsp
	retq
.Ltmp315:
.Lfunc_end106:
	.seh_endproc

	.def	_ZN4core6option15Option$LT$T$GT$6unwrap17hd4cc668215795a0fE;
	.scl	2;
	.type	32;
	.endef
	.section	.text,"xr",one_only,_ZN4core6option15Option$LT$T$GT$6unwrap17hd4cc668215795a0fE
	.globl	_ZN4core6option15Option$LT$T$GT$6unwrap17hd4cc668215795a0fE
	.p2align	4, 0x90
_ZN4core6option15Option$LT$T$GT$6unwrap17hd4cc668215795a0fE:
.Lfunc_begin107:
	.cv_func_id 118
	.cv_loc	118 24 752 0
.seh_proc _ZN4core6option15Option$LT$T$GT$6unwrap17hd4cc668215795a0fE
	subq	$56, %rsp
	.seh_stackalloc 56
	.seh_endprologue
	movq	%rdx, 32(%rsp)
	movq	%rcx, 40(%rsp)
.Ltmp316:
	.cv_loc	118 24 753 0
	movq	40(%rsp), %rax
	testq	%rax, %rax
	setne	%al
	movzbl	%al, %eax
	je	.LBB107_2
	jmp	.LBB107_4
.LBB107_4:
	jmp	.LBB107_3
	ud2
.LBB107_2:
	.cv_loc	118 24 755 0
	movq	32(%rsp), %r8
	leaq	__unnamed_20(%rip), %rcx
	movl	$43, %edx
	callq	_ZN4core9panicking5panic17hec2b05800ae70116E
	ud2
.LBB107_3:
	.cv_loc	118 24 754 0
	movq	40(%rsp), %rax
	movq	%rax, 48(%rsp)
	.cv_loc	118 24 757 0
	addq	$56, %rsp
	retq
.Ltmp317:
.Lfunc_end107:
	.seh_endproc

	.def	_ZN4core6option15Option$LT$T$GT$7is_some17h2e8b4fc74a4a5988E;
	.scl	2;
	.type	32;
	.endef
	.section	.text,"xr",one_only,_ZN4core6option15Option$LT$T$GT$7is_some17h2e8b4fc74a4a5988E
	.globl	_ZN4core6option15Option$LT$T$GT$7is_some17h2e8b4fc74a4a5988E
	.p2align	4, 0x90
_ZN4core6option15Option$LT$T$GT$7is_some17h2e8b4fc74a4a5988E:
.Lfunc_begin108:
	.cv_func_id 119
	.cv_loc	119 24 553 0
.seh_proc _ZN4core6option15Option$LT$T$GT$7is_some17h2e8b4fc74a4a5988E
	subq	$16, %rsp
	.seh_stackalloc 16
	.seh_endprologue
	movq	%rcx, %rdx
	movq	%rdx, 8(%rsp)
.Ltmp318:
	.cv_loc	119 24 554 0
	movl	$1, %eax
	xorl	%ecx, %ecx
	cmpq	$0, (%rdx)
	cmoveq	%rcx, %rax
	cmpq	$1, %rax
	jne	.LBB108_2
	movb	$1, 7(%rsp)
	jmp	.LBB108_3
.LBB108_2:
	movb	$0, 7(%rsp)
.LBB108_3:
	.cv_loc	119 24 555 0
	movb	7(%rsp), %al
	andb	$1, %al
	movzbl	%al, %eax
	addq	$16, %rsp
	retq
.Ltmp319:
.Lfunc_end108:
	.seh_endproc

	.def	_ZN4core9core_arch3x864sse29_mm_pause17h102d85781c4748fcE;
	.scl	3;
	.type	32;
	.endef
	.section	.text,"xr",one_only,_ZN4core9core_arch3x864sse29_mm_pause17h102d85781c4748fcE
	.p2align	4, 0x90
_ZN4core9core_arch3x864sse29_mm_pause17h102d85781c4748fcE:
.Lfunc_begin109:
	.cv_func_id 120
	.cv_file	25 "/rustc/fe5b13d681f25ee6474be29d748c65adcd91f69e\\library\\core\\src\\..\\..\\stdarch\\crates\\core_arch\\src\\x86\\sse2.rs" "7CA0269BBE6786EEFFF1987BF675C1937203B317" 2
	.cv_loc	120 25 25 0
	pause
	.cv_loc	120 25 26 0
	retq
.Ltmp320:
.Lfunc_end109:

	.def	_ZN4core9panicking19unreachable_display17h5a6574c2fc8ca5c6E;
	.scl	2;
	.type	32;
	.endef
	.section	.text,"xr",one_only,_ZN4core9panicking19unreachable_display17h5a6574c2fc8ca5c6E
	.globl	_ZN4core9panicking19unreachable_display17h5a6574c2fc8ca5c6E
	.p2align	4, 0x90
_ZN4core9panicking19unreachable_display17h5a6574c2fc8ca5c6E:
.Lfunc_begin110:
	.cv_func_id 121
	.cv_file	26 "/rustc/fe5b13d681f25ee6474be29d748c65adcd91f69e\\library\\core\\src\\panicking.rs" "7065955CBF8400E390AE1777A861CBF2552C90FF" 2
	.cv_loc	121 26 62 0
.seh_proc _ZN4core9panicking19unreachable_display17h5a6574c2fc8ca5c6E
	subq	$136, %rsp
	.seh_stackalloc 136
	.seh_endprologue
	movq	%rdx, 40(%rsp)
	movq	%rcx, 128(%rsp)
.Ltmp321:
	.cv_loc	121 26 63 0
	callq	_ZN4core3fmt10ArgumentV111new_display17hd6612502856238ccE
	movq	%rax, 48(%rsp)
	movq	%rdx, 56(%rsp)
	movq	56(%rsp), %rax
	movq	48(%rsp), %rcx
	movq	%rcx, 112(%rsp)
	movq	%rax, 120(%rsp)
	leaq	112(%rsp), %r9
	leaq	64(%rsp), %rcx
	leaq	__unnamed_21(%rip), %rdx
	movl	$1, %r8d
	movq	$1, 32(%rsp)
	callq	_ZN4core3fmt9Arguments6new_v117h68c9a4aeb67fe82bE
	movq	40(%rsp), %rdx
	leaq	64(%rsp), %rcx
	callq	_ZN4core9panicking9panic_fmt17h9a20e90cefbba781E
	ud2
.Ltmp322:
.Lfunc_end110:
	.seh_endproc

	.def	_ZN59_$LT$core..fmt..Arguments$u20$as$u20$core..clone..Clone$GT$5clone17he9103c8c47cc7639E;
	.scl	3;
	.type	32;
	.endef
	.section	.text,"xr",one_only,_ZN59_$LT$core..fmt..Arguments$u20$as$u20$core..clone..Clone$GT$5clone17he9103c8c47cc7639E
	.p2align	4, 0x90
_ZN59_$LT$core..fmt..Arguments$u20$as$u20$core..clone..Clone$GT$5clone17he9103c8c47cc7639E:
.Lfunc_begin111:
	.cv_func_id 122
	.cv_loc	122 5 465 0
.seh_proc _ZN59_$LT$core..fmt..Arguments$u20$as$u20$core..clone..Clone$GT$5clone17he9103c8c47cc7639E
	subq	$56, %rsp
	.seh_stackalloc 56
	.seh_endprologue
	movq	%rcx, %rax
	movq	%rax, 40(%rsp)
	movq	%rdx, 48(%rsp)
.Ltmp323:
	movl	$48, %r8d
	callq	memcpy
	movq	40(%rsp), %rax
	addq	$56, %rsp
	retq
.Ltmp324:
.Lfunc_end111:
	.seh_endproc

	.def	_ZN66_$LT$core..option..Option$LT$T$GT$$u20$as$u20$core..fmt..Debug$GT$3fmt17ha4e9676efdeb7e64E;
	.scl	2;
	.type	32;
	.endef
	.section	.text,"xr",one_only,_ZN66_$LT$core..option..Option$LT$T$GT$$u20$as$u20$core..fmt..Debug$GT$3fmt17ha4e9676efdeb7e64E
	.globl	_ZN66_$LT$core..option..Option$LT$T$GT$$u20$as$u20$core..fmt..Debug$GT$3fmt17ha4e9676efdeb7e64E
	.p2align	4, 0x90
_ZN66_$LT$core..option..Option$LT$T$GT$$u20$as$u20$core..fmt..Debug$GT$3fmt17ha4e9676efdeb7e64E:
.Lfunc_begin112:
	.cv_func_id 123
	.cv_loc	123 24 515 0
.seh_proc _ZN66_$LT$core..option..Option$LT$T$GT$$u20$as$u20$core..fmt..Debug$GT$3fmt17ha4e9676efdeb7e64E
	subq	$136, %rsp
	.seh_stackalloc 136
	.seh_endprologue
	movq	%rdx, 48(%rsp)
	movq	%rcx, 104(%rsp)
	movq	%rdx, 112(%rsp)
.Ltmp325:
	movq	%rcx, 64(%rsp)
	movq	64(%rsp), %rax
	movl	(%rax), %eax
	testq	%rax, %rax
	je	.LBB112_2
	jmp	.LBB112_9
.LBB112_9:
	jmp	.LBB112_3
	ud2
.LBB112_2:
	movq	48(%rsp), %rcx
	leaq	__unnamed_22(%rip), %rdx
	movl	$4, %r8d
	callq	_ZN4core3fmt9Formatter9write_str17h25be7ace8763f8ceE
	andb	$1, %al
	movb	%al, 63(%rsp)
	jmp	.LBB112_8
.LBB112_3:
	.cv_loc	123 24 526 0
	movq	48(%rsp), %rdx
	movq	64(%rsp), %rax
	addq	$4, %rax
	movq	%rax, 40(%rsp)
	movq	%rax, 120(%rsp)
.Ltmp326:
	.cv_loc	123 24 515 0
	leaq	72(%rsp), %rcx
	leaq	__unnamed_23(%rip), %r8
	movl	$4, %r9d
	callq	_ZN4core3fmt9Formatter11debug_tuple17h6ec63168738fcc28E
	movq	40(%rsp), %rax
	leaq	72(%rsp), %rcx
	movq	%rcx, 128(%rsp)
.Ltmp327:
	.cv_loc	123 24 526 0
	movq	%rax, 96(%rsp)
	leaq	96(%rsp), %rdx
	.cv_loc	123 24 515 0
	leaq	72(%rsp), %rcx
	leaq	__unnamed_24(%rip), %r8
	callq	_ZN4core3fmt8builders10DebugTuple5field17h52ed0743e758086cE
	leaq	72(%rsp), %rcx
	callq	_ZN4core3fmt8builders10DebugTuple6finish17hc714b17e1c70a69cE
	andb	$1, %al
	movb	%al, 63(%rsp)
.Ltmp328:
	.cv_loc	123 24 515 0
	jmp	.LBB112_7
.LBB112_7:
	movb	63(%rsp), %al
	andb	$1, %al
	movzbl	%al, %eax
	addq	$136, %rsp
	retq
.LBB112_8:
	jmp	.LBB112_7
.Ltmp329:
.Lfunc_end112:
	.seh_endproc

	.def	_ZN66_$LT$core..option..Option$LT$T$GT$$u20$as$u20$core..fmt..Debug$GT$3fmt17hdee1f27fd344fb85E;
	.scl	2;
	.type	32;
	.endef
	.section	.text,"xr",one_only,_ZN66_$LT$core..option..Option$LT$T$GT$$u20$as$u20$core..fmt..Debug$GT$3fmt17hdee1f27fd344fb85E
	.globl	_ZN66_$LT$core..option..Option$LT$T$GT$$u20$as$u20$core..fmt..Debug$GT$3fmt17hdee1f27fd344fb85E
	.p2align	4, 0x90
_ZN66_$LT$core..option..Option$LT$T$GT$$u20$as$u20$core..fmt..Debug$GT$3fmt17hdee1f27fd344fb85E:
.Lfunc_begin113:
	.cv_func_id 124
	.cv_loc	124 24 515 0
.seh_proc _ZN66_$LT$core..option..Option$LT$T$GT$$u20$as$u20$core..fmt..Debug$GT$3fmt17hdee1f27fd344fb85E
	subq	$136, %rsp
	.seh_stackalloc 136
	.seh_endprologue
	movq	%rdx, 48(%rsp)
	movq	%rcx, 104(%rsp)
	movq	%rdx, 112(%rsp)
.Ltmp330:
	movq	%rcx, 64(%rsp)
	movq	64(%rsp), %rax
	movq	(%rax), %rax
	addq	$-2, %rax
	setne	%al
	movzbl	%al, %eax
	je	.LBB113_2
	jmp	.LBB113_9
.LBB113_9:
	jmp	.LBB113_3
	ud2
.LBB113_2:
	movq	48(%rsp), %rcx
	leaq	__unnamed_22(%rip), %rdx
	movl	$4, %r8d
	callq	_ZN4core3fmt9Formatter9write_str17h25be7ace8763f8ceE
	andb	$1, %al
	movb	%al, 63(%rsp)
	jmp	.LBB113_8
.LBB113_3:
	.cv_loc	124 24 526 0
	movq	48(%rsp), %rdx
	movq	64(%rsp), %rax
	movq	%rax, 40(%rsp)
	movq	%rax, 120(%rsp)
.Ltmp331:
	.cv_loc	124 24 515 0
	leaq	72(%rsp), %rcx
	leaq	__unnamed_23(%rip), %r8
	movl	$4, %r9d
	callq	_ZN4core3fmt9Formatter11debug_tuple17h6ec63168738fcc28E
	movq	40(%rsp), %rax
	leaq	72(%rsp), %rcx
	movq	%rcx, 128(%rsp)
.Ltmp332:
	.cv_loc	124 24 526 0
	movq	%rax, 96(%rsp)
	leaq	96(%rsp), %rdx
	.cv_loc	124 24 515 0
	leaq	72(%rsp), %rcx
	leaq	__unnamed_25(%rip), %r8
	callq	_ZN4core3fmt8builders10DebugTuple5field17h52ed0743e758086cE
	leaq	72(%rsp), %rcx
	callq	_ZN4core3fmt8builders10DebugTuple6finish17hc714b17e1c70a69cE
	andb	$1, %al
	movb	%al, 63(%rsp)
.Ltmp333:
	.cv_loc	124 24 515 0
	jmp	.LBB113_7
.LBB113_7:
	movb	63(%rsp), %al
	andb	$1, %al
	movzbl	%al, %eax
	addq	$136, %rsp
	retq
.LBB113_8:
	jmp	.LBB113_7
.Ltmp334:
.Lfunc_end113:
	.seh_endproc

	.def	_ZN68_$LT$core..option..Option$LT$T$GT$$u20$as$u20$core..clone..Clone$GT$5clone17h63738b0c68b6739cE;
	.scl	2;
	.type	32;
	.endef
	.section	.text,"xr",one_only,_ZN68_$LT$core..option..Option$LT$T$GT$$u20$as$u20$core..clone..Clone$GT$5clone17h63738b0c68b6739cE
	.globl	_ZN68_$LT$core..option..Option$LT$T$GT$$u20$as$u20$core..clone..Clone$GT$5clone17h63738b0c68b6739cE
	.p2align	4, 0x90
_ZN68_$LT$core..option..Option$LT$T$GT$$u20$as$u20$core..clone..Clone$GT$5clone17h63738b0c68b6739cE:
.Lfunc_begin114:
	.cv_func_id 125
	.cv_loc	125 24 1889 0
.seh_proc _ZN68_$LT$core..option..Option$LT$T$GT$$u20$as$u20$core..clone..Clone$GT$5clone17h63738b0c68b6739cE
	subq	$104, %rsp
	.seh_stackalloc 104
	.seh_endprologue
	movq	%rdx, 40(%rsp)
	movq	%rcx, 48(%rsp)
	movq	%rcx, 56(%rsp)
	movq	%rdx, 88(%rsp)
.Ltmp335:
	.cv_loc	125 24 1890 0
	movq	(%rdx), %rax
	addq	$-2, %rax
	setne	%al
	movzbl	%al, %eax
	je	.LBB114_2
	jmp	.LBB114_6
.LBB114_6:
	jmp	.LBB114_3
	ud2
.LBB114_2:
	.cv_loc	125 24 1892 0
	movq	48(%rsp), %rax
	movq	$2, (%rax)
	jmp	.LBB114_5
.LBB114_3:
	.cv_loc	125 24 1891 0
	movq	40(%rsp), %rdx
	movq	%rdx, 96(%rsp)
.Ltmp336:
	.cv_loc	125 24 1891 0
	leaq	64(%rsp), %rcx
	callq	_ZN58_$LT$log..MaybeStaticStr$u20$as$u20$core..clone..Clone$GT$5clone17h0dac6a119b594d1fE
	movq	48(%rsp), %rax
	movq	64(%rsp), %rcx
	movq	%rcx, (%rax)
	movq	72(%rsp), %rcx
	movq	%rcx, 8(%rax)
	movq	80(%rsp), %rcx
	movq	%rcx, 16(%rax)
.Ltmp337:
.LBB114_5:
	.cv_loc	125 24 1894 0
	movq	56(%rsp), %rax
	addq	$104, %rsp
	retq
.Ltmp338:
.Lfunc_end114:
	.seh_endproc

	.def	_ZN68_$LT$core..option..Option$LT$T$GT$$u20$as$u20$core..clone..Clone$GT$5clone17h861940da3cbca5b7E;
	.scl	2;
	.type	32;
	.endef
	.section	.text,"xr",one_only,_ZN68_$LT$core..option..Option$LT$T$GT$$u20$as$u20$core..clone..Clone$GT$5clone17h861940da3cbca5b7E
	.globl	_ZN68_$LT$core..option..Option$LT$T$GT$$u20$as$u20$core..clone..Clone$GT$5clone17h861940da3cbca5b7E
	.p2align	4, 0x90
_ZN68_$LT$core..option..Option$LT$T$GT$$u20$as$u20$core..clone..Clone$GT$5clone17h861940da3cbca5b7E:
.Lfunc_begin115:
	.cv_func_id 126
	.cv_loc	126 24 1889 0
.seh_proc _ZN68_$LT$core..option..Option$LT$T$GT$$u20$as$u20$core..clone..Clone$GT$5clone17h861940da3cbca5b7E
	subq	$72, %rsp
	.seh_stackalloc 72
	.seh_endprologue
	movq	%rcx, 40(%rsp)
	movq	%rcx, 56(%rsp)
.Ltmp339:
	.cv_loc	126 24 1890 0
	movl	(%rcx), %eax
	testq	%rax, %rax
	je	.LBB115_2
	jmp	.LBB115_6
.LBB115_6:
	jmp	.LBB115_3
	ud2
.LBB115_2:
	.cv_loc	126 24 1892 0
	movl	$0, 48(%rsp)
	jmp	.LBB115_5
.LBB115_3:
	.cv_loc	126 24 1891 0
	movq	40(%rsp), %rcx
	addq	$4, %rcx
	movq	%rcx, 64(%rsp)
.Ltmp340:
	.cv_loc	126 24 1891 0
	callq	_ZN4core5clone5impls52_$LT$impl$u20$core..clone..Clone$u20$for$u20$u32$GT$5clone17h4c89926f0371a418E
	movl	%eax, 36(%rsp)
	movl	36(%rsp), %eax
	movl	%eax, 52(%rsp)
	movl	$1, 48(%rsp)
.Ltmp341:
.LBB115_5:
	.cv_loc	126 24 1894 0
	movl	48(%rsp), %eax
	movl	52(%rsp), %edx
	addq	$72, %rsp
	retq
.Ltmp342:
.Lfunc_end115:
	.seh_endproc

	.def	_ZN86_$LT$core..option..Item$LT$A$GT$$u20$as$u20$core..iter..traits..iterator..Iterator$GT$4next17hfd985a047a5c5f2aE;
	.scl	2;
	.type	32;
	.endef
	.section	.text,"xr",one_only,_ZN86_$LT$core..option..Item$LT$A$GT$$u20$as$u20$core..iter..traits..iterator..Iterator$GT$4next17hfd985a047a5c5f2aE
	.globl	_ZN86_$LT$core..option..Item$LT$A$GT$$u20$as$u20$core..iter..traits..iterator..Iterator$GT$4next17hfd985a047a5c5f2aE
	.p2align	4, 0x90
_ZN86_$LT$core..option..Item$LT$A$GT$$u20$as$u20$core..iter..traits..iterator..Iterator$GT$4next17hfd985a047a5c5f2aE:
.Lfunc_begin116:
	.cv_func_id 127
	.cv_loc	127 24 2047 0
.seh_proc _ZN86_$LT$core..option..Item$LT$A$GT$$u20$as$u20$core..iter..traits..iterator..Iterator$GT$4next17hfd985a047a5c5f2aE
	subq	$56, %rsp
	.seh_stackalloc 56
	.seh_endprologue
	movq	%rcx, 48(%rsp)
.Ltmp343:
	.cv_loc	127 24 2048 0
	callq	_ZN4core6option15Option$LT$T$GT$4take17hb6fcf31d1ccaae0cE
	movq	%rax, 32(%rsp)
	movq	%rdx, 40(%rsp)
	.cv_loc	127 24 2049 0
	movq	40(%rsp), %rdx
	movq	32(%rsp), %rax
	addq	$56, %rsp
	retq
.Ltmp344:
.Lfunc_end116:
	.seh_endproc

	.def	_ZN90_$LT$core..ops..control_flow..ControlFlow$LT$B$C$C$GT$$u20$as$u20$core..cmp..PartialEq$GT$2eq17h125725596078de97E;
	.scl	2;
	.type	32;
	.endef
	.section	.text,"xr",one_only,_ZN90_$LT$core..ops..control_flow..ControlFlow$LT$B$C$C$GT$$u20$as$u20$core..cmp..PartialEq$GT$2eq17h125725596078de97E
	.globl	_ZN90_$LT$core..ops..control_flow..ControlFlow$LT$B$C$C$GT$$u20$as$u20$core..cmp..PartialEq$GT$2eq17h125725596078de97E
	.p2align	4, 0x90
_ZN90_$LT$core..ops..control_flow..ControlFlow$LT$B$C$C$GT$$u20$as$u20$core..cmp..PartialEq$GT$2eq17h125725596078de97E:
.Lfunc_begin117:
	.cv_func_id 128
	.cv_loc	128 3 82 0
.seh_proc _ZN90_$LT$core..ops..control_flow..ControlFlow$LT$B$C$C$GT$$u20$as$u20$core..cmp..PartialEq$GT$2eq17h125725596078de97E
	subq	$136, %rsp
	.seh_stackalloc 136
	.seh_endprologue
	movq	%rdx, 32(%rsp)
	movq	%rcx, 40(%rsp)
	movq	%rcx, 72(%rsp)
	movq	%rdx, 80(%rsp)
.Ltmp345:
	movb	(%rcx), %al
	andb	$1, %al
	movzbl	%al, %eax
	movq	%rax, 88(%rsp)
.Ltmp346:
	.cv_loc	128 3 82 0
	movb	(%rdx), %cl
	andb	$1, %cl
	movzbl	%cl, %ecx
	movq	%rcx, 96(%rsp)
.Ltmp347:
	.cv_loc	128 3 82 0
	cmpq	%rcx, %rax
	je	.LBB117_2
	movb	$0, 55(%rsp)
	jmp	.LBB117_11
.LBB117_2:
	movq	32(%rsp), %rax
	movq	40(%rsp), %rcx
	movq	%rcx, 56(%rsp)
	movq	%rax, 64(%rsp)
	movq	56(%rsp), %rax
	movzbl	(%rax), %eax
	testb	$1, %al
	je	.LBB117_4
	jmp	.LBB117_12
.LBB117_12:
	jmp	.LBB117_5
.LBB117_3:
	ud2
.LBB117_4:
	movq	64(%rsp), %rax
	movb	(%rax), %al
	andb	$1, %al
	movzbl	%al, %eax
	cmpq	$0, %rax
	je	.LBB117_9
	jmp	.LBB117_3
.LBB117_5:
	movq	64(%rsp), %rax
	movb	(%rax), %al
	andb	$1, %al
	movzbl	%al, %eax
	cmpq	$1, %rax
	jne	.LBB117_3
	.cv_loc	128 3 91 0
	movq	56(%rsp), %rcx
	addq	$1, %rcx
	movq	%rcx, 104(%rsp)
	movq	64(%rsp), %rdx
	addq	$1, %rdx
	movq	%rdx, 112(%rsp)
.Ltmp348:
	.cv_loc	128 3 91 0
	callq	_ZN4core3cmp5impls59_$LT$impl$u20$core..cmp..PartialEq$u20$for$u20$$LP$$RP$$GT$2eq17h2cd55a9bf01bc729E
	andb	$1, %al
	movb	%al, 55(%rsp)
.Ltmp349:
	.cv_loc	128 3 82 0
	jmp	.LBB117_8
.LBB117_8:
	jmp	.LBB117_11
.LBB117_9:
	.cv_loc	128 3 87 0
	movq	56(%rsp), %rcx
	addq	$1, %rcx
	movq	%rcx, 120(%rsp)
	movq	64(%rsp), %rdx
	addq	$1, %rdx
	movq	%rdx, 128(%rsp)
.Ltmp350:
	.cv_loc	128 3 87 0
	callq	_ZN4core3cmp5impls59_$LT$impl$u20$core..cmp..PartialEq$u20$for$u20$$LP$$RP$$GT$2eq17h2cd55a9bf01bc729E
	andb	$1, %al
	movb	%al, 55(%rsp)
.Ltmp351:
	.cv_loc	128 3 82 0
	jmp	.LBB117_8
.Ltmp352:
.LBB117_11:
	.cv_loc	128 3 82 0
	movb	55(%rsp), %al
	andb	$1, %al
	movzbl	%al, %eax
	addq	$136, %rsp
	retq
.Ltmp353:
.Lfunc_end117:
	.seh_endproc

	.def	_ZN90_$LT$core..option..IntoIter$LT$A$GT$$u20$as$u20$core..iter..traits..iterator..Iterator$GT$4next17hc372f4100af765f7E;
	.scl	2;
	.type	32;
	.endef
	.section	.text,"xr",one_only,_ZN90_$LT$core..option..IntoIter$LT$A$GT$$u20$as$u20$core..iter..traits..iterator..Iterator$GT$4next17hc372f4100af765f7E
	.globl	_ZN90_$LT$core..option..IntoIter$LT$A$GT$$u20$as$u20$core..iter..traits..iterator..Iterator$GT$4next17hc372f4100af765f7E
	.p2align	4, 0x90
_ZN90_$LT$core..option..IntoIter$LT$A$GT$$u20$as$u20$core..iter..traits..iterator..Iterator$GT$4next17hc372f4100af765f7E:
.Lfunc_begin118:
	.cv_func_id 129
	.cv_loc	129 24 2178 0
.seh_proc _ZN90_$LT$core..option..IntoIter$LT$A$GT$$u20$as$u20$core..iter..traits..iterator..Iterator$GT$4next17hc372f4100af765f7E
	subq	$56, %rsp
	.seh_stackalloc 56
	.seh_endprologue
	movq	%rcx, 48(%rsp)
.Ltmp354:
	.cv_loc	129 24 2179 0
	callq	_ZN86_$LT$core..option..Item$LT$A$GT$$u20$as$u20$core..iter..traits..iterator..Iterator$GT$4next17hfd985a047a5c5f2aE
	movq	%rax, 32(%rsp)
	movq	%rdx, 40(%rsp)
	.cv_loc	129 24 2180 0
	movq	40(%rsp), %rdx
	movq	32(%rsp), %rax
	addq	$56, %rsp
	retq
.Ltmp355:
.Lfunc_end118:
	.seh_endproc

	.def	_ZN91_$LT$core..option..Option$LT$T$GT$$u20$as$u20$core..iter..traits..collect..IntoIterator$GT$9into_iter17h038f869a3f07bd82E;
	.scl	2;
	.type	32;
	.endef
	.section	.text,"xr",one_only,_ZN91_$LT$core..option..Option$LT$T$GT$$u20$as$u20$core..iter..traits..collect..IntoIterator$GT$9into_iter17h038f869a3f07bd82E
	.globl	_ZN91_$LT$core..option..Option$LT$T$GT$$u20$as$u20$core..iter..traits..collect..IntoIterator$GT$9into_iter17h038f869a3f07bd82E
	.p2align	4, 0x90
_ZN91_$LT$core..option..Option$LT$T$GT$$u20$as$u20$core..iter..traits..collect..IntoIterator$GT$9into_iter17h038f869a3f07bd82E:
.Lfunc_begin119:
	.cv_func_id 130
	.cv_loc	130 24 1941 0
.seh_proc _ZN91_$LT$core..option..Option$LT$T$GT$$u20$as$u20$core..iter..traits..collect..IntoIterator$GT$9into_iter17h038f869a3f07bd82E
	subq	$48, %rsp
	.seh_stackalloc 48
	.seh_endprologue
	movq	%rcx, 32(%rsp)
	movq	%rdx, 40(%rsp)
.Ltmp356:
	.cv_loc	130 24 1942 0
	movq	%rcx, 16(%rsp)
	movq	%rdx, 24(%rsp)
	movq	16(%rsp), %rcx
	movq	24(%rsp), %rax
	movq	%rcx, (%rsp)
	movq	%rax, 8(%rsp)
	.cv_loc	130 24 1943 0
	movq	(%rsp), %rax
	movq	8(%rsp), %rdx
	addq	$48, %rsp
	retq
.Ltmp357:
.Lfunc_end119:
	.seh_endproc

	.def	_ZN91_$LT$core..slice..iter..Iter$LT$T$GT$$u20$as$u20$core..iter..traits..iterator..Iterator$GT$24__iterator_get_unchecked17h9b7cdf380546d218E;
	.scl	2;
	.type	32;
	.endef
	.section	.text,"xr",one_only,_ZN91_$LT$core..slice..iter..Iter$LT$T$GT$$u20$as$u20$core..iter..traits..iterator..Iterator$GT$24__iterator_get_unchecked17h9b7cdf380546d218E
	.globl	_ZN91_$LT$core..slice..iter..Iter$LT$T$GT$$u20$as$u20$core..iter..traits..iterator..Iterator$GT$24__iterator_get_unchecked17h9b7cdf380546d218E
	.p2align	4, 0x90
_ZN91_$LT$core..slice..iter..Iter$LT$T$GT$$u20$as$u20$core..iter..traits..iterator..Iterator$GT$24__iterator_get_unchecked17h9b7cdf380546d218E:
.Lfunc_begin120:
	.cv_func_id 131
	.cv_file	27 "/rustc/fe5b13d681f25ee6474be29d748c65adcd91f69e\\library\\core\\src\\slice\\iter\\macros.rs" "F9FE32E022AF390DDA9D627ADEE23E58D8D0E8EB" 2
	.cv_loc	131 27 329 0
.seh_proc _ZN91_$LT$core..slice..iter..Iter$LT$T$GT$$u20$as$u20$core..iter..traits..iterator..Iterator$GT$24__iterator_get_unchecked17h9b7cdf380546d218E
	subq	$120, %rsp
	.seh_stackalloc 120
	.seh_endprologue
	movq	%rdx, 48(%rsp)
	movq	%rcx, 64(%rsp)
	movq	%rdx, 72(%rsp)
.Ltmp358:
	.cv_loc	131 27 340 0
	movq	(%rcx), %rcx
	callq	_ZN4core3ptr8non_null16NonNull$LT$T$GT$6as_ptr17h5cf332a2f7ec5615E
	movq	%rax, 56(%rsp)
	.cv_inline_site_id 132 within 131 inlined_at 27 340 0
	.cv_inline_site_id 133 within 132 inlined_at 13 807 0
	.cv_loc	133 13 424 0
	movq	48(%rsp), %rcx
	movq	56(%rsp), %rax
	movq	%rax, 80(%rsp)
	movq	%rcx, 88(%rsp)
	movq	%rax, 96(%rsp)
	movq	%rcx, 104(%rsp)
.Ltmp359:
	addq	%rcx, %rax
	movq	%rax, 112(%rsp)
	movq	112(%rsp), %rax
	movq	%rax, 40(%rsp)
.Ltmp360:
	.cv_loc	131 27 341 0
	movq	40(%rsp), %rax
	addq	$120, %rsp
	retq
.Ltmp361:
.Lfunc_end120:
	.seh_endproc

	.def	_ZN91_$LT$core..slice..iter..Iter$LT$T$GT$$u20$as$u20$core..iter..traits..iterator..Iterator$GT$4next17ha14679e9d3127ea2E;
	.scl	2;
	.type	32;
	.endef
	.section	.text,"xr",one_only,_ZN91_$LT$core..slice..iter..Iter$LT$T$GT$$u20$as$u20$core..iter..traits..iterator..Iterator$GT$4next17ha14679e9d3127ea2E
	.globl	_ZN91_$LT$core..slice..iter..Iter$LT$T$GT$$u20$as$u20$core..iter..traits..iterator..Iterator$GT$4next17ha14679e9d3127ea2E
	.p2align	4, 0x90
_ZN91_$LT$core..slice..iter..Iter$LT$T$GT$$u20$as$u20$core..iter..traits..iterator..Iterator$GT$4next17ha14679e9d3127ea2E:
.Lfunc_begin121:
	.cv_func_id 134
	.cv_loc	134 27 134 0
.seh_proc _ZN91_$LT$core..slice..iter..Iter$LT$T$GT$$u20$as$u20$core..iter..traits..iterator..Iterator$GT$4next17ha14679e9d3127ea2E
	subq	$152, %rsp
	.seh_stackalloc 152
	.seh_endprologue
	movq	%rcx, 64(%rsp)
	movq	%rcx, 88(%rsp)
.Ltmp362:
	.cv_loc	134 27 142 0
	movq	(%rcx), %rcx
	callq	_ZN4core3ptr8non_null16NonNull$LT$T$GT$6as_ptr17h4ca0d9ea90f86ab8E
	movq	%rax, 72(%rsp)
	movq	72(%rsp), %rcx
	callq	_ZN4core3ptr7mut_ptr31_$LT$impl$u20$$BP$mut$u20$T$GT$7is_null17h547f9973846340d7E
	.cv_loc	134 27 143 0
	jmp	.LBB121_4
.LBB121_4:
	movl	$16, %eax
	cmpq	$0, %rax
	jne	.LBB121_6
	jmp	.LBB121_9
.LBB121_6:
	.cv_loc	134 27 144 0
	movq	64(%rsp), %rax
	movq	8(%rax), %rcx
	callq	_ZN4core3ptr9const_ptr33_$LT$impl$u20$$BP$const$u20$T$GT$7is_null17ha806058515d4aaebE
	.cv_loc	134 27 143 0
	jmp	.LBB121_9
.LBB121_9:
	.cv_loc	134 27 146 0
	movq	64(%rsp), %rax
	movq	(%rax), %rcx
	callq	_ZN4core3ptr8non_null16NonNull$LT$T$GT$6as_ptr17h4ca0d9ea90f86ab8E
	movq	%rax, 56(%rsp)
	movq	56(%rsp), %rax
	movq	64(%rsp), %rcx
	cmpq	8(%rcx), %rax
	je	.LBB121_12
	.cv_inline_site_id 135 within 134 inlined_at 27 149 0
	.cv_loc	135 27 90 0
	movq	64(%rsp), %rax
	movq	%rax, 104(%rsp)
	movq	$1, 112(%rsp)
.Ltmp363:
	movq	(%rax), %rcx
	callq	_ZN4core3ptr8non_null16NonNull$LT$T$GT$6as_ptr17h4ca0d9ea90f86ab8E
	movq	%rax, %rcx
	movq	64(%rsp), %rax
	movq	%rcx, 40(%rsp)
	movq	%rcx, 120(%rsp)
.Ltmp364:
	.cv_loc	135 27 93 0
	movq	(%rax), %rcx
	callq	_ZN4core3ptr8non_null16NonNull$LT$T$GT$6as_ptr17h4ca0d9ea90f86ab8E
	movq	%rax, 128(%rsp)
	movq	$1, 136(%rsp)
.Ltmp365:
	.cv_inline_site_id 136 within 135 inlined_at 27 93 0
	.cv_loc	136 13 424 0
	addq	$16, %rax
	movq	%rax, 144(%rsp)
	movq	144(%rsp), %rcx
.Ltmp366:
	.cv_loc	135 27 93 0
	callq	_ZN4core3ptr8non_null16NonNull$LT$T$GT$13new_unchecked17hbbebeb8dac47bb53E
	movq	64(%rsp), %rcx
	movq	%rax, %rdx
	movq	40(%rsp), %rax
	movq	%rdx, (%rcx)
	.cv_loc	135 27 94 0
	movq	%rax, 96(%rsp)
.Ltmp367:
	.cv_loc	135 27 96 0
	movq	96(%rsp), %rax
	movq	%rax, 48(%rsp)
.Ltmp368:
	.cv_loc	134 27 149 0
	jmp	.LBB121_14
.LBB121_12:
	.cv_loc	134 27 147 0
	movq	$0, 80(%rsp)
.LBB121_13:
	.cv_loc	134 27 152 0
	movq	80(%rsp), %rax
	addq	$152, %rsp
	retq
.LBB121_14:
	.cv_loc	134 27 149 0
	movq	48(%rsp), %rax
	movq	%rax, 80(%rsp)
	.cv_loc	134 27 146 0
	jmp	.LBB121_13
.Ltmp369:
.Lfunc_end121:
	.seh_endproc

	.def	_ZN91_$LT$core..slice..iter..Iter$LT$T$GT$$u20$as$u20$core..iter..traits..iterator..Iterator$GT$8position17h13b67feac836f905E;
	.scl	2;
	.type	32;
	.endef
	.section	.text,"xr",one_only,_ZN91_$LT$core..slice..iter..Iter$LT$T$GT$$u20$as$u20$core..iter..traits..iterator..Iterator$GT$8position17h13b67feac836f905E
	.globl	_ZN91_$LT$core..slice..iter..Iter$LT$T$GT$$u20$as$u20$core..iter..traits..iterator..Iterator$GT$8position17h13b67feac836f905E
	.p2align	4, 0x90
_ZN91_$LT$core..slice..iter..Iter$LT$T$GT$$u20$as$u20$core..iter..traits..iterator..Iterator$GT$8position17h13b67feac836f905E:
.Lfunc_begin122:
	.cv_func_id 137
	.cv_loc	137 27 288 0
.seh_proc _ZN91_$LT$core..slice..iter..Iter$LT$T$GT$$u20$as$u20$core..iter..traits..iterator..Iterator$GT$8position17h13b67feac836f905E
	.seh_handler __CxxFrameHandler3, @unwind, @except
	pushq	%rbp
	.seh_pushreg %rbp
	subq	$240, %rsp
	.seh_stackalloc 240
	leaq	128(%rsp), %rbp
	.seh_setframe %rbp, 128
	.seh_endprologue
	movq	$-2, 104(%rbp)
	movq	%rcx, -48(%rbp)
	movq	%rdx, -24(%rbp)
	movq	%rcx, 32(%rbp)
.Ltmp384:
	.cv_loc	137 27 292 0
	movq	(%rcx), %rcx
	movq	%rcx, -40(%rbp)
	movq	%rcx, 40(%rbp)
	.cv_loc	137 27 292 0
.Ltmp370:
.Ltmp385:
	callq	_ZN4core3ptr8non_null16NonNull$LT$T$GT$6as_ptr17h4ca0d9ea90f86ab8E
.Ltmp371:
	movq	%rax, -32(%rbp)
	jmp	.LBB122_2
.LBB122_2:
	movq	-48(%rbp), %rax
	movq	-32(%rbp), %rcx
	movq	%rcx, 96(%rbp)
	movq	$16, 48(%rbp)
.Ltmp386:
	.cv_loc	137 27 292 0
	movq	8(%rax), %rcx
.Ltmp372:
	callq	_ZN4core3ptr9const_ptr33_$LT$impl$u20$$BP$const$u20$T$GT$4addr17h42ed21bfa0a450d7E
.Ltmp373:
	movq	%rax, -56(%rbp)
	jmp	.LBB122_3
.LBB122_3:
.Ltmp374:
	movq	-40(%rbp), %rcx
	callq	_ZN4core3ptr8non_null16NonNull$LT$T$GT$6as_ptr17h4ca0d9ea90f86ab8E
.Ltmp375:
	movq	%rax, -64(%rbp)
	jmp	.LBB122_4
.LBB122_4:
.Ltmp376:
	movq	-64(%rbp), %rcx
	callq	_ZN4core3ptr7mut_ptr31_$LT$impl$u20$$BP$mut$u20$T$GT$4addr17h1e56ad61539dd2b0E
.Ltmp377:
	movq	%rax, -72(%rbp)
	jmp	.LBB122_5
.LBB122_5:
	movq	-72(%rbp), %rcx
	movq	-56(%rbp), %rax
	subq	%rcx, %rax
	movq	%rax, 56(%rbp)
	movq	56(%rbp), %rax
	movq	%rax, 64(%rbp)
.Ltmp387:
	.cv_loc	137 27 292 0
	shrq	$4, %rax
	movq	%rax, (%rbp)
.Ltmp388:
	.cv_loc	137 27 293 0
	movq	$0, 8(%rbp)
.LBB122_7:
	.cv_loc	137 27 294 0
.Ltmp378:
	movq	-48(%rbp), %rcx
.Ltmp389:
	callq	_ZN91_$LT$core..slice..iter..Iter$LT$T$GT$$u20$as$u20$core..iter..traits..iterator..Iterator$GT$4next17ha14679e9d3127ea2E
.Ltmp379:
	movq	%rax, -80(%rbp)
	jmp	.LBB122_8
.LBB122_8:
	movq	-80(%rbp), %rax
	movq	%rax, 16(%rbp)
	movl	$1, %eax
	xorl	%ecx, %ecx
	cmpq	$0, 16(%rbp)
	cmoveq	%rcx, %rax
	cmpq	$1, %rax
	jne	.LBB122_10
	movq	16(%rbp), %rax
	movq	%rax, 72(%rbp)
	.cv_loc	137 27 295 0
	movq	%rax, 24(%rbp)
	movq	24(%rbp), %rdx
.Ltmp380:
	leaq	-24(%rbp), %rcx
	callq	_ZN63_$LT$log..LevelFilter$u20$as$u20$core..str..traits..FromStr$GT$8from_str28_$u7b$$u7b$closure$u7d$$u7d$17h4e54537faec1e63dE
.Ltmp381:
	movb	%al, -81(%rbp)
	jmp	.LBB122_12
.LBB122_10:
	.cv_loc	137 27 303 0
	movq	$0, -16(%rbp)
.Ltmp390:
.LBB122_11:
	.cv_loc	137 27 304 0
	movq	-16(%rbp), %rax
	movq	-8(%rbp), %rdx
	addq	$240, %rsp
	popq	%rbp
	retq
.LBB122_12:
	.cv_loc	137 27 295 0
	movb	-81(%rbp), %al
.Ltmp391:
	testb	$1, %al
	jne	.LBB122_14
	jmp	.LBB122_13
.LBB122_13:
	.cv_loc	137 27 301 0
	movq	8(%rbp), %rax
	addq	$1, %rax
	movq	%rax, -96(%rbp)
	setb	%al
	testb	$1, %al
	jne	.LBB122_16
	jmp	.LBB122_15
.LBB122_14:
	.cv_loc	137 27 298 0
	movq	8(%rbp), %rax
	.cv_loc	137 27 299 0
	movq	8(%rbp), %rax
	movq	%rax, -8(%rbp)
	movq	$1, -16(%rbp)
.Ltmp392:
	.cv_loc	137 27 304 0
	jmp	.LBB122_11
.LBB122_15:
	.cv_loc	137 27 301 0
	movq	-96(%rbp), %rax
.Ltmp393:
	movq	%rax, 8(%rbp)
	.cv_loc	137 27 294 0
	jmp	.LBB122_7
.LBB122_16:
	.cv_loc	137 27 301 0
.Ltmp382:
	leaq	str.0(%rip), %rcx
	leaq	__unnamed_26(%rip), %r8
	movl	$28, %edx
	callq	_ZN4core9panicking5panic17hec2b05800ae70116E
.Ltmp383:
	jmp	.LBB122_17
.Ltmp394:
.LBB122_17:
	ud2
	.seh_handlerdata
	.long	($cppxdata$_ZN91_$LT$core..slice..iter..Iter$LT$T$GT$$u20$as$u20$core..iter..traits..iterator..Iterator$GT$8position17h13b67feac836f905E)@IMGREL
	.section	.text,"xr",one_only,_ZN91_$LT$core..slice..iter..Iter$LT$T$GT$$u20$as$u20$core..iter..traits..iterator..Iterator$GT$8position17h13b67feac836f905E
	.seh_endproc
	.def	"?dtor$1@?0?_ZN91_$LT$core..slice..iter..Iter$LT$T$GT$$u20$as$u20$core..iter..traits..iterator..Iterator$GT$8position17h13b67feac836f905E@4HA";
	.scl	3;
	.type	32;
	.endef
	.p2align	4, 0x90
"?dtor$1@?0?_ZN91_$LT$core..slice..iter..Iter$LT$T$GT$$u20$as$u20$core..iter..traits..iterator..Iterator$GT$8position17h13b67feac836f905E@4HA":
.seh_proc "?dtor$1@?0?_ZN91_$LT$core..slice..iter..Iter$LT$T$GT$$u20$as$u20$core..iter..traits..iterator..Iterator$GT$8position17h13b67feac836f905E@4HA"
.LBB122_1:
	movq	%rdx, 16(%rsp)
	pushq	%rbp
	.seh_pushreg %rbp
	subq	$32, %rsp
	.seh_stackalloc 32
	leaq	128(%rdx), %rbp
	.seh_endprologue
	.cv_loc	137 27 288 0
	addq	$32, %rsp
	popq	%rbp
	retq
.Ltmp395:
.Lfunc_end122:
	.seh_handlerdata
	.section	.text,"xr",one_only,_ZN91_$LT$core..slice..iter..Iter$LT$T$GT$$u20$as$u20$core..iter..traits..iterator..Iterator$GT$8position17h13b67feac836f905E
	.seh_endproc
	.section	.xdata,"dr",associative,_ZN91_$LT$core..slice..iter..Iter$LT$T$GT$$u20$as$u20$core..iter..traits..iterator..Iterator$GT$8position17h13b67feac836f905E
	.p2align	2
$cppxdata$_ZN91_$LT$core..slice..iter..Iter$LT$T$GT$$u20$as$u20$core..iter..traits..iterator..Iterator$GT$8position17h13b67feac836f905E:
	.long	429065506
	.long	1
	.long	($stateUnwindMap$_ZN91_$LT$core..slice..iter..Iter$LT$T$GT$$u20$as$u20$core..iter..traits..iterator..Iterator$GT$8position17h13b67feac836f905E)@IMGREL
	.long	0
	.long	0
	.long	3
	.long	($ip2state$_ZN91_$LT$core..slice..iter..Iter$LT$T$GT$$u20$as$u20$core..iter..traits..iterator..Iterator$GT$8position17h13b67feac836f905E)@IMGREL
	.long	232
	.long	0
	.long	1
$stateUnwindMap$_ZN91_$LT$core..slice..iter..Iter$LT$T$GT$$u20$as$u20$core..iter..traits..iterator..Iterator$GT$8position17h13b67feac836f905E:
	.long	-1
	.long	"?dtor$1@?0?_ZN91_$LT$core..slice..iter..Iter$LT$T$GT$$u20$as$u20$core..iter..traits..iterator..Iterator$GT$8position17h13b67feac836f905E@4HA"@IMGREL
$ip2state$_ZN91_$LT$core..slice..iter..Iter$LT$T$GT$$u20$as$u20$core..iter..traits..iterator..Iterator$GT$8position17h13b67feac836f905E:
	.long	.Lfunc_begin122@IMGREL
	.long	-1
	.long	.Ltmp370@IMGREL+1
	.long	0
	.long	.Ltmp383@IMGREL+1
	.long	-1
	.section	.text,"xr",one_only,_ZN91_$LT$core..slice..iter..Iter$LT$T$GT$$u20$as$u20$core..iter..traits..iterator..Iterator$GT$8position17h13b67feac836f905E

	.def	_ZN91_$LT$core..slice..iter..Iter$LT$T$GT$$u20$as$u20$core..iter..traits..iterator..Iterator$GT$8position17h227ecf80b1e1081aE;
	.scl	2;
	.type	32;
	.endef
	.section	.text,"xr",one_only,_ZN91_$LT$core..slice..iter..Iter$LT$T$GT$$u20$as$u20$core..iter..traits..iterator..Iterator$GT$8position17h227ecf80b1e1081aE
	.globl	_ZN91_$LT$core..slice..iter..Iter$LT$T$GT$$u20$as$u20$core..iter..traits..iterator..Iterator$GT$8position17h227ecf80b1e1081aE
	.p2align	4, 0x90
_ZN91_$LT$core..slice..iter..Iter$LT$T$GT$$u20$as$u20$core..iter..traits..iterator..Iterator$GT$8position17h227ecf80b1e1081aE:
.Lfunc_begin123:
	.cv_func_id 138
	.cv_loc	138 27 288 0
.seh_proc _ZN91_$LT$core..slice..iter..Iter$LT$T$GT$$u20$as$u20$core..iter..traits..iterator..Iterator$GT$8position17h227ecf80b1e1081aE
	.seh_handler __CxxFrameHandler3, @unwind, @except
	pushq	%rbp
	.seh_pushreg %rbp
	subq	$240, %rsp
	.seh_stackalloc 240
	leaq	128(%rsp), %rbp
	.seh_setframe %rbp, 128
	.seh_endprologue
	movq	$-2, 104(%rbp)
	movq	%rcx, -48(%rbp)
	movq	%rdx, -24(%rbp)
	movq	%rcx, 32(%rbp)
.Ltmp410:
	.cv_loc	138 27 292 0
	movq	(%rcx), %rcx
	movq	%rcx, -40(%rbp)
	movq	%rcx, 40(%rbp)
	.cv_loc	138 27 292 0
.Ltmp396:
.Ltmp411:
	callq	_ZN4core3ptr8non_null16NonNull$LT$T$GT$6as_ptr17h4ca0d9ea90f86ab8E
.Ltmp397:
	movq	%rax, -32(%rbp)
	jmp	.LBB123_2
.LBB123_2:
	movq	-48(%rbp), %rax
	movq	-32(%rbp), %rcx
	movq	%rcx, 96(%rbp)
	movq	$16, 48(%rbp)
.Ltmp412:
	.cv_loc	138 27 292 0
	movq	8(%rax), %rcx
.Ltmp398:
	callq	_ZN4core3ptr9const_ptr33_$LT$impl$u20$$BP$const$u20$T$GT$4addr17h42ed21bfa0a450d7E
.Ltmp399:
	movq	%rax, -56(%rbp)
	jmp	.LBB123_3
.LBB123_3:
.Ltmp400:
	movq	-40(%rbp), %rcx
	callq	_ZN4core3ptr8non_null16NonNull$LT$T$GT$6as_ptr17h4ca0d9ea90f86ab8E
.Ltmp401:
	movq	%rax, -64(%rbp)
	jmp	.LBB123_4
.LBB123_4:
.Ltmp402:
	movq	-64(%rbp), %rcx
	callq	_ZN4core3ptr7mut_ptr31_$LT$impl$u20$$BP$mut$u20$T$GT$4addr17h1e56ad61539dd2b0E
.Ltmp403:
	movq	%rax, -72(%rbp)
	jmp	.LBB123_5
.LBB123_5:
	movq	-72(%rbp), %rcx
	movq	-56(%rbp), %rax
	subq	%rcx, %rax
	movq	%rax, 56(%rbp)
	movq	56(%rbp), %rax
	movq	%rax, 64(%rbp)
.Ltmp413:
	.cv_loc	138 27 292 0
	shrq	$4, %rax
	movq	%rax, (%rbp)
.Ltmp414:
	.cv_loc	138 27 293 0
	movq	$0, 8(%rbp)
.LBB123_7:
	.cv_loc	138 27 294 0
.Ltmp404:
	movq	-48(%rbp), %rcx
.Ltmp415:
	callq	_ZN91_$LT$core..slice..iter..Iter$LT$T$GT$$u20$as$u20$core..iter..traits..iterator..Iterator$GT$4next17ha14679e9d3127ea2E
.Ltmp405:
	movq	%rax, -80(%rbp)
	jmp	.LBB123_8
.LBB123_8:
	movq	-80(%rbp), %rax
	movq	%rax, 16(%rbp)
	movl	$1, %eax
	xorl	%ecx, %ecx
	cmpq	$0, 16(%rbp)
	cmoveq	%rcx, %rax
	cmpq	$1, %rax
	jne	.LBB123_10
	movq	16(%rbp), %rax
	movq	%rax, 72(%rbp)
	.cv_loc	138 27 295 0
	movq	%rax, 24(%rbp)
	movq	24(%rbp), %rdx
.Ltmp406:
	leaq	-24(%rbp), %rcx
	callq	_ZN57_$LT$log..Level$u20$as$u20$core..str..traits..FromStr$GT$8from_str28_$u7b$$u7b$closure$u7d$$u7d$17h936816091884fa0dE
.Ltmp407:
	movb	%al, -81(%rbp)
	jmp	.LBB123_12
.LBB123_10:
	.cv_loc	138 27 303 0
	movq	$0, -16(%rbp)
.Ltmp416:
.LBB123_11:
	.cv_loc	138 27 304 0
	movq	-16(%rbp), %rax
	movq	-8(%rbp), %rdx
	addq	$240, %rsp
	popq	%rbp
	retq
.LBB123_12:
	.cv_loc	138 27 295 0
	movb	-81(%rbp), %al
.Ltmp417:
	testb	$1, %al
	jne	.LBB123_14
	jmp	.LBB123_13
.LBB123_13:
	.cv_loc	138 27 301 0
	movq	8(%rbp), %rax
	addq	$1, %rax
	movq	%rax, -96(%rbp)
	setb	%al
	testb	$1, %al
	jne	.LBB123_16
	jmp	.LBB123_15
.LBB123_14:
	.cv_loc	138 27 298 0
	movq	8(%rbp), %rax
	.cv_loc	138 27 299 0
	movq	8(%rbp), %rax
	movq	%rax, -8(%rbp)
	movq	$1, -16(%rbp)
.Ltmp418:
	.cv_loc	138 27 304 0
	jmp	.LBB123_11
.LBB123_15:
	.cv_loc	138 27 301 0
	movq	-96(%rbp), %rax
.Ltmp419:
	movq	%rax, 8(%rbp)
	.cv_loc	138 27 294 0
	jmp	.LBB123_7
.LBB123_16:
	.cv_loc	138 27 301 0
.Ltmp408:
	leaq	str.0(%rip), %rcx
	leaq	__unnamed_26(%rip), %r8
	movl	$28, %edx
	callq	_ZN4core9panicking5panic17hec2b05800ae70116E
.Ltmp409:
	jmp	.LBB123_17
.Ltmp420:
.LBB123_17:
	ud2
	.seh_handlerdata
	.long	($cppxdata$_ZN91_$LT$core..slice..iter..Iter$LT$T$GT$$u20$as$u20$core..iter..traits..iterator..Iterator$GT$8position17h227ecf80b1e1081aE)@IMGREL
	.section	.text,"xr",one_only,_ZN91_$LT$core..slice..iter..Iter$LT$T$GT$$u20$as$u20$core..iter..traits..iterator..Iterator$GT$8position17h227ecf80b1e1081aE
	.seh_endproc
	.def	"?dtor$1@?0?_ZN91_$LT$core..slice..iter..Iter$LT$T$GT$$u20$as$u20$core..iter..traits..iterator..Iterator$GT$8position17h227ecf80b1e1081aE@4HA";
	.scl	3;
	.type	32;
	.endef
	.p2align	4, 0x90
"?dtor$1@?0?_ZN91_$LT$core..slice..iter..Iter$LT$T$GT$$u20$as$u20$core..iter..traits..iterator..Iterator$GT$8position17h227ecf80b1e1081aE@4HA":
.seh_proc "?dtor$1@?0?_ZN91_$LT$core..slice..iter..Iter$LT$T$GT$$u20$as$u20$core..iter..traits..iterator..Iterator$GT$8position17h227ecf80b1e1081aE@4HA"
.LBB123_1:
	movq	%rdx, 16(%rsp)
	pushq	%rbp
	.seh_pushreg %rbp
	subq	$32, %rsp
	.seh_stackalloc 32
	leaq	128(%rdx), %rbp
	.seh_endprologue
	.cv_loc	138 27 288 0
	addq	$32, %rsp
	popq	%rbp
	retq
.Ltmp421:
.Lfunc_end123:
	.seh_handlerdata
	.section	.text,"xr",one_only,_ZN91_$LT$core..slice..iter..Iter$LT$T$GT$$u20$as$u20$core..iter..traits..iterator..Iterator$GT$8position17h227ecf80b1e1081aE
	.seh_endproc
	.section	.xdata,"dr",associative,_ZN91_$LT$core..slice..iter..Iter$LT$T$GT$$u20$as$u20$core..iter..traits..iterator..Iterator$GT$8position17h227ecf80b1e1081aE
	.p2align	2
$cppxdata$_ZN91_$LT$core..slice..iter..Iter$LT$T$GT$$u20$as$u20$core..iter..traits..iterator..Iterator$GT$8position17h227ecf80b1e1081aE:
	.long	429065506
	.long	1
	.long	($stateUnwindMap$_ZN91_$LT$core..slice..iter..Iter$LT$T$GT$$u20$as$u20$core..iter..traits..iterator..Iterator$GT$8position17h227ecf80b1e1081aE)@IMGREL
	.long	0
	.long	0
	.long	3
	.long	($ip2state$_ZN91_$LT$core..slice..iter..Iter$LT$T$GT$$u20$as$u20$core..iter..traits..iterator..Iterator$GT$8position17h227ecf80b1e1081aE)@IMGREL
	.long	232
	.long	0
	.long	1
$stateUnwindMap$_ZN91_$LT$core..slice..iter..Iter$LT$T$GT$$u20$as$u20$core..iter..traits..iterator..Iterator$GT$8position17h227ecf80b1e1081aE:
	.long	-1
	.long	"?dtor$1@?0?_ZN91_$LT$core..slice..iter..Iter$LT$T$GT$$u20$as$u20$core..iter..traits..iterator..Iterator$GT$8position17h227ecf80b1e1081aE@4HA"@IMGREL
$ip2state$_ZN91_$LT$core..slice..iter..Iter$LT$T$GT$$u20$as$u20$core..iter..traits..iterator..Iterator$GT$8position17h227ecf80b1e1081aE:
	.long	.Lfunc_begin123@IMGREL
	.long	-1
	.long	.Ltmp396@IMGREL+1
	.long	0
	.long	.Ltmp409@IMGREL+1
	.long	-1
	.section	.text,"xr",one_only,_ZN91_$LT$core..slice..iter..Iter$LT$T$GT$$u20$as$u20$core..iter..traits..iterator..Iterator$GT$8position17h227ecf80b1e1081aE

	.def	_ZN91_$LT$core..slice..iter..Iter$LT$T$GT$$u20$as$u20$core..iter..traits..iterator..Iterator$GT$9size_hint17hb01d0aac6c767708E;
	.scl	2;
	.type	32;
	.endef
	.section	.text,"xr",one_only,_ZN91_$LT$core..slice..iter..Iter$LT$T$GT$$u20$as$u20$core..iter..traits..iterator..Iterator$GT$9size_hint17hb01d0aac6c767708E
	.globl	_ZN91_$LT$core..slice..iter..Iter$LT$T$GT$$u20$as$u20$core..iter..traits..iterator..Iterator$GT$9size_hint17hb01d0aac6c767708E
	.p2align	4, 0x90
_ZN91_$LT$core..slice..iter..Iter$LT$T$GT$$u20$as$u20$core..iter..traits..iterator..Iterator$GT$9size_hint17hb01d0aac6c767708E:
.Lfunc_begin124:
	.cv_func_id 139
	.cv_loc	139 27 155 0
.seh_proc _ZN91_$LT$core..slice..iter..Iter$LT$T$GT$$u20$as$u20$core..iter..traits..iterator..Iterator$GT$9size_hint17hb01d0aac6c767708E
	subq	$216, %rsp
	.seh_stackalloc 216
	.seh_endprologue
	movq	%rdx, 88(%rsp)
	movq	%rcx, 96(%rsp)
	movq	%rcx, 104(%rsp)
	movq	%rdx, 152(%rsp)
.Ltmp422:
	.cv_loc	139 27 156 0
	movq	(%rdx), %rcx
	movq	%rcx, 112(%rsp)
	movq	%rcx, 160(%rsp)
.Ltmp423:
	.cv_loc	139 27 156 0
	callq	_ZN4core3ptr8non_null16NonNull$LT$T$GT$6as_ptr17h5cf332a2f7ec5615E
	movq	%rax, 120(%rsp)
	movq	120(%rsp), %rax
	movq	%rax, 208(%rsp)
	movq	$1, 168(%rsp)
.Ltmp424:
	.cv_loc	139 27 156 0
	movl	$1, %eax
	cmpq	$0, %rax
	jne	.LBB124_4
	movq	88(%rsp), %rax
	movq	8(%rax), %rcx
	callq	_ZN4core3ptr9const_ptr33_$LT$impl$u20$$BP$const$u20$T$GT$4addr17h3e9f52fd271ff1e3E
	movq	%rax, 80(%rsp)
	jmp	.LBB124_11
.LBB124_4:
	movq	88(%rsp), %rax
	movq	8(%rax), %rcx
	callq	_ZN4core3ptr9const_ptr33_$LT$impl$u20$$BP$const$u20$T$GT$4addr17h3e9f52fd271ff1e3E
	movq	%rax, 72(%rsp)
	movq	112(%rsp), %rcx
	callq	_ZN4core3ptr8non_null16NonNull$LT$T$GT$6as_ptr17h5cf332a2f7ec5615E
	movq	%rax, 64(%rsp)
	movq	64(%rsp), %rcx
	callq	_ZN4core3ptr7mut_ptr31_$LT$impl$u20$$BP$mut$u20$T$GT$4addr17hed9a07f8e3063576E
	movq	%rax, 56(%rsp)
	movq	56(%rsp), %rcx
	movq	72(%rsp), %rax
	subq	%rcx, %rax
	movq	%rax, 176(%rsp)
	movq	176(%rsp), %rax
	movq	%rax, 48(%rsp)
	movq	%rax, 184(%rsp)
	.cv_loc	139 27 156 0
	movq	48(%rsp), %rax
.Ltmp425:
	shrq	$0, %rax
	movq	%rax, 128(%rsp)
.Ltmp426:
	.cv_loc	139 27 156 0
	jmp	.LBB124_10
.Ltmp427:
.LBB124_10:
	.cv_loc	139 27 157 0
	movq	104(%rsp), %rax
	movq	96(%rsp), %rcx
.Ltmp428:
	movq	128(%rsp), %rdx
	movq	128(%rsp), %r8
	movq	%r8, 144(%rsp)
	movq	$1, 136(%rsp)
	movq	%rdx, (%rcx)
	movq	136(%rsp), %r8
	movq	144(%rsp), %rdx
	movq	%r8, 8(%rcx)
	movq	%rdx, 16(%rcx)
.Ltmp429:
	.cv_loc	139 27 158 0
	addq	$216, %rsp
	retq
.LBB124_11:
	.cv_loc	139 27 156 0
	movq	112(%rsp), %rcx
.Ltmp430:
	callq	_ZN4core3ptr8non_null16NonNull$LT$T$GT$6as_ptr17h5cf332a2f7ec5615E
	movq	%rax, 40(%rsp)
	movq	40(%rsp), %rcx
	callq	_ZN4core3ptr7mut_ptr31_$LT$impl$u20$$BP$mut$u20$T$GT$4addr17hed9a07f8e3063576E
	movq	%rax, 32(%rsp)
	.cv_file	28 "/rustc/fe5b13d681f25ee6474be29d748c65adcd91f69e\\library\\core\\src\\num\\uint_macros.rs" "54A3B3B9B51771E64DFE99ADCB0480BB77317ABF" 2
	.cv_inline_site_id 140 within 139 inlined_at 27 156 0
	.cv_loc	140 28 1226 0
	movq	32(%rsp), %rcx
	movq	80(%rsp), %rax
	movq	%rax, 192(%rsp)
	movq	%rcx, 200(%rsp)
.Ltmp431:
	subq	%rcx, %rax
.Ltmp432:
	.cv_loc	139 27 156 0
	movq	%rax, 128(%rsp)
	jmp	.LBB124_10
.Ltmp433:
.Lfunc_end124:
	.seh_endproc

	.def	_ZN95_$LT$core..ops..control_flow..ControlFlow$LT$B$C$C$GT$$u20$as$u20$core..ops..try_trait..Try$GT$11from_output17h8416e31701352bc8E;
	.scl	2;
	.type	32;
	.endef
	.section	.text,"xr",one_only,_ZN95_$LT$core..ops..control_flow..ControlFlow$LT$B$C$C$GT$$u20$as$u20$core..ops..try_trait..Try$GT$11from_output17h8416e31701352bc8E
	.globl	_ZN95_$LT$core..ops..control_flow..ControlFlow$LT$B$C$C$GT$$u20$as$u20$core..ops..try_trait..Try$GT$11from_output17h8416e31701352bc8E
	.p2align	4, 0x90
_ZN95_$LT$core..ops..control_flow..ControlFlow$LT$B$C$C$GT$$u20$as$u20$core..ops..try_trait..Try$GT$11from_output17h8416e31701352bc8E:
.Lfunc_begin125:
	.cv_func_id 141
	.cv_loc	141 3 103 0
.seh_proc _ZN95_$LT$core..ops..control_flow..ControlFlow$LT$B$C$C$GT$$u20$as$u20$core..ops..try_trait..Try$GT$11from_output17h8416e31701352bc8E
	subq	$16, %rsp
	.seh_stackalloc 16
	.seh_endprologue
.Ltmp434:
	.cv_loc	141 3 104 0
	movb	$0, 7(%rsp)
	.cv_loc	141 3 105 0
	movb	7(%rsp), %al
	andb	$1, %al
	movzbl	%al, %eax
	addq	$16, %rsp
	retq
.Ltmp435:
.Lfunc_end125:
	.seh_endproc

	.def	_ZN95_$LT$core..ops..control_flow..ControlFlow$LT$B$C$C$GT$$u20$as$u20$core..ops..try_trait..Try$GT$11from_output17hcefc1400a97143c3E;
	.scl	2;
	.type	32;
	.endef
	.section	.text,"xr",one_only,_ZN95_$LT$core..ops..control_flow..ControlFlow$LT$B$C$C$GT$$u20$as$u20$core..ops..try_trait..Try$GT$11from_output17hcefc1400a97143c3E
	.globl	_ZN95_$LT$core..ops..control_flow..ControlFlow$LT$B$C$C$GT$$u20$as$u20$core..ops..try_trait..Try$GT$11from_output17hcefc1400a97143c3E
	.p2align	4, 0x90
_ZN95_$LT$core..ops..control_flow..ControlFlow$LT$B$C$C$GT$$u20$as$u20$core..ops..try_trait..Try$GT$11from_output17hcefc1400a97143c3E:
.Lfunc_begin126:
	.cv_func_id 142
	.cv_loc	142 3 103 0
.seh_proc _ZN95_$LT$core..ops..control_flow..ControlFlow$LT$B$C$C$GT$$u20$as$u20$core..ops..try_trait..Try$GT$11from_output17hcefc1400a97143c3E
	subq	$24, %rsp
	.seh_stackalloc 24
	.seh_endprologue
.Ltmp436:
	.cv_loc	142 3 104 0
	movq	$0, (%rsp)
	.cv_loc	142 3 105 0
	movq	(%rsp), %rax
	movq	8(%rsp), %rdx
	addq	$24, %rsp
	retq
.Ltmp437:
.Lfunc_end126:
	.seh_endproc

	.def	_ZN95_$LT$core..ops..control_flow..ControlFlow$LT$B$C$C$GT$$u20$as$u20$core..ops..try_trait..Try$GT$6branch17h58c1b4813aab06d8E;
	.scl	2;
	.type	32;
	.endef
	.section	.text,"xr",one_only,_ZN95_$LT$core..ops..control_flow..ControlFlow$LT$B$C$C$GT$$u20$as$u20$core..ops..try_trait..Try$GT$6branch17h58c1b4813aab06d8E
	.globl	_ZN95_$LT$core..ops..control_flow..ControlFlow$LT$B$C$C$GT$$u20$as$u20$core..ops..try_trait..Try$GT$6branch17h58c1b4813aab06d8E
	.p2align	4, 0x90
_ZN95_$LT$core..ops..control_flow..ControlFlow$LT$B$C$C$GT$$u20$as$u20$core..ops..try_trait..Try$GT$6branch17h58c1b4813aab06d8E:
.Lfunc_begin127:
	.cv_func_id 143
	.cv_loc	143 3 108 0
.seh_proc _ZN95_$LT$core..ops..control_flow..ControlFlow$LT$B$C$C$GT$$u20$as$u20$core..ops..try_trait..Try$GT$6branch17h58c1b4813aab06d8E
	subq	$32, %rsp
	.seh_stackalloc 32
	.seh_endprologue
	andb	$1, %cl
	movb	%cl, 6(%rsp)
.Ltmp438:
	.cv_loc	143 3 109 0
	movzbl	6(%rsp), %eax
	testb	$1, %al
	je	.LBB127_2
	jmp	.LBB127_5
.LBB127_5:
	jmp	.LBB127_3
	ud2
.LBB127_2:
.Ltmp439:
	.cv_loc	143 3 110 0
	movb	$0, 7(%rsp)
.Ltmp440:
	.cv_loc	143 3 110 0
	jmp	.LBB127_4
.LBB127_3:
.Ltmp441:
	.cv_loc	143 3 111 0
	movb	$1, 7(%rsp)
.Ltmp442:
.LBB127_4:
	.cv_loc	143 3 113 0
	movb	7(%rsp), %al
	andb	$1, %al
	movzbl	%al, %eax
	addq	$32, %rsp
	retq
.Ltmp443:
.Lfunc_end127:
	.seh_endproc

	.def	_ZN95_$LT$core..ops..control_flow..ControlFlow$LT$B$C$C$GT$$u20$as$u20$core..ops..try_trait..Try$GT$6branch17ha5be5d2cde4be412E;
	.scl	2;
	.type	32;
	.endef
	.section	.text,"xr",one_only,_ZN95_$LT$core..ops..control_flow..ControlFlow$LT$B$C$C$GT$$u20$as$u20$core..ops..try_trait..Try$GT$6branch17ha5be5d2cde4be412E
	.globl	_ZN95_$LT$core..ops..control_flow..ControlFlow$LT$B$C$C$GT$$u20$as$u20$core..ops..try_trait..Try$GT$6branch17ha5be5d2cde4be412E
	.p2align	4, 0x90
_ZN95_$LT$core..ops..control_flow..ControlFlow$LT$B$C$C$GT$$u20$as$u20$core..ops..try_trait..Try$GT$6branch17ha5be5d2cde4be412E:
.Lfunc_begin128:
	.cv_func_id 144
	.cv_loc	144 3 108 0
.seh_proc _ZN95_$LT$core..ops..control_flow..ControlFlow$LT$B$C$C$GT$$u20$as$u20$core..ops..try_trait..Try$GT$6branch17ha5be5d2cde4be412E
	subq	$56, %rsp
	.seh_stackalloc 56
	.seh_endprologue
	movq	%rcx, (%rsp)
	movq	%rdx, 8(%rsp)
.Ltmp444:
	.cv_loc	144 3 109 0
	movq	(%rsp), %rax
	testq	%rax, %rax
	je	.LBB128_2
	jmp	.LBB128_5
.LBB128_5:
	jmp	.LBB128_3
	ud2
.LBB128_2:
.Ltmp445:
	.cv_loc	144 3 110 0
	movq	$0, 16(%rsp)
.Ltmp446:
	.cv_loc	144 3 110 0
	jmp	.LBB128_4
.LBB128_3:
	.cv_loc	144 3 111 0
	movq	8(%rsp), %rax
	movq	%rax, 48(%rsp)
.Ltmp447:
	.cv_loc	144 3 111 0
	movq	%rax, 32(%rsp)
	movq	32(%rsp), %rax
	movq	%rax, 24(%rsp)
	movq	$1, 16(%rsp)
.Ltmp448:
.LBB128_4:
	.cv_loc	144 3 113 0
	movq	16(%rsp), %rax
	movq	24(%rsp), %rdx
	addq	$56, %rsp
	retq
.Ltmp449:
.Lfunc_end128:
	.seh_endproc

	.def	_ZN3log5ok_or17h438bb288bb46a699E;
	.scl	3;
	.type	32;
	.endef
	.section	.text,"xr",one_only,_ZN3log5ok_or17h438bb288bb46a699E
	.p2align	4, 0x90
_ZN3log5ok_or17h438bb288bb46a699E:
.Lfunc_begin129:
	.cv_func_id 145
	.cv_file	29 "C:\\Users\\cires\\.cargo\\registry\\src\\github.com-1ecc6299db9ec823\\log-0.4.20\\src\\lib.rs" "B0C96CDEFF724352968B764C0869A833507492C1" 2
	.cv_loc	145 29 469 0
.seh_proc _ZN3log5ok_or17h438bb288bb46a699E
	subq	$40, %rsp
	.seh_stackalloc 40
	.seh_endprologue
	movq	%rcx, (%rsp)
.Ltmp450:
	.cv_loc	145 29 470 0
	movb	$0, 23(%rsp)
	movb	$1, 23(%rsp)
	movq	(%rsp), %rax
	testq	%rax, %rax
	setne	%al
	movzbl	%al, %eax
	je	.LBB129_2
	jmp	.LBB129_7
.LBB129_7:
	jmp	.LBB129_3
	ud2
.LBB129_2:
	.cv_loc	145 29 472 0
	movb	$0, 23(%rsp)
	movq	$0, 8(%rsp)
	jmp	.LBB129_4
.LBB129_3:
	.cv_loc	145 29 471 0
	movq	(%rsp), %rax
	movq	%rax, 32(%rsp)
.Ltmp451:
	.cv_loc	145 29 471 0
	movq	%rax, 8(%rsp)
.Ltmp452:
.LBB129_4:
	.cv_loc	145 29 474 0
	testb	$1, 23(%rsp)
	jne	.LBB129_6
.LBB129_5:
	movq	8(%rsp), %rax
	addq	$40, %rsp
	retq
.LBB129_6:
	jmp	.LBB129_5
.Ltmp453:
.Lfunc_end129:
	.seh_endproc

	.def	_ZN3log5ok_or17h4ff9daaefad47966E;
	.scl	3;
	.type	32;
	.endef
	.section	.text,"xr",one_only,_ZN3log5ok_or17h4ff9daaefad47966E
	.p2align	4, 0x90
_ZN3log5ok_or17h4ff9daaefad47966E:
.Lfunc_begin130:
	.cv_func_id 146
	.cv_loc	146 29 469 0
.seh_proc _ZN3log5ok_or17h4ff9daaefad47966E
	subq	$40, %rsp
	.seh_stackalloc 40
	.seh_endprologue
	movq	%rcx, (%rsp)
.Ltmp454:
	.cv_loc	146 29 470 0
	movb	$0, 23(%rsp)
	movb	$1, 23(%rsp)
	movq	(%rsp), %rax
	addq	$-6, %rax
	setne	%al
	movzbl	%al, %eax
	je	.LBB130_2
	jmp	.LBB130_7
.LBB130_7:
	jmp	.LBB130_3
	ud2
.LBB130_2:
	.cv_loc	146 29 472 0
	movb	$0, 23(%rsp)
	movq	$6, 8(%rsp)
	jmp	.LBB130_4
.LBB130_3:
	.cv_loc	146 29 471 0
	movq	(%rsp), %rax
	movq	%rax, 32(%rsp)
.Ltmp455:
	.cv_loc	146 29 471 0
	movq	%rax, 8(%rsp)
.Ltmp456:
.LBB130_4:
	.cv_loc	146 29 474 0
	testb	$1, 23(%rsp)
	jne	.LBB130_6
.LBB130_5:
	movq	8(%rsp), %rax
	addq	$40, %rsp
	retq
.LBB130_6:
	jmp	.LBB130_5
.Ltmp457:
.Lfunc_end130:
	.seh_endproc

	.def	_ZN57_$LT$log..Level$u20$as$u20$core..str..traits..FromStr$GT$8from_str17h801cb720c48b3e33E;
	.scl	2;
	.type	32;
	.endef
	.section	.text,"xr",one_only,_ZN57_$LT$log..Level$u20$as$u20$core..str..traits..FromStr$GT$8from_str17h801cb720c48b3e33E
	.globl	_ZN57_$LT$log..Level$u20$as$u20$core..str..traits..FromStr$GT$8from_str17h801cb720c48b3e33E
	.p2align	4, 0x90
_ZN57_$LT$log..Level$u20$as$u20$core..str..traits..FromStr$GT$8from_str17h801cb720c48b3e33E:
.Lfunc_begin131:
	.cv_func_id 147
	.cv_loc	147 29 478 0
.seh_proc _ZN57_$LT$log..Level$u20$as$u20$core..str..traits..FromStr$GT$8from_str17h801cb720c48b3e33E
	subq	$152, %rsp
	.seh_stackalloc 152
	.seh_endprologue
	movq	%rcx, 96(%rsp)
	movq	%rdx, 104(%rsp)
.Ltmp458:
	.cv_loc	147 29 480 0
	leaq	_ZN3log15LOG_LEVEL_NAMES17h9743d5d01d26e70dE(%rip), %rcx
	movl	$6, %edx
	callq	_ZN4core5slice29_$LT$impl$u20$$u5b$T$u5d$$GT$4iter17h74a2fb88822c2affE
	movq	%rdx, 136(%rsp)
	movq	%rax, 128(%rsp)
	.cv_loc	147 29 482 0
	leaq	96(%rsp), %rax
	movq	%rax, 144(%rsp)
	.cv_loc	147 29 480 0
	movq	144(%rsp), %rdx
	leaq	128(%rsp), %rcx
	callq	_ZN91_$LT$core..slice..iter..Iter$LT$T$GT$$u20$as$u20$core..iter..traits..iterator..Iterator$GT$8position17h227ecf80b1e1081aE
	movq	%rax, 80(%rsp)
	movq	%rdx, 88(%rsp)
	movq	88(%rsp), %rdx
	movq	80(%rsp), %rcx
	callq	_ZN91_$LT$core..option..Option$LT$T$GT$$u20$as$u20$core..iter..traits..collect..IntoIterator$GT$9into_iter17h038f869a3f07bd82E
	movq	%rax, 64(%rsp)
	movq	%rdx, 72(%rsp)
	movq	72(%rsp), %rdx
	movq	64(%rsp), %rcx
	callq	_ZN4core4iter6traits8iterator8Iterator6filter17hfd5a30d06e9c86efE
	movq	%rax, 48(%rsp)
	movq	%rdx, 56(%rsp)
	movq	56(%rsp), %rdx
	movq	48(%rsp), %rcx
	callq	_ZN4core4iter6traits8iterator8Iterator3map17h5f8c5b443b2bc66aE
	movq	%rdx, 120(%rsp)
	movq	%rax, 112(%rsp)
	leaq	112(%rsp), %rcx
	callq	_ZN102_$LT$core..iter..adapters..map..Map$LT$I$C$F$GT$$u20$as$u20$core..iter..traits..iterator..Iterator$GT$4next17h910563bbe92a73feE
	movq	%rax, 40(%rsp)
	.cv_loc	147 29 479 0
	movq	40(%rsp), %rcx
	callq	_ZN3log5ok_or17h438bb288bb46a699E
	movq	%rax, 32(%rsp)
	.cv_loc	147 29 489 0
	movq	32(%rsp), %rax
	addq	$152, %rsp
	retq
.Ltmp459:
.Lfunc_end131:
	.seh_endproc

	.def	_ZN57_$LT$log..Level$u20$as$u20$core..str..traits..FromStr$GT$8from_str28_$u7b$$u7b$closure$u7d$$u7d$17h936816091884fa0dE;
	.scl	3;
	.type	32;
	.endef
	.section	.text,"xr",one_only,_ZN57_$LT$log..Level$u20$as$u20$core..str..traits..FromStr$GT$8from_str28_$u7b$$u7b$closure$u7d$$u7d$17h936816091884fa0dE
	.p2align	4, 0x90
_ZN57_$LT$log..Level$u20$as$u20$core..str..traits..FromStr$GT$8from_str28_$u7b$$u7b$closure$u7d$$u7d$17h936816091884fa0dE:
.Lfunc_begin132:
	.cv_func_id 148
	.cv_loc	148 29 482 0
.seh_proc _ZN57_$LT$log..Level$u20$as$u20$core..str..traits..FromStr$GT$8from_str28_$u7b$$u7b$closure$u7d$$u7d$17h936816091884fa0dE
	subq	$88, %rsp
	.seh_stackalloc 88
	.seh_endprologue
	movq	%rcx, %rax
	movq	%rax, 48(%rsp)
	movq	48(%rsp), %rcx
	movq	(%rcx), %rcx
	movq	%rcx, 56(%rsp)
	movq	%rdx, 64(%rsp)
.Ltmp460:
	movq	(%rdx), %rcx
	movq	8(%rdx), %rdx
	movq	%rcx, 72(%rsp)
	movq	%rdx, 80(%rsp)
.Ltmp461:
	.cv_loc	148 29 482 0
	movq	(%rax), %rax
	movq	(%rax), %r8
	movq	8(%rax), %r9
	callq	_ZN4core3str21_$LT$impl$u20$str$GT$20eq_ignore_ascii_case17hd390e5300c2615faE
	movb	%al, 47(%rsp)
.Ltmp462:
	.cv_loc	148 29 482 0
	movb	47(%rsp), %al
	andb	$1, %al
	movzbl	%al, %eax
	addq	$88, %rsp
	retq
.Ltmp463:
.Lfunc_end132:
	.seh_endproc

	.def	_ZN57_$LT$log..Level$u20$as$u20$core..str..traits..FromStr$GT$8from_str28_$u7b$$u7b$closure$u7d$$u7d$17hfdb53d33ab730de9E;
	.scl	3;
	.type	32;
	.endef
	.section	.text,"xr",one_only,_ZN57_$LT$log..Level$u20$as$u20$core..str..traits..FromStr$GT$8from_str28_$u7b$$u7b$closure$u7d$$u7d$17hfdb53d33ab730de9E
	.p2align	4, 0x90
_ZN57_$LT$log..Level$u20$as$u20$core..str..traits..FromStr$GT$8from_str28_$u7b$$u7b$closure$u7d$$u7d$17hfdb53d33ab730de9E:
.Lfunc_begin133:
	.cv_func_id 149
	.cv_loc	149 29 484 0
.seh_proc _ZN57_$LT$log..Level$u20$as$u20$core..str..traits..FromStr$GT$8from_str28_$u7b$$u7b$closure$u7d$$u7d$17hfdb53d33ab730de9E
	subq	$24, %rsp
	.seh_stackalloc 24
	.seh_endprologue
	movq	%rcx, (%rsp)
	movq	%rdx, 8(%rsp)
.Ltmp464:
	movq	(%rdx), %rax
	movq	%rax, 16(%rsp)
.Ltmp465:
	.cv_loc	149 29 484 0
	cmpq	$0, %rax
	setne	%al
.Ltmp466:
	.cv_loc	149 29 484 0
	andb	$1, %al
	movzbl	%al, %eax
	addq	$24, %rsp
	retq
.Ltmp467:
.Lfunc_end133:
	.seh_endproc

	.def	_ZN57_$LT$log..Level$u20$as$u20$core..str..traits..FromStr$GT$8from_str28_$u7b$$u7b$closure$u7d$$u7d$17h41fcd24d17090d10E;
	.scl	3;
	.type	32;
	.endef
	.section	.text,"xr",one_only,_ZN57_$LT$log..Level$u20$as$u20$core..str..traits..FromStr$GT$8from_str28_$u7b$$u7b$closure$u7d$$u7d$17h41fcd24d17090d10E
	.p2align	4, 0x90
_ZN57_$LT$log..Level$u20$as$u20$core..str..traits..FromStr$GT$8from_str28_$u7b$$u7b$closure$u7d$$u7d$17h41fcd24d17090d10E:
.Lfunc_begin134:
	.cv_func_id 150
	.cv_loc	150 29 485 0
.seh_proc _ZN57_$LT$log..Level$u20$as$u20$core..str..traits..FromStr$GT$8from_str28_$u7b$$u7b$closure$u7d$$u7d$17h41fcd24d17090d10E
	subq	$72, %rsp
	.seh_stackalloc 72
	.seh_endprologue
	movq	%rdx, 40(%rsp)
	movq	%rcx, %rax
	movq	40(%rsp), %rcx
	movq	%rax, 56(%rsp)
	movq	%rcx, 64(%rsp)
.Ltmp468:
	callq	_ZN3log5Level10from_usize17h8dc226a796379279E
	movq	%rax, 48(%rsp)
	movq	48(%rsp), %rcx
	leaq	__unnamed_27(%rip), %rdx
	callq	_ZN4core6option15Option$LT$T$GT$6unwrap17hd4cc668215795a0fE
	movq	%rax, 32(%rsp)
	movq	32(%rsp), %rax
	addq	$72, %rsp
	retq
.Ltmp469:
.Lfunc_end134:
	.seh_endproc

	.def	_ZN49_$LT$log..Level$u20$as$u20$core..fmt..Display$GT$3fmt17h9d1f1e1fa2abf929E;
	.scl	2;
	.type	32;
	.endef
	.section	.text,"xr",one_only,_ZN49_$LT$log..Level$u20$as$u20$core..fmt..Display$GT$3fmt17h9d1f1e1fa2abf929E
	.globl	_ZN49_$LT$log..Level$u20$as$u20$core..fmt..Display$GT$3fmt17h9d1f1e1fa2abf929E
	.p2align	4, 0x90
_ZN49_$LT$log..Level$u20$as$u20$core..fmt..Display$GT$3fmt17h9d1f1e1fa2abf929E:
.Lfunc_begin135:
	.cv_func_id 151
	.cv_loc	151 29 493 0
.seh_proc _ZN49_$LT$log..Level$u20$as$u20$core..fmt..Display$GT$3fmt17h9d1f1e1fa2abf929E
	subq	$88, %rsp
	.seh_stackalloc 88
	.seh_endprologue
	movq	%rdx, 48(%rsp)
	movq	%rcx, 72(%rsp)
	movq	%rdx, 80(%rsp)
.Ltmp470:
	.cv_loc	151 29 494 0
	callq	_ZN3log5Level6as_str17h9077966a5e17e2abE
	movq	%rax, 56(%rsp)
	movq	%rdx, 64(%rsp)
	movq	64(%rsp), %r8
	movq	56(%rsp), %rdx
	movq	48(%rsp), %rcx
	callq	_ZN4core3fmt9Formatter3pad17h6b4a4ffd2509ab9bE
	movb	%al, 47(%rsp)
	.cv_loc	151 29 495 0
	movb	47(%rsp), %al
	andb	$1, %al
	movzbl	%al, %eax
	addq	$88, %rsp
	retq
.Ltmp471:
.Lfunc_end135:
	.seh_endproc

	.def	_ZN3log5Level10from_usize17h8dc226a796379279E;
	.scl	2;
	.type	32;
	.endef
	.section	.text,"xr",one_only,_ZN3log5Level10from_usize17h8dc226a796379279E
	.globl	_ZN3log5Level10from_usize17h8dc226a796379279E
	.p2align	4, 0x90
_ZN3log5Level10from_usize17h8dc226a796379279E:
.Lfunc_begin136:
	.cv_func_id 152
	.cv_loc	152 29 499 0
.seh_proc _ZN3log5Level10from_usize17h8dc226a796379279E
	subq	$24, %rsp
	.seh_stackalloc 24
	.seh_endprologue
	movq	%rcx, %rax
	movq	%rax, 16(%rsp)
.Ltmp472:
	.cv_loc	152 29 500 0
	decq	%rax
	movq	%rax, (%rsp)
	subq	$4, %rax
	ja	.LBB136_1
	movq	(%rsp), %rax
	leaq	.LJTI136_0(%rip), %rcx
	movslq	(%rcx,%rax,4), %rax
	addq	%rcx, %rax
	jmpq	*%rax
.LBB136_1:
	.cv_loc	152 29 506 0
	movq	$0, 8(%rsp)
	jmp	.LBB136_7
.LBB136_2:
	.cv_loc	152 29 501 0
	movq	$1, 8(%rsp)
	jmp	.LBB136_7
.LBB136_3:
	.cv_loc	152 29 502 0
	movq	$2, 8(%rsp)
	jmp	.LBB136_7
.LBB136_4:
	.cv_loc	152 29 503 0
	movq	$3, 8(%rsp)
	jmp	.LBB136_7
.LBB136_5:
	.cv_loc	152 29 504 0
	movq	$4, 8(%rsp)
	jmp	.LBB136_7
.LBB136_6:
	.cv_loc	152 29 505 0
	movq	$5, 8(%rsp)
.LBB136_7:
	.cv_loc	152 29 508 0
	movq	8(%rsp), %rax
	addq	$24, %rsp
	retq
.Ltmp473:
.Lfunc_end136:
	.p2align	2, 0x90
.LJTI136_0:
	.long	.LBB136_2-.LJTI136_0
	.long	.LBB136_3-.LJTI136_0
	.long	.LBB136_4-.LJTI136_0
	.long	.LBB136_5-.LJTI136_0
	.long	.LBB136_6-.LJTI136_0
	.seh_endproc

	.def	_ZN3log5Level6as_str17h9077966a5e17e2abE;
	.scl	2;
	.type	32;
	.endef
	.section	.text,"xr",one_only,_ZN3log5Level6as_str17h9077966a5e17e2abE
	.globl	_ZN3log5Level6as_str17h9077966a5e17e2abE
	.p2align	4, 0x90
_ZN3log5Level6as_str17h9077966a5e17e2abE:
.Lfunc_begin137:
	.cv_func_id 153
	.cv_loc	153 29 525 0
.seh_proc _ZN3log5Level6as_str17h9077966a5e17e2abE
	subq	$56, %rsp
	.seh_stackalloc 56
	.seh_endprologue
	movq	%rcx, 48(%rsp)
.Ltmp474:
	.cv_loc	153 29 526 0
	movq	(%rcx), %rax
	movq	%rax, 40(%rsp)
	cmpq	$6, %rax
	setb	%al
	testb	$1, %al
	jne	.LBB137_1
	jmp	.LBB137_2
.LBB137_1:
	movq	40(%rsp), %rcx
	shlq	$4, %rcx
	leaq	_ZN3log15LOG_LEVEL_NAMES17h9743d5d01d26e70dE(%rip), %rdx
	movq	(%rcx,%rdx), %rax
	movq	8(%rcx,%rdx), %rdx
	.cv_loc	153 29 527 0
	addq	$56, %rsp
	retq
.LBB137_2:
	.cv_loc	153 29 526 0
	movq	40(%rsp), %rcx
	leaq	__unnamed_28(%rip), %r8
	movl	$6, %edx
	callq	_ZN4core9panicking18panic_bounds_check17ha1a0313a481c0ebdE
	ud2
.Ltmp475:
.Lfunc_end137:
	.seh_endproc

	.def	_ZN3log5Level4iter17h38cc0125ffb83720E;
	.scl	2;
	.type	32;
	.endef
	.section	.text,"xr",one_only,_ZN3log5Level4iter17h38cc0125ffb83720E
	.globl	_ZN3log5Level4iter17h38cc0125ffb83720E
	.p2align	4, 0x90
_ZN3log5Level4iter17h38cc0125ffb83720E:
.Lfunc_begin138:
	.cv_func_id 154
	.cv_loc	154 29 543 0
.seh_proc _ZN3log5Level4iter17h38cc0125ffb83720E
	subq	$72, %rsp
	.seh_stackalloc 72
	.seh_endprologue
.Ltmp476:
	.cv_loc	154 29 544 0
	movq	$1, 56(%rsp)
	movq	$6, 64(%rsp)
	movq	56(%rsp), %rcx
	movq	64(%rsp), %rdx
	callq	_ZN4core4iter6traits8iterator8Iterator3map17hb82e66b91b56a6c7E
	movq	%rax, 40(%rsp)
	movq	%rdx, 48(%rsp)
	.cv_loc	154 29 545 0
	movq	48(%rsp), %rdx
	movq	40(%rsp), %rax
	addq	$72, %rsp
	retq
.Ltmp477:
.Lfunc_end138:
	.seh_endproc

	.def	_ZN63_$LT$log..LevelFilter$u20$as$u20$core..str..traits..FromStr$GT$8from_str17h303c2b4f24199cb8E;
	.scl	2;
	.type	32;
	.endef
	.section	.text,"xr",one_only,_ZN63_$LT$log..LevelFilter$u20$as$u20$core..str..traits..FromStr$GT$8from_str17h303c2b4f24199cb8E
	.globl	_ZN63_$LT$log..LevelFilter$u20$as$u20$core..str..traits..FromStr$GT$8from_str17h303c2b4f24199cb8E
	.p2align	4, 0x90
_ZN63_$LT$log..LevelFilter$u20$as$u20$core..str..traits..FromStr$GT$8from_str17h303c2b4f24199cb8E:
.Lfunc_begin139:
	.cv_func_id 155
	.cv_loc	155 29 589 0
.seh_proc _ZN63_$LT$log..LevelFilter$u20$as$u20$core..str..traits..FromStr$GT$8from_str17h303c2b4f24199cb8E
	subq	$104, %rsp
	.seh_stackalloc 104
	.seh_endprologue
	movq	%rcx, 64(%rsp)
	movq	%rdx, 72(%rsp)
.Ltmp478:
	.cv_loc	155 29 591 0
	leaq	_ZN3log15LOG_LEVEL_NAMES17h9743d5d01d26e70dE(%rip), %rcx
	movl	$6, %edx
	callq	_ZN4core5slice29_$LT$impl$u20$$u5b$T$u5d$$GT$4iter17h74a2fb88822c2affE
	movq	%rdx, 88(%rsp)
	movq	%rax, 80(%rsp)
	.cv_loc	155 29 593 0
	leaq	64(%rsp), %rax
	movq	%rax, 96(%rsp)
	.cv_loc	155 29 591 0
	movq	96(%rsp), %rdx
	leaq	80(%rsp), %rcx
	callq	_ZN91_$LT$core..slice..iter..Iter$LT$T$GT$$u20$as$u20$core..iter..traits..iterator..Iterator$GT$8position17h13b67feac836f905E
	movq	%rax, 48(%rsp)
	movq	%rdx, 56(%rsp)
	movq	56(%rsp), %rdx
	movq	48(%rsp), %rcx
	callq	_ZN4core6option15Option$LT$T$GT$3map17h7e880d2db4df37a7E
	movq	%rax, 40(%rsp)
	.cv_loc	155 29 590 0
	movq	40(%rsp), %rcx
	callq	_ZN3log5ok_or17h4ff9daaefad47966E
	movq	%rax, 32(%rsp)
	.cv_loc	155 29 597 0
	movq	32(%rsp), %rax
	addq	$104, %rsp
	retq
.Ltmp479:
.Lfunc_end139:
	.seh_endproc

	.def	_ZN63_$LT$log..LevelFilter$u20$as$u20$core..str..traits..FromStr$GT$8from_str28_$u7b$$u7b$closure$u7d$$u7d$17h4e54537faec1e63dE;
	.scl	3;
	.type	32;
	.endef
	.section	.text,"xr",one_only,_ZN63_$LT$log..LevelFilter$u20$as$u20$core..str..traits..FromStr$GT$8from_str28_$u7b$$u7b$closure$u7d$$u7d$17h4e54537faec1e63dE
	.p2align	4, 0x90
_ZN63_$LT$log..LevelFilter$u20$as$u20$core..str..traits..FromStr$GT$8from_str28_$u7b$$u7b$closure$u7d$$u7d$17h4e54537faec1e63dE:
.Lfunc_begin140:
	.cv_func_id 156
	.cv_loc	156 29 593 0
.seh_proc _ZN63_$LT$log..LevelFilter$u20$as$u20$core..str..traits..FromStr$GT$8from_str28_$u7b$$u7b$closure$u7d$$u7d$17h4e54537faec1e63dE
	subq	$88, %rsp
	.seh_stackalloc 88
	.seh_endprologue
	movq	%rcx, %rax
	movq	%rax, 48(%rsp)
	movq	48(%rsp), %rcx
	movq	(%rcx), %rcx
	movq	%rcx, 56(%rsp)
	movq	%rdx, 64(%rsp)
.Ltmp480:
	movq	(%rdx), %rcx
	movq	8(%rdx), %rdx
	movq	%rcx, 72(%rsp)
	movq	%rdx, 80(%rsp)
.Ltmp481:
	.cv_loc	156 29 593 0
	movq	(%rax), %rax
	movq	(%rax), %r8
	movq	8(%rax), %r9
	callq	_ZN4core3str21_$LT$impl$u20$str$GT$20eq_ignore_ascii_case17hd390e5300c2615faE
	movb	%al, 47(%rsp)
.Ltmp482:
	.cv_loc	156 29 593 0
	movb	47(%rsp), %al
	andb	$1, %al
	movzbl	%al, %eax
	addq	$88, %rsp
	retq
.Ltmp483:
.Lfunc_end140:
	.seh_endproc

	.def	_ZN63_$LT$log..LevelFilter$u20$as$u20$core..str..traits..FromStr$GT$8from_str28_$u7b$$u7b$closure$u7d$$u7d$17h3332c06452f2c62fE;
	.scl	3;
	.type	32;
	.endef
	.section	.text,"xr",one_only,_ZN63_$LT$log..LevelFilter$u20$as$u20$core..str..traits..FromStr$GT$8from_str28_$u7b$$u7b$closure$u7d$$u7d$17h3332c06452f2c62fE
	.p2align	4, 0x90
_ZN63_$LT$log..LevelFilter$u20$as$u20$core..str..traits..FromStr$GT$8from_str28_$u7b$$u7b$closure$u7d$$u7d$17h3332c06452f2c62fE:
.Lfunc_begin141:
	.cv_func_id 157
	.cv_loc	157 29 594 0
.seh_proc _ZN63_$LT$log..LevelFilter$u20$as$u20$core..str..traits..FromStr$GT$8from_str28_$u7b$$u7b$closure$u7d$$u7d$17h3332c06452f2c62fE
	subq	$72, %rsp
	.seh_stackalloc 72
	.seh_endprologue
	movq	%rcx, 64(%rsp)
.Ltmp484:
	callq	_ZN3log11LevelFilter10from_usize17hfd5112b69b099e53E
	movq	%rax, 48(%rsp)
	movq	48(%rsp), %rcx
	leaq	__unnamed_29(%rip), %rdx
	callq	_ZN4core6option15Option$LT$T$GT$6unwrap17hca9a5f98996dfb9cE
	movq	%rax, 40(%rsp)
	movq	40(%rsp), %rax
	addq	$72, %rsp
	retq
.Ltmp485:
.Lfunc_end141:
	.seh_endproc

	.def	_ZN55_$LT$log..LevelFilter$u20$as$u20$core..fmt..Display$GT$3fmt17h8cde55e410ebfefdE;
	.scl	2;
	.type	32;
	.endef
	.section	.text,"xr",one_only,_ZN55_$LT$log..LevelFilter$u20$as$u20$core..fmt..Display$GT$3fmt17h8cde55e410ebfefdE
	.globl	_ZN55_$LT$log..LevelFilter$u20$as$u20$core..fmt..Display$GT$3fmt17h8cde55e410ebfefdE
	.p2align	4, 0x90
_ZN55_$LT$log..LevelFilter$u20$as$u20$core..fmt..Display$GT$3fmt17h8cde55e410ebfefdE:
.Lfunc_begin142:
	.cv_func_id 158
	.cv_loc	158 29 601 0
.seh_proc _ZN55_$LT$log..LevelFilter$u20$as$u20$core..fmt..Display$GT$3fmt17h8cde55e410ebfefdE
	subq	$88, %rsp
	.seh_stackalloc 88
	.seh_endprologue
	movq	%rdx, 48(%rsp)
	movq	%rcx, 72(%rsp)
	movq	%rdx, 80(%rsp)
.Ltmp486:
	.cv_loc	158 29 602 0
	callq	_ZN3log11LevelFilter6as_str17hec0497e198f1187eE
	movq	%rax, 56(%rsp)
	movq	%rdx, 64(%rsp)
	movq	64(%rsp), %r8
	movq	56(%rsp), %rdx
	movq	48(%rsp), %rcx
	callq	_ZN4core3fmt9Formatter3pad17h6b4a4ffd2509ab9bE
	movb	%al, 47(%rsp)
	.cv_loc	158 29 603 0
	movb	47(%rsp), %al
	andb	$1, %al
	movzbl	%al, %eax
	addq	$88, %rsp
	retq
.Ltmp487:
.Lfunc_end142:
	.seh_endproc

	.def	_ZN3log11LevelFilter10from_usize17hfd5112b69b099e53E;
	.scl	2;
	.type	32;
	.endef
	.section	.text,"xr",one_only,_ZN3log11LevelFilter10from_usize17hfd5112b69b099e53E
	.globl	_ZN3log11LevelFilter10from_usize17hfd5112b69b099e53E
	.p2align	4, 0x90
_ZN3log11LevelFilter10from_usize17hfd5112b69b099e53E:
.Lfunc_begin143:
	.cv_func_id 159
	.cv_loc	159 29 607 0
.seh_proc _ZN3log11LevelFilter10from_usize17hfd5112b69b099e53E
	subq	$24, %rsp
	.seh_stackalloc 24
	.seh_endprologue
	movq	%rcx, 16(%rsp)
.Ltmp488:
	.cv_loc	159 29 608 0
	movq	%rcx, %rax
	movq	%rax, (%rsp)
	subq	$5, %rcx
	ja	.LBB143_1
	movq	(%rsp), %rax
	leaq	.LJTI143_0(%rip), %rcx
	movslq	(%rcx,%rax,4), %rax
	addq	%rcx, %rax
	jmpq	*%rax
.LBB143_1:
	.cv_loc	159 29 615 0
	movq	$6, 8(%rsp)
	jmp	.LBB143_8
.LBB143_2:
	.cv_loc	159 29 609 0
	movq	$0, 8(%rsp)
	jmp	.LBB143_8
.LBB143_3:
	.cv_loc	159 29 610 0
	movq	$1, 8(%rsp)
	jmp	.LBB143_8
.LBB143_4:
	.cv_loc	159 29 611 0
	movq	$2, 8(%rsp)
	jmp	.LBB143_8
.LBB143_5:
	.cv_loc	159 29 612 0
	movq	$3, 8(%rsp)
	jmp	.LBB143_8
.LBB143_6:
	.cv_loc	159 29 613 0
	movq	$4, 8(%rsp)
	jmp	.LBB143_8
.LBB143_7:
	.cv_loc	159 29 614 0
	movq	$5, 8(%rsp)
.LBB143_8:
	.cv_loc	159 29 617 0
	movq	8(%rsp), %rax
	addq	$24, %rsp
	retq
.Ltmp489:
.Lfunc_end143:
	.p2align	2, 0x90
.LJTI143_0:
	.long	.LBB143_2-.LJTI143_0
	.long	.LBB143_3-.LJTI143_0
	.long	.LBB143_4-.LJTI143_0
	.long	.LBB143_5-.LJTI143_0
	.long	.LBB143_6-.LJTI143_0
	.long	.LBB143_7-.LJTI143_0
	.seh_endproc

	.def	_ZN3log11LevelFilter6as_str17hec0497e198f1187eE;
	.scl	2;
	.type	32;
	.endef
	.section	.text,"xr",one_only,_ZN3log11LevelFilter6as_str17hec0497e198f1187eE
	.globl	_ZN3log11LevelFilter6as_str17hec0497e198f1187eE
	.p2align	4, 0x90
_ZN3log11LevelFilter6as_str17hec0497e198f1187eE:
.Lfunc_begin144:
	.cv_func_id 160
	.cv_loc	160 29 636 0
.seh_proc _ZN3log11LevelFilter6as_str17hec0497e198f1187eE
	subq	$56, %rsp
	.seh_stackalloc 56
	.seh_endprologue
	movq	%rcx, 48(%rsp)
.Ltmp490:
	.cv_loc	160 29 637 0
	movq	(%rcx), %rax
	movq	%rax, 40(%rsp)
	cmpq	$6, %rax
	setb	%al
	testb	$1, %al
	jne	.LBB144_1
	jmp	.LBB144_2
.LBB144_1:
	movq	40(%rsp), %rcx
	shlq	$4, %rcx
	leaq	_ZN3log15LOG_LEVEL_NAMES17h9743d5d01d26e70dE(%rip), %rdx
	movq	(%rcx,%rdx), %rax
	movq	8(%rcx,%rdx), %rdx
	.cv_loc	160 29 638 0
	addq	$56, %rsp
	retq
.LBB144_2:
	.cv_loc	160 29 637 0
	movq	40(%rsp), %rcx
	leaq	__unnamed_30(%rip), %r8
	movl	$6, %edx
	callq	_ZN4core9panicking18panic_bounds_check17ha1a0313a481c0ebdE
	ud2
.Ltmp491:
.Lfunc_end144:
	.seh_endproc

	.def	_ZN3log11LevelFilter4iter17h42ae136daaed73b3E;
	.scl	2;
	.type	32;
	.endef
	.section	.text,"xr",one_only,_ZN3log11LevelFilter4iter17h42ae136daaed73b3E
	.globl	_ZN3log11LevelFilter4iter17h42ae136daaed73b3E
	.p2align	4, 0x90
_ZN3log11LevelFilter4iter17h42ae136daaed73b3E:
.Lfunc_begin145:
	.cv_func_id 161
	.cv_loc	161 29 654 0
.seh_proc _ZN3log11LevelFilter4iter17h42ae136daaed73b3E
	subq	$72, %rsp
	.seh_stackalloc 72
	.seh_endprologue
.Ltmp492:
	.cv_loc	161 29 655 0
	movq	$0, 56(%rsp)
	movq	$6, 64(%rsp)
	movq	56(%rsp), %rcx
	movq	64(%rsp), %rdx
	callq	_ZN4core4iter6traits8iterator8Iterator3map17h4a2f868875fad492E
	movq	%rax, 40(%rsp)
	movq	%rdx, 48(%rsp)
	.cv_loc	161 29 656 0
	movq	48(%rsp), %rdx
	movq	40(%rsp), %rax
	addq	$72, %rsp
	retq
.Ltmp493:
.Lfunc_end145:
	.seh_endproc

	.def	_ZN3log6Record7builder17hfacc7ea60e9886c7E;
	.scl	3;
	.type	32;
	.endef
	.section	.text,"xr",one_only,_ZN3log6Record7builder17hfacc7ea60e9886c7E
	.p2align	4, 0x90
_ZN3log6Record7builder17hfacc7ea60e9886c7E:
.Lfunc_begin146:
	.cv_func_id 162
	.cv_loc	162 29 751 0
.seh_proc _ZN3log6Record7builder17hfacc7ea60e9886c7E
	subq	$40, %rsp
	.seh_stackalloc 40
	.seh_endprologue
	movq	%rcx, %rax
	movq	%rax, 32(%rsp)
.Ltmp494:
	.cv_loc	162 29 752 0
	callq	_ZN3log13RecordBuilder3new17he0800514ccfa27c5E
	.cv_loc	162 29 753 0
	movq	32(%rsp), %rax
	addq	$40, %rsp
	retq
.Ltmp495:
.Lfunc_end146:
	.seh_endproc

	.def	_ZN3log13RecordBuilder3new17he0800514ccfa27c5E;
	.scl	3;
	.type	32;
	.endef
	.section	.text,"xr",one_only,_ZN3log13RecordBuilder3new17he0800514ccfa27c5E
	.p2align	4, 0x90
_ZN3log13RecordBuilder3new17he0800514ccfa27c5E:
.Lfunc_begin147:
	.cv_func_id 163
	.cv_loc	163 29 900 0
.seh_proc _ZN3log13RecordBuilder3new17he0800514ccfa27c5E
	subq	$344, %rsp
	.seh_stackalloc 344
	.seh_endprologue
	movq	%rcx, 48(%rsp)
	movq	%rcx, 56(%rsp)
.Ltmp496:
	.cv_loc	163 29 903 0
	leaq	192(%rsp), %rcx
	leaq	__unnamed_3(%rip), %r9
	movq	%r9, %rdx
	xorl	%eax, %eax
	movl	%eax, %r8d
	movq	$0, 32(%rsp)
	callq	_ZN4core3fmt9Arguments6new_v117h68c9a4aeb67fe82bE
	.cv_loc	163 29 904 0
	leaq	264(%rsp), %rcx
	callq	_ZN3log8Metadata7builder17hc5c41967e9eb85baE
	leaq	240(%rsp), %rcx
	leaq	264(%rsp), %rdx
	callq	_ZN3log15MetadataBuilder5build17hc37a922602bd15dfE
	.cv_loc	163 29 905 0
	movq	$2, 288(%rsp)
	.cv_loc	163 29 906 0
	movq	$2, 312(%rsp)
	.cv_loc	163 29 907 0
	movl	$0, 336(%rsp)
	.cv_loc	163 29 902 0
	movq	240(%rsp), %rax
	movq	%rax, 64(%rsp)
	movq	248(%rsp), %rax
	movq	%rax, 72(%rsp)
	movq	256(%rsp), %rax
	movq	%rax, 80(%rsp)
	leaq	64(%rsp), %rcx
	addq	$24, %rcx
	leaq	192(%rsp), %rdx
	movl	$48, %r8d
	callq	memcpy
	movq	48(%rsp), %rcx
	movq	288(%rsp), %rax
	movq	%rax, 136(%rsp)
	movq	296(%rsp), %rax
	movq	%rax, 144(%rsp)
	movq	304(%rsp), %rax
	movq	%rax, 152(%rsp)
	movq	312(%rsp), %rax
	movq	%rax, 160(%rsp)
	movq	320(%rsp), %rax
	movq	%rax, 168(%rsp)
	movq	328(%rsp), %rax
	movq	%rax, 176(%rsp)
	movl	336(%rsp), %edx
	movl	340(%rsp), %eax
	movl	%edx, 184(%rsp)
	movl	%eax, 188(%rsp)
	.cv_loc	163 29 901 0
	leaq	64(%rsp), %rdx
	movl	$128, %r8d
	callq	memcpy
	movq	56(%rsp), %rax
	.cv_loc	163 29 912 0
	addq	$344, %rsp
	retq
.Ltmp497:
.Lfunc_end147:
	.seh_endproc

	.def	_ZN3log13RecordBuilder4args17h9e7cd1061eaa4536E;
	.scl	3;
	.type	32;
	.endef
	.section	.text,"xr",one_only,_ZN3log13RecordBuilder4args17h9e7cd1061eaa4536E
	.p2align	4, 0x90
_ZN3log13RecordBuilder4args17h9e7cd1061eaa4536E:
.Lfunc_begin148:
	.cv_func_id 164
	.cv_loc	164 29 916 0
.seh_proc _ZN3log13RecordBuilder4args17h9e7cd1061eaa4536E
	subq	$104, %rsp
	.seh_stackalloc 104
	.seh_endprologue
	movq	%rcx, 40(%rsp)
	movq	%rcx, 96(%rsp)
.Ltmp498:
	.cv_loc	164 29 917 0
	leaq	48(%rsp), %rcx
	movl	$48, %r8d
	callq	memcpy
.Ltmp499:
	movq	40(%rsp), %rcx
	addq	$24, %rcx
	leaq	48(%rsp), %rdx
	movl	$48, %r8d
	callq	memcpy
	movq	40(%rsp), %rax
	.cv_loc	164 29 919 0
	addq	$104, %rsp
	retq
.Ltmp500:
.Lfunc_end148:
	.seh_endproc

	.def	_ZN3log13RecordBuilder5level17h78848e180e7dd37aE;
	.scl	3;
	.type	32;
	.endef
	.section	.text,"xr",one_only,_ZN3log13RecordBuilder5level17h78848e180e7dd37aE
	.p2align	4, 0x90
_ZN3log13RecordBuilder5level17h78848e180e7dd37aE:
.Lfunc_begin149:
	.cv_func_id 165
	.cv_loc	165 29 930 0
.seh_proc _ZN3log13RecordBuilder5level17h78848e180e7dd37aE
	subq	$16, %rsp
	.seh_stackalloc 16
	.seh_endprologue
	movq	%rcx, %rax
	movq	%rax, (%rsp)
	movq	%rdx, 8(%rsp)
.Ltmp501:
	.cv_loc	165 29 931 0
	movq	%rdx, (%rax)
	.cv_loc	165 29 933 0
	addq	$16, %rsp
	retq
.Ltmp502:
.Lfunc_end149:
	.seh_endproc

	.def	_ZN3log13RecordBuilder6target17h5d83a1bb7328c30cE;
	.scl	3;
	.type	32;
	.endef
	.section	.text,"xr",one_only,_ZN3log13RecordBuilder6target17h5d83a1bb7328c30cE
	.p2align	4, 0x90
_ZN3log13RecordBuilder6target17h5d83a1bb7328c30cE:
.Lfunc_begin150:
	.cv_func_id 166
	.cv_loc	166 29 937 0
.seh_proc _ZN3log13RecordBuilder6target17h5d83a1bb7328c30cE
	subq	$24, %rsp
	.seh_stackalloc 24
	.seh_endprologue
	movq	%rcx, %rax
	movq	%rax, (%rsp)
	movq	%rdx, 8(%rsp)
	movq	%r8, 16(%rsp)
.Ltmp503:
	.cv_loc	166 29 938 0
	movq	%rdx, 8(%rax)
	movq	%r8, 16(%rax)
	.cv_loc	166 29 940 0
	addq	$24, %rsp
	retq
.Ltmp504:
.Lfunc_end150:
	.seh_endproc

	.def	_ZN3log13RecordBuilder18module_path_static17h51789f609d64e052E;
	.scl	3;
	.type	32;
	.endef
	.section	.text,"xr",one_only,_ZN3log13RecordBuilder18module_path_static17h51789f609d64e052E
	.p2align	4, 0x90
_ZN3log13RecordBuilder18module_path_static17h51789f609d64e052E:
.Lfunc_begin151:
	.cv_func_id 167
	.cv_loc	167 29 951 0
.seh_proc _ZN3log13RecordBuilder18module_path_static17h51789f609d64e052E
	subq	$88, %rsp
	.seh_stackalloc 88
	.seh_endprologue
	movq	%rcx, 32(%rsp)
	movq	%rcx, 64(%rsp)
	movq	%rdx, 72(%rsp)
	movq	%r8, 80(%rsp)
.Ltmp505:
	.cv_loc	167 29 952 0
	leaq	40(%rsp), %rcx
	callq	_ZN4core6option15Option$LT$T$GT$3map17hfde2c780e7bf9d17E
	movq	32(%rsp), %rax
	movq	40(%rsp), %rcx
	movq	%rcx, 72(%rax)
	movq	48(%rsp), %rcx
	movq	%rcx, 80(%rax)
	movq	56(%rsp), %rcx
	movq	%rcx, 88(%rax)
	.cv_loc	167 29 954 0
	addq	$88, %rsp
	retq
.Ltmp506:
.Lfunc_end151:
	.seh_endproc

	.def	_ZN3log13RecordBuilder11file_static17h43a6b1d17b2701a3E;
	.scl	3;
	.type	32;
	.endef
	.section	.text,"xr",one_only,_ZN3log13RecordBuilder11file_static17h43a6b1d17b2701a3E
	.p2align	4, 0x90
_ZN3log13RecordBuilder11file_static17h43a6b1d17b2701a3E:
.Lfunc_begin152:
	.cv_func_id 168
	.cv_loc	168 29 965 0
.seh_proc _ZN3log13RecordBuilder11file_static17h43a6b1d17b2701a3E
	subq	$88, %rsp
	.seh_stackalloc 88
	.seh_endprologue
	movq	%rcx, 32(%rsp)
	movq	%rcx, 64(%rsp)
	movq	%rdx, 72(%rsp)
	movq	%r8, 80(%rsp)
.Ltmp507:
	.cv_loc	168 29 966 0
	leaq	40(%rsp), %rcx
	callq	_ZN4core6option15Option$LT$T$GT$3map17hfde2c780e7bf9d17E
	movq	32(%rsp), %rax
	movq	40(%rsp), %rcx
	movq	%rcx, 96(%rax)
	movq	48(%rsp), %rcx
	movq	%rcx, 104(%rax)
	movq	56(%rsp), %rcx
	movq	%rcx, 112(%rax)
	.cv_loc	168 29 968 0
	addq	$88, %rsp
	retq
.Ltmp508:
.Lfunc_end152:
	.seh_endproc

	.def	_ZN3log13RecordBuilder4line17hf8b1ecfec30f8f68E;
	.scl	3;
	.type	32;
	.endef
	.section	.text,"xr",one_only,_ZN3log13RecordBuilder4line17hf8b1ecfec30f8f68E
	.p2align	4, 0x90
_ZN3log13RecordBuilder4line17hf8b1ecfec30f8f68E:
.Lfunc_begin153:
	.cv_func_id 169
	.cv_loc	169 29 972 0
.seh_proc _ZN3log13RecordBuilder4line17hf8b1ecfec30f8f68E
	subq	$16, %rsp
	.seh_stackalloc 16
	.seh_endprologue
	movq	%rcx, %rax
	movq	%rax, (%rsp)
	movl	%edx, 8(%rsp)
	movl	%r8d, 12(%rsp)
.Ltmp509:
	.cv_loc	169 29 973 0
	movl	%edx, 120(%rax)
	movl	%r8d, 124(%rax)
	.cv_loc	169 29 975 0
	addq	$16, %rsp
	retq
.Ltmp510:
.Lfunc_end153:
	.seh_endproc

	.def	_ZN3log13RecordBuilder5build17hbdce95c3af242166E;
	.scl	3;
	.type	32;
	.endef
	.section	.text,"xr",one_only,_ZN3log13RecordBuilder5build17hbdce95c3af242166E
	.p2align	4, 0x90
_ZN3log13RecordBuilder5build17hbdce95c3af242166E:
.Lfunc_begin154:
	.cv_func_id 170
	.cv_loc	170 29 987 0
.seh_proc _ZN3log13RecordBuilder5build17hbdce95c3af242166E
	subq	$56, %rsp
	.seh_stackalloc 56
	.seh_endprologue
	movq	%rcx, %rax
	movq	%rax, 40(%rsp)
	movq	%rdx, 48(%rsp)
.Ltmp511:
	.cv_loc	170 29 988 0
	callq	_ZN50_$LT$log..Record$u20$as$u20$core..clone..Clone$GT$5clone17h096aabcf377ba1f4E
	.cv_loc	170 29 989 0
	movq	40(%rsp), %rax
	addq	$56, %rsp
	retq
.Ltmp512:
.Lfunc_end154:
	.seh_endproc

	.def	_ZN61_$LT$log..RecordBuilder$u20$as$u20$core..default..Default$GT$7default17h8382bfea7a57cbf2E;
	.scl	2;
	.type	32;
	.endef
	.section	.text,"xr",one_only,_ZN61_$LT$log..RecordBuilder$u20$as$u20$core..default..Default$GT$7default17h8382bfea7a57cbf2E
	.globl	_ZN61_$LT$log..RecordBuilder$u20$as$u20$core..default..Default$GT$7default17h8382bfea7a57cbf2E
	.p2align	4, 0x90
_ZN61_$LT$log..RecordBuilder$u20$as$u20$core..default..Default$GT$7default17h8382bfea7a57cbf2E:
.Lfunc_begin155:
	.cv_func_id 171
	.cv_loc	171 29 993 0
.seh_proc _ZN61_$LT$log..RecordBuilder$u20$as$u20$core..default..Default$GT$7default17h8382bfea7a57cbf2E
	subq	$40, %rsp
	.seh_stackalloc 40
	.seh_endprologue
	movq	%rcx, %rax
	movq	%rax, 32(%rsp)
.Ltmp513:
	.cv_loc	171 29 994 0
	callq	_ZN3log13RecordBuilder3new17he0800514ccfa27c5E
	.cv_loc	171 29 995 0
	movq	32(%rsp), %rax
	addq	$40, %rsp
	retq
.Ltmp514:
.Lfunc_end155:
	.seh_endproc

	.def	_ZN3log8Metadata7builder17hc5c41967e9eb85baE;
	.scl	3;
	.type	32;
	.endef
	.section	.text,"xr",one_only,_ZN3log8Metadata7builder17hc5c41967e9eb85baE
	.p2align	4, 0x90
_ZN3log8Metadata7builder17hc5c41967e9eb85baE:
.Lfunc_begin156:
	.cv_func_id 172
	.cv_loc	172 29 1045 0
.seh_proc _ZN3log8Metadata7builder17hc5c41967e9eb85baE
	subq	$40, %rsp
	.seh_stackalloc 40
	.seh_endprologue
	movq	%rcx, %rax
	movq	%rax, 32(%rsp)
.Ltmp515:
	.cv_loc	172 29 1046 0
	callq	_ZN3log15MetadataBuilder3new17h59a831ea64f25ea4E
	.cv_loc	172 29 1047 0
	movq	32(%rsp), %rax
	addq	$40, %rsp
	retq
.Ltmp516:
.Lfunc_end156:
	.seh_endproc

	.def	_ZN3log15MetadataBuilder3new17h59a831ea64f25ea4E;
	.scl	3;
	.type	32;
	.endef
	.section	.text,"xr",one_only,_ZN3log15MetadataBuilder3new17h59a831ea64f25ea4E
	.p2align	4, 0x90
_ZN3log15MetadataBuilder3new17h59a831ea64f25ea4E:
.Lfunc_begin157:
	.cv_func_id 173
	.cv_loc	173 29 1091 0
.seh_proc _ZN3log15MetadataBuilder3new17h59a831ea64f25ea4E
	subq	$24, %rsp
	.seh_stackalloc 24
	.seh_endprologue
	movq	%rcx, %rax
.Ltmp517:
	.cv_loc	173 29 1093 0
	movq	$3, (%rsp)
	leaq	__unnamed_3(%rip), %rdx
	movq	%rdx, 8(%rsp)
	movq	$0, 16(%rsp)
	.cv_loc	173 29 1092 0
	movq	(%rsp), %rdx
	movq	%rdx, (%rcx)
	movq	8(%rsp), %rdx
	movq	%rdx, 8(%rcx)
	movq	16(%rsp), %rdx
	movq	%rdx, 16(%rcx)
	.cv_loc	173 29 1098 0
	addq	$24, %rsp
	retq
.Ltmp518:
.Lfunc_end157:
	.seh_endproc

	.def	_ZN3log15MetadataBuilder5level17hf940b00921da0f71E;
	.scl	3;
	.type	32;
	.endef
	.section	.text,"xr",one_only,_ZN3log15MetadataBuilder5level17hf940b00921da0f71E
	.p2align	4, 0x90
_ZN3log15MetadataBuilder5level17hf940b00921da0f71E:
.Lfunc_begin158:
	.cv_func_id 174
	.cv_loc	174 29 1102 0
.seh_proc _ZN3log15MetadataBuilder5level17hf940b00921da0f71E
	subq	$16, %rsp
	.seh_stackalloc 16
	.seh_endprologue
	movq	%rcx, %rax
	movq	%rax, (%rsp)
	movq	%rdx, 8(%rsp)
.Ltmp519:
	.cv_loc	174 29 1103 0
	movq	%rdx, (%rax)
	.cv_loc	174 29 1105 0
	addq	$16, %rsp
	retq
.Ltmp520:
.Lfunc_end158:
	.seh_endproc

	.def	_ZN3log15MetadataBuilder6target17he340047a2023e3b8E;
	.scl	3;
	.type	32;
	.endef
	.section	.text,"xr",one_only,_ZN3log15MetadataBuilder6target17he340047a2023e3b8E
	.p2align	4, 0x90
_ZN3log15MetadataBuilder6target17he340047a2023e3b8E:
.Lfunc_begin159:
	.cv_func_id 175
	.cv_loc	175 29 1109 0
.seh_proc _ZN3log15MetadataBuilder6target17he340047a2023e3b8E
	subq	$24, %rsp
	.seh_stackalloc 24
	.seh_endprologue
	movq	%rcx, %rax
	movq	%rax, (%rsp)
	movq	%rdx, 8(%rsp)
	movq	%r8, 16(%rsp)
.Ltmp521:
	.cv_loc	175 29 1110 0
	movq	%rdx, 8(%rax)
	movq	%r8, 16(%rax)
	.cv_loc	175 29 1112 0
	addq	$24, %rsp
	retq
.Ltmp522:
.Lfunc_end159:
	.seh_endproc

	.def	_ZN3log15MetadataBuilder5build17hc37a922602bd15dfE;
	.scl	3;
	.type	32;
	.endef
	.section	.text,"xr",one_only,_ZN3log15MetadataBuilder5build17hc37a922602bd15dfE
	.p2align	4, 0x90
_ZN3log15MetadataBuilder5build17hc37a922602bd15dfE:
.Lfunc_begin160:
	.cv_func_id 176
	.cv_loc	176 29 1116 0
.seh_proc _ZN3log15MetadataBuilder5build17hc37a922602bd15dfE
	subq	$56, %rsp
	.seh_stackalloc 56
	.seh_endprologue
	movq	%rcx, %rax
	movq	%rax, 40(%rsp)
	movq	%rdx, 48(%rsp)
.Ltmp523:
	.cv_loc	176 29 1117 0
	callq	_ZN52_$LT$log..Metadata$u20$as$u20$core..clone..Clone$GT$5clone17h2e2bdbd68cb01132E
	.cv_loc	176 29 1118 0
	movq	40(%rsp), %rax
	addq	$56, %rsp
	retq
.Ltmp524:
.Lfunc_end160:
	.seh_endproc

	.def	_ZN63_$LT$log..MetadataBuilder$u20$as$u20$core..default..Default$GT$7default17hd4c5a10111334332E;
	.scl	2;
	.type	32;
	.endef
	.section	.text,"xr",one_only,_ZN63_$LT$log..MetadataBuilder$u20$as$u20$core..default..Default$GT$7default17hd4c5a10111334332E
	.globl	_ZN63_$LT$log..MetadataBuilder$u20$as$u20$core..default..Default$GT$7default17hd4c5a10111334332E
	.p2align	4, 0x90
_ZN63_$LT$log..MetadataBuilder$u20$as$u20$core..default..Default$GT$7default17hd4c5a10111334332E:
.Lfunc_begin161:
	.cv_func_id 177
	.cv_loc	177 29 1122 0
.seh_proc _ZN63_$LT$log..MetadataBuilder$u20$as$u20$core..default..Default$GT$7default17hd4c5a10111334332E
	subq	$40, %rsp
	.seh_stackalloc 40
	.seh_endprologue
	movq	%rcx, %rax
	movq	%rax, 32(%rsp)
.Ltmp525:
	.cv_loc	177 29 1123 0
	callq	_ZN3log15MetadataBuilder3new17h59a831ea64f25ea4E
	.cv_loc	177 29 1124 0
	movq	32(%rsp), %rax
	addq	$40, %rsp
	retq
.Ltmp526:
.Lfunc_end161:
	.seh_endproc

	.def	_ZN43_$LT$log..NopLogger$u20$as$u20$log..Log$GT$7enabled17h9314ae4d388c92f0E;
	.scl	2;
	.type	32;
	.endef
	.section	.text,"xr",one_only,_ZN43_$LT$log..NopLogger$u20$as$u20$log..Log$GT$7enabled17h9314ae4d388c92f0E
	.globl	_ZN43_$LT$log..NopLogger$u20$as$u20$log..Log$GT$7enabled17h9314ae4d388c92f0E
	.p2align	4, 0x90
_ZN43_$LT$log..NopLogger$u20$as$u20$log..Log$GT$7enabled17h9314ae4d388c92f0E:
.Lfunc_begin162:
	.cv_func_id 178
	.cv_loc	178 29 1160 0
.seh_proc _ZN43_$LT$log..NopLogger$u20$as$u20$log..Log$GT$7enabled17h9314ae4d388c92f0E
	subq	$16, %rsp
	.seh_stackalloc 16
	.seh_endprologue
	movq	%rcx, (%rsp)
	movq	%rdx, 8(%rsp)
.Ltmp527:
	.cv_loc	178 29 1162 0
	xorl	%eax, %eax
	andb	$1, %al
	movzbl	%al, %eax
	addq	$16, %rsp
	retq
.Ltmp528:
.Lfunc_end162:
	.seh_endproc

	.def	_ZN43_$LT$log..NopLogger$u20$as$u20$log..Log$GT$3log17hd96dbd8e08ea752dE;
	.scl	2;
	.type	32;
	.endef
	.section	.text,"xr",one_only,_ZN43_$LT$log..NopLogger$u20$as$u20$log..Log$GT$3log17hd96dbd8e08ea752dE
	.globl	_ZN43_$LT$log..NopLogger$u20$as$u20$log..Log$GT$3log17hd96dbd8e08ea752dE
	.p2align	4, 0x90
_ZN43_$LT$log..NopLogger$u20$as$u20$log..Log$GT$3log17hd96dbd8e08ea752dE:
.Lfunc_begin163:
	.cv_func_id 179
	.cv_loc	179 29 1164 0
.seh_proc _ZN43_$LT$log..NopLogger$u20$as$u20$log..Log$GT$3log17hd96dbd8e08ea752dE
	subq	$16, %rsp
	.seh_stackalloc 16
	.seh_endprologue
	movq	%rcx, (%rsp)
	movq	%rdx, 8(%rsp)
.Ltmp529:
	addq	$16, %rsp
	retq
.Ltmp530:
.Lfunc_end163:
	.seh_endproc

	.def	_ZN43_$LT$log..NopLogger$u20$as$u20$log..Log$GT$5flush17hcb4bc61c6446f94bE;
	.scl	2;
	.type	32;
	.endef
	.section	.text,"xr",one_only,_ZN43_$LT$log..NopLogger$u20$as$u20$log..Log$GT$5flush17hcb4bc61c6446f94bE
	.globl	_ZN43_$LT$log..NopLogger$u20$as$u20$log..Log$GT$5flush17hcb4bc61c6446f94bE
	.p2align	4, 0x90
_ZN43_$LT$log..NopLogger$u20$as$u20$log..Log$GT$5flush17hcb4bc61c6446f94bE:
.Lfunc_begin164:
	.cv_func_id 180
	.cv_loc	180 29 1165 0
.seh_proc _ZN43_$LT$log..NopLogger$u20$as$u20$log..Log$GT$5flush17hcb4bc61c6446f94bE
	pushq	%rax
	.seh_stackalloc 8
	.seh_endprologue
	movq	%rcx, (%rsp)
.Ltmp531:
	popq	%rax
	retq
.Ltmp532:
.Lfunc_end164:
	.seh_endproc

	.def	_ZN3log10set_logger17h5b567ee778d64652E;
	.scl	2;
	.type	32;
	.endef
	.section	.text,"xr",one_only,_ZN3log10set_logger17h5b567ee778d64652E
	.globl	_ZN3log10set_logger17h5b567ee778d64652E
	.p2align	4, 0x90
_ZN3log10set_logger17h5b567ee778d64652E:
.Lfunc_begin165:
	.cv_func_id 181
	.cv_loc	181 29 1352 0
.seh_proc _ZN3log10set_logger17h5b567ee778d64652E
	subq	$72, %rsp
	.seh_stackalloc 72
	.seh_endprologue
	movq	%rcx, 48(%rsp)
	movq	%rdx, 56(%rsp)
.Ltmp533:
	.cv_loc	181 29 1353 0
	leaq	48(%rsp), %rax
	movq	%rax, 64(%rsp)
	movq	64(%rsp), %rcx
	callq	_ZN3log16set_logger_inner17hc71387646f88cbdaE
	movb	%al, 47(%rsp)
	.cv_loc	181 29 1354 0
	movb	47(%rsp), %al
	andb	$1, %al
	movzbl	%al, %eax
	addq	$72, %rsp
	retq
.Ltmp534:
.Lfunc_end165:
	.seh_endproc

	.def	_ZN3log10set_logger28_$u7b$$u7b$closure$u7d$$u7d$17h06bbbb2183293aceE;
	.scl	3;
	.type	32;
	.endef
	.section	.text,"xr",one_only,_ZN3log10set_logger28_$u7b$$u7b$closure$u7d$$u7d$17h06bbbb2183293aceE
	.p2align	4, 0x90
_ZN3log10set_logger28_$u7b$$u7b$closure$u7d$$u7d$17h06bbbb2183293aceE:
.Lfunc_begin166:
	.cv_func_id 182
	.cv_loc	182 29 1353 0
.seh_proc _ZN3log10set_logger28_$u7b$$u7b$closure$u7d$$u7d$17h06bbbb2183293aceE
	pushq	%rax
	.seh_stackalloc 8
	.seh_endprologue
	movq	%rcx, (%rsp)
.Ltmp535:
	movq	(%rcx), %rax
	movq	8(%rcx), %rdx
	popq	%rcx
	retq
.Ltmp536:
.Lfunc_end166:
	.seh_endproc

	.def	_ZN3log16set_logger_inner17hc71387646f88cbdaE;
	.scl	3;
	.type	32;
	.endef
	.section	.text,"xr",one_only,_ZN3log16set_logger_inner17hc71387646f88cbdaE
	.p2align	4, 0x90
_ZN3log16set_logger_inner17hc71387646f88cbdaE:
.Lfunc_begin167:
	.cv_func_id 183
	.cv_loc	183 29 1357 0
.seh_proc _ZN3log16set_logger_inner17hc71387646f88cbdaE
	.seh_handler __CxxFrameHandler3, @unwind, @except
	pushq	%rbp
	.seh_pushreg %rbp
	subq	$176, %rsp
	.seh_stackalloc 176
	leaq	128(%rsp), %rbp
	.seh_setframe %rbp, 128
	.seh_endprologue
	movq	$-2, 40(%rbp)
	movq	%rcx, -48(%rbp)
	movq	%rcx, 24(%rbp)
.Ltmp547:
	.cv_loc	183 29 1361 0
	movb	$0, 23(%rbp)
	movb	$1, 23(%rbp)
	.cv_loc	183 29 1364 0
	movb	$4, 6(%rbp)
	.cv_loc	183 29 1365 0
	movb	$4, 7(%rbp)
	.cv_loc	183 29 1361 0
	movb	6(%rbp), %r9b
	movb	7(%rbp), %cl
.Ltmp537:
	movq	%rsp, %rax
	movb	%cl, 32(%rax)
	leaq	_ZN3log5STATE17h187919de1c3e75a3E(%rip), %rcx
	xorl	%eax, %eax
	movl	%eax, %edx
	movl	$1, %r8d
	callq	_ZN4core4sync6atomic11AtomicUsize16compare_exchange17h56a5e7233944c95bE
.Ltmp538:
	movq	%rdx, -40(%rbp)
	movq	%rax, -32(%rbp)
	jmp	.LBB167_2
.LBB167_2:
	movq	-40(%rbp), %rax
	movq	-32(%rbp), %rcx
	movq	%rcx, -16(%rbp)
	movq	%rax, -8(%rbp)
	movq	-16(%rbp), %rax
	testq	%rax, %rax
	je	.LBB167_4
	jmp	.LBB167_21
.LBB167_21:
	jmp	.LBB167_5
	ud2
.LBB167_4:
	.cv_loc	183 29 1367 0
	movq	-8(%rbp), %rax
	movq	%rax, 8(%rbp)
	.cv_loc	183 29 1361 0
	jmp	.LBB167_6
.LBB167_5:
	.cv_loc	183 29 1367 0
	movq	-8(%rbp), %rax
	movq	%rax, 8(%rbp)
.LBB167_6:
.Ltmp548:
	.cv_loc	183 29 1367 0
	movq	8(%rbp), %rax
	movq	%rax, -56(%rbp)
	movq	%rax, 32(%rbp)
.Ltmp549:
	.cv_loc	183 29 1369 0
	testq	%rax, %rax
	je	.LBB167_8
	jmp	.LBB167_22
.LBB167_22:
	movq	-56(%rbp), %rax
	subq	$1, %rax
	je	.LBB167_9
	jmp	.LBB167_7
.LBB167_7:
	.cv_loc	183 29 1385 0
	movb	$1, -17(%rbp)
	jmp	.LBB167_10
.LBB167_8:
	.cv_loc	183 29 1372 0
	movq	-48(%rbp), %rcx
	movb	$0, 23(%rbp)
.Ltmp543:
	callq	_ZN3log10set_logger28_$u7b$$u7b$closure$u7d$$u7d$17h06bbbb2183293aceE
.Ltmp544:
	movq	%rdx, -72(%rbp)
	movq	%rax, -64(%rbp)
	jmp	.LBB167_15
.LBB167_9:
	.cv_loc	183 29 1378 0
	movb	$4, 22(%rbp)
	movb	22(%rbp), %dl
.Ltmp539:
	leaq	_ZN3log5STATE17h187919de1c3e75a3E(%rip), %rcx
	callq	_ZN4core4sync6atomic11AtomicUsize4load17h848325e4fa62f54eE
.Ltmp540:
	movq	%rax, -80(%rbp)
	jmp	.LBB167_11
.Ltmp550:
.LBB167_10:
	.cv_loc	183 29 1387 0
	testb	$1, 23(%rbp)
	jne	.LBB167_20
	jmp	.LBB167_19
.LBB167_11:
	.cv_loc	183 29 1378 0
	movq	-80(%rbp), %rax
.Ltmp551:
	cmpq	$1, %rax
	je	.LBB167_13
	.cv_loc	183 29 1383 0
	movb	$1, -17(%rbp)
	jmp	.LBB167_10
.LBB167_13:
	.cv_loc	183 29 1381 0
.Ltmp541:
	callq	_ZN4core4sync6atomic14spin_loop_hint17h217c5516eff9bb61E
.Ltmp542:
	jmp	.LBB167_14
.LBB167_14:
	jmp	.LBB167_9
.LBB167_15:
	.cv_loc	183 29 1372 0
	movq	-72(%rbp), %rax
	movq	-64(%rbp), %rcx
	movq	%rcx, _ZN3log6LOGGER17h34aa7fa3956a5d05E(%rip)
	movq	%rax, _ZN3log6LOGGER17h34aa7fa3956a5d05E+8(%rip)
	.cv_loc	183 29 1374 0
	movb	$4, 21(%rbp)
	movb	21(%rbp), %r8b
.Ltmp545:
	leaq	_ZN3log5STATE17h187919de1c3e75a3E(%rip), %rcx
	movl	$2, %edx
	callq	_ZN4core4sync6atomic11AtomicUsize5store17h86541f727ce5762fE
.Ltmp546:
	jmp	.LBB167_16
.LBB167_16:
	.cv_loc	183 29 1375 0
	movb	$0, -17(%rbp)
	jmp	.LBB167_10
.Ltmp552:
.LBB167_19:
	.cv_loc	183 29 1387 0
	movb	-17(%rbp), %al
	andb	$1, %al
	movzbl	%al, %eax
	addq	$176, %rsp
	popq	%rbp
	retq
.LBB167_20:
	jmp	.LBB167_19
	.seh_handlerdata
	.long	($cppxdata$_ZN3log16set_logger_inner17hc71387646f88cbdaE)@IMGREL
	.section	.text,"xr",one_only,_ZN3log16set_logger_inner17hc71387646f88cbdaE
	.seh_endproc
	.def	"?dtor$1@?0?_ZN3log16set_logger_inner17hc71387646f88cbdaE@4HA";
	.scl	3;
	.type	32;
	.endef
	.p2align	4, 0x90
"?dtor$1@?0?_ZN3log16set_logger_inner17hc71387646f88cbdaE@4HA":
.seh_proc "?dtor$1@?0?_ZN3log16set_logger_inner17hc71387646f88cbdaE@4HA"
.LBB167_1:
	movq	%rdx, 16(%rsp)
	pushq	%rbp
	.seh_pushreg %rbp
	subq	$48, %rsp
	.seh_stackalloc 48
	leaq	128(%rdx), %rbp
	.seh_endprologue
	testb	$1, 23(%rbp)
	jne	.LBB167_18
	jmp	.LBB167_17
.LBB167_17:
	.cv_loc	183 29 1357 0
	addq	$48, %rsp
	popq	%rbp
	retq
.LBB167_18:
	.cv_loc	183 29 1387 0
	jmp	.LBB167_17
.Ltmp553:
.Lfunc_end167:
	.seh_handlerdata
	.section	.text,"xr",one_only,_ZN3log16set_logger_inner17hc71387646f88cbdaE
	.seh_endproc
	.section	.xdata,"dr",associative,_ZN3log16set_logger_inner17hc71387646f88cbdaE
	.p2align	2
$cppxdata$_ZN3log16set_logger_inner17hc71387646f88cbdaE:
	.long	429065506
	.long	1
	.long	($stateUnwindMap$_ZN3log16set_logger_inner17hc71387646f88cbdaE)@IMGREL
	.long	0
	.long	0
	.long	3
	.long	($ip2state$_ZN3log16set_logger_inner17hc71387646f88cbdaE)@IMGREL
	.long	168
	.long	0
	.long	1
$stateUnwindMap$_ZN3log16set_logger_inner17hc71387646f88cbdaE:
	.long	-1
	.long	"?dtor$1@?0?_ZN3log16set_logger_inner17hc71387646f88cbdaE@4HA"@IMGREL
$ip2state$_ZN3log16set_logger_inner17hc71387646f88cbdaE:
	.long	.Lfunc_begin167@IMGREL
	.long	-1
	.long	.Ltmp537@IMGREL+1
	.long	0
	.long	.Ltmp546@IMGREL+1
	.long	-1
	.section	.text,"xr",one_only,_ZN3log16set_logger_inner17hc71387646f88cbdaE

	.def	_ZN3log15set_logger_racy17hfb995241221797efE;
	.scl	2;
	.type	32;
	.endef
	.section	.text,"xr",one_only,_ZN3log15set_logger_racy17hfb995241221797efE
	.globl	_ZN3log15set_logger_racy17hfb995241221797efE
	.p2align	4, 0x90
_ZN3log15set_logger_racy17hfb995241221797efE:
.Lfunc_begin168:
	.cv_func_id 184
	.cv_loc	184 29 1408 0
.seh_proc _ZN3log15set_logger_racy17hfb995241221797efE
	subq	$88, %rsp
	.seh_stackalloc 88
	.seh_endprologue
	movq	%rdx, 40(%rsp)
	movq	%rcx, 48(%rsp)
	movq	%rcx, 72(%rsp)
	movq	%rdx, 80(%rsp)
.Ltmp554:
	.cv_loc	184 29 1409 0
	movb	$4, 70(%rsp)
	movb	70(%rsp), %dl
	leaq	_ZN3log5STATE17h187919de1c3e75a3E(%rip), %rcx
	callq	_ZN4core4sync6atomic11AtomicUsize4load17h848325e4fa62f54eE
	movq	%rax, 56(%rsp)
	movq	56(%rsp), %rax
	testq	%rax, %rax
	je	.LBB168_3
	jmp	.LBB168_7
.LBB168_7:
	movq	56(%rsp), %rax
	subq	$1, %rax
	je	.LBB168_4
	jmp	.LBB168_2
.LBB168_2:
	.cv_loc	184 29 1419 0
	movb	$1, 69(%rsp)
	jmp	.LBB168_5
.LBB168_3:
	.cv_loc	184 29 1411 0
	movq	40(%rsp), %rax
	movq	48(%rsp), %rcx
	movq	%rcx, _ZN3log6LOGGER17h34aa7fa3956a5d05E(%rip)
	movq	%rax, _ZN3log6LOGGER17h34aa7fa3956a5d05E+8(%rip)
	.cv_loc	184 29 1412 0
	movb	$4, 71(%rsp)
	movb	71(%rsp), %r8b
	leaq	_ZN3log5STATE17h187919de1c3e75a3E(%rip), %rcx
	movl	$2, %edx
	callq	_ZN4core4sync6atomic11AtomicUsize5store17h86541f727ce5762fE
	jmp	.LBB168_6
.LBB168_4:
	.cv_loc	184 29 1417 0
	leaq	__unnamed_31(%rip), %rcx
	leaq	__unnamed_32(%rip), %rdx
	callq	_ZN4core9panicking19unreachable_display17h5a6574c2fc8ca5c6E
	ud2
.LBB168_5:
	.cv_loc	184 29 1421 0
	movb	69(%rsp), %al
	andb	$1, %al
	movzbl	%al, %eax
	addq	$88, %rsp
	retq
.LBB168_6:
	.cv_loc	184 29 1413 0
	movb	$0, 69(%rsp)
	jmp	.LBB168_5
.Ltmp555:
.Lfunc_end168:
	.seh_endproc

	.def	_ZN58_$LT$log..SetLoggerError$u20$as$u20$core..fmt..Display$GT$3fmt17h1e29e20844b4b1dcE;
	.scl	2;
	.type	32;
	.endef
	.section	.text,"xr",one_only,_ZN58_$LT$log..SetLoggerError$u20$as$u20$core..fmt..Display$GT$3fmt17h1e29e20844b4b1dcE
	.globl	_ZN58_$LT$log..SetLoggerError$u20$as$u20$core..fmt..Display$GT$3fmt17h1e29e20844b4b1dcE
	.p2align	4, 0x90
_ZN58_$LT$log..SetLoggerError$u20$as$u20$core..fmt..Display$GT$3fmt17h1e29e20844b4b1dcE:
.Lfunc_begin169:
	.cv_func_id 185
	.cv_loc	185 29 1431 0
.seh_proc _ZN58_$LT$log..SetLoggerError$u20$as$u20$core..fmt..Display$GT$3fmt17h1e29e20844b4b1dcE
	subq	$72, %rsp
	.seh_stackalloc 72
	.seh_endprologue
	movq	%rdx, 40(%rsp)
	movq	%rcx, %rax
	movq	40(%rsp), %rcx
	movq	%rax, 56(%rsp)
	movq	%rcx, 64(%rsp)
.Ltmp556:
	.cv_loc	185 29 1432 0
	movq	_ZN3log16SET_LOGGER_ERROR17hd3177a6c8688c931E(%rip), %rdx
	movq	_ZN3log16SET_LOGGER_ERROR17hd3177a6c8688c931E+8(%rip), %r8
	callq	_ZN4core3fmt9Formatter9write_str17h25be7ace8763f8ceE
	movb	%al, 55(%rsp)
	.cv_loc	185 29 1433 0
	movb	55(%rsp), %al
	andb	$1, %al
	movzbl	%al, %eax
	addq	$72, %rsp
	retq
.Ltmp557:
.Lfunc_end169:
	.seh_endproc

	.def	_ZN59_$LT$log..ParseLevelError$u20$as$u20$core..fmt..Display$GT$3fmt17h4d979f6d1a055fcfE;
	.scl	2;
	.type	32;
	.endef
	.section	.text,"xr",one_only,_ZN59_$LT$log..ParseLevelError$u20$as$u20$core..fmt..Display$GT$3fmt17h4d979f6d1a055fcfE
	.globl	_ZN59_$LT$log..ParseLevelError$u20$as$u20$core..fmt..Display$GT$3fmt17h4d979f6d1a055fcfE
	.p2align	4, 0x90
_ZN59_$LT$log..ParseLevelError$u20$as$u20$core..fmt..Display$GT$3fmt17h4d979f6d1a055fcfE:
.Lfunc_begin170:
	.cv_func_id 186
	.cv_loc	186 29 1448 0
.seh_proc _ZN59_$LT$log..ParseLevelError$u20$as$u20$core..fmt..Display$GT$3fmt17h4d979f6d1a055fcfE
	subq	$72, %rsp
	.seh_stackalloc 72
	.seh_endprologue
	movq	%rdx, 40(%rsp)
	movq	%rcx, %rax
	movq	40(%rsp), %rcx
	movq	%rax, 56(%rsp)
	movq	%rcx, 64(%rsp)
.Ltmp558:
	.cv_loc	186 29 1449 0
	movq	_ZN3log17LEVEL_PARSE_ERROR17h44527326c0188416E(%rip), %rdx
	movq	_ZN3log17LEVEL_PARSE_ERROR17h44527326c0188416E+8(%rip), %r8
	callq	_ZN4core3fmt9Formatter9write_str17h25be7ace8763f8ceE
	movb	%al, 55(%rsp)
	.cv_loc	186 29 1450 0
	movb	55(%rsp), %al
	andb	$1, %al
	movzbl	%al, %eax
	addq	$72, %rsp
	retq
.Ltmp559:
.Lfunc_end170:
	.seh_endproc

	.def	_ZN3log6logger17hfd1701d24ead074fE;
	.scl	2;
	.type	32;
	.endef
	.section	.text,"xr",one_only,_ZN3log6logger17hfd1701d24ead074fE
	.globl	_ZN3log6logger17hfd1701d24ead074fE
	.p2align	4, 0x90
_ZN3log6logger17hfd1701d24ead074fE:
.Lfunc_begin171:
	.cv_func_id 187
	.cv_loc	187 29 1460 0
.seh_proc _ZN3log6logger17hfd1701d24ead074fE
	subq	$72, %rsp
	.seh_stackalloc 72
	.seh_endprologue
.Ltmp560:
	.cv_loc	187 29 1461 0
	movb	$4, 71(%rsp)
	movb	71(%rsp), %dl
	leaq	_ZN3log5STATE17h187919de1c3e75a3E(%rip), %rcx
	callq	_ZN4core4sync6atomic11AtomicUsize4load17h848325e4fa62f54eE
	movq	%rax, 40(%rsp)
	movq	40(%rsp), %rax
	cmpq	$2, %rax
	jne	.LBB171_3
	.cv_loc	187 29 1465 0
	movq	_ZN3log6LOGGER17h34aa7fa3956a5d05E(%rip), %rcx
	movq	_ZN3log6LOGGER17h34aa7fa3956a5d05E+8(%rip), %rax
	movq	%rcx, 48(%rsp)
	movq	%rax, 56(%rsp)
	.cv_loc	187 29 1461 0
	jmp	.LBB171_4
.LBB171_3:
	.cv_loc	187 29 1463 0
	leaq	_ZN3log6logger3NOP17h39e2802027661242E(%rip), %rax
	movq	%rax, 48(%rsp)
	leaq	__unnamed_33(%rip), %rax
	movq	%rax, 56(%rsp)
.LBB171_4:
	.cv_loc	187 29 1461 0
	movq	48(%rsp), %rax
	movq	56(%rsp), %rdx
	.cv_loc	187 29 1467 0
	addq	$72, %rsp
	retq
.Ltmp561:
.Lfunc_end171:
	.seh_endproc

	.def	_ZN3log13__private_api3log17h38bc166d93d3480eE;
	.scl	2;
	.type	32;
	.endef
	.section	.text,"xr",one_only,_ZN3log13__private_api3log17h38bc166d93d3480eE
	.globl	_ZN3log13__private_api3log17h38bc166d93d3480eE
	.p2align	4, 0x90
_ZN3log13__private_api3log17h38bc166d93d3480eE:
.Lfunc_begin172:
	.cv_func_id 188
	.cv_file	30 "C:\\Users\\cires\\.cargo\\registry\\src\\github.com-1ecc6299db9ec823\\log-0.4.20\\src\\__private_api.rs" "38655A0DC8A94CCAD0BF7D55580344C4BDA06510" 2
	.cv_loc	188 30 9 0
.seh_proc _ZN3log13__private_api3log17h38bc166d93d3480eE
	subq	$616, %rsp
	.seh_stackalloc 616
	.seh_endprologue
	movl	%r9d, 108(%rsp)
	movq	%rdx, 112(%rsp)
	movq	%rcx, 120(%rsp)
.Ltmp562:
	movq	664(%rsp), %rax
	movq	656(%rsp), %rcx
	movq	%rcx, 184(%rsp)
	movq	%rax, 192(%rsp)
	movq	%rdx, 544(%rsp)
	movq	%r8, 552(%rsp)
	movl	%r9d, 564(%rsp)
.Ltmp563:
	.cv_loc	188 30 12 0
	movq	(%r8), %rcx
	movq	%rcx, 128(%rsp)
	movq	8(%r8), %rax
	movq	%rax, 136(%rsp)
	movq	%rcx, 568(%rsp)
	movq	%rax, 576(%rsp)
	movq	16(%r8), %rcx
	movq	%rcx, 144(%rsp)
	movq	24(%r8), %rax
	movq	%rax, 152(%rsp)
	movq	%rcx, 584(%rsp)
	movq	%rax, 592(%rsp)
	movq	32(%r8), %rcx
	movq	%rcx, 160(%rsp)
	movq	40(%r8), %rax
	movq	%rax, 168(%rsp)
	movq	%rcx, 600(%rsp)
	movq	%rax, 608(%rsp)
.Ltmp564:
	.cv_loc	188 30 16 0
	leaq	184(%rsp), %rcx
	callq	_ZN4core6option15Option$LT$T$GT$7is_some17h2e8b4fc74a4a5988E
	movb	%al, 183(%rsp)
.Ltmp565:
	movb	183(%rsp), %al
	testb	$1, %al
	jne	.LBB172_3
	jmp	.LBB172_2
.Ltmp566:
.LBB172_2:
	.cv_loc	188 30 22 0
	callq	_ZN3log6logger17hfd1701d24ead074fE
	movq	%rax, 88(%rsp)
	movq	%rdx, 96(%rsp)
	jmp	.LBB172_4
.Ltmp567:
.LBB172_3:
	.cv_loc	188 30 17 0
	leaq	__unnamed_34(%rip), %rcx
	leaq	__unnamed_35(%rip), %r8
	movl	$85, %edx
	callq	_ZN4core9panicking5panic17hec2b05800ae70116E
	ud2
.Ltmp568:
.LBB172_4:
	.cv_loc	188 30 23 0
	leaq	328(%rsp), %rcx
	callq	_ZN3log6Record7builder17hfacc7ea60e9886c7E
.Ltmp569:
	.cv_loc	188 30 24 0
	movq	120(%rsp), %rdx
	leaq	456(%rsp), %rcx
	movl	$48, %r8d
	callq	memcpy
	.cv_loc	188 30 23 0
	leaq	328(%rsp), %rcx
	leaq	456(%rsp), %rdx
	callq	_ZN3log13RecordBuilder4args17h9e7cd1061eaa4536E
	movq	%rax, 80(%rsp)
.Ltmp570:
	movq	112(%rsp), %rdx
	movq	80(%rsp), %rcx
	callq	_ZN3log13RecordBuilder5level17h78848e180e7dd37aE
	movq	%rax, 72(%rsp)
.Ltmp571:
	movq	136(%rsp), %r8
	movq	128(%rsp), %rdx
	movq	72(%rsp), %rcx
	callq	_ZN3log13RecordBuilder6target17h5d83a1bb7328c30cE
	movq	%rax, 64(%rsp)
.Ltmp572:
	.cv_loc	188 30 27 0
	movq	64(%rsp), %rcx
	movq	152(%rsp), %rax
	movq	144(%rsp), %rdx
	movq	%rdx, 504(%rsp)
	movq	%rax, 512(%rsp)
	.cv_loc	188 30 23 0
	movq	504(%rsp), %rdx
	movq	512(%rsp), %r8
	callq	_ZN3log13RecordBuilder18module_path_static17h51789f609d64e052E
	movq	%rax, 56(%rsp)
.Ltmp573:
	.cv_loc	188 30 28 0
	movq	56(%rsp), %rcx
	movq	168(%rsp), %rax
	movq	160(%rsp), %rdx
	movq	%rdx, 520(%rsp)
	movq	%rax, 528(%rsp)
	.cv_loc	188 30 23 0
	movq	520(%rsp), %rdx
	movq	528(%rsp), %r8
	callq	_ZN3log13RecordBuilder11file_static17h43a6b1d17b2701a3E
	movq	%rax, 48(%rsp)
.Ltmp574:
	.cv_loc	188 30 29 0
	movq	48(%rsp), %rcx
	movl	108(%rsp), %eax
	movl	%eax, 540(%rsp)
	movl	$1, 536(%rsp)
	.cv_loc	188 30 23 0
	movl	536(%rsp), %edx
	movl	540(%rsp), %r8d
	callq	_ZN3log13RecordBuilder4line17hf8b1ecfec30f8f68E
	movq	%rax, 40(%rsp)
.Ltmp575:
	movq	40(%rsp), %rdx
	leaq	200(%rsp), %rcx
	callq	_ZN3log13RecordBuilder5build17hbdce95c3af242166E
.Ltmp576:
	.cv_loc	188 30 22 0
	movq	96(%rsp), %rax
	movq	88(%rsp), %rcx
	leaq	200(%rsp), %rdx
	callq	*40(%rax)
.Ltmp577:
	.cv_loc	188 30 32 0
	nop
	addq	$616, %rsp
	retq
.Ltmp578:
.Lfunc_end172:
	.seh_endproc

	.def	_ZN3log13__private_api7enabled17h21c8c8b237393668E;
	.scl	2;
	.type	32;
	.endef
	.section	.text,"xr",one_only,_ZN3log13__private_api7enabled17h21c8c8b237393668E
	.globl	_ZN3log13__private_api7enabled17h21c8c8b237393668E
	.p2align	4, 0x90
_ZN3log13__private_api7enabled17h21c8c8b237393668E:
.Lfunc_begin173:
	.cv_func_id 189
	.cv_loc	189 30 55 0
.seh_proc _ZN3log13__private_api7enabled17h21c8c8b237393668E
	subq	$168, %rsp
	.seh_stackalloc 168
	.seh_endprologue
	movq	%r8, 56(%rsp)
	movq	%rdx, 64(%rsp)
	movq	%rcx, 72(%rsp)
	movq	%rcx, 144(%rsp)
	movq	%rdx, 152(%rsp)
	movq	%r8, 160(%rsp)
.Ltmp579:
	.cv_loc	189 30 56 0
	callq	_ZN3log6logger17hfd1701d24ead074fE
	movq	%rax, 80(%rsp)
	movq	%rdx, 88(%rsp)
	leaq	120(%rsp), %rcx
	callq	_ZN3log8Metadata7builder17hc5c41967e9eb85baE
	movq	72(%rsp), %rdx
	leaq	120(%rsp), %rcx
	callq	_ZN3log15MetadataBuilder5level17hf940b00921da0f71E
	movq	%rax, 48(%rsp)
	movq	56(%rsp), %r8
	movq	64(%rsp), %rdx
	movq	48(%rsp), %rcx
	callq	_ZN3log15MetadataBuilder6target17he340047a2023e3b8E
	movq	%rax, 40(%rsp)
	movq	40(%rsp), %rdx
	leaq	96(%rsp), %rcx
	callq	_ZN3log15MetadataBuilder5build17hc37a922602bd15dfE
	movq	88(%rsp), %rax
	movq	80(%rsp), %rcx
	leaq	96(%rsp), %rdx
	callq	*32(%rax)
	movb	%al, 39(%rsp)
	.cv_loc	189 30 57 0
	movb	39(%rsp), %al
	andb	$1, %al
	movzbl	%al, %eax
	addq	$168, %rsp
	retq
.Ltmp580:
.Lfunc_end173:
	.seh_endproc

	.def	_ZN3log19get_max_level_inner17hfe07086d79108aedE;
	.scl	2;
	.type	32;
	.endef
	.section	.text,"xr",one_only,_ZN3log19get_max_level_inner17hfe07086d79108aedE
	.globl	_ZN3log19get_max_level_inner17hfe07086d79108aedE
	.p2align	4, 0x90
_ZN3log19get_max_level_inner17hfe07086d79108aedE:
.Lfunc_begin174:
	.cv_func_id 190
	.cv_loc	190 29 1486 0
.seh_proc _ZN3log19get_max_level_inner17hfe07086d79108aedE
	pushq	%rax
	.seh_stackalloc 8
	.seh_endprologue
.Ltmp581:
	.cv_loc	190 29 1534 0
	movq	$5, (%rsp)
	.cv_loc	190 29 1536 0
	movq	(%rsp), %rax
	popq	%rcx
	retq
.Ltmp582:
.Lfunc_end174:
	.seh_endproc

	.def	_ZN49_$LT$log..Level$u20$as$u20$core..clone..Clone$GT$5clone17hc94e6921cdea3edaE;
	.scl	3;
	.type	32;
	.endef
	.section	.text,"xr",one_only,_ZN49_$LT$log..Level$u20$as$u20$core..clone..Clone$GT$5clone17hc94e6921cdea3edaE
	.p2align	4, 0x90
_ZN49_$LT$log..Level$u20$as$u20$core..clone..Clone$GT$5clone17hc94e6921cdea3edaE:
.Lfunc_begin175:
	.cv_func_id 191
	.cv_loc	191 29 428 0
.seh_proc _ZN49_$LT$log..Level$u20$as$u20$core..clone..Clone$GT$5clone17hc94e6921cdea3edaE
	pushq	%rax
	.seh_stackalloc 8
	.seh_endprologue
	movq	%rcx, (%rsp)
.Ltmp583:
	movq	(%rcx), %rax
	popq	%rcx
	retq
.Ltmp584:
.Lfunc_end175:
	.seh_endproc

	.def	_ZN47_$LT$log..Level$u20$as$u20$core..fmt..Debug$GT$3fmt17h90a2c755dc62e880E;
	.scl	2;
	.type	32;
	.endef
	.section	.text,"xr",one_only,_ZN47_$LT$log..Level$u20$as$u20$core..fmt..Debug$GT$3fmt17h90a2c755dc62e880E
	.globl	_ZN47_$LT$log..Level$u20$as$u20$core..fmt..Debug$GT$3fmt17h90a2c755dc62e880E
	.p2align	4, 0x90
_ZN47_$LT$log..Level$u20$as$u20$core..fmt..Debug$GT$3fmt17h90a2c755dc62e880E:
.Lfunc_begin176:
	.cv_func_id 192
	.cv_loc	192 29 428 0
.seh_proc _ZN47_$LT$log..Level$u20$as$u20$core..fmt..Debug$GT$3fmt17h90a2c755dc62e880E
	subq	$88, %rsp
	.seh_stackalloc 88
	.seh_endprologue
	movq	%rdx, 40(%rsp)
	movq	%rcx, 72(%rsp)
	movq	%rdx, 80(%rsp)
.Ltmp585:
	movq	%rcx, 64(%rsp)
	movq	64(%rsp), %rax
	movq	(%rax), %rax
	decq	%rax
	movq	%rax, 48(%rsp)
	movq	48(%rsp), %rax
	leaq	.LJTI176_0(%rip), %rcx
	movslq	(%rcx,%rax,4), %rax
	addq	%rcx, %rax
	jmpq	*%rax
	ud2
.LBB176_2:
	movq	40(%rsp), %rcx
	leaq	__unnamed_36(%rip), %rdx
	movl	$5, %r8d
	callq	_ZN4core3fmt9Formatter9write_str17h25be7ace8763f8ceE
	andb	$1, %al
	movb	%al, 63(%rsp)
	jmp	.LBB176_7
.LBB176_3:
	movq	40(%rsp), %rcx
	leaq	__unnamed_37(%rip), %rdx
	movl	$4, %r8d
	callq	_ZN4core3fmt9Formatter9write_str17h25be7ace8763f8ceE
	andb	$1, %al
	movb	%al, 63(%rsp)
	jmp	.LBB176_7
.LBB176_4:
	movq	40(%rsp), %rcx
	leaq	__unnamed_38(%rip), %rdx
	movl	$4, %r8d
	callq	_ZN4core3fmt9Formatter9write_str17h25be7ace8763f8ceE
	andb	$1, %al
	movb	%al, 63(%rsp)
	jmp	.LBB176_7
.LBB176_5:
	movq	40(%rsp), %rcx
	leaq	__unnamed_39(%rip), %rdx
	movl	$5, %r8d
	callq	_ZN4core3fmt9Formatter9write_str17h25be7ace8763f8ceE
	andb	$1, %al
	movb	%al, 63(%rsp)
	jmp	.LBB176_7
.LBB176_6:
	movq	40(%rsp), %rcx
	leaq	__unnamed_40(%rip), %rdx
	movl	$5, %r8d
	callq	_ZN4core3fmt9Formatter9write_str17h25be7ace8763f8ceE
	andb	$1, %al
	movb	%al, 63(%rsp)
.LBB176_7:
	movb	63(%rsp), %al
	andb	$1, %al
	movzbl	%al, %eax
	addq	$88, %rsp
	retq
.Ltmp586:
.Lfunc_end176:
	.p2align	2, 0x90
.LJTI176_0:
	.long	.LBB176_2-.LJTI176_0
	.long	.LBB176_3-.LJTI176_0
	.long	.LBB176_4-.LJTI176_0
	.long	.LBB176_5-.LJTI176_0
	.long	.LBB176_6-.LJTI176_0
	.seh_endproc

	.def	_ZN53_$LT$log..LevelFilter$u20$as$u20$core..fmt..Debug$GT$3fmt17hec3d5104818f14ecE;
	.scl	2;
	.type	32;
	.endef
	.section	.text,"xr",one_only,_ZN53_$LT$log..LevelFilter$u20$as$u20$core..fmt..Debug$GT$3fmt17hec3d5104818f14ecE
	.globl	_ZN53_$LT$log..LevelFilter$u20$as$u20$core..fmt..Debug$GT$3fmt17hec3d5104818f14ecE
	.p2align	4, 0x90
_ZN53_$LT$log..LevelFilter$u20$as$u20$core..fmt..Debug$GT$3fmt17hec3d5104818f14ecE:
.Lfunc_begin177:
	.cv_func_id 193
	.cv_loc	193 29 557 0
.seh_proc _ZN53_$LT$log..LevelFilter$u20$as$u20$core..fmt..Debug$GT$3fmt17hec3d5104818f14ecE
	subq	$88, %rsp
	.seh_stackalloc 88
	.seh_endprologue
	movq	%rdx, 40(%rsp)
	movq	%rcx, 72(%rsp)
	movq	%rdx, 80(%rsp)
.Ltmp587:
	movq	%rcx, 64(%rsp)
	movq	64(%rsp), %rax
	movq	(%rax), %rax
	movq	%rax, 48(%rsp)
	movq	48(%rsp), %rax
	leaq	.LJTI177_0(%rip), %rcx
	movslq	(%rcx,%rax,4), %rax
	addq	%rcx, %rax
	jmpq	*%rax
	ud2
.LBB177_2:
	movq	40(%rsp), %rcx
	leaq	__unnamed_41(%rip), %rdx
	movl	$3, %r8d
	callq	_ZN4core3fmt9Formatter9write_str17h25be7ace8763f8ceE
	andb	$1, %al
	movb	%al, 63(%rsp)
	jmp	.LBB177_8
.LBB177_3:
	movq	40(%rsp), %rcx
	leaq	__unnamed_36(%rip), %rdx
	movl	$5, %r8d
	callq	_ZN4core3fmt9Formatter9write_str17h25be7ace8763f8ceE
	andb	$1, %al
	movb	%al, 63(%rsp)
	jmp	.LBB177_8
.LBB177_4:
	movq	40(%rsp), %rcx
	leaq	__unnamed_37(%rip), %rdx
	movl	$4, %r8d
	callq	_ZN4core3fmt9Formatter9write_str17h25be7ace8763f8ceE
	andb	$1, %al
	movb	%al, 63(%rsp)
	jmp	.LBB177_8
.LBB177_5:
	movq	40(%rsp), %rcx
	leaq	__unnamed_38(%rip), %rdx
	movl	$4, %r8d
	callq	_ZN4core3fmt9Formatter9write_str17h25be7ace8763f8ceE
	andb	$1, %al
	movb	%al, 63(%rsp)
	jmp	.LBB177_8
.LBB177_6:
	movq	40(%rsp), %rcx
	leaq	__unnamed_39(%rip), %rdx
	movl	$5, %r8d
	callq	_ZN4core3fmt9Formatter9write_str17h25be7ace8763f8ceE
	andb	$1, %al
	movb	%al, 63(%rsp)
	jmp	.LBB177_8
.LBB177_7:
	movq	40(%rsp), %rcx
	leaq	__unnamed_40(%rip), %rdx
	movl	$5, %r8d
	callq	_ZN4core3fmt9Formatter9write_str17h25be7ace8763f8ceE
	andb	$1, %al
	movb	%al, 63(%rsp)
.LBB177_8:
	movb	63(%rsp), %al
	andb	$1, %al
	movzbl	%al, %eax
	addq	$88, %rsp
	retq
.Ltmp588:
.Lfunc_end177:
	.p2align	2, 0x90
.LJTI177_0:
	.long	.LBB177_2-.LJTI177_0
	.long	.LBB177_3-.LJTI177_0
	.long	.LBB177_4-.LJTI177_0
	.long	.LBB177_5-.LJTI177_0
	.long	.LBB177_6-.LJTI177_0
	.long	.LBB177_7-.LJTI177_0
	.seh_endproc

	.def	_ZN3log14MaybeStaticStr6Static17h3a77f9508dc35f0cE;
	.scl	3;
	.type	32;
	.endef
	.section	.text,"xr",one_only,_ZN3log14MaybeStaticStr6Static17h3a77f9508dc35f0cE
	.p2align	4, 0x90
_ZN3log14MaybeStaticStr6Static17h3a77f9508dc35f0cE:
.Lfunc_begin178:
	.cv_func_id 194
	.cv_loc	194 29 661 0
.seh_proc _ZN3log14MaybeStaticStr6Static17h3a77f9508dc35f0cE
	subq	$16, %rsp
	.seh_stackalloc 16
	.seh_endprologue
	movq	%rcx, %rax
	movq	%rdx, (%rsp)
	movq	%r8, 8(%rsp)
.Ltmp589:
	movq	%rdx, 8(%rcx)
	movq	%r8, 16(%rcx)
	movq	$0, (%rcx)
	addq	$16, %rsp
	retq
.Ltmp590:
.Lfunc_end178:
	.seh_endproc

	.def	_ZN58_$LT$log..MaybeStaticStr$u20$as$u20$core..clone..Clone$GT$5clone17h0dac6a119b594d1fE;
	.scl	3;
	.type	32;
	.endef
	.section	.text,"xr",one_only,_ZN58_$LT$log..MaybeStaticStr$u20$as$u20$core..clone..Clone$GT$5clone17h0dac6a119b594d1fE
	.p2align	4, 0x90
_ZN58_$LT$log..MaybeStaticStr$u20$as$u20$core..clone..Clone$GT$5clone17h0dac6a119b594d1fE:
.Lfunc_begin179:
	.cv_func_id 195
	.cv_loc	195 29 659 0
.seh_proc _ZN58_$LT$log..MaybeStaticStr$u20$as$u20$core..clone..Clone$GT$5clone17h0dac6a119b594d1fE
	pushq	%rax
	.seh_stackalloc 8
	.seh_endprologue
	movq	%rcx, %rax
	movq	%rdx, (%rsp)
.Ltmp591:
	movq	(%rdx), %r8
	movq	%r8, (%rcx)
	movq	8(%rdx), %r8
	movq	%r8, 8(%rcx)
	movq	16(%rdx), %rdx
	movq	%rdx, 16(%rcx)
	popq	%rcx
	retq
.Ltmp592:
.Lfunc_end179:
	.seh_endproc

	.def	_ZN56_$LT$log..MaybeStaticStr$u20$as$u20$core..fmt..Debug$GT$3fmt17he01fb711f02a0cadE;
	.scl	2;
	.type	32;
	.endef
	.section	.text,"xr",one_only,_ZN56_$LT$log..MaybeStaticStr$u20$as$u20$core..fmt..Debug$GT$3fmt17he01fb711f02a0cadE
	.globl	_ZN56_$LT$log..MaybeStaticStr$u20$as$u20$core..fmt..Debug$GT$3fmt17he01fb711f02a0cadE
	.p2align	4, 0x90
_ZN56_$LT$log..MaybeStaticStr$u20$as$u20$core..fmt..Debug$GT$3fmt17he01fb711f02a0cadE:
.Lfunc_begin180:
	.cv_func_id 196
	.cv_loc	196 29 659 0
.seh_proc _ZN56_$LT$log..MaybeStaticStr$u20$as$u20$core..fmt..Debug$GT$3fmt17he01fb711f02a0cadE
	subq	$184, %rsp
	.seh_stackalloc 184
	.seh_endprologue
	movq	%rdx, 48(%rsp)
	movq	%rcx, 136(%rsp)
	movq	%rdx, 144(%rsp)
.Ltmp593:
	movq	%rcx, 64(%rsp)
	movq	64(%rsp), %rax
	movq	(%rax), %rax
	testq	%rax, %rax
	je	.LBB180_2
	jmp	.LBB180_9
.LBB180_9:
	jmp	.LBB180_3
	ud2
.LBB180_2:
	.cv_loc	196 29 661 0
	movq	48(%rsp), %rdx
	movq	64(%rsp), %rax
	addq	$8, %rax
	movq	%rax, 40(%rsp)
	movq	%rax, 168(%rsp)
.Ltmp594:
	.cv_loc	196 29 659 0
	leaq	72(%rsp), %rcx
	leaq	__unnamed_42(%rip), %r8
	movl	$6, %r9d
	callq	_ZN4core3fmt9Formatter11debug_tuple17h6ec63168738fcc28E
	jmp	.LBB180_7
.Ltmp595:
.LBB180_3:
	.cv_loc	196 29 662 0
	movq	48(%rsp), %rdx
	movq	64(%rsp), %rax
	addq	$8, %rax
	movq	%rax, 32(%rsp)
	movq	%rax, 152(%rsp)
.Ltmp596:
	.cv_loc	196 29 659 0
	leaq	104(%rsp), %rcx
	leaq	__unnamed_43(%rip), %r8
	movl	$8, %r9d
	callq	_ZN4core3fmt9Formatter11debug_tuple17h6ec63168738fcc28E
	movq	32(%rsp), %rax
	leaq	104(%rsp), %rcx
	movq	%rcx, 160(%rsp)
.Ltmp597:
	.cv_loc	196 29 662 0
	movq	%rax, 128(%rsp)
	leaq	128(%rsp), %rdx
	.cv_loc	196 29 659 0
	leaq	104(%rsp), %rcx
	leaq	__unnamed_44(%rip), %r8
	callq	_ZN4core3fmt8builders10DebugTuple5field17h52ed0743e758086cE
	leaq	104(%rsp), %rcx
	callq	_ZN4core3fmt8builders10DebugTuple6finish17hc714b17e1c70a69cE
	andb	$1, %al
	movb	%al, 63(%rsp)
.Ltmp598:
.LBB180_6:
	.cv_loc	196 29 659 0
	movb	63(%rsp), %al
	andb	$1, %al
	movzbl	%al, %eax
	addq	$184, %rsp
	retq
.LBB180_7:
	.cv_loc	196 29 659 0
	movq	40(%rsp), %rax
.Ltmp599:
	leaq	72(%rsp), %rcx
	movq	%rcx, 176(%rsp)
.Ltmp600:
	.cv_loc	196 29 661 0
	movq	%rax, 96(%rsp)
	leaq	96(%rsp), %rdx
	.cv_loc	196 29 659 0
	leaq	72(%rsp), %rcx
	leaq	__unnamed_44(%rip), %r8
	callq	_ZN4core3fmt8builders10DebugTuple5field17h52ed0743e758086cE
	leaq	72(%rsp), %rcx
	callq	_ZN4core3fmt8builders10DebugTuple6finish17hc714b17e1c70a69cE
	andb	$1, %al
	movb	%al, 63(%rsp)
	jmp	.LBB180_6
.Ltmp601:
.Lfunc_end180:
	.seh_endproc

	.def	_ZN50_$LT$log..Record$u20$as$u20$core..clone..Clone$GT$5clone17h096aabcf377ba1f4E;
	.scl	3;
	.type	32;
	.endef
	.section	.text,"xr",one_only,_ZN50_$LT$log..Record$u20$as$u20$core..clone..Clone$GT$5clone17h096aabcf377ba1f4E
	.p2align	4, 0x90
_ZN50_$LT$log..Record$u20$as$u20$core..clone..Clone$GT$5clone17h096aabcf377ba1f4E:
.Lfunc_begin181:
	.cv_func_id 197
	.cv_loc	197 29 720 0
.seh_proc _ZN50_$LT$log..Record$u20$as$u20$core..clone..Clone$GT$5clone17h096aabcf377ba1f4E
	subq	$264, %rsp
	.seh_stackalloc 264
	.seh_endprologue
	movq	%rdx, %rax
	movq	%rcx, 48(%rsp)
	movq	%rcx, 56(%rsp)
	movq	%rax, 216(%rsp)
.Ltmp602:
	.cv_loc	197 29 722 0
	movq	%rax, %rdx
	movq	%rdx, 224(%rsp)
	.cv_loc	197 29 723 0
	movq	%rax, %rcx
	addq	$24, %rcx
	movq	%rcx, 64(%rsp)
	movq	%rcx, 232(%rsp)
	.cv_loc	197 29 724 0
	movq	%rax, %rcx
	addq	$72, %rcx
	movq	%rcx, 72(%rsp)
	movq	%rcx, 240(%rsp)
	.cv_loc	197 29 725 0
	movq	%rax, %rcx
	addq	$96, %rcx
	movq	%rcx, 80(%rsp)
	movq	%rcx, 248(%rsp)
	.cv_loc	197 29 726 0
	addq	$120, %rax
	movq	%rax, 88(%rsp)
	movq	%rax, 256(%rsp)
.Ltmp603:
	.cv_loc	197 29 722 0
	leaq	96(%rsp), %rcx
	callq	_ZN52_$LT$log..Metadata$u20$as$u20$core..clone..Clone$GT$5clone17h2e2bdbd68cb01132E
	.cv_loc	197 29 723 0
	movq	64(%rsp), %rdx
	leaq	120(%rsp), %rcx
	callq	_ZN59_$LT$core..fmt..Arguments$u20$as$u20$core..clone..Clone$GT$5clone17he9103c8c47cc7639E
	.cv_loc	197 29 724 0
	movq	72(%rsp), %rdx
	leaq	168(%rsp), %rcx
	callq	_ZN68_$LT$core..option..Option$LT$T$GT$$u20$as$u20$core..clone..Clone$GT$5clone17h63738b0c68b6739cE
	.cv_loc	197 29 725 0
	movq	80(%rsp), %rdx
	leaq	192(%rsp), %rcx
	callq	_ZN68_$LT$core..option..Option$LT$T$GT$$u20$as$u20$core..clone..Clone$GT$5clone17h63738b0c68b6739cE
	.cv_loc	197 29 726 0
	movq	88(%rsp), %rcx
	callq	_ZN68_$LT$core..option..Option$LT$T$GT$$u20$as$u20$core..clone..Clone$GT$5clone17h861940da3cbca5b7E
	movl	%eax, 40(%rsp)
	movl	%edx, 44(%rsp)
	.cv_loc	197 29 720 0
	movq	48(%rsp), %rcx
	movq	96(%rsp), %rax
	movq	%rax, (%rcx)
	movq	104(%rsp), %rax
	movq	%rax, 8(%rcx)
	movq	112(%rsp), %rax
	movq	%rax, 16(%rcx)
	addq	$24, %rcx
	leaq	120(%rsp), %rdx
	movl	$48, %r8d
	callq	memcpy
	movl	40(%rsp), %r8d
	movl	44(%rsp), %edx
	movq	48(%rsp), %rcx
	movq	56(%rsp), %rax
	movq	168(%rsp), %r9
	movq	%r9, 72(%rcx)
	movq	176(%rsp), %r9
	movq	%r9, 80(%rcx)
	movq	184(%rsp), %r9
	movq	%r9, 88(%rcx)
	movq	192(%rsp), %r9
	movq	%r9, 96(%rcx)
	movq	200(%rsp), %r9
	movq	%r9, 104(%rcx)
	movq	208(%rsp), %r9
	movq	%r9, 112(%rcx)
	movl	%r8d, 120(%rcx)
	movl	%edx, 124(%rcx)
.Ltmp604:
	.cv_loc	197 29 720 0
	addq	$264, %rsp
	retq
.Ltmp605:
.Lfunc_end181:
	.seh_endproc

	.def	_ZN48_$LT$log..Record$u20$as$u20$core..fmt..Debug$GT$3fmt17h106448032abf377aE;
	.scl	2;
	.type	32;
	.endef
	.section	.text,"xr",one_only,_ZN48_$LT$log..Record$u20$as$u20$core..fmt..Debug$GT$3fmt17h106448032abf377aE
	.globl	_ZN48_$LT$log..Record$u20$as$u20$core..fmt..Debug$GT$3fmt17h106448032abf377aE
	.p2align	4, 0x90
_ZN48_$LT$log..Record$u20$as$u20$core..fmt..Debug$GT$3fmt17h106448032abf377aE:
.Lfunc_begin182:
	.cv_func_id 198
	.cv_loc	198 29 720 0
.seh_proc _ZN48_$LT$log..Record$u20$as$u20$core..fmt..Debug$GT$3fmt17h106448032abf377aE
	subq	$216, %rsp
	.seh_stackalloc 216
	.seh_endprologue
	movq	%rcx, 152(%rsp)
	movq	%rdx, 160(%rsp)
.Ltmp606:
	.cv_loc	198 29 722 0
	movq	%rcx, %rax
	movq	%rax, 56(%rsp)
	movq	%rax, 168(%rsp)
	.cv_loc	198 29 723 0
	movq	%rcx, %rax
	addq	$24, %rax
	movq	%rax, 64(%rsp)
	movq	%rax, 176(%rsp)
	.cv_loc	198 29 724 0
	movq	%rcx, %rax
	addq	$72, %rax
	movq	%rax, 72(%rsp)
	movq	%rax, 184(%rsp)
	.cv_loc	198 29 725 0
	movq	%rcx, %rax
	addq	$96, %rax
	movq	%rax, 80(%rsp)
	movq	%rax, 192(%rsp)
	.cv_loc	198 29 726 0
	addq	$120, %rcx
	movq	%rcx, 88(%rsp)
	movq	%rcx, 200(%rsp)
.Ltmp607:
	.cv_loc	198 29 720 0
	leaq	96(%rsp), %rcx
	leaq	__unnamed_45(%rip), %r8
	movl	$6, %r9d
	callq	_ZN4core3fmt9Formatter12debug_struct17hcaefbe6eac4cea18E
	movq	56(%rsp), %rax
	leaq	96(%rsp), %rcx
	movq	%rcx, 208(%rsp)
.Ltmp608:
	.cv_loc	198 29 722 0
	movq	%rax, 112(%rsp)
	leaq	112(%rsp), %r9
	.cv_loc	198 29 720 0
	leaq	96(%rsp), %rcx
	leaq	__unnamed_46(%rip), %rdx
	movl	$8, %r8d
	leaq	__unnamed_47(%rip), %rax
	movq	%rax, 32(%rsp)
	callq	_ZN4core3fmt8builders11DebugStruct5field17h8b209e88d81ce861E
	.cv_loc	198 29 723 0
	movq	64(%rsp), %rax
	movq	%rax, 120(%rsp)
	leaq	120(%rsp), %r9
	.cv_loc	198 29 720 0
	leaq	96(%rsp), %rcx
	leaq	__unnamed_48(%rip), %rdx
	movl	$4, %r8d
	leaq	__unnamed_49(%rip), %rax
	movq	%rax, 32(%rsp)
