	.text
	.def	@feat.00;
	.scl	3;
	.type	0;
	.endef
	.globl	@feat.00
.set @feat.00, 0
	.file	"log.9df3ddbb-cgu.0"
	.def	_ZN102_$LT$core..iter..adapters..map..Map$LT$I$C$F$GT$$u20$as$u20$core..iter..traits..iterator..Iterator$GT$4next17hdf0f72d64c52dfceE;
	.scl	2;
	.type	32;
	.endef
	.section	.text,"xr",one_only,_ZN102_$LT$core..iter..adapters..map..Map$LT$I$C$F$GT$$u20$as$u20$core..iter..traits..iterator..Iterator$GT$4next17hdf0f72d64c52dfceE
	.globl	_ZN102_$LT$core..iter..adapters..map..Map$LT$I$C$F$GT$$u20$as$u20$core..iter..traits..iterator..Iterator$GT$4next17hdf0f72d64c52dfceE
	.p2align	4, 0x90
_ZN102_$LT$core..iter..adapters..map..Map$LT$I$C$F$GT$$u20$as$u20$core..iter..traits..iterator..Iterator$GT$4next17hdf0f72d64c52dfceE:
.Lfunc_begin0:
	.cv_func_id 0
	.cv_file	1 "/rustc/90743e7298aca107ddaa0c202a4d3604e29bfeb6\\library\\core\\src\\iter\\adapters\\map.rs" "A92E7094A2008E1F92B3DF48A08FD9FB8959B57C" 2
	.cv_loc	0 1 102 0
.seh_proc _ZN102_$LT$core..iter..adapters..map..Map$LT$I$C$F$GT$$u20$as$u20$core..iter..traits..iterator..Iterator$GT$4next17hdf0f72d64c52dfceE
	subq	$72, %rsp
	.seh_stackalloc 72
	.seh_endprologue
	movq	%rcx, 40(%rsp)
	movq	%rcx, 64(%rsp)
.Ltmp0:
	.cv_loc	0 1 103 0
	callq	_ZN108_$LT$core..iter..adapters..filter..Filter$LT$I$C$P$GT$$u20$as$u20$core..iter..traits..iterator..Iterator$GT$4next17h1fdb37b20560405fE
	movq	%rax, 48(%rsp)
	movq	%rdx, 56(%rsp)
	movq	40(%rsp), %r8
	movq	56(%rsp), %rdx
	movq	48(%rsp), %rcx
	callq	_ZN4core6option15Option$LT$T$GT$3map17hb75b2203c49d4357E
	movq	%rax, 32(%rsp)
	.cv_loc	0 1 104 0
	movq	32(%rsp), %rax
	addq	$72, %rsp
	retq
.Ltmp1:
.Lfunc_end0:
	.seh_endproc

	.def	_ZN102_$LT$core..iter..adapters..zip..Zip$LT$A$C$B$GT$$u20$as$u20$core..iter..traits..iterator..Iterator$GT$4next17hc56ee70140b91535E;
	.scl	2;
	.type	32;
	.endef
	.section	.text,"xr",one_only,_ZN102_$LT$core..iter..adapters..zip..Zip$LT$A$C$B$GT$$u20$as$u20$core..iter..traits..iterator..Iterator$GT$4next17hc56ee70140b91535E
	.globl	_ZN102_$LT$core..iter..adapters..zip..Zip$LT$A$C$B$GT$$u20$as$u20$core..iter..traits..iterator..Iterator$GT$4next17hc56ee70140b91535E
	.p2align	4, 0x90
_ZN102_$LT$core..iter..adapters..zip..Zip$LT$A$C$B$GT$$u20$as$u20$core..iter..traits..iterator..Iterator$GT$4next17hc56ee70140b91535E:
.Lfunc_begin1:
	.cv_func_id 1
	.cv_file	2 "/rustc/90743e7298aca107ddaa0c202a4d3604e29bfeb6\\library\\core\\src\\iter\\adapters\\zip.rs" "68D80DC877F34185A21399C2562F5FE4B65B27C9" 2
	.cv_loc	1 2 83 0
.seh_proc _ZN102_$LT$core..iter..adapters..zip..Zip$LT$A$C$B$GT$$u20$as$u20$core..iter..traits..iterator..Iterator$GT$4next17hc56ee70140b91535E
	subq	$56, %rsp
	.seh_stackalloc 56
	.seh_endprologue
	movq	%rcx, 48(%rsp)
.Ltmp2:
	.cv_loc	1 2 84 0
	callq	_ZN111_$LT$core..iter..adapters..zip..Zip$LT$A$C$B$GT$$u20$as$u20$core..iter..adapters..zip..ZipImpl$LT$A$C$B$GT$$GT$4next17he9c3df9746905f2eE
	movq	%rax, 32(%rsp)
	movq	%rdx, 40(%rsp)
	.cv_loc	1 2 85 0
	movq	40(%rsp), %rdx
	movq	32(%rsp), %rax
	addq	$56, %rsp
	retq
.Ltmp3:
.Lfunc_end1:
	.seh_endproc

	.def	_ZN104_$LT$core..ops..control_flow..ControlFlow$LT$B$C$C$GT$$u20$as$u20$core..ops..try_trait..FromResidual$GT$13from_residual17h6dcb9715b5acdee2E;
	.scl	2;
	.type	32;
	.endef
	.section	.text,"xr",one_only,_ZN104_$LT$core..ops..control_flow..ControlFlow$LT$B$C$C$GT$$u20$as$u20$core..ops..try_trait..FromResidual$GT$13from_residual17h6dcb9715b5acdee2E
	.globl	_ZN104_$LT$core..ops..control_flow..ControlFlow$LT$B$C$C$GT$$u20$as$u20$core..ops..try_trait..FromResidual$GT$13from_residual17h6dcb9715b5acdee2E
	.p2align	4, 0x90
_ZN104_$LT$core..ops..control_flow..ControlFlow$LT$B$C$C$GT$$u20$as$u20$core..ops..try_trait..FromResidual$GT$13from_residual17h6dcb9715b5acdee2E:
.Lfunc_begin2:
	.cv_func_id 2
	.cv_file	3 "/rustc/90743e7298aca107ddaa0c202a4d3604e29bfeb6\\library\\core\\src\\ops\\control_flow.rs" "95E1CC6601FAB4B6B5B52AD30FE7935BE50C84EA" 2
	.cv_loc	2 3 121 0
.seh_proc _ZN104_$LT$core..ops..control_flow..ControlFlow$LT$B$C$C$GT$$u20$as$u20$core..ops..try_trait..FromResidual$GT$13from_residual17h6dcb9715b5acdee2E
	subq	$32, %rsp
	.seh_stackalloc 32
	.seh_endprologue
	movq	%rcx, (%rsp)
.Ltmp4:
	.cv_loc	2 3 123 0
	movq	(%rsp), %rax
	movq	%rax, 24(%rsp)
.Ltmp5:
	.cv_loc	2 3 123 0
	movq	%rax, 16(%rsp)
	movq	$1, 8(%rsp)
.Ltmp6:
	.cv_loc	2 3 125 0
	movq	8(%rsp), %rax
	movq	16(%rsp), %rdx
	addq	$32, %rsp
	retq
.Ltmp7:
.Lfunc_end2:
	.seh_endproc

	.def	_ZN104_$LT$core..ops..control_flow..ControlFlow$LT$B$C$C$GT$$u20$as$u20$core..ops..try_trait..FromResidual$GT$13from_residual17h831146a9390be6a6E;
	.scl	2;
	.type	32;
	.endef
	.section	.text,"xr",one_only,_ZN104_$LT$core..ops..control_flow..ControlFlow$LT$B$C$C$GT$$u20$as$u20$core..ops..try_trait..FromResidual$GT$13from_residual17h831146a9390be6a6E
	.globl	_ZN104_$LT$core..ops..control_flow..ControlFlow$LT$B$C$C$GT$$u20$as$u20$core..ops..try_trait..FromResidual$GT$13from_residual17h831146a9390be6a6E
	.p2align	4, 0x90
_ZN104_$LT$core..ops..control_flow..ControlFlow$LT$B$C$C$GT$$u20$as$u20$core..ops..try_trait..FromResidual$GT$13from_residual17h831146a9390be6a6E:
.Lfunc_begin3:
	.cv_func_id 3
	.cv_loc	3 3 121 0
.seh_proc _ZN104_$LT$core..ops..control_flow..ControlFlow$LT$B$C$C$GT$$u20$as$u20$core..ops..try_trait..FromResidual$GT$13from_residual17h831146a9390be6a6E
	subq	$24, %rsp
	.seh_stackalloc 24
	.seh_endprologue
.Ltmp8:
	.cv_loc	3 3 123 0
	movb	$1, 7(%rsp)
.Ltmp9:
	.cv_loc	3 3 125 0
	movb	7(%rsp), %al
	andb	$1, %al
	movzbl	%al, %eax
	addq	$24, %rsp
	retq
.Ltmp10:
.Lfunc_end3:
	.seh_endproc

	.def	_ZN108_$LT$core..iter..adapters..filter..Filter$LT$I$C$P$GT$$u20$as$u20$core..iter..traits..iterator..Iterator$GT$4next17h1fdb37b20560405fE;
	.scl	2;
	.type	32;
	.endef
	.section	.text,"xr",one_only,_ZN108_$LT$core..iter..adapters..filter..Filter$LT$I$C$P$GT$$u20$as$u20$core..iter..traits..iterator..Iterator$GT$4next17h1fdb37b20560405fE
	.globl	_ZN108_$LT$core..iter..adapters..filter..Filter$LT$I$C$P$GT$$u20$as$u20$core..iter..traits..iterator..Iterator$GT$4next17h1fdb37b20560405fE
	.p2align	4, 0x90
_ZN108_$LT$core..iter..adapters..filter..Filter$LT$I$C$P$GT$$u20$as$u20$core..iter..traits..iterator..Iterator$GT$4next17h1fdb37b20560405fE:
.Lfunc_begin4:
	.cv_func_id 4
	.cv_file	4 "/rustc/90743e7298aca107ddaa0c202a4d3604e29bfeb6\\library\\core\\src\\iter\\adapters\\filter.rs" "86B03BCCC0062DF7D860560F2CF1AF76535BD53F" 2
	.cv_loc	4 4 55 0
.seh_proc _ZN108_$LT$core..iter..adapters..filter..Filter$LT$I$C$P$GT$$u20$as$u20$core..iter..traits..iterator..Iterator$GT$4next17h1fdb37b20560405fE
	subq	$56, %rsp
	.seh_stackalloc 56
	.seh_endprologue
	movq	%rcx, %rdx
	movq	%rdx, 48(%rsp)
.Ltmp11:
	.cv_loc	4 4 56 0
	movq	%rdx, %rcx
	callq	_ZN4core4iter6traits8iterator8Iterator4find17hbe0b4e566e9284baE
	movq	%rax, 32(%rsp)
	movq	%rdx, 40(%rsp)
	.cv_loc	4 4 57 0
	movq	40(%rsp), %rdx
	movq	32(%rsp), %rax
	addq	$56, %rsp
	retq
.Ltmp12:
.Lfunc_end4:
	.seh_endproc

	.def	_ZN111_$LT$core..iter..adapters..zip..Zip$LT$A$C$B$GT$$u20$as$u20$core..iter..adapters..zip..ZipImpl$LT$A$C$B$GT$$GT$3new17h2dd609cfabbe889fE;
	.scl	2;
	.type	32;
	.endef
	.section	.text,"xr",one_only,_ZN111_$LT$core..iter..adapters..zip..Zip$LT$A$C$B$GT$$u20$as$u20$core..iter..adapters..zip..ZipImpl$LT$A$C$B$GT$$GT$3new17h2dd609cfabbe889fE
	.globl	_ZN111_$LT$core..iter..adapters..zip..Zip$LT$A$C$B$GT$$u20$as$u20$core..iter..adapters..zip..ZipImpl$LT$A$C$B$GT$$GT$3new17h2dd609cfabbe889fE
	.p2align	4, 0x90
_ZN111_$LT$core..iter..adapters..zip..Zip$LT$A$C$B$GT$$u20$as$u20$core..iter..adapters..zip..ZipImpl$LT$A$C$B$GT$$GT$3new17h2dd609cfabbe889fE:
.Lfunc_begin5:
	.cv_func_id 5
	.cv_loc	5 2 262 0
.seh_proc _ZN111_$LT$core..iter..adapters..zip..Zip$LT$A$C$B$GT$$u20$as$u20$core..iter..adapters..zip..ZipImpl$LT$A$C$B$GT$$GT$3new17h2dd609cfabbe889fE
	.seh_handler __CxxFrameHandler3, @unwind, @except
	pushq	%rbp
	.seh_pushreg %rbp
	pushq	%rsi
	.seh_pushreg %rsi
	subq	$152, %rsp
	.seh_stackalloc 152
	leaq	128(%rsp), %rbp
	.seh_setframe %rbp, 128
	.seh_endprologue
	movq	$-2, 16(%rbp)
	movq	%rcx, -72(%rbp)
	movq	%rcx, -64(%rbp)
	movq	80(%rbp), %rax
	movq	%rdx, -48(%rbp)
	movq	%r8, -40(%rbp)
	movq	%r9, -32(%rbp)
	movq	%rax, -24(%rbp)
	.cv_loc	5 2 263 0
.Ltmp13:
	leaq	-48(%rbp), %rcx
.Ltmp19:
	callq	_ZN4core4iter8adapters3zip27TrustedRandomAccessNoCoerce4size17ha9621aa0bb33d93eE
.Ltmp14:
	movq	%rax, -56(%rbp)
	jmp	.LBB5_2
.LBB5_2:
	movq	-56(%rbp), %rax
	movq	%rax, -16(%rbp)
.Ltmp20:
	.cv_loc	5 2 264 0
	movq	%rax, -8(%rbp)
.Ltmp15:
	leaq	-32(%rbp), %rcx
	callq	_ZN4core4iter8adapters3zip27TrustedRandomAccessNoCoerce4size17ha9621aa0bb33d93eE
.Ltmp16:
	movq	%rax, -80(%rbp)
	jmp	.LBB5_3
.LBB5_3:
	movq	-80(%rbp), %rdx
	movq	-56(%rbp), %rcx
	movq	%rdx, (%rbp)
	.cv_file	5 "/rustc/90743e7298aca107ddaa0c202a4d3604e29bfeb6\\library\\core\\src\\cmp.rs" "203F09B80BB70254523209A3310BAC5FC58C6DFA" 2
	.cv_inline_site_id 6 within 5 inlined_at 2 264 0
	.cv_loc	6 5 1208 0
.Ltmp17:
.Ltmp21:
	callq	_ZN4core3cmp3Ord3min17ha5960837d653c04eE
.Ltmp18:
	movq	%rax, -88(%rbp)
	jmp	.LBB5_4
.LBB5_4:
	movq	-64(%rbp), %rax
	movq	-72(%rbp), %rcx
	movq	-56(%rbp), %rdx
	movq	-88(%rbp), %r8
	movq	%r8, 8(%rbp)
.Ltmp22:
	.cv_loc	5 2 265 0
	movq	-48(%rbp), %rsi
	movq	-40(%rbp), %r11
	movq	-32(%rbp), %r10
	movq	-24(%rbp), %r9
	movq	%rsi, (%rcx)
	movq	%r11, 8(%rcx)
	movq	%r10, 16(%rcx)
	movq	%r9, 24(%rcx)
	movq	$0, 32(%rcx)
	movq	%r8, 40(%rcx)
	movq	%rdx, 48(%rcx)
.Ltmp23:
	.cv_loc	5 2 266 0
	addq	$152, %rsp
	popq	%rsi
	popq	%rbp
	retq
	.seh_handlerdata
	.long	($cppxdata$_ZN111_$LT$core..iter..adapters..zip..Zip$LT$A$C$B$GT$$u20$as$u20$core..iter..adapters..zip..ZipImpl$LT$A$C$B$GT$$GT$3new17h2dd609cfabbe889fE)@IMGREL
	.section	.text,"xr",one_only,_ZN111_$LT$core..iter..adapters..zip..Zip$LT$A$C$B$GT$$u20$as$u20$core..iter..adapters..zip..ZipImpl$LT$A$C$B$GT$$GT$3new17h2dd609cfabbe889fE
	.seh_endproc
	.def	"?dtor$1@?0?_ZN111_$LT$core..iter..adapters..zip..Zip$LT$A$C$B$GT$$u20$as$u20$core..iter..adapters..zip..ZipImpl$LT$A$C$B$GT$$GT$3new17h2dd609cfabbe889fE@4HA";
	.scl	3;
	.type	32;
	.endef
	.p2align	4, 0x90
"?dtor$1@?0?_ZN111_$LT$core..iter..adapters..zip..Zip$LT$A$C$B$GT$$u20$as$u20$core..iter..adapters..zip..ZipImpl$LT$A$C$B$GT$$GT$3new17h2dd609cfabbe889fE@4HA":
.seh_proc "?dtor$1@?0?_ZN111_$LT$core..iter..adapters..zip..Zip$LT$A$C$B$GT$$u20$as$u20$core..iter..adapters..zip..ZipImpl$LT$A$C$B$GT$$GT$3new17h2dd609cfabbe889fE@4HA"
.LBB5_1:
	movq	%rdx, 16(%rsp)
	pushq	%rbp
	.seh_pushreg %rbp
	pushq	%rsi
	.seh_pushreg %rsi
	subq	$40, %rsp
	.seh_stackalloc 40
	leaq	128(%rdx), %rbp
	.seh_endprologue
	.cv_loc	5 2 262 0
	addq	$40, %rsp
	popq	%rsi
	popq	%rbp
	retq
.Ltmp24:
.Lfunc_end5:
	.seh_handlerdata
	.section	.text,"xr",one_only,_ZN111_$LT$core..iter..adapters..zip..Zip$LT$A$C$B$GT$$u20$as$u20$core..iter..adapters..zip..ZipImpl$LT$A$C$B$GT$$GT$3new17h2dd609cfabbe889fE
	.seh_endproc
	.section	.xdata,"dr",associative,_ZN111_$LT$core..iter..adapters..zip..Zip$LT$A$C$B$GT$$u20$as$u20$core..iter..adapters..zip..ZipImpl$LT$A$C$B$GT$$GT$3new17h2dd609cfabbe889fE
	.p2align	2
$cppxdata$_ZN111_$LT$core..iter..adapters..zip..Zip$LT$A$C$B$GT$$u20$as$u20$core..iter..adapters..zip..ZipImpl$LT$A$C$B$GT$$GT$3new17h2dd609cfabbe889fE:
	.long	429065506
	.long	1
	.long	($stateUnwindMap$_ZN111_$LT$core..iter..adapters..zip..Zip$LT$A$C$B$GT$$u20$as$u20$core..iter..adapters..zip..ZipImpl$LT$A$C$B$GT$$GT$3new17h2dd609cfabbe889fE)@IMGREL
	.long	0
	.long	0
	.long	3
	.long	($ip2state$_ZN111_$LT$core..iter..adapters..zip..Zip$LT$A$C$B$GT$$u20$as$u20$core..iter..adapters..zip..ZipImpl$LT$A$C$B$GT$$GT$3new17h2dd609cfabbe889fE)@IMGREL
	.long	144
	.long	0
	.long	1
$stateUnwindMap$_ZN111_$LT$core..iter..adapters..zip..Zip$LT$A$C$B$GT$$u20$as$u20$core..iter..adapters..zip..ZipImpl$LT$A$C$B$GT$$GT$3new17h2dd609cfabbe889fE:
	.long	-1
	.long	"?dtor$1@?0?_ZN111_$LT$core..iter..adapters..zip..Zip$LT$A$C$B$GT$$u20$as$u20$core..iter..adapters..zip..ZipImpl$LT$A$C$B$GT$$GT$3new17h2dd609cfabbe889fE@4HA"@IMGREL
$ip2state$_ZN111_$LT$core..iter..adapters..zip..Zip$LT$A$C$B$GT$$u20$as$u20$core..iter..adapters..zip..ZipImpl$LT$A$C$B$GT$$GT$3new17h2dd609cfabbe889fE:
	.long	.Lfunc_begin5@IMGREL
	.long	-1
	.long	.Ltmp13@IMGREL+1
	.long	0
	.long	.Ltmp18@IMGREL+1
	.long	-1
	.section	.text,"xr",one_only,_ZN111_$LT$core..iter..adapters..zip..Zip$LT$A$C$B$GT$$u20$as$u20$core..iter..adapters..zip..ZipImpl$LT$A$C$B$GT$$GT$3new17h2dd609cfabbe889fE

	.def	_ZN111_$LT$core..iter..adapters..zip..Zip$LT$A$C$B$GT$$u20$as$u20$core..iter..adapters..zip..ZipImpl$LT$A$C$B$GT$$GT$4next17he9c3df9746905f2eE;
	.scl	2;
	.type	32;
	.endef
	.section	.text,"xr",one_only,_ZN111_$LT$core..iter..adapters..zip..Zip$LT$A$C$B$GT$$u20$as$u20$core..iter..adapters..zip..ZipImpl$LT$A$C$B$GT$$GT$4next17he9c3df9746905f2eE
	.globl	_ZN111_$LT$core..iter..adapters..zip..Zip$LT$A$C$B$GT$$u20$as$u20$core..iter..adapters..zip..ZipImpl$LT$A$C$B$GT$$GT$4next17he9c3df9746905f2eE
	.p2align	4, 0x90
_ZN111_$LT$core..iter..adapters..zip..Zip$LT$A$C$B$GT$$u20$as$u20$core..iter..adapters..zip..ZipImpl$LT$A$C$B$GT$$GT$4next17he9c3df9746905f2eE:
.Lfunc_begin6:
	.cv_func_id 7
	.cv_loc	7 2 269 0
.seh_proc _ZN111_$LT$core..iter..adapters..zip..Zip$LT$A$C$B$GT$$u20$as$u20$core..iter..adapters..zip..ZipImpl$LT$A$C$B$GT$$GT$4next17he9c3df9746905f2eE
	.seh_handler __CxxFrameHandler3, @unwind, @except
	pushq	%rbp
	.seh_pushreg %rbp
	subq	$144, %rsp
	.seh_stackalloc 144
	leaq	128(%rsp), %rbp
	.seh_setframe %rbp, 128
	.seh_endprologue
	movq	$-2, 8(%rbp)
	movq	%rcx, -64(%rbp)
	movq	%rcx, -16(%rbp)
.Ltmp27:
	.cv_loc	7 2 270 0
	movq	32(%rcx), %rax
	cmpq	40(%rcx), %rax
	jb	.LBB6_2
	.cv_loc	7 2 279 0
	movb	$0, -17(%rbp)
	testb	$1, -17(%rbp)
	jne	.LBB6_7
	jmp	.LBB6_6
.LBB6_2:
	.cv_loc	7 2 271 0
	movq	-64(%rbp), %rcx
	movq	32(%rcx), %rdx
	movq	%rdx, -88(%rbp)
	movq	%rdx, -8(%rbp)
.Ltmp28:
	.cv_loc	7 2 274 0
	movq	32(%rcx), %rax
	incq	%rax
	movq	%rax, 32(%rcx)
	.cv_loc	7 2 277 0
	callq	_ZN91_$LT$core..slice..iter..Iter$LT$T$GT$$u20$as$u20$core..iter..traits..iterator..Iterator$GT$24__iterator_get_unchecked17h67ae0b3f4cbaa02cE
	movq	-64(%rbp), %rcx
	movq	-88(%rbp), %rdx
	movq	%rax, -80(%rbp)
	addq	$16, %rcx
.Ltmp25:
	callq	_ZN91_$LT$core..slice..iter..Iter$LT$T$GT$$u20$as$u20$core..iter..traits..iterator..Iterator$GT$24__iterator_get_unchecked17h67ae0b3f4cbaa02cE
.Ltmp26:
	movq	%rax, -72(%rbp)
	jmp	.LBB6_4
.LBB6_4:
	movq	-72(%rbp), %rax
	movq	-80(%rbp), %rcx
	movq	%rcx, -40(%rbp)
	movq	%rax, -32(%rbp)
	movq	-40(%rbp), %rcx
	movq	-32(%rbp), %rax
	movq	%rcx, -56(%rbp)
	movq	%rax, -48(%rbp)
.Ltmp29:
.LBB6_5:
	.cv_loc	7 2 293 0
	movq	-56(%rbp), %rax
	movq	-48(%rbp), %rdx
	addq	$144, %rsp
	popq	%rbp
	retq
.LBB6_6:
	.cv_loc	7 2 291 0
	movq	$0, -56(%rbp)
	.cv_loc	7 2 279 0
	jmp	.LBB6_8
.LBB6_7:
	.cv_loc	7 2 280 0
	movq	-64(%rbp), %rcx
	movq	32(%rcx), %rdx
	movq	%rdx, (%rbp)
.Ltmp30:
	.cv_loc	7 2 282 0
	movq	32(%rcx), %rax
	addq	$1, %rax
	movq	%rax, 32(%rcx)
	.cv_loc	7 2 283 0
	movq	40(%rcx), %rax
	addq	$1, %rax
	movq	%rax, 40(%rcx)
	.cv_loc	7 2 287 0
	callq	_ZN91_$LT$core..slice..iter..Iter$LT$T$GT$$u20$as$u20$core..iter..traits..iterator..Iterator$GT$24__iterator_get_unchecked17h67ae0b3f4cbaa02cE
	.cv_loc	7 2 289 0
	movq	$0, -56(%rbp)
.Ltmp31:
.LBB6_8:
	.cv_loc	7 2 270 0
	jmp	.LBB6_5
	.seh_handlerdata
	.long	($cppxdata$_ZN111_$LT$core..iter..adapters..zip..Zip$LT$A$C$B$GT$$u20$as$u20$core..iter..adapters..zip..ZipImpl$LT$A$C$B$GT$$GT$4next17he9c3df9746905f2eE)@IMGREL
	.section	.text,"xr",one_only,_ZN111_$LT$core..iter..adapters..zip..Zip$LT$A$C$B$GT$$u20$as$u20$core..iter..adapters..zip..ZipImpl$LT$A$C$B$GT$$GT$4next17he9c3df9746905f2eE
	.seh_endproc
	.def	"?dtor$3@?0?_ZN111_$LT$core..iter..adapters..zip..Zip$LT$A$C$B$GT$$u20$as$u20$core..iter..adapters..zip..ZipImpl$LT$A$C$B$GT$$GT$4next17he9c3df9746905f2eE@4HA";
	.scl	3;
	.type	32;
	.endef
	.p2align	4, 0x90
"?dtor$3@?0?_ZN111_$LT$core..iter..adapters..zip..Zip$LT$A$C$B$GT$$u20$as$u20$core..iter..adapters..zip..ZipImpl$LT$A$C$B$GT$$GT$4next17he9c3df9746905f2eE@4HA":
.seh_proc "?dtor$3@?0?_ZN111_$LT$core..iter..adapters..zip..Zip$LT$A$C$B$GT$$u20$as$u20$core..iter..adapters..zip..ZipImpl$LT$A$C$B$GT$$GT$4next17he9c3df9746905f2eE@4HA"
.LBB6_3:
	movq	%rdx, 16(%rsp)
	pushq	%rbp
	.seh_pushreg %rbp
	subq	$32, %rsp
	.seh_stackalloc 32
	leaq	128(%rdx), %rbp
	.seh_endprologue
	.cv_loc	7 2 269 0
	addq	$32, %rsp
	popq	%rbp
	retq
.Ltmp32:
.Lfunc_end6:
	.seh_handlerdata
	.section	.text,"xr",one_only,_ZN111_$LT$core..iter..adapters..zip..Zip$LT$A$C$B$GT$$u20$as$u20$core..iter..adapters..zip..ZipImpl$LT$A$C$B$GT$$GT$4next17he9c3df9746905f2eE
	.seh_endproc
	.section	.xdata,"dr",associative,_ZN111_$LT$core..iter..adapters..zip..Zip$LT$A$C$B$GT$$u20$as$u20$core..iter..adapters..zip..ZipImpl$LT$A$C$B$GT$$GT$4next17he9c3df9746905f2eE
	.p2align	2
$cppxdata$_ZN111_$LT$core..iter..adapters..zip..Zip$LT$A$C$B$GT$$u20$as$u20$core..iter..adapters..zip..ZipImpl$LT$A$C$B$GT$$GT$4next17he9c3df9746905f2eE:
	.long	429065506
	.long	1
	.long	($stateUnwindMap$_ZN111_$LT$core..iter..adapters..zip..Zip$LT$A$C$B$GT$$u20$as$u20$core..iter..adapters..zip..ZipImpl$LT$A$C$B$GT$$GT$4next17he9c3df9746905f2eE)@IMGREL
	.long	0
	.long	0
	.long	3
	.long	($ip2state$_ZN111_$LT$core..iter..adapters..zip..Zip$LT$A$C$B$GT$$u20$as$u20$core..iter..adapters..zip..ZipImpl$LT$A$C$B$GT$$GT$4next17he9c3df9746905f2eE)@IMGREL
	.long	136
	.long	0
	.long	1
$stateUnwindMap$_ZN111_$LT$core..iter..adapters..zip..Zip$LT$A$C$B$GT$$u20$as$u20$core..iter..adapters..zip..ZipImpl$LT$A$C$B$GT$$GT$4next17he9c3df9746905f2eE:
	.long	-1
	.long	"?dtor$3@?0?_ZN111_$LT$core..iter..adapters..zip..Zip$LT$A$C$B$GT$$u20$as$u20$core..iter..adapters..zip..ZipImpl$LT$A$C$B$GT$$GT$4next17he9c3df9746905f2eE@4HA"@IMGREL
$ip2state$_ZN111_$LT$core..iter..adapters..zip..Zip$LT$A$C$B$GT$$u20$as$u20$core..iter..adapters..zip..ZipImpl$LT$A$C$B$GT$$GT$4next17he9c3df9746905f2eE:
	.long	.Lfunc_begin6@IMGREL
	.long	-1
	.long	.Ltmp25@IMGREL+1
	.long	0
	.long	.Ltmp26@IMGREL+1
	.long	-1
	.section	.text,"xr",one_only,_ZN111_$LT$core..iter..adapters..zip..Zip$LT$A$C$B$GT$$u20$as$u20$core..iter..adapters..zip..ZipImpl$LT$A$C$B$GT$$GT$4next17he9c3df9746905f2eE

	.def	_ZN42_$LT$$RF$T$u20$as$u20$core..fmt..Debug$GT$3fmt17h02a96644e285f39aE;
	.scl	2;
	.type	32;
	.endef
	.section	.text,"xr",one_only,_ZN42_$LT$$RF$T$u20$as$u20$core..fmt..Debug$GT$3fmt17h02a96644e285f39aE
	.globl	_ZN42_$LT$$RF$T$u20$as$u20$core..fmt..Debug$GT$3fmt17h02a96644e285f39aE
	.p2align	4, 0x90
_ZN42_$LT$$RF$T$u20$as$u20$core..fmt..Debug$GT$3fmt17h02a96644e285f39aE:
.Lfunc_begin7:
	.cv_func_id 8
	.cv_file	6 "/rustc/90743e7298aca107ddaa0c202a4d3604e29bfeb6\\library\\core\\src\\fmt\\mod.rs" "04BE1DED0EE4855FB268BF0A3873BD2DC8E6B351" 2
	.cv_loc	8 6 2373 0
.seh_proc _ZN42_$LT$$RF$T$u20$as$u20$core..fmt..Debug$GT$3fmt17h02a96644e285f39aE
	subq	$56, %rsp
	.seh_stackalloc 56
	.seh_endprologue
	movq	%rcx, 40(%rsp)
	movq	%rdx, 48(%rsp)
.Ltmp33:
	movq	(%rcx), %rcx
	callq	_ZN48_$LT$log..Record$u20$as$u20$core..fmt..Debug$GT$3fmt17hdac5374db9869abbE
	movb	%al, 39(%rsp)
	movb	39(%rsp), %al
	andb	$1, %al
	movzbl	%al, %eax
	addq	$56, %rsp
	retq
.Ltmp34:
.Lfunc_end7:
	.seh_endproc

	.def	_ZN42_$LT$$RF$T$u20$as$u20$core..fmt..Debug$GT$3fmt17h1a2806eca4b1f250E;
	.scl	2;
	.type	32;
	.endef
	.section	.text,"xr",one_only,_ZN42_$LT$$RF$T$u20$as$u20$core..fmt..Debug$GT$3fmt17h1a2806eca4b1f250E
	.globl	_ZN42_$LT$$RF$T$u20$as$u20$core..fmt..Debug$GT$3fmt17h1a2806eca4b1f250E
	.p2align	4, 0x90
_ZN42_$LT$$RF$T$u20$as$u20$core..fmt..Debug$GT$3fmt17h1a2806eca4b1f250E:
.Lfunc_begin8:
	.cv_func_id 9
	.cv_loc	9 6 2373 0
.seh_proc _ZN42_$LT$$RF$T$u20$as$u20$core..fmt..Debug$GT$3fmt17h1a2806eca4b1f250E
	subq	$56, %rsp
	.seh_stackalloc 56
	.seh_endprologue
	movq	%rcx, 40(%rsp)
	movq	%rdx, 48(%rsp)
.Ltmp35:
	movq	(%rcx), %rcx
	callq	_ZN42_$LT$$RF$T$u20$as$u20$core..fmt..Debug$GT$3fmt17ha0ccb8db5fd13ec0E
	movb	%al, 39(%rsp)
	movb	39(%rsp), %al
	andb	$1, %al
	movzbl	%al, %eax
	addq	$56, %rsp
	retq
.Ltmp36:
.Lfunc_end8:
	.seh_endproc

	.def	_ZN42_$LT$$RF$T$u20$as$u20$core..fmt..Debug$GT$3fmt17h1f98fc2e2c2a0b9cE;
	.scl	2;
	.type	32;
	.endef
	.section	.text,"xr",one_only,_ZN42_$LT$$RF$T$u20$as$u20$core..fmt..Debug$GT$3fmt17h1f98fc2e2c2a0b9cE
	.globl	_ZN42_$LT$$RF$T$u20$as$u20$core..fmt..Debug$GT$3fmt17h1f98fc2e2c2a0b9cE
	.p2align	4, 0x90
_ZN42_$LT$$RF$T$u20$as$u20$core..fmt..Debug$GT$3fmt17h1f98fc2e2c2a0b9cE:
.Lfunc_begin9:
	.cv_func_id 10
	.cv_loc	10 6 2373 0
.seh_proc _ZN42_$LT$$RF$T$u20$as$u20$core..fmt..Debug$GT$3fmt17h1f98fc2e2c2a0b9cE
	subq	$56, %rsp
	.seh_stackalloc 56
	.seh_endprologue
	movq	%rcx, 40(%rsp)
	movq	%rdx, 48(%rsp)
.Ltmp37:
	movq	(%rcx), %rcx
	callq	_ZN50_$LT$log..Metadata$u20$as$u20$core..fmt..Debug$GT$3fmt17hf4207826b98c1430E
	movb	%al, 39(%rsp)
	movb	39(%rsp), %al
	andb	$1, %al
	movzbl	%al, %eax
	addq	$56, %rsp
	retq
.Ltmp38:
.Lfunc_end9:
	.seh_endproc

	.def	_ZN42_$LT$$RF$T$u20$as$u20$core..fmt..Debug$GT$3fmt17h607f647216e16d37E;
	.scl	2;
	.type	32;
	.endef
	.section	.text,"xr",one_only,_ZN42_$LT$$RF$T$u20$as$u20$core..fmt..Debug$GT$3fmt17h607f647216e16d37E
	.globl	_ZN42_$LT$$RF$T$u20$as$u20$core..fmt..Debug$GT$3fmt17h607f647216e16d37E
	.p2align	4, 0x90
_ZN42_$LT$$RF$T$u20$as$u20$core..fmt..Debug$GT$3fmt17h607f647216e16d37E:
.Lfunc_begin10:
	.cv_func_id 11
	.cv_loc	11 6 2373 0
.seh_proc _ZN42_$LT$$RF$T$u20$as$u20$core..fmt..Debug$GT$3fmt17h607f647216e16d37E
	subq	$56, %rsp
	.seh_stackalloc 56
	.seh_endprologue
	movq	%rcx, 40(%rsp)
	movq	%rdx, 48(%rsp)
.Ltmp39:
	movq	(%rcx), %rcx
	callq	_ZN4core3fmt3num50_$LT$impl$u20$core..fmt..Debug$u20$for$u20$u32$GT$3fmt17ha95ec5d34cfda94cE
	movb	%al, 39(%rsp)
	movb	39(%rsp), %al
	andb	$1, %al
	movzbl	%al, %eax
	addq	$56, %rsp
	retq
.Ltmp40:
.Lfunc_end10:
	.seh_endproc

	.def	_ZN42_$LT$$RF$T$u20$as$u20$core..fmt..Debug$GT$3fmt17h683b72aad3b87d09E;
	.scl	2;
	.type	32;
	.endef
	.section	.text,"xr",one_only,_ZN42_$LT$$RF$T$u20$as$u20$core..fmt..Debug$GT$3fmt17h683b72aad3b87d09E
	.globl	_ZN42_$LT$$RF$T$u20$as$u20$core..fmt..Debug$GT$3fmt17h683b72aad3b87d09E
	.p2align	4, 0x90
_ZN42_$LT$$RF$T$u20$as$u20$core..fmt..Debug$GT$3fmt17h683b72aad3b87d09E:
.Lfunc_begin11:
	.cv_func_id 12
	.cv_loc	12 6 2373 0
.seh_proc _ZN42_$LT$$RF$T$u20$as$u20$core..fmt..Debug$GT$3fmt17h683b72aad3b87d09E
	subq	$56, %rsp
	.seh_stackalloc 56
	.seh_endprologue
	movq	%rcx, 40(%rsp)
	movq	%rdx, 48(%rsp)
.Ltmp41:
	movq	(%rcx), %rcx
	callq	_ZN47_$LT$log..Level$u20$as$u20$core..fmt..Debug$GT$3fmt17h718f937b0e2b312eE
	movb	%al, 39(%rsp)
	movb	39(%rsp), %al
	andb	$1, %al
	movzbl	%al, %eax
	addq	$56, %rsp
	retq
.Ltmp42:
.Lfunc_end11:
	.seh_endproc

	.def	_ZN42_$LT$$RF$T$u20$as$u20$core..fmt..Debug$GT$3fmt17h6f5c92a258472e2bE;
	.scl	2;
	.type	32;
	.endef
	.section	.text,"xr",one_only,_ZN42_$LT$$RF$T$u20$as$u20$core..fmt..Debug$GT$3fmt17h6f5c92a258472e2bE
	.globl	_ZN42_$LT$$RF$T$u20$as$u20$core..fmt..Debug$GT$3fmt17h6f5c92a258472e2bE
	.p2align	4, 0x90
_ZN42_$LT$$RF$T$u20$as$u20$core..fmt..Debug$GT$3fmt17h6f5c92a258472e2bE:
.Lfunc_begin12:
	.cv_func_id 13
	.cv_loc	13 6 2373 0
.seh_proc _ZN42_$LT$$RF$T$u20$as$u20$core..fmt..Debug$GT$3fmt17h6f5c92a258472e2bE
	subq	$56, %rsp
	.seh_stackalloc 56
	.seh_endprologue
	movq	%rcx, 40(%rsp)
	movq	%rdx, 48(%rsp)
.Ltmp43:
	movq	(%rcx), %rcx
	callq	_ZN57_$LT$core..fmt..Arguments$u20$as$u20$core..fmt..Debug$GT$3fmt17h3fdf04d6575a554bE
	movb	%al, 39(%rsp)
	movb	39(%rsp), %al
	andb	$1, %al
	movzbl	%al, %eax
	addq	$56, %rsp
	retq
.Ltmp44:
.Lfunc_end12:
	.seh_endproc

	.def	_ZN42_$LT$$RF$T$u20$as$u20$core..fmt..Debug$GT$3fmt17h71be867ac7394744E;
	.scl	2;
	.type	32;
	.endef
	.section	.text,"xr",one_only,_ZN42_$LT$$RF$T$u20$as$u20$core..fmt..Debug$GT$3fmt17h71be867ac7394744E
	.globl	_ZN42_$LT$$RF$T$u20$as$u20$core..fmt..Debug$GT$3fmt17h71be867ac7394744E
	.p2align	4, 0x90
_ZN42_$LT$$RF$T$u20$as$u20$core..fmt..Debug$GT$3fmt17h71be867ac7394744E:
.Lfunc_begin13:
	.cv_func_id 14
	.cv_loc	14 6 2373 0
.seh_proc _ZN42_$LT$$RF$T$u20$as$u20$core..fmt..Debug$GT$3fmt17h71be867ac7394744E
	subq	$56, %rsp
	.seh_stackalloc 56
	.seh_endprologue
	movq	%rcx, 40(%rsp)
	movq	%rdx, 48(%rsp)
.Ltmp45:
	movq	(%rcx), %rcx
	callq	_ZN56_$LT$log..MaybeStaticStr$u20$as$u20$core..fmt..Debug$GT$3fmt17h6d8b253e33782ae3E
	movb	%al, 39(%rsp)
	movb	39(%rsp), %al
	andb	$1, %al
	movzbl	%al, %eax
	addq	$56, %rsp
	retq
.Ltmp46:
.Lfunc_end13:
	.seh_endproc

	.def	_ZN42_$LT$$RF$T$u20$as$u20$core..fmt..Debug$GT$3fmt17ha0ccb8db5fd13ec0E;
	.scl	2;
	.type	32;
	.endef
	.section	.text,"xr",one_only,_ZN42_$LT$$RF$T$u20$as$u20$core..fmt..Debug$GT$3fmt17ha0ccb8db5fd13ec0E
	.globl	_ZN42_$LT$$RF$T$u20$as$u20$core..fmt..Debug$GT$3fmt17ha0ccb8db5fd13ec0E
	.p2align	4, 0x90
_ZN42_$LT$$RF$T$u20$as$u20$core..fmt..Debug$GT$3fmt17ha0ccb8db5fd13ec0E:
.Lfunc_begin14:
	.cv_func_id 15
	.cv_loc	15 6 2373 0
.seh_proc _ZN42_$LT$$RF$T$u20$as$u20$core..fmt..Debug$GT$3fmt17ha0ccb8db5fd13ec0E
	subq	$56, %rsp
	.seh_stackalloc 56
	.seh_endprologue
	movq	%rdx, %r8
	movq	%rcx, %rax
	movq	%rax, 40(%rsp)
	movq	%r8, 48(%rsp)
.Ltmp47:
	movq	(%rax), %rcx
	movq	8(%rax), %rdx
	callq	_ZN40_$LT$str$u20$as$u20$core..fmt..Debug$GT$3fmt17had3928e522d355fcE
	movb	%al, 39(%rsp)
	movb	39(%rsp), %al
	andb	$1, %al
	movzbl	%al, %eax
	addq	$56, %rsp
	retq
.Ltmp48:
.Lfunc_end14:
	.seh_endproc

	.def	_ZN42_$LT$$RF$T$u20$as$u20$core..fmt..Debug$GT$3fmt17ha54ccba6c8af4272E;
	.scl	2;
	.type	32;
	.endef
	.section	.text,"xr",one_only,_ZN42_$LT$$RF$T$u20$as$u20$core..fmt..Debug$GT$3fmt17ha54ccba6c8af4272E
	.globl	_ZN42_$LT$$RF$T$u20$as$u20$core..fmt..Debug$GT$3fmt17ha54ccba6c8af4272E
	.p2align	4, 0x90
_ZN42_$LT$$RF$T$u20$as$u20$core..fmt..Debug$GT$3fmt17ha54ccba6c8af4272E:
.Lfunc_begin15:
	.cv_func_id 16
	.cv_loc	16 6 2373 0
.seh_proc _ZN42_$LT$$RF$T$u20$as$u20$core..fmt..Debug$GT$3fmt17ha54ccba6c8af4272E
	subq	$56, %rsp
	.seh_stackalloc 56
	.seh_endprologue
	movq	%rcx, 40(%rsp)
	movq	%rdx, 48(%rsp)
.Ltmp49:
	movq	(%rcx), %rcx
	callq	_ZN66_$LT$core..option..Option$LT$T$GT$$u20$as$u20$core..fmt..Debug$GT$3fmt17h804614188db23df2E
	movb	%al, 39(%rsp)
	movb	39(%rsp), %al
	andb	$1, %al
	movzbl	%al, %eax
	addq	$56, %rsp
	retq
.Ltmp50:
.Lfunc_end15:
	.seh_endproc

	.def	_ZN42_$LT$$RF$T$u20$as$u20$core..fmt..Debug$GT$3fmt17hd3f7b12edcbc2da0E;
	.scl	2;
	.type	32;
	.endef
	.section	.text,"xr",one_only,_ZN42_$LT$$RF$T$u20$as$u20$core..fmt..Debug$GT$3fmt17hd3f7b12edcbc2da0E
	.globl	_ZN42_$LT$$RF$T$u20$as$u20$core..fmt..Debug$GT$3fmt17hd3f7b12edcbc2da0E
	.p2align	4, 0x90
_ZN42_$LT$$RF$T$u20$as$u20$core..fmt..Debug$GT$3fmt17hd3f7b12edcbc2da0E:
.Lfunc_begin16:
	.cv_func_id 17
	.cv_loc	17 6 2373 0
.seh_proc _ZN42_$LT$$RF$T$u20$as$u20$core..fmt..Debug$GT$3fmt17hd3f7b12edcbc2da0E
	subq	$56, %rsp
	.seh_stackalloc 56
	.seh_endprologue
	movq	%rcx, 40(%rsp)
	movq	%rdx, 48(%rsp)
.Ltmp51:
	movq	(%rcx), %rcx
	callq	_ZN45_$LT$$LP$$RP$$u20$as$u20$core..fmt..Debug$GT$3fmt17h9d960f36d40181cdE
	movb	%al, 39(%rsp)
	movb	39(%rsp), %al
	andb	$1, %al
	movzbl	%al, %eax
	addq	$56, %rsp
	retq
.Ltmp52:
.Lfunc_end16:
	.seh_endproc

	.def	_ZN42_$LT$$RF$T$u20$as$u20$core..fmt..Debug$GT$3fmt17hfd8c0dc930d40782E;
	.scl	2;
	.type	32;
	.endef
	.section	.text,"xr",one_only,_ZN42_$LT$$RF$T$u20$as$u20$core..fmt..Debug$GT$3fmt17hfd8c0dc930d40782E
	.globl	_ZN42_$LT$$RF$T$u20$as$u20$core..fmt..Debug$GT$3fmt17hfd8c0dc930d40782E
	.p2align	4, 0x90
_ZN42_$LT$$RF$T$u20$as$u20$core..fmt..Debug$GT$3fmt17hfd8c0dc930d40782E:
.Lfunc_begin17:
	.cv_func_id 18
	.cv_loc	18 6 2373 0
.seh_proc _ZN42_$LT$$RF$T$u20$as$u20$core..fmt..Debug$GT$3fmt17hfd8c0dc930d40782E
	subq	$56, %rsp
	.seh_stackalloc 56
	.seh_endprologue
	movq	%rcx, 40(%rsp)
	movq	%rdx, 48(%rsp)
.Ltmp53:
	movq	(%rcx), %rcx
	callq	_ZN66_$LT$core..option..Option$LT$T$GT$$u20$as$u20$core..fmt..Debug$GT$3fmt17h35654d456ea65722E
	movb	%al, 39(%rsp)
	movb	39(%rsp), %al
	andb	$1, %al
	movzbl	%al, %eax
	addq	$56, %rsp
	retq
.Ltmp54:
.Lfunc_end17:
	.seh_endproc

	.def	_ZN44_$LT$$RF$T$u20$as$u20$core..fmt..Display$GT$3fmt17h3d9670c1ca929305E;
	.scl	2;
	.type	32;
	.endef
	.section	.text,"xr",one_only,_ZN44_$LT$$RF$T$u20$as$u20$core..fmt..Display$GT$3fmt17h3d9670c1ca929305E
	.globl	_ZN44_$LT$$RF$T$u20$as$u20$core..fmt..Display$GT$3fmt17h3d9670c1ca929305E
	.p2align	4, 0x90
_ZN44_$LT$$RF$T$u20$as$u20$core..fmt..Display$GT$3fmt17h3d9670c1ca929305E:
.Lfunc_begin18:
	.cv_func_id 19
	.cv_loc	19 6 2373 0
.seh_proc _ZN44_$LT$$RF$T$u20$as$u20$core..fmt..Display$GT$3fmt17h3d9670c1ca929305E
	subq	$56, %rsp
	.seh_stackalloc 56
	.seh_endprologue
	movq	%rdx, %r8
	movq	%rcx, %rax
	movq	%rax, 40(%rsp)
	movq	%r8, 48(%rsp)
.Ltmp55:
	movq	(%rax), %rcx
	movq	8(%rax), %rdx
	callq	_ZN42_$LT$str$u20$as$u20$core..fmt..Display$GT$3fmt17heed281989dda96bcE
	movb	%al, 39(%rsp)
	movb	39(%rsp), %al
	andb	$1, %al
	movzbl	%al, %eax
	addq	$56, %rsp
	retq
.Ltmp56:
.Lfunc_end18:
	.seh_endproc

	.def	_ZN45_$LT$$LP$$RP$$u20$as$u20$core..fmt..Debug$GT$3fmt17h9d960f36d40181cdE;
	.scl	3;
	.type	32;
	.endef
	.section	.text,"xr",one_only,_ZN45_$LT$$LP$$RP$$u20$as$u20$core..fmt..Debug$GT$3fmt17h9d960f36d40181cdE
	.p2align	4, 0x90
_ZN45_$LT$$LP$$RP$$u20$as$u20$core..fmt..Debug$GT$3fmt17h9d960f36d40181cdE:
.Lfunc_begin19:
	.cv_func_id 20
	.cv_loc	20 6 2606 0
.seh_proc _ZN45_$LT$$LP$$RP$$u20$as$u20$core..fmt..Debug$GT$3fmt17h9d960f36d40181cdE
	subq	$72, %rsp
	.seh_stackalloc 72
	.seh_endprologue
	movq	%rdx, 40(%rsp)
	movq	%rcx, %rax
	movq	40(%rsp), %rcx
	movq	%rax, 56(%rsp)
	movq	%rcx, 64(%rsp)
.Ltmp57:
	.cv_loc	20 6 2607 0
	leaq	__unnamed_1(%rip), %rdx
	movl	$2, %r8d
	callq	_ZN4core3fmt9Formatter3pad17h4e52be107ea93b3dE
	movb	%al, 55(%rsp)
	.cv_loc	20 6 2608 0
	movb	55(%rsp), %al
	andb	$1, %al
	movzbl	%al, %eax
	addq	$72, %rsp
	retq
.Ltmp58:
.Lfunc_end19:
	.seh_endproc

	.def	_ZN4core3cmp3Ord3min17ha5960837d653c04eE;
	.scl	2;
	.type	32;
	.endef
	.section	.text,"xr",one_only,_ZN4core3cmp3Ord3min17ha5960837d653c04eE
	.globl	_ZN4core3cmp3Ord3min17ha5960837d653c04eE
	.p2align	4, 0x90
_ZN4core3cmp3Ord3min17ha5960837d653c04eE:
.Lfunc_begin20:
	.cv_func_id 21
	.cv_loc	21 5 822 0
.seh_proc _ZN4core3cmp3Ord3min17ha5960837d653c04eE
	.seh_handler __CxxFrameHandler3, @unwind, @except
	pushq	%rbp
	.seh_pushreg %rbp
	subq	$80, %rsp
	.seh_stackalloc 80
	leaq	80(%rsp), %rbp
	.seh_setframe %rbp, 80
	.seh_endprologue
	movq	$-2, -8(%rbp)
	movq	%rcx, -40(%rbp)
	movq	%rdx, -32(%rbp)
.Ltmp61:
	.cv_loc	21 5 830 0
	movb	$1, -9(%rbp)
	movb	$1, -10(%rbp)
.Ltmp59:
	leaq	-40(%rbp), %rcx
	leaq	-32(%rbp), %rdx
	callq	_ZN4core3cmp5impls50_$LT$impl$u20$core..cmp..Ord$u20$for$u20$usize$GT$3cmp17h767f1e6f9954dfbfE
.Ltmp60:
	movb	%al, -41(%rbp)
	jmp	.LBB20_2
.LBB20_2:
	movb	-41(%rbp), %al
	movb	%al, -11(%rbp)
	movb	-11(%rbp), %al
	incb	%al
	subb	$2, %al
	jb	.LBB20_5
	jmp	.LBB20_14
.LBB20_14:
	jmp	.LBB20_6
	ud2
.LBB20_5:
	.cv_loc	21 5 831 0
	movb	$0, -9(%rbp)
	movq	-40(%rbp), %rax
	movq	%rax, -24(%rbp)
	jmp	.LBB20_7
.LBB20_6:
	.cv_loc	21 5 832 0
	movb	$0, -10(%rbp)
	movq	-32(%rbp), %rax
	movq	%rax, -24(%rbp)
.LBB20_7:
	.cv_loc	21 5 834 0
	testb	$1, -10(%rbp)
	jne	.LBB20_9
.LBB20_8:
	testb	$1, -9(%rbp)
	jne	.LBB20_13
	jmp	.LBB20_12
.LBB20_9:
	jmp	.LBB20_8
.LBB20_12:
	movq	-24(%rbp), %rax
	addq	$80, %rsp
	popq	%rbp
	retq
.LBB20_13:
	jmp	.LBB20_12
	.seh_handlerdata
	.long	($cppxdata$_ZN4core3cmp3Ord3min17ha5960837d653c04eE)@IMGREL
	.section	.text,"xr",one_only,_ZN4core3cmp3Ord3min17ha5960837d653c04eE
	.seh_endproc
	.def	"?dtor$1@?0?_ZN4core3cmp3Ord3min17ha5960837d653c04eE@4HA";
	.scl	3;
	.type	32;
	.endef
	.p2align	4, 0x90
"?dtor$1@?0?_ZN4core3cmp3Ord3min17ha5960837d653c04eE@4HA":
.seh_proc "?dtor$1@?0?_ZN4core3cmp3Ord3min17ha5960837d653c04eE@4HA"
.LBB20_1:
	movq	%rdx, 16(%rsp)
	pushq	%rbp
	.seh_pushreg %rbp
	subq	$32, %rsp
	.seh_stackalloc 32
	leaq	80(%rdx), %rbp
	.seh_endprologue
	addq	$32, %rsp
	popq	%rbp
	retq
	.seh_handlerdata
	.section	.text,"xr",one_only,_ZN4core3cmp3Ord3min17ha5960837d653c04eE
	.seh_endproc
	.def	"?dtor$3@?0?_ZN4core3cmp3Ord3min17ha5960837d653c04eE@4HA";
	.scl	3;
	.type	32;
	.endef
	.p2align	4, 0x90
"?dtor$3@?0?_ZN4core3cmp3Ord3min17ha5960837d653c04eE@4HA":
.seh_proc "?dtor$3@?0?_ZN4core3cmp3Ord3min17ha5960837d653c04eE@4HA"
.LBB20_3:
	movq	%rdx, 16(%rsp)
	pushq	%rbp
	.seh_pushreg %rbp
	subq	$32, %rsp
	.seh_stackalloc 32
	leaq	80(%rdx), %rbp
	.seh_endprologue
	testb	$1, -9(%rbp)
	jne	.LBB20_11
	jmp	.LBB20_10
.LBB20_10:
	.cv_loc	21 5 822 0
	addq	$32, %rsp
	popq	%rbp
	retq
.LBB20_11:
	.cv_loc	21 5 834 0
	jmp	.LBB20_10
.Ltmp62:
.Lfunc_end20:
	.seh_handlerdata
	.section	.text,"xr",one_only,_ZN4core3cmp3Ord3min17ha5960837d653c04eE
	.seh_endproc
	.section	.xdata,"dr",associative,_ZN4core3cmp3Ord3min17ha5960837d653c04eE
	.p2align	2
$cppxdata$_ZN4core3cmp3Ord3min17ha5960837d653c04eE:
	.long	429065506
	.long	2
	.long	($stateUnwindMap$_ZN4core3cmp3Ord3min17ha5960837d653c04eE)@IMGREL
	.long	0
	.long	0
	.long	3
	.long	($ip2state$_ZN4core3cmp3Ord3min17ha5960837d653c04eE)@IMGREL
	.long	72
	.long	0
	.long	1
$stateUnwindMap$_ZN4core3cmp3Ord3min17ha5960837d653c04eE:
	.long	-1
	.long	"?dtor$3@?0?_ZN4core3cmp3Ord3min17ha5960837d653c04eE@4HA"@IMGREL
	.long	0
	.long	"?dtor$1@?0?_ZN4core3cmp3Ord3min17ha5960837d653c04eE@4HA"@IMGREL
$ip2state$_ZN4core3cmp3Ord3min17ha5960837d653c04eE:
	.long	.Lfunc_begin20@IMGREL
	.long	-1
	.long	.Ltmp59@IMGREL+1
	.long	1
	.long	.Ltmp60@IMGREL+1
	.long	-1
	.section	.text,"xr",one_only,_ZN4core3cmp3Ord3min17ha5960837d653c04eE

	.def	_ZN4core3cmp5impls50_$LT$impl$u20$core..cmp..Ord$u20$for$u20$usize$GT$3cmp17h767f1e6f9954dfbfE;
	.scl	3;
	.type	32;
	.endef
	.section	.text,"xr",one_only,_ZN4core3cmp5impls50_$LT$impl$u20$core..cmp..Ord$u20$for$u20$usize$GT$3cmp17h767f1e6f9954dfbfE
	.p2align	4, 0x90
_ZN4core3cmp5impls50_$LT$impl$u20$core..cmp..Ord$u20$for$u20$usize$GT$3cmp17h767f1e6f9954dfbfE:
.Lfunc_begin21:
	.cv_func_id 22
	.cv_loc	22 5 1471 0
.seh_proc _ZN4core3cmp5impls50_$LT$impl$u20$core..cmp..Ord$u20$for$u20$usize$GT$3cmp17h767f1e6f9954dfbfE
	subq	$40, %rsp
	.seh_stackalloc 40
	.seh_endprologue
	movq	%rdx, (%rsp)
	movq	%rcx, 8(%rsp)
	movq	%rcx, 24(%rsp)
	movq	%rdx, 32(%rsp)
.Ltmp63:
	.cv_loc	22 5 1474 0
	movq	(%rcx), %rax
	cmpq	(%rdx), %rax
	jb	.LBB21_2
	.cv_loc	22 5 1475 0
	movq	(%rsp), %rcx
	movq	8(%rsp), %rax
	movq	(%rax), %rax
	cmpq	(%rcx), %rax
	je	.LBB21_5
	jmp	.LBB21_4
.LBB21_2:
	.cv_loc	22 5 1474 0
	movb	$-1, 23(%rsp)
.LBB21_3:
	.cv_loc	22 5 1477 0
	movb	23(%rsp), %al
	addq	$40, %rsp
	retq
.LBB21_4:
	.cv_loc	22 5 1476 0
	movb	$1, 23(%rsp)
	.cv_loc	22 5 1475 0
	jmp	.LBB21_6
.LBB21_5:
	movb	$0, 23(%rsp)
.LBB21_6:
	.cv_loc	22 5 1474 0
	jmp	.LBB21_3
.Ltmp64:
.Lfunc_end21:
	.seh_endproc

	.def	_ZN4core3cmp5impls59_$LT$impl$u20$core..cmp..PartialEq$u20$for$u20$$LP$$RP$$GT$2eq17h8cea1e0a43a0780dE;
	.scl	3;
	.type	32;
	.endef
	.section	.text,"xr",one_only,_ZN4core3cmp5impls59_$LT$impl$u20$core..cmp..PartialEq$u20$for$u20$$LP$$RP$$GT$2eq17h8cea1e0a43a0780dE
	.p2align	4, 0x90
_ZN4core3cmp5impls59_$LT$impl$u20$core..cmp..PartialEq$u20$for$u20$$LP$$RP$$GT$2eq17h8cea1e0a43a0780dE:
.Lfunc_begin22:
	.cv_func_id 23
	.cv_loc	23 5 1380 0
.seh_proc _ZN4core3cmp5impls59_$LT$impl$u20$core..cmp..PartialEq$u20$for$u20$$LP$$RP$$GT$2eq17h8cea1e0a43a0780dE
	subq	$16, %rsp
	.seh_stackalloc 16
	.seh_endprologue
	movq	%rcx, (%rsp)
	movq	%rdx, 8(%rsp)
.Ltmp65:
	.cv_loc	23 5 1382 0
	movb	$1, %al
	andb	$1, %al
	movzbl	%al, %eax
	addq	$16, %rsp
	retq
.Ltmp66:
.Lfunc_end22:
	.seh_endproc

	.def	_ZN4core3fmt3num50_$LT$impl$u20$core..fmt..Debug$u20$for$u20$u32$GT$3fmt17ha95ec5d34cfda94cE;
	.scl	3;
	.type	32;
	.endef
	.section	.text,"xr",one_only,_ZN4core3fmt3num50_$LT$impl$u20$core..fmt..Debug$u20$for$u20$u32$GT$3fmt17ha95ec5d34cfda94cE
	.p2align	4, 0x90
_ZN4core3fmt3num50_$LT$impl$u20$core..fmt..Debug$u20$for$u20$u32$GT$3fmt17ha95ec5d34cfda94cE:
.Lfunc_begin23:
	.cv_func_id 24
	.cv_file	7 "/rustc/90743e7298aca107ddaa0c202a4d3604e29bfeb6\\library\\core\\src\\fmt\\num.rs" "52537076DBA309A803D7A84A50A7F2E34CA62D28" 2
	.cv_loc	24 7 185 0
.seh_proc _ZN4core3fmt3num50_$LT$impl$u20$core..fmt..Debug$u20$for$u20$u32$GT$3fmt17ha95ec5d34cfda94cE
	subq	$88, %rsp
	.seh_stackalloc 88
	.seh_endprologue
	movq	%rdx, 48(%rsp)
	movq	%rcx, %rax
	movq	48(%rsp), %rcx
	movq	%rax, 56(%rsp)
	movq	%rax, 72(%rsp)
	movq	%rcx, 80(%rsp)
.Ltmp67:
	.cv_loc	24 7 186 0
	callq	_ZN4core3fmt9Formatter15debug_lower_hex17h4b7a8b97699ad4a6E
	movb	%al, 70(%rsp)
	movb	70(%rsp), %al
	testb	$1, %al
	jne	.LBB23_3
	jmp	.LBB23_2
.LBB23_2:
	.cv_loc	24 7 188 0
	movq	48(%rsp), %rcx
	callq	_ZN4core3fmt9Formatter15debug_upper_hex17hfb21b285b95a8f26E
	movb	%al, 47(%rsp)
	jmp	.LBB23_6
.LBB23_3:
	.cv_loc	24 7 187 0
	movq	48(%rsp), %rdx
	movq	56(%rsp), %rcx
	callq	_ZN4core3fmt3num53_$LT$impl$u20$core..fmt..LowerHex$u20$for$u20$u32$GT$3fmt17h036b12521b52fd1fE
	andb	$1, %al
	movb	%al, 71(%rsp)
	.cv_loc	24 7 186 0
	jmp	.LBB23_5
.LBB23_5:
	.cv_loc	24 7 193 0
	movb	71(%rsp), %al
	andb	$1, %al
	movzbl	%al, %eax
	addq	$88, %rsp
	retq
.LBB23_6:
	.cv_loc	24 7 188 0
	movb	47(%rsp), %al
	testb	$1, %al
	jne	.LBB23_8
	jmp	.LBB23_7
.LBB23_7:
	.cv_loc	24 7 191 0
	movq	48(%rsp), %rdx
	movq	56(%rsp), %rcx
	callq	_ZN4core3fmt3num3imp52_$LT$impl$u20$core..fmt..Display$u20$for$u20$u32$GT$3fmt17h7f125bc1d43a8718E
	andb	$1, %al
	movb	%al, 71(%rsp)
	jmp	.LBB23_11
.LBB23_8:
	.cv_loc	24 7 189 0
	movq	48(%rsp), %rdx
	movq	56(%rsp), %rcx
	callq	_ZN4core3fmt3num53_$LT$impl$u20$core..fmt..UpperHex$u20$for$u20$u32$GT$3fmt17hc31888ec76f3e1b5E
	andb	$1, %al
	movb	%al, 71(%rsp)
	.cv_loc	24 7 188 0
	jmp	.LBB23_10
.LBB23_10:
	.cv_loc	24 7 186 0
	jmp	.LBB23_5
.LBB23_11:
	.cv_loc	24 7 188 0
	jmp	.LBB23_10
.Ltmp68:
.Lfunc_end23:
	.seh_endproc

	.def	_ZN4core3fmt9Arguments6new_v117hf25a81549ea8a1faE;
	.scl	3;
	.type	32;
	.endef
	.section	.text,"xr",one_only,_ZN4core3fmt9Arguments6new_v117hf25a81549ea8a1faE
	.p2align	4, 0x90
_ZN4core3fmt9Arguments6new_v117hf25a81549ea8a1faE:
.Lfunc_begin24:
	.cv_func_id 25
	.cv_loc	25 6 394 0
.seh_proc _ZN4core3fmt9Arguments6new_v117hf25a81549ea8a1faE
	subq	$200, %rsp
	.seh_stackalloc 200
	.seh_endprologue
	movq	%r9, 48(%rsp)
	movq	%r8, 56(%rsp)
	movq	%rdx, 64(%rsp)
	movq	%rcx, 72(%rsp)
	movq	%rcx, 80(%rsp)
	movq	240(%rsp), %rax
	movq	%rax, 88(%rsp)
	movq	%rdx, 168(%rsp)
	movq	%r8, 176(%rsp)
	movq	%r9, 184(%rsp)
	movq	%rax, 192(%rsp)
.Ltmp69:
	.cv_loc	25 6 395 0
	cmpq	%rax, %r8
	jb	.LBB24_2
	movq	56(%rsp), %rax
	movq	88(%rsp), %rcx
	addq	$1, %rcx
	cmpq	%rcx, %rax
	seta	%al
	andb	$1, %al
	movb	%al, 103(%rsp)
	jmp	.LBB24_3
.LBB24_2:
	movb	$1, 103(%rsp)
.LBB24_3:
	testb	$1, 103(%rsp)
	jne	.LBB24_5
	.cv_loc	25 6 398 0
	movq	80(%rsp), %rax
	movq	72(%rsp), %rcx
	movq	88(%rsp), %rdx
	movq	48(%rsp), %r8
	movq	56(%rsp), %r9
	movq	64(%rsp), %r10
	movq	$0, 152(%rsp)
	movq	%r10, (%rcx)
	movq	%r9, 8(%rcx)
	movq	152(%rsp), %r10
	movq	160(%rsp), %r9
	movq	%r10, 16(%rcx)
	movq	%r9, 24(%rcx)
	movq	%r8, 32(%rcx)
	movq	%rdx, 40(%rcx)
	.cv_loc	25 6 399 0
	addq	$200, %rsp
	retq
.LBB24_5:
	.cv_loc	25 6 396 0
	leaq	104(%rsp), %rcx
	leaq	__unnamed_2(%rip), %rdx
	movl	$1, %r8d
	leaq	__unnamed_3(%rip), %r9
	xorl	%eax, %eax
	movq	$0, 32(%rsp)
	callq	_ZN4core3fmt9Arguments6new_v117hf25a81549ea8a1faE
	leaq	__unnamed_4(%rip), %rdx
	leaq	104(%rsp), %rcx
	callq	_ZN4core9panicking9panic_fmt17h1862038ee9bad685E
	ud2
.Ltmp70:
.Lfunc_end24:
	.seh_endproc

	.def	_ZN4core3mem7replace17ha5b14e1f3a0d1dd0E;
	.scl	2;
	.type	32;
	.endef
	.section	.text,"xr",one_only,_ZN4core3mem7replace17ha5b14e1f3a0d1dd0E
	.globl	_ZN4core3mem7replace17ha5b14e1f3a0d1dd0E
	.p2align	4, 0x90
_ZN4core3mem7replace17ha5b14e1f3a0d1dd0E:
.Lfunc_begin25:
	.cv_func_id 26
	.cv_file	8 "/rustc/90743e7298aca107ddaa0c202a4d3604e29bfeb6\\library\\core\\src\\mem\\mod.rs" "369936B4D4BF978D9E3068F0582A9983FCB5118B" 2
	.cv_loc	26 8 912 0
.seh_proc _ZN4core3mem7replace17ha5b14e1f3a0d1dd0E
	subq	$136, %rsp
	.seh_stackalloc 136
	.seh_endprologue
	movq	%rdx, %r9
	movq	%rcx, 40(%rsp)
	movq	%r9, 48(%rsp)
	movq	%r8, 56(%rsp)
.Ltmp71:
	.cv_loc	26 8 917 0
	movq	%rcx, 64(%rsp)
	leaq	16(%rsp), %rax
.Ltmp72:
	.cv_file	9 "/rustc/90743e7298aca107ddaa0c202a4d3604e29bfeb6\\library\\core\\src\\ptr\\mod.rs" "915A2787D4B080290F8FC1BDA15EFBDA3325D28E" 2
	.cv_inline_site_id 27 within 26 inlined_at 8 917 0
	.cv_loc	27 9 1139 0
	movq	%rax, 72(%rsp)
	vmovdqu	(%rcx), %xmm0
	vmovdqa	%xmm0, 16(%rsp)
	.cv_loc	27 9 1140 0
	movq	16(%rsp), %rax
	movq	24(%rsp), %rdx
	movq	%rax, 80(%rsp)
	movq	%rdx, 88(%rsp)
.Ltmp73:
	.cv_file	10 "/rustc/90743e7298aca107ddaa0c202a4d3604e29bfeb6\\library\\core\\src\\mem\\maybe_uninit.rs" "D86EE697DA2461E260B588D1B47691B7D0757E21" 2
	.cv_inline_site_id 28 within 27 inlined_at 9 1140 0
	.cv_loc	28 10 627 0
	movq	%rax, 96(%rsp)
	movq	%rdx, 104(%rsp)
.Ltmp74:
	.cv_file	11 "/rustc/90743e7298aca107ddaa0c202a4d3604e29bfeb6\\library\\core\\src\\mem\\manually_drop.rs" "05D1F1C923886F7AA54321ED539171C9D20B2BE6" 2
	.cv_inline_site_id 29 within 28 inlined_at 10 627 0
	.cv_loc	29 11 89 0
	movq	%rax, 112(%rsp)
	movq	%rdx, 120(%rsp)
.Ltmp75:
	.cv_loc	26 8 918 0
	movq	%rcx, 128(%rsp)
	movq	%r9, (%rsp)
	movq	%r8, 8(%rsp)
.Ltmp76:
	.cv_inline_site_id 30 within 26 inlined_at 8 918 0
	.cv_loc	30 9 1336 0
	vmovdqu	(%rsp), %xmm0
	vmovdqu	%xmm0, (%rcx)
.Ltmp77:
	.cv_loc	26 8 921 0
	addq	$136, %rsp
	retq
.Ltmp78:
.Lfunc_end25:
	.seh_endproc

	.def	_ZN4core3num20_$LT$impl$u20$u8$GT$20eq_ignore_ascii_case17h50e3a38f4509c631E;
	.scl	3;
	.type	32;
	.endef
	.section	.text,"xr",one_only,_ZN4core3num20_$LT$impl$u20$u8$GT$20eq_ignore_ascii_case17h50e3a38f4509c631E
	.p2align	4, 0x90
_ZN4core3num20_$LT$impl$u20$u8$GT$20eq_ignore_ascii_case17h50e3a38f4509c631E:
.Lfunc_begin26:
	.cv_func_id 31
	.cv_file	12 "/rustc/90743e7298aca107ddaa0c202a4d3604e29bfeb6\\library\\core\\src\\num\\mod.rs" "08401C6587351FD8BAAA8C67708024DD1B246804" 2
	.cv_loc	31 12 396 0
.seh_proc _ZN4core3num20_$LT$impl$u20$u8$GT$20eq_ignore_ascii_case17h50e3a38f4509c631E
	subq	$80, %rsp
	.seh_stackalloc 80
	.seh_endprologue
	movq	%rdx, 8(%rsp)
	movq	%rcx, 16(%rsp)
	movq	%rcx, 32(%rsp)
	movq	%rdx, 40(%rsp)
.Ltmp79:
	.cv_loc	31 12 397 0
	movq	%rcx, 48(%rsp)
.Ltmp80:
	.cv_inline_site_id 32 within 31 inlined_at 12 397 0
	.cv_loc	32 12 372 0
	movb	(%rcx), %al
	movb	%al, 29(%rsp)
	movq	%rcx, 56(%rsp)
.Ltmp81:
	.cv_inline_site_id 33 within 32 inlined_at 12 372 0
	.cv_loc	33 12 517 0
	movb	$65, %al
	cmpb	(%rcx), %al
	jbe	.LBB26_2
.LBB26_1:
	.cv_file	13 "/rustc/90743e7298aca107ddaa0c202a4d3604e29bfeb6\\library\\core\\src\\macros\\mod.rs" "AAE8AD38633F63B1193F93DAC40045A79C2D127E" 2
	.cv_loc	33 13 346 0
	movb	$0, 30(%rsp)
	jmp	.LBB26_4
.LBB26_2:
	.cv_loc	33 12 517 0
	movq	16(%rsp), %rax
	cmpb	$90, (%rax)
	ja	.LBB26_1
	.cv_loc	33 13 345 0
	movb	$1, 30(%rsp)
.Ltmp82:
.LBB26_4:
	.cv_loc	32 12 372 0
	movq	8(%rsp), %rcx
	movb	29(%rsp), %al
	movb	30(%rsp), %dl
	andb	$1, %dl
	shlb	$5, %dl
	orb	%dl, %al
	movb	%al, 6(%rsp)
.Ltmp83:
	.cv_loc	31 12 397 0
	movq	%rcx, 64(%rsp)
.Ltmp84:
	.cv_loc	32 12 372 0
	movb	(%rcx), %al
	movb	%al, 7(%rsp)
	movq	%rcx, 72(%rsp)
.Ltmp85:
	.cv_inline_site_id 34 within 32 inlined_at 12 372 0
	.cv_loc	34 12 517 0
	movb	$65, %al
	cmpb	(%rcx), %al
	jbe	.LBB26_6
.LBB26_5:
	.cv_loc	34 13 346 0
	movb	$0, 31(%rsp)
	jmp	.LBB26_8
.LBB26_6:
	.cv_loc	34 12 517 0
	movq	8(%rsp), %rax
	cmpb	$90, (%rax)
	ja	.LBB26_5
	.cv_loc	34 13 345 0
	movb	$1, 31(%rsp)
.Ltmp86:
.LBB26_8:
	.cv_loc	32 12 372 0
	movb	6(%rsp), %al
	movb	7(%rsp), %cl
	movb	31(%rsp), %dl
	andb	$1, %dl
	shlb	$5, %dl
	orb	%dl, %cl
.Ltmp87:
	.cv_loc	31 12 397 0
	cmpb	%cl, %al
	sete	%al
	.cv_loc	31 12 398 0
	andb	$1, %al
	movzbl	%al, %eax
	addq	$80, %rsp
	retq
.Ltmp88:
.Lfunc_end26:
	.seh_endproc

	.def	_ZN4core3ops12control_flow24ControlFlow$LT$B$C$C$GT$11break_value17h432d2adb861a0e05E;
	.scl	2;
	.type	32;
	.endef
	.section	.text,"xr",one_only,_ZN4core3ops12control_flow24ControlFlow$LT$B$C$C$GT$11break_value17h432d2adb861a0e05E
	.globl	_ZN4core3ops12control_flow24ControlFlow$LT$B$C$C$GT$11break_value17h432d2adb861a0e05E
	.p2align	4, 0x90
_ZN4core3ops12control_flow24ControlFlow$LT$B$C$C$GT$11break_value17h432d2adb861a0e05E:
.Lfunc_begin27:
	.cv_func_id 35
	.cv_loc	35 3 181 0
.seh_proc _ZN4core3ops12control_flow24ControlFlow$LT$B$C$C$GT$11break_value17h432d2adb861a0e05E
	subq	$40, %rsp
	.seh_stackalloc 40
	.seh_endprologue
	movq	%rcx, (%rsp)
	movq	%rdx, 8(%rsp)
.Ltmp89:
	.cv_loc	35 3 182 0
	movq	(%rsp), %rax
	testq	%rax, %rax
	je	.LBB27_2
	jmp	.LBB27_7
.LBB27_7:
	jmp	.LBB27_3
	ud2
.LBB27_2:
	.cv_loc	35 3 183 0
	movq	$0, 16(%rsp)
	jmp	.LBB27_4
.LBB27_3:
	.cv_loc	35 3 184 0
	movq	8(%rsp), %rax
	movq	%rax, 32(%rsp)
.Ltmp90:
	.cv_loc	35 3 184 0
	movq	%rax, 24(%rsp)
	movq	$1, 16(%rsp)
.Ltmp91:
.LBB27_4:
	.cv_loc	35 3 186 0
	cmpq	$1, (%rsp)
	jne	.LBB27_6
.LBB27_5:
	movq	16(%rsp), %rax
	movq	24(%rsp), %rdx
	addq	$40, %rsp
	retq
.LBB27_6:
	jmp	.LBB27_5
.Ltmp92:
.Lfunc_end27:
	.seh_endproc

	.def	_ZN4core3ops8function5impls79_$LT$impl$u20$core..ops..function..FnMut$LT$A$GT$$u20$for$u20$$RF$mut$u20$F$GT$8call_mut17h940da3f001369628E;
	.scl	2;
	.type	32;
	.endef
	.section	.text,"xr",one_only,_ZN4core3ops8function5impls79_$LT$impl$u20$core..ops..function..FnMut$LT$A$GT$$u20$for$u20$$RF$mut$u20$F$GT$8call_mut17h940da3f001369628E
	.globl	_ZN4core3ops8function5impls79_$LT$impl$u20$core..ops..function..FnMut$LT$A$GT$$u20$for$u20$$RF$mut$u20$F$GT$8call_mut17h940da3f001369628E
	.p2align	4, 0x90
_ZN4core3ops8function5impls79_$LT$impl$u20$core..ops..function..FnMut$LT$A$GT$$u20$for$u20$$RF$mut$u20$F$GT$8call_mut17h940da3f001369628E:
.Lfunc_begin28:
	.cv_func_id 36
	.cv_file	14 "/rustc/90743e7298aca107ddaa0c202a4d3604e29bfeb6\\library\\core\\src\\ops\\function.rs" "30571CBFA498AC809C9112A69B06C31447DD7867" 2
	.cv_loc	36 14 296 0
.seh_proc _ZN4core3ops8function5impls79_$LT$impl$u20$core..ops..function..FnMut$LT$A$GT$$u20$for$u20$$RF$mut$u20$F$GT$8call_mut17h940da3f001369628E
	subq	$56, %rsp
	.seh_stackalloc 56
	.seh_endprologue
	movq	%rdx, 40(%rsp)
	movq	%rcx, 48(%rsp)
.Ltmp93:
	.cv_loc	36 14 297 0
	movq	(%rcx), %rcx
	movq	40(%rsp), %rdx
	callq	_ZN57_$LT$log..Level$u20$as$u20$core..str..traits..FromStr$GT$8from_str28_$u7b$$u7b$closure$u7d$$u7d$17h349ad213d5592ddbE
	movb	%al, 39(%rsp)
	.cv_loc	36 14 298 0
	movb	39(%rsp), %al
	andb	$1, %al
	movzbl	%al, %eax
	addq	$56, %rsp
	retq
.Ltmp94:
.Lfunc_end28:
	.seh_endproc

	.def	_ZN4core3ops8function5impls80_$LT$impl$u20$core..ops..function..FnOnce$LT$A$GT$$u20$for$u20$$RF$mut$u20$F$GT$9call_once17hcf25b1dbc461059dE;
	.scl	2;
	.type	32;
	.endef
	.section	.text,"xr",one_only,_ZN4core3ops8function5impls80_$LT$impl$u20$core..ops..function..FnOnce$LT$A$GT$$u20$for$u20$$RF$mut$u20$F$GT$9call_once17hcf25b1dbc461059dE
	.globl	_ZN4core3ops8function5impls80_$LT$impl$u20$core..ops..function..FnOnce$LT$A$GT$$u20$for$u20$$RF$mut$u20$F$GT$9call_once17hcf25b1dbc461059dE
	.p2align	4, 0x90
_ZN4core3ops8function5impls80_$LT$impl$u20$core..ops..function..FnOnce$LT$A$GT$$u20$for$u20$$RF$mut$u20$F$GT$9call_once17hcf25b1dbc461059dE:
.Lfunc_begin29:
	.cv_func_id 37
	.cv_loc	37 14 308 0
.seh_proc _ZN4core3ops8function5impls80_$LT$impl$u20$core..ops..function..FnOnce$LT$A$GT$$u20$for$u20$$RF$mut$u20$F$GT$9call_once17hcf25b1dbc461059dE
	subq	$56, %rsp
	.seh_stackalloc 56
	.seh_endprologue
	movq	%rdx, 40(%rsp)
	movq	%rcx, 48(%rsp)
.Ltmp95:
	.cv_loc	37 14 309 0
	movq	40(%rsp), %rdx
	callq	_ZN57_$LT$log..Level$u20$as$u20$core..str..traits..FromStr$GT$8from_str28_$u7b$$u7b$closure$u7d$$u7d$17h6de289d2f87e5e83E
	movq	%rax, 32(%rsp)
	.cv_loc	37 14 310 0
	movq	32(%rsp), %rax
	addq	$56, %rsp
	retq
.Ltmp96:
.Lfunc_end29:
	.seh_endproc

	.def	_ZN4core3ops8function6FnOnce9call_once17h18cf68ca60ed9ddeE;
	.scl	3;
	.type	32;
	.endef
	.section	.text,"xr",one_only,_ZN4core3ops8function6FnOnce9call_once17h18cf68ca60ed9ddeE
	.p2align	4, 0x90
_ZN4core3ops8function6FnOnce9call_once17h18cf68ca60ed9ddeE:
.Lfunc_begin30:
	.cv_func_id 38
	.cv_loc	38 14 251 0
.seh_proc _ZN4core3ops8function6FnOnce9call_once17h18cf68ca60ed9ddeE
	subq	$72, %rsp
	.seh_stackalloc 72
	.seh_endprologue
	movq	%rcx, %rax
	movq	%rax, 40(%rsp)
	movq	%rdx, 48(%rsp)
	movq	%r8, 56(%rsp)
.Ltmp97:
	movq	48(%rsp), %rdx
	movq	56(%rsp), %r8
	callq	_ZN3log14MaybeStaticStr6Static17h3cbcb012f987ef93E
	movq	40(%rsp), %rax
	addq	$72, %rsp
	retq
.Ltmp98:
.Lfunc_end30:
	.seh_endproc

	.def	_ZN4core3ptr28drop_in_place$LT$$RF$u32$GT$17h32863692b6552bebE;
	.scl	3;
	.type	32;
	.endef
	.section	.text,"xr",one_only,_ZN4core3ptr28drop_in_place$LT$$RF$u32$GT$17h32863692b6552bebE
	.p2align	4, 0x90
_ZN4core3ptr28drop_in_place$LT$$RF$u32$GT$17h32863692b6552bebE:
.Lfunc_begin31:
	.cv_func_id 39
	.cv_loc	39 9 490 0
.seh_proc _ZN4core3ptr28drop_in_place$LT$$RF$u32$GT$17h32863692b6552bebE
	pushq	%rax
	.seh_stackalloc 8
	.seh_endprologue
	movq	%rcx, (%rsp)
.Ltmp99:
	popq	%rax
	retq
.Ltmp100:
.Lfunc_end31:
	.seh_endproc

	.def	_ZN4core3ptr32drop_in_place$LT$$RF$$RF$str$GT$17h1545a9e36efaa688E;
	.scl	3;
	.type	32;
	.endef
	.section	.text,"xr",one_only,_ZN4core3ptr32drop_in_place$LT$$RF$$RF$str$GT$17h1545a9e36efaa688E
	.p2align	4, 0x90
_ZN4core3ptr32drop_in_place$LT$$RF$$RF$str$GT$17h1545a9e36efaa688E:
.Lfunc_begin32:
	.cv_func_id 40
	.cv_loc	40 9 490 0
.seh_proc _ZN4core3ptr32drop_in_place$LT$$RF$$RF$str$GT$17h1545a9e36efaa688E
	pushq	%rax
	.seh_stackalloc 8
	.seh_endprologue
	movq	%rcx, (%rsp)
.Ltmp101:
	popq	%rax
	retq
.Ltmp102:
.Lfunc_end32:
	.seh_endproc

	.def	_ZN4core3ptr33drop_in_place$LT$$RF$$LP$$RP$$GT$17h991302da36c1dcd5E;
	.scl	3;
	.type	32;
	.endef
	.section	.text,"xr",one_only,_ZN4core3ptr33drop_in_place$LT$$RF$$LP$$RP$$GT$17h991302da36c1dcd5E
	.p2align	4, 0x90
_ZN4core3ptr33drop_in_place$LT$$RF$$LP$$RP$$GT$17h991302da36c1dcd5E:
.Lfunc_begin33:
	.cv_func_id 41
	.cv_loc	41 9 490 0
.seh_proc _ZN4core3ptr33drop_in_place$LT$$RF$$LP$$RP$$GT$17h991302da36c1dcd5E
	pushq	%rax
	.seh_stackalloc 8
	.seh_endprologue
	movq	%rcx, (%rsp)
.Ltmp103:
	popq	%rax
	retq
.Ltmp104:
.Lfunc_end33:
	.seh_endproc

	.def	_ZN4core3ptr35drop_in_place$LT$$RF$log..Level$GT$17hfde15a6c48e9d7ebE;
	.scl	3;
	.type	32;
	.endef
	.section	.text,"xr",one_only,_ZN4core3ptr35drop_in_place$LT$$RF$log..Level$GT$17hfde15a6c48e9d7ebE
	.p2align	4, 0x90
_ZN4core3ptr35drop_in_place$LT$$RF$log..Level$GT$17hfde15a6c48e9d7ebE:
.Lfunc_begin34:
	.cv_func_id 42
	.cv_loc	42 9 490 0
.seh_proc _ZN4core3ptr35drop_in_place$LT$$RF$log..Level$GT$17hfde15a6c48e9d7ebE
	pushq	%rax
	.seh_stackalloc 8
	.seh_endprologue
	movq	%rcx, (%rsp)
.Ltmp105:
	popq	%rax
	retq
.Ltmp106:
.Lfunc_end34:
	.seh_endproc

	.def	_ZN4core3ptr35drop_in_place$LT$log..NopLogger$GT$17h9397379b9e346c3aE;
	.scl	3;
	.type	32;
	.endef
	.section	.text,"xr",one_only,_ZN4core3ptr35drop_in_place$LT$log..NopLogger$GT$17h9397379b9e346c3aE
	.p2align	4, 0x90
_ZN4core3ptr35drop_in_place$LT$log..NopLogger$GT$17h9397379b9e346c3aE:
.Lfunc_begin35:
	.cv_func_id 43
	.cv_loc	43 9 490 0
.seh_proc _ZN4core3ptr35drop_in_place$LT$log..NopLogger$GT$17h9397379b9e346c3aE
	pushq	%rax
	.seh_stackalloc 8
	.seh_endprologue
	movq	%rcx, (%rsp)
.Ltmp107:
	popq	%rax
	retq
.Ltmp108:
.Lfunc_end35:
	.seh_endproc

	.def	_ZN4core3ptr36drop_in_place$LT$$RF$log..Record$GT$17h898930896048b9ceE;
	.scl	3;
	.type	32;
	.endef
	.section	.text,"xr",one_only,_ZN4core3ptr36drop_in_place$LT$$RF$log..Record$GT$17h898930896048b9ceE
	.p2align	4, 0x90
_ZN4core3ptr36drop_in_place$LT$$RF$log..Record$GT$17h898930896048b9ceE:
.Lfunc_begin36:
	.cv_func_id 44
	.cv_loc	44 9 490 0
.seh_proc _ZN4core3ptr36drop_in_place$LT$$RF$log..Record$GT$17h898930896048b9ceE
	pushq	%rax
	.seh_stackalloc 8
	.seh_endprologue
	movq	%rcx, (%rsp)
.Ltmp109:
	popq	%rax
	retq
.Ltmp110:
.Lfunc_end36:
	.seh_endproc

	.def	_ZN4core3ptr38drop_in_place$LT$$RF$log..Metadata$GT$17hc626e339d4327a2aE;
	.scl	3;
	.type	32;
	.endef
	.section	.text,"xr",one_only,_ZN4core3ptr38drop_in_place$LT$$RF$log..Metadata$GT$17hc626e339d4327a2aE
	.p2align	4, 0x90
_ZN4core3ptr38drop_in_place$LT$$RF$log..Metadata$GT$17hc626e339d4327a2aE:
.Lfunc_begin37:
	.cv_func_id 45
	.cv_loc	45 9 490 0
.seh_proc _ZN4core3ptr38drop_in_place$LT$$RF$log..Metadata$GT$17hc626e339d4327a2aE
	pushq	%rax
	.seh_stackalloc 8
	.seh_endprologue
	movq	%rcx, (%rsp)
.Ltmp111:
	popq	%rax
	retq
.Ltmp112:
.Lfunc_end37:
	.seh_endproc

	.def	_ZN4core3ptr44drop_in_place$LT$$RF$log..MaybeStaticStr$GT$17hfe65920187c778b1E;
	.scl	3;
	.type	32;
	.endef
	.section	.text,"xr",one_only,_ZN4core3ptr44drop_in_place$LT$$RF$log..MaybeStaticStr$GT$17hfe65920187c778b1E
	.p2align	4, 0x90
_ZN4core3ptr44drop_in_place$LT$$RF$log..MaybeStaticStr$GT$17hfe65920187c778b1E:
.Lfunc_begin38:
	.cv_func_id 46
	.cv_loc	46 9 490 0
.seh_proc _ZN4core3ptr44drop_in_place$LT$$RF$log..MaybeStaticStr$GT$17hfe65920187c778b1E
	pushq	%rax
	.seh_stackalloc 8
	.seh_endprologue
	movq	%rcx, (%rsp)
.Ltmp113:
	popq	%rax
	retq
.Ltmp114:
.Lfunc_end38:
	.seh_endproc

	.def	_ZN4core3ptr45drop_in_place$LT$$RF$core..fmt..Arguments$GT$17h0e150bbd78f553baE;
	.scl	3;
	.type	32;
	.endef
	.section	.text,"xr",one_only,_ZN4core3ptr45drop_in_place$LT$$RF$core..fmt..Arguments$GT$17h0e150bbd78f553baE
	.p2align	4, 0x90
_ZN4core3ptr45drop_in_place$LT$$RF$core..fmt..Arguments$GT$17h0e150bbd78f553baE:
.Lfunc_begin39:
	.cv_func_id 47
	.cv_loc	47 9 490 0
.seh_proc _ZN4core3ptr45drop_in_place$LT$$RF$core..fmt..Arguments$GT$17h0e150bbd78f553baE
	pushq	%rax
	.seh_stackalloc 8
	.seh_endprologue
	movq	%rcx, (%rsp)
.Ltmp115:
	popq	%rax
	retq
.Ltmp116:
.Lfunc_end39:
	.seh_endproc

	.def	_ZN4core3ptr56drop_in_place$LT$$RF$core..option..Option$LT$u32$GT$$GT$17hce051b480fb7945cE;
	.scl	3;
	.type	32;
	.endef
	.section	.text,"xr",one_only,_ZN4core3ptr56drop_in_place$LT$$RF$core..option..Option$LT$u32$GT$$GT$17hce051b480fb7945cE
	.p2align	4, 0x90
_ZN4core3ptr56drop_in_place$LT$$RF$core..option..Option$LT$u32$GT$$GT$17hce051b480fb7945cE:
.Lfunc_begin40:
	.cv_func_id 48
	.cv_loc	48 9 490 0
.seh_proc _ZN4core3ptr56drop_in_place$LT$$RF$core..option..Option$LT$u32$GT$$GT$17hce051b480fb7945cE
	pushq	%rax
	.seh_stackalloc 8
	.seh_endprologue
	movq	%rcx, (%rsp)
.Ltmp117:
	popq	%rax
	retq
.Ltmp118:
.Lfunc_end40:
	.seh_endproc

	.def	_ZN4core3ptr72drop_in_place$LT$$RF$core..option..Option$LT$log..MaybeStaticStr$GT$$GT$17hcb0824b14ff55e0fE;
	.scl	3;
	.type	32;
	.endef
	.section	.text,"xr",one_only,_ZN4core3ptr72drop_in_place$LT$$RF$core..option..Option$LT$log..MaybeStaticStr$GT$$GT$17hcb0824b14ff55e0fE
	.p2align	4, 0x90
_ZN4core3ptr72drop_in_place$LT$$RF$core..option..Option$LT$log..MaybeStaticStr$GT$$GT$17hcb0824b14ff55e0fE:
.Lfunc_begin41:
	.cv_func_id 49
	.cv_loc	49 9 490 0
.seh_proc _ZN4core3ptr72drop_in_place$LT$$RF$core..option..Option$LT$log..MaybeStaticStr$GT$$GT$17hcb0824b14ff55e0fE
	pushq	%rax
	.seh_stackalloc 8
	.seh_endprologue
	movq	%rcx, (%rsp)
.Ltmp119:
	popq	%rax
	retq
.Ltmp120:
.Lfunc_end41:
	.seh_endproc

	.def	_ZN4core3ptr7mut_ptr31_$LT$impl$u20$$BP$mut$u20$T$GT$13guaranteed_eq17h08489013319d49f3E;
	.scl	2;
	.type	32;
	.endef
	.section	.text,"xr",one_only,_ZN4core3ptr7mut_ptr31_$LT$impl$u20$$BP$mut$u20$T$GT$13guaranteed_eq17h08489013319d49f3E
	.globl	_ZN4core3ptr7mut_ptr31_$LT$impl$u20$$BP$mut$u20$T$GT$13guaranteed_eq17h08489013319d49f3E
	.p2align	4, 0x90
_ZN4core3ptr7mut_ptr31_$LT$impl$u20$$BP$mut$u20$T$GT$13guaranteed_eq17h08489013319d49f3E:
.Lfunc_begin42:
	.cv_func_id 50
	.cv_file	15 "/rustc/90743e7298aca107ddaa0c202a4d3604e29bfeb6\\library\\core\\src\\ptr\\mut_ptr.rs" "D015765D1599B712F88DDDB1DF399656B653F0B6" 2
	.cv_loc	50 15 724 0
.seh_proc _ZN4core3ptr7mut_ptr31_$LT$impl$u20$$BP$mut$u20$T$GT$13guaranteed_eq17h08489013319d49f3E
	subq	$48, %rsp
	.seh_stackalloc 48
	.seh_endprologue
	movq	%rcx, 8(%rsp)
	movq	%rdx, 16(%rsp)
.Ltmp121:
	.cv_loc	50 15 728 0
	movq	%rcx, 24(%rsp)
	movq	%rdx, 32(%rsp)
.Ltmp122:
	.cv_file	16 "/rustc/90743e7298aca107ddaa0c202a4d3604e29bfeb6\\library\\core\\src\\ptr\\const_ptr.rs" "B3C5B6FD7E473E096AA65EC74D4255A7BD5C2079" 2
	.cv_inline_site_id 51 within 50 inlined_at 15 728 0
	.cv_loc	51 16 800 0
	cmpq	%rdx, %rcx
	sete	%al
	andb	$1, %al
	movb	%al, 46(%rsp)
	movb	46(%rsp), %al
	movb	%al, 6(%rsp)
	movb	6(%rsp), %al
	cmpb	$2, %al
	jne	.LBB42_3
	.cv_loc	51 16 801 0
	movb	$2, 7(%rsp)
	jmp	.LBB42_4
.LBB42_3:
	.cv_loc	51 16 802 0
	movb	6(%rsp), %al
	movb	%al, 47(%rsp)
.Ltmp123:
	.cv_loc	51 16 802 0
	cmpb	$1, %al
	sete	%al
	andb	$1, %al
	movb	%al, 7(%rsp)
.Ltmp124:
.LBB42_4:
	.cv_loc	50 15 729 0
	movb	7(%rsp), %al
	addq	$48, %rsp
	retq
.Ltmp125:
.Lfunc_end42:
	.seh_endproc

	.def	_ZN4core3ptr7mut_ptr31_$LT$impl$u20$$BP$mut$u20$T$GT$7is_null17haa5a7f8abc0bec9aE;
	.scl	2;
	.type	32;
	.endef
	.section	.text,"xr",one_only,_ZN4core3ptr7mut_ptr31_$LT$impl$u20$$BP$mut$u20$T$GT$7is_null17haa5a7f8abc0bec9aE
	.globl	_ZN4core3ptr7mut_ptr31_$LT$impl$u20$$BP$mut$u20$T$GT$7is_null17haa5a7f8abc0bec9aE
	.p2align	4, 0x90
_ZN4core3ptr7mut_ptr31_$LT$impl$u20$$BP$mut$u20$T$GT$7is_null17haa5a7f8abc0bec9aE:
.Lfunc_begin43:
	.cv_func_id 52
	.cv_loc	52 15 35 0
.seh_proc _ZN4core3ptr7mut_ptr31_$LT$impl$u20$$BP$mut$u20$T$GT$7is_null17haa5a7f8abc0bec9aE
	subq	$120, %rsp
	.seh_stackalloc 120
	.seh_endprologue
	movq	%rcx, 40(%rsp)
	movq	%rcx, 80(%rsp)
.Ltmp126:
	.cv_inline_site_id 53 within 52 inlined_at 15 38 0
	.cv_inline_site_id 54 within 53 inlined_at 9 682 0
	.cv_loc	54 9 578 0
	movq	$0, 96(%rsp)
	movq	96(%rsp), %rax
	movq	%rax, 48(%rsp)
	movq	%rax, 104(%rsp)
.Ltmp127:
	.cv_file	17 "/rustc/90743e7298aca107ddaa0c202a4d3604e29bfeb6\\library\\core\\src\\ptr\\metadata.rs" "A726CD1A3DCBA52B2BE9A777A4856782BE93C6ED" 2
	.cv_loc	54 17 134 0
	movq	40(%rsp), %rcx
	movq	48(%rsp), %rax
.Ltmp128:
	movq	%rax, 72(%rsp)
	movq	72(%rsp), %rax
	movq	%rax, 64(%rsp)
	movq	64(%rsp), %rdx
.Ltmp129:
	.cv_loc	52 15 38 0
	callq	_ZN4core3ptr7mut_ptr31_$LT$impl$u20$$BP$mut$u20$T$GT$13guaranteed_eq17h08489013319d49f3E
	movb	%al, 63(%rsp)
	movb	63(%rsp), %al
	addb	$-2, %al
	setne	%al
	movzbl	%al, %eax
	je	.LBB43_4
	jmp	.LBB43_7
.LBB43_7:
	jmp	.LBB43_5
	ud2
.LBB43_4:
	.cv_loc	52 15 39 0
	movb	$0, 62(%rsp)
	jmp	.LBB43_6
.LBB43_5:
	.cv_loc	52 15 40 0
	movb	63(%rsp), %al
	movb	%al, %cl
	andb	$1, %cl
	movb	%cl, 119(%rsp)
.Ltmp130:
	.cv_loc	52 15 40 0
	andb	$1, %al
	movb	%al, 62(%rsp)
.Ltmp131:
.LBB43_6:
	.cv_loc	52 15 42 0
	movb	62(%rsp), %al
	andb	$1, %al
	movzbl	%al, %eax
	addq	$120, %rsp
	retq
.Ltmp132:
.Lfunc_end43:
	.seh_endproc

	.def	_ZN4core3ptr9const_ptr33_$LT$impl$u20$$BP$const$u20$T$GT$7is_null17h86ec2485dff9126cE;
	.scl	2;
	.type	32;
	.endef
	.section	.text,"xr",one_only,_ZN4core3ptr9const_ptr33_$LT$impl$u20$$BP$const$u20$T$GT$7is_null17h86ec2485dff9126cE
	.globl	_ZN4core3ptr9const_ptr33_$LT$impl$u20$$BP$const$u20$T$GT$7is_null17h86ec2485dff9126cE
	.p2align	4, 0x90
_ZN4core3ptr9const_ptr33_$LT$impl$u20$$BP$const$u20$T$GT$7is_null17h86ec2485dff9126cE:
.Lfunc_begin44:
	.cv_func_id 55
	.cv_loc	55 16 36 0
.seh_proc _ZN4core3ptr9const_ptr33_$LT$impl$u20$$BP$const$u20$T$GT$7is_null17h86ec2485dff9126cE
	subq	$104, %rsp
	.seh_stackalloc 104
	.seh_endprologue
	movq	%rcx, 8(%rsp)
	movq	%rcx, 48(%rsp)
.Ltmp133:
	.cv_loc	55 16 39 0
	movq	%rcx, 64(%rsp)
.Ltmp134:
	.cv_inline_site_id 56 within 55 inlined_at 16 39 0
	.cv_inline_site_id 57 within 56 inlined_at 9 516 0
	.cv_loc	57 9 547 0
	movq	$0, 72(%rsp)
	movq	72(%rsp), %rax
	movq	%rax, 16(%rsp)
	movq	%rax, 80(%rsp)
.Ltmp135:
	.cv_loc	57 17 117 0
	movq	8(%rsp), %rax
	movq	16(%rsp), %rcx
.Ltmp136:
	movq	%rcx, 40(%rsp)
	movq	40(%rsp), %rcx
	movq	%rcx, 32(%rsp)
	movq	32(%rsp), %rcx
	movq	%rcx, 88(%rsp)
.Ltmp137:
	.cv_loc	56 16 800 0
	cmpq	%rcx, %rax
	sete	%al
	andb	$1, %al
	movb	%al, 101(%rsp)
	movb	101(%rsp), %al
	movb	%al, 7(%rsp)
	movb	7(%rsp), %al
	cmpb	$2, %al
	jne	.LBB44_4
	.cv_loc	56 16 801 0
	movb	$2, 31(%rsp)
	jmp	.LBB44_5
.LBB44_4:
	.cv_loc	56 16 802 0
	movb	7(%rsp), %al
	movb	%al, 102(%rsp)
.Ltmp138:
	.cv_loc	56 16 802 0
	cmpb	$1, %al
	sete	%al
	andb	$1, %al
	movb	%al, 31(%rsp)
.Ltmp139:
.LBB44_5:
	.cv_loc	55 16 39 0
	movb	31(%rsp), %al
	addb	$-2, %al
	setne	%al
	movzbl	%al, %eax
	je	.LBB44_7
	jmp	.LBB44_10
.LBB44_10:
	jmp	.LBB44_8
	ud2
.LBB44_7:
	.cv_loc	55 16 40 0
	movb	$0, 30(%rsp)
	jmp	.LBB44_9
.LBB44_8:
	.cv_loc	55 16 41 0
	movb	31(%rsp), %al
	movb	%al, %cl
	andb	$1, %cl
	movb	%cl, 103(%rsp)
.Ltmp140:
	.cv_loc	55 16 41 0
	andb	$1, %al
	movb	%al, 30(%rsp)
.Ltmp141:
.LBB44_9:
	.cv_loc	55 16 43 0
	movb	30(%rsp), %al
	andb	$1, %al
	movzbl	%al, %eax
	addq	$104, %rsp
	retq
.Ltmp142:
.Lfunc_end44:
	.seh_endproc

	.def	_ZN4core3ptr9const_ptr33_$LT$impl$u20$$BP$const$u20$T$GT$7is_null17hfdf3c358f696b9e1E;
	.scl	2;
	.type	32;
	.endef
	.section	.text,"xr",one_only,_ZN4core3ptr9const_ptr33_$LT$impl$u20$$BP$const$u20$T$GT$7is_null17hfdf3c358f696b9e1E
	.globl	_ZN4core3ptr9const_ptr33_$LT$impl$u20$$BP$const$u20$T$GT$7is_null17hfdf3c358f696b9e1E
	.p2align	4, 0x90
_ZN4core3ptr9const_ptr33_$LT$impl$u20$$BP$const$u20$T$GT$7is_null17hfdf3c358f696b9e1E:
.Lfunc_begin45:
	.cv_func_id 58
	.cv_loc	58 16 36 0
.seh_proc _ZN4core3ptr9const_ptr33_$LT$impl$u20$$BP$const$u20$T$GT$7is_null17hfdf3c358f696b9e1E
	subq	$104, %rsp
	.seh_stackalloc 104
	.seh_endprologue
	movq	%rcx, 8(%rsp)
	movq	%rcx, 48(%rsp)
.Ltmp143:
	.cv_loc	58 16 39 0
	movq	%rcx, 64(%rsp)
.Ltmp144:
	.cv_inline_site_id 59 within 58 inlined_at 16 39 0
	.cv_inline_site_id 60 within 59 inlined_at 9 516 0
	.cv_loc	60 9 547 0
	movq	$0, 72(%rsp)
	movq	72(%rsp), %rax
	movq	%rax, 16(%rsp)
	movq	%rax, 80(%rsp)
.Ltmp145:
	.cv_loc	60 17 117 0
	movq	8(%rsp), %rax
	movq	16(%rsp), %rcx
.Ltmp146:
	movq	%rcx, 40(%rsp)
	movq	40(%rsp), %rcx
	movq	%rcx, 32(%rsp)
	movq	32(%rsp), %rcx
	movq	%rcx, 88(%rsp)
.Ltmp147:
	.cv_loc	59 16 800 0
	cmpq	%rcx, %rax
	sete	%al
	andb	$1, %al
	movb	%al, 101(%rsp)
	movb	101(%rsp), %al
	movb	%al, 7(%rsp)
	movb	7(%rsp), %al
	cmpb	$2, %al
	jne	.LBB45_4
	.cv_loc	59 16 801 0
	movb	$2, 31(%rsp)
	jmp	.LBB45_5
.LBB45_4:
	.cv_loc	59 16 802 0
	movb	7(%rsp), %al
	movb	%al, 102(%rsp)
.Ltmp148:
	.cv_loc	59 16 802 0
	cmpb	$1, %al
	sete	%al
	andb	$1, %al
	movb	%al, 31(%rsp)
.Ltmp149:
.LBB45_5:
	.cv_loc	58 16 39 0
	movb	31(%rsp), %al
	addb	$-2, %al
	setne	%al
	movzbl	%al, %eax
	je	.LBB45_7
	jmp	.LBB45_10
.LBB45_10:
	jmp	.LBB45_8
	ud2
.LBB45_7:
	.cv_loc	58 16 40 0
	movb	$0, 30(%rsp)
	jmp	.LBB45_9
.LBB45_8:
	.cv_loc	58 16 41 0
	movb	31(%rsp), %al
	movb	%al, %cl
	andb	$1, %cl
	movb	%cl, 103(%rsp)
.Ltmp150:
	.cv_loc	58 16 41 0
	andb	$1, %al
	movb	%al, 30(%rsp)
.Ltmp151:
.LBB45_9:
	.cv_loc	58 16 43 0
	movb	30(%rsp), %al
	andb	$1, %al
	movzbl	%al, %eax
	addq	$104, %rsp
	retq
.Ltmp152:
.Lfunc_end45:
	.seh_endproc

	.def	_ZN4core3str21_$LT$impl$u20$str$GT$20eq_ignore_ascii_case17h3b4ba7f2fd3fb5d9E;
	.scl	3;
	.type	32;
	.endef
	.section	.text,"xr",one_only,_ZN4core3str21_$LT$impl$u20$str$GT$20eq_ignore_ascii_case17h3b4ba7f2fd3fb5d9E
	.p2align	4, 0x90
_ZN4core3str21_$LT$impl$u20$str$GT$20eq_ignore_ascii_case17h3b4ba7f2fd3fb5d9E:
.Lfunc_begin46:
	.cv_func_id 61
	.cv_file	18 "/rustc/90743e7298aca107ddaa0c202a4d3604e29bfeb6\\library\\core\\src\\str\\mod.rs" "77E62A9E926C23A3AEB7F6D06B34BDDDE52E39AC" 2
	.cv_loc	61 18 2378 0
.seh_proc _ZN4core3str21_$LT$impl$u20$str$GT$20eq_ignore_ascii_case17h3b4ba7f2fd3fb5d9E
	subq	$184, %rsp
	.seh_stackalloc 184
	.seh_endprologue
	movq	%r9, 56(%rsp)
	movq	%r8, 64(%rsp)
	movq	%rcx, 88(%rsp)
	movq	%rdx, 96(%rsp)
	movq	%r8, 104(%rsp)
	movq	%r9, 112(%rsp)
.Ltmp153:
	.cv_loc	61 18 2379 0
	movq	%rcx, 120(%rsp)
	movq	%rdx, 128(%rsp)
.Ltmp154:
	.cv_inline_site_id 62 within 61 inlined_at 18 2379 0
	.cv_loc	62 18 327 0
	movq	%rcx, 136(%rsp)
	movq	%rdx, 144(%rsp)
	movq	136(%rsp), %rax
	movq	%rax, 72(%rsp)
	movq	144(%rsp), %rax
	movq	%rax, 80(%rsp)
.Ltmp155:
	.cv_loc	61 18 2379 0
	movq	56(%rsp), %rax
	movq	64(%rsp), %rcx
	movq	%rcx, 152(%rsp)
	movq	%rax, 160(%rsp)
.Ltmp156:
	.cv_loc	62 18 327 0
	movq	%rcx, 168(%rsp)
	movq	%rax, 176(%rsp)
	movq	168(%rsp), %rax
	movq	%rax, 40(%rsp)
	movq	176(%rsp), %rax
	movq	%rax, 48(%rsp)
.Ltmp157:
	.cv_loc	61 18 2379 0
	movq	48(%rsp), %r9
	movq	40(%rsp), %r8
	movq	80(%rsp), %rdx
	movq	72(%rsp), %rcx
	callq	_ZN4core5slice5ascii30_$LT$impl$u20$$u5b$u8$u5d$$GT$20eq_ignore_ascii_case17h7863e946041fbce9E
	movb	%al, 39(%rsp)
	.cv_loc	61 18 2380 0
	movb	39(%rsp), %al
	andb	$1, %al
	movzbl	%al, %eax
	addq	$184, %rsp
	retq
.Ltmp158:
.Lfunc_end46:
	.seh_endproc

	.def	_ZN4core4iter6traits8iterator8Iterator3all5check28_$u7b$$u7b$closure$u7d$$u7d$17h3ed9dd225f832ab3E;
	.scl	2;
	.type	32;
	.endef
	.section	.text,"xr",one_only,_ZN4core4iter6traits8iterator8Iterator3all5check28_$u7b$$u7b$closure$u7d$$u7d$17h3ed9dd225f832ab3E
	.globl	_ZN4core4iter6traits8iterator8Iterator3all5check28_$u7b$$u7b$closure$u7d$$u7d$17h3ed9dd225f832ab3E
	.p2align	4, 0x90
_ZN4core4iter6traits8iterator8Iterator3all5check28_$u7b$$u7b$closure$u7d$$u7d$17h3ed9dd225f832ab3E:
.Lfunc_begin47:
	.cv_func_id 63
	.cv_file	19 "/rustc/90743e7298aca107ddaa0c202a4d3604e29bfeb6\\library\\core\\src\\iter\\traits\\iterator.rs" "F154A1C522132BA997B73F8A8AF859EB8B18D482" 2
	.cv_loc	63 19 2579 0
.seh_proc _ZN4core4iter6traits8iterator8Iterator3all5check28_$u7b$$u7b$closure$u7d$$u7d$17h3ed9dd225f832ab3E
	subq	$88, %rsp
	.seh_stackalloc 88
	.seh_endprologue
	movq	%rcx, 56(%rsp)
	movq	%rdx, 72(%rsp)
	movq	%r8, 80(%rsp)
.Ltmp159:
	.cv_loc	63 19 2580 0
	movq	%rdx, 40(%rsp)
	movq	%r8, 48(%rsp)
	movq	40(%rsp), %rdx
	movq	48(%rsp), %r8
	callq	_ZN4core5slice5ascii30_$LT$impl$u20$$u5b$u8$u5d$$GT$20eq_ignore_ascii_case28_$u7b$$u7b$closure$u7d$$u7d$17h376647092af66401E
	movb	%al, 38(%rsp)
	movb	38(%rsp), %al
	testb	$1, %al
	jne	.LBB47_3
	jmp	.LBB47_2
.LBB47_2:
	movb	$1, 39(%rsp)
	jmp	.LBB47_4
.LBB47_3:
	movb	$0, 39(%rsp)
.LBB47_4:
	.cv_loc	63 19 2581 0
	movb	39(%rsp), %al
	andb	$1, %al
	movzbl	%al, %eax
	addq	$88, %rsp
	retq
.Ltmp160:
.Lfunc_end47:
	.seh_endproc

	.def	_ZN4core4iter6traits8iterator8Iterator3map17h16434b8f8877369cE;
	.scl	2;
	.type	32;
	.endef
	.section	.text,"xr",one_only,_ZN4core4iter6traits8iterator8Iterator3map17h16434b8f8877369cE
	.globl	_ZN4core4iter6traits8iterator8Iterator3map17h16434b8f8877369cE
	.p2align	4, 0x90
_ZN4core4iter6traits8iterator8Iterator3map17h16434b8f8877369cE:
.Lfunc_begin48:
	.cv_func_id 64
	.cv_loc	64 19 776 0
.seh_proc _ZN4core4iter6traits8iterator8Iterator3map17h16434b8f8877369cE
	subq	$72, %rsp
	.seh_stackalloc 72
	.seh_endprologue
	movq	%rcx, 48(%rsp)
	movq	%rdx, 56(%rsp)
.Ltmp161:
	.cv_loc	64 19 781 0
	callq	_ZN4core4iter8adapters3map16Map$LT$I$C$F$GT$3new17h78d0064d6a633f39E
	movq	%rax, 32(%rsp)
	movq	%rdx, 40(%rsp)
	.cv_loc	64 19 782 0
	movq	40(%rsp), %rdx
	movq	32(%rsp), %rax
	addq	$72, %rsp
	retq
.Ltmp162:
.Lfunc_end48:
	.seh_endproc

	.def	_ZN4core4iter6traits8iterator8Iterator3map17h632504625c82fd6cE;
	.scl	2;
	.type	32;
	.endef
	.section	.text,"xr",one_only,_ZN4core4iter6traits8iterator8Iterator3map17h632504625c82fd6cE
	.globl	_ZN4core4iter6traits8iterator8Iterator3map17h632504625c82fd6cE
	.p2align	4, 0x90
_ZN4core4iter6traits8iterator8Iterator3map17h632504625c82fd6cE:
.Lfunc_begin49:
	.cv_func_id 65
	.cv_loc	65 19 776 0
.seh_proc _ZN4core4iter6traits8iterator8Iterator3map17h632504625c82fd6cE
	subq	$72, %rsp
	.seh_stackalloc 72
	.seh_endprologue
	movq	%rcx, 48(%rsp)
	movq	%rdx, 56(%rsp)
.Ltmp163:
	.cv_loc	65 19 781 0
	callq	_ZN4core4iter8adapters3map16Map$LT$I$C$F$GT$3new17hf68e1be21d3ad125E
	movq	%rax, 32(%rsp)
	movq	%rdx, 40(%rsp)
	.cv_loc	65 19 782 0
	movq	40(%rsp), %rdx
	movq	32(%rsp), %rax
	addq	$72, %rsp
	retq
.Ltmp164:
.Lfunc_end49:
	.seh_endproc

	.def	_ZN4core4iter6traits8iterator8Iterator3map17hd42082a1346c0de5E;
	.scl	2;
	.type	32;
	.endef
	.section	.text,"xr",one_only,_ZN4core4iter6traits8iterator8Iterator3map17hd42082a1346c0de5E
	.globl	_ZN4core4iter6traits8iterator8Iterator3map17hd42082a1346c0de5E
	.p2align	4, 0x90
_ZN4core4iter6traits8iterator8Iterator3map17hd42082a1346c0de5E:
.Lfunc_begin50:
	.cv_func_id 66
	.cv_loc	66 19 776 0
.seh_proc _ZN4core4iter6traits8iterator8Iterator3map17hd42082a1346c0de5E
	subq	$72, %rsp
	.seh_stackalloc 72
	.seh_endprologue
	movq	%rcx, 48(%rsp)
	movq	%rdx, 56(%rsp)
.Ltmp165:
	.cv_loc	66 19 781 0
	callq	_ZN4core4iter8adapters3map16Map$LT$I$C$F$GT$3new17ha61f51fca616a493E
	movq	%rax, 32(%rsp)
	movq	%rdx, 40(%rsp)
	.cv_loc	66 19 782 0
	movq	40(%rsp), %rdx
	movq	32(%rsp), %rax
	addq	$72, %rsp
	retq
.Ltmp166:
.Lfunc_end50:
	.seh_endproc

	.def	_ZN4core4iter6traits8iterator8Iterator4find17hbe0b4e566e9284baE;
	.scl	2;
	.type	32;
	.endef
	.section	.text,"xr",one_only,_ZN4core4iter6traits8iterator8Iterator4find17hbe0b4e566e9284baE
	.globl	_ZN4core4iter6traits8iterator8Iterator4find17hbe0b4e566e9284baE
	.p2align	4, 0x90
_ZN4core4iter6traits8iterator8Iterator4find17hbe0b4e566e9284baE:
.Lfunc_begin51:
	.cv_func_id 67
	.cv_loc	67 19 2685 0
.seh_proc _ZN4core4iter6traits8iterator8Iterator4find17hbe0b4e566e9284baE
	subq	$104, %rsp
	.seh_stackalloc 104
	.seh_endprologue
	movq	%rcx, 80(%rsp)
	movq	%rdx, 88(%rsp)
.Ltmp167:
	.cv_loc	67 19 2697 0
	movq	%rdx, 96(%rsp)
.Ltmp168:
	.cv_inline_site_id 68 within 67 inlined_at 19 2697 0
	.cv_loc	68 19 2692 0
	movq	%rdx, 72(%rsp)
.Ltmp169:
	.cv_loc	67 19 2697 0
	movq	72(%rsp), %rdx
	callq	_ZN4core4iter6traits8iterator8Iterator8try_fold17h44f0e7ac678bad70E
	movq	%rax, 56(%rsp)
	movq	%rdx, 64(%rsp)
	movq	64(%rsp), %rdx
	movq	56(%rsp), %rcx
	callq	_ZN4core3ops12control_flow24ControlFlow$LT$B$C$C$GT$11break_value17h432d2adb861a0e05E
	movq	%rax, 40(%rsp)
	movq	%rdx, 48(%rsp)
	.cv_loc	67 19 2698 0
	movq	48(%rsp), %rdx
	movq	40(%rsp), %rax
	addq	$104, %rsp
	retq
.Ltmp170:
.Lfunc_end51:
	.seh_endproc

	.def	_ZN4core4iter6traits8iterator8Iterator4find5check28_$u7b$$u7b$closure$u7d$$u7d$17hb1877abfa04c07c1E;
	.scl	2;
	.type	32;
	.endef
	.section	.text,"xr",one_only,_ZN4core4iter6traits8iterator8Iterator4find5check28_$u7b$$u7b$closure$u7d$$u7d$17hb1877abfa04c07c1E
	.globl	_ZN4core4iter6traits8iterator8Iterator4find5check28_$u7b$$u7b$closure$u7d$$u7d$17hb1877abfa04c07c1E
	.p2align	4, 0x90
_ZN4core4iter6traits8iterator8Iterator4find5check28_$u7b$$u7b$closure$u7d$$u7d$17hb1877abfa04c07c1E:
.Lfunc_begin52:
	.cv_func_id 69
	.cv_loc	69 19 2692 0
.seh_proc _ZN4core4iter6traits8iterator8Iterator4find5check28_$u7b$$u7b$closure$u7d$$u7d$17hb1877abfa04c07c1E
	.seh_handler __CxxFrameHandler3, @unwind, @except
	pushq	%rbp
	.seh_pushreg %rbp
	subq	$96, %rsp
	.seh_stackalloc 96
	leaq	96(%rsp), %rbp
	.seh_setframe %rbp, 96
	.seh_endprologue
	movq	$-2, -8(%rbp)
	movq	%rdx, -56(%rbp)
	movq	%rcx, -16(%rbp)
.Ltmp173:
	.cv_loc	69 19 2693 0
	movb	$1, -17(%rbp)
	leaq	-56(%rbp), %rax
	movq	%rax, -32(%rbp)
	movq	-32(%rbp), %rdx
.Ltmp171:
	callq	_ZN4core3ops8function5impls79_$LT$impl$u20$core..ops..function..FnMut$LT$A$GT$$u20$for$u20$$RF$mut$u20$F$GT$8call_mut17h940da3f001369628E
.Ltmp172:
	movb	%al, -57(%rbp)
	jmp	.LBB52_2
.LBB52_2:
	movb	-57(%rbp), %al
	testb	$1, %al
	jne	.LBB52_4
	jmp	.LBB52_3
.LBB52_3:
	movq	$0, -48(%rbp)
	movq	%rax, -40(%rbp)
	jmp	.LBB52_5
.LBB52_4:
	movb	$0, -17(%rbp)
	movq	-56(%rbp), %rax
	movq	%rax, -40(%rbp)
	movq	$1, -48(%rbp)
.LBB52_5:
	.cv_loc	69 19 2694 0
	testb	$1, -17(%rbp)
	jne	.LBB52_7
.LBB52_6:
	movq	-48(%rbp), %rax
	movq	-40(%rbp), %rdx
	addq	$96, %rsp
	popq	%rbp
	retq
.LBB52_7:
	jmp	.LBB52_6
	.seh_handlerdata
	.long	($cppxdata$_ZN4core4iter6traits8iterator8Iterator4find5check28_$u7b$$u7b$closure$u7d$$u7d$17hb1877abfa04c07c1E)@IMGREL
	.section	.text,"xr",one_only,_ZN4core4iter6traits8iterator8Iterator4find5check28_$u7b$$u7b$closure$u7d$$u7d$17hb1877abfa04c07c1E
	.seh_endproc
	.def	"?dtor$1@?0?_ZN4core4iter6traits8iterator8Iterator4find5check28_$u7b$$u7b$closure$u7d$$u7d$17hb1877abfa04c07c1E@4HA";
	.scl	3;
	.type	32;
	.endef
	.p2align	4, 0x90
"?dtor$1@?0?_ZN4core4iter6traits8iterator8Iterator4find5check28_$u7b$$u7b$closure$u7d$$u7d$17hb1877abfa04c07c1E@4HA":
.seh_proc "?dtor$1@?0?_ZN4core4iter6traits8iterator8Iterator4find5check28_$u7b$$u7b$closure$u7d$$u7d$17hb1877abfa04c07c1E@4HA"
.LBB52_1:
	movq	%rdx, 16(%rsp)
	pushq	%rbp
	.seh_pushreg %rbp
	subq	$32, %rsp
	.seh_stackalloc 32
	leaq	96(%rdx), %rbp
	.seh_endprologue
	.cv_loc	69 19 2692 0
	addq	$32, %rsp
	popq	%rbp
	retq
.Ltmp174:
.Lfunc_end52:
	.seh_handlerdata
	.section	.text,"xr",one_only,_ZN4core4iter6traits8iterator8Iterator4find5check28_$u7b$$u7b$closure$u7d$$u7d$17hb1877abfa04c07c1E
	.seh_endproc
	.section	.xdata,"dr",associative,_ZN4core4iter6traits8iterator8Iterator4find5check28_$u7b$$u7b$closure$u7d$$u7d$17hb1877abfa04c07c1E
	.p2align	2
$cppxdata$_ZN4core4iter6traits8iterator8Iterator4find5check28_$u7b$$u7b$closure$u7d$$u7d$17hb1877abfa04c07c1E:
	.long	429065506
	.long	1
	.long	($stateUnwindMap$_ZN4core4iter6traits8iterator8Iterator4find5check28_$u7b$$u7b$closure$u7d$$u7d$17hb1877abfa04c07c1E)@IMGREL
	.long	0
	.long	0
	.long	3
	.long	($ip2state$_ZN4core4iter6traits8iterator8Iterator4find5check28_$u7b$$u7b$closure$u7d$$u7d$17hb1877abfa04c07c1E)@IMGREL
	.long	88
	.long	0
	.long	1
$stateUnwindMap$_ZN4core4iter6traits8iterator8Iterator4find5check28_$u7b$$u7b$closure$u7d$$u7d$17hb1877abfa04c07c1E:
	.long	-1
	.long	"?dtor$1@?0?_ZN4core4iter6traits8iterator8Iterator4find5check28_$u7b$$u7b$closure$u7d$$u7d$17hb1877abfa04c07c1E@4HA"@IMGREL
$ip2state$_ZN4core4iter6traits8iterator8Iterator4find5check28_$u7b$$u7b$closure$u7d$$u7d$17hb1877abfa04c07c1E:
	.long	.Lfunc_begin52@IMGREL
	.long	-1
	.long	.Ltmp171@IMGREL+1
	.long	0
	.long	.Ltmp172@IMGREL+1
	.long	-1
	.section	.text,"xr",one_only,_ZN4core4iter6traits8iterator8Iterator4find5check28_$u7b$$u7b$closure$u7d$$u7d$17hb1877abfa04c07c1E

	.def	_ZN4core4iter6traits8iterator8Iterator6filter17h6147e259e23c173aE;
	.scl	2;
	.type	32;
	.endef
	.section	.text,"xr",one_only,_ZN4core4iter6traits8iterator8Iterator6filter17h6147e259e23c173aE
	.globl	_ZN4core4iter6traits8iterator8Iterator6filter17h6147e259e23c173aE
	.p2align	4, 0x90
_ZN4core4iter6traits8iterator8Iterator6filter17h6147e259e23c173aE:
.Lfunc_begin53:
	.cv_func_id 70
	.cv_loc	70 19 896 0
.seh_proc _ZN4core4iter6traits8iterator8Iterator6filter17h6147e259e23c173aE
	subq	$72, %rsp
	.seh_stackalloc 72
	.seh_endprologue
	movq	%rcx, 48(%rsp)
	movq	%rdx, 56(%rsp)
.Ltmp175:
	.cv_loc	70 19 901 0
	callq	_ZN4core4iter8adapters6filter19Filter$LT$I$C$P$GT$3new17hc11528c9c8cf3e33E
	movq	%rax, 32(%rsp)
	movq	%rdx, 40(%rsp)
	.cv_loc	70 19 902 0
	movq	40(%rsp), %rdx
	movq	32(%rsp), %rax
	addq	$72, %rsp
	retq
.Ltmp176:
.Lfunc_end53:
	.seh_endproc

	.def	_ZN4core4iter6traits8iterator8Iterator8try_fold17h09599ec554a4d3e9E;
	.scl	2;
	.type	32;
	.endef
	.section	.text,"xr",one_only,_ZN4core4iter6traits8iterator8Iterator8try_fold17h09599ec554a4d3e9E
	.globl	_ZN4core4iter6traits8iterator8Iterator8try_fold17h09599ec554a4d3e9E
	.p2align	4, 0x90
_ZN4core4iter6traits8iterator8Iterator8try_fold17h09599ec554a4d3e9E:
.Lfunc_begin54:
	.cv_func_id 71
	.cv_loc	71 19 2230 0
.seh_proc _ZN4core4iter6traits8iterator8Iterator8try_fold17h09599ec554a4d3e9E
	.seh_handler __CxxFrameHandler3, @unwind, @except
	pushq	%rbp
	.seh_pushreg %rbp
	subq	$160, %rsp
	.seh_stackalloc 160
	leaq	128(%rsp), %rbp
	.seh_setframe %rbp, 128
	.seh_endprologue
	movq	$-2, 24(%rbp)
	movq	%rcx, -64(%rbp)
	movq	%rcx, (%rbp)
.Ltmp187:
	.cv_loc	71 19 2236 0
	movb	$1, -1(%rbp)
.LBB54_1:
	.cv_loc	71 19 2237 0
.Ltmp177:
	movq	-64(%rbp), %rcx
.Ltmp188:
	callq	_ZN102_$LT$core..iter..adapters..zip..Zip$LT$A$C$B$GT$$u20$as$u20$core..iter..traits..iterator..Iterator$GT$4next17hc56ee70140b91535E
.Ltmp178:
	movq	%rdx, -80(%rbp)
	movq	%rax, -72(%rbp)
	jmp	.LBB54_3
.LBB54_3:
	movq	-80(%rbp), %rax
	movq	-72(%rbp), %rcx
	movq	%rcx, -48(%rbp)
	movq	%rax, -40(%rbp)
	movl	$1, %eax
	xorl	%ecx, %ecx
	cmpq	$0, -48(%rbp)
	cmoveq	%rcx, %rax
	cmpq	$1, %rax
	jne	.LBB54_5
	movq	-48(%rbp), %rcx
	movq	-40(%rbp), %rax
	movq	%rcx, 8(%rbp)
	movq	%rax, 16(%rbp)
	.cv_loc	71 19 2238 0
	movb	$0, -1(%rbp)
	movq	%rcx, -24(%rbp)
	movq	%rax, -16(%rbp)
	movq	-24(%rbp), %rdx
	movq	-16(%rbp), %r8
.Ltmp181:
	leaq	-56(%rbp), %rcx
	callq	_ZN4core4iter6traits8iterator8Iterator3all5check28_$u7b$$u7b$closure$u7d$$u7d$17h3ed9dd225f832ab3E
.Ltmp182:
	movb	%al, -81(%rbp)
	jmp	.LBB54_8
.Ltmp189:
.LBB54_5:
	.cv_loc	71 19 2240 0
	movb	$0, -1(%rbp)
.Ltmp179:
	callq	_ZN95_$LT$core..ops..control_flow..ControlFlow$LT$B$C$C$GT$$u20$as$u20$core..ops..try_trait..Try$GT$11from_output17h956e3e9ed19b3af9E
.Ltmp180:
	movb	%al, -82(%rbp)
	jmp	.LBB54_6
.LBB54_6:
	movb	-82(%rbp), %al
	andb	$1, %al
	movb	%al, -49(%rbp)
.Ltmp190:
.LBB54_7:
	.cv_loc	71 19 2241 0
	movb	-49(%rbp), %al
	andb	$1, %al
	movzbl	%al, %eax
	addq	$160, %rsp
	popq	%rbp
	retq
.LBB54_8:
	.cv_loc	71 19 2238 0
.Ltmp183:
	movb	-81(%rbp), %cl
.Ltmp191:
	andb	$1, %cl
	callq	_ZN95_$LT$core..ops..control_flow..ControlFlow$LT$B$C$C$GT$$u20$as$u20$core..ops..try_trait..Try$GT$6branch17h885828ebc1b2e900E
.Ltmp184:
	movb	%al, -83(%rbp)
	jmp	.LBB54_9
.LBB54_9:
	movb	-83(%rbp), %al
	andb	$1, %al
	movb	%al, -25(%rbp)
	movzbl	-25(%rbp), %eax
	testb	$1, %al
	je	.LBB54_11
	jmp	.LBB54_16
.LBB54_16:
	jmp	.LBB54_12
	ud2
.LBB54_11:
	movb	$1, -1(%rbp)
.Ltmp192:
	.cv_loc	71 19 2237 0
	jmp	.LBB54_1
.LBB54_12:
	.cv_loc	71 19 2238 0
.Ltmp185:
.Ltmp193:
	callq	_ZN104_$LT$core..ops..control_flow..ControlFlow$LT$B$C$C$GT$$u20$as$u20$core..ops..try_trait..FromResidual$GT$13from_residual17h831146a9390be6a6E
.Ltmp186:
	movb	%al, -84(%rbp)
	jmp	.LBB54_13
.LBB54_13:
	movb	-84(%rbp), %al
	andb	$1, %al
	movb	%al, -49(%rbp)
.Ltmp194:
	.cv_loc	71 19 2241 0
	jmp	.LBB54_7
	.seh_handlerdata
	.long	($cppxdata$_ZN4core4iter6traits8iterator8Iterator8try_fold17h09599ec554a4d3e9E)@IMGREL
	.section	.text,"xr",one_only,_ZN4core4iter6traits8iterator8Iterator8try_fold17h09599ec554a4d3e9E
	.seh_endproc
	.def	"?dtor$2@?0?_ZN4core4iter6traits8iterator8Iterator8try_fold17h09599ec554a4d3e9E@4HA";
	.scl	3;
	.type	32;
	.endef
	.p2align	4, 0x90
"?dtor$2@?0?_ZN4core4iter6traits8iterator8Iterator8try_fold17h09599ec554a4d3e9E@4HA":
.seh_proc "?dtor$2@?0?_ZN4core4iter6traits8iterator8Iterator8try_fold17h09599ec554a4d3e9E@4HA"
.LBB54_2:
	movq	%rdx, 16(%rsp)
	pushq	%rbp
	.seh_pushreg %rbp
	subq	$32, %rsp
	.seh_stackalloc 32
	leaq	128(%rdx), %rbp
	.seh_endprologue
	testb	$1, -1(%rbp)
	jne	.LBB54_15
	jmp	.LBB54_14
.LBB54_14:
	.cv_loc	71 19 2230 0
	addq	$32, %rsp
	popq	%rbp
	retq
.LBB54_15:
	.cv_loc	71 19 2241 0
	jmp	.LBB54_14
.Ltmp195:
.Lfunc_end54:
	.seh_handlerdata
	.section	.text,"xr",one_only,_ZN4core4iter6traits8iterator8Iterator8try_fold17h09599ec554a4d3e9E
	.seh_endproc
	.section	.xdata,"dr",associative,_ZN4core4iter6traits8iterator8Iterator8try_fold17h09599ec554a4d3e9E
	.p2align	2
$cppxdata$_ZN4core4iter6traits8iterator8Iterator8try_fold17h09599ec554a4d3e9E:
	.long	429065506
	.long	1
	.long	($stateUnwindMap$_ZN4core4iter6traits8iterator8Iterator8try_fold17h09599ec554a4d3e9E)@IMGREL
	.long	0
	.long	0
	.long	3
	.long	($ip2state$_ZN4core4iter6traits8iterator8Iterator8try_fold17h09599ec554a4d3e9E)@IMGREL
	.long	152
	.long	0
	.long	1
$stateUnwindMap$_ZN4core4iter6traits8iterator8Iterator8try_fold17h09599ec554a4d3e9E:
	.long	-1
	.long	"?dtor$2@?0?_ZN4core4iter6traits8iterator8Iterator8try_fold17h09599ec554a4d3e9E@4HA"@IMGREL
$ip2state$_ZN4core4iter6traits8iterator8Iterator8try_fold17h09599ec554a4d3e9E:
	.long	.Lfunc_begin54@IMGREL
	.long	-1
	.long	.Ltmp177@IMGREL+1
	.long	0
	.long	.Ltmp186@IMGREL+1
	.long	-1
	.section	.text,"xr",one_only,_ZN4core4iter6traits8iterator8Iterator8try_fold17h09599ec554a4d3e9E

	.def	_ZN4core4iter6traits8iterator8Iterator8try_fold17h44f0e7ac678bad70E;
	.scl	2;
	.type	32;
	.endef
	.section	.text,"xr",one_only,_ZN4core4iter6traits8iterator8Iterator8try_fold17h44f0e7ac678bad70E
	.globl	_ZN4core4iter6traits8iterator8Iterator8try_fold17h44f0e7ac678bad70E
	.p2align	4, 0x90
_ZN4core4iter6traits8iterator8Iterator8try_fold17h44f0e7ac678bad70E:
.Lfunc_begin55:
	.cv_func_id 72
	.cv_loc	72 19 2230 0
.seh_proc _ZN4core4iter6traits8iterator8Iterator8try_fold17h44f0e7ac678bad70E
	.seh_handler __CxxFrameHandler3, @unwind, @except
	pushq	%rbp
	.seh_pushreg %rbp
	subq	$224, %rsp
	.seh_stackalloc 224
	leaq	128(%rsp), %rbp
	.seh_setframe %rbp, 128
	.seh_endprologue
	movq	$-2, 88(%rbp)
	movq	%rcx, -16(%rbp)
	movq	%rdx, -8(%rbp)
	movq	%rcx, 64(%rbp)
.Ltmp206:
	.cv_loc	72 19 2236 0
	movb	$1, 63(%rbp)
.LBB55_1:
	.cv_loc	72 19 2237 0
.Ltmp196:
	movq	-16(%rbp), %rcx
.Ltmp207:
	callq	_ZN90_$LT$core..option..IntoIter$LT$A$GT$$u20$as$u20$core..iter..traits..iterator..Iterator$GT$4next17h5396f4ea2083e534E
.Ltmp197:
	movq	%rdx, -32(%rbp)
	movq	%rax, -24(%rbp)
	jmp	.LBB55_3
.LBB55_3:
	movq	-32(%rbp), %rax
	movq	-24(%rbp), %rcx
	movq	%rcx, 16(%rbp)
	movq	%rax, 24(%rbp)
	cmpq	$1, 16(%rbp)
	jne	.LBB55_5
	movq	24(%rbp), %rax
	movq	%rax, 72(%rbp)
	.cv_loc	72 19 2238 0
	movb	$0, 63(%rbp)
	movq	%rax, 48(%rbp)
	movq	48(%rbp), %rdx
.Ltmp200:
	leaq	-8(%rbp), %rcx
	callq	_ZN4core4iter6traits8iterator8Iterator4find5check28_$u7b$$u7b$closure$u7d$$u7d$17hb1877abfa04c07c1E
.Ltmp201:
	movq	%rdx, -48(%rbp)
	movq	%rax, -40(%rbp)
	jmp	.LBB55_8
.Ltmp208:
.LBB55_5:
	.cv_loc	72 19 2240 0
	movb	$0, 63(%rbp)
.Ltmp198:
	callq	_ZN95_$LT$core..ops..control_flow..ControlFlow$LT$B$C$C$GT$$u20$as$u20$core..ops..try_trait..Try$GT$11from_output17hcfc05b57b3422b51E
.Ltmp199:
	movq	%rdx, -64(%rbp)
	movq	%rax, -56(%rbp)
	jmp	.LBB55_6
.LBB55_6:
	movq	-64(%rbp), %rax
	movq	-56(%rbp), %rcx
	movq	%rcx, (%rbp)
	movq	%rax, 8(%rbp)
.Ltmp209:
.LBB55_7:
	.cv_loc	72 19 2241 0
	movq	(%rbp), %rax
	movq	8(%rbp), %rdx
	addq	$224, %rsp
	popq	%rbp
	retq
.LBB55_8:
	.cv_loc	72 19 2238 0
.Ltmp202:
	movq	-48(%rbp), %rdx
	movq	-40(%rbp), %rcx
.Ltmp210:
	callq	_ZN95_$LT$core..ops..control_flow..ControlFlow$LT$B$C$C$GT$$u20$as$u20$core..ops..try_trait..Try$GT$6branch17h203fd3cf6fb17a13E
.Ltmp203:
	movq	%rdx, -80(%rbp)
	movq	%rax, -72(%rbp)
	jmp	.LBB55_9
.LBB55_9:
	movq	-80(%rbp), %rax
	movq	-72(%rbp), %rcx
	movq	%rcx, 32(%rbp)
	movq	%rax, 40(%rbp)
	movq	32(%rbp), %rax
	testq	%rax, %rax
	je	.LBB55_11
	jmp	.LBB55_16
.LBB55_16:
	jmp	.LBB55_12
	ud2
.LBB55_11:
	movb	$1, 63(%rbp)
.Ltmp211:
	.cv_loc	72 19 2237 0
	jmp	.LBB55_1
.LBB55_12:
.Ltmp212:
	.cv_loc	72 19 2238 0
	movq	40(%rbp), %rcx
	movq	%rcx, 80(%rbp)
	.cv_loc	72 19 2238 0
.Ltmp204:
.Ltmp213:
	callq	_ZN104_$LT$core..ops..control_flow..ControlFlow$LT$B$C$C$GT$$u20$as$u20$core..ops..try_trait..FromResidual$GT$13from_residual17h6dcb9715b5acdee2E
.Ltmp205:
	movq	%rdx, -96(%rbp)
	movq	%rax, -88(%rbp)
	jmp	.LBB55_13
.LBB55_13:
	movq	-96(%rbp), %rax
	movq	-88(%rbp), %rcx
	movq	%rcx, (%rbp)
	movq	%rax, 8(%rbp)
.Ltmp214:
	.cv_loc	72 19 2241 0
	jmp	.LBB55_7
	.seh_handlerdata
	.long	($cppxdata$_ZN4core4iter6traits8iterator8Iterator8try_fold17h44f0e7ac678bad70E)@IMGREL
	.section	.text,"xr",one_only,_ZN4core4iter6traits8iterator8Iterator8try_fold17h44f0e7ac678bad70E
	.seh_endproc
	.def	"?dtor$2@?0?_ZN4core4iter6traits8iterator8Iterator8try_fold17h44f0e7ac678bad70E@4HA";
	.scl	3;
	.type	32;
	.endef
	.p2align	4, 0x90
"?dtor$2@?0?_ZN4core4iter6traits8iterator8Iterator8try_fold17h44f0e7ac678bad70E@4HA":
.seh_proc "?dtor$2@?0?_ZN4core4iter6traits8iterator8Iterator8try_fold17h44f0e7ac678bad70E@4HA"
.LBB55_2:
	movq	%rdx, 16(%rsp)
	pushq	%rbp
	.seh_pushreg %rbp
	subq	$32, %rsp
	.seh_stackalloc 32
	leaq	128(%rdx), %rbp
	.seh_endprologue
	testb	$1, 63(%rbp)
	jne	.LBB55_15
	jmp	.LBB55_14
.LBB55_14:
	.cv_loc	72 19 2230 0
	addq	$32, %rsp
	popq	%rbp
	retq
.LBB55_15:
	.cv_loc	72 19 2241 0
	jmp	.LBB55_14
.Ltmp215:
.Lfunc_end55:
	.seh_handlerdata
	.section	.text,"xr",one_only,_ZN4core4iter6traits8iterator8Iterator8try_fold17h44f0e7ac678bad70E
	.seh_endproc
	.section	.xdata,"dr",associative,_ZN4core4iter6traits8iterator8Iterator8try_fold17h44f0e7ac678bad70E
	.p2align	2
$cppxdata$_ZN4core4iter6traits8iterator8Iterator8try_fold17h44f0e7ac678bad70E:
	.long	429065506
	.long	1
	.long	($stateUnwindMap$_ZN4core4iter6traits8iterator8Iterator8try_fold17h44f0e7ac678bad70E)@IMGREL
	.long	0
	.long	0
	.long	3
	.long	($ip2state$_ZN4core4iter6traits8iterator8Iterator8try_fold17h44f0e7ac678bad70E)@IMGREL
	.long	216
	.long	0
	.long	1
$stateUnwindMap$_ZN4core4iter6traits8iterator8Iterator8try_fold17h44f0e7ac678bad70E:
	.long	-1
	.long	"?dtor$2@?0?_ZN4core4iter6traits8iterator8Iterator8try_fold17h44f0e7ac678bad70E@4HA"@IMGREL
$ip2state$_ZN4core4iter6traits8iterator8Iterator8try_fold17h44f0e7ac678bad70E:
	.long	.Lfunc_begin55@IMGREL
	.long	-1
	.long	.Ltmp196@IMGREL+1
	.long	0
	.long	.Ltmp205@IMGREL+1
	.long	-1
	.section	.text,"xr",one_only,_ZN4core4iter6traits8iterator8Iterator8try_fold17h44f0e7ac678bad70E

	.def	_ZN4core4iter8adapters3map16Map$LT$I$C$F$GT$3new17h78d0064d6a633f39E;
	.scl	2;
	.type	32;
	.endef
	.section	.text,"xr",one_only,_ZN4core4iter8adapters3map16Map$LT$I$C$F$GT$3new17h78d0064d6a633f39E
	.globl	_ZN4core4iter8adapters3map16Map$LT$I$C$F$GT$3new17h78d0064d6a633f39E
	.p2align	4, 0x90
_ZN4core4iter8adapters3map16Map$LT$I$C$F$GT$3new17h78d0064d6a633f39E:
.Lfunc_begin56:
	.cv_func_id 73
	.cv_loc	73 1 68 0
.seh_proc _ZN4core4iter8adapters3map16Map$LT$I$C$F$GT$3new17h78d0064d6a633f39E
	subq	$40, %rsp
	.seh_stackalloc 40
	.seh_endprologue
	movq	%rcx, 16(%rsp)
	movq	%rdx, 24(%rsp)
.Ltmp216:
	.cv_loc	73 1 69 0
	movq	%rcx, (%rsp)
	movq	%rdx, 8(%rsp)
	.cv_loc	73 1 70 0
	movq	(%rsp), %rax
	movq	8(%rsp), %rdx
	addq	$40, %rsp
	retq
.Ltmp217:
.Lfunc_end56:
	.seh_endproc

	.def	_ZN4core4iter8adapters3map16Map$LT$I$C$F$GT$3new17ha61f51fca616a493E;
	.scl	2;
	.type	32;
	.endef
	.section	.text,"xr",one_only,_ZN4core4iter8adapters3map16Map$LT$I$C$F$GT$3new17ha61f51fca616a493E
	.globl	_ZN4core4iter8adapters3map16Map$LT$I$C$F$GT$3new17ha61f51fca616a493E
	.p2align	4, 0x90
_ZN4core4iter8adapters3map16Map$LT$I$C$F$GT$3new17ha61f51fca616a493E:
.Lfunc_begin57:
	.cv_func_id 74
	.cv_loc	74 1 68 0
.seh_proc _ZN4core4iter8adapters3map16Map$LT$I$C$F$GT$3new17ha61f51fca616a493E
	subq	$40, %rsp
	.seh_stackalloc 40
	.seh_endprologue
	movq	%rcx, 16(%rsp)
	movq	%rdx, 24(%rsp)
.Ltmp218:
	.cv_loc	74 1 69 0
	movq	%rcx, (%rsp)
	movq	%rdx, 8(%rsp)
	.cv_loc	74 1 70 0
	movq	(%rsp), %rax
	movq	8(%rsp), %rdx
	addq	$40, %rsp
	retq
.Ltmp219:
.Lfunc_end57:
	.seh_endproc

	.def	_ZN4core4iter8adapters3map16Map$LT$I$C$F$GT$3new17hf68e1be21d3ad125E;
	.scl	2;
	.type	32;
	.endef
	.section	.text,"xr",one_only,_ZN4core4iter8adapters3map16Map$LT$I$C$F$GT$3new17hf68e1be21d3ad125E
	.globl	_ZN4core4iter8adapters3map16Map$LT$I$C$F$GT$3new17hf68e1be21d3ad125E
	.p2align	4, 0x90
_ZN4core4iter8adapters3map16Map$LT$I$C$F$GT$3new17hf68e1be21d3ad125E:
.Lfunc_begin58:
	.cv_func_id 75
	.cv_loc	75 1 68 0
.seh_proc _ZN4core4iter8adapters3map16Map$LT$I$C$F$GT$3new17hf68e1be21d3ad125E
	subq	$40, %rsp
	.seh_stackalloc 40
	.seh_endprologue
	movq	%rcx, 16(%rsp)
	movq	%rdx, 24(%rsp)
.Ltmp220:
	.cv_loc	75 1 69 0
	movq	%rcx, (%rsp)
	movq	%rdx, 8(%rsp)
	.cv_loc	75 1 70 0
	movq	(%rsp), %rax
	movq	8(%rsp), %rdx
	addq	$40, %rsp
	retq
.Ltmp221:
.Lfunc_end58:
	.seh_endproc

	.def	_ZN4core4iter8adapters3zip27TrustedRandomAccessNoCoerce4size17ha9621aa0bb33d93eE;
	.scl	2;
	.type	32;
	.endef
	.section	.text,"xr",one_only,_ZN4core4iter8adapters3zip27TrustedRandomAccessNoCoerce4size17ha9621aa0bb33d93eE
	.globl	_ZN4core4iter8adapters3zip27TrustedRandomAccessNoCoerce4size17ha9621aa0bb33d93eE
	.p2align	4, 0x90
_ZN4core4iter8adapters3zip27TrustedRandomAccessNoCoerce4size17ha9621aa0bb33d93eE:
.Lfunc_begin59:
	.cv_func_id 76
	.cv_loc	76 2 538 0
.seh_proc _ZN4core4iter8adapters3zip27TrustedRandomAccessNoCoerce4size17ha9621aa0bb33d93eE
	subq	$72, %rsp
	.seh_stackalloc 72
	.seh_endprologue
	movq	%rcx, %rdx
	movq	%rdx, 64(%rsp)
.Ltmp222:
	.cv_loc	76 2 542 0
	leaq	40(%rsp), %rcx
	callq	_ZN91_$LT$core..slice..iter..Iter$LT$T$GT$$u20$as$u20$core..iter..traits..iterator..Iterator$GT$9size_hint17h3708c1e09216c6f5E
	movq	40(%rsp), %rax
	.cv_loc	76 2 543 0
	addq	$72, %rsp
	retq
.Ltmp223:
.Lfunc_end59:
	.seh_endproc

	.def	_ZN4core4iter8adapters3zip3zip17ha60b34d109c5fbdbE;
	.scl	2;
	.type	32;
	.endef
	.section	.text,"xr",one_only,_ZN4core4iter8adapters3zip3zip17ha60b34d109c5fbdbE
	.globl	_ZN4core4iter8adapters3zip3zip17ha60b34d109c5fbdbE
	.p2align	4, 0x90
_ZN4core4iter8adapters3zip3zip17ha60b34d109c5fbdbE:
.Lfunc_begin60:
	.cv_func_id 77
	.cv_loc	77 2 66 0
.seh_proc _ZN4core4iter8adapters3zip3zip17ha60b34d109c5fbdbE
	.seh_handler __CxxFrameHandler3, @unwind, @except
	pushq	%rbp
	.seh_pushreg %rbp
	subq	$192, %rsp
	.seh_stackalloc 192
	leaq	128(%rsp), %rbp
	.seh_setframe %rbp, 128
	.seh_endprologue
	movq	$-2, 56(%rbp)
	movq	%r9, -48(%rbp)
	movq	%r8, -40(%rbp)
	movq	%rdx, %rax
	movq	-40(%rbp), %rdx
	movq	%rax, -32(%rbp)
	movq	%rcx, %rax
	movq	-32(%rbp), %rcx
	movq	%rax, -24(%rbp)
	movq	%rax, -16(%rbp)
	movq	112(%rbp), %rax
	movq	%rax, -8(%rbp)
	movq	%rcx, 24(%rbp)
	movq	%rdx, 32(%rbp)
	movq	%r9, 40(%rbp)
	movq	%rax, 48(%rbp)
.Ltmp230:
	.cv_loc	77 2 71 0
	movb	$1, 23(%rbp)
.Ltmp224:
	callq	_ZN4core5slice4iter87_$LT$impl$u20$core..iter..traits..collect..IntoIterator$u20$for$u20$$RF$$u5b$T$u5d$$GT$9into_iter17h9eb44a5d5f3f7606E
.Ltmp225:
	movq	%rdx, (%rbp)
	movq	%rax, 8(%rbp)
	jmp	.LBB60_2
.LBB60_2:
	movq	-8(%rbp), %rdx
	movq	-48(%rbp), %rcx
	movq	(%rbp), %rax
	movq	8(%rbp), %r8
	movq	%r8, -80(%rbp)
	movq	%rax, -72(%rbp)
	movb	$1, 22(%rbp)
	movb	$0, 23(%rbp)
.Ltmp226:
	callq	_ZN4core5slice4iter87_$LT$impl$u20$core..iter..traits..collect..IntoIterator$u20$for$u20$$RF$$u5b$T$u5d$$GT$9into_iter17h9eb44a5d5f3f7606E
.Ltmp227:
	movq	%rdx, -64(%rbp)
	movq	%rax, -56(%rbp)
	jmp	.LBB60_4
.LBB60_4:
	movq	-56(%rbp), %r9
	movq	-72(%rbp), %r8
	movq	-80(%rbp), %rdx
	movq	-24(%rbp), %rcx
	movq	-64(%rbp), %r10
	movb	$0, 22(%rbp)
.Ltmp228:
	movq	%rsp, %rax
	movq	%r10, 32(%rax)
	callq	_ZN111_$LT$core..iter..adapters..zip..Zip$LT$A$C$B$GT$$u20$as$u20$core..iter..adapters..zip..ZipImpl$LT$A$C$B$GT$$GT$3new17h2dd609cfabbe889fE
.Ltmp229:
	jmp	.LBB60_5
.LBB60_5:
	.cv_loc	77 2 72 0
	movq	-16(%rbp), %rax
	addq	$192, %rsp
	popq	%rbp
	retq
	.seh_handlerdata
	.long	($cppxdata$_ZN4core4iter8adapters3zip3zip17ha60b34d109c5fbdbE)@IMGREL
	.section	.text,"xr",one_only,_ZN4core4iter8adapters3zip3zip17ha60b34d109c5fbdbE
	.seh_endproc
	.def	"?dtor$1@?0?_ZN4core4iter8adapters3zip3zip17ha60b34d109c5fbdbE@4HA";
	.scl	3;
	.type	32;
	.endef
	.p2align	4, 0x90
"?dtor$1@?0?_ZN4core4iter8adapters3zip3zip17ha60b34d109c5fbdbE@4HA":
.seh_proc "?dtor$1@?0?_ZN4core4iter8adapters3zip3zip17ha60b34d109c5fbdbE@4HA"
.LBB60_1:
	movq	%rdx, 16(%rsp)
	pushq	%rbp
	.seh_pushreg %rbp
	subq	$48, %rsp
	.seh_stackalloc 48
	leaq	128(%rdx), %rbp
	.seh_endprologue
	testb	$1, 23(%rbp)
	jne	.LBB60_9
	jmp	.LBB60_8
.LBB60_8:
	.cv_loc	77 2 66 0
	addq	$48, %rsp
	popq	%rbp
	retq
.LBB60_9:
	.cv_loc	77 2 72 0
	jmp	.LBB60_8
	.seh_handlerdata
	.section	.text,"xr",one_only,_ZN4core4iter8adapters3zip3zip17ha60b34d109c5fbdbE
	.seh_endproc
	.def	"?dtor$3@?0?_ZN4core4iter8adapters3zip3zip17ha60b34d109c5fbdbE@4HA";
	.scl	3;
	.type	32;
	.endef
	.p2align	4, 0x90
"?dtor$3@?0?_ZN4core4iter8adapters3zip3zip17ha60b34d109c5fbdbE@4HA":
.seh_proc "?dtor$3@?0?_ZN4core4iter8adapters3zip3zip17ha60b34d109c5fbdbE@4HA"
.LBB60_3:
	movq	%rdx, 16(%rsp)
	pushq	%rbp
	.seh_pushreg %rbp
	subq	$48, %rsp
	.seh_stackalloc 48
	leaq	128(%rdx), %rbp
	.seh_endprologue
	.cv_loc	77 2 71 0
	testb	$1, 22(%rbp)
	jne	.LBB60_7
	jmp	.LBB60_6
.LBB60_6:
	addq	$48, %rsp
	popq	%rbp
	retq
.LBB60_7:
	addq	$48, %rsp
	popq	%rbp
	retq
.Ltmp231:
.Lfunc_end60:
	.seh_handlerdata
	.section	.text,"xr",one_only,_ZN4core4iter8adapters3zip3zip17ha60b34d109c5fbdbE
	.seh_endproc
	.section	.xdata,"dr",associative,_ZN4core4iter8adapters3zip3zip17ha60b34d109c5fbdbE
	.p2align	2
$cppxdata$_ZN4core4iter8adapters3zip3zip17ha60b34d109c5fbdbE:
	.long	429065506
	.long	2
	.long	($stateUnwindMap$_ZN4core4iter8adapters3zip3zip17ha60b34d109c5fbdbE)@IMGREL
	.long	0
	.long	0
	.long	4
	.long	($ip2state$_ZN4core4iter8adapters3zip3zip17ha60b34d109c5fbdbE)@IMGREL
	.long	184
	.long	0
	.long	1
$stateUnwindMap$_ZN4core4iter8adapters3zip3zip17ha60b34d109c5fbdbE:
	.long	-1
	.long	"?dtor$1@?0?_ZN4core4iter8adapters3zip3zip17ha60b34d109c5fbdbE@4HA"@IMGREL
	.long	0
	.long	"?dtor$3@?0?_ZN4core4iter8adapters3zip3zip17ha60b34d109c5fbdbE@4HA"@IMGREL
$ip2state$_ZN4core4iter8adapters3zip3zip17ha60b34d109c5fbdbE:
	.long	.Lfunc_begin60@IMGREL
	.long	-1
	.long	.Ltmp224@IMGREL+1
	.long	0
	.long	.Ltmp226@IMGREL+1
	.long	1
	.long	.Ltmp229@IMGREL+1
	.long	-1
	.section	.text,"xr",one_only,_ZN4core4iter8adapters3zip3zip17ha60b34d109c5fbdbE

	.def	_ZN4core4iter8adapters6filter19Filter$LT$I$C$P$GT$3new17hc11528c9c8cf3e33E;
	.scl	2;
	.type	32;
	.endef
	.section	.text,"xr",one_only,_ZN4core4iter8adapters6filter19Filter$LT$I$C$P$GT$3new17hc11528c9c8cf3e33E
	.globl	_ZN4core4iter8adapters6filter19Filter$LT$I$C$P$GT$3new17hc11528c9c8cf3e33E
	.p2align	4, 0x90
_ZN4core4iter8adapters6filter19Filter$LT$I$C$P$GT$3new17hc11528c9c8cf3e33E:
.Lfunc_begin61:
	.cv_func_id 78
	.cv_loc	78 4 21 0
.seh_proc _ZN4core4iter8adapters6filter19Filter$LT$I$C$P$GT$3new17hc11528c9c8cf3e33E
	subq	$40, %rsp
	.seh_stackalloc 40
	.seh_endprologue
	movq	%rcx, 16(%rsp)
	movq	%rdx, 24(%rsp)
.Ltmp232:
	.cv_loc	78 4 22 0
	movq	%rcx, (%rsp)
	movq	%rdx, 8(%rsp)
	.cv_loc	78 4 23 0
	movq	(%rsp), %rax
	movq	8(%rsp), %rdx
	addq	$40, %rsp
	retq
.Ltmp233:
.Lfunc_end61:
	.seh_endproc

	.def	_ZN4core4sync6atomic11AtomicUsize16compare_exchange17h783083b46016dd39E;
	.scl	3;
	.type	32;
	.endef
	.section	.text,"xr",one_only,_ZN4core4sync6atomic11AtomicUsize16compare_exchange17h783083b46016dd39E
	.p2align	4, 0x90
_ZN4core4sync6atomic11AtomicUsize16compare_exchange17h783083b46016dd39E:
.Lfunc_begin62:
	.cv_func_id 79
	.cv_file	20 "/rustc/90743e7298aca107ddaa0c202a4d3604e29bfeb6\\library\\core\\src\\sync\\atomic.rs" "74F8A5288E93B92633048425A92721F0B5FF29EB" 2
	.cv_loc	79 20 2256 0
.seh_proc _ZN4core4sync6atomic11AtomicUsize16compare_exchange17h783083b46016dd39E
	subq	$104, %rsp
	.seh_stackalloc 104
	.seh_endprologue
	movb	144(%rsp), %al
	movq	%rcx, 64(%rsp)
	movq	%rdx, 72(%rsp)
	movq	%r8, 80(%rsp)
	movb	%r9b, 95(%rsp)
.Ltmp234:
	.cv_loc	79 20 2262 0
	movq	%rcx, 96(%rsp)
	movb	%al, 32(%rsp)
	callq	_ZN4core4sync6atomic23atomic_compare_exchange17h48238878144cd3b1E
	movq	%rax, 48(%rsp)
	movq	%rdx, 56(%rsp)
	.cv_loc	79 20 2263 0
	movq	56(%rsp), %rdx
	movq	48(%rsp), %rax
	addq	$104, %rsp
	retq
.Ltmp235:
.Lfunc_end62:
	.seh_endproc

	.def	_ZN4core4sync6atomic11AtomicUsize4load17h772b3b1927fd99e2E;
	.scl	3;
	.type	32;
	.endef
	.section	.text,"xr",one_only,_ZN4core4sync6atomic11AtomicUsize4load17h772b3b1927fd99e2E
	.p2align	4, 0x90
_ZN4core4sync6atomic11AtomicUsize4load17h772b3b1927fd99e2E:
.Lfunc_begin63:
	.cv_func_id 80
	.cv_loc	80 20 2089 0
.seh_proc _ZN4core4sync6atomic11AtomicUsize4load17h772b3b1927fd99e2E
	subq	$72, %rsp
	.seh_stackalloc 72
	.seh_endprologue
	movq	%rcx, 48(%rsp)
	movb	%dl, 63(%rsp)
.Ltmp236:
	.cv_loc	80 20 2091 0
	movq	%rcx, 64(%rsp)
	callq	_ZN4core4sync6atomic11atomic_load17h05a8502e8c363bf9E
	movq	%rax, 40(%rsp)
	.cv_loc	80 20 2092 0
	movq	40(%rsp), %rax
	addq	$72, %rsp
	retq
.Ltmp237:
.Lfunc_end63:
	.seh_endproc

	.def	_ZN4core4sync6atomic11AtomicUsize5store17ha5b0380cf50d10a3E;
	.scl	3;
	.type	32;
	.endef
	.section	.text,"xr",one_only,_ZN4core4sync6atomic11AtomicUsize5store17ha5b0380cf50d10a3E
	.p2align	4, 0x90
_ZN4core4sync6atomic11AtomicUsize5store17ha5b0380cf50d10a3E:
.Lfunc_begin64:
	.cv_func_id 81
	.cv_loc	81 20 2116 0
.seh_proc _ZN4core4sync6atomic11AtomicUsize5store17ha5b0380cf50d10a3E
	subq	$72, %rsp
	.seh_stackalloc 72
	.seh_endprologue
	movq	%rcx, 40(%rsp)
	movq	%rdx, 48(%rsp)
	movb	%r8b, 63(%rsp)
.Ltmp238:
	.cv_loc	81 20 2118 0
	movq	%rcx, 64(%rsp)
	callq	_ZN4core4sync6atomic12atomic_store17hd84fb31d701ac2f6E
	.cv_loc	81 20 2119 0
	nop
	addq	$72, %rsp
	retq
.Ltmp239:
.Lfunc_end64:
	.seh_endproc

	.def	_ZN4core4sync6atomic11atomic_load17h05a8502e8c363bf9E;
	.scl	2;
	.type	32;
	.endef
	.section	.text,"xr",one_only,_ZN4core4sync6atomic11atomic_load17h05a8502e8c363bf9E
	.globl	_ZN4core4sync6atomic11atomic_load17h05a8502e8c363bf9E
	.p2align	4, 0x90
_ZN4core4sync6atomic11atomic_load17h05a8502e8c363bf9E:
.Lfunc_begin65:
	.cv_func_id 82
	.cv_loc	82 20 2983 0
.seh_proc _ZN4core4sync6atomic11atomic_load17h05a8502e8c363bf9E
	subq	$184, %rsp
	.seh_stackalloc 184
	.seh_endprologue
	movq	%rcx, 48(%rsp)
	movb	%dl, 71(%rsp)
	movq	%rcx, 176(%rsp)
.Ltmp240:
	.cv_loc	82 20 2986 0
	movzbl	71(%rsp), %eax
	movq	%rax, 56(%rsp)
	movq	56(%rsp), %rax
	leaq	.LJTI65_0(%rip), %rcx
	movslq	(%rcx,%rax,4), %rax
	addq	%rcx, %rax
	jmpq	*%rax
	ud2
.LBB65_2:
	.cv_loc	82 20 2987 0
	movq	48(%rsp), %rax
	movq	(%rax), %rax
	movq	%rax, 72(%rsp)
	jmp	.LBB65_12
.LBB65_3:
	.cv_loc	82 20 2990 0
	leaq	80(%rsp), %rcx
	leaq	__unnamed_5(%rip), %rdx
	movl	$1, %r8d
	leaq	__unnamed_3(%rip), %r9
	xorl	%eax, %eax
	movq	$0, 32(%rsp)
	callq	_ZN4core3fmt9Arguments6new_v117hf25a81549ea8a1faE
	jmp	.LBB65_11
.LBB65_4:
	.cv_loc	82 20 2988 0
	movq	48(%rsp), %rax
	movq	(%rax), %rax
	movq	%rax, 72(%rsp)
	jmp	.LBB65_10
.LBB65_5:
	.cv_loc	82 20 2991 0
	leaq	128(%rsp), %rcx
	leaq	__unnamed_6(%rip), %rdx
	movl	$1, %r8d
	leaq	__unnamed_3(%rip), %r9
	xorl	%eax, %eax
	movq	$0, 32(%rsp)
	callq	_ZN4core3fmt9Arguments6new_v117hf25a81549ea8a1faE
	jmp	.LBB65_9
.LBB65_6:
	.cv_loc	82 20 2989 0
	movq	48(%rsp), %rax
	movq	(%rax), %rax
	movq	%rax, 72(%rsp)
	jmp	.LBB65_8
.LBB65_8:
	.cv_loc	82 20 2994 0
	movq	72(%rsp), %rax
	addq	$184, %rsp
	retq
.LBB65_9:
	.cv_loc	82 20 2991 0
	leaq	__unnamed_7(%rip), %rdx
	leaq	128(%rsp), %rcx
	callq	_ZN4core9panicking9panic_fmt17h1862038ee9bad685E
	ud2
.LBB65_10:
	.cv_loc	82 20 2988 0
	jmp	.LBB65_8
.LBB65_11:
	.cv_loc	82 20 2990 0
	leaq	__unnamed_8(%rip), %rdx
	leaq	80(%rsp), %rcx
	callq	_ZN4core9panicking9panic_fmt17h1862038ee9bad685E
	ud2
.LBB65_12:
	.cv_loc	82 20 2987 0
	jmp	.LBB65_8
.Ltmp241:
.Lfunc_end65:
	.p2align	2, 0x90
.LJTI65_0:
	.long	.LBB65_2-.LJTI65_0
	.long	.LBB65_3-.LJTI65_0
	.long	.LBB65_4-.LJTI65_0
	.long	.LBB65_5-.LJTI65_0
	.long	.LBB65_6-.LJTI65_0
	.seh_endproc

	.def	_ZN4core4sync6atomic12atomic_store17hd84fb31d701ac2f6E;
	.scl	2;
	.type	32;
	.endef
	.section	.text,"xr",one_only,_ZN4core4sync6atomic12atomic_store17hd84fb31d701ac2f6E
	.globl	_ZN4core4sync6atomic12atomic_store17hd84fb31d701ac2f6E
	.p2align	4, 0x90
_ZN4core4sync6atomic12atomic_store17hd84fb31d701ac2f6E:
.Lfunc_begin66:
	.cv_func_id 83
	.cv_loc	83 20 2968 0
.seh_proc _ZN4core4sync6atomic12atomic_store17hd84fb31d701ac2f6E
	subq	$184, %rsp
	.seh_stackalloc 184
	.seh_endprologue
	movq	%rdx, 40(%rsp)
	movq	%rcx, 48(%rsp)
	movb	%r8b, 71(%rsp)
	movq	%rcx, 168(%rsp)
	movq	%rdx, 176(%rsp)
.Ltmp242:
	.cv_loc	83 20 2971 0
	movzbl	71(%rsp), %eax
	movq	%rax, 56(%rsp)
	movq	56(%rsp), %rax
	leaq	.LJTI66_0(%rip), %rcx
	movslq	(%rcx,%rax,4), %rax
	addq	%rcx, %rax
	jmpq	*%rax
	ud2
.LBB66_2:
	.cv_loc	83 20 2972 0
	movq	48(%rsp), %rax
	movq	40(%rsp), %rcx
	movq	%rcx, (%rax)
	jmp	.LBB66_12
.LBB66_3:
	.cv_loc	83 20 2973 0
	movq	48(%rsp), %rax
	movq	40(%rsp), %rcx
	movq	%rcx, (%rax)
	jmp	.LBB66_11
.LBB66_4:
	.cv_loc	83 20 2975 0
	leaq	72(%rsp), %rcx
	leaq	__unnamed_9(%rip), %rdx
	movl	$1, %r8d
	leaq	__unnamed_3(%rip), %r9
	xorl	%eax, %eax
	movq	$0, 32(%rsp)
	callq	_ZN4core3fmt9Arguments6new_v117hf25a81549ea8a1faE
	jmp	.LBB66_10
.LBB66_5:
	.cv_loc	83 20 2976 0
	leaq	120(%rsp), %rcx
	leaq	__unnamed_10(%rip), %rdx
	movl	$1, %r8d
	leaq	__unnamed_3(%rip), %r9
	xorl	%eax, %eax
	movq	$0, 32(%rsp)
	callq	_ZN4core3fmt9Arguments6new_v117hf25a81549ea8a1faE
	jmp	.LBB66_9
.LBB66_6:
	.cv_loc	83 20 2974 0
	movq	48(%rsp), %rcx
	movq	40(%rsp), %rax
	xchgq	%rax, (%rcx)
	jmp	.LBB66_8
.LBB66_8:
	.cv_loc	83 20 2979 0
	addq	$184, %rsp
	retq
.LBB66_9:
	.cv_loc	83 20 2976 0
	leaq	__unnamed_11(%rip), %rdx
	leaq	120(%rsp), %rcx
	callq	_ZN4core9panicking9panic_fmt17h1862038ee9bad685E
	ud2
.LBB66_10:
	.cv_loc	83 20 2975 0
	leaq	__unnamed_12(%rip), %rdx
	leaq	72(%rsp), %rcx
	callq	_ZN4core9panicking9panic_fmt17h1862038ee9bad685E
	ud2
.LBB66_11:
	.cv_loc	83 20 2973 0
	jmp	.LBB66_8
.LBB66_12:
	.cv_loc	83 20 2972 0
	jmp	.LBB66_8
.Ltmp243:
.Lfunc_end66:
	.p2align	2, 0x90
.LJTI66_0:
	.long	.LBB66_2-.LJTI66_0
	.long	.LBB66_3-.LJTI66_0
	.long	.LBB66_4-.LJTI66_0
	.long	.LBB66_5-.LJTI66_0
	.long	.LBB66_6-.LJTI66_0
	.seh_endproc

	.def	_ZN4core4sync6atomic14spin_loop_hint17h55831986ed8defa6E;
	.scl	3;
	.type	32;
	.endef
	.section	.text,"xr",one_only,_ZN4core4sync6atomic14spin_loop_hint17h55831986ed8defa6E
	.p2align	4, 0x90
_ZN4core4sync6atomic14spin_loop_hint17h55831986ed8defa6E:
.Lfunc_begin67:
	.cv_func_id 84
	.cv_file	21 "/rustc/90743e7298aca107ddaa0c202a4d3604e29bfeb6\\library\\core\\src\\..\\..\\stdarch\\crates\\core_arch\\src\\x86\\sse2.rs" "A504ACEBC9252C816C5AB89BF7A92FA120883AC1" 2
	.cv_inline_site_id 85 within 84 inlined_at 20 3455 0
	.cv_file	22 "/rustc/90743e7298aca107ddaa0c202a4d3604e29bfeb6\\library\\core\\src\\hint.rs" "5B6F36B9001543EC4095D08222BAFFE63406BCF6" 2
	.cv_inline_site_id 86 within 85 inlined_at 22 175 0
	.cv_loc	86 21 25 0
	pause
.Ltmp244:
	.cv_loc	84 20 3456 0
	retq
.Ltmp245:
.Lfunc_end67:

	.def	_ZN4core4sync6atomic23atomic_compare_exchange17h48238878144cd3b1E;
	.scl	2;
	.type	32;
	.endef
	.section	.text,"xr",one_only,_ZN4core4sync6atomic23atomic_compare_exchange17h48238878144cd3b1E
	.globl	_ZN4core4sync6atomic23atomic_compare_exchange17h48238878144cd3b1E
	.p2align	4, 0x90
_ZN4core4sync6atomic23atomic_compare_exchange17h48238878144cd3b1E:
.Lfunc_begin68:
	.cv_func_id 87
	.cv_loc	87 20 3049 0
.seh_proc _ZN4core4sync6atomic23atomic_compare_exchange17h48238878144cd3b1E
	subq	$312, %rsp
	.seh_stackalloc 312
	.seh_endprologue
	movq	%r8, 96(%rsp)
	movq	%rdx, 104(%rsp)
	movq	%rcx, 112(%rsp)
	movb	352(%rsp), %al
	movq	%rcx, 264(%rsp)
	movq	%rdx, 272(%rsp)
	movq	%r8, 280(%rsp)
	movb	%r9b, 295(%rsp)
.Ltmp246:
	.cv_loc	87 20 3058 0
	movb	%r9b, 160(%rsp)
	movb	%al, 161(%rsp)
	movzbl	160(%rsp), %eax
	movq	%rax, 120(%rsp)
	movq	120(%rsp), %rax
	leaq	.LJTI68_0(%rip), %rcx
	movslq	(%rcx,%rax,4), %rax
	addq	%rcx, %rax
	jmpq	*%rax
	ud2
.LBB68_2:
	movzbl	161(%rsp), %eax
	movq	%rax, 88(%rsp)
	testq	%rax, %rax
	je	.LBB68_33
	jmp	.LBB68_56
.LBB68_56:
	movq	88(%rsp), %rax
	subq	$2, %rax
	je	.LBB68_34
	jmp	.LBB68_57
.LBB68_57:
	movq	88(%rsp), %rax
	subq	$4, %rax
	je	.LBB68_35
	jmp	.LBB68_7
.LBB68_3:
	movzbl	161(%rsp), %eax
	movq	%rax, 80(%rsp)
	testq	%rax, %rax
	je	.LBB68_27
	jmp	.LBB68_54
.LBB68_54:
	movq	80(%rsp), %rax
	subq	$2, %rax
	je	.LBB68_28
	jmp	.LBB68_55
.LBB68_55:
	movq	80(%rsp), %rax
	subq	$4, %rax
	je	.LBB68_29
	jmp	.LBB68_7
.LBB68_4:
	movzbl	161(%rsp), %eax
	movq	%rax, 72(%rsp)
	testq	%rax, %rax
	je	.LBB68_21
	jmp	.LBB68_52
.LBB68_52:
	movq	72(%rsp), %rax
	subq	$2, %rax
	je	.LBB68_22
	jmp	.LBB68_53
.LBB68_53:
	movq	72(%rsp), %rax
	subq	$4, %rax
	je	.LBB68_23
	jmp	.LBB68_7
.LBB68_5:
	movzbl	161(%rsp), %eax
	movq	%rax, 64(%rsp)
	testq	%rax, %rax
	je	.LBB68_15
	jmp	.LBB68_50
.LBB68_50:
	movq	64(%rsp), %rax
	subq	$2, %rax
	je	.LBB68_16
	jmp	.LBB68_51
.LBB68_51:
	movq	64(%rsp), %rax
	subq	$4, %rax
	je	.LBB68_17
	jmp	.LBB68_7
.LBB68_6:
	movzbl	161(%rsp), %eax
	movq	%rax, 56(%rsp)
	testq	%rax, %rax
	je	.LBB68_8
	jmp	.LBB68_48
.LBB68_48:
	movq	56(%rsp), %rax
	subq	$2, %rax
	je	.LBB68_9
	jmp	.LBB68_49
.LBB68_49:
	movq	56(%rsp), %rax
	subq	$4, %rax
	je	.LBB68_10
	jmp	.LBB68_7
.LBB68_7:
	movzbl	161(%rsp), %eax
	subq	$1, %rax
	je	.LBB68_37
	jmp	.LBB68_58
.LBB68_58:
	jmp	.LBB68_38
.LBB68_8:
	.cv_loc	87 20 3071 0
	movq	112(%rsp), %rcx
	movq	96(%rsp), %rdx
	movq	104(%rsp), %rax
	lock		cmpxchgq	%rdx, (%rcx)
	movq	%rax, %rcx
	sete	%al
	andb	$1, %al
	movq	%rcx, 144(%rsp)
	movb	%al, 152(%rsp)
	jmp	.LBB68_14
.LBB68_9:
	.cv_loc	87 20 3072 0
	movq	112(%rsp), %rcx
	movq	96(%rsp), %rdx
	movq	104(%rsp), %rax
	lock		cmpxchgq	%rdx, (%rcx)
	movq	%rax, %rcx
	sete	%al
	andb	$1, %al
	movq	%rcx, 144(%rsp)
	movb	%al, 152(%rsp)
	jmp	.LBB68_13
.LBB68_10:
	.cv_loc	87 20 3073 0
	movq	112(%rsp), %rcx
	movq	96(%rsp), %rdx
	movq	104(%rsp), %rax
	lock		cmpxchgq	%rdx, (%rcx)
	movq	%rax, %rcx
	sete	%al
	andb	$1, %al
	movq	%rcx, 144(%rsp)
	movb	%al, 152(%rsp)
	jmp	.LBB68_12
.LBB68_12:
	.cv_loc	87 20 3057 0
	movq	144(%rsp), %rax
	movq	%rax, 48(%rsp)
	movq	%rax, 296(%rsp)
	movb	152(%rsp), %al
	movb	%al, %cl
	andb	$1, %cl
	movb	%cl, 311(%rsp)
.Ltmp247:
	.cv_loc	87 20 3078 0
	testb	$1, %al
	jne	.LBB68_45
	jmp	.LBB68_44
.Ltmp248:
.LBB68_13:
	.cv_loc	87 20 3072 0
	jmp	.LBB68_12
.LBB68_14:
	.cv_loc	87 20 3071 0
	jmp	.LBB68_12
.LBB68_15:
	.cv_loc	87 20 3068 0
	movq	112(%rsp), %rcx
	movq	96(%rsp), %rdx
	movq	104(%rsp), %rax
	lock		cmpxchgq	%rdx, (%rcx)
	movq	%rax, %rcx
	sete	%al
	andb	$1, %al
	movq	%rcx, 144(%rsp)
	movb	%al, 152(%rsp)
	jmp	.LBB68_20
.LBB68_16:
	.cv_loc	87 20 3069 0
	movq	112(%rsp), %rcx
	movq	96(%rsp), %rdx
	movq	104(%rsp), %rax
	lock		cmpxchgq	%rdx, (%rcx)
	movq	%rax, %rcx
	sete	%al
	andb	$1, %al
	movq	%rcx, 144(%rsp)
	movb	%al, 152(%rsp)
	jmp	.LBB68_19
.LBB68_17:
	.cv_loc	87 20 3070 0
	movq	112(%rsp), %rcx
	movq	96(%rsp), %rdx
	movq	104(%rsp), %rax
	lock		cmpxchgq	%rdx, (%rcx)
	movq	%rax, %rcx
	sete	%al
	andb	$1, %al
	movq	%rcx, 144(%rsp)
	movb	%al, 152(%rsp)
	jmp	.LBB68_12
.LBB68_19:
	.cv_loc	87 20 3069 0
	jmp	.LBB68_12
.LBB68_20:
	.cv_loc	87 20 3068 0
	jmp	.LBB68_12
.LBB68_21:
	.cv_loc	87 20 3062 0
	movq	112(%rsp), %rcx
	movq	96(%rsp), %rdx
	movq	104(%rsp), %rax
	lock		cmpxchgq	%rdx, (%rcx)
	movq	%rax, %rcx
	sete	%al
	andb	$1, %al
	movq	%rcx, 144(%rsp)
	movb	%al, 152(%rsp)
	jmp	.LBB68_26
.LBB68_22:
	.cv_loc	87 20 3063 0
	movq	112(%rsp), %rcx
	movq	96(%rsp), %rdx
	movq	104(%rsp), %rax
	lock		cmpxchgq	%rdx, (%rcx)
	movq	%rax, %rcx
	sete	%al
	andb	$1, %al
	movq	%rcx, 144(%rsp)
	movb	%al, 152(%rsp)
	jmp	.LBB68_25
.LBB68_23:
	.cv_loc	87 20 3064 0
	movq	112(%rsp), %rcx
	movq	96(%rsp), %rdx
	movq	104(%rsp), %rax
	lock		cmpxchgq	%rdx, (%rcx)
	movq	%rax, %rcx
	sete	%al
	andb	$1, %al
	movq	%rcx, 144(%rsp)
	movb	%al, 152(%rsp)
	jmp	.LBB68_12
.LBB68_25:
	.cv_loc	87 20 3063 0
	jmp	.LBB68_12
.LBB68_26:
	.cv_loc	87 20 3062 0
	jmp	.LBB68_12
.LBB68_27:
	.cv_loc	87 20 3065 0
	movq	112(%rsp), %rcx
	movq	96(%rsp), %rdx
	movq	104(%rsp), %rax
	lock		cmpxchgq	%rdx, (%rcx)
	movq	%rax, %rcx
	sete	%al
	andb	$1, %al
	movq	%rcx, 144(%rsp)
	movb	%al, 152(%rsp)
	jmp	.LBB68_32
.LBB68_28:
	.cv_loc	87 20 3066 0
	movq	112(%rsp), %rcx
	movq	96(%rsp), %rdx
	movq	104(%rsp), %rax
	lock		cmpxchgq	%rdx, (%rcx)
	movq	%rax, %rcx
	sete	%al
	andb	$1, %al
	movq	%rcx, 144(%rsp)
	movb	%al, 152(%rsp)
	jmp	.LBB68_31
.LBB68_29:
	.cv_loc	87 20 3067 0
	movq	112(%rsp), %rcx
	movq	96(%rsp), %rdx
	movq	104(%rsp), %rax
	lock		cmpxchgq	%rdx, (%rcx)
	movq	%rax, %rcx
	sete	%al
	andb	$1, %al
	movq	%rcx, 144(%rsp)
	movb	%al, 152(%rsp)
	jmp	.LBB68_12
.LBB68_31:
	.cv_loc	87 20 3066 0
	jmp	.LBB68_12
.LBB68_32:
	.cv_loc	87 20 3065 0
	jmp	.LBB68_12
.LBB68_33:
	.cv_loc	87 20 3059 0
	movq	112(%rsp), %rcx
	movq	96(%rsp), %rdx
	movq	104(%rsp), %rax
	lock		cmpxchgq	%rdx, (%rcx)
	movq	%rax, %rcx
	sete	%al
	andb	$1, %al
	movq	%rcx, 144(%rsp)
	movb	%al, 152(%rsp)
	jmp	.LBB68_43
.LBB68_34:
	.cv_loc	87 20 3060 0
	movq	112(%rsp), %rcx
	movq	96(%rsp), %rdx
	movq	104(%rsp), %rax
	lock		cmpxchgq	%rdx, (%rcx)
	movq	%rax, %rcx
	sete	%al
	andb	$1, %al
	movq	%rcx, 144(%rsp)
	movb	%al, 152(%rsp)
	jmp	.LBB68_42
.LBB68_35:
	.cv_loc	87 20 3061 0
	movq	112(%rsp), %rcx
	movq	96(%rsp), %rdx
	movq	104(%rsp), %rax
	lock		cmpxchgq	%rdx, (%rcx)
	movq	%rax, %rcx
	sete	%al
	andb	$1, %al
	movq	%rcx, 144(%rsp)
	movb	%al, 152(%rsp)
	jmp	.LBB68_41
	.cv_loc	87 20 3058 0
	ud2
.LBB68_37:
	.cv_loc	87 20 3075 0
	leaq	216(%rsp), %rcx
	leaq	__unnamed_13(%rip), %rdx
	movl	$1, %r8d
	leaq	__unnamed_3(%rip), %r9
	xorl	%eax, %eax
	movq	$0, 32(%rsp)
	callq	_ZN4core3fmt9Arguments6new_v117hf25a81549ea8a1faE
	jmp	.LBB68_40
.LBB68_38:
	.cv_loc	87 20 3074 0
	leaq	168(%rsp), %rcx
	leaq	__unnamed_14(%rip), %rdx
	movl	$1, %r8d
	leaq	__unnamed_3(%rip), %r9
	xorl	%eax, %eax
	movq	$0, 32(%rsp)
	callq	_ZN4core3fmt9Arguments6new_v117hf25a81549ea8a1faE
	leaq	__unnamed_15(%rip), %rdx
	leaq	168(%rsp), %rcx
	callq	_ZN4core9panicking9panic_fmt17h1862038ee9bad685E
	ud2
.LBB68_40:
	.cv_loc	87 20 3075 0
	leaq	__unnamed_16(%rip), %rdx
	leaq	216(%rsp), %rcx
	callq	_ZN4core9panicking9panic_fmt17h1862038ee9bad685E
	ud2
.LBB68_41:
	.cv_loc	87 20 3061 0
	jmp	.LBB68_12
.LBB68_42:
	.cv_loc	87 20 3060 0
	jmp	.LBB68_12
.LBB68_43:
	.cv_loc	87 20 3059 0
	jmp	.LBB68_12
.LBB68_44:
	.cv_loc	87 20 3078 0
	movq	48(%rsp), %rax
.Ltmp249:
	movq	%rax, 136(%rsp)
	movq	$1, 128(%rsp)
	jmp	.LBB68_46
.LBB68_45:
	movq	48(%rsp), %rax
	movq	%rax, 136(%rsp)
	movq	$0, 128(%rsp)
.Ltmp250:
.LBB68_46:
	.cv_loc	87 20 3079 0
	movq	128(%rsp), %rax
	movq	136(%rsp), %rdx
	addq	$312, %rsp
	retq
.Ltmp251:
.Lfunc_end68:
	.p2align	2, 0x90
.LJTI68_0:
	.long	.LBB68_2-.LJTI68_0
	.long	.LBB68_3-.LJTI68_0
	.long	.LBB68_4-.LJTI68_0
	.long	.LBB68_5-.LJTI68_0
	.long	.LBB68_6-.LJTI68_0
	.seh_endproc

	.def	_ZN4core5clone5impls52_$LT$impl$u20$core..clone..Clone$u20$for$u20$u32$GT$5clone17hc265719111e814f9E;
	.scl	3;
	.type	32;
	.endef
	.section	.text,"xr",one_only,_ZN4core5clone5impls52_$LT$impl$u20$core..clone..Clone$u20$for$u20$u32$GT$5clone17hc265719111e814f9E
	.p2align	4, 0x90
_ZN4core5clone5impls52_$LT$impl$u20$core..clone..Clone$u20$for$u20$u32$GT$5clone17hc265719111e814f9E:
.Lfunc_begin69:
	.cv_func_id 88
	.cv_file	23 "/rustc/90743e7298aca107ddaa0c202a4d3604e29bfeb6\\library\\core\\src\\clone.rs" "93EB700F264F8E92A954329C780DB0D09A9B2113" 2
	.cv_loc	88 23 189 0
.seh_proc _ZN4core5clone5impls52_$LT$impl$u20$core..clone..Clone$u20$for$u20$u32$GT$5clone17hc265719111e814f9E
	pushq	%rax
	.seh_stackalloc 8
	.seh_endprologue
	movq	%rcx, (%rsp)
.Ltmp252:
	.cv_loc	88 23 190 0
	movl	(%rcx), %eax
	.cv_loc	88 23 191 0
	popq	%rcx
	retq
.Ltmp253:
.Lfunc_end69:
	.seh_endproc

	.def	_ZN4core5clone5impls54_$LT$impl$u20$core..clone..Clone$u20$for$u20$$RF$T$GT$5clone17hb4ba1c727e700db8E;
	.scl	2;
	.type	32;
	.endef
	.section	.text,"xr",one_only,_ZN4core5clone5impls54_$LT$impl$u20$core..clone..Clone$u20$for$u20$$RF$T$GT$5clone17hb4ba1c727e700db8E
	.globl	_ZN4core5clone5impls54_$LT$impl$u20$core..clone..Clone$u20$for$u20$$RF$T$GT$5clone17hb4ba1c727e700db8E
	.p2align	4, 0x90
_ZN4core5clone5impls54_$LT$impl$u20$core..clone..Clone$u20$for$u20$$RF$T$GT$5clone17hb4ba1c727e700db8E:
.Lfunc_begin70:
	.cv_func_id 89
	.cv_loc	89 23 237 0
.seh_proc _ZN4core5clone5impls54_$LT$impl$u20$core..clone..Clone$u20$for$u20$$RF$T$GT$5clone17hb4ba1c727e700db8E
	pushq	%rax
	.seh_stackalloc 8
	.seh_endprologue
	movq	%rcx, (%rsp)
.Ltmp254:
	.cv_loc	89 23 238 0
	movq	(%rcx), %rax
	movq	8(%rcx), %rdx
	.cv_loc	89 23 239 0
	popq	%rcx
	retq
.Ltmp255:
.Lfunc_end70:
	.seh_endproc

	.def	_ZN4core5slice29_$LT$impl$u20$$u5b$T$u5d$$GT$4iter17hbd1b2128e549f952E;
	.scl	2;
	.type	32;
	.endef
	.section	.text,"xr",one_only,_ZN4core5slice29_$LT$impl$u20$$u5b$T$u5d$$GT$4iter17hbd1b2128e549f952E
	.globl	_ZN4core5slice29_$LT$impl$u20$$u5b$T$u5d$$GT$4iter17hbd1b2128e549f952E
	.p2align	4, 0x90
_ZN4core5slice29_$LT$impl$u20$$u5b$T$u5d$$GT$4iter17hbd1b2128e549f952E:
.Lfunc_begin71:
	.cv_func_id 90
	.cv_file	24 "/rustc/90743e7298aca107ddaa0c202a4d3604e29bfeb6\\library\\core\\src\\slice\\mod.rs" "469E67EFED13A6BFB15AA7DF3FFAD53171FED1D4" 2
	.cv_loc	90 24 734 0
.seh_proc _ZN4core5slice29_$LT$impl$u20$$u5b$T$u5d$$GT$4iter17hbd1b2128e549f952E
	subq	$72, %rsp
	.seh_stackalloc 72
	.seh_endprologue
	movq	%rcx, 56(%rsp)
	movq	%rdx, 64(%rsp)
.Ltmp256:
	.cv_loc	90 24 735 0
	callq	_ZN4core5slice4iter13Iter$LT$T$GT$3new17h11e48488269fcb81E
	movq	%rax, 40(%rsp)
	movq	%rdx, 48(%rsp)
	.cv_loc	90 24 736 0
	movq	48(%rsp), %rdx
	movq	40(%rsp), %rax
	addq	$72, %rsp
	retq
.Ltmp257:
.Lfunc_end71:
	.seh_endproc

	.def	_ZN4core5slice4iter13Iter$LT$T$GT$3new17h11e48488269fcb81E;
	.scl	2;
	.type	32;
	.endef
	.section	.text,"xr",one_only,_ZN4core5slice4iter13Iter$LT$T$GT$3new17h11e48488269fcb81E
	.globl	_ZN4core5slice4iter13Iter$LT$T$GT$3new17h11e48488269fcb81E
	.p2align	4, 0x90
_ZN4core5slice4iter13Iter$LT$T$GT$3new17h11e48488269fcb81E:
.Lfunc_begin72:
	.cv_func_id 91
	.cv_file	25 "/rustc/90743e7298aca107ddaa0c202a4d3604e29bfeb6\\library\\core\\src\\slice\\iter.rs" "81C2A26A7DA62E6A476358CFC723CE2AD4FD0BD3" 2
	.cv_loc	91 25 88 0
.seh_proc _ZN4core5slice4iter13Iter$LT$T$GT$3new17h11e48488269fcb81E
	subq	$280, %rsp
	.seh_stackalloc 280
	.seh_endprologue
	movq	%rdx, 48(%rsp)
	movq	%rcx, 56(%rsp)
	movq	%rcx, 112(%rsp)
	movq	%rdx, 120(%rsp)
.Ltmp258:
	.cv_loc	91 25 89 0
	movq	%rcx, 136(%rsp)
	movq	%rdx, 144(%rsp)
.Ltmp259:
	.cv_inline_site_id 92 within 91 inlined_at 25 89 0
	.cv_loc	92 24 470 0
	movq	%rcx, 152(%rsp)
.Ltmp260:
	.cv_loc	91 25 92 0
	callq	_ZN4core3ptr9const_ptr33_$LT$impl$u20$$BP$const$u20$T$GT$7is_null17h86ec2485dff9126cE
	.cv_loc	91 25 95 0
	xorl	%eax, %eax
	testb	$1, %al
	jne	.LBB72_3
	movq	56(%rsp), %rax
	movq	48(%rsp), %rcx
	movq	%rax, 240(%rsp)
	movq	%rcx, 248(%rsp)
.Ltmp261:
	.cv_inline_site_id 93 within 91 inlined_at 25 95 0
	.cv_loc	93 16 897 0
	movq	%rax, 256(%rsp)
	movq	%rcx, 264(%rsp)
.Ltmp262:
	.cv_inline_site_id 94 within 93 inlined_at 16 897 0
	.cv_loc	94 16 461 0
	shlq	$4, %rcx
	addq	%rcx, %rax
	movq	%rax, 80(%rsp)
	jmp	.LBB72_6
.Ltmp263:
.LBB72_3:
	.cv_loc	91 25 95 0
	movq	48(%rsp), %rcx
	movq	56(%rsp), %rax
	movq	%rax, 160(%rsp)
	movq	%rcx, 168(%rsp)
.Ltmp264:
	.cv_loc	93 16 1085 0
	movq	%rax, 176(%rsp)
.Ltmp265:
	.cv_inline_site_id 95 within 93 inlined_at 16 1085 0
	.cv_loc	95 16 50 0
	movq	%rax, 184(%rsp)
.Ltmp266:
	.cv_loc	93 16 1085 0
	movq	%rcx, 192(%rsp)
.Ltmp267:
	.cv_loc	95 16 1067 0
	movq	%rax, 200(%rsp)
	movq	%rcx, 208(%rsp)
.Ltmp268:
	.cv_inline_site_id 96 within 95 inlined_at 16 1067 0
	.cv_loc	96 16 544 0
	addq	%rcx, %rax
	movq	%rax, 216(%rsp)
	movq	216(%rsp), %rax
	movq	%rax, 40(%rsp)
	movq	%rax, 224(%rsp)
.Ltmp269:
	.cv_loc	95 16 50 0
	movq	40(%rsp), %rax
.Ltmp270:
	movq	%rax, 232(%rsp)
.Ltmp271:
	.cv_loc	95 17 117 0
	movq	%rax, 104(%rsp)
	movq	104(%rsp), %rax
	movq	%rax, 96(%rsp)
	movq	96(%rsp), %rax
	movq	%rax, 80(%rsp)
.Ltmp272:
.LBB72_5:
	.cv_loc	91 25 97 0
	movq	56(%rsp), %rax
.Ltmp273:
	movq	%rax, 272(%rsp)
.Ltmp274:
	.cv_file	26 "/rustc/90743e7298aca107ddaa0c202a4d3604e29bfeb6\\library\\core\\src\\ptr\\non_null.rs" "BF153F11BACC87751A6F352BD7848272E6E2C60C" 2
	.cv_inline_site_id 97 within 91 inlined_at 25 97 0
	.cv_loc	97 26 201 0
	movq	%rax, 88(%rsp)
.Ltmp275:
	.cv_loc	91 25 97 0
	movq	80(%rsp), %rax
	movq	88(%rsp), %rcx
	movq	%rcx, 64(%rsp)
	movq	%rax, 72(%rsp)
.Ltmp276:
	.cv_loc	91 25 99 0
	movq	64(%rsp), %rax
	movq	72(%rsp), %rdx
	addq	$280, %rsp
	retq
.LBB72_6:
.Ltmp277:
	.cv_loc	91 25 95 0
	jmp	.LBB72_5
.Ltmp278:
.Lfunc_end72:
	.seh_endproc

	.def	_ZN4core5slice4iter13Iter$LT$T$GT$3new17h8292e8a28109637dE;
	.scl	2;
	.type	32;
	.endef
	.section	.text,"xr",one_only,_ZN4core5slice4iter13Iter$LT$T$GT$3new17h8292e8a28109637dE
	.globl	_ZN4core5slice4iter13Iter$LT$T$GT$3new17h8292e8a28109637dE
	.p2align	4, 0x90
_ZN4core5slice4iter13Iter$LT$T$GT$3new17h8292e8a28109637dE:
.Lfunc_begin73:
	.cv_func_id 98
	.cv_loc	98 25 88 0
.seh_proc _ZN4core5slice4iter13Iter$LT$T$GT$3new17h8292e8a28109637dE
	subq	$280, %rsp
	.seh_stackalloc 280
	.seh_endprologue
	movq	%rdx, 48(%rsp)
	movq	%rcx, 56(%rsp)
	movq	%rcx, 112(%rsp)
	movq	%rdx, 120(%rsp)
.Ltmp279:
	.cv_loc	98 25 89 0
	movq	%rcx, 136(%rsp)
	movq	%rdx, 144(%rsp)
.Ltmp280:
	.cv_inline_site_id 99 within 98 inlined_at 25 89 0
	.cv_loc	99 24 470 0
	movq	%rcx, 152(%rsp)
.Ltmp281:
	.cv_loc	98 25 92 0
	callq	_ZN4core3ptr9const_ptr33_$LT$impl$u20$$BP$const$u20$T$GT$7is_null17hfdf3c358f696b9e1E
	.cv_loc	98 25 95 0
	xorl	%eax, %eax
	testb	$1, %al
	jne	.LBB73_3
	movq	48(%rsp), %rcx
	movq	56(%rsp), %rax
	movq	%rax, 240(%rsp)
	movq	%rcx, 248(%rsp)
.Ltmp282:
	.cv_inline_site_id 100 within 98 inlined_at 25 95 0
	.cv_loc	100 16 897 0
	movq	%rax, 256(%rsp)
	movq	%rcx, 264(%rsp)
.Ltmp283:
	.cv_inline_site_id 101 within 100 inlined_at 16 897 0
	.cv_loc	101 16 461 0
	addq	%rcx, %rax
	movq	%rax, 80(%rsp)
	jmp	.LBB73_6
.Ltmp284:
.LBB73_3:
	.cv_loc	98 25 95 0
	movq	48(%rsp), %rcx
	movq	56(%rsp), %rax
	movq	%rax, 160(%rsp)
	movq	%rcx, 168(%rsp)
.Ltmp285:
	.cv_loc	100 16 1085 0
	movq	%rax, 176(%rsp)
.Ltmp286:
	.cv_inline_site_id 102 within 100 inlined_at 16 1085 0
	.cv_loc	102 16 50 0
	movq	%rax, 184(%rsp)
.Ltmp287:
	.cv_loc	100 16 1085 0
	movq	%rcx, 192(%rsp)
.Ltmp288:
	.cv_loc	102 16 1067 0
	movq	%rax, 200(%rsp)
	movq	%rcx, 208(%rsp)
.Ltmp289:
	.cv_inline_site_id 103 within 102 inlined_at 16 1067 0
	.cv_loc	103 16 544 0
	addq	%rcx, %rax
	movq	%rax, 216(%rsp)
	movq	216(%rsp), %rax
	movq	%rax, 40(%rsp)
	movq	%rax, 224(%rsp)
.Ltmp290:
	.cv_loc	102 16 50 0
	movq	40(%rsp), %rax
.Ltmp291:
	movq	%rax, 232(%rsp)
.Ltmp292:
	.cv_loc	102 17 117 0
	movq	%rax, 104(%rsp)
	movq	104(%rsp), %rax
	movq	%rax, 96(%rsp)
	movq	96(%rsp), %rax
	movq	%rax, 80(%rsp)
.Ltmp293:
.LBB73_5:
	.cv_loc	98 25 97 0
	movq	56(%rsp), %rax
.Ltmp294:
	movq	%rax, 272(%rsp)
.Ltmp295:
	.cv_inline_site_id 104 within 98 inlined_at 25 97 0
	.cv_loc	104 26 201 0
	movq	%rax, 88(%rsp)
.Ltmp296:
	.cv_loc	98 25 97 0
	movq	80(%rsp), %rax
	movq	88(%rsp), %rcx
	movq	%rcx, 64(%rsp)
	movq	%rax, 72(%rsp)
.Ltmp297:
	.cv_loc	98 25 99 0
	movq	64(%rsp), %rax
	movq	72(%rsp), %rdx
	addq	$280, %rsp
	retq
.LBB73_6:
.Ltmp298:
	.cv_loc	98 25 95 0
	jmp	.LBB73_5
.Ltmp299:
.Lfunc_end73:
	.seh_endproc

	.def	_ZN4core5slice4iter87_$LT$impl$u20$core..iter..traits..collect..IntoIterator$u20$for$u20$$RF$$u5b$T$u5d$$GT$9into_iter17h9eb44a5d5f3f7606E;
	.scl	2;
	.type	32;
	.endef
	.section	.text,"xr",one_only,_ZN4core5slice4iter87_$LT$impl$u20$core..iter..traits..collect..IntoIterator$u20$for$u20$$RF$$u5b$T$u5d$$GT$9into_iter17h9eb44a5d5f3f7606E
	.globl	_ZN4core5slice4iter87_$LT$impl$u20$core..iter..traits..collect..IntoIterator$u20$for$u20$$RF$$u5b$T$u5d$$GT$9into_iter17h9eb44a5d5f3f7606E
	.p2align	4, 0x90
_ZN4core5slice4iter87_$LT$impl$u20$core..iter..traits..collect..IntoIterator$u20$for$u20$$RF$$u5b$T$u5d$$GT$9into_iter17h9eb44a5d5f3f7606E:
.Lfunc_begin74:
	.cv_func_id 105
	.cv_loc	105 25 23 0
.seh_proc _ZN4core5slice4iter87_$LT$impl$u20$core..iter..traits..collect..IntoIterator$u20$for$u20$$RF$$u5b$T$u5d$$GT$9into_iter17h9eb44a5d5f3f7606E
	subq	$88, %rsp
	.seh_stackalloc 88
	.seh_endprologue
	movq	%rcx, 56(%rsp)
	movq	%rdx, 64(%rsp)
.Ltmp300:
	.cv_loc	105 25 24 0
	movq	%rcx, 72(%rsp)
	movq	%rdx, 80(%rsp)
.Ltmp301:
	.cv_inline_site_id 106 within 105 inlined_at 25 24 0
	.cv_loc	106 24 735 0
	callq	_ZN4core5slice4iter13Iter$LT$T$GT$3new17h8292e8a28109637dE
	movq	%rax, 40(%rsp)
	movq	%rdx, 48(%rsp)
.Ltmp302:
	.cv_loc	105 25 25 0
	movq	48(%rsp), %rdx
	movq	40(%rsp), %rax
	addq	$88, %rsp
	retq
.Ltmp303:
.Lfunc_end74:
	.seh_endproc

	.def	_ZN4core5slice5ascii30_$LT$impl$u20$$u5b$u8$u5d$$GT$20eq_ignore_ascii_case17h7863e946041fbce9E;
	.scl	3;
	.type	32;
	.endef
	.section	.text,"xr",one_only,_ZN4core5slice5ascii30_$LT$impl$u20$$u5b$u8$u5d$$GT$20eq_ignore_ascii_case17h7863e946041fbce9E
	.p2align	4, 0x90
_ZN4core5slice5ascii30_$LT$impl$u20$$u5b$u8$u5d$$GT$20eq_ignore_ascii_case17h7863e946041fbce9E:
.Lfunc_begin75:
	.cv_func_id 107
	.cv_file	27 "/rustc/90743e7298aca107ddaa0c202a4d3604e29bfeb6\\library\\core\\src\\slice\\ascii.rs" "EBF59AE114D6E764B2A55DE5D5233072203A609C" 2
	.cv_loc	107 27 26 0
.seh_proc _ZN4core5slice5ascii30_$LT$impl$u20$$u5b$u8$u5d$$GT$20eq_ignore_ascii_case17h7863e946041fbce9E
	subq	$216, %rsp
	.seh_stackalloc 216
	.seh_endprologue
	movq	%r9, 56(%rsp)
	movq	%r8, 64(%rsp)
	movq	%rdx, 72(%rsp)
	movq	%rcx, 80(%rsp)
	movq	%rcx, 160(%rsp)
	movq	%rdx, 168(%rsp)
	movq	%r8, 176(%rsp)
	movq	%r9, 184(%rsp)
.Ltmp304:
	.cv_loc	107 27 27 0
	cmpq	%r9, %rdx
	je	.LBB75_2
	movb	$0, 95(%rsp)
	jmp	.LBB75_6
.LBB75_2:
	movq	56(%rsp), %rax
	movq	64(%rsp), %r9
	movq	72(%rsp), %r8
	movq	80(%rsp), %rdx
	leaq	96(%rsp), %rcx
	movq	%rax, 32(%rsp)
	callq	_ZN4core4iter8adapters3zip3zip17ha60b34d109c5fbdbE
	leaq	96(%rsp), %rax
	movq	%rax, 208(%rsp)
.Ltmp305:
	.cv_inline_site_id 108 within 107 inlined_at 27 27 0
	.cv_loc	108 19 2583 0
	leaq	96(%rsp), %rcx
	callq	_ZN4core4iter6traits8iterator8Iterator8try_fold17h09599ec554a4d3e9E
	andb	$1, %al
	movb	%al, 159(%rsp)
	leaq	159(%rsp), %rcx
	leaq	__unnamed_17(%rip), %rdx
	callq	_ZN90_$LT$core..ops..control_flow..ControlFlow$LT$B$C$C$GT$$u20$as$u20$core..cmp..PartialEq$GT$2eq17h4ae32978ea388fb8E
	movb	%al, 55(%rsp)
.Ltmp306:
	.cv_loc	107 27 27 0
	movb	55(%rsp), %al
	andb	$1, %al
	movb	%al, 95(%rsp)
.LBB75_6:
	.cv_loc	107 27 28 0
	movb	95(%rsp), %al
	andb	$1, %al
	movzbl	%al, %eax
	addq	$216, %rsp
	retq
.Ltmp307:
.Lfunc_end75:
	.seh_endproc

	.def	_ZN4core5slice5ascii30_$LT$impl$u20$$u5b$u8$u5d$$GT$20eq_ignore_ascii_case28_$u7b$$u7b$closure$u7d$$u7d$17h376647092af66401E;
	.scl	2;
	.type	32;
	.endef
	.section	.text,"xr",one_only,_ZN4core5slice5ascii30_$LT$impl$u20$$u5b$u8$u5d$$GT$20eq_ignore_ascii_case28_$u7b$$u7b$closure$u7d$$u7d$17h376647092af66401E
	.globl	_ZN4core5slice5ascii30_$LT$impl$u20$$u5b$u8$u5d$$GT$20eq_ignore_ascii_case28_$u7b$$u7b$closure$u7d$$u7d$17h376647092af66401E
	.p2align	4, 0x90
_ZN4core5slice5ascii30_$LT$impl$u20$$u5b$u8$u5d$$GT$20eq_ignore_ascii_case28_$u7b$$u7b$closure$u7d$$u7d$17h376647092af66401E:
.Lfunc_begin76:
	.cv_func_id 109
	.cv_loc	109 27 27 0
.seh_proc _ZN4core5slice5ascii30_$LT$impl$u20$$u5b$u8$u5d$$GT$20eq_ignore_ascii_case28_$u7b$$u7b$closure$u7d$$u7d$17h376647092af66401E
	subq	$104, %rsp
	.seh_stackalloc 104
	.seh_endprologue
	movq	%r8, 40(%rsp)
	movq	%rdx, %rax
	movq	40(%rsp), %rdx
	movq	%rax, 48(%rsp)
	movq	%rcx, %rax
	movq	48(%rsp), %rcx
	movq	%rax, 64(%rsp)
	movq	%rcx, 72(%rsp)
	movq	%rdx, 80(%rsp)
.Ltmp308:
	movq	%rcx, 88(%rsp)
	movq	%rdx, 96(%rsp)
.Ltmp309:
	.cv_loc	109 27 27 0
	callq	_ZN4core3num20_$LT$impl$u20$u8$GT$20eq_ignore_ascii_case17h50e3a38f4509c631E
	movb	%al, 63(%rsp)
.Ltmp310:
	.cv_loc	109 27 27 0
	movb	63(%rsp), %al
	andb	$1, %al
	movzbl	%al, %eax
	addq	$104, %rsp
	retq
.Ltmp311:
.Lfunc_end76:
	.seh_endproc

	.def	_ZN4core6option15Option$LT$T$GT$3map17h1adb190aecffb11dE;
	.scl	2;
	.type	32;
	.endef
	.section	.text,"xr",one_only,_ZN4core6option15Option$LT$T$GT$3map17h1adb190aecffb11dE
	.globl	_ZN4core6option15Option$LT$T$GT$3map17h1adb190aecffb11dE
	.p2align	4, 0x90
_ZN4core6option15Option$LT$T$GT$3map17h1adb190aecffb11dE:
.Lfunc_begin77:
	.cv_func_id 110
	.cv_file	28 "/rustc/90743e7298aca107ddaa0c202a4d3604e29bfeb6\\library\\core\\src\\option.rs" "90C726EEAFDA9622B6943DEFD1DB69455BE3ACDC" 2
	.cv_loc	110 28 919 0
.seh_proc _ZN4core6option15Option$LT$T$GT$3map17h1adb190aecffb11dE
	subq	$136, %rsp
	.seh_stackalloc 136
	.seh_endprologue
	movq	%rcx, 32(%rsp)
	movq	%rcx, 40(%rsp)
	movq	%rdx, 48(%rsp)
	movq	%r8, 56(%rsp)
.Ltmp312:
	.cv_loc	110 28 924 0
	movb	$1, 111(%rsp)
	movq	48(%rsp), %rax
	testq	%rax, %rax
	setne	%al
	movzbl	%al, %eax
	je	.LBB77_2
	jmp	.LBB77_8
.LBB77_8:
	jmp	.LBB77_3
	ud2
.LBB77_2:
	.cv_loc	110 28 926 0
	movq	32(%rsp), %rax
	movq	$2, (%rax)
	jmp	.LBB77_5
.LBB77_3:
	.cv_loc	110 28 925 0
	movq	48(%rsp), %rcx
	movq	56(%rsp), %rax
	movq	%rcx, 120(%rsp)
	movq	%rax, 128(%rsp)
.Ltmp313:
	.cv_loc	110 28 925 0
	movb	$0, 111(%rsp)
	movq	%rcx, 88(%rsp)
	movq	%rax, 96(%rsp)
	movq	88(%rsp), %rdx
	movq	96(%rsp), %r8
	leaq	64(%rsp), %rcx
	callq	_ZN4core3ops8function6FnOnce9call_once17h18cf68ca60ed9ddeE
	movq	32(%rsp), %rax
	movq	64(%rsp), %rcx
	movq	%rcx, (%rax)
	movq	72(%rsp), %rcx
	movq	%rcx, 8(%rax)
	movq	80(%rsp), %rcx
	movq	%rcx, 16(%rax)
.Ltmp314:
.LBB77_5:
	.cv_loc	110 28 928 0
	testb	$1, 111(%rsp)
	jne	.LBB77_7
.LBB77_6:
	movq	40(%rsp), %rax
	addq	$136, %rsp
	retq
.LBB77_7:
	jmp	.LBB77_6
.Ltmp315:
.Lfunc_end77:
	.seh_endproc

	.def	_ZN4core6option15Option$LT$T$GT$3map17ha06c06ae9da30a75E;
	.scl	2;
	.type	32;
	.endef
	.section	.text,"xr",one_only,_ZN4core6option15Option$LT$T$GT$3map17ha06c06ae9da30a75E
	.globl	_ZN4core6option15Option$LT$T$GT$3map17ha06c06ae9da30a75E
	.p2align	4, 0x90
_ZN4core6option15Option$LT$T$GT$3map17ha06c06ae9da30a75E:
.Lfunc_begin78:
	.cv_func_id 111
	.cv_loc	111 28 919 0
.seh_proc _ZN4core6option15Option$LT$T$GT$3map17ha06c06ae9da30a75E
	subq	$104, %rsp
	.seh_stackalloc 104
	.seh_endprologue
	movq	%rcx, 48(%rsp)
	movq	%rdx, 56(%rsp)
.Ltmp316:
	.cv_loc	111 28 924 0
	movb	$1, 87(%rsp)
	movq	48(%rsp), %rax
	testq	%rax, %rax
	je	.LBB78_2
	jmp	.LBB78_8
.LBB78_8:
	jmp	.LBB78_3
	ud2
.LBB78_2:
	.cv_loc	111 28 926 0
	movq	$6, 64(%rsp)
	jmp	.LBB78_5
.LBB78_3:
	.cv_loc	111 28 925 0
	movq	56(%rsp), %rax
	movq	%rax, 96(%rsp)
.Ltmp317:
	.cv_loc	111 28 925 0
	movb	$0, 87(%rsp)
	movq	%rax, 72(%rsp)
	movq	72(%rsp), %rcx
	callq	_ZN63_$LT$log..LevelFilter$u20$as$u20$core..str..traits..FromStr$GT$8from_str28_$u7b$$u7b$closure$u7d$$u7d$17ha8f194f1a6476c9fE
	movq	%rax, 40(%rsp)
	movq	40(%rsp), %rax
	movq	%rax, 64(%rsp)
.Ltmp318:
.LBB78_5:
	.cv_loc	111 28 928 0
	testb	$1, 87(%rsp)
	jne	.LBB78_7
.LBB78_6:
	movq	64(%rsp), %rax
	addq	$104, %rsp
	retq
.LBB78_7:
	jmp	.LBB78_6
.Ltmp319:
.Lfunc_end78:
	.seh_endproc

	.def	_ZN4core6option15Option$LT$T$GT$3map17hb75b2203c49d4357E;
	.scl	2;
	.type	32;
	.endef
	.section	.text,"xr",one_only,_ZN4core6option15Option$LT$T$GT$3map17hb75b2203c49d4357E
	.globl	_ZN4core6option15Option$LT$T$GT$3map17hb75b2203c49d4357E
	.p2align	4, 0x90
_ZN4core6option15Option$LT$T$GT$3map17hb75b2203c49d4357E:
.Lfunc_begin79:
	.cv_func_id 112
	.cv_loc	112 28 919 0
.seh_proc _ZN4core6option15Option$LT$T$GT$3map17hb75b2203c49d4357E
	subq	$104, %rsp
	.seh_stackalloc 104
	.seh_endprologue
	movq	%r8, 40(%rsp)
	movq	%rcx, 48(%rsp)
	movq	%rdx, 56(%rsp)
	movq	%r8, 88(%rsp)
.Ltmp320:
	.cv_loc	112 28 924 0
	movb	$1, 87(%rsp)
	movq	48(%rsp), %rax
	testq	%rax, %rax
	je	.LBB79_2
	jmp	.LBB79_8
.LBB79_8:
	jmp	.LBB79_3
	ud2
.LBB79_2:
	.cv_loc	112 28 926 0
	movq	$0, 64(%rsp)
	jmp	.LBB79_5
.LBB79_3:
	.cv_loc	112 28 925 0
	movq	40(%rsp), %rcx
	movq	56(%rsp), %rax
	movq	%rax, 96(%rsp)
.Ltmp321:
	.cv_loc	112 28 925 0
	movb	$0, 87(%rsp)
	movq	%rax, 72(%rsp)
	movq	72(%rsp), %rdx
	callq	_ZN4core3ops8function5impls80_$LT$impl$u20$core..ops..function..FnOnce$LT$A$GT$$u20$for$u20$$RF$mut$u20$F$GT$9call_once17hcf25b1dbc461059dE
	movq	%rax, 32(%rsp)
	movq	32(%rsp), %rax
	movq	%rax, 64(%rsp)
.Ltmp322:
.LBB79_5:
	.cv_loc	112 28 928 0
	testb	$1, 87(%rsp)
	jne	.LBB79_7
.LBB79_6:
	movq	64(%rsp), %rax
	addq	$104, %rsp
	retq
.LBB79_7:
	jmp	.LBB79_6
.Ltmp323:
.Lfunc_end79:
	.seh_endproc

	.def	_ZN4core6option15Option$LT$T$GT$6unwrap17h5bba3775642c2384E;
	.scl	2;
	.type	32;
	.endef
	.section	.text,"xr",one_only,_ZN4core6option15Option$LT$T$GT$6unwrap17h5bba3775642c2384E
	.globl	_ZN4core6option15Option$LT$T$GT$6unwrap17h5bba3775642c2384E
	.p2align	4, 0x90
_ZN4core6option15Option$LT$T$GT$6unwrap17h5bba3775642c2384E:
.Lfunc_begin80:
	.cv_func_id 113
	.cv_loc	113 28 775 0
.seh_proc _ZN4core6option15Option$LT$T$GT$6unwrap17h5bba3775642c2384E
	subq	$56, %rsp
	.seh_stackalloc 56
	.seh_endprologue
	movq	%rdx, 32(%rsp)
	movq	%rcx, 40(%rsp)
.Ltmp324:
	.cv_loc	113 28 776 0
	movq	40(%rsp), %rax
	addq	$-6, %rax
	setne	%al
	movzbl	%al, %eax
	je	.LBB80_2
	jmp	.LBB80_4
.LBB80_4:
	jmp	.LBB80_3
	ud2
.LBB80_2:
	.cv_loc	113 28 778 0
	movq	32(%rsp), %r8
	leaq	__unnamed_18(%rip), %rcx
	movl	$43, %edx
	callq	_ZN4core9panicking5panic17h8f0a900b6fd3539bE
	ud2
.LBB80_3:
	.cv_loc	113 28 777 0
	movq	40(%rsp), %rax
	movq	%rax, 48(%rsp)
	.cv_loc	113 28 780 0
	addq	$56, %rsp
	retq
.Ltmp325:
.Lfunc_end80:
	.seh_endproc

	.def	_ZN4core6option15Option$LT$T$GT$6unwrap17h9655a6b754baa900E;
	.scl	2;
	.type	32;
	.endef
	.section	.text,"xr",one_only,_ZN4core6option15Option$LT$T$GT$6unwrap17h9655a6b754baa900E
	.globl	_ZN4core6option15Option$LT$T$GT$6unwrap17h9655a6b754baa900E
	.p2align	4, 0x90
_ZN4core6option15Option$LT$T$GT$6unwrap17h9655a6b754baa900E:
.Lfunc_begin81:
	.cv_func_id 114
	.cv_loc	114 28 775 0
.seh_proc _ZN4core6option15Option$LT$T$GT$6unwrap17h9655a6b754baa900E
	subq	$56, %rsp
	.seh_stackalloc 56
	.seh_endprologue
	movq	%rdx, 32(%rsp)
	movq	%rcx, 40(%rsp)
.Ltmp326:
	.cv_loc	114 28 776 0
	movq	40(%rsp), %rax
	testq	%rax, %rax
	setne	%al
	movzbl	%al, %eax
	je	.LBB81_2
	jmp	.LBB81_4
.LBB81_4:
	jmp	.LBB81_3
	ud2
.LBB81_2:
	.cv_loc	114 28 778 0
	movq	32(%rsp), %r8
	leaq	__unnamed_18(%rip), %rcx
	movl	$43, %edx
	callq	_ZN4core9panicking5panic17h8f0a900b6fd3539bE
	ud2
.LBB81_3:
	.cv_loc	114 28 777 0
	movq	40(%rsp), %rax
	movq	%rax, 48(%rsp)
	.cv_loc	114 28 780 0
	addq	$56, %rsp
	retq
.Ltmp327:
.Lfunc_end81:
	.seh_endproc

	.def	_ZN4core6option15Option$LT$T$GT$7is_some17he5ce691fe3b99737E;
	.scl	2;
	.type	32;
	.endef
	.section	.text,"xr",one_only,_ZN4core6option15Option$LT$T$GT$7is_some17he5ce691fe3b99737E
	.globl	_ZN4core6option15Option$LT$T$GT$7is_some17he5ce691fe3b99737E
	.p2align	4, 0x90
_ZN4core6option15Option$LT$T$GT$7is_some17he5ce691fe3b99737E:
.Lfunc_begin82:
	.cv_func_id 115
	.cv_loc	115 28 553 0
.seh_proc _ZN4core6option15Option$LT$T$GT$7is_some17he5ce691fe3b99737E
	subq	$16, %rsp
	.seh_stackalloc 16
	.seh_endprologue
	movq	%rcx, %rdx
	movq	%rdx, 8(%rsp)
.Ltmp328:
	.cv_loc	115 28 554 0
	movl	$1, %eax
	xorl	%ecx, %ecx
	cmpq	$0, (%rdx)
	cmoveq	%rcx, %rax
	cmpq	$1, %rax
	jne	.LBB82_2
	movb	$1, 7(%rsp)
	jmp	.LBB82_3
.LBB82_2:
	movb	$0, 7(%rsp)
.LBB82_3:
	.cv_loc	115 28 555 0
	movb	7(%rsp), %al
	andb	$1, %al
	movzbl	%al, %eax
	addq	$16, %rsp
	retq
.Ltmp329:
.Lfunc_end82:
	.seh_endproc

	.def	_ZN4core9panicking19unreachable_display17h905e98838e76e140E;
	.scl	2;
	.type	32;
	.endef
	.section	.text,"xr",one_only,_ZN4core9panicking19unreachable_display17h905e98838e76e140E
	.globl	_ZN4core9panicking19unreachable_display17h905e98838e76e140E
	.p2align	4, 0x90
_ZN4core9panicking19unreachable_display17h905e98838e76e140E:
.Lfunc_begin83:
	.cv_func_id 116
	.cv_file	29 "/rustc/90743e7298aca107ddaa0c202a4d3604e29bfeb6\\library\\core\\src\\panicking.rs" "45E0EC1FFCC9C5C88C6DBD3AA69AEE3F21396236" 2
	.cv_loc	116 29 129 0
.seh_proc _ZN4core9panicking19unreachable_display17h905e98838e76e140E
	subq	$200, %rsp
	.seh_stackalloc 200
	.seh_endprologue
	movq	%rdx, 48(%rsp)
	movq	%rcx, 56(%rsp)
	movq	%rcx, 152(%rsp)
.Ltmp330:
	.cv_loc	116 29 130 0
	movq	%rcx, 160(%rsp)
.Ltmp331:
	.cv_inline_site_id 117 within 116 inlined_at 29 130 0
	.cv_loc	117 6 323 0
	movq	%rcx, 168(%rsp)
	leaq	_ZN44_$LT$$RF$T$u20$as$u20$core..fmt..Display$GT$3fmt17h3d9670c1ca929305E(%rip), %rax
	movq	%rax, 176(%rsp)
.Ltmp332:
	.cv_inline_site_id 118 within 117 inlined_at 6 323 0
	.cv_loc	118 6 342 0
	leaq	_ZN44_$LT$$RF$T$u20$as$u20$core..fmt..Display$GT$3fmt17h3d9670c1ca929305E(%rip), %rax
	movq	%rax, 184(%rsp)
	movq	184(%rsp), %rax
	movq	%rax, 64(%rsp)
	movq	56(%rsp), %rax
	movq	%rax, 192(%rsp)
	movq	192(%rsp), %rax
	movq	%rax, 40(%rsp)
	movq	64(%rsp), %rax
	movq	40(%rsp), %rcx
	movq	%rcx, 136(%rsp)
	movq	%rax, 144(%rsp)
.Ltmp333:
	.cv_loc	116 29 130 0
	movq	136(%rsp), %rcx
	movq	144(%rsp), %rax
	movq	%rcx, 120(%rsp)
	movq	%rax, 128(%rsp)
	leaq	72(%rsp), %rcx
	leaq	__unnamed_19(%rip), %rdx
	movl	$1, %r8d
	leaq	120(%rsp), %r9
	movq	$1, 32(%rsp)
	callq	_ZN4core3fmt9Arguments6new_v117hf25a81549ea8a1faE
	movq	48(%rsp), %rdx
	leaq	72(%rsp), %rcx
	callq	_ZN4core9panicking9panic_fmt17h1862038ee9bad685E
	ud2
.Ltmp334:
.Lfunc_end83:
	.seh_endproc

	.def	_ZN59_$LT$core..fmt..Arguments$u20$as$u20$core..clone..Clone$GT$5clone17hf584abfeb65dec38E;
	.scl	3;
	.type	32;
	.endef
	.section	.text,"xr",one_only,_ZN59_$LT$core..fmt..Arguments$u20$as$u20$core..clone..Clone$GT$5clone17hf584abfeb65dec38E
	.p2align	4, 0x90
_ZN59_$LT$core..fmt..Arguments$u20$as$u20$core..clone..Clone$GT$5clone17hf584abfeb65dec38E:
.Lfunc_begin84:
	.cv_func_id 119
	.cv_loc	119 6 473 0
.seh_proc _ZN59_$LT$core..fmt..Arguments$u20$as$u20$core..clone..Clone$GT$5clone17hf584abfeb65dec38E
	subq	$56, %rsp
	.seh_stackalloc 56
	.seh_endprologue
	movq	%rcx, %rax
	movq	%rax, 40(%rsp)
	movq	%rdx, 48(%rsp)
.Ltmp335:
	movl	$48, %r8d
	callq	memcpy
	movq	40(%rsp), %rax
	addq	$56, %rsp
	retq
.Ltmp336:
.Lfunc_end84:
	.seh_endproc

	.def	_ZN66_$LT$core..option..Option$LT$T$GT$$u20$as$u20$core..fmt..Debug$GT$3fmt17h35654d456ea65722E;
	.scl	2;
	.type	32;
	.endef
	.section	.text,"xr",one_only,_ZN66_$LT$core..option..Option$LT$T$GT$$u20$as$u20$core..fmt..Debug$GT$3fmt17h35654d456ea65722E
	.globl	_ZN66_$LT$core..option..Option$LT$T$GT$$u20$as$u20$core..fmt..Debug$GT$3fmt17h35654d456ea65722E
	.p2align	4, 0x90
_ZN66_$LT$core..option..Option$LT$T$GT$$u20$as$u20$core..fmt..Debug$GT$3fmt17h35654d456ea65722E:
.Lfunc_begin85:
	.cv_func_id 120
	.cv_loc	120 28 515 0
.seh_proc _ZN66_$LT$core..option..Option$LT$T$GT$$u20$as$u20$core..fmt..Debug$GT$3fmt17h35654d456ea65722E
	subq	$88, %rsp
	.seh_stackalloc 88
	.seh_endprologue
	movq	%rdx, 40(%rsp)
	movq	%rcx, 48(%rsp)
	movq	%rcx, 72(%rsp)
	movq	%rdx, 80(%rsp)
.Ltmp337:
	movl	(%rcx), %eax
	testq	%rax, %rax
	je	.LBB85_2
	jmp	.LBB85_7
.LBB85_7:
	jmp	.LBB85_3
	ud2
.LBB85_2:
	movq	40(%rsp), %rcx
	leaq	__unnamed_20(%rip), %rdx
	movl	$4, %r8d
	callq	_ZN4core3fmt9Formatter9write_str17h2411d457870fde7eE
	andb	$1, %al
	movb	%al, 63(%rsp)
	jmp	.LBB85_6
.LBB85_3:
	.cv_loc	120 28 526 0
	movq	40(%rsp), %rcx
	movq	48(%rsp), %rax
	addq	$4, %rax
	movq	%rax, 64(%rsp)
.Ltmp338:
	.cv_loc	120 28 515 0
	leaq	__unnamed_21(%rip), %rdx
	movl	$4, %r8d
	leaq	64(%rsp), %r9
	leaq	__unnamed_22(%rip), %rax
	movq	%rax, 32(%rsp)
	callq	_ZN4core3fmt9Formatter25debug_tuple_field1_finish17h9ba7571270ecdc76E
	andb	$1, %al
	movb	%al, 63(%rsp)
.Ltmp339:
	.cv_loc	120 28 515 0
	jmp	.LBB85_5
.LBB85_5:
	movb	63(%rsp), %al
	andb	$1, %al
	movzbl	%al, %eax
	addq	$88, %rsp
	retq
.LBB85_6:
	jmp	.LBB85_5
.Ltmp340:
.Lfunc_end85:
	.seh_endproc

	.def	_ZN66_$LT$core..option..Option$LT$T$GT$$u20$as$u20$core..fmt..Debug$GT$3fmt17h804614188db23df2E;
	.scl	2;
	.type	32;
	.endef
	.section	.text,"xr",one_only,_ZN66_$LT$core..option..Option$LT$T$GT$$u20$as$u20$core..fmt..Debug$GT$3fmt17h804614188db23df2E
	.globl	_ZN66_$LT$core..option..Option$LT$T$GT$$u20$as$u20$core..fmt..Debug$GT$3fmt17h804614188db23df2E
	.p2align	4, 0x90
_ZN66_$LT$core..option..Option$LT$T$GT$$u20$as$u20$core..fmt..Debug$GT$3fmt17h804614188db23df2E:
.Lfunc_begin86:
	.cv_func_id 121
	.cv_loc	121 28 515 0
.seh_proc _ZN66_$LT$core..option..Option$LT$T$GT$$u20$as$u20$core..fmt..Debug$GT$3fmt17h804614188db23df2E
	subq	$88, %rsp
	.seh_stackalloc 88
	.seh_endprologue
	movq	%rdx, 40(%rsp)
	movq	%rcx, 48(%rsp)
	movq	%rcx, 72(%rsp)
	movq	%rdx, 80(%rsp)
.Ltmp341:
	movq	(%rcx), %rax
	addq	$-2, %rax
	setne	%al
	movzbl	%al, %eax
	je	.LBB86_2
	jmp	.LBB86_7
.LBB86_7:
	jmp	.LBB86_3
	ud2
.LBB86_2:
	movq	40(%rsp), %rcx
	leaq	__unnamed_20(%rip), %rdx
	movl	$4, %r8d
	callq	_ZN4core3fmt9Formatter9write_str17h2411d457870fde7eE
	andb	$1, %al
	movb	%al, 63(%rsp)
	jmp	.LBB86_6
.LBB86_3:
	.cv_loc	121 28 526 0
	movq	40(%rsp), %rcx
	movq	48(%rsp), %rax
	movq	%rax, 64(%rsp)
.Ltmp342:
	.cv_loc	121 28 515 0
	leaq	__unnamed_21(%rip), %rdx
	movl	$4, %r8d
	leaq	64(%rsp), %r9
	leaq	__unnamed_23(%rip), %rax
	movq	%rax, 32(%rsp)
	callq	_ZN4core3fmt9Formatter25debug_tuple_field1_finish17h9ba7571270ecdc76E
	andb	$1, %al
	movb	%al, 63(%rsp)
.Ltmp343:
	.cv_loc	121 28 515 0
	jmp	.LBB86_5
.LBB86_5:
	movb	63(%rsp), %al
	andb	$1, %al
	movzbl	%al, %eax
	addq	$88, %rsp
	retq
.LBB86_6:
	jmp	.LBB86_5
.Ltmp344:
.Lfunc_end86:
	.seh_endproc

	.def	_ZN68_$LT$core..option..Option$LT$T$GT$$u20$as$u20$core..clone..Clone$GT$5clone17h7db8313a4f3f82faE;
	.scl	2;
	.type	32;
	.endef
	.section	.text,"xr",one_only,_ZN68_$LT$core..option..Option$LT$T$GT$$u20$as$u20$core..clone..Clone$GT$5clone17h7db8313a4f3f82faE
	.globl	_ZN68_$LT$core..option..Option$LT$T$GT$$u20$as$u20$core..clone..Clone$GT$5clone17h7db8313a4f3f82faE
	.p2align	4, 0x90
_ZN68_$LT$core..option..Option$LT$T$GT$$u20$as$u20$core..clone..Clone$GT$5clone17h7db8313a4f3f82faE:
.Lfunc_begin87:
	.cv_func_id 122
	.cv_loc	122 28 1893 0
.seh_proc _ZN68_$LT$core..option..Option$LT$T$GT$$u20$as$u20$core..clone..Clone$GT$5clone17h7db8313a4f3f82faE
	subq	$72, %rsp
	.seh_stackalloc 72
	.seh_endprologue
	movq	%rcx, 40(%rsp)
	movq	%rcx, 56(%rsp)
.Ltmp345:
	.cv_loc	122 28 1894 0
	movl	(%rcx), %eax
	testq	%rax, %rax
	je	.LBB87_2
	jmp	.LBB87_6
.LBB87_6:
	jmp	.LBB87_3
	ud2
.LBB87_2:
	.cv_loc	122 28 1896 0
	movl	$0, 48(%rsp)
	jmp	.LBB87_5
.LBB87_3:
	.cv_loc	122 28 1895 0
	movq	40(%rsp), %rcx
	addq	$4, %rcx
	movq	%rcx, 64(%rsp)
.Ltmp346:
	.cv_loc	122 28 1895 0
	callq	_ZN4core5clone5impls52_$LT$impl$u20$core..clone..Clone$u20$for$u20$u32$GT$5clone17hc265719111e814f9E
	movl	%eax, 36(%rsp)
	movl	36(%rsp), %eax
	movl	%eax, 52(%rsp)
	movl	$1, 48(%rsp)
.Ltmp347:
.LBB87_5:
	.cv_loc	122 28 1898 0
	movl	48(%rsp), %eax
	movl	52(%rsp), %edx
	addq	$72, %rsp
	retq
.Ltmp348:
.Lfunc_end87:
	.seh_endproc

	.def	_ZN68_$LT$core..option..Option$LT$T$GT$$u20$as$u20$core..clone..Clone$GT$5clone17hfb2af1b290f8aa18E;
	.scl	2;
	.type	32;
	.endef
	.section	.text,"xr",one_only,_ZN68_$LT$core..option..Option$LT$T$GT$$u20$as$u20$core..clone..Clone$GT$5clone17hfb2af1b290f8aa18E
	.globl	_ZN68_$LT$core..option..Option$LT$T$GT$$u20$as$u20$core..clone..Clone$GT$5clone17hfb2af1b290f8aa18E
	.p2align	4, 0x90
_ZN68_$LT$core..option..Option$LT$T$GT$$u20$as$u20$core..clone..Clone$GT$5clone17hfb2af1b290f8aa18E:
.Lfunc_begin88:
	.cv_func_id 123
	.cv_loc	123 28 1893 0
.seh_proc _ZN68_$LT$core..option..Option$LT$T$GT$$u20$as$u20$core..clone..Clone$GT$5clone17hfb2af1b290f8aa18E
	subq	$104, %rsp
	.seh_stackalloc 104
	.seh_endprologue
	movq	%rdx, 40(%rsp)
	movq	%rcx, 48(%rsp)
	movq	%rcx, 56(%rsp)
	movq	%rdx, 88(%rsp)
.Ltmp349:
	.cv_loc	123 28 1894 0
	movq	(%rdx), %rax
	addq	$-2, %rax
	setne	%al
	movzbl	%al, %eax
	je	.LBB88_2
	jmp	.LBB88_6
.LBB88_6:
	jmp	.LBB88_3
	ud2
.LBB88_2:
	.cv_loc	123 28 1896 0
	movq	48(%rsp), %rax
	movq	$2, (%rax)
	jmp	.LBB88_5
.LBB88_3:
	.cv_loc	123 28 1895 0
	movq	40(%rsp), %rdx
	movq	%rdx, 96(%rsp)
.Ltmp350:
	.cv_loc	123 28 1895 0
	leaq	64(%rsp), %rcx
	callq	_ZN58_$LT$log..MaybeStaticStr$u20$as$u20$core..clone..Clone$GT$5clone17h8704b06accf89400E
	movq	48(%rsp), %rax
	movq	64(%rsp), %rcx
	movq	%rcx, (%rax)
	movq	72(%rsp), %rcx
	movq	%rcx, 8(%rax)
	movq	80(%rsp), %rcx
	movq	%rcx, 16(%rax)
.Ltmp351:
.LBB88_5:
	.cv_loc	123 28 1898 0
	movq	56(%rsp), %rax
	addq	$104, %rsp
	retq
.Ltmp352:
.Lfunc_end88:
	.seh_endproc

	.def	_ZN90_$LT$core..ops..control_flow..ControlFlow$LT$B$C$C$GT$$u20$as$u20$core..cmp..PartialEq$GT$2eq17h4ae32978ea388fb8E;
	.scl	2;
	.type	32;
	.endef
	.section	.text,"xr",one_only,_ZN90_$LT$core..ops..control_flow..ControlFlow$LT$B$C$C$GT$$u20$as$u20$core..cmp..PartialEq$GT$2eq17h4ae32978ea388fb8E
	.globl	_ZN90_$LT$core..ops..control_flow..ControlFlow$LT$B$C$C$GT$$u20$as$u20$core..cmp..PartialEq$GT$2eq17h4ae32978ea388fb8E
	.p2align	4, 0x90
_ZN90_$LT$core..ops..control_flow..ControlFlow$LT$B$C$C$GT$$u20$as$u20$core..cmp..PartialEq$GT$2eq17h4ae32978ea388fb8E:
.Lfunc_begin89:
	.cv_func_id 124
	.cv_loc	124 3 82 0
.seh_proc _ZN90_$LT$core..ops..control_flow..ControlFlow$LT$B$C$C$GT$$u20$as$u20$core..cmp..PartialEq$GT$2eq17h4ae32978ea388fb8E
	subq	$136, %rsp
	.seh_stackalloc 136
	.seh_endprologue
	movq	%rdx, 32(%rsp)
	movq	%rcx, 40(%rsp)
	movq	%rcx, 72(%rsp)
	movq	%rdx, 80(%rsp)
.Ltmp353:
	movb	(%rcx), %al
	andb	$1, %al
	movzbl	%al, %eax
	movq	%rax, 88(%rsp)
.Ltmp354:
	.cv_loc	124 3 82 0
	movb	(%rdx), %cl
	andb	$1, %cl
	movzbl	%cl, %ecx
	movq	%rcx, 96(%rsp)
.Ltmp355:
	.cv_loc	124 3 82 0
	cmpq	%rcx, %rax
	je	.LBB89_2
	movb	$0, 54(%rsp)
	jmp	.LBB89_11
.LBB89_2:
	movq	32(%rsp), %rax
	movq	40(%rsp), %rcx
	movq	%rcx, 56(%rsp)
	movq	%rax, 64(%rsp)
	movq	56(%rsp), %rax
	movzbl	(%rax), %eax
	testb	$1, %al
	je	.LBB89_4
	jmp	.LBB89_12
.LBB89_12:
	jmp	.LBB89_5
.LBB89_3:
	ud2
.LBB89_4:
	movq	64(%rsp), %rax
	movb	(%rax), %al
	andb	$1, %al
	movzbl	%al, %eax
	cmpq	$0, %rax
	je	.LBB89_9
	jmp	.LBB89_3
.LBB89_5:
	movq	64(%rsp), %rax
	movb	(%rax), %al
	andb	$1, %al
	movzbl	%al, %eax
	cmpq	$1, %rax
	jne	.LBB89_3
	.cv_loc	124 3 91 0
	movq	56(%rsp), %rcx
	addq	$1, %rcx
	movq	%rcx, 104(%rsp)
	movq	64(%rsp), %rdx
	addq	$1, %rdx
	movq	%rdx, 112(%rsp)
.Ltmp356:
	.cv_loc	124 3 91 0
	callq	_ZN4core3cmp5impls59_$LT$impl$u20$core..cmp..PartialEq$u20$for$u20$$LP$$RP$$GT$2eq17h8cea1e0a43a0780dE
	andb	$1, %al
	movb	%al, 55(%rsp)
.Ltmp357:
	.cv_loc	124 3 82 0
	jmp	.LBB89_8
.LBB89_8:
	movb	55(%rsp), %al
	andb	$1, %al
	movb	%al, 54(%rsp)
	jmp	.LBB89_11
.LBB89_9:
	.cv_loc	124 3 87 0
	movq	56(%rsp), %rcx
	addq	$1, %rcx
	movq	%rcx, 120(%rsp)
	movq	64(%rsp), %rdx
	addq	$1, %rdx
	movq	%rdx, 128(%rsp)
.Ltmp358:
	.cv_loc	124 3 87 0
	callq	_ZN4core3cmp5impls59_$LT$impl$u20$core..cmp..PartialEq$u20$for$u20$$LP$$RP$$GT$2eq17h8cea1e0a43a0780dE
	andb	$1, %al
	movb	%al, 55(%rsp)
.Ltmp359:
	.cv_loc	124 3 82 0
	jmp	.LBB89_8
.Ltmp360:
.LBB89_11:
	.cv_loc	124 3 82 0
	movb	54(%rsp), %al
	andb	$1, %al
	movzbl	%al, %eax
	addq	$136, %rsp
	retq
.Ltmp361:
.Lfunc_end89:
	.seh_endproc

	.def	_ZN90_$LT$core..option..IntoIter$LT$A$GT$$u20$as$u20$core..iter..traits..iterator..Iterator$GT$4next17h5396f4ea2083e534E;
	.scl	2;
	.type	32;
	.endef
	.section	.text,"xr",one_only,_ZN90_$LT$core..option..IntoIter$LT$A$GT$$u20$as$u20$core..iter..traits..iterator..Iterator$GT$4next17h5396f4ea2083e534E
	.globl	_ZN90_$LT$core..option..IntoIter$LT$A$GT$$u20$as$u20$core..iter..traits..iterator..Iterator$GT$4next17h5396f4ea2083e534E
	.p2align	4, 0x90
_ZN90_$LT$core..option..IntoIter$LT$A$GT$$u20$as$u20$core..iter..traits..iterator..Iterator$GT$4next17h5396f4ea2083e534E:
.Lfunc_begin90:
	.cv_func_id 125
	.cv_loc	125 28 2182 0
.seh_proc _ZN90_$LT$core..option..IntoIter$LT$A$GT$$u20$as$u20$core..iter..traits..iterator..Iterator$GT$4next17h5396f4ea2083e534E
	subq	$88, %rsp
	.seh_stackalloc 88
	.seh_endprologue
	movq	%rcx, 64(%rsp)
.Ltmp362:
	.cv_loc	125 28 2183 0
	movq	%rcx, 72(%rsp)
.Ltmp363:
	.cv_inline_site_id 126 within 125 inlined_at 28 2183 0
	.cv_loc	126 28 2052 0
	movq	%rcx, 80(%rsp)
.Ltmp364:
	.cv_inline_site_id 127 within 126 inlined_at 28 2052 0
	.cv_loc	127 28 1578 0
	movq	$0, 48(%rsp)
	movq	48(%rsp), %rdx
	movq	56(%rsp), %r8
	callq	_ZN4core3mem7replace17ha5b14e1f3a0d1dd0E
	movq	%rax, 32(%rsp)
	movq	%rdx, 40(%rsp)
.Ltmp365:
	.cv_loc	125 28 2184 0
	movq	40(%rsp), %rdx
	movq	32(%rsp), %rax
	addq	$88, %rsp
	retq
.Ltmp366:
.Lfunc_end90:
	.seh_endproc

	.def	_ZN91_$LT$core..option..Option$LT$T$GT$$u20$as$u20$core..iter..traits..collect..IntoIterator$GT$9into_iter17h88628ef24320d5afE;
	.scl	2;
	.type	32;
	.endef
	.section	.text,"xr",one_only,_ZN91_$LT$core..option..Option$LT$T$GT$$u20$as$u20$core..iter..traits..collect..IntoIterator$GT$9into_iter17h88628ef24320d5afE
	.globl	_ZN91_$LT$core..option..Option$LT$T$GT$$u20$as$u20$core..iter..traits..collect..IntoIterator$GT$9into_iter17h88628ef24320d5afE
	.p2align	4, 0x90
_ZN91_$LT$core..option..Option$LT$T$GT$$u20$as$u20$core..iter..traits..collect..IntoIterator$GT$9into_iter17h88628ef24320d5afE:
.Lfunc_begin91:
	.cv_func_id 128
	.cv_loc	128 28 1945 0
.seh_proc _ZN91_$LT$core..option..Option$LT$T$GT$$u20$as$u20$core..iter..traits..collect..IntoIterator$GT$9into_iter17h88628ef24320d5afE
	subq	$48, %rsp
	.seh_stackalloc 48
	.seh_endprologue
	movq	%rcx, 32(%rsp)
	movq	%rdx, 40(%rsp)
.Ltmp367:
	.cv_loc	128 28 1946 0
	movq	%rcx, 16(%rsp)
	movq	%rdx, 24(%rsp)
	movq	16(%rsp), %rcx
	movq	24(%rsp), %rax
	movq	%rcx, (%rsp)
	movq	%rax, 8(%rsp)
	.cv_loc	128 28 1947 0
	movq	(%rsp), %rax
	movq	8(%rsp), %rdx
	addq	$48, %rsp
	retq
.Ltmp368:
.Lfunc_end91:
	.seh_endproc

	.def	_ZN91_$LT$core..slice..iter..Iter$LT$T$GT$$u20$as$u20$core..iter..traits..iterator..Iterator$GT$24__iterator_get_unchecked17h67ae0b3f4cbaa02cE;
	.scl	2;
	.type	32;
	.endef
	.section	.text,"xr",one_only,_ZN91_$LT$core..slice..iter..Iter$LT$T$GT$$u20$as$u20$core..iter..traits..iterator..Iterator$GT$24__iterator_get_unchecked17h67ae0b3f4cbaa02cE
	.globl	_ZN91_$LT$core..slice..iter..Iter$LT$T$GT$$u20$as$u20$core..iter..traits..iterator..Iterator$GT$24__iterator_get_unchecked17h67ae0b3f4cbaa02cE
	.p2align	4, 0x90
_ZN91_$LT$core..slice..iter..Iter$LT$T$GT$$u20$as$u20$core..iter..traits..iterator..Iterator$GT$24__iterator_get_unchecked17h67ae0b3f4cbaa02cE:
.Lfunc_begin92:
	.cv_func_id 129
	.cv_file	30 "/rustc/90743e7298aca107ddaa0c202a4d3604e29bfeb6\\library\\core\\src\\slice\\iter\\macros.rs" "19F7755CE876FD3198CD0868ABF2D093CE22A40E" 2
	.cv_loc	129 30 329 0
.seh_proc _ZN91_$LT$core..slice..iter..Iter$LT$T$GT$$u20$as$u20$core..iter..traits..iterator..Iterator$GT$24__iterator_get_unchecked17h67ae0b3f4cbaa02cE
	subq	$72, %rsp
	.seh_stackalloc 72
	.seh_endprologue
	movq	%rcx, 8(%rsp)
	movq	%rdx, 16(%rsp)
.Ltmp369:
	.cv_loc	129 30 340 0
	movq	(%rcx), %rax
	movq	%rax, 24(%rsp)
.Ltmp370:
	.cv_inline_site_id 130 within 129 inlined_at 30 340 0
	.cv_loc	130 26 335 0
	movq	%rax, 32(%rsp)
.Ltmp371:
	.cv_loc	129 30 340 0
	movq	%rdx, 40(%rsp)
.Ltmp372:
	.cv_loc	130 15 1003 0
	movq	%rax, 48(%rsp)
	movq	%rdx, 56(%rsp)
.Ltmp373:
	.cv_inline_site_id 131 within 130 inlined_at 15 1003 0
	.cv_loc	131 15 479 0
	addq	%rdx, %rax
	movq	%rax, 64(%rsp)
	movq	64(%rsp), %rax
	movq	%rax, (%rsp)
.Ltmp374:
	.cv_loc	129 30 341 0
	movq	(%rsp), %rax
	addq	$72, %rsp
	retq
.Ltmp375:
.Lfunc_end92:
	.seh_endproc

	.def	_ZN91_$LT$core..slice..iter..Iter$LT$T$GT$$u20$as$u20$core..iter..traits..iterator..Iterator$GT$4next17h84e9b9b5e97e6f73E;
	.scl	2;
	.type	32;
	.endef
	.section	.text,"xr",one_only,_ZN91_$LT$core..slice..iter..Iter$LT$T$GT$$u20$as$u20$core..iter..traits..iterator..Iterator$GT$4next17h84e9b9b5e97e6f73E
	.globl	_ZN91_$LT$core..slice..iter..Iter$LT$T$GT$$u20$as$u20$core..iter..traits..iterator..Iterator$GT$4next17h84e9b9b5e97e6f73E
	.p2align	4, 0x90
_ZN91_$LT$core..slice..iter..Iter$LT$T$GT$$u20$as$u20$core..iter..traits..iterator..Iterator$GT$4next17h84e9b9b5e97e6f73E:
.Lfunc_begin93:
	.cv_func_id 132
	.cv_loc	132 30 134 0
.seh_proc _ZN91_$LT$core..slice..iter..Iter$LT$T$GT$$u20$as$u20$core..iter..traits..iterator..Iterator$GT$4next17h84e9b9b5e97e6f73E
	subq	$264, %rsp
	.seh_stackalloc 264
	.seh_endprologue
	movq	%rcx, 56(%rsp)
	movq	%rcx, 104(%rsp)
.Ltmp376:
	.cv_loc	132 30 142 0
	movq	(%rcx), %rcx
	movq	%rcx, 120(%rsp)
	callq	_ZN4core3ptr7mut_ptr31_$LT$impl$u20$$BP$mut$u20$T$GT$7is_null17haa5a7f8abc0bec9aE
	.cv_loc	132 30 143 0
	movb	$1, %al
	testb	$1, %al
	jne	.LBB93_3
.LBB93_2:
	.cv_loc	132 30 146 0
	movq	56(%rsp), %rcx
	movq	(%rcx), %rax
	movq	%rax, 128(%rsp)
	cmpq	8(%rcx), %rax
	je	.LBB93_6
	jmp	.LBB93_5
.LBB93_3:
	.cv_loc	132 30 144 0
	movq	56(%rsp), %rax
	movq	8(%rax), %rcx
	callq	_ZN4core3ptr9const_ptr33_$LT$impl$u20$$BP$const$u20$T$GT$7is_null17h86ec2485dff9126cE
	.cv_loc	132 30 143 0
	jmp	.LBB93_2
.LBB93_5:
	.cv_loc	132 30 149 0
	movq	56(%rsp), %rax
	movq	%rax, 136(%rsp)
.Ltmp377:
	.cv_inline_site_id 133 within 132 inlined_at 30 53 0
	.cv_loc	133 30 86 0
	xorl	%eax, %eax
	testb	$1, %al
	jne	.LBB93_8
	jmp	.LBB93_9
.Ltmp378:
.LBB93_6:
	.cv_loc	132 30 147 0
	movq	$0, 64(%rsp)
.LBB93_7:
	.cv_loc	132 30 152 0
	movq	64(%rsp), %rax
	addq	$264, %rsp
	retq
.LBB93_8:
	.cv_loc	133 30 67 0
	movq	56(%rsp), %rax
.Ltmp379:
	movq	8(%rax), %rax
	movq	%rax, 200(%rsp)
.Ltmp380:
	.cv_inline_site_id 134 within 133 inlined_at 30 67 0
	.cv_loc	134 16 1165 0
	movq	%rax, 208(%rsp)
.Ltmp381:
	.cv_inline_site_id 135 within 134 inlined_at 16 1165 0
	.cv_loc	135 16 50 0
	movq	%rax, 216(%rsp)
.Ltmp382:
	.cv_loc	135 16 1147 0
	movq	%rax, 224(%rsp)
.Ltmp383:
	.cv_inline_site_id 136 within 135 inlined_at 16 1147 0
	.cv_loc	136 16 544 0
	addq	$-1, %rax
	movq	%rax, 232(%rsp)
	movq	232(%rsp), %rax
	movq	%rax, 48(%rsp)
	movq	%rax, 240(%rsp)
	jmp	.LBB93_12
.Ltmp384:
.LBB93_9:
	.cv_loc	133 30 90 0
	movq	56(%rsp), %rax
	movq	(%rax), %rcx
	movq	%rcx, 32(%rsp)
	movq	%rcx, 144(%rsp)
.Ltmp385:
	.cv_inline_site_id 137 within 133 inlined_at 30 90 0
	.cv_loc	137 26 335 0
	movq	%rcx, 152(%rsp)
.Ltmp386:
	.cv_loc	133 30 93 0
	movq	(%rax), %rax
	movq	%rax, 160(%rsp)
.Ltmp387:
	.cv_inline_site_id 138 within 133 inlined_at 30 93 0
	.cv_loc	138 26 335 0
	movq	%rax, 168(%rsp)
.Ltmp388:
	.cv_loc	138 15 1003 0
	movq	%rax, 176(%rsp)
.Ltmp389:
	.cv_inline_site_id 139 within 138 inlined_at 15 1003 0
	.cv_loc	139 15 479 0
	addq	$16, %rax
	movq	%rax, 184(%rsp)
	movq	184(%rsp), %rax
	movq	%rax, 40(%rsp)
	movq	32(%rsp), %rax
	movq	56(%rsp), %rcx
	movq	40(%rsp), %rdx
	movq	%rdx, 192(%rsp)
.Ltmp390:
	.cv_loc	138 26 201 0
	movq	%rdx, 80(%rsp)
.Ltmp391:
	.cv_loc	133 30 93 0
	movq	80(%rsp), %rdx
	movq	%rdx, (%rcx)
	.cv_loc	133 30 94 0
	movq	%rax, 72(%rsp)
.Ltmp392:
.LBB93_11:
	.cv_loc	132 30 149 0
	movq	72(%rsp), %rax
	movq	%rax, 64(%rsp)
	.cv_loc	132 30 146 0
	jmp	.LBB93_7
.LBB93_12:
	.cv_loc	135 16 50 0
	movq	56(%rsp), %rax
	movq	48(%rsp), %rcx
.Ltmp393:
	movq	%rcx, 248(%rsp)
.Ltmp394:
	.cv_loc	135 17 117 0
	movq	%rcx, 96(%rsp)
	movq	96(%rsp), %rcx
	movq	%rcx, 88(%rsp)
	movq	88(%rsp), %rcx
.Ltmp395:
	.cv_loc	133 30 67 0
	movq	%rcx, 8(%rax)
	.cv_loc	133 30 88 0
	movq	(%rax), %rax
	movq	%rax, 256(%rsp)
	movq	%rax, 72(%rsp)
	.cv_loc	133 30 86 0
	jmp	.LBB93_11
.Ltmp396:
.Lfunc_end93:
	.seh_endproc

	.def	_ZN91_$LT$core..slice..iter..Iter$LT$T$GT$$u20$as$u20$core..iter..traits..iterator..Iterator$GT$8position17h60ff0e305e4e094eE;
	.scl	2;
	.type	32;
	.endef
	.section	.text,"xr",one_only,_ZN91_$LT$core..slice..iter..Iter$LT$T$GT$$u20$as$u20$core..iter..traits..iterator..Iterator$GT$8position17h60ff0e305e4e094eE
	.globl	_ZN91_$LT$core..slice..iter..Iter$LT$T$GT$$u20$as$u20$core..iter..traits..iterator..Iterator$GT$8position17h60ff0e305e4e094eE
	.p2align	4, 0x90
_ZN91_$LT$core..slice..iter..Iter$LT$T$GT$$u20$as$u20$core..iter..traits..iterator..Iterator$GT$8position17h60ff0e305e4e094eE:
.Lfunc_begin94:
	.cv_func_id 140
	.cv_loc	140 30 288 0
.seh_proc _ZN91_$LT$core..slice..iter..Iter$LT$T$GT$$u20$as$u20$core..iter..traits..iterator..Iterator$GT$8position17h60ff0e305e4e094eE
	.seh_handler __CxxFrameHandler3, @unwind, @except
	pushq	%rbp
	.seh_pushreg %rbp
	subq	$224, %rsp
	.seh_stackalloc 224
	leaq	128(%rsp), %rbp
	.seh_setframe %rbp, 128
	.seh_endprologue
	movq	$-2, 88(%rbp)
	movq	%rcx, %rax
	movq	%rax, -64(%rbp)
	movq	%rdx, -56(%rbp)
	movq	%rax, (%rbp)
.Ltmp403:
	.cv_loc	140 30 292 0
	movq	(%rax), %rcx
	movq	%rcx, 8(%rbp)
.Ltmp404:
	.cv_inline_site_id 141 within 140 inlined_at 30 19 0
	.cv_inline_site_id 142 within 141 inlined_at 25 41 0
	.cv_loc	142 8 314 0
	movq	$16, 16(%rbp)
.Ltmp405:
	.cv_loc	140 30 292 0
	movq	8(%rax), %rax
	movq	%rax, 24(%rbp)
.Ltmp406:
	.cv_inline_site_id 143 within 140 inlined_at 30 29 0
	.cv_loc	143 16 188 0
	movq	%rax, 32(%rbp)
	movq	32(%rbp), %rax
.Ltmp407:
	.cv_loc	140 30 292 0
	movq	%rcx, 40(%rbp)
.Ltmp408:
	.cv_loc	143 26 335 0
	movq	%rcx, 48(%rbp)
.Ltmp409:
	.cv_loc	143 15 198 0
	movq	%rcx, 56(%rbp)
.Ltmp410:
	.cv_loc	140 30 292 0
	subq	56(%rbp), %rax
	movq	%rax, 64(%rbp)
	movq	64(%rbp), %rax
	movq	%rax, 72(%rbp)
.Ltmp411:
	.cv_loc	140 30 292 0
	shrq	$4, %rax
	movq	%rax, -32(%rbp)
.Ltmp412:
	.cv_loc	140 30 293 0
	movq	$0, -24(%rbp)
.LBB94_1:
	.cv_loc	140 30 294 0
.Ltmp397:
	movq	-64(%rbp), %rcx
.Ltmp413:
	callq	_ZN91_$LT$core..slice..iter..Iter$LT$T$GT$$u20$as$u20$core..iter..traits..iterator..Iterator$GT$4next17h84e9b9b5e97e6f73E
.Ltmp398:
	movq	%rax, -72(%rbp)
	jmp	.LBB94_3
.LBB94_3:
	movq	-72(%rbp), %rax
	movq	%rax, -16(%rbp)
	movl	$1, %eax
	xorl	%ecx, %ecx
	cmpq	$0, -16(%rbp)
	cmoveq	%rcx, %rax
	cmpq	$1, %rax
	jne	.LBB94_5
	movq	-16(%rbp), %rax
	movq	%rax, 80(%rbp)
	.cv_loc	140 30 295 0
	movq	%rax, -8(%rbp)
	movq	-8(%rbp), %rdx
.Ltmp399:
	leaq	-56(%rbp), %rcx
	callq	_ZN63_$LT$log..LevelFilter$u20$as$u20$core..str..traits..FromStr$GT$8from_str28_$u7b$$u7b$closure$u7d$$u7d$17h8fe18fe111a17b9bE
.Ltmp400:
	movb	%al, -73(%rbp)
	jmp	.LBB94_7
.Ltmp414:
.LBB94_5:
	.cv_loc	140 30 303 0
	movq	$0, -48(%rbp)
.Ltmp415:
.LBB94_6:
	.cv_loc	140 30 304 0
	movq	-48(%rbp), %rax
	movq	-40(%rbp), %rdx
	addq	$224, %rsp
	popq	%rbp
	retq
.LBB94_7:
	.cv_loc	140 30 295 0
	movb	-73(%rbp), %al
.Ltmp416:
	testb	$1, %al
	jne	.LBB94_9
	jmp	.LBB94_8
.LBB94_8:
	.cv_loc	140 30 301 0
	movq	-24(%rbp), %rax
	addq	$1, %rax
	movq	%rax, -88(%rbp)
	setb	%al
	testb	$1, %al
	jne	.LBB94_11
	jmp	.LBB94_10
.LBB94_9:
	.cv_loc	140 30 298 0
	movq	-24(%rbp), %rax
	.cv_loc	140 30 299 0
	movq	-24(%rbp), %rax
	movq	%rax, -40(%rbp)
	movq	$1, -48(%rbp)
.Ltmp417:
	.cv_loc	140 30 304 0
	jmp	.LBB94_6
.LBB94_10:
	.cv_loc	140 30 301 0
	movq	-88(%rbp), %rax
.Ltmp418:
	movq	%rax, -24(%rbp)
.Ltmp419:
	.cv_loc	140 30 294 0
	jmp	.LBB94_1
.LBB94_11:
	.cv_loc	140 30 301 0
.Ltmp401:
.Ltmp420:
	leaq	str.0(%rip), %rcx
	leaq	__unnamed_24(%rip), %r8
	movl	$28, %edx
	callq	_ZN4core9panicking5panic17h8f0a900b6fd3539bE
.Ltmp402:
	jmp	.LBB94_12
.Ltmp421:
.LBB94_12:
	ud2
	.seh_handlerdata
	.long	($cppxdata$_ZN91_$LT$core..slice..iter..Iter$LT$T$GT$$u20$as$u20$core..iter..traits..iterator..Iterator$GT$8position17h60ff0e305e4e094eE)@IMGREL
	.section	.text,"xr",one_only,_ZN91_$LT$core..slice..iter..Iter$LT$T$GT$$u20$as$u20$core..iter..traits..iterator..Iterator$GT$8position17h60ff0e305e4e094eE
	.seh_endproc
	.def	"?dtor$2@?0?_ZN91_$LT$core..slice..iter..Iter$LT$T$GT$$u20$as$u20$core..iter..traits..iterator..Iterator$GT$8position17h60ff0e305e4e094eE@4HA";
	.scl	3;
	.type	32;
	.endef
	.p2align	4, 0x90
"?dtor$2@?0?_ZN91_$LT$core..slice..iter..Iter$LT$T$GT$$u20$as$u20$core..iter..traits..iterator..Iterator$GT$8position17h60ff0e305e4e094eE@4HA":
.seh_proc "?dtor$2@?0?_ZN91_$LT$core..slice..iter..Iter$LT$T$GT$$u20$as$u20$core..iter..traits..iterator..Iterator$GT$8position17h60ff0e305e4e094eE@4HA"
.LBB94_2:
	movq	%rdx, 16(%rsp)
	pushq	%rbp
	.seh_pushreg %rbp
	subq	$32, %rsp
	.seh_stackalloc 32
	leaq	128(%rdx), %rbp
	.seh_endprologue
	.cv_loc	140 30 288 0
	addq	$32, %rsp
	popq	%rbp
	retq
.Ltmp422:
.Lfunc_end94:
	.seh_handlerdata
	.section	.text,"xr",one_only,_ZN91_$LT$core..slice..iter..Iter$LT$T$GT$$u20$as$u20$core..iter..traits..iterator..Iterator$GT$8position17h60ff0e305e4e094eE
	.seh_endproc
	.section	.xdata,"dr",associative,_ZN91_$LT$core..slice..iter..Iter$LT$T$GT$$u20$as$u20$core..iter..traits..iterator..Iterator$GT$8position17h60ff0e305e4e094eE
	.p2align	2
$cppxdata$_ZN91_$LT$core..slice..iter..Iter$LT$T$GT$$u20$as$u20$core..iter..traits..iterator..Iterator$GT$8position17h60ff0e305e4e094eE:
	.long	429065506
	.long	1
	.long	($stateUnwindMap$_ZN91_$LT$core..slice..iter..Iter$LT$T$GT$$u20$as$u20$core..iter..traits..iterator..Iterator$GT$8position17h60ff0e305e4e094eE)@IMGREL
	.long	0
	.long	0
	.long	3
	.long	($ip2state$_ZN91_$LT$core..slice..iter..Iter$LT$T$GT$$u20$as$u20$core..iter..traits..iterator..Iterator$GT$8position17h60ff0e305e4e094eE)@IMGREL
	.long	216
	.long	0
	.long	1
$stateUnwindMap$_ZN91_$LT$core..slice..iter..Iter$LT$T$GT$$u20$as$u20$core..iter..traits..iterator..Iterator$GT$8position17h60ff0e305e4e094eE:
	.long	-1
	.long	"?dtor$2@?0?_ZN91_$LT$core..slice..iter..Iter$LT$T$GT$$u20$as$u20$core..iter..traits..iterator..Iterator$GT$8position17h60ff0e305e4e094eE@4HA"@IMGREL
$ip2state$_ZN91_$LT$core..slice..iter..Iter$LT$T$GT$$u20$as$u20$core..iter..traits..iterator..Iterator$GT$8position17h60ff0e305e4e094eE:
	.long	.Lfunc_begin94@IMGREL
	.long	-1
	.long	.Ltmp397@IMGREL+1
	.long	0
	.long	.Ltmp402@IMGREL+1
	.long	-1
	.section	.text,"xr",one_only,_ZN91_$LT$core..slice..iter..Iter$LT$T$GT$$u20$as$u20$core..iter..traits..iterator..Iterator$GT$8position17h60ff0e305e4e094eE

	.def	_ZN91_$LT$core..slice..iter..Iter$LT$T$GT$$u20$as$u20$core..iter..traits..iterator..Iterator$GT$8position17hcca4f1558737925eE;
	.scl	2;
	.type	32;
	.endef
	.section	.text,"xr",one_only,_ZN91_$LT$core..slice..iter..Iter$LT$T$GT$$u20$as$u20$core..iter..traits..iterator..Iterator$GT$8position17hcca4f1558737925eE
	.globl	_ZN91_$LT$core..slice..iter..Iter$LT$T$GT$$u20$as$u20$core..iter..traits..iterator..Iterator$GT$8position17hcca4f1558737925eE
	.p2align	4, 0x90
_ZN91_$LT$core..slice..iter..Iter$LT$T$GT$$u20$as$u20$core..iter..traits..iterator..Iterator$GT$8position17hcca4f1558737925eE:
.Lfunc_begin95:
	.cv_func_id 144
	.cv_loc	144 30 288 0
.seh_proc _ZN91_$LT$core..slice..iter..Iter$LT$T$GT$$u20$as$u20$core..iter..traits..iterator..Iterator$GT$8position17hcca4f1558737925eE
	.seh_handler __CxxFrameHandler3, @unwind, @except
	pushq	%rbp
	.seh_pushreg %rbp
	subq	$224, %rsp
	.seh_stackalloc 224
	leaq	128(%rsp), %rbp
	.seh_setframe %rbp, 128
	.seh_endprologue
	movq	$-2, 88(%rbp)
	movq	%rcx, %rax
	movq	%rax, -64(%rbp)
	movq	%rdx, -56(%rbp)
	movq	%rax, (%rbp)
.Ltmp429:
	.cv_loc	144 30 292 0
	movq	(%rax), %rcx
	movq	%rcx, 8(%rbp)
.Ltmp430:
	.cv_inline_site_id 145 within 144 inlined_at 30 19 0
	.cv_inline_site_id 146 within 145 inlined_at 25 41 0
	.cv_loc	146 8 314 0
	movq	$16, 16(%rbp)
.Ltmp431:
	.cv_loc	144 30 292 0
	movq	8(%rax), %rax
	movq	%rax, 24(%rbp)
.Ltmp432:
	.cv_inline_site_id 147 within 144 inlined_at 30 29 0
	.cv_loc	147 16 188 0
	movq	%rax, 32(%rbp)
	movq	32(%rbp), %rax
.Ltmp433:
	.cv_loc	144 30 292 0
	movq	%rcx, 40(%rbp)
.Ltmp434:
	.cv_loc	147 26 335 0
	movq	%rcx, 48(%rbp)
.Ltmp435:
	.cv_loc	147 15 198 0
	movq	%rcx, 56(%rbp)
.Ltmp436:
	.cv_loc	144 30 292 0
	subq	56(%rbp), %rax
	movq	%rax, 64(%rbp)
	movq	64(%rbp), %rax
	movq	%rax, 72(%rbp)
.Ltmp437:
	.cv_loc	144 30 292 0
	shrq	$4, %rax
	movq	%rax, -32(%rbp)
.Ltmp438:
	.cv_loc	144 30 293 0
	movq	$0, -24(%rbp)
.LBB95_1:
	.cv_loc	144 30 294 0
.Ltmp423:
	movq	-64(%rbp), %rcx
.Ltmp439:
	callq	_ZN91_$LT$core..slice..iter..Iter$LT$T$GT$$u20$as$u20$core..iter..traits..iterator..Iterator$GT$4next17h84e9b9b5e97e6f73E
.Ltmp424:
	movq	%rax, -72(%rbp)
	jmp	.LBB95_3
.LBB95_3:
	movq	-72(%rbp), %rax
	movq	%rax, -16(%rbp)
	movl	$1, %eax
	xorl	%ecx, %ecx
	cmpq	$0, -16(%rbp)
	cmoveq	%rcx, %rax
	cmpq	$1, %rax
	jne	.LBB95_5
	movq	-16(%rbp), %rax
	movq	%rax, 80(%rbp)
	.cv_loc	144 30 295 0
	movq	%rax, -8(%rbp)
	movq	-8(%rbp), %rdx
.Ltmp425:
	leaq	-56(%rbp), %rcx
	callq	_ZN57_$LT$log..Level$u20$as$u20$core..str..traits..FromStr$GT$8from_str28_$u7b$$u7b$closure$u7d$$u7d$17had13bba06261ff06E
.Ltmp426:
	movb	%al, -73(%rbp)
	jmp	.LBB95_7
.Ltmp440:
.LBB95_5:
	.cv_loc	144 30 303 0
	movq	$0, -48(%rbp)
.Ltmp441:
.LBB95_6:
	.cv_loc	144 30 304 0
	movq	-48(%rbp), %rax
	movq	-40(%rbp), %rdx
	addq	$224, %rsp
	popq	%rbp
	retq
.LBB95_7:
	.cv_loc	144 30 295 0
	movb	-73(%rbp), %al
.Ltmp442:
	testb	$1, %al
	jne	.LBB95_9
	jmp	.LBB95_8
.LBB95_8:
	.cv_loc	144 30 301 0
	movq	-24(%rbp), %rax
	addq	$1, %rax
	movq	%rax, -88(%rbp)
	setb	%al
	testb	$1, %al
	jne	.LBB95_11
	jmp	.LBB95_10
.LBB95_9:
	.cv_loc	144 30 298 0
	movq	-24(%rbp), %rax
	.cv_loc	144 30 299 0
	movq	-24(%rbp), %rax
	movq	%rax, -40(%rbp)
	movq	$1, -48(%rbp)
.Ltmp443:
	.cv_loc	144 30 304 0
	jmp	.LBB95_6
.LBB95_10:
	.cv_loc	144 30 301 0
	movq	-88(%rbp), %rax
.Ltmp444:
	movq	%rax, -24(%rbp)
.Ltmp445:
	.cv_loc	144 30 294 0
	jmp	.LBB95_1
.LBB95_11:
	.cv_loc	144 30 301 0
.Ltmp427:
.Ltmp446:
	leaq	str.0(%rip), %rcx
	leaq	__unnamed_24(%rip), %r8
	movl	$28, %edx
	callq	_ZN4core9panicking5panic17h8f0a900b6fd3539bE
.Ltmp428:
	jmp	.LBB95_12
.Ltmp447:
.LBB95_12:
	ud2
	.seh_handlerdata
	.long	($cppxdata$_ZN91_$LT$core..slice..iter..Iter$LT$T$GT$$u20$as$u20$core..iter..traits..iterator..Iterator$GT$8position17hcca4f1558737925eE)@IMGREL
	.section	.text,"xr",one_only,_ZN91_$LT$core..slice..iter..Iter$LT$T$GT$$u20$as$u20$core..iter..traits..iterator..Iterator$GT$8position17hcca4f1558737925eE
	.seh_endproc
	.def	"?dtor$2@?0?_ZN91_$LT$core..slice..iter..Iter$LT$T$GT$$u20$as$u20$core..iter..traits..iterator..Iterator$GT$8position17hcca4f1558737925eE@4HA";
	.scl	3;
	.type	32;
	.endef
	.p2align	4, 0x90
"?dtor$2@?0?_ZN91_$LT$core..slice..iter..Iter$LT$T$GT$$u20$as$u20$core..iter..traits..iterator..Iterator$GT$8position17hcca4f1558737925eE@4HA":
.seh_proc "?dtor$2@?0?_ZN91_$LT$core..slice..iter..Iter$LT$T$GT$$u20$as$u20$core..iter..traits..iterator..Iterator$GT$8position17hcca4f1558737925eE@4HA"
.LBB95_2:
	movq	%rdx, 16(%rsp)
	pushq	%rbp
	.seh_pushreg %rbp
	subq	$32, %rsp
	.seh_stackalloc 32
	leaq	128(%rdx), %rbp
	.seh_endprologue
	.cv_loc	144 30 288 0
	addq	$32, %rsp
	popq	%rbp
	retq
.Ltmp448:
.Lfunc_end95:
	.seh_handlerdata
	.section	.text,"xr",one_only,_ZN91_$LT$core..slice..iter..Iter$LT$T$GT$$u20$as$u20$core..iter..traits..iterator..Iterator$GT$8position17hcca4f1558737925eE
	.seh_endproc
	.section	.xdata,"dr",associative,_ZN91_$LT$core..slice..iter..Iter$LT$T$GT$$u20$as$u20$core..iter..traits..iterator..Iterator$GT$8position17hcca4f1558737925eE
	.p2align	2
$cppxdata$_ZN91_$LT$core..slice..iter..Iter$LT$T$GT$$u20$as$u20$core..iter..traits..iterator..Iterator$GT$8position17hcca4f1558737925eE:
	.long	429065506
	.long	1
	.long	($stateUnwindMap$_ZN91_$LT$core..slice..iter..Iter$LT$T$GT$$u20$as$u20$core..iter..traits..iterator..Iterator$GT$8position17hcca4f1558737925eE)@IMGREL
	.long	0
	.long	0
	.long	3
	.long	($ip2state$_ZN91_$LT$core..slice..iter..Iter$LT$T$GT$$u20$as$u20$core..iter..traits..iterator..Iterator$GT$8position17hcca4f1558737925eE)@IMGREL
	.long	216
	.long	0
	.long	1
$stateUnwindMap$_ZN91_$LT$core..slice..iter..Iter$LT$T$GT$$u20$as$u20$core..iter..traits..iterator..Iterator$GT$8position17hcca4f1558737925eE:
	.long	-1
	.long	"?dtor$2@?0?_ZN91_$LT$core..slice..iter..Iter$LT$T$GT$$u20$as$u20$core..iter..traits..iterator..Iterator$GT$8position17hcca4f1558737925eE@4HA"@IMGREL
$ip2state$_ZN91_$LT$core..slice..iter..Iter$LT$T$GT$$u20$as$u20$core..iter..traits..iterator..Iterator$GT$8position17hcca4f1558737925eE:
	.long	.Lfunc_begin95@IMGREL
	.long	-1
	.long	.Ltmp423@IMGREL+1
	.long	0
	.long	.Ltmp428@IMGREL+1
	.long	-1
	.section	.text,"xr",one_only,_ZN91_$LT$core..slice..iter..Iter$LT$T$GT$$u20$as$u20$core..iter..traits..iterator..Iterator$GT$8position17hcca4f1558737925eE

	.def	_ZN91_$LT$core..slice..iter..Iter$LT$T$GT$$u20$as$u20$core..iter..traits..iterator..Iterator$GT$9size_hint17h3708c1e09216c6f5E;
	.scl	2;
	.type	32;
	.endef
	.section	.text,"xr",one_only,_ZN91_$LT$core..slice..iter..Iter$LT$T$GT$$u20$as$u20$core..iter..traits..iterator..Iterator$GT$9size_hint17h3708c1e09216c6f5E
	.globl	_ZN91_$LT$core..slice..iter..Iter$LT$T$GT$$u20$as$u20$core..iter..traits..iterator..Iterator$GT$9size_hint17h3708c1e09216c6f5E
	.p2align	4, 0x90
_ZN91_$LT$core..slice..iter..Iter$LT$T$GT$$u20$as$u20$core..iter..traits..iterator..Iterator$GT$9size_hint17h3708c1e09216c6f5E:
.Lfunc_begin96:
	.cv_func_id 148
	.cv_loc	148 30 155 0
.seh_proc _ZN91_$LT$core..slice..iter..Iter$LT$T$GT$$u20$as$u20$core..iter..traits..iterator..Iterator$GT$9size_hint17h3708c1e09216c6f5E
	subq	$232, %rsp
	.seh_stackalloc 232
	.seh_endprologue
	movq	%rdx, 40(%rsp)
	movq	%rcx, 48(%rsp)
	movq	%rcx, 56(%rsp)
	movq	%rdx, 96(%rsp)
.Ltmp449:
	.cv_loc	148 30 156 0
	movq	(%rdx), %rax
	movq	%rax, 64(%rsp)
	movq	%rax, 104(%rsp)
.Ltmp450:
	.cv_inline_site_id 149 within 148 inlined_at 30 19 0
	.cv_inline_site_id 150 within 149 inlined_at 25 41 0
	.cv_loc	150 8 314 0
	movq	$1, 112(%rsp)
.Ltmp451:
	.cv_loc	148 30 156 0
	xorl	%eax, %eax
	testb	$1, %al
	jne	.LBB96_1
	jmp	.LBB96_2
.LBB96_1:
	movq	40(%rsp), %rax
	movq	8(%rax), %rax
	movq	%rax, 176(%rsp)
.Ltmp452:
	.cv_inline_site_id 151 within 148 inlined_at 30 23 0
	.cv_loc	151 16 188 0
	movq	%rax, 184(%rsp)
	movq	184(%rsp), %rax
	movq	%rax, 32(%rsp)
	movq	%rax, 192(%rsp)
	jmp	.LBB96_8
.Ltmp453:
.LBB96_2:
	.cv_loc	148 30 156 0
	movq	40(%rsp), %rax
	movq	8(%rax), %rax
	movq	%rax, 120(%rsp)
.Ltmp454:
	.cv_inline_site_id 152 within 148 inlined_at 30 29 0
	.cv_loc	152 16 188 0
	movq	%rax, 128(%rsp)
	movq	128(%rsp), %rax
	movq	%rax, 24(%rsp)
.Ltmp455:
	.cv_loc	148 30 156 0
	movq	64(%rsp), %rax
	movq	%rax, 136(%rsp)
.Ltmp456:
	.cv_loc	152 26 335 0
	movq	%rax, 144(%rsp)
.Ltmp457:
	.cv_loc	152 15 198 0
	movq	%rax, 152(%rsp)
	movq	152(%rsp), %rax
	movq	%rax, 16(%rsp)
.Ltmp458:
	.cv_loc	148 30 156 0
	movq	16(%rsp), %rcx
	movq	24(%rsp), %rax
	subq	%rcx, %rax
	movq	%rax, 160(%rsp)
	movq	160(%rsp), %rax
	movq	%rax, 8(%rsp)
	movq	%rax, 168(%rsp)
	.cv_loc	148 30 156 0
	movq	8(%rsp), %rax
.Ltmp459:
	shrq	$0, %rax
	movq	%rax, 72(%rsp)
.Ltmp460:
	.cv_loc	148 30 156 0
	jmp	.LBB96_7
.Ltmp461:
.LBB96_7:
	.cv_loc	148 30 157 0
	movq	56(%rsp), %rax
	movq	48(%rsp), %rcx
.Ltmp462:
	movq	72(%rsp), %rdx
	movq	72(%rsp), %r8
	movq	%r8, 88(%rsp)
	movq	$1, 80(%rsp)
	movq	%rdx, (%rcx)
	movq	80(%rsp), %r8
	movq	88(%rsp), %rdx
	movq	%r8, 8(%rcx)
	movq	%rdx, 16(%rcx)
.Ltmp463:
	.cv_loc	148 30 158 0
	addq	$232, %rsp
	retq
.LBB96_8:
	.cv_loc	148 30 156 0
	movq	64(%rsp), %rax
.Ltmp464:
	movq	%rax, 200(%rsp)
.Ltmp465:
	.cv_loc	151 26 335 0
	movq	%rax, 208(%rsp)
.Ltmp466:
	.cv_loc	151 15 198 0
	movq	%rax, 216(%rsp)
	movq	216(%rsp), %rax
	movq	%rax, (%rsp)
	movq	%rax, 224(%rsp)
.Ltmp467:
	.cv_file	31 "/rustc/90743e7298aca107ddaa0c202a4d3604e29bfeb6\\library\\core\\src\\num\\uint_macros.rs" "AFD8176EDA261081CD4F1CEF2592FF7B134DCC4A" 2
	.cv_loc	151 31 1194 0
	movq	(%rsp), %rcx
	movq	32(%rsp), %rax
.Ltmp468:
	subq	%rcx, %rax
	movq	%rax, 72(%rsp)
.Ltmp469:
	.cv_loc	148 30 156 0
	jmp	.LBB96_7
.Ltmp470:
.Lfunc_end96:
	.seh_endproc

	.def	_ZN95_$LT$core..ops..control_flow..ControlFlow$LT$B$C$C$GT$$u20$as$u20$core..ops..try_trait..Try$GT$11from_output17h956e3e9ed19b3af9E;
	.scl	2;
	.type	32;
	.endef
	.section	.text,"xr",one_only,_ZN95_$LT$core..ops..control_flow..ControlFlow$LT$B$C$C$GT$$u20$as$u20$core..ops..try_trait..Try$GT$11from_output17h956e3e9ed19b3af9E
	.globl	_ZN95_$LT$core..ops..control_flow..ControlFlow$LT$B$C$C$GT$$u20$as$u20$core..ops..try_trait..Try$GT$11from_output17h956e3e9ed19b3af9E
	.p2align	4, 0x90
_ZN95_$LT$core..ops..control_flow..ControlFlow$LT$B$C$C$GT$$u20$as$u20$core..ops..try_trait..Try$GT$11from_output17h956e3e9ed19b3af9E:
.Lfunc_begin97:
	.cv_func_id 153
	.cv_loc	153 3 104 0
.seh_proc _ZN95_$LT$core..ops..control_flow..ControlFlow$LT$B$C$C$GT$$u20$as$u20$core..ops..try_trait..Try$GT$11from_output17h956e3e9ed19b3af9E
	subq	$16, %rsp
	.seh_stackalloc 16
	.seh_endprologue
.Ltmp471:
	.cv_loc	153 3 105 0
	movb	$0, 7(%rsp)
	.cv_loc	153 3 106 0
	movb	7(%rsp), %al
	andb	$1, %al
	movzbl	%al, %eax
	addq	$16, %rsp
	retq
.Ltmp472:
.Lfunc_end97:
	.seh_endproc

	.def	_ZN95_$LT$core..ops..control_flow..ControlFlow$LT$B$C$C$GT$$u20$as$u20$core..ops..try_trait..Try$GT$11from_output17hcfc05b57b3422b51E;
	.scl	2;
	.type	32;
	.endef
	.section	.text,"xr",one_only,_ZN95_$LT$core..ops..control_flow..ControlFlow$LT$B$C$C$GT$$u20$as$u20$core..ops..try_trait..Try$GT$11from_output17hcfc05b57b3422b51E
	.globl	_ZN95_$LT$core..ops..control_flow..ControlFlow$LT$B$C$C$GT$$u20$as$u20$core..ops..try_trait..Try$GT$11from_output17hcfc05b57b3422b51E
	.p2align	4, 0x90
_ZN95_$LT$core..ops..control_flow..ControlFlow$LT$B$C$C$GT$$u20$as$u20$core..ops..try_trait..Try$GT$11from_output17hcfc05b57b3422b51E:
.Lfunc_begin98:
	.cv_func_id 154
	.cv_loc	154 3 104 0
.seh_proc _ZN95_$LT$core..ops..control_flow..ControlFlow$LT$B$C$C$GT$$u20$as$u20$core..ops..try_trait..Try$GT$11from_output17hcfc05b57b3422b51E
	subq	$24, %rsp
	.seh_stackalloc 24
	.seh_endprologue
.Ltmp473:
	.cv_loc	154 3 105 0
	movq	$0, (%rsp)
	.cv_loc	154 3 106 0
	movq	(%rsp), %rax
	movq	8(%rsp), %rdx
	addq	$24, %rsp
	retq
.Ltmp474:
.Lfunc_end98:
	.seh_endproc

	.def	_ZN95_$LT$core..ops..control_flow..ControlFlow$LT$B$C$C$GT$$u20$as$u20$core..ops..try_trait..Try$GT$6branch17h203fd3cf6fb17a13E;
	.scl	2;
	.type	32;
	.endef
	.section	.text,"xr",one_only,_ZN95_$LT$core..ops..control_flow..ControlFlow$LT$B$C$C$GT$$u20$as$u20$core..ops..try_trait..Try$GT$6branch17h203fd3cf6fb17a13E
	.globl	_ZN95_$LT$core..ops..control_flow..ControlFlow$LT$B$C$C$GT$$u20$as$u20$core..ops..try_trait..Try$GT$6branch17h203fd3cf6fb17a13E
	.p2align	4, 0x90
_ZN95_$LT$core..ops..control_flow..ControlFlow$LT$B$C$C$GT$$u20$as$u20$core..ops..try_trait..Try$GT$6branch17h203fd3cf6fb17a13E:
.Lfunc_begin99:
	.cv_func_id 155
	.cv_loc	155 3 109 0
.seh_proc _ZN95_$LT$core..ops..control_flow..ControlFlow$LT$B$C$C$GT$$u20$as$u20$core..ops..try_trait..Try$GT$6branch17h203fd3cf6fb17a13E
	subq	$56, %rsp
	.seh_stackalloc 56
	.seh_endprologue
	movq	%rcx, (%rsp)
	movq	%rdx, 8(%rsp)
.Ltmp475:
	.cv_loc	155 3 110 0
	movq	(%rsp), %rax
	testq	%rax, %rax
	je	.LBB99_2
	jmp	.LBB99_5
.LBB99_5:
	jmp	.LBB99_3
	ud2
.LBB99_2:
.Ltmp476:
	.cv_loc	155 3 111 0
	movq	$0, 16(%rsp)
.Ltmp477:
	.cv_loc	155 3 111 0
	jmp	.LBB99_4
.LBB99_3:
	.cv_loc	155 3 112 0
	movq	8(%rsp), %rax
	movq	%rax, 48(%rsp)
.Ltmp478:
	.cv_loc	155 3 112 0
	movq	%rax, 32(%rsp)
	movq	32(%rsp), %rax
	movq	%rax, 24(%rsp)
	movq	$1, 16(%rsp)
.Ltmp479:
.LBB99_4:
	.cv_loc	155 3 114 0
	movq	16(%rsp), %rax
	movq	24(%rsp), %rdx
	addq	$56, %rsp
	retq
.Ltmp480:
.Lfunc_end99:
	.seh_endproc

	.def	_ZN95_$LT$core..ops..control_flow..ControlFlow$LT$B$C$C$GT$$u20$as$u20$core..ops..try_trait..Try$GT$6branch17h885828ebc1b2e900E;
	.scl	2;
	.type	32;
	.endef
	.section	.text,"xr",one_only,_ZN95_$LT$core..ops..control_flow..ControlFlow$LT$B$C$C$GT$$u20$as$u20$core..ops..try_trait..Try$GT$6branch17h885828ebc1b2e900E
	.globl	_ZN95_$LT$core..ops..control_flow..ControlFlow$LT$B$C$C$GT$$u20$as$u20$core..ops..try_trait..Try$GT$6branch17h885828ebc1b2e900E
	.p2align	4, 0x90
_ZN95_$LT$core..ops..control_flow..ControlFlow$LT$B$C$C$GT$$u20$as$u20$core..ops..try_trait..Try$GT$6branch17h885828ebc1b2e900E:
.Lfunc_begin100:
	.cv_func_id 156
	.cv_loc	156 3 109 0
.seh_proc _ZN95_$LT$core..ops..control_flow..ControlFlow$LT$B$C$C$GT$$u20$as$u20$core..ops..try_trait..Try$GT$6branch17h885828ebc1b2e900E
	subq	$32, %rsp
	.seh_stackalloc 32
	.seh_endprologue
	andb	$1, %cl
	movb	%cl, 6(%rsp)
.Ltmp481:
	.cv_loc	156 3 110 0
	movzbl	6(%rsp), %eax
	testb	$1, %al
	je	.LBB100_2
	jmp	.LBB100_5
.LBB100_5:
	jmp	.LBB100_3
	ud2
.LBB100_2:
.Ltmp482:
	.cv_loc	156 3 111 0
	movb	$0, 7(%rsp)
.Ltmp483:
	.cv_loc	156 3 111 0
	jmp	.LBB100_4
.LBB100_3:
.Ltmp484:
	.cv_loc	156 3 112 0
	movb	$1, 7(%rsp)
.Ltmp485:
.LBB100_4:
	.cv_loc	156 3 114 0
	movb	7(%rsp), %al
	andb	$1, %al
	movzbl	%al, %eax
	addq	$32, %rsp
	retq
.Ltmp486:
.Lfunc_end100:
	.seh_endproc

	.def	_ZN3log5ok_or17h2f92b48a59a0d86bE;
	.scl	3;
	.type	32;
	.endef
	.section	.text,"xr",one_only,_ZN3log5ok_or17h2f92b48a59a0d86bE
	.p2align	4, 0x90
_ZN3log5ok_or17h2f92b48a59a0d86bE:
.Lfunc_begin101:
	.cv_func_id 157
	.cv_file	32 "C:\\Users\\cires\\.cargo\\registry\\src\\github.com-1ecc6299db9ec823\\log-0.4.20\\src\\lib.rs" "B0C96CDEFF724352968B764C0869A833507492C1" 2
	.cv_loc	157 32 469 0
.seh_proc _ZN3log5ok_or17h2f92b48a59a0d86bE
	subq	$40, %rsp
	.seh_stackalloc 40
	.seh_endprologue
	movq	%rcx, (%rsp)
.Ltmp487:
	.cv_loc	157 32 470 0
	movb	$0, 23(%rsp)
	movb	$1, 23(%rsp)
	movq	(%rsp), %rax
	addq	$-6, %rax
	setne	%al
	movzbl	%al, %eax
	je	.LBB101_2
	jmp	.LBB101_7
.LBB101_7:
	jmp	.LBB101_3
	ud2
.LBB101_2:
	.cv_loc	157 32 472 0
	movb	$0, 23(%rsp)
	movq	$6, 8(%rsp)
	jmp	.LBB101_4
.LBB101_3:
	.cv_loc	157 32 471 0
	movq	(%rsp), %rax
	movq	%rax, 32(%rsp)
.Ltmp488:
	.cv_loc	157 32 471 0
	movq	%rax, 8(%rsp)
.Ltmp489:
.LBB101_4:
	.cv_loc	157 32 474 0
	testb	$1, 23(%rsp)
	jne	.LBB101_6
.LBB101_5:
	movq	8(%rsp), %rax
	addq	$40, %rsp
	retq
.LBB101_6:
	jmp	.LBB101_5
.Ltmp490:
.Lfunc_end101:
	.seh_endproc

	.def	_ZN3log5ok_or17h53f0a3f6e12891c6E;
	.scl	3;
	.type	32;
	.endef
	.section	.text,"xr",one_only,_ZN3log5ok_or17h53f0a3f6e12891c6E
	.p2align	4, 0x90
_ZN3log5ok_or17h53f0a3f6e12891c6E:
.Lfunc_begin102:
	.cv_func_id 158
	.cv_loc	158 32 469 0
.seh_proc _ZN3log5ok_or17h53f0a3f6e12891c6E
	subq	$40, %rsp
	.seh_stackalloc 40
	.seh_endprologue
	movq	%rcx, (%rsp)
.Ltmp491:
	.cv_loc	158 32 470 0
	movb	$0, 23(%rsp)
	movb	$1, 23(%rsp)
	movq	(%rsp), %rax
	testq	%rax, %rax
	setne	%al
	movzbl	%al, %eax
	je	.LBB102_2
	jmp	.LBB102_7
.LBB102_7:
	jmp	.LBB102_3
	ud2
.LBB102_2:
	.cv_loc	158 32 472 0
	movb	$0, 23(%rsp)
	movq	$0, 8(%rsp)
	jmp	.LBB102_4
.LBB102_3:
	.cv_loc	158 32 471 0
	movq	(%rsp), %rax
	movq	%rax, 32(%rsp)
.Ltmp492:
	.cv_loc	158 32 471 0
	movq	%rax, 8(%rsp)
.Ltmp493:
.LBB102_4:
	.cv_loc	158 32 474 0
	testb	$1, 23(%rsp)
	jne	.LBB102_6
.LBB102_5:
	movq	8(%rsp), %rax
	addq	$40, %rsp
	retq
.LBB102_6:
	jmp	.LBB102_5
.Ltmp494:
.Lfunc_end102:
	.seh_endproc

	.def	_ZN57_$LT$log..Level$u20$as$u20$core..str..traits..FromStr$GT$8from_str17h8bea10e884feb3bfE;
	.scl	2;
	.type	32;
	.endef
	.section	.text,"xr",one_only,_ZN57_$LT$log..Level$u20$as$u20$core..str..traits..FromStr$GT$8from_str17h8bea10e884feb3bfE
	.globl	_ZN57_$LT$log..Level$u20$as$u20$core..str..traits..FromStr$GT$8from_str17h8bea10e884feb3bfE
	.p2align	4, 0x90
_ZN57_$LT$log..Level$u20$as$u20$core..str..traits..FromStr$GT$8from_str17h8bea10e884feb3bfE:
.Lfunc_begin103:
	.cv_func_id 159
	.cv_loc	159 32 478 0
.seh_proc _ZN57_$LT$log..Level$u20$as$u20$core..str..traits..FromStr$GT$8from_str17h8bea10e884feb3bfE
	subq	$152, %rsp
	.seh_stackalloc 152
	.seh_endprologue
	movq	%rcx, 96(%rsp)
	movq	%rdx, 104(%rsp)
.Ltmp495:
	.cv_loc	159 32 480 0
	leaq	_ZN3log15LOG_LEVEL_NAMES17ha554f51abbe9515cE(%rip), %rcx
	movl	$6, %edx
	callq	_ZN4core5slice29_$LT$impl$u20$$u5b$T$u5d$$GT$4iter17hbd1b2128e549f952E
	movq	%rdx, 136(%rsp)
	movq	%rax, 128(%rsp)
	.cv_loc	159 32 482 0
	leaq	96(%rsp), %rax
	movq	%rax, 144(%rsp)
	.cv_loc	159 32 480 0
	movq	144(%rsp), %rdx
	leaq	128(%rsp), %rcx
	callq	_ZN91_$LT$core..slice..iter..Iter$LT$T$GT$$u20$as$u20$core..iter..traits..iterator..Iterator$GT$8position17hcca4f1558737925eE
	movq	%rax, 80(%rsp)
	movq	%rdx, 88(%rsp)
	movq	88(%rsp), %rdx
	movq	80(%rsp), %rcx
	callq	_ZN91_$LT$core..option..Option$LT$T$GT$$u20$as$u20$core..iter..traits..collect..IntoIterator$GT$9into_iter17h88628ef24320d5afE
	movq	%rax, 64(%rsp)
	movq	%rdx, 72(%rsp)
	movq	72(%rsp), %rdx
	movq	64(%rsp), %rcx
	callq	_ZN4core4iter6traits8iterator8Iterator6filter17h6147e259e23c173aE
	movq	%rax, 48(%rsp)
	movq	%rdx, 56(%rsp)
	movq	56(%rsp), %rdx
	movq	48(%rsp), %rcx
	callq	_ZN4core4iter6traits8iterator8Iterator3map17hd42082a1346c0de5E
	movq	%rdx, 120(%rsp)
	movq	%rax, 112(%rsp)
	leaq	112(%rsp), %rcx
	callq	_ZN102_$LT$core..iter..adapters..map..Map$LT$I$C$F$GT$$u20$as$u20$core..iter..traits..iterator..Iterator$GT$4next17hdf0f72d64c52dfceE
	movq	%rax, 40(%rsp)
	.cv_loc	159 32 479 0
	movq	40(%rsp), %rcx
	callq	_ZN3log5ok_or17h53f0a3f6e12891c6E
	movq	%rax, 32(%rsp)
	.cv_loc	159 32 489 0
	movq	32(%rsp), %rax
	addq	$152, %rsp
	retq
.Ltmp496:
.Lfunc_end103:
	.seh_endproc

	.def	_ZN57_$LT$log..Level$u20$as$u20$core..str..traits..FromStr$GT$8from_str28_$u7b$$u7b$closure$u7d$$u7d$17had13bba06261ff06E;
	.scl	3;
	.type	32;
	.endef
	.section	.text,"xr",one_only,_ZN57_$LT$log..Level$u20$as$u20$core..str..traits..FromStr$GT$8from_str28_$u7b$$u7b$closure$u7d$$u7d$17had13bba06261ff06E
	.p2align	4, 0x90
_ZN57_$LT$log..Level$u20$as$u20$core..str..traits..FromStr$GT$8from_str28_$u7b$$u7b$closure$u7d$$u7d$17had13bba06261ff06E:
.Lfunc_begin104:
	.cv_func_id 160
	.cv_loc	160 32 482 0
.seh_proc _ZN57_$LT$log..Level$u20$as$u20$core..str..traits..FromStr$GT$8from_str28_$u7b$$u7b$closure$u7d$$u7d$17had13bba06261ff06E
	subq	$88, %rsp
	.seh_stackalloc 88
	.seh_endprologue
	movq	%rcx, %rax
	movq	%rax, 48(%rsp)
	movq	48(%rsp), %rcx
	movq	(%rcx), %rcx
	movq	%rcx, 56(%rsp)
	movq	%rdx, 64(%rsp)
.Ltmp497:
	movq	(%rdx), %rcx
	movq	8(%rdx), %rdx
	movq	%rcx, 72(%rsp)
	movq	%rdx, 80(%rsp)
.Ltmp498:
	.cv_loc	160 32 482 0
	movq	(%rax), %rax
	movq	(%rax), %r8
	movq	8(%rax), %r9
	callq	_ZN4core3str21_$LT$impl$u20$str$GT$20eq_ignore_ascii_case17h3b4ba7f2fd3fb5d9E
	movb	%al, 47(%rsp)
.Ltmp499:
	.cv_loc	160 32 482 0
	movb	47(%rsp), %al
	andb	$1, %al
	movzbl	%al, %eax
	addq	$88, %rsp
	retq
.Ltmp500:
.Lfunc_end104:
	.seh_endproc

	.def	_ZN57_$LT$log..Level$u20$as$u20$core..str..traits..FromStr$GT$8from_str28_$u7b$$u7b$closure$u7d$$u7d$17h349ad213d5592ddbE;
	.scl	3;
	.type	32;
	.endef
	.section	.text,"xr",one_only,_ZN57_$LT$log..Level$u20$as$u20$core..str..traits..FromStr$GT$8from_str28_$u7b$$u7b$closure$u7d$$u7d$17h349ad213d5592ddbE
	.p2align	4, 0x90
_ZN57_$LT$log..Level$u20$as$u20$core..str..traits..FromStr$GT$8from_str28_$u7b$$u7b$closure$u7d$$u7d$17h349ad213d5592ddbE:
.Lfunc_begin105:
	.cv_func_id 161
	.cv_loc	161 32 484 0
.seh_proc _ZN57_$LT$log..Level$u20$as$u20$core..str..traits..FromStr$GT$8from_str28_$u7b$$u7b$closure$u7d$$u7d$17h349ad213d5592ddbE
	subq	$24, %rsp
	.seh_stackalloc 24
	.seh_endprologue
	movq	%rcx, (%rsp)
	movq	%rdx, 8(%rsp)
.Ltmp501:
	movq	(%rdx), %rax
	movq	%rax, 16(%rsp)
.Ltmp502:
	.cv_loc	161 32 484 0
	cmpq	$0, %rax
	setne	%al
.Ltmp503:
	.cv_loc	161 32 484 0
	andb	$1, %al
	movzbl	%al, %eax
	addq	$24, %rsp
	retq
.Ltmp504:
.Lfunc_end105:
	.seh_endproc

	.def	_ZN57_$LT$log..Level$u20$as$u20$core..str..traits..FromStr$GT$8from_str28_$u7b$$u7b$closure$u7d$$u7d$17h6de289d2f87e5e83E;
	.scl	3;
	.type	32;
	.endef
	.section	.text,"xr",one_only,_ZN57_$LT$log..Level$u20$as$u20$core..str..traits..FromStr$GT$8from_str28_$u7b$$u7b$closure$u7d$$u7d$17h6de289d2f87e5e83E
	.p2align	4, 0x90
_ZN57_$LT$log..Level$u20$as$u20$core..str..traits..FromStr$GT$8from_str28_$u7b$$u7b$closure$u7d$$u7d$17h6de289d2f87e5e83E:
.Lfunc_begin106:
	.cv_func_id 162
	.cv_loc	162 32 485 0
.seh_proc _ZN57_$LT$log..Level$u20$as$u20$core..str..traits..FromStr$GT$8from_str28_$u7b$$u7b$closure$u7d$$u7d$17h6de289d2f87e5e83E
	subq	$72, %rsp
	.seh_stackalloc 72
	.seh_endprologue
	movq	%rdx, 40(%rsp)
	movq	%rcx, %rax
	movq	40(%rsp), %rcx
	movq	%rax, 56(%rsp)
	movq	%rcx, 64(%rsp)
.Ltmp505:
	callq	_ZN3log5Level10from_usize17h40c1beec2fc39ab9E
	movq	%rax, 48(%rsp)
	movq	48(%rsp), %rcx
	leaq	__unnamed_25(%rip), %rdx
	callq	_ZN4core6option15Option$LT$T$GT$6unwrap17h9655a6b754baa900E
	movq	%rax, 32(%rsp)
	movq	32(%rsp), %rax
	addq	$72, %rsp
	retq
.Ltmp506:
.Lfunc_end106:
	.seh_endproc

	.def	_ZN49_$LT$log..Level$u20$as$u20$core..fmt..Display$GT$3fmt17h7cf074575cf9cf4cE;
	.scl	2;
	.type	32;
	.endef
	.section	.text,"xr",one_only,_ZN49_$LT$log..Level$u20$as$u20$core..fmt..Display$GT$3fmt17h7cf074575cf9cf4cE
	.globl	_ZN49_$LT$log..Level$u20$as$u20$core..fmt..Display$GT$3fmt17h7cf074575cf9cf4cE
	.p2align	4, 0x90
_ZN49_$LT$log..Level$u20$as$u20$core..fmt..Display$GT$3fmt17h7cf074575cf9cf4cE:
.Lfunc_begin107:
	.cv_func_id 163
	.cv_loc	163 32 493 0
.seh_proc _ZN49_$LT$log..Level$u20$as$u20$core..fmt..Display$GT$3fmt17h7cf074575cf9cf4cE
	subq	$88, %rsp
	.seh_stackalloc 88
	.seh_endprologue
	movq	%rdx, 48(%rsp)
	movq	%rcx, 72(%rsp)
	movq	%rdx, 80(%rsp)
.Ltmp507:
	.cv_loc	163 32 494 0
	callq	_ZN3log5Level6as_str17hc3cb980b4ab8062eE
	movq	%rax, 56(%rsp)
	movq	%rdx, 64(%rsp)
	movq	64(%rsp), %r8
	movq	56(%rsp), %rdx
	movq	48(%rsp), %rcx
	callq	_ZN4core3fmt9Formatter3pad17h4e52be107ea93b3dE
	movb	%al, 47(%rsp)
	.cv_loc	163 32 495 0
	movb	47(%rsp), %al
	andb	$1, %al
	movzbl	%al, %eax
	addq	$88, %rsp
	retq
.Ltmp508:
.Lfunc_end107:
	.seh_endproc

	.def	_ZN3log5Level10from_usize17h40c1beec2fc39ab9E;
	.scl	2;
	.type	32;
	.endef
	.section	.text,"xr",one_only,_ZN3log5Level10from_usize17h40c1beec2fc39ab9E
	.globl	_ZN3log5Level10from_usize17h40c1beec2fc39ab9E
	.p2align	4, 0x90
_ZN3log5Level10from_usize17h40c1beec2fc39ab9E:
.Lfunc_begin108:
	.cv_func_id 164
	.cv_loc	164 32 499 0
.seh_proc _ZN3log5Level10from_usize17h40c1beec2fc39ab9E
	subq	$24, %rsp
	.seh_stackalloc 24
	.seh_endprologue
	movq	%rcx, %rax
	movq	%rax, 16(%rsp)
.Ltmp509:
	.cv_loc	164 32 500 0
	decq	%rax
	movq	%rax, (%rsp)
	subq	$4, %rax
	ja	.LBB108_1
	movq	(%rsp), %rax
	leaq	.LJTI108_0(%rip), %rcx
	movslq	(%rcx,%rax,4), %rax
	addq	%rcx, %rax
	jmpq	*%rax
.LBB108_1:
	.cv_loc	164 32 506 0
	movq	$0, 8(%rsp)
	jmp	.LBB108_7
.LBB108_2:
	.cv_loc	164 32 501 0
	movq	$1, 8(%rsp)
	jmp	.LBB108_7
.LBB108_3:
	.cv_loc	164 32 502 0
	movq	$2, 8(%rsp)
	jmp	.LBB108_7
.LBB108_4:
	.cv_loc	164 32 503 0
	movq	$3, 8(%rsp)
	jmp	.LBB108_7
.LBB108_5:
	.cv_loc	164 32 504 0
	movq	$4, 8(%rsp)
	jmp	.LBB108_7
.LBB108_6:
	.cv_loc	164 32 505 0
	movq	$5, 8(%rsp)
.LBB108_7:
	.cv_loc	164 32 508 0
	movq	8(%rsp), %rax
	addq	$24, %rsp
	retq
.Ltmp510:
.Lfunc_end108:
	.p2align	2, 0x90
.LJTI108_0:
	.long	.LBB108_2-.LJTI108_0
	.long	.LBB108_3-.LJTI108_0
	.long	.LBB108_4-.LJTI108_0
	.long	.LBB108_5-.LJTI108_0
	.long	.LBB108_6-.LJTI108_0
	.seh_endproc

	.def	_ZN3log5Level6as_str17hc3cb980b4ab8062eE;
	.scl	2;
	.type	32;
	.endef
	.section	.text,"xr",one_only,_ZN3log5Level6as_str17hc3cb980b4ab8062eE
	.globl	_ZN3log5Level6as_str17hc3cb980b4ab8062eE
	.p2align	4, 0x90
_ZN3log5Level6as_str17hc3cb980b4ab8062eE:
.Lfunc_begin109:
	.cv_func_id 165
	.cv_loc	165 32 525 0
.seh_proc _ZN3log5Level6as_str17hc3cb980b4ab8062eE
	subq	$56, %rsp
	.seh_stackalloc 56
	.seh_endprologue
	movq	%rcx, 48(%rsp)
.Ltmp511:
	.cv_loc	165 32 526 0
	movq	(%rcx), %rax
	movq	%rax, 40(%rsp)
	movq	40(%rsp), %rax
	movq	%rax, 32(%rsp)
	cmpq	$6, %rax
	setb	%al
	testb	$1, %al
	jne	.LBB109_1
	jmp	.LBB109_2
.LBB109_1:
	movq	32(%rsp), %rcx
	shlq	$4, %rcx
	leaq	_ZN3log15LOG_LEVEL_NAMES17ha554f51abbe9515cE(%rip), %rdx
	movq	(%rcx,%rdx), %rax
	movq	8(%rcx,%rdx), %rdx
	.cv_loc	165 32 527 0
	addq	$56, %rsp
	retq
.LBB109_2:
	.cv_loc	165 32 526 0
	movq	32(%rsp), %rcx
	leaq	__unnamed_26(%rip), %r8
	movl	$6, %edx
	callq	_ZN4core9panicking18panic_bounds_check17he019d82aa2caaf8fE
	ud2
.Ltmp512:
.Lfunc_end109:
	.seh_endproc

	.def	_ZN3log5Level4iter17ha70ef575d9911ce1E;
	.scl	2;
	.type	32;
	.endef
	.section	.text,"xr",one_only,_ZN3log5Level4iter17ha70ef575d9911ce1E
	.globl	_ZN3log5Level4iter17ha70ef575d9911ce1E
	.p2align	4, 0x90
_ZN3log5Level4iter17ha70ef575d9911ce1E:
.Lfunc_begin110:
	.cv_func_id 166
	.cv_loc	166 32 543 0
.seh_proc _ZN3log5Level4iter17ha70ef575d9911ce1E
	subq	$72, %rsp
	.seh_stackalloc 72
	.seh_endprologue
.Ltmp513:
	.cv_loc	166 32 544 0
	movq	$1, 56(%rsp)
	movq	$6, 64(%rsp)
	movq	56(%rsp), %rcx
	movq	64(%rsp), %rdx
	callq	_ZN4core4iter6traits8iterator8Iterator3map17h632504625c82fd6cE
	movq	%rax, 40(%rsp)
	movq	%rdx, 48(%rsp)
	.cv_loc	166 32 545 0
	movq	48(%rsp), %rdx
	movq	40(%rsp), %rax
	addq	$72, %rsp
	retq
.Ltmp514:
.Lfunc_end110:
	.seh_endproc

	.def	_ZN63_$LT$log..LevelFilter$u20$as$u20$core..str..traits..FromStr$GT$8from_str17h8b0829c98e9523c9E;
	.scl	2;
	.type	32;
	.endef
	.section	.text,"xr",one_only,_ZN63_$LT$log..LevelFilter$u20$as$u20$core..str..traits..FromStr$GT$8from_str17h8b0829c98e9523c9E
	.globl	_ZN63_$LT$log..LevelFilter$u20$as$u20$core..str..traits..FromStr$GT$8from_str17h8b0829c98e9523c9E
	.p2align	4, 0x90
_ZN63_$LT$log..LevelFilter$u20$as$u20$core..str..traits..FromStr$GT$8from_str17h8b0829c98e9523c9E:
.Lfunc_begin111:
	.cv_func_id 167
	.cv_loc	167 32 589 0
.seh_proc _ZN63_$LT$log..LevelFilter$u20$as$u20$core..str..traits..FromStr$GT$8from_str17h8b0829c98e9523c9E
	subq	$104, %rsp
	.seh_stackalloc 104
	.seh_endprologue
	movq	%rcx, 64(%rsp)
	movq	%rdx, 72(%rsp)
.Ltmp515:
	.cv_loc	167 32 591 0
	leaq	_ZN3log15LOG_LEVEL_NAMES17ha554f51abbe9515cE(%rip), %rcx
	movl	$6, %edx
	callq	_ZN4core5slice29_$LT$impl$u20$$u5b$T$u5d$$GT$4iter17hbd1b2128e549f952E
	movq	%rdx, 88(%rsp)
	movq	%rax, 80(%rsp)
	.cv_loc	167 32 593 0
	leaq	64(%rsp), %rax
	movq	%rax, 96(%rsp)
	.cv_loc	167 32 591 0
	movq	96(%rsp), %rdx
	leaq	80(%rsp), %rcx
	callq	_ZN91_$LT$core..slice..iter..Iter$LT$T$GT$$u20$as$u20$core..iter..traits..iterator..Iterator$GT$8position17h60ff0e305e4e094eE
	movq	%rax, 48(%rsp)
	movq	%rdx, 56(%rsp)
	movq	56(%rsp), %rdx
	movq	48(%rsp), %rcx
	callq	_ZN4core6option15Option$LT$T$GT$3map17ha06c06ae9da30a75E
	movq	%rax, 40(%rsp)
	.cv_loc	167 32 590 0
	movq	40(%rsp), %rcx
	callq	_ZN3log5ok_or17h2f92b48a59a0d86bE
	movq	%rax, 32(%rsp)
	.cv_loc	167 32 597 0
	movq	32(%rsp), %rax
	addq	$104, %rsp
	retq
.Ltmp516:
.Lfunc_end111:
	.seh_endproc

	.def	_ZN63_$LT$log..LevelFilter$u20$as$u20$core..str..traits..FromStr$GT$8from_str28_$u7b$$u7b$closure$u7d$$u7d$17h8fe18fe111a17b9bE;
	.scl	3;
	.type	32;
	.endef
	.section	.text,"xr",one_only,_ZN63_$LT$log..LevelFilter$u20$as$u20$core..str..traits..FromStr$GT$8from_str28_$u7b$$u7b$closure$u7d$$u7d$17h8fe18fe111a17b9bE
	.p2align	4, 0x90
_ZN63_$LT$log..LevelFilter$u20$as$u20$core..str..traits..FromStr$GT$8from_str28_$u7b$$u7b$closure$u7d$$u7d$17h8fe18fe111a17b9bE:
.Lfunc_begin112:
	.cv_func_id 168
	.cv_loc	168 32 593 0
.seh_proc _ZN63_$LT$log..LevelFilter$u20$as$u20$core..str..traits..FromStr$GT$8from_str28_$u7b$$u7b$closure$u7d$$u7d$17h8fe18fe111a17b9bE
	subq	$88, %rsp
	.seh_stackalloc 88
	.seh_endprologue
	movq	%rcx, %rax
	movq	%rax, 48(%rsp)
	movq	48(%rsp), %rcx
	movq	(%rcx), %rcx
	movq	%rcx, 56(%rsp)
	movq	%rdx, 64(%rsp)
.Ltmp517:
	movq	(%rdx), %rcx
	movq	8(%rdx), %rdx
	movq	%rcx, 72(%rsp)
	movq	%rdx, 80(%rsp)
.Ltmp518:
	.cv_loc	168 32 593 0
	movq	(%rax), %rax
	movq	(%rax), %r8
	movq	8(%rax), %r9
	callq	_ZN4core3str21_$LT$impl$u20$str$GT$20eq_ignore_ascii_case17h3b4ba7f2fd3fb5d9E
	movb	%al, 47(%rsp)
.Ltmp519:
	.cv_loc	168 32 593 0
	movb	47(%rsp), %al
	andb	$1, %al
	movzbl	%al, %eax
	addq	$88, %rsp
	retq
.Ltmp520:
.Lfunc_end112:
	.seh_endproc

	.def	_ZN63_$LT$log..LevelFilter$u20$as$u20$core..str..traits..FromStr$GT$8from_str28_$u7b$$u7b$closure$u7d$$u7d$17ha8f194f1a6476c9fE;
	.scl	3;
	.type	32;
	.endef
	.section	.text,"xr",one_only,_ZN63_$LT$log..LevelFilter$u20$as$u20$core..str..traits..FromStr$GT$8from_str28_$u7b$$u7b$closure$u7d$$u7d$17ha8f194f1a6476c9fE
	.p2align	4, 0x90
_ZN63_$LT$log..LevelFilter$u20$as$u20$core..str..traits..FromStr$GT$8from_str28_$u7b$$u7b$closure$u7d$$u7d$17ha8f194f1a6476c9fE:
.Lfunc_begin113:
	.cv_func_id 169
	.cv_loc	169 32 594 0
.seh_proc _ZN63_$LT$log..LevelFilter$u20$as$u20$core..str..traits..FromStr$GT$8from_str28_$u7b$$u7b$closure$u7d$$u7d$17ha8f194f1a6476c9fE
	subq	$72, %rsp
	.seh_stackalloc 72
	.seh_endprologue
	movq	%rcx, 64(%rsp)
.Ltmp521:
	callq	_ZN3log11LevelFilter10from_usize17h41bdc4eb39adbe49E
	movq	%rax, 48(%rsp)
	movq	48(%rsp), %rcx
	leaq	__unnamed_27(%rip), %rdx
	callq	_ZN4core6option15Option$LT$T$GT$6unwrap17h5bba3775642c2384E
	movq	%rax, 40(%rsp)
	movq	40(%rsp), %rax
	addq	$72, %rsp
	retq
.Ltmp522:
.Lfunc_end113:
	.seh_endproc

	.def	_ZN55_$LT$log..LevelFilter$u20$as$u20$core..fmt..Display$GT$3fmt17h4da261084ed61b54E;
	.scl	2;
	.type	32;
	.endef
	.section	.text,"xr",one_only,_ZN55_$LT$log..LevelFilter$u20$as$u20$core..fmt..Display$GT$3fmt17h4da261084ed61b54E
	.globl	_ZN55_$LT$log..LevelFilter$u20$as$u20$core..fmt..Display$GT$3fmt17h4da261084ed61b54E
	.p2align	4, 0x90
_ZN55_$LT$log..LevelFilter$u20$as$u20$core..fmt..Display$GT$3fmt17h4da261084ed61b54E:
.Lfunc_begin114:
	.cv_func_id 170
	.cv_loc	170 32 601 0
.seh_proc _ZN55_$LT$log..LevelFilter$u20$as$u20$core..fmt..Display$GT$3fmt17h4da261084ed61b54E
	subq	$88, %rsp
	.seh_stackalloc 88
	.seh_endprologue
	movq	%rdx, 48(%rsp)
	movq	%rcx, 72(%rsp)
	movq	%rdx, 80(%rsp)
.Ltmp523:
	.cv_loc	170 32 602 0
	callq	_ZN3log11LevelFilter6as_str17h61513e6f41b8c5a6E
	movq	%rax, 56(%rsp)
	movq	%rdx, 64(%rsp)
	movq	64(%rsp), %r8
	movq	56(%rsp), %rdx
	movq	48(%rsp), %rcx
	callq	_ZN4core3fmt9Formatter3pad17h4e52be107ea93b3dE
	movb	%al, 47(%rsp)
	.cv_loc	170 32 603 0
	movb	47(%rsp), %al
	andb	$1, %al
	movzbl	%al, %eax
	addq	$88, %rsp
	retq
.Ltmp524:
.Lfunc_end114:
	.seh_endproc

	.def	_ZN3log11LevelFilter10from_usize17h41bdc4eb39adbe49E;
	.scl	2;
	.type	32;
	.endef
	.section	.text,"xr",one_only,_ZN3log11LevelFilter10from_usize17h41bdc4eb39adbe49E
	.globl	_ZN3log11LevelFilter10from_usize17h41bdc4eb39adbe49E
	.p2align	4, 0x90
_ZN3log11LevelFilter10from_usize17h41bdc4eb39adbe49E:
.Lfunc_begin115:
	.cv_func_id 171
	.cv_loc	171 32 607 0
.seh_proc _ZN3log11LevelFilter10from_usize17h41bdc4eb39adbe49E
	subq	$24, %rsp
	.seh_stackalloc 24
	.seh_endprologue
	movq	%rcx, 16(%rsp)
.Ltmp525:
	.cv_loc	171 32 608 0
	movq	%rcx, %rax
	movq	%rax, (%rsp)
	subq	$5, %rcx
	ja	.LBB115_1
	movq	(%rsp), %rax
	leaq	.LJTI115_0(%rip), %rcx
	movslq	(%rcx,%rax,4), %rax
	addq	%rcx, %rax
	jmpq	*%rax
.LBB115_1:
	.cv_loc	171 32 615 0
	movq	$6, 8(%rsp)
	jmp	.LBB115_8
.LBB115_2:
	.cv_loc	171 32 609 0
	movq	$0, 8(%rsp)
	jmp	.LBB115_8
.LBB115_3:
	.cv_loc	171 32 610 0
	movq	$1, 8(%rsp)
	jmp	.LBB115_8
.LBB115_4:
	.cv_loc	171 32 611 0
	movq	$2, 8(%rsp)
	jmp	.LBB115_8
.LBB115_5:
	.cv_loc	171 32 612 0
	movq	$3, 8(%rsp)
	jmp	.LBB115_8
.LBB115_6:
	.cv_loc	171 32 613 0
	movq	$4, 8(%rsp)
	jmp	.LBB115_8
.LBB115_7:
	.cv_loc	171 32 614 0
	movq	$5, 8(%rsp)
.LBB115_8:
	.cv_loc	171 32 617 0
	movq	8(%rsp), %rax
	addq	$24, %rsp
	retq
.Ltmp526:
.Lfunc_end115:
	.p2align	2, 0x90
.LJTI115_0:
	.long	.LBB115_2-.LJTI115_0
	.long	.LBB115_3-.LJTI115_0
	.long	.LBB115_4-.LJTI115_0
	.long	.LBB115_5-.LJTI115_0
	.long	.LBB115_6-.LJTI115_0
	.long	.LBB115_7-.LJTI115_0
	.seh_endproc

	.def	_ZN3log11LevelFilter6as_str17h61513e6f41b8c5a6E;
	.scl	2;
	.type	32;
	.endef
	.section	.text,"xr",one_only,_ZN3log11LevelFilter6as_str17h61513e6f41b8c5a6E
	.globl	_ZN3log11LevelFilter6as_str17h61513e6f41b8c5a6E
	.p2align	4, 0x90
_ZN3log11LevelFilter6as_str17h61513e6f41b8c5a6E:
.Lfunc_begin116:
	.cv_func_id 172
	.cv_loc	172 32 636 0
.seh_proc _ZN3log11LevelFilter6as_str17h61513e6f41b8c5a6E
	subq	$56, %rsp
	.seh_stackalloc 56
	.seh_endprologue
	movq	%rcx, 48(%rsp)
.Ltmp527:
	.cv_loc	172 32 637 0
	movq	(%rcx), %rax
	movq	%rax, 40(%rsp)
	movq	40(%rsp), %rax
	movq	%rax, 32(%rsp)
	cmpq	$6, %rax
	setb	%al
	testb	$1, %al
	jne	.LBB116_1
	jmp	.LBB116_2
.LBB116_1:
	movq	32(%rsp), %rcx
	shlq	$4, %rcx
	leaq	_ZN3log15LOG_LEVEL_NAMES17ha554f51abbe9515cE(%rip), %rdx
	movq	(%rcx,%rdx), %rax
	movq	8(%rcx,%rdx), %rdx
	.cv_loc	172 32 638 0
	addq	$56, %rsp
	retq
.LBB116_2:
	.cv_loc	172 32 637 0
	movq	32(%rsp), %rcx
	leaq	__unnamed_28(%rip), %r8
	movl	$6, %edx
	callq	_ZN4core9panicking18panic_bounds_check17he019d82aa2caaf8fE
	ud2
.Ltmp528:
.Lfunc_end116:
	.seh_endproc

	.def	_ZN3log11LevelFilter4iter17h97b74aab299294e2E;
	.scl	2;
	.type	32;
	.endef
	.section	.text,"xr",one_only,_ZN3log11LevelFilter4iter17h97b74aab299294e2E
	.globl	_ZN3log11LevelFilter4iter17h97b74aab299294e2E
	.p2align	4, 0x90
_ZN3log11LevelFilter4iter17h97b74aab299294e2E:
.Lfunc_begin117:
	.cv_func_id 173
	.cv_loc	173 32 654 0
.seh_proc _ZN3log11LevelFilter4iter17h97b74aab299294e2E
	subq	$72, %rsp
	.seh_stackalloc 72
	.seh_endprologue
.Ltmp529:
	.cv_loc	173 32 655 0
	movq	$0, 56(%rsp)
	movq	$6, 64(%rsp)
	movq	56(%rsp), %rcx
	movq	64(%rsp), %rdx
	callq	_ZN4core4iter6traits8iterator8Iterator3map17h16434b8f8877369cE
	movq	%rax, 40(%rsp)
	movq	%rdx, 48(%rsp)
	.cv_loc	173 32 656 0
	movq	48(%rsp), %rdx
	movq	40(%rsp), %rax
	addq	$72, %rsp
	retq
.Ltmp530:
.Lfunc_end117:
	.seh_endproc

	.def	_ZN3log6Record7builder17h4b453375e279f3a9E;
	.scl	3;
	.type	32;
	.endef
	.section	.text,"xr",one_only,_ZN3log6Record7builder17h4b453375e279f3a9E
	.p2align	4, 0x90
_ZN3log6Record7builder17h4b453375e279f3a9E:
.Lfunc_begin118:
	.cv_func_id 174
	.cv_loc	174 32 751 0
.seh_proc _ZN3log6Record7builder17h4b453375e279f3a9E
	subq	$40, %rsp
	.seh_stackalloc 40
	.seh_endprologue
	movq	%rcx, %rax
	movq	%rax, 32(%rsp)
.Ltmp531:
	.cv_loc	174 32 752 0
	callq	_ZN3log13RecordBuilder3new17hbda540ad0f4082f1E
	.cv_loc	174 32 753 0
	movq	32(%rsp), %rax
	addq	$40, %rsp
	retq
.Ltmp532:
.Lfunc_end118:
	.seh_endproc

	.def	_ZN3log13RecordBuilder3new17hbda540ad0f4082f1E;
	.scl	3;
	.type	32;
	.endef
	.section	.text,"xr",one_only,_ZN3log13RecordBuilder3new17hbda540ad0f4082f1E
	.p2align	4, 0x90
_ZN3log13RecordBuilder3new17hbda540ad0f4082f1E:
.Lfunc_begin119:
	.cv_func_id 175
	.cv_loc	175 32 900 0
.seh_proc _ZN3log13RecordBuilder3new17hbda540ad0f4082f1E
	subq	$344, %rsp
	.seh_stackalloc 344
	.seh_endprologue
	movq	%rcx, 48(%rsp)
	movq	%rcx, 56(%rsp)
.Ltmp533:
	.cv_loc	175 32 903 0
	leaq	192(%rsp), %rcx
	leaq	__unnamed_3(%rip), %r9
	xorl	%eax, %eax
	movl	%eax, %r8d
	movq	%r9, %rdx
	movq	$0, 32(%rsp)
	callq	_ZN4core3fmt9Arguments6new_v117hf25a81549ea8a1faE
	.cv_loc	175 32 904 0
	leaq	264(%rsp), %rcx
	callq	_ZN3log8Metadata7builder17h20446881c04db8edE
	leaq	240(%rsp), %rcx
	leaq	264(%rsp), %rdx
	callq	_ZN3log15MetadataBuilder5build17h3b885c0024613fb6E
	.cv_loc	175 32 905 0
	movq	$2, 288(%rsp)
	.cv_loc	175 32 906 0
	movq	$2, 312(%rsp)
	.cv_loc	175 32 907 0
	movl	$0, 336(%rsp)
	.cv_loc	175 32 902 0
	movq	240(%rsp), %rax
	movq	%rax, 64(%rsp)
	movq	248(%rsp), %rax
	movq	%rax, 72(%rsp)
	movq	256(%rsp), %rax
	movq	%rax, 80(%rsp)
	leaq	64(%rsp), %rcx
	addq	$24, %rcx
	leaq	192(%rsp), %rdx
	movl	$48, %r8d
	callq	memcpy
	movq	48(%rsp), %rcx
	movq	288(%rsp), %rax
	movq	%rax, 136(%rsp)
	movq	296(%rsp), %rax
	movq	%rax, 144(%rsp)
	movq	304(%rsp), %rax
	movq	%rax, 152(%rsp)
	movq	312(%rsp), %rax
	movq	%rax, 160(%rsp)
	movq	320(%rsp), %rax
	movq	%rax, 168(%rsp)
	movq	328(%rsp), %rax
	movq	%rax, 176(%rsp)
	movl	336(%rsp), %edx
	movl	340(%rsp), %eax
	movl	%edx, 184(%rsp)
	movl	%eax, 188(%rsp)
	.cv_loc	175 32 901 0
	leaq	64(%rsp), %rdx
	movl	$128, %r8d
	callq	memcpy
	movq	56(%rsp), %rax
	.cv_loc	175 32 912 0
	addq	$344, %rsp
	retq
.Ltmp534:
.Lfunc_end119:
	.seh_endproc

	.def	_ZN3log13RecordBuilder4args17hf284fff20bf1656fE;
	.scl	3;
	.type	32;
	.endef
	.section	.text,"xr",one_only,_ZN3log13RecordBuilder4args17hf284fff20bf1656fE
	.p2align	4, 0x90
_ZN3log13RecordBuilder4args17hf284fff20bf1656fE:
.Lfunc_begin120:
	.cv_func_id 176
	.cv_loc	176 32 916 0
.seh_proc _ZN3log13RecordBuilder4args17hf284fff20bf1656fE
	subq	$104, %rsp
	.seh_stackalloc 104
	.seh_endprologue
	movq	%rcx, 40(%rsp)
	movq	%rcx, 96(%rsp)
.Ltmp535:
	.cv_loc	176 32 917 0
	leaq	48(%rsp), %rcx
	movl	$48, %r8d
	callq	memcpy
.Ltmp536:
	movq	40(%rsp), %rcx
	addq	$24, %rcx
	leaq	48(%rsp), %rdx
	movl	$48, %r8d
	callq	memcpy
	movq	40(%rsp), %rax
	.cv_loc	176 32 919 0
	addq	$104, %rsp
	retq
.Ltmp537:
.Lfunc_end120:
	.seh_endproc

	.def	_ZN3log13RecordBuilder5level17h6ec048b2a1b33d8dE;
	.scl	3;
	.type	32;
	.endef
	.section	.text,"xr",one_only,_ZN3log13RecordBuilder5level17h6ec048b2a1b33d8dE
	.p2align	4, 0x90
_ZN3log13RecordBuilder5level17h6ec048b2a1b33d8dE:
.Lfunc_begin121:
	.cv_func_id 177
	.cv_loc	177 32 930 0
.seh_proc _ZN3log13RecordBuilder5level17h6ec048b2a1b33d8dE
	subq	$16, %rsp
	.seh_stackalloc 16
	.seh_endprologue
	movq	%rcx, %rax
	movq	%rax, (%rsp)
	movq	%rdx, 8(%rsp)
.Ltmp538:
	.cv_loc	177 32 931 0
	movq	%rdx, (%rax)
	.cv_loc	177 32 933 0
	addq	$16, %rsp
	retq
.Ltmp539:
.Lfunc_end121:
	.seh_endproc

	.def	_ZN3log13RecordBuilder6target17h74737eeaf02dafe4E;
	.scl	3;
	.type	32;
	.endef
	.section	.text,"xr",one_only,_ZN3log13RecordBuilder6target17h74737eeaf02dafe4E
	.p2align	4, 0x90
_ZN3log13RecordBuilder6target17h74737eeaf02dafe4E:
.Lfunc_begin122:
	.cv_func_id 178
	.cv_loc	178 32 937 0
.seh_proc _ZN3log13RecordBuilder6target17h74737eeaf02dafe4E
	subq	$24, %rsp
	.seh_stackalloc 24
	.seh_endprologue
	movq	%rcx, %rax
	movq	%rax, (%rsp)
	movq	%rdx, 8(%rsp)
	movq	%r8, 16(%rsp)
.Ltmp540:
	.cv_loc	178 32 938 0
	movq	%rdx, 8(%rax)
	movq	%r8, 16(%rax)
	.cv_loc	178 32 940 0
	addq	$24, %rsp
	retq
.Ltmp541:
.Lfunc_end122:
	.seh_endproc

	.def	_ZN3log13RecordBuilder18module_path_static17he6b0cc63fb4fafefE;
	.scl	3;
	.type	32;
	.endef
	.section	.text,"xr",one_only,_ZN3log13RecordBuilder18module_path_static17he6b0cc63fb4fafefE
	.p2align	4, 0x90
_ZN3log13RecordBuilder18module_path_static17he6b0cc63fb4fafefE:
.Lfunc_begin123:
	.cv_func_id 179
	.cv_loc	179 32 951 0
.seh_proc _ZN3log13RecordBuilder18module_path_static17he6b0cc63fb4fafefE
	subq	$88, %rsp
	.seh_stackalloc 88
	.seh_endprologue
	movq	%rcx, 32(%rsp)
	movq	%rcx, 64(%rsp)
	movq	%rdx, 72(%rsp)
	movq	%r8, 80(%rsp)
.Ltmp542:
	.cv_loc	179 32 952 0
	leaq	40(%rsp), %rcx
	callq	_ZN4core6option15Option$LT$T$GT$3map17h1adb190aecffb11dE
	movq	32(%rsp), %rax
	movq	40(%rsp), %rcx
	movq	%rcx, 72(%rax)
	movq	48(%rsp), %rcx
	movq	%rcx, 80(%rax)
	movq	56(%rsp), %rcx
	movq	%rcx, 88(%rax)
	.cv_loc	179 32 954 0
	addq	$88, %rsp
	retq
.Ltmp543:
.Lfunc_end123:
	.seh_endproc

	.def	_ZN3log13RecordBuilder11file_static17h2057716ddaa065c6E;
	.scl	3;
	.type	32;
	.endef
	.section	.text,"xr",one_only,_ZN3log13RecordBuilder11file_static17h2057716ddaa065c6E
	.p2align	4, 0x90
_ZN3log13RecordBuilder11file_static17h2057716ddaa065c6E:
.Lfunc_begin124:
	.cv_func_id 180
	.cv_loc	180 32 965 0
.seh_proc _ZN3log13RecordBuilder11file_static17h2057716ddaa065c6E
	subq	$88, %rsp
	.seh_stackalloc 88
	.seh_endprologue
	movq	%rcx, 32(%rsp)
	movq	%rcx, 64(%rsp)
	movq	%rdx, 72(%rsp)
	movq	%r8, 80(%rsp)
.Ltmp544:
	.cv_loc	180 32 966 0
	leaq	40(%rsp), %rcx
	callq	_ZN4core6option15Option$LT$T$GT$3map17h1adb190aecffb11dE
	movq	32(%rsp), %rax
	movq	40(%rsp), %rcx
	movq	%rcx, 96(%rax)
	movq	48(%rsp), %rcx
	movq	%rcx, 104(%rax)
	movq	56(%rsp), %rcx
	movq	%rcx, 112(%rax)
	.cv_loc	180 32 968 0
	addq	$88, %rsp
	retq
.Ltmp545:
.Lfunc_end124:
	.seh_endproc

	.def	_ZN3log13RecordBuilder4line17h802b6a053e5f7130E;
	.scl	3;
	.type	32;
	.endef
	.section	.text,"xr",one_only,_ZN3log13RecordBuilder4line17h802b6a053e5f7130E
	.p2align	4, 0x90
_ZN3log13RecordBuilder4line17h802b6a053e5f7130E:
.Lfunc_begin125:
	.cv_func_id 181
	.cv_loc	181 32 972 0
.seh_proc _ZN3log13RecordBuilder4line17h802b6a053e5f7130E
	subq	$16, %rsp
	.seh_stackalloc 16
	.seh_endprologue
	movq	%rcx, %rax
	movq	%rax, (%rsp)
	movl	%edx, 8(%rsp)
	movl	%r8d, 12(%rsp)
.Ltmp546:
	.cv_loc	181 32 973 0
	movl	%edx, 120(%rax)
	movl	%r8d, 124(%rax)
	.cv_loc	181 32 975 0
	addq	$16, %rsp
	retq
.Ltmp547:
.Lfunc_end125:
	.seh_endproc

	.def	_ZN3log13RecordBuilder5build17h21c00978e2280f7dE;
	.scl	3;
	.type	32;
	.endef
	.section	.text,"xr",one_only,_ZN3log13RecordBuilder5build17h21c00978e2280f7dE
	.p2align	4, 0x90
_ZN3log13RecordBuilder5build17h21c00978e2280f7dE:
.Lfunc_begin126:
	.cv_func_id 182
	.cv_loc	182 32 987 0
.seh_proc _ZN3log13RecordBuilder5build17h21c00978e2280f7dE
	subq	$56, %rsp
	.seh_stackalloc 56
	.seh_endprologue
	movq	%rcx, %rax
	movq	%rax, 40(%rsp)
	movq	%rdx, 48(%rsp)
.Ltmp548:
	.cv_loc	182 32 988 0
	callq	_ZN50_$LT$log..Record$u20$as$u20$core..clone..Clone$GT$5clone17hfd70501e6d9cd78cE
	.cv_loc	182 32 989 0
	movq	40(%rsp), %rax
	addq	$56, %rsp
	retq
.Ltmp549:
.Lfunc_end126:
	.seh_endproc

	.def	_ZN61_$LT$log..RecordBuilder$u20$as$u20$core..default..Default$GT$7default17hfc9c29bae21791beE;
	.scl	2;
	.type	32;
	.endef
	.section	.text,"xr",one_only,_ZN61_$LT$log..RecordBuilder$u20$as$u20$core..default..Default$GT$7default17hfc9c29bae21791beE
	.globl	_ZN61_$LT$log..RecordBuilder$u20$as$u20$core..default..Default$GT$7default17hfc9c29bae21791beE
	.p2align	4, 0x90
_ZN61_$LT$log..RecordBuilder$u20$as$u20$core..default..Default$GT$7default17hfc9c29bae21791beE:
.Lfunc_begin127:
	.cv_func_id 183
	.cv_loc	183 32 993 0
.seh_proc _ZN61_$LT$log..RecordBuilder$u20$as$u20$core..default..Default$GT$7default17hfc9c29bae21791beE
	subq	$40, %rsp
	.seh_stackalloc 40
	.seh_endprologue
	movq	%rcx, %rax
	movq	%rax, 32(%rsp)
.Ltmp550:
	.cv_loc	183 32 994 0
	callq	_ZN3log13RecordBuilder3new17hbda540ad0f4082f1E
	.cv_loc	183 32 995 0
	movq	32(%rsp), %rax
	addq	$40, %rsp
	retq
.Ltmp551:
.Lfunc_end127:
	.seh_endproc

	.def	_ZN3log8Metadata7builder17h20446881c04db8edE;
	.scl	3;
	.type	32;
	.endef
	.section	.text,"xr",one_only,_ZN3log8Metadata7builder17h20446881c04db8edE
	.p2align	4, 0x90
_ZN3log8Metadata7builder17h20446881c04db8edE:
.Lfunc_begin128:
	.cv_func_id 184
	.cv_loc	184 32 1045 0
.seh_proc _ZN3log8Metadata7builder17h20446881c04db8edE
	subq	$40, %rsp
	.seh_stackalloc 40
	.seh_endprologue
	movq	%rcx, %rax
	movq	%rax, 32(%rsp)
.Ltmp552:
	.cv_loc	184 32 1046 0
	callq	_ZN3log15MetadataBuilder3new17hc23769cece36f400E
	.cv_loc	184 32 1047 0
	movq	32(%rsp), %rax
	addq	$40, %rsp
	retq
.Ltmp553:
.Lfunc_end128:
	.seh_endproc

	.def	_ZN3log15MetadataBuilder3new17hc23769cece36f400E;
	.scl	3;
	.type	32;
	.endef
	.section	.text,"xr",one_only,_ZN3log15MetadataBuilder3new17hc23769cece36f400E
	.p2align	4, 0x90
_ZN3log15MetadataBuilder3new17hc23769cece36f400E:
.Lfunc_begin129:
	.cv_func_id 185
	.cv_loc	185 32 1091 0
.seh_proc _ZN3log15MetadataBuilder3new17hc23769cece36f400E
	subq	$24, %rsp
	.seh_stackalloc 24
	.seh_endprologue
	movq	%rcx, %rax
.Ltmp554:
	.cv_loc	185 32 1093 0
	movq	$3, (%rsp)
	leaq	__unnamed_3(%rip), %rdx
	movq	%rdx, 8(%rsp)
	movq	$0, 16(%rsp)
	.cv_loc	185 32 1092 0
	movq	(%rsp), %rdx
	movq	%rdx, (%rcx)
	movq	8(%rsp), %rdx
	movq	%rdx, 8(%rcx)
	movq	16(%rsp), %rdx
	movq	%rdx, 16(%rcx)
	.cv_loc	185 32 1098 0
	addq	$24, %rsp
	retq
.Ltmp555:
.Lfunc_end129:
	.seh_endproc

	.def	_ZN3log15MetadataBuilder5level17h4903779e273e102eE;
	.scl	3;
	.type	32;
	.endef
	.section	.text,"xr",one_only,_ZN3log15MetadataBuilder5level17h4903779e273e102eE
	.p2align	4, 0x90
_ZN3log15MetadataBuilder5level17h4903779e273e102eE:
.Lfunc_begin130:
	.cv_func_id 186
	.cv_loc	186 32 1102 0
.seh_proc _ZN3log15MetadataBuilder5level17h4903779e273e102eE
	subq	$16, %rsp
	.seh_stackalloc 16
	.seh_endprologue
	movq	%rcx, %rax
	movq	%rax, (%rsp)
	movq	%rdx, 8(%rsp)
.Ltmp556:
	.cv_loc	186 32 1103 0
	movq	%rdx, (%rax)
	.cv_loc	186 32 1105 0
	addq	$16, %rsp
	retq
.Ltmp557:
.Lfunc_end130:
	.seh_endproc

	.def	_ZN3log15MetadataBuilder6target17h5a01373b1f8a4432E;
	.scl	3;
	.type	32;
	.endef
	.section	.text,"xr",one_only,_ZN3log15MetadataBuilder6target17h5a01373b1f8a4432E
	.p2align	4, 0x90
_ZN3log15MetadataBuilder6target17h5a01373b1f8a4432E:
.Lfunc_begin131:
	.cv_func_id 187
	.cv_loc	187 32 1109 0
.seh_proc _ZN3log15MetadataBuilder6target17h5a01373b1f8a4432E
	subq	$24, %rsp
	.seh_stackalloc 24
	.seh_endprologue
	movq	%rcx, %rax
	movq	%rax, (%rsp)
	movq	%rdx, 8(%rsp)
	movq	%r8, 16(%rsp)
.Ltmp558:
	.cv_loc	187 32 1110 0
	movq	%rdx, 8(%rax)
	movq	%r8, 16(%rax)
	.cv_loc	187 32 1112 0
	addq	$24, %rsp
	retq
.Ltmp559:
.Lfunc_end131:
	.seh_endproc

	.def	_ZN3log15MetadataBuilder5build17h3b885c0024613fb6E;
	.scl	3;
	.type	32;
	.endef
	.section	.text,"xr",one_only,_ZN3log15MetadataBuilder5build17h3b885c0024613fb6E
	.p2align	4, 0x90
_ZN3log15MetadataBuilder5build17h3b885c0024613fb6E:
.Lfunc_begin132:
	.cv_func_id 188
	.cv_loc	188 32 1116 0
.seh_proc _ZN3log15MetadataBuilder5build17h3b885c0024613fb6E
	subq	$56, %rsp
	.seh_stackalloc 56
	.seh_endprologue
	movq	%rcx, %rax
	movq	%rax, 40(%rsp)
	movq	%rdx, 48(%rsp)
.Ltmp560:
	.cv_loc	188 32 1117 0
	callq	_ZN52_$LT$log..Metadata$u20$as$u20$core..clone..Clone$GT$5clone17h8f0a3219f81e6a36E
	.cv_loc	188 32 1118 0
	movq	40(%rsp), %rax
	addq	$56, %rsp
	retq
.Ltmp561:
.Lfunc_end132:
	.seh_endproc

	.def	_ZN63_$LT$log..MetadataBuilder$u20$as$u20$core..default..Default$GT$7default17h8aa8a0a8e9444f16E;
	.scl	2;
	.type	32;
	.endef
	.section	.text,"xr",one_only,_ZN63_$LT$log..MetadataBuilder$u20$as$u20$core..default..Default$GT$7default17h8aa8a0a8e9444f16E
	.globl	_ZN63_$LT$log..MetadataBuilder$u20$as$u20$core..default..Default$GT$7default17h8aa8a0a8e9444f16E
	.p2align	4, 0x90
_ZN63_$LT$log..MetadataBuilder$u20$as$u20$core..default..Default$GT$7default17h8aa8a0a8e9444f16E:
.Lfunc_begin133:
	.cv_func_id 189
	.cv_loc	189 32 1122 0
.seh_proc _ZN63_$LT$log..MetadataBuilder$u20$as$u20$core..default..Default$GT$7default17h8aa8a0a8e9444f16E
	subq	$40, %rsp
	.seh_stackalloc 40
	.seh_endprologue
	movq	%rcx, %rax
	movq	%rax, 32(%rsp)
.Ltmp562:
	.cv_loc	189 32 1123 0
	callq	_ZN3log15MetadataBuilder3new17hc23769cece36f400E
	.cv_loc	189 32 1124 0
	movq	32(%rsp), %rax
	addq	$40, %rsp
	retq
.Ltmp563:
.Lfunc_end133:
	.seh_endproc

	.def	_ZN43_$LT$log..NopLogger$u20$as$u20$log..Log$GT$7enabled17h5ff8bc9be8d576a8E;
	.scl	2;
	.type	32;
	.endef
	.section	.text,"xr",one_only,_ZN43_$LT$log..NopLogger$u20$as$u20$log..Log$GT$7enabled17h5ff8bc9be8d576a8E
	.globl	_ZN43_$LT$log..NopLogger$u20$as$u20$log..Log$GT$7enabled17h5ff8bc9be8d576a8E
	.p2align	4, 0x90
_ZN43_$LT$log..NopLogger$u20$as$u20$log..Log$GT$7enabled17h5ff8bc9be8d576a8E:
.Lfunc_begin134:
	.cv_func_id 190
	.cv_loc	190 32 1160 0
.seh_proc _ZN43_$LT$log..NopLogger$u20$as$u20$log..Log$GT$7enabled17h5ff8bc9be8d576a8E
	subq	$16, %rsp
	.seh_stackalloc 16
	.seh_endprologue
	movq	%rcx, (%rsp)
	movq	%rdx, 8(%rsp)
.Ltmp564:
	.cv_loc	190 32 1162 0
	xorl	%eax, %eax
	andb	$1, %al
	movzbl	%al, %eax
	addq	$16, %rsp
	retq
.Ltmp565:
.Lfunc_end134:
	.seh_endproc

	.def	_ZN43_$LT$log..NopLogger$u20$as$u20$log..Log$GT$3log17h502ddb5c6ef3d20aE;
	.scl	2;
	.type	32;
	.endef
	.section	.text,"xr",one_only,_ZN43_$LT$log..NopLogger$u20$as$u20$log..Log$GT$3log17h502ddb5c6ef3d20aE
	.globl	_ZN43_$LT$log..NopLogger$u20$as$u20$log..Log$GT$3log17h502ddb5c6ef3d20aE
	.p2align	4, 0x90
_ZN43_$LT$log..NopLogger$u20$as$u20$log..Log$GT$3log17h502ddb5c6ef3d20aE:
.Lfunc_begin135:
	.cv_func_id 191
	.cv_loc	191 32 1164 0
.seh_proc _ZN43_$LT$log..NopLogger$u20$as$u20$log..Log$GT$3log17h502ddb5c6ef3d20aE
	subq	$16, %rsp
	.seh_stackalloc 16
	.seh_endprologue
	movq	%rcx, (%rsp)
	movq	%rdx, 8(%rsp)
.Ltmp566:
	addq	$16, %rsp
	retq
.Ltmp567:
.Lfunc_end135:
	.seh_endproc

	.def	_ZN43_$LT$log..NopLogger$u20$as$u20$log..Log$GT$5flush17h9a1ccf9fb87b2f95E;
	.scl	2;
	.type	32;
	.endef
	.section	.text,"xr",one_only,_ZN43_$LT$log..NopLogger$u20$as$u20$log..Log$GT$5flush17h9a1ccf9fb87b2f95E
	.globl	_ZN43_$LT$log..NopLogger$u20$as$u20$log..Log$GT$5flush17h9a1ccf9fb87b2f95E
	.p2align	4, 0x90
_ZN43_$LT$log..NopLogger$u20$as$u20$log..Log$GT$5flush17h9a1ccf9fb87b2f95E:
.Lfunc_begin136:
	.cv_func_id 192
	.cv_loc	192 32 1165 0
.seh_proc _ZN43_$LT$log..NopLogger$u20$as$u20$log..Log$GT$5flush17h9a1ccf9fb87b2f95E
	pushq	%rax
	.seh_stackalloc 8
	.seh_endprologue
	movq	%rcx, (%rsp)
.Ltmp568:
	popq	%rax
	retq
.Ltmp569:
.Lfunc_end136:
	.seh_endproc

	.def	_ZN3log10set_logger17ha12b5d33964b65a4E;
	.scl	2;
	.type	32;
	.endef
	.section	.text,"xr",one_only,_ZN3log10set_logger17ha12b5d33964b65a4E
	.globl	_ZN3log10set_logger17ha12b5d33964b65a4E
	.p2align	4, 0x90
_ZN3log10set_logger17ha12b5d33964b65a4E:
.Lfunc_begin137:
	.cv_func_id 193
	.cv_loc	193 32 1352 0
.seh_proc _ZN3log10set_logger17ha12b5d33964b65a4E
	subq	$72, %rsp
	.seh_stackalloc 72
	.seh_endprologue
	movq	%rcx, 48(%rsp)
	movq	%rdx, 56(%rsp)
.Ltmp570:
	.cv_loc	193 32 1353 0
	leaq	48(%rsp), %rax
	movq	%rax, 64(%rsp)
	movq	64(%rsp), %rcx
	callq	_ZN3log16set_logger_inner17h68ba6d5ad2e96498E
	movb	%al, 47(%rsp)
	.cv_loc	193 32 1354 0
	movb	47(%rsp), %al
	andb	$1, %al
	movzbl	%al, %eax
	addq	$72, %rsp
	retq
.Ltmp571:
.Lfunc_end137:
	.seh_endproc

	.def	_ZN3log10set_logger28_$u7b$$u7b$closure$u7d$$u7d$17he8b0868b3c23072eE;
	.scl	3;
	.type	32;
	.endef
	.section	.text,"xr",one_only,_ZN3log10set_logger28_$u7b$$u7b$closure$u7d$$u7d$17he8b0868b3c23072eE
	.p2align	4, 0x90
_ZN3log10set_logger28_$u7b$$u7b$closure$u7d$$u7d$17he8b0868b3c23072eE:
.Lfunc_begin138:
	.cv_func_id 194
	.cv_loc	194 32 1353 0
.seh_proc _ZN3log10set_logger28_$u7b$$u7b$closure$u7d$$u7d$17he8b0868b3c23072eE
	pushq	%rax
	.seh_stackalloc 8
	.seh_endprologue
	movq	%rcx, (%rsp)
	movq	(%rsp), %rcx
.Ltmp572:
	movq	(%rcx), %rax
	movq	8(%rcx), %rdx
	popq	%rcx
	retq
.Ltmp573:
.Lfunc_end138:
	.seh_endproc

	.def	_ZN3log16set_logger_inner17h68ba6d5ad2e96498E;
	.scl	3;
	.type	32;
	.endef
	.section	.text,"xr",one_only,_ZN3log16set_logger_inner17h68ba6d5ad2e96498E
	.p2align	4, 0x90
_ZN3log16set_logger_inner17h68ba6d5ad2e96498E:
.Lfunc_begin139:
	.cv_func_id 195
	.cv_loc	195 32 1357 0
.seh_proc _ZN3log16set_logger_inner17h68ba6d5ad2e96498E
	.seh_handler __CxxFrameHandler3, @unwind, @except
	pushq	%rbp
	.seh_pushreg %rbp
	subq	$176, %rsp
	.seh_stackalloc 176
	leaq	128(%rsp), %rbp
	.seh_setframe %rbp, 128
	.seh_endprologue
	movq	$-2, 40(%rbp)
	movq	%rcx, -48(%rbp)
	movq	%rcx, 24(%rbp)
.Ltmp584:
	.cv_loc	195 32 1361 0
	movb	$0, 23(%rbp)
	movb	$1, 23(%rbp)
	.cv_loc	195 32 1364 0
	movb	$4, 6(%rbp)
	.cv_loc	195 32 1365 0
	movb	$4, 7(%rbp)
	.cv_loc	195 32 1361 0
	movb	6(%rbp), %r9b
	movb	7(%rbp), %cl
.Ltmp574:
	movq	%rsp, %rax
	movb	%cl, 32(%rax)
	leaq	_ZN3log5STATE17h4f34dde12b7c61deE(%rip), %rcx
	xorl	%eax, %eax
	movl	%eax, %edx
	movl	$1, %r8d
	callq	_ZN4core4sync6atomic11AtomicUsize16compare_exchange17h783083b46016dd39E
.Ltmp575:
	movq	%rdx, -40(%rbp)
	movq	%rax, -32(%rbp)
	jmp	.LBB139_2
.LBB139_2:
	movq	-40(%rbp), %rax
	movq	-32(%rbp), %rcx
	movq	%rcx, -16(%rbp)
	movq	%rax, -8(%rbp)
	movq	-16(%rbp), %rax
	testq	%rax, %rax
	je	.LBB139_4
	jmp	.LBB139_21
.LBB139_21:
	jmp	.LBB139_5
	ud2
.LBB139_4:
	.cv_loc	195 32 1367 0
	movq	-8(%rbp), %rax
	movq	%rax, 8(%rbp)
	.cv_loc	195 32 1361 0
	jmp	.LBB139_6
.LBB139_5:
	.cv_loc	195 32 1367 0
	movq	-8(%rbp), %rax
	movq	%rax, 8(%rbp)
.LBB139_6:
.Ltmp585:
	.cv_loc	195 32 1367 0
	movq	8(%rbp), %rax
	movq	%rax, -56(%rbp)
	movq	%rax, 32(%rbp)
.Ltmp586:
	.cv_loc	195 32 1369 0
	testq	%rax, %rax
	je	.LBB139_8
	jmp	.LBB139_22
.LBB139_22:
	movq	-56(%rbp), %rax
	subq	$1, %rax
	je	.LBB139_9
	jmp	.LBB139_7
.LBB139_7:
	.cv_loc	195 32 1385 0
	movb	$1, -17(%rbp)
	jmp	.LBB139_10
.LBB139_8:
	.cv_loc	195 32 1372 0
	movq	-48(%rbp), %rcx
	movb	$0, 23(%rbp)
.Ltmp580:
	callq	_ZN3log10set_logger28_$u7b$$u7b$closure$u7d$$u7d$17he8b0868b3c23072eE
.Ltmp581:
	movq	%rdx, -72(%rbp)
	movq	%rax, -64(%rbp)
	jmp	.LBB139_15
.LBB139_9:
	.cv_loc	195 32 1378 0
	movb	$4, 22(%rbp)
	movb	22(%rbp), %dl
.Ltmp576:
	leaq	_ZN3log5STATE17h4f34dde12b7c61deE(%rip), %rcx
	callq	_ZN4core4sync6atomic11AtomicUsize4load17h772b3b1927fd99e2E
.Ltmp577:
	movq	%rax, -80(%rbp)
	jmp	.LBB139_11
.Ltmp587:
.LBB139_10:
	.cv_loc	195 32 1387 0
	testb	$1, 23(%rbp)
	jne	.LBB139_20
	jmp	.LBB139_19
.LBB139_11:
	.cv_loc	195 32 1378 0
	movq	-80(%rbp), %rax
.Ltmp588:
	cmpq	$1, %rax
	je	.LBB139_13
	.cv_loc	195 32 1383 0
	movb	$1, -17(%rbp)
	jmp	.LBB139_10
.LBB139_13:
	.cv_loc	195 32 1381 0
.Ltmp578:
	callq	_ZN4core4sync6atomic14spin_loop_hint17h55831986ed8defa6E
.Ltmp579:
	jmp	.LBB139_14
.LBB139_14:
	jmp	.LBB139_9
.LBB139_15:
	.cv_loc	195 32 1372 0
	movq	-72(%rbp), %rax
	movq	-64(%rbp), %rcx
	movq	%rcx, _ZN3log6LOGGER17h54b20f46962146cbE(%rip)
	movq	%rax, _ZN3log6LOGGER17h54b20f46962146cbE+8(%rip)
	.cv_loc	195 32 1374 0
	movb	$4, 21(%rbp)
	movb	21(%rbp), %r8b
.Ltmp582:
	leaq	_ZN3log5STATE17h4f34dde12b7c61deE(%rip), %rcx
	movl	$2, %edx
	callq	_ZN4core4sync6atomic11AtomicUsize5store17ha5b0380cf50d10a3E
.Ltmp583:
	jmp	.LBB139_16
.LBB139_16:
	.cv_loc	195 32 1375 0
	movb	$0, -17(%rbp)
	jmp	.LBB139_10
.Ltmp589:
.LBB139_19:
	.cv_loc	195 32 1387 0
	movb	-17(%rbp), %al
	andb	$1, %al
	movzbl	%al, %eax
	addq	$176, %rsp
	popq	%rbp
	retq
.LBB139_20:
	jmp	.LBB139_19
	.seh_handlerdata
	.long	($cppxdata$_ZN3log16set_logger_inner17h68ba6d5ad2e96498E)@IMGREL
	.section	.text,"xr",one_only,_ZN3log16set_logger_inner17h68ba6d5ad2e96498E
	.seh_endproc
	.def	"?dtor$1@?0?_ZN3log16set_logger_inner17h68ba6d5ad2e96498E@4HA";
	.scl	3;
	.type	32;
	.endef
	.p2align	4, 0x90
"?dtor$1@?0?_ZN3log16set_logger_inner17h68ba6d5ad2e96498E@4HA":
.seh_proc "?dtor$1@?0?_ZN3log16set_logger_inner17h68ba6d5ad2e96498E@4HA"
.LBB139_1:
	movq	%rdx, 16(%rsp)
	pushq	%rbp
	.seh_pushreg %rbp
	subq	$48, %rsp
	.seh_stackalloc 48
	leaq	128(%rdx), %rbp
	.seh_endprologue
	testb	$1, 23(%rbp)
	jne	.LBB139_18
	jmp	.LBB139_17
.LBB139_17:
	.cv_loc	195 32 1357 0
	addq	$48, %rsp
	popq	%rbp
	retq
.LBB139_18:
	.cv_loc	195 32 1387 0
	jmp	.LBB139_17
.Ltmp590:
.Lfunc_end139:
	.seh_handlerdata
	.section	.text,"xr",one_only,_ZN3log16set_logger_inner17h68ba6d5ad2e96498E
	.seh_endproc
	.section	.xdata,"dr",associative,_ZN3log16set_logger_inner17h68ba6d5ad2e96498E
	.p2align	2
$cppxdata$_ZN3log16set_logger_inner17h68ba6d5ad2e96498E:
	.long	429065506
	.long	1
	.long	($stateUnwindMap$_ZN3log16set_logger_inner17h68ba6d5ad2e96498E)@IMGREL
	.long	0
	.long	0
	.long	3
	.long	($ip2state$_ZN3log16set_logger_inner17h68ba6d5ad2e96498E)@IMGREL
	.long	168
	.long	0
	.long	1
$stateUnwindMap$_ZN3log16set_logger_inner17h68ba6d5ad2e96498E:
	.long	-1
	.long	"?dtor$1@?0?_ZN3log16set_logger_inner17h68ba6d5ad2e96498E@4HA"@IMGREL
$ip2state$_ZN3log16set_logger_inner17h68ba6d5ad2e96498E:
	.long	.Lfunc_begin139@IMGREL
	.long	-1
	.long	.Ltmp574@IMGREL+1
	.long	0
	.long	.Ltmp583@IMGREL+1
	.long	-1
	.section	.text,"xr",one_only,_ZN3log16set_logger_inner17h68ba6d5ad2e96498E

	.def	_ZN3log15set_logger_racy17hf4609f3c85dcc52cE;
	.scl	2;
	.type	32;
	.endef
	.section	.text,"xr",one_only,_ZN3log15set_logger_racy17hf4609f3c85dcc52cE
	.globl	_ZN3log15set_logger_racy17hf4609f3c85dcc52cE
	.p2align	4, 0x90
_ZN3log15set_logger_racy17hf4609f3c85dcc52cE:
.Lfunc_begin140:
	.cv_func_id 196
	.cv_loc	196 32 1408 0
.seh_proc _ZN3log15set_logger_racy17hf4609f3c85dcc52cE
	subq	$88, %rsp
	.seh_stackalloc 88
	.seh_endprologue
	movq	%rdx, 40(%rsp)
	movq	%rcx, 48(%rsp)
	movq	%rcx, 72(%rsp)
	movq	%rdx, 80(%rsp)
.Ltmp591:
	.cv_loc	196 32 1409 0
	movb	$4, 70(%rsp)
	movb	70(%rsp), %dl
	leaq	_ZN3log5STATE17h4f34dde12b7c61deE(%rip), %rcx
	callq	_ZN4core4sync6atomic11AtomicUsize4load17h772b3b1927fd99e2E
	movq	%rax, 56(%rsp)
	movq	56(%rsp), %rax
	testq	%rax, %rax
	je	.LBB140_3
	jmp	.LBB140_7
.LBB140_7:
	movq	56(%rsp), %rax
	subq	$1, %rax
	je	.LBB140_4
	jmp	.LBB140_2
.LBB140_2:
	.cv_loc	196 32 1419 0
	movb	$1, 69(%rsp)
	jmp	.LBB140_5
.LBB140_3:
	.cv_loc	196 32 1411 0
	movq	40(%rsp), %rax
	movq	48(%rsp), %rcx
	movq	%rcx, _ZN3log6LOGGER17h54b20f46962146cbE(%rip)
	movq	%rax, _ZN3log6LOGGER17h54b20f46962146cbE+8(%rip)
	.cv_loc	196 32 1412 0
	movb	$4, 71(%rsp)
	movb	71(%rsp), %r8b
	leaq	_ZN3log5STATE17h4f34dde12b7c61deE(%rip), %rcx
	movl	$2, %edx
	callq	_ZN4core4sync6atomic11AtomicUsize5store17ha5b0380cf50d10a3E
	jmp	.LBB140_6
.LBB140_4:
	.cv_loc	196 32 1417 0
	leaq	__unnamed_29(%rip), %rcx
	leaq	__unnamed_30(%rip), %rdx
	callq	_ZN4core9panicking19unreachable_display17h905e98838e76e140E
	ud2
.LBB140_5:
	.cv_loc	196 32 1421 0
	movb	69(%rsp), %al
	andb	$1, %al
	movzbl	%al, %eax
	addq	$88, %rsp
	retq
.LBB140_6:
	.cv_loc	196 32 1413 0
	movb	$0, 69(%rsp)
	jmp	.LBB140_5
.Ltmp592:
.Lfunc_end140:
	.seh_endproc

	.def	_ZN58_$LT$log..SetLoggerError$u20$as$u20$core..fmt..Display$GT$3fmt17h686c049c37cc16d8E;
	.scl	2;
	.type	32;
	.endef
	.section	.text,"xr",one_only,_ZN58_$LT$log..SetLoggerError$u20$as$u20$core..fmt..Display$GT$3fmt17h686c049c37cc16d8E
	.globl	_ZN58_$LT$log..SetLoggerError$u20$as$u20$core..fmt..Display$GT$3fmt17h686c049c37cc16d8E
	.p2align	4, 0x90
_ZN58_$LT$log..SetLoggerError$u20$as$u20$core..fmt..Display$GT$3fmt17h686c049c37cc16d8E:
.Lfunc_begin141:
	.cv_func_id 197
	.cv_loc	197 32 1431 0
.seh_proc _ZN58_$LT$log..SetLoggerError$u20$as$u20$core..fmt..Display$GT$3fmt17h686c049c37cc16d8E
	subq	$72, %rsp
	.seh_stackalloc 72
	.seh_endprologue
	movq	%rdx, 40(%rsp)
	movq	%rcx, %rax
	movq	40(%rsp), %rcx
	movq	%rax, 56(%rsp)
	movq	%rcx, 64(%rsp)
.Ltmp593:
	.cv_loc	197 32 1432 0
	movq	_ZN3log16SET_LOGGER_ERROR17h73c0fa97f4be9ed5E(%rip), %rdx
	movq	_ZN3log16SET_LOGGER_ERROR17h73c0fa97f4be9ed5E+8(%rip), %r8
	callq	_ZN4core3fmt9Formatter9write_str17h2411d457870fde7eE
	movb	%al, 55(%rsp)
	.cv_loc	197 32 1433 0
	movb	55(%rsp), %al
	andb	$1, %al
	movzbl	%al, %eax
	addq	$72, %rsp
	retq
.Ltmp594:
.Lfunc_end141:
	.seh_endproc

	.def	_ZN59_$LT$log..ParseLevelError$u20$as$u20$core..fmt..Display$GT$3fmt17h43215679e047c4b3E;
	.scl	2;
	.type	32;
	.endef
	.section	.text,"xr",one_only,_ZN59_$LT$log..ParseLevelError$u20$as$u20$core..fmt..Display$GT$3fmt17h43215679e047c4b3E
	.globl	_ZN59_$LT$log..ParseLevelError$u20$as$u20$core..fmt..Display$GT$3fmt17h43215679e047c4b3E
	.p2align	4, 0x90
_ZN59_$LT$log..ParseLevelError$u20$as$u20$core..fmt..Display$GT$3fmt17h43215679e047c4b3E:
.Lfunc_begin142:
	.cv_func_id 198
	.cv_loc	198 32 1448 0
.seh_proc _ZN59_$LT$log..ParseLevelError$u20$as$u20$core..fmt..Display$GT$3fmt17h43215679e047c4b3E
	subq	$72, %rsp
	.seh_stackalloc 72
	.seh_endprologue
	movq	%rdx, 40(%rsp)
	movq	%rcx, %rax
	movq	40(%rsp), %rcx
	movq	%rax, 56(%rsp)
	movq	%rcx, 64(%rsp)
.Ltmp595:
	.cv_loc	198 32 1449 0
	movq	_ZN3log17LEVEL_PARSE_ERROR17hed4b06f0c8409907E(%rip), %rdx
	movq	_ZN3log17LEVEL_PARSE_ERROR17hed4b06f0c8409907E+8(%rip), %r8
	callq	_ZN4core3fmt9Formatter9write_str17h2411d457870fde7eE
	movb	%al, 55(%rsp)
	.cv_loc	198 32 1450 0
	movb	55(%rsp), %al
	andb	$1, %al
	movzbl	%al, %eax
	addq	$72, %rsp
	retq
.Ltmp596:
.Lfunc_end142:
	.seh_endproc

	.def	_ZN3log6logger17h19b8a3495cb59358E;
	.scl	2;
	.type	32;
	.endef
	.section	.text,"xr",one_only,_ZN3log6logger17h19b8a3495cb59358E
	.globl	_ZN3log6logger17h19b8a3495cb59358E
	.p2align	4, 0x90
_ZN3log6logger17h19b8a3495cb59358E:
.Lfunc_begin143:
	.cv_func_id 199
	.cv_loc	199 32 1460 0
.seh_proc _ZN3log6logger17h19b8a3495cb59358E
	subq	$72, %rsp
	.seh_stackalloc 72
	.seh_endprologue
.Ltmp597:
	.cv_loc	199 32 1461 0
	movb	$4, 71(%rsp)
	movb	71(%rsp), %dl
	leaq	_ZN3log5STATE17h4f34dde12b7c61deE(%rip), %rcx
	callq	_ZN4core4sync6atomic11AtomicUsize4load17h772b3b1927fd99e2E
	movq	%rax, 40(%rsp)
	movq	40(%rsp), %rax
	cmpq	$2, %rax
	jne	.LBB143_3
	.cv_loc	199 32 1465 0
	movq	_ZN3log6LOGGER17h54b20f46962146cbE(%rip), %rcx
	movq	_ZN3log6LOGGER17h54b20f46962146cbE+8(%rip), %rax
	movq	%rcx, 48(%rsp)
	movq	%rax, 56(%rsp)
	.cv_loc	199 32 1461 0
	jmp	.LBB143_4
.LBB143_3:
	.cv_loc	199 32 1463 0
	leaq	_ZN3log6logger3NOP17h94a3b7cbf3d48400E(%rip), %rax
	movq	%rax, 48(%rsp)
	leaq	__unnamed_31(%rip), %rax
	movq	%rax, 56(%rsp)
.LBB143_4:
	.cv_loc	199 32 1461 0
	movq	48(%rsp), %rax
	movq	56(%rsp), %rdx
	.cv_loc	199 32 1467 0
	addq	$72, %rsp
	retq
.Ltmp598:
.Lfunc_end143:
	.seh_endproc

	.def	_ZN3log13__private_api3log17h121b6aad789a896bE;
	.scl	2;
	.type	32;
	.endef
	.section	.text,"xr",one_only,_ZN3log13__private_api3log17h121b6aad789a896bE
	.globl	_ZN3log13__private_api3log17h121b6aad789a896bE
	.p2align	4, 0x90
_ZN3log13__private_api3log17h121b6aad789a896bE:
.Lfunc_begin144:
	.cv_func_id 200
	.cv_file	33 "C:\\Users\\cires\\.cargo\\registry\\src\\github.com-1ecc6299db9ec823\\log-0.4.20\\src\\__private_api.rs" "38655A0DC8A94CCAD0BF7D55580344C4BDA06510" 2
	.cv_loc	200 33 9 0
.seh_proc _ZN3log13__private_api3log17h121b6aad789a896bE
	subq	$616, %rsp
	.seh_stackalloc 616
	.seh_endprologue
	movl	%r9d, 108(%rsp)
	movq	%rdx, 112(%rsp)
	movq	%rcx, 120(%rsp)
.Ltmp599:
	movq	664(%rsp), %rax
	movq	656(%rsp), %rcx
	movq	%rcx, 184(%rsp)
	movq	%rax, 192(%rsp)
	movq	%rdx, 544(%rsp)
	movq	%r8, 552(%rsp)
	movl	%r9d, 564(%rsp)
.Ltmp600:
	.cv_loc	200 33 12 0
	movq	(%r8), %rcx
	movq	%rcx, 128(%rsp)
	movq	8(%r8), %rax
	movq	%rax, 136(%rsp)
	movq	%rcx, 568(%rsp)
	movq	%rax, 576(%rsp)
	movq	16(%r8), %rcx
	movq	%rcx, 144(%rsp)
	movq	24(%r8), %rax
	movq	%rax, 152(%rsp)
	movq	%rcx, 584(%rsp)
	movq	%rax, 592(%rsp)
	movq	32(%r8), %rcx
	movq	%rcx, 160(%rsp)
	movq	40(%r8), %rax
	movq	%rax, 168(%rsp)
	movq	%rcx, 600(%rsp)
	movq	%rax, 608(%rsp)
.Ltmp601:
	.cv_loc	200 33 16 0
	leaq	184(%rsp), %rcx
	callq	_ZN4core6option15Option$LT$T$GT$7is_some17he5ce691fe3b99737E
	movb	%al, 183(%rsp)
.Ltmp602:
	movb	183(%rsp), %al
	testb	$1, %al
	jne	.LBB144_3
	jmp	.LBB144_2
.Ltmp603:
.LBB144_2:
	.cv_loc	200 33 22 0
	callq	_ZN3log6logger17h19b8a3495cb59358E
	movq	%rax, 88(%rsp)
	movq	%rdx, 96(%rsp)
	jmp	.LBB144_4
.Ltmp604:
.LBB144_3:
	.cv_loc	200 33 17 0
	leaq	__unnamed_32(%rip), %rcx
	leaq	__unnamed_33(%rip), %r8
	movl	$85, %edx
	callq	_ZN4core9panicking5panic17h8f0a900b6fd3539bE
	ud2
.Ltmp605:
.LBB144_4:
	.cv_loc	200 33 23 0
	leaq	328(%rsp), %rcx
	callq	_ZN3log6Record7builder17h4b453375e279f3a9E
.Ltmp606:
	.cv_loc	200 33 24 0
	movq	120(%rsp), %rdx
	leaq	456(%rsp), %rcx
	movl	$48, %r8d
	callq	memcpy
	.cv_loc	200 33 23 0
	leaq	328(%rsp), %rcx
	leaq	456(%rsp), %rdx
	callq	_ZN3log13RecordBuilder4args17hf284fff20bf1656fE
	movq	%rax, 80(%rsp)
.Ltmp607:
	movq	112(%rsp), %rdx
	movq	80(%rsp), %rcx
	callq	_ZN3log13RecordBuilder5level17h6ec048b2a1b33d8dE
	movq	%rax, 72(%rsp)
.Ltmp608:
	movq	136(%rsp), %r8
	movq	128(%rsp), %rdx
	movq	72(%rsp), %rcx
	callq	_ZN3log13RecordBuilder6target17h74737eeaf02dafe4E
	movq	%rax, 64(%rsp)
.Ltmp609:
	.cv_loc	200 33 27 0
	movq	64(%rsp), %rcx
	movq	152(%rsp), %rax
	movq	144(%rsp), %rdx
	movq	%rdx, 504(%rsp)
	movq	%rax, 512(%rsp)
	.cv_loc	200 33 23 0
	movq	504(%rsp), %rdx
	movq	512(%rsp), %r8
	callq	_ZN3log13RecordBuilder18module_path_static17he6b0cc63fb4fafefE
	movq	%rax, 56(%rsp)
.Ltmp610:
	.cv_loc	200 33 28 0
	movq	56(%rsp), %rcx
	movq	168(%rsp), %rax
	movq	160(%rsp), %rdx
	movq	%rdx, 520(%rsp)
	movq	%rax, 528(%rsp)
	.cv_loc	200 33 23 0
	movq	520(%rsp), %rdx
	movq	528(%rsp), %r8
	callq	_ZN3log13RecordBuilder11file_static17h2057716ddaa065c6E
	movq	%rax, 48(%rsp)
.Ltmp611:
	.cv_loc	200 33 29 0
	movq	48(%rsp), %rcx
	movl	108(%rsp), %eax
	movl	%eax, 540(%rsp)
	movl	$1, 536(%rsp)
	.cv_loc	200 33 23 0
	movl	536(%rsp), %edx
	movl	540(%rsp), %r8d
	callq	_ZN3log13RecordBuilder4line17h802b6a053e5f7130E
	movq	%rax, 40(%rsp)
.Ltmp612:
	movq	40(%rsp), %rdx
	leaq	200(%rsp), %rcx
	callq	_ZN3log13RecordBuilder5build17h21c00978e2280f7dE
.Ltmp613:
	.cv_loc	200 33 22 0
	movq	96(%rsp), %rax
	movq	88(%rsp), %rcx
	leaq	200(%rsp), %rdx
	callq	*40(%rax)
.Ltmp614:
	.cv_loc	200 33 32 0
	nop
	addq	$616, %rsp
	retq
.Ltmp615:
.Lfunc_end144:
	.seh_endproc

	.def	_ZN3log13__private_api7enabled17h8faa284e31b059e1E;
	.scl	2;
	.type	32;
	.endef
	.section	.text,"xr",one_only,_ZN3log13__private_api7enabled17h8faa284e31b059e1E
	.globl	_ZN3log13__private_api7enabled17h8faa284e31b059e1E
	.p2align	4, 0x90
_ZN3log13__private_api7enabled17h8faa284e31b059e1E:
.Lfunc_begin145:
	.cv_func_id 201
	.cv_loc	201 33 55 0
.seh_proc _ZN3log13__private_api7enabled17h8faa284e31b059e1E
	subq	$168, %rsp
	.seh_stackalloc 168
	.seh_endprologue
	movq	%r8, 56(%rsp)
	movq	%rdx, 64(%rsp)
	movq	%rcx, 72(%rsp)
	movq	%rcx, 144(%rsp)
	movq	%rdx, 152(%rsp)
	movq	%r8, 160(%rsp)
.Ltmp616:
	.cv_loc	201 33 56 0
	callq	_ZN3log6logger17h19b8a3495cb59358E
	movq	%rax, 80(%rsp)
	movq	%rdx, 88(%rsp)
	leaq	120(%rsp), %rcx
	callq	_ZN3log8Metadata7builder17h20446881c04db8edE
	movq	72(%rsp), %rdx
	leaq	120(%rsp), %rcx
	callq	_ZN3log15MetadataBuilder5level17h4903779e273e102eE
	movq	%rax, 48(%rsp)
	movq	56(%rsp), %r8
	movq	64(%rsp), %rdx
	movq	48(%rsp), %rcx
	callq	_ZN3log15MetadataBuilder6target17h5a01373b1f8a4432E
	movq	%rax, 40(%rsp)
	movq	40(%rsp), %rdx
	leaq	96(%rsp), %rcx
	callq	_ZN3log15MetadataBuilder5build17h3b885c0024613fb6E
	movq	88(%rsp), %rax
	movq	80(%rsp), %rcx
	leaq	96(%rsp), %rdx
	callq	*32(%rax)
	movb	%al, 39(%rsp)
	.cv_loc	201 33 57 0
	movb	39(%rsp), %al
	andb	$1, %al
	movzbl	%al, %eax
	addq	$168, %rsp
	retq
.Ltmp617:
.Lfunc_end145:
	.seh_endproc

	.def	_ZN3log19get_max_level_inner17h204d590e1e35e5c5E;
	.scl	2;
	.type	32;
	.endef
	.section	.text,"xr",one_only,_ZN3log19get_max_level_inner17h204d590e1e35e5c5E
	.globl	_ZN3log19get_max_level_inner17h204d590e1e35e5c5E
	.p2align	4, 0x90
_ZN3log19get_max_level_inner17h204d590e1e35e5c5E:
.Lfunc_begin146:
	.cv_func_id 202
	.cv_loc	202 32 1486 0
.seh_proc _ZN3log19get_max_level_inner17h204d590e1e35e5c5E
	pushq	%rax
	.seh_stackalloc 8
	.seh_endprologue
.Ltmp618:
	.cv_loc	202 32 1534 0
	movq	$5, (%rsp)
	.cv_loc	202 32 1536 0
	movq	(%rsp), %rax
	popq	%rcx
	retq
.Ltmp619:
.Lfunc_end146:
	.seh_endproc

	.def	_ZN49_$LT$log..Level$u20$as$u20$core..clone..Clone$GT$5clone17h0520b2b6052a1596E;
	.scl	3;
	.type	32;
	.endef
	.section	.text,"xr",one_only,_ZN49_$LT$log..Level$u20$as$u20$core..clone..Clone$GT$5clone17h0520b2b6052a1596E
	.p2align	4, 0x90
_ZN49_$LT$log..Level$u20$as$u20$core..clone..Clone$GT$5clone17h0520b2b6052a1596E:
.Lfunc_begin147:
	.cv_func_id 203
	.cv_loc	203 32 428 0
.seh_proc _ZN49_$LT$log..Level$u20$as$u20$core..clone..Clone$GT$5clone17h0520b2b6052a1596E
	pushq	%rax
	.seh_stackalloc 8
	.seh_endprologue
	movq	%rcx, (%rsp)
.Ltmp620:
	movq	(%rcx), %rax
	popq	%rcx
	retq
.Ltmp621:
.Lfunc_end147:
	.seh_endproc

	.def	_ZN47_$LT$log..Level$u20$as$u20$core..fmt..Debug$GT$3fmt17h718f937b0e2b312eE;
	.scl	2;
	.type	32;
	.endef
	.section	.text,"xr",one_only,_ZN47_$LT$log..Level$u20$as$u20$core..fmt..Debug$GT$3fmt17h718f937b0e2b312eE
	.globl	_ZN47_$LT$log..Level$u20$as$u20$core..fmt..Debug$GT$3fmt17h718f937b0e2b312eE
	.p2align	4, 0x90
_ZN47_$LT$log..Level$u20$as$u20$core..fmt..Debug$GT$3fmt17h718f937b0e2b312eE:
.Lfunc_begin148:
	.cv_func_id 204
	.cv_loc	204 32 428 0
.seh_proc _ZN47_$LT$log..Level$u20$as$u20$core..fmt..Debug$GT$3fmt17h718f937b0e2b312eE
	subq	$72, %rsp
	.seh_stackalloc 72
	.seh_endprologue
	movq	%rdx, 32(%rsp)
	movq	%rcx, 56(%rsp)
	movq	%rdx, 64(%rsp)
.Ltmp622:
	movq	(%rcx), %rax
	decq	%rax
	movq	%rax, 40(%rsp)
	movq	40(%rsp), %rax
	leaq	.LJTI148_0(%rip), %rcx
	movslq	(%rcx,%rax,4), %rax
	addq	%rcx, %rax
	jmpq	*%rax
	ud2
.LBB148_2:
	movq	32(%rsp), %rcx
	leaq	__unnamed_34(%rip), %rdx
	movl	$5, %r8d
	callq	_ZN4core3fmt9Formatter9write_str17h2411d457870fde7eE
	andb	$1, %al
	movb	%al, 55(%rsp)
	jmp	.LBB148_7
.LBB148_3:
	movq	32(%rsp), %rcx
	leaq	__unnamed_35(%rip), %rdx
	movl	$4, %r8d
	callq	_ZN4core3fmt9Formatter9write_str17h2411d457870fde7eE
	andb	$1, %al
	movb	%al, 55(%rsp)
	jmp	.LBB148_7
.LBB148_4:
	movq	32(%rsp), %rcx
	leaq	__unnamed_36(%rip), %rdx
	movl	$4, %r8d
	callq	_ZN4core3fmt9Formatter9write_str17h2411d457870fde7eE
	andb	$1, %al
	movb	%al, 55(%rsp)
	jmp	.LBB148_7
.LBB148_5:
	movq	32(%rsp), %rcx
	leaq	__unnamed_37(%rip), %rdx
	movl	$5, %r8d
	callq	_ZN4core3fmt9Formatter9write_str17h2411d457870fde7eE
	andb	$1, %al
	movb	%al, 55(%rsp)
	jmp	.LBB148_7
.LBB148_6:
	movq	32(%rsp), %rcx
	leaq	__unnamed_38(%rip), %rdx
	movl	$5, %r8d
	callq	_ZN4core3fmt9Formatter9write_str17h2411d457870fde7eE
	andb	$1, %al
	movb	%al, 55(%rsp)
.LBB148_7:
	movb	55(%rsp), %al
	andb	$1, %al
	movzbl	%al, %eax
	addq	$72, %rsp
	retq
.Ltmp623:
.Lfunc_end148:
	.p2align	2, 0x90
.LJTI148_0:
	.long	.LBB148_2-.LJTI148_0
	.long	.LBB148_3-.LJTI148_0
	.long	.LBB148_4-.LJTI148_0
	.long	.LBB148_5-.LJTI148_0
	.long	.LBB148_6-.LJTI148_0
	.seh_endproc

	.def	_ZN53_$LT$log..LevelFilter$u20$as$u20$core..fmt..Debug$GT$3fmt17h19960aaf3fbfc81eE;
	.scl	2;
	.type	32;
	.endef
	.section	.text,"xr",one_only,_ZN53_$LT$log..LevelFilter$u20$as$u20$core..fmt..Debug$GT$3fmt17h19960aaf3fbfc81eE
	.globl	_ZN53_$LT$log..LevelFilter$u20$as$u20$core..fmt..Debug$GT$3fmt17h19960aaf3fbfc81eE
	.p2align	4, 0x90
_ZN53_$LT$log..LevelFilter$u20$as$u20$core..fmt..Debug$GT$3fmt17h19960aaf3fbfc81eE:
.Lfunc_begin149:
	.cv_func_id 205
	.cv_loc	205 32 557 0
.seh_proc _ZN53_$LT$log..LevelFilter$u20$as$u20$core..fmt..Debug$GT$3fmt17h19960aaf3fbfc81eE
	subq	$72, %rsp
	.seh_stackalloc 72
	.seh_endprologue
	movq	%rdx, 32(%rsp)
	movq	%rcx, 56(%rsp)
	movq	%rdx, 64(%rsp)
.Ltmp624:
	movq	(%rcx), %rax
	movq	%rax, 40(%rsp)
	movq	40(%rsp), %rax
	leaq	.LJTI149_0(%rip), %rcx
	movslq	(%rcx,%rax,4), %rax
	addq	%rcx, %rax
	jmpq	*%rax
	ud2
.LBB149_2:
	movq	32(%rsp), %rcx
	leaq	__unnamed_39(%rip), %rdx
	movl	$3, %r8d
	callq	_ZN4core3fmt9Formatter9write_str17h2411d457870fde7eE
	andb	$1, %al
	movb	%al, 55(%rsp)
	jmp	.LBB149_8
.LBB149_3:
	movq	32(%rsp), %rcx
	leaq	__unnamed_34(%rip), %rdx
	movl	$5, %r8d
	callq	_ZN4core3fmt9Formatter9write_str17h2411d457870fde7eE
	andb	$1, %al
	movb	%al, 55(%rsp)
	jmp	.LBB149_8
.LBB149_4:
	movq	32(%rsp), %rcx
	leaq	__unnamed_35(%rip), %rdx
	movl	$4, %r8d
	callq	_ZN4core3fmt9Formatter9write_str17h2411d457870fde7eE
	andb	$1, %al
	movb	%al, 55(%rsp)
	jmp	.LBB149_8
.LBB149_5:
	movq	32(%rsp), %rcx
	leaq	__unnamed_36(%rip), %rdx
	movl	$4, %r8d
	callq	_ZN4core3fmt9Formatter9write_str17h2411d457870fde7eE
	andb	$1, %al
	movb	%al, 55(%rsp)
	jmp	.LBB149_8
.LBB149_6:
	movq	32(%rsp), %rcx
	leaq	__unnamed_37(%rip), %rdx
	movl	$5, %r8d
	callq	_ZN4core3fmt9Formatter9write_str17h2411d457870fde7eE
	andb	$1, %al
	movb	%al, 55(%rsp)
	jmp	.LBB149_8
.LBB149_7:
	movq	32(%rsp), %rcx
	leaq	__unnamed_38(%rip), %rdx
	movl	$5, %r8d
	callq	_ZN4core3fmt9Formatter9write_str17h2411d457870fde7eE
	andb	$1, %al
	movb	%al, 55(%rsp)
.LBB149_8:
	movb	55(%rsp), %al
	andb	$1, %al
	movzbl	%al, %eax
	addq	$72, %rsp
	retq
.Ltmp625:
.Lfunc_end149:
	.p2align	2, 0x90
.LJTI149_0:
	.long	.LBB149_2-.LJTI149_0
	.long	.LBB149_3-.LJTI149_0
	.long	.LBB149_4-.LJTI149_0
	.long	.LBB149_5-.LJTI149_0
	.long	.LBB149_6-.LJTI149_0
	.long	.LBB149_7-.LJTI149_0
	.seh_endproc

	.def	_ZN3log14MaybeStaticStr6Static17h3cbcb012f987ef93E;
	.scl	3;
	.type	32;
	.endef
	.section	.text,"xr",one_only,_ZN3log14MaybeStaticStr6Static17h3cbcb012f987ef93E
	.p2align	4, 0x90
_ZN3log14MaybeStaticStr6Static17h3cbcb012f987ef93E:
.Lfunc_begin150:
	.cv_func_id 206
	.cv_loc	206 32 661 0
.seh_proc _ZN3log14MaybeStaticStr6Static17h3cbcb012f987ef93E
	subq	$16, %rsp
	.seh_stackalloc 16
	.seh_endprologue
	movq	%rcx, %rax
	movq	%rdx, (%rsp)
	movq	%r8, 8(%rsp)
.Ltmp626:
	movq	%rdx, 8(%rcx)
	movq	%r8, 16(%rcx)
	movq	$0, (%rcx)
	addq	$16, %rsp
	retq
.Ltmp627:
.Lfunc_end150:
	.seh_endproc

	.def	_ZN58_$LT$log..MaybeStaticStr$u20$as$u20$core..clone..Clone$GT$5clone17h8704b06accf89400E;
	.scl	3;
	.type	32;
	.endef
	.section	.text,"xr",one_only,_ZN58_$LT$log..MaybeStaticStr$u20$as$u20$core..clone..Clone$GT$5clone17h8704b06accf89400E
	.p2align	4, 0x90
_ZN58_$LT$log..MaybeStaticStr$u20$as$u20$core..clone..Clone$GT$5clone17h8704b06accf89400E:
.Lfunc_begin151:
	.cv_func_id 207
	.cv_loc	207 32 659 0
.seh_proc _ZN58_$LT$log..MaybeStaticStr$u20$as$u20$core..clone..Clone$GT$5clone17h8704b06accf89400E
	pushq	%rax
	.seh_stackalloc 8
	.seh_endprologue
	movq	%rcx, %rax
	movq	%rdx, (%rsp)
.Ltmp628:
	movq	(%rdx), %r8
	movq	%r8, (%rcx)
	movq	8(%rdx), %r8
	movq	%r8, 8(%rcx)
	movq	16(%rdx), %rdx
	movq	%rdx, 16(%rcx)
	popq	%rcx
	retq
.Ltmp629:
.Lfunc_end151:
	.seh_endproc

	.def	_ZN56_$LT$log..MaybeStaticStr$u20$as$u20$core..fmt..Debug$GT$3fmt17h6d8b253e33782ae3E;
	.scl	2;
	.type	32;
	.endef
	.section	.text,"xr",one_only,_ZN56_$LT$log..MaybeStaticStr$u20$as$u20$core..fmt..Debug$GT$3fmt17h6d8b253e33782ae3E
	.globl	_ZN56_$LT$log..MaybeStaticStr$u20$as$u20$core..fmt..Debug$GT$3fmt17h6d8b253e33782ae3E
	.p2align	4, 0x90
_ZN56_$LT$log..MaybeStaticStr$u20$as$u20$core..fmt..Debug$GT$3fmt17h6d8b253e33782ae3E:
.Lfunc_begin152:
	.cv_func_id 208
	.cv_loc	208 32 659 0
.seh_proc _ZN56_$LT$log..MaybeStaticStr$u20$as$u20$core..fmt..Debug$GT$3fmt17h6d8b253e33782ae3E
	subq	$104, %rsp
	.seh_stackalloc 104
	.seh_endprologue
	movq	%rdx, 48(%rsp)
	movq	%rcx, 56(%rsp)
	movq	%rcx, 88(%rsp)
	movq	%rdx, 96(%rsp)
.Ltmp630:
	movq	(%rcx), %rax
	testq	%rax, %rax
	je	.LBB152_2
	jmp	.LBB152_5
.LBB152_5:
	jmp	.LBB152_3
	ud2
.LBB152_2:
	.cv_loc	208 32 661 0
	movq	48(%rsp), %rcx
	movq	56(%rsp), %rax
	addq	$8, %rax
	movq	%rax, 72(%rsp)
.Ltmp631:
	.cv_loc	208 32 659 0
	leaq	__unnamed_40(%rip), %rdx
	movl	$6, %r8d
	leaq	72(%rsp), %r9
	leaq	__unnamed_41(%rip), %rax
	movq	%rax, 32(%rsp)
	callq	_ZN4core3fmt9Formatter25debug_tuple_field1_finish17h9ba7571270ecdc76E
	andb	$1, %al
	movb	%al, 71(%rsp)
	jmp	.LBB152_4
.Ltmp632:
.LBB152_3:
	.cv_loc	208 32 662 0
	movq	48(%rsp), %rcx
	movq	56(%rsp), %rax
	addq	$8, %rax
	movq	%rax, 80(%rsp)
.Ltmp633:
	.cv_loc	208 32 659 0
	leaq	__unnamed_42(%rip), %rdx
	movl	$8, %r8d
	leaq	80(%rsp), %r9
	leaq	__unnamed_41(%rip), %rax
	movq	%rax, 32(%rsp)
	callq	_ZN4core3fmt9Formatter25debug_tuple_field1_finish17h9ba7571270ecdc76E
	andb	$1, %al
	movb	%al, 71(%rsp)
.Ltmp634:
.LBB152_4:
	.cv_loc	208 32 659 0
	movb	71(%rsp), %al
	andb	$1, %al
	movzbl	%al, %eax
	addq	$104, %rsp
	retq
.Ltmp635:
.Lfunc_end152:
	.seh_endproc

	.def	_ZN50_$LT$log..Record$u20$as$u20$core..clone..Clone$GT$5clone17hfd70501e6d9cd78cE;
	.scl	3;
	.type	32;
	.endef
	.section	.text,"xr",one_only,_ZN50_$LT$log..Record$u20$as$u20$core..clone..Clone$GT$5clone17hfd70501e6d9cd78cE
	.p2align	4, 0x90
_ZN50_$LT$log..Record$u20$as$u20$core..clone..Clone$GT$5clone17hfd70501e6d9cd78cE:
.Lfunc_begin153:
	.cv_func_id 209
	.cv_loc	209 32 720 0
.seh_proc _ZN50_$LT$log..Record$u20$as$u20$core..clone..Clone$GT$5clone17hfd70501e6d9cd78cE
	subq	$200, %rsp
	.seh_stackalloc 200
	.seh_endprologue
	movq	%rdx, 48(%rsp)
	movq	%rcx, 56(%rsp)
	movq	%rcx, 64(%rsp)
	movq	%rdx, 192(%rsp)
.Ltmp636:
	.cv_loc	209 32 722 0
	leaq	72(%rsp), %rcx
	callq	_ZN52_$LT$log..Metadata$u20$as$u20$core..clone..Clone$GT$5clone17h8f0a3219f81e6a36E
	.cv_loc	209 32 723 0
	movq	48(%rsp), %rdx
	addq	$24, %rdx
	leaq	96(%rsp), %rcx
	callq	_ZN59_$LT$core..fmt..Arguments$u20$as$u20$core..clone..Clone$GT$5clone17hf584abfeb65dec38E
	.cv_loc	209 32 724 0
	movq	48(%rsp), %rdx
	addq	$72, %rdx
	leaq	144(%rsp), %rcx
	callq	_ZN68_$LT$core..option..Option$LT$T$GT$$u20$as$u20$core..clone..Clone$GT$5clone17hfb2af1b290f8aa18E
	.cv_loc	209 32 725 0
	movq	48(%rsp), %rdx
	addq	$96, %rdx
	leaq	168(%rsp), %rcx
	callq	_ZN68_$LT$core..option..Option$LT$T$GT$$u20$as$u20$core..clone..Clone$GT$5clone17hfb2af1b290f8aa18E
	.cv_loc	209 32 726 0
	movq	48(%rsp), %rcx
	addq	$120, %rcx
	callq	_ZN68_$LT$core..option..Option$LT$T$GT$$u20$as$u20$core..clone..Clone$GT$5clone17h7db8313a4f3f82faE
	movl	%eax, 40(%rsp)
	movl	%edx, 44(%rsp)
	.cv_loc	209 32 720 0
	movq	56(%rsp), %rcx
	movq	72(%rsp), %rax
	movq	%rax, (%rcx)
	movq	80(%rsp), %rax
	movq	%rax, 8(%rcx)
	movq	88(%rsp), %rax
	movq	%rax, 16(%rcx)
	addq	$24, %rcx
	leaq	96(%rsp), %rdx
	movl	$48, %r8d
	callq	memcpy
	movl	40(%rsp), %r8d
	movl	44(%rsp), %edx
	movq	56(%rsp), %rcx
	movq	64(%rsp), %rax
	movq	144(%rsp), %r9
	movq	%r9, 72(%rcx)
	movq	152(%rsp), %r9
	movq	%r9, 80(%rcx)
	movq	160(%rsp), %r9
	movq	%r9, 88(%rcx)
	movq	168(%rsp), %r9
	movq	%r9, 96(%rcx)
	movq	176(%rsp), %r9
	movq	%r9, 104(%rcx)
	movq	184(%rsp), %r9
	movq	%r9, 112(%rcx)
	movl	%r8d, 120(%rcx)
	movl	%edx, 124(%rcx)
	addq	$200, %rsp
	retq
.Ltmp637:
.Lfunc_end153:
	.seh_endproc

	.def	_ZN48_$LT$log..Record$u20$as$u20$core..fmt..Debug$GT$3fmt17hdac5374db9869abbE;
	.scl	2;
	.type	32;
	.endef
	.section	.text,"xr",one_only,_ZN48_$LT$log..Record$u20$as$u20$core..fmt..Debug$GT$3fmt17hdac5374db9869abbE
	.globl	_ZN48_$LT$log..Record$u20$as$u20$core..fmt..Debug$GT$3fmt17hdac5374db9869abbE
	.p2align	4, 0x90
_ZN48_$LT$log..Record$u20$as$u20$core..fmt..Debug$GT$3fmt17hdac5374db9869abbE:
.Lfunc_begin154:
	.cv_func_id 210
	.cv_loc	210 32 720 0
.seh_proc _ZN48_$LT$log..Record$u20$as$u20$core..fmt..Debug$GT$3fmt17hdac5374db9869abbE
	pushq	%r15
	.seh_pushreg %r15
	pushq	%r14
	.seh_pushreg %r14
	pushq	%r13
	.seh_pushreg %r13
	pushq	%r12
	.seh_pushreg %r12
	pushq	%rsi
	.seh_pushreg %rsi
	pushq	%rdi
	.seh_pushreg %rdi
	pushq	%rbp
	.seh_pushreg %rbp
	pushq	%rbx
	.seh_pushreg %rbx
	subq	$280, %rsp
	.seh_stackalloc 280
	.seh_endprologue
	movq	%rdx, 184(%rsp)
	movq	%rcx, %rax
	movq	184(%rsp), %rcx
	movq	%rax, 264(%rsp)
	movq	%rcx, 272(%rsp)
.Ltmp638:
	.cv_loc	210 32 722 0
	movq	%rax, 224(%rsp)
	.cv_loc	210 32 723 0
	movq	%rax, %rdx
	addq	$24, %rdx
	movq	%rdx, 232(%rsp)
	.cv_loc	210 32 724 0
	movq	%rax, %rdx
	addq	$72, %rdx
	movq	%rdx, 240(%rsp)
	.cv_loc	210 32 725 0
	movq	%rax, %rdx
	addq	$96, %rdx
	movq	%rdx, 248(%rsp)
	.cv_loc	210 32 726 0
	addq	$120, %rax
	movq	%rax, 256(%rsp)
	.cv_loc	210 32 720 0
	leaq	__unnamed_43(%rip), %rdx
	movl	$6, %r8d
	leaq	__unnamed_44(%rip), %r9
	leaq	224(%rsp), %rax
	movq	%rax, 192(%rsp)
	leaq	__unnamed_45(%rip), %rax
	movq	%rax, 200(%rsp)
	leaq	__unnamed_46(%rip), %rbp
	leaq	232(%rsp), %r13
	leaq	__unnamed_47(%rip), %r12
	leaq	__unnamed_48(%rip), %r15
	leaq	240(%rsp), %r14
	leaq	__unnamed_49(%rip), %rsi
	leaq	__unnamed_50(%rip), %rbx
	leaq	248(%rsp), %rdi
	leaq	__unnamed_51(%rip), %r11
	leaq	256(%rsp), %r10
	leaq	__unnamed_52(%rip), %rax
	movq	%rax, 208(%rsp)
	movq	192(%rsp), %rax
	movq	$8, 32(%rsp)
	movq	%rax, 40(%rsp)
	movq	200(%rsp), %rax
	movq	%rax, 48(%rsp)
	movq	208(%rsp), %rax
	movq	%rbp, 56(%rsp)
	movq	$4, 64(%rsp)
	movq	%r13, 72(%rsp)
	movq	%r12, 80(%rsp)
	movq	%r15, 88(%rsp)
	movq	$11, 96(%rsp)
	movq	%r14, 104(%rsp)
	movq	%rsi, 112(%rsp)
	movq	%rbx, 120(%rsp)
	movq	$4, 128(%rsp)
	movq	%rdi, 136(%rsp)
	movq	%rsi, 144(%rsp)
	movq	%r11, 152(%rsp)
	movq	$4, 160(%rsp)
	movq	%r10, 168(%rsp)
	movq	%rax, 176(%rsp)
	callq	_ZN4core3fmt9Formatter26debug_struct_field5_finish17h25b2981b36de5a6eE
	movb	%al, 223(%rsp)
	movb	223(%rsp), %al
	andb	$1, %al
	movzbl	%al, %eax
	addq	$280, %rsp
	popq	%rbx
	popq	%rbp
	popq	%rdi
	popq	%rsi
	popq	%r12
	popq	%r13
	popq	%r14
	popq	%r15
	retq
.Ltmp639:
.Lfunc_end154:
	.seh_endproc

	.def	_ZN55_$LT$log..RecordBuilder$u20$as$u20$core..fmt..Debug$GT$3fmt17hf12ea4259ccac44eE;
	.scl	2;
	.type	32;
	.endef
	.section	.text,"xr",one_only,_ZN55_$LT$log..RecordBuilder$u20$as$u20$core..fmt..Debug$GT$3fmt17hf12ea4259ccac44eE
	.globl	_ZN55_$LT$log..RecordBuilder$u20$as$u20$core..fmt..Debug$GT$3fmt17hf12ea4259ccac44eE
	.p2align	4, 0x90
_ZN55_$LT$log..RecordBuilder$u20$as$u20$core..fmt..Debug$GT$3fmt17hf12ea4259ccac44eE:
.Lfunc_begin155:
	.cv_func_id 211
	.cv_loc	211 32 881 0
.seh_proc _ZN55_$LT$log..RecordBuilder$u20$as$u20$core..fmt..Debug$GT$3fmt17hf12ea4259ccac44eE
	subq	$104, %rsp
	.seh_stackalloc 104
	.seh_endprologue
	movq	%rdx, 64(%rsp)
	movq	%rcx, %rax
	movq	64(%rsp), %rcx
	movq	%rax, 88(%rsp)
	movq	%rcx, 96(%rsp)
.Ltmp640:
	.cv_loc	211 32 883 0
	movq	%rax, 80(%rsp)
	.cv_loc	211 32 881 0
	leaq	__unnamed_53(%rip), %rdx
	movl	$13, %r8d
	leaq	__unnamed_54(%rip), %r9
	leaq	80(%rsp), %r10
	leaq	__unnamed_55(%rip), %rax
	movq	$6, 32(%rsp)
	movq	%r10, 40(%rsp)
	movq	%rax, 48(%rsp)
	callq	_ZN4core3fmt9Formatter26debug_struct_field1_finish17h5c0a35e6a05bf44aE
	movb	%al, 79(%rsp)
	movb	79(%rsp), %al
	andb	$1, %al
	movzbl	%al, %eax
	addq	$104, %rsp
	retq
.Ltmp641:
.Lfunc_end155:
	.seh_endproc

	.def	_ZN52_$LT$log..Metadata$u20$as$u20$core..clone..Clone$GT$5clone17h8f0a3219f81e6a36E;
	.scl	3;
	.type	32;
	.endef
	.section	.text,"xr",one_only,_ZN52_$LT$log..Metadata$u20$as$u20$core..clone..Clone$GT$5clone17h8f0a3219f81e6a36E
	.p2align	4, 0x90
_ZN52_$LT$log..Metadata$u20$as$u20$core..clone..Clone$GT$5clone17h8f0a3219f81e6a36E:
.Lfunc_begin156:
	.cv_func_id 212
	.cv_loc	212 32 1036 0
.seh_proc _ZN52_$LT$log..Metadata$u20$as$u20$core..clone..Clone$GT$5clone17h8f0a3219f81e6a36E
	subq	$88, %rsp
	.seh_stackalloc 88
	.seh_endprologue
	movq	%rdx, 48(%rsp)
	movq	%rcx, %rax
	movq	48(%rsp), %rcx
	movq	%rax, 56(%rsp)
	movq	%rax, 64(%rsp)
	movq	%rcx, 80(%rsp)
.Ltmp642:
	.cv_loc	212 32 1038 0
	callq	_ZN49_$LT$log..Level$u20$as$u20$core..clone..Clone$GT$5clone17h0520b2b6052a1596E
	movq	%rax, 72(%rsp)
	.cv_loc	212 32 1039 0
	movq	48(%rsp), %rcx
	addq	$8, %rcx
	callq	_ZN4core5clone5impls54_$LT$impl$u20$core..clone..Clone$u20$for$u20$$RF$T$GT$5clone17hb4ba1c727e700db8E
	movq	%rax, 32(%rsp)
	movq	%rdx, 40(%rsp)
	.cv_loc	212 32 1036 0
	movq	64(%rsp), %rax
	movq	56(%rsp), %rcx
	movq	40(%rsp), %rdx
	movq	32(%rsp), %r8
	movq	72(%rsp), %r9
	movq	%r9, (%rcx)
	movq	%r8, 8(%rcx)
	movq	%rdx, 16(%rcx)
	addq	$88, %rsp
	retq
.Ltmp643:
.Lfunc_end156:
	.seh_endproc

	.def	_ZN50_$LT$log..Metadata$u20$as$u20$core..fmt..Debug$GT$3fmt17hf4207826b98c1430E;
	.scl	2;
	.type	32;
	.endef
	.section	.text,"xr",one_only,_ZN50_$LT$log..Metadata$u20$as$u20$core..fmt..Debug$GT$3fmt17hf4207826b98c1430E
	.globl	_ZN50_$LT$log..Metadata$u20$as$u20$core..fmt..Debug$GT$3fmt17hf4207826b98c1430E
	.p2align	4, 0x90
_ZN50_$LT$log..Metadata$u20$as$u20$core..fmt..Debug$GT$3fmt17hf4207826b98c1430E:
.Lfunc_begin157:
	.cv_func_id 213
	.cv_loc	213 32 1036 0
.seh_proc _ZN50_$LT$log..Metadata$u20$as$u20$core..fmt..Debug$GT$3fmt17hf4207826b98c1430E
	pushq	%rsi
	.seh_pushreg %rsi
	pushq	%rdi
	.seh_pushreg %rdi
	subq	$136, %rsp
	.seh_stackalloc 136
	.seh_endprologue
	movq	%rdx, 88(%rsp)
	movq	%rcx, %rax
	movq	88(%rsp), %rcx
	movq	%rax, 120(%rsp)
	movq	%rcx, 128(%rsp)
.Ltmp644:
	.cv_loc	213 32 1038 0
	movq	%rax, 104(%rsp)
	.cv_loc	213 32 1039 0
	addq	$8, %rax
	movq	%rax, 112(%rsp)
	.cv_loc	213 32 1036 0
	leaq	__unnamed_56(%rip), %rdx
	movl	$8, %r8d
	leaq	__unnamed_57(%rip), %r9
	leaq	104(%rsp), %rdi
	leaq	__unnamed_58(%rip), %rsi
	leaq	__unnamed_59(%rip), %r11
	leaq	112(%rsp), %r10
	leaq	__unnamed_41(%rip), %rax
	movq	$5, 32(%rsp)
	movq	%rdi, 40(%rsp)
	movq	%rsi, 48(%rsp)
	movq	%r11, 56(%rsp)
	movq	$6, 64(%rsp)
	movq	%r10, 72(%rsp)
	movq	%rax, 80(%rsp)
	callq	_ZN4core3fmt9Formatter26debug_struct_field2_finish17hb9e11b49a51e161eE
	movb	%al, 103(%rsp)
	movb	103(%rsp), %al
	andb	$1, %al
	movzbl	%al, %eax
	addq	$136, %rsp
	popq	%rdi
	popq	%rsi
	retq
.Ltmp645:
.Lfunc_end157:
	.seh_endproc

	.def	_ZN57_$LT$log..MetadataBuilder$u20$as$u20$core..fmt..Debug$GT$3fmt17h388a3520dc3ad25cE;
	.scl	2;
	.type	32;
	.endef
	.section	.text,"xr",one_only,_ZN57_$LT$log..MetadataBuilder$u20$as$u20$core..fmt..Debug$GT$3fmt17h388a3520dc3ad25cE
	.globl	_ZN57_$LT$log..MetadataBuilder$u20$as$u20$core..fmt..Debug$GT$3fmt17h388a3520dc3ad25cE
	.p2align	4, 0x90
_ZN57_$LT$log..MetadataBuilder$u20$as$u20$core..fmt..Debug$GT$3fmt17h388a3520dc3ad25cE:
.Lfunc_begin158:
	.cv_func_id 214
	.cv_loc	214 32 1078 0
.seh_proc _ZN57_$LT$log..MetadataBuilder$u20$as$u20$core..fmt..Debug$GT$3fmt17h388a3520dc3ad25cE
	subq	$104, %rsp
	.seh_stackalloc 104
	.seh_endprologue
	movq	%rdx, 64(%rsp)
	movq	%rcx, %rax
	movq	64(%rsp), %rcx
	movq	%rax, 88(%rsp)
	movq	%rcx, 96(%rsp)
.Ltmp646:
	.cv_loc	214 32 1080 0
	movq	%rax, 80(%rsp)
	.cv_loc	214 32 1078 0
	leaq	__unnamed_60(%rip), %rdx
	movl	$15, %r8d
	leaq	__unnamed_44(%rip), %r9
	leaq	80(%rsp), %r10
	leaq	__unnamed_45(%rip), %rax
	movq	$8, 32(%rsp)
	movq	%r10, 40(%rsp)
	movq	%rax, 48(%rsp)
	callq	_ZN4core3fmt9Formatter26debug_struct_field1_finish17h5c0a35e6a05bf44aE
	movb	%al, 79(%rsp)
	movb	79(%rsp), %al
	andb	$1, %al
	movzbl	%al, %eax
	addq	$104, %rsp
	retq
.Ltmp647:
.Lfunc_end158:
	.seh_endproc

	.def	_ZN56_$LT$log..SetLoggerError$u20$as$u20$core..fmt..Debug$GT$3fmt17h255a1bc5b9a4fed3E;
	.scl	2;
	.type	32;
	.endef
	.section	.text,"xr",one_only,_ZN56_$LT$log..SetLoggerError$u20$as$u20$core..fmt..Debug$GT$3fmt17h255a1bc5b9a4fed3E
	.globl	_ZN56_$LT$log..SetLoggerError$u20$as$u20$core..fmt..Debug$GT$3fmt17h255a1bc5b9a4fed3E
	.p2align	4, 0x90
_ZN56_$LT$log..SetLoggerError$u20$as$u20$core..fmt..Debug$GT$3fmt17h255a1bc5b9a4fed3E:
.Lfunc_begin159:
	.cv_func_id 215
	.cv_loc	215 32 1427 0
.seh_proc _ZN56_$LT$log..SetLoggerError$u20$as$u20$core..fmt..Debug$GT$3fmt17h255a1bc5b9a4fed3E
	subq	$88, %rsp
	.seh_stackalloc 88
	.seh_endprologue
	movq	%rdx, 48(%rsp)
	movq	%rcx, %rax
	movq	48(%rsp), %rcx
	movq	%rax, 72(%rsp)
	movq	%rcx, 80(%rsp)
.Ltmp648:
	.cv_loc	215 32 1428 0
	movq	%rax, 64(%rsp)
	.cv_loc	215 32 1427 0
	leaq	__unnamed_61(%rip), %rdx
	movl	$14, %r8d
	leaq	64(%rsp), %r9
	leaq	__unnamed_62(%rip), %rax
	movq	%rax, 32(%rsp)
	callq	_ZN4core3fmt9Formatter25debug_tuple_field1_finish17h9ba7571270ecdc76E
	movb	%al, 63(%rsp)
	movb	63(%rsp), %al
	andb	$1, %al
	movzbl	%al, %eax
	addq	$88, %rsp
	retq
.Ltmp649:
.Lfunc_end159:
	.seh_endproc

	.def	_ZN57_$LT$log..ParseLevelError$u20$as$u20$core..fmt..Debug$GT$3fmt17h337705af40cfe76fE;
	.scl	2;
	.type	32;
	.endef
	.section	.text,"xr",one_only,_ZN57_$LT$log..ParseLevelError$u20$as$u20$core..fmt..Debug$GT$3fmt17h337705af40cfe76fE
	.globl	_ZN57_$LT$log..ParseLevelError$u20$as$u20$core..fmt..Debug$GT$3fmt17h337705af40cfe76fE
	.p2align	4, 0x90
_ZN57_$LT$log..ParseLevelError$u20$as$u20$core..fmt..Debug$GT$3fmt17h337705af40cfe76fE:
.Lfunc_begin160:
	.cv_func_id 216
	.cv_loc	216 32 1444 0
.seh_proc _ZN57_$LT$log..ParseLevelError$u20$as$u20$core..fmt..Debug$GT$3fmt17h337705af40cfe76fE
	subq	$88, %rsp
	.seh_stackalloc 88
	.seh_endprologue
	movq	%rdx, 48(%rsp)
	movq	%rcx, %rax
	movq	48(%rsp), %rcx
	movq	%rax, 72(%rsp)
	movq	%rcx, 80(%rsp)
.Ltmp650:
	.cv_loc	216 32 1445 0
	movq	%rax, 64(%rsp)
	.cv_loc	216 32 1444 0
	leaq	__unnamed_63(%rip), %rdx
	movl	$15, %r8d
	leaq	64(%rsp), %r9
	leaq	__unnamed_62(%rip), %rax
	movq	%rax, 32(%rsp)
	callq	_ZN4core3fmt9Formatter25debug_tuple_field1_finish17h9ba7571270ecdc76E
	movb	%al, 63(%rsp)
	movb	63(%rsp), %al
	andb	$1, %al
	movzbl	%al, %eax
	addq	$88, %rsp
	retq
.Ltmp651:
.Lfunc_end160:
	.seh_endproc

	.section	.rdata,"dr",one_only,__unnamed_1
__unnamed_1:
	.ascii	"()"

	.section	.rdata,"dr",one_only,__unnamed_64
__unnamed_64:
	.ascii	"invalid args"

	.section	.rdata,"dr",one_only,__unnamed_2
	.p2align	3
__unnamed_2:
	.quad	__unnamed_64
	.asciz	"\f\000\000\000\000\000\000"

	.section	.rdata,"dr",one_only,__unnamed_3
	.p2align	3
__unnamed_3:

	.section	.rdata,"dr",one_only,__unnamed_65
__unnamed_65:
	.ascii	"/rustc/90743e7298aca107ddaa0c202a4d3604e29bfeb6\\library\\core\\src\\fmt\\mod.rs"

	.section	.rdata,"dr",one_only,__unnamed_4
	.p2align	3
__unnamed_4:
	.quad	__unnamed_65
	.asciz	"K\000\000\000\000\000\000\000\214\001\000\000\r\000\000"

	.section	.rdata,"dr",one_only,__unnamed_66
	.p2align	3
__unnamed_66:
	.zero	8
	.zero	8

	.section	.rdata,"dr",one_only,__unnamed_67
__unnamed_67:
	.ascii	"there is no such thing as an acquire-release load"

	.section	.rdata,"dr",one_only,__unnamed_6
	.p2align	3
__unnamed_6:
	.quad	__unnamed_67
	.asciz	"1\000\000\000\000\000\000"

	.section	.rdata,"dr",one_only,__unnamed_68
__unnamed_68:
	.ascii	"/rustc/90743e7298aca107ddaa0c202a4d3604e29bfeb6\\library\\core\\src\\sync\\atomic.rs"

	.section	.rdata,"dr",one_only,__unnamed_7
	.p2align	3
__unnamed_7:
	.quad	__unnamed_68
	.asciz	"O\000\000\000\000\000\000\000\257\013\000\000\027\000\000"

	.section	.rdata,"dr",one_only,__unnamed_69
__unnamed_69:
	.ascii	"there is no such thing as a release load"

	.section	.rdata,"dr",one_only,__unnamed_5
	.p2align	3
__unnamed_5:
	.quad	__unnamed_69
	.asciz	"(\000\000\000\000\000\000"

	.section	.rdata,"dr",one_only,__unnamed_8
	.p2align	3
__unnamed_8:
	.quad	__unnamed_68
	.asciz	"O\000\000\000\000\000\000\000\256\013\000\000\030\000\000"

	.section	.rdata,"dr",one_only,__unnamed_70
__unnamed_70:
	.ascii	"there is no such thing as an acquire-release store"

	.section	.rdata,"dr",one_only,__unnamed_10
	.p2align	3
__unnamed_10:
	.quad	__unnamed_70
	.asciz	"2\000\000\000\000\000\000"

	.section	.rdata,"dr",one_only,__unnamed_11
	.p2align	3
__unnamed_11:
	.quad	__unnamed_68
	.asciz	"O\000\000\000\000\000\000\000\240\013\000\000\027\000\000"

	.section	.rdata,"dr",one_only,__unnamed_71
__unnamed_71:
	.ascii	"there is no such thing as an acquire store"

	.section	.rdata,"dr",one_only,__unnamed_9
	.p2align	3
__unnamed_9:
	.quad	__unnamed_71
	.asciz	"*\000\000\000\000\000\000"

	.section	.rdata,"dr",one_only,__unnamed_12
	.p2align	3
__unnamed_12:
	.quad	__unnamed_68
	.asciz	"O\000\000\000\000\000\000\000\237\013\000\000\030\000\000"

	.section	.rdata,"dr",one_only,__unnamed_72
__unnamed_72:
	.ascii	"there is no such thing as an acquire-release failure ordering"

	.section	.rdata,"dr",one_only,__unnamed_14
	.p2align	3
__unnamed_14:
	.quad	__unnamed_72
	.asciz	"=\000\000\000\000\000\000"

	.section	.rdata,"dr",one_only,__unnamed_15
	.p2align	3
__unnamed_15:
	.quad	__unnamed_68
	.asciz	"O\000\000\000\000\000\000\000\002\f\000\000\034\000\000"

	.section	.rdata,"dr",one_only,__unnamed_73
__unnamed_73:
	.ascii	"there is no such thing as a release failure ordering"

	.section	.rdata,"dr",one_only,__unnamed_13
	.p2align	3
__unnamed_13:
	.quad	__unnamed_73
	.asciz	"4\000\000\000\000\000\000"

	.section	.rdata,"dr",one_only,__unnamed_16
	.p2align	3
__unnamed_16:
	.quad	__unnamed_68
	.asciz	"O\000\000\000\000\000\000\000\003\f\000\000\035\000\000"

	.section	.rdata,"dr",one_only,__unnamed_17
__unnamed_17:
	.zero	1

	.section	.rdata,"dr",one_only,__unnamed_18
__unnamed_18:
	.ascii	"called `Option::unwrap()` on a `None` value"

	.section	.rdata,"dr",one_only,__unnamed_74
__unnamed_74:
	.ascii	"internal error: entered unreachable code: "

	.section	.rdata,"dr",one_only,__unnamed_19
	.p2align	3
__unnamed_19:
	.quad	__unnamed_74
	.asciz	"*\000\000\000\000\000\000"

	.section	.rdata,"dr",one_only,__unnamed_21
__unnamed_21:
	.ascii	"Some"

	.section	.rdata,"dr",one_only,__unnamed_22
	.p2align	3
__unnamed_22:
	.quad	_ZN4core3ptr28drop_in_place$LT$$RF$u32$GT$17h32863692b6552bebE
	.asciz	"\b\000\000\000\000\000\000\000\b\000\000\000\000\000\000"
	.quad	_ZN42_$LT$$RF$T$u20$as$u20$core..fmt..Debug$GT$3fmt17h607f647216e16d37E

	.section	.rdata,"dr",one_only,__unnamed_20
__unnamed_20:
	.ascii	"None"

	.section	.rdata,"dr",one_only,__unnamed_23
	.p2align	3
__unnamed_23:
	.quad	_ZN4core3ptr44drop_in_place$LT$$RF$log..MaybeStaticStr$GT$17hfe65920187c778b1E
	.asciz	"\b\000\000\000\000\000\000\000\b\000\000\000\000\000\000"
	.quad	_ZN42_$LT$$RF$T$u20$as$u20$core..fmt..Debug$GT$3fmt17h71be867ac7394744E

	.section	.rdata,"dr",one_only,__unnamed_75
__unnamed_75:
	.ascii	"/rustc/90743e7298aca107ddaa0c202a4d3604e29bfeb6\\library\\core\\src\\slice\\iter.rs"

	.section	.rdata,"dr",one_only,__unnamed_24
	.p2align	3
__unnamed_24:
	.quad	__unnamed_75
	.asciz	"N\000\000\000\000\000\000\000\205\000\000\000\001\000\000"

	.section	.rdata,"dr",one_only,str.0
	.p2align	4
str.0:
	.ascii	"attempt to add with overflow"

	.section	.rdata,"dr",one_only,__unnamed_76
	.p2align	3
__unnamed_76:
	.quad	_ZN4core3ptr35drop_in_place$LT$log..NopLogger$GT$17h9397379b9e346c3aE
	.asciz	"\000\000\000\000\000\000\000\000\001\000\000\000\000\000\000"

	.section	.rdata,"dr",one_only,__unnamed_31
	.p2align	3
__unnamed_31:
	.quad	_ZN4core3ptr35drop_in_place$LT$log..NopLogger$GT$17h9397379b9e346c3aE
	.asciz	"\000\000\000\000\000\000\000\000\001\000\000\000\000\000\000"
	.quad	__unnamed_76
	.quad	_ZN43_$LT$log..NopLogger$u20$as$u20$log..Log$GT$7enabled17h5ff8bc9be8d576a8E
	.quad	_ZN43_$LT$log..NopLogger$u20$as$u20$log..Log$GT$3log17h502ddb5c6ef3d20aE
	.quad	_ZN43_$LT$log..NopLogger$u20$as$u20$log..Log$GT$5flush17h9a1ccf9fb87b2f95E

	.section	.data,"dw",one_only,_ZN3log6LOGGER17h54b20f46962146cbE
	.p2align	3
_ZN3log6LOGGER17h54b20f46962146cbE:
	.quad	__unnamed_3
	.quad	__unnamed_31

	.section	.bss,"bw",one_only,_ZN3log5STATE17h4f34dde12b7c61deE
	.p2align	3
_ZN3log5STATE17h4f34dde12b7c61deE:
	.zero	8

	.section	.bss,"bw",one_only,_ZN3log20MAX_LOG_LEVEL_FILTER17hf30ffafdac340d39E
	.globl	_ZN3log20MAX_LOG_LEVEL_FILTER17hf30ffafdac340d39E
	.p2align	3
_ZN3log20MAX_LOG_LEVEL_FILTER17hf30ffafdac340d39E:
	.zero	8

	.section	.rdata,"dr",one_only,__unnamed_77
__unnamed_77:
	.ascii	"OFF"

	.section	.rdata,"dr",one_only,__unnamed_78
__unnamed_78:
	.ascii	"ERROR"

	.section	.rdata,"dr",one_only,__unnamed_79
__unnamed_79:
	.ascii	"WARN"

	.section	.rdata,"dr",one_only,__unnamed_80
__unnamed_80:
	.ascii	"INFO"

	.section	.rdata,"dr",one_only,__unnamed_81
__unnamed_81:
	.ascii	"DEBUG"

	.section	.rdata,"dr",one_only,__unnamed_82
__unnamed_82:
	.ascii	"TRACE"

	.section	.rdata,"dr",one_only,_ZN3log15LOG_LEVEL_NAMES17ha554f51abbe9515cE
	.p2align	3
_ZN3log15LOG_LEVEL_NAMES17ha554f51abbe9515cE:
	.quad	__unnamed_77
	.asciz	"\003\000\000\000\000\000\000"
	.quad	__unnamed_78
	.asciz	"\005\000\000\000\000\000\000"
	.quad	__unnamed_79
	.asciz	"\004\000\000\000\000\000\000"
	.quad	__unnamed_80
	.asciz	"\004\000\000\000\000\000\000"
	.quad	__unnamed_81
	.asciz	"\005\000\000\000\000\000\000"
	.quad	__unnamed_82
	.asciz	"\005\000\000\000\000\000\000"

	.section	.rdata,"dr",one_only,__unnamed_83
__unnamed_83:
	.ascii	"attempted to set a logger after the logging system was already initialized"

	.section	.rdata,"dr",one_only,_ZN3log16SET_LOGGER_ERROR17h73c0fa97f4be9ed5E
	.p2align	3
_ZN3log16SET_LOGGER_ERROR17h73c0fa97f4be9ed5E:
	.quad	__unnamed_83
	.asciz	"J\000\000\000\000\000\000"

	.section	.rdata,"dr",one_only,__unnamed_84
__unnamed_84:
	.ascii	"attempted to convert a string that doesn't match an existing log level"

	.section	.rdata,"dr",one_only,_ZN3log17LEVEL_PARSE_ERROR17hed4b06f0c8409907E
	.p2align	3
_ZN3log17LEVEL_PARSE_ERROR17hed4b06f0c8409907E:
	.quad	__unnamed_84
	.asciz	"F\000\000\000\000\000\000"

	.section	.rdata,"dr",one_only,__unnamed_85
__unnamed_85:
	.ascii	"C:\\Users\\cires\\.cargo\\registry\\src\\github.com-1ecc6299db9ec823\\log-0.4.20\\src\\lib.rs"

	.section	.rdata,"dr",one_only,__unnamed_25
	.p2align	3
__unnamed_25:
	.quad	__unnamed_85
	.asciz	"T\000\000\000\000\000\000\000\345\001\000\0003\000\000"

	.section	.rdata,"dr",one_only,__unnamed_26
	.p2align	3
__unnamed_26:
	.quad	__unnamed_85
	.asciz	"T\000\000\000\000\000\000\000\016\002\000\000\t\000\000"

	.section	.rdata,"dr",one_only,__unnamed_27
	.p2align	3
__unnamed_27:
	.quad	__unnamed_85
	.asciz	"T\000\000\000\000\000\000\000R\002\000\0005\000\000"

	.section	.rdata,"dr",one_only,__unnamed_28
	.p2align	3
__unnamed_28:
	.quad	__unnamed_85
	.asciz	"T\000\000\000\000\000\000\000}\002\000\000\t\000\000"

	.section	.rdata,"dr",one_only,__unnamed_86
__unnamed_86:
	.ascii	"set_logger_racy must not be used with other initialization functions"

	.section	.rdata,"dr",one_only,__unnamed_29
	.p2align	3
__unnamed_29:
	.quad	__unnamed_86
	.asciz	"D\000\000\000\000\000\000"

	.section	.rdata,"dr",one_only,__unnamed_30
	.p2align	3
__unnamed_30:
	.quad	__unnamed_85
	.asciz	"T\000\000\000\000\000\000\000\211\005\000\000\r\000\000"

	.section	.rdata,"dr",one_only,_ZN3log6logger3NOP17h94a3b7cbf3d48400E
_ZN3log6logger3NOP17h94a3b7cbf3d48400E:

	.section	.rdata,"dr",one_only,__unnamed_32
__unnamed_32:
	.ascii	"key-value support is experimental and must be enabled using the `kv_unstable` feature"

	.section	.rdata,"dr",one_only,__unnamed_87
__unnamed_87:
	.ascii	"C:\\Users\\cires\\.cargo\\registry\\src\\github.com-1ecc6299db9ec823\\log-0.4.20\\src\\__private_api.rs"

	.section	.rdata,"dr",one_only,__unnamed_33
	.p2align	3
__unnamed_33:
	.quad	__unnamed_87
	.asciz	"^\000\000\000\000\000\000\000\021\000\000\000\t\000\000"

	.section	.rdata,"dr",one_only,__unnamed_38
__unnamed_38:
	.ascii	"Trace"

	.section	.rdata,"dr",one_only,__unnamed_37
__unnamed_37:
	.ascii	"Debug"

	.section	.rdata,"dr",one_only,__unnamed_36
__unnamed_36:
	.ascii	"Info"

	.section	.rdata,"dr",one_only,__unnamed_35
__unnamed_35:
	.ascii	"Warn"

