	.text
	.def	@feat.00;
	.scl	3;
	.type	0;
	.endef
	.globl	@feat.00
.set @feat.00, 0
	.file	"log.57119a8d-cgu.0"
	.def	_ZN4core3ops8function6FnOnce9call_once17h9d21c47419a6449eE;
	.scl	3;
	.type	32;
	.endef
	.section	.text,"xr",one_only,_ZN4core3ops8function6FnOnce9call_once17h9d21c47419a6449eE
	.p2align	4, 0x90
_ZN4core3ops8function6FnOnce9call_once17h9d21c47419a6449eE:
.Lfunc_begin0:
	.cv_func_id 0
	.cv_file	1 "/rustc/7737e0b5c4103216d6fd8cf941b7ab9bdbaace7c\\library\\core\\src\\ops\\function.rs" "9BEA7362FFF50BBE301170918847D3CA3912A24A" 2
	.cv_loc	0 1 227 0
.seh_proc _ZN4core3ops8function6FnOnce9call_once17h9d21c47419a6449eE
	subq	$72, %rsp
	.seh_stackalloc 72
	.seh_endprologue
	movq	%rcx, 48(%rsp)
	movq	%rdx, 56(%rsp)
.Ltmp0:
	movq	48(%rsp), %rcx
	movq	56(%rsp), %rdx
	callq	_ZN4core3cmp5impls50_$LT$impl$u20$core..cmp..Ord$u20$for$u20$usize$GT$3cmp17h972ebcae687bfdbcE
	movb	%al, 47(%rsp)
	movb	47(%rsp), %al
	addq	$72, %rsp
	retq
.Ltmp1:
.Lfunc_end0:
	.seh_endproc

	.def	_ZN4core3ops8function6FnOnce9call_once17ha90c23754cd36505E;
	.scl	3;
	.type	32;
	.endef
	.section	.text,"xr",one_only,_ZN4core3ops8function6FnOnce9call_once17ha90c23754cd36505E
	.p2align	4, 0x90
_ZN4core3ops8function6FnOnce9call_once17ha90c23754cd36505E:
.Lfunc_begin1:
	.cv_func_id 1
	.cv_loc	1 1 227 0
.seh_proc _ZN4core3ops8function6FnOnce9call_once17ha90c23754cd36505E
	subq	$72, %rsp
	.seh_stackalloc 72
	.seh_endprologue
	movq	%rcx, %rax
	movq	%rax, 40(%rsp)
	movq	%rdx, 48(%rsp)
	movq	%r8, 56(%rsp)
.Ltmp2:
	movq	48(%rsp), %rdx
	movq	56(%rsp), %r8
	callq	_ZN3log14MaybeStaticStr6Static17h45de0f6de3d053fbE
	movq	40(%rsp), %rax
	addq	$72, %rsp
	retq
.Ltmp3:
.Lfunc_end1:
	.seh_endproc

	.def	_ZN4core3ptr28drop_in_place$LT$$RF$u32$GT$17h8eb3de893d1f02daE;
	.scl	3;
	.type	32;
	.endef
	.section	.text,"xr",one_only,_ZN4core3ptr28drop_in_place$LT$$RF$u32$GT$17h8eb3de893d1f02daE
	.p2align	4, 0x90
_ZN4core3ptr28drop_in_place$LT$$RF$u32$GT$17h8eb3de893d1f02daE:
.Lfunc_begin2:
	.cv_func_id 2
	.cv_file	2 "/rustc/7737e0b5c4103216d6fd8cf941b7ab9bdbaace7c\\library\\core\\src\\ptr\\mod.rs" "F72F4549B954F891AA6C07064A899D3B597DE310" 2
	.cv_loc	2 2 188 0
.seh_proc _ZN4core3ptr28drop_in_place$LT$$RF$u32$GT$17h8eb3de893d1f02daE
	pushq	%rax
	.seh_stackalloc 8
	.seh_endprologue
	movq	%rcx, (%rsp)
.Ltmp4:
	popq	%rax
	retq
.Ltmp5:
.Lfunc_end2:
	.seh_endproc

	.def	_ZN4core3ptr32drop_in_place$LT$$RF$$RF$str$GT$17hc3852beae9e10adfE;
	.scl	3;
	.type	32;
	.endef
	.section	.text,"xr",one_only,_ZN4core3ptr32drop_in_place$LT$$RF$$RF$str$GT$17hc3852beae9e10adfE
	.p2align	4, 0x90
_ZN4core3ptr32drop_in_place$LT$$RF$$RF$str$GT$17hc3852beae9e10adfE:
.Lfunc_begin3:
	.cv_func_id 3
	.cv_loc	3 2 188 0
.seh_proc _ZN4core3ptr32drop_in_place$LT$$RF$$RF$str$GT$17hc3852beae9e10adfE
	pushq	%rax
	.seh_stackalloc 8
	.seh_endprologue
	movq	%rcx, (%rsp)
.Ltmp6:
	popq	%rax
	retq
.Ltmp7:
.Lfunc_end3:
	.seh_endproc

	.def	_ZN4core3ptr33drop_in_place$LT$$RF$$LP$$RP$$GT$17he6a1501880c50797E;
	.scl	3;
	.type	32;
	.endef
	.section	.text,"xr",one_only,_ZN4core3ptr33drop_in_place$LT$$RF$$LP$$RP$$GT$17he6a1501880c50797E
	.p2align	4, 0x90
_ZN4core3ptr33drop_in_place$LT$$RF$$LP$$RP$$GT$17he6a1501880c50797E:
.Lfunc_begin4:
	.cv_func_id 4
	.cv_loc	4 2 188 0
.seh_proc _ZN4core3ptr33drop_in_place$LT$$RF$$LP$$RP$$GT$17he6a1501880c50797E
	pushq	%rax
	.seh_stackalloc 8
	.seh_endprologue
	movq	%rcx, (%rsp)
.Ltmp8:
	popq	%rax
	retq
.Ltmp9:
.Lfunc_end4:
	.seh_endproc

	.def	_ZN4core3ptr35drop_in_place$LT$$RF$log..Level$GT$17h25d12f0213f99417E;
	.scl	3;
	.type	32;
	.endef
	.section	.text,"xr",one_only,_ZN4core3ptr35drop_in_place$LT$$RF$log..Level$GT$17h25d12f0213f99417E
	.p2align	4, 0x90
_ZN4core3ptr35drop_in_place$LT$$RF$log..Level$GT$17h25d12f0213f99417E:
.Lfunc_begin5:
	.cv_func_id 5
	.cv_loc	5 2 188 0
.seh_proc _ZN4core3ptr35drop_in_place$LT$$RF$log..Level$GT$17h25d12f0213f99417E
	pushq	%rax
	.seh_stackalloc 8
	.seh_endprologue
	movq	%rcx, (%rsp)
.Ltmp10:
	popq	%rax
	retq
.Ltmp11:
.Lfunc_end5:
	.seh_endproc

	.def	_ZN4core3ptr35drop_in_place$LT$log..NopLogger$GT$17h0d3a7edb180335faE;
	.scl	3;
	.type	32;
	.endef
	.section	.text,"xr",one_only,_ZN4core3ptr35drop_in_place$LT$log..NopLogger$GT$17h0d3a7edb180335faE
	.p2align	4, 0x90
_ZN4core3ptr35drop_in_place$LT$log..NopLogger$GT$17h0d3a7edb180335faE:
.Lfunc_begin6:
	.cv_func_id 6
	.cv_loc	6 2 188 0
.seh_proc _ZN4core3ptr35drop_in_place$LT$log..NopLogger$GT$17h0d3a7edb180335faE
	pushq	%rax
	.seh_stackalloc 8
	.seh_endprologue
	movq	%rcx, (%rsp)
.Ltmp12:
	popq	%rax
	retq
.Ltmp13:
.Lfunc_end6:
	.seh_endproc

	.def	_ZN4core3ptr36drop_in_place$LT$$RF$log..Record$GT$17h36014a1ed100427fE;
	.scl	3;
	.type	32;
	.endef
	.section	.text,"xr",one_only,_ZN4core3ptr36drop_in_place$LT$$RF$log..Record$GT$17h36014a1ed100427fE
	.p2align	4, 0x90
_ZN4core3ptr36drop_in_place$LT$$RF$log..Record$GT$17h36014a1ed100427fE:
.Lfunc_begin7:
	.cv_func_id 7
	.cv_loc	7 2 188 0
.seh_proc _ZN4core3ptr36drop_in_place$LT$$RF$log..Record$GT$17h36014a1ed100427fE
	pushq	%rax
	.seh_stackalloc 8
	.seh_endprologue
	movq	%rcx, (%rsp)
.Ltmp14:
	popq	%rax
	retq
.Ltmp15:
.Lfunc_end7:
	.seh_endproc

	.def	_ZN4core3ptr38drop_in_place$LT$$RF$log..Metadata$GT$17hdaf4a9dc671393bbE;
	.scl	3;
	.type	32;
	.endef
	.section	.text,"xr",one_only,_ZN4core3ptr38drop_in_place$LT$$RF$log..Metadata$GT$17hdaf4a9dc671393bbE
	.p2align	4, 0x90
_ZN4core3ptr38drop_in_place$LT$$RF$log..Metadata$GT$17hdaf4a9dc671393bbE:
.Lfunc_begin8:
	.cv_func_id 8
	.cv_loc	8 2 188 0
.seh_proc _ZN4core3ptr38drop_in_place$LT$$RF$log..Metadata$GT$17hdaf4a9dc671393bbE
	pushq	%rax
	.seh_stackalloc 8
	.seh_endprologue
	movq	%rcx, (%rsp)
.Ltmp16:
	popq	%rax
	retq
.Ltmp17:
.Lfunc_end8:
	.seh_endproc

	.def	_ZN4core3ptr44drop_in_place$LT$$RF$log..MaybeStaticStr$GT$17hb47c919c8e444e50E;
	.scl	3;
	.type	32;
	.endef
	.section	.text,"xr",one_only,_ZN4core3ptr44drop_in_place$LT$$RF$log..MaybeStaticStr$GT$17hb47c919c8e444e50E
	.p2align	4, 0x90
_ZN4core3ptr44drop_in_place$LT$$RF$log..MaybeStaticStr$GT$17hb47c919c8e444e50E:
.Lfunc_begin9:
	.cv_func_id 9
	.cv_loc	9 2 188 0
.seh_proc _ZN4core3ptr44drop_in_place$LT$$RF$log..MaybeStaticStr$GT$17hb47c919c8e444e50E
	pushq	%rax
	.seh_stackalloc 8
	.seh_endprologue
	movq	%rcx, (%rsp)
.Ltmp18:
	popq	%rax
	retq
.Ltmp19:
.Lfunc_end9:
	.seh_endproc

	.def	_ZN4core3ptr45drop_in_place$LT$$RF$core..fmt..Arguments$GT$17h7ca6087b8559c0ddE;
	.scl	3;
	.type	32;
	.endef
	.section	.text,"xr",one_only,_ZN4core3ptr45drop_in_place$LT$$RF$core..fmt..Arguments$GT$17h7ca6087b8559c0ddE
	.p2align	4, 0x90
_ZN4core3ptr45drop_in_place$LT$$RF$core..fmt..Arguments$GT$17h7ca6087b8559c0ddE:
.Lfunc_begin10:
	.cv_func_id 10
	.cv_loc	10 2 188 0
.seh_proc _ZN4core3ptr45drop_in_place$LT$$RF$core..fmt..Arguments$GT$17h7ca6087b8559c0ddE
	pushq	%rax
	.seh_stackalloc 8
	.seh_endprologue
	movq	%rcx, (%rsp)
.Ltmp20:
	popq	%rax
	retq
.Ltmp21:
.Lfunc_end10:
	.seh_endproc

	.def	_ZN4core3ptr56drop_in_place$LT$$RF$core..option..Option$LT$u32$GT$$GT$17h649e15b89c671eb3E;
	.scl	3;
	.type	32;
	.endef
	.section	.text,"xr",one_only,_ZN4core3ptr56drop_in_place$LT$$RF$core..option..Option$LT$u32$GT$$GT$17h649e15b89c671eb3E
	.p2align	4, 0x90
_ZN4core3ptr56drop_in_place$LT$$RF$core..option..Option$LT$u32$GT$$GT$17h649e15b89c671eb3E:
.Lfunc_begin11:
	.cv_func_id 11
	.cv_loc	11 2 188 0
.seh_proc _ZN4core3ptr56drop_in_place$LT$$RF$core..option..Option$LT$u32$GT$$GT$17h649e15b89c671eb3E
	pushq	%rax
	.seh_stackalloc 8
	.seh_endprologue
	movq	%rcx, (%rsp)
.Ltmp22:
	popq	%rax
	retq
.Ltmp23:
.Lfunc_end11:
	.seh_endproc

	.def	_ZN4core3ptr72drop_in_place$LT$$RF$core..option..Option$LT$log..MaybeStaticStr$GT$$GT$17h64dc4cb1d9a053e3E;
	.scl	3;
	.type	32;
	.endef
	.section	.text,"xr",one_only,_ZN4core3ptr72drop_in_place$LT$$RF$core..option..Option$LT$log..MaybeStaticStr$GT$$GT$17h64dc4cb1d9a053e3E
	.p2align	4, 0x90
_ZN4core3ptr72drop_in_place$LT$$RF$core..option..Option$LT$log..MaybeStaticStr$GT$$GT$17h64dc4cb1d9a053e3E:
.Lfunc_begin12:
	.cv_func_id 12
	.cv_loc	12 2 188 0
.seh_proc _ZN4core3ptr72drop_in_place$LT$$RF$core..option..Option$LT$log..MaybeStaticStr$GT$$GT$17h64dc4cb1d9a053e3E
	pushq	%rax
	.seh_stackalloc 8
	.seh_endprologue
	movq	%rcx, (%rsp)
.Ltmp24:
	popq	%rax
	retq
.Ltmp25:
.Lfunc_end12:
	.seh_endproc

	.def	_ZN3log5ok_or17h63e7b9d1b399f82eE;
	.scl	3;
	.type	32;
	.endef
	.section	.text,"xr",one_only,_ZN3log5ok_or17h63e7b9d1b399f82eE
	.p2align	4, 0x90
_ZN3log5ok_or17h63e7b9d1b399f82eE:
.Lfunc_begin13:
	.cv_func_id 13
	.cv_file	3 "C:\\Users\\cires\\.cargo\\registry\\src\\github.com-1ecc6299db9ec823\\log-0.4.20\\src\\lib.rs" "B0C96CDEFF724352968B764C0869A833507492C1" 2
	.cv_loc	13 3 469 0
.seh_proc _ZN3log5ok_or17h63e7b9d1b399f82eE
	subq	$40, %rsp
	.seh_stackalloc 40
	.seh_endprologue
	movq	%rcx, (%rsp)
.Ltmp26:
	.cv_loc	13 3 470 0
	movb	$0, 23(%rsp)
	movb	$1, 23(%rsp)
	movq	(%rsp), %rax
	addq	$-6, %rax
	setne	%al
	movzbl	%al, %eax
	je	.LBB13_2
	jmp	.LBB13_7
.LBB13_7:
	jmp	.LBB13_3
	ud2
.LBB13_2:
	.cv_loc	13 3 472 0
	movb	$0, 23(%rsp)
	movq	$6, 8(%rsp)
	jmp	.LBB13_4
.LBB13_3:
	.cv_loc	13 3 471 0
	movq	(%rsp), %rax
	movq	%rax, 32(%rsp)
.Ltmp27:
	.cv_loc	13 3 471 0
	movq	%rax, 8(%rsp)
.Ltmp28:
.LBB13_4:
	.cv_loc	13 3 474 0
	testb	$1, 23(%rsp)
	jne	.LBB13_6
.LBB13_5:
	movq	8(%rsp), %rax
	addq	$40, %rsp
	retq
.LBB13_6:
	jmp	.LBB13_5
.Ltmp29:
.Lfunc_end13:
	.seh_endproc

	.def	_ZN3log5ok_or17he8260bcfbececc54E;
	.scl	3;
	.type	32;
	.endef
	.section	.text,"xr",one_only,_ZN3log5ok_or17he8260bcfbececc54E
	.p2align	4, 0x90
_ZN3log5ok_or17he8260bcfbececc54E:
.Lfunc_begin14:
	.cv_func_id 14
	.cv_loc	14 3 469 0
.seh_proc _ZN3log5ok_or17he8260bcfbececc54E
	subq	$40, %rsp
	.seh_stackalloc 40
	.seh_endprologue
	movq	%rcx, (%rsp)
.Ltmp30:
	.cv_loc	14 3 470 0
	movb	$0, 23(%rsp)
	movb	$1, 23(%rsp)
	movq	(%rsp), %rax
	testq	%rax, %rax
	setne	%al
	movzbl	%al, %eax
	je	.LBB14_2
	jmp	.LBB14_7
.LBB14_7:
	jmp	.LBB14_3
	ud2
.LBB14_2:
	.cv_loc	14 3 472 0
	movb	$0, 23(%rsp)
	movq	$0, 8(%rsp)
	jmp	.LBB14_4
.LBB14_3:
	.cv_loc	14 3 471 0
	movq	(%rsp), %rax
	movq	%rax, 32(%rsp)
.Ltmp31:
	.cv_loc	14 3 471 0
	movq	%rax, 8(%rsp)
.Ltmp32:
.LBB14_4:
	.cv_loc	14 3 474 0
	testb	$1, 23(%rsp)
	jne	.LBB14_6
.LBB14_5:
	movq	8(%rsp), %rax
	addq	$40, %rsp
	retq
.LBB14_6:
	jmp	.LBB14_5
.Ltmp33:
.Lfunc_end14:
	.seh_endproc

	.def	_ZN57_$LT$log..Level$u20$as$u20$core..str..traits..FromStr$GT$8from_str17h90509abbe4e293deE;
	.scl	2;
	.type	32;
	.endef
	.section	.text,"xr",one_only,_ZN57_$LT$log..Level$u20$as$u20$core..str..traits..FromStr$GT$8from_str17h90509abbe4e293deE
	.globl	_ZN57_$LT$log..Level$u20$as$u20$core..str..traits..FromStr$GT$8from_str17h90509abbe4e293deE
	.p2align	4, 0x90
_ZN57_$LT$log..Level$u20$as$u20$core..str..traits..FromStr$GT$8from_str17h90509abbe4e293deE:
.Lfunc_begin15:
	.cv_func_id 15
	.cv_loc	15 3 478 0
.seh_proc _ZN57_$LT$log..Level$u20$as$u20$core..str..traits..FromStr$GT$8from_str17h90509abbe4e293deE
	subq	$152, %rsp
	.seh_stackalloc 152
	.seh_endprologue
	movq	%rcx, 96(%rsp)
	movq	%rdx, 104(%rsp)
.Ltmp34:
	.cv_loc	15 3 480 0
	leaq	_ZN3log15LOG_LEVEL_NAMES17h741de305603e1efaE(%rip), %rcx
	movl	$6, %edx
	callq	_ZN4core5slice29_$LT$impl$u20$$u5b$T$u5d$$GT$4iter17ha4a4110b68ae4031E
	movq	%rdx, 136(%rsp)
	movq	%rax, 128(%rsp)
	.cv_loc	15 3 482 0
	leaq	96(%rsp), %rax
	movq	%rax, 144(%rsp)
	.cv_loc	15 3 480 0
	movq	144(%rsp), %rdx
	leaq	128(%rsp), %rcx
	callq	_ZN91_$LT$core..slice..iter..Iter$LT$T$GT$$u20$as$u20$core..iter..traits..iterator..Iterator$GT$8position17hac5b640795d1969cE
	movq	%rax, 80(%rsp)
	movq	%rdx, 88(%rsp)
	movq	88(%rsp), %rdx
	movq	80(%rsp), %rcx
	callq	_ZN91_$LT$core..option..Option$LT$T$GT$$u20$as$u20$core..iter..traits..collect..IntoIterator$GT$9into_iter17h9065db61e1ddf31eE
	movq	%rax, 64(%rsp)
	movq	%rdx, 72(%rsp)
	movq	72(%rsp), %rdx
	movq	64(%rsp), %rcx
	callq	_ZN4core4iter6traits8iterator8Iterator6filter17h2b19010aa60a7600E
	movq	%rax, 48(%rsp)
	movq	%rdx, 56(%rsp)
	movq	56(%rsp), %rdx
	movq	48(%rsp), %rcx
	callq	_ZN4core4iter6traits8iterator8Iterator3map17h0683089fa7b6d73dE
	movq	%rdx, 120(%rsp)
	movq	%rax, 112(%rsp)
	leaq	112(%rsp), %rcx
	callq	_ZN102_$LT$core..iter..adapters..map..Map$LT$I$C$F$GT$$u20$as$u20$core..iter..traits..iterator..Iterator$GT$4next17h6374869651d415f2E
	movq	%rax, 40(%rsp)
	.cv_loc	15 3 479 0
	movq	40(%rsp), %rcx
	callq	_ZN3log5ok_or17he8260bcfbececc54E
	movq	%rax, 32(%rsp)
	.cv_loc	15 3 489 0
	movq	32(%rsp), %rax
	addq	$152, %rsp
	retq
.Ltmp35:
.Lfunc_end15:
	.seh_endproc

	.def	_ZN57_$LT$log..Level$u20$as$u20$core..str..traits..FromStr$GT$8from_str28_$u7b$$u7b$closure$u7d$$u7d$17h1fe703dd7d6196d1E;
	.scl	3;
	.type	32;
	.endef
	.section	.text,"xr",one_only,_ZN57_$LT$log..Level$u20$as$u20$core..str..traits..FromStr$GT$8from_str28_$u7b$$u7b$closure$u7d$$u7d$17h1fe703dd7d6196d1E
	.p2align	4, 0x90
_ZN57_$LT$log..Level$u20$as$u20$core..str..traits..FromStr$GT$8from_str28_$u7b$$u7b$closure$u7d$$u7d$17h1fe703dd7d6196d1E:
.Lfunc_begin16:
	.cv_func_id 16
	.cv_loc	16 3 482 0
.seh_proc _ZN57_$LT$log..Level$u20$as$u20$core..str..traits..FromStr$GT$8from_str28_$u7b$$u7b$closure$u7d$$u7d$17h1fe703dd7d6196d1E
	subq	$88, %rsp
	.seh_stackalloc 88
	.seh_endprologue
	movq	%rcx, %rax
	movq	%rax, 48(%rsp)
	movq	48(%rsp), %rcx
	movq	(%rcx), %rcx
	movq	%rcx, 56(%rsp)
	movq	%rdx, 64(%rsp)
.Ltmp36:
	movq	(%rdx), %rcx
	movq	8(%rdx), %rdx
	movq	%rcx, 72(%rsp)
	movq	%rdx, 80(%rsp)
.Ltmp37:
	.cv_loc	16 3 482 0
	movq	(%rax), %rax
	movq	(%rax), %r8
	movq	8(%rax), %r9
	callq	_ZN4core3str21_$LT$impl$u20$str$GT$20eq_ignore_ascii_case17h16ddfc38ef1b4156E
	movb	%al, 47(%rsp)
.Ltmp38:
	.cv_loc	16 3 482 0
	movb	47(%rsp), %al
	andb	$1, %al
	movzbl	%al, %eax
	addq	$88, %rsp
	retq
.Ltmp39:
.Lfunc_end16:
	.seh_endproc

	.def	_ZN57_$LT$log..Level$u20$as$u20$core..str..traits..FromStr$GT$8from_str28_$u7b$$u7b$closure$u7d$$u7d$17h7a8e9342edb29c89E;
	.scl	3;
	.type	32;
	.endef
	.section	.text,"xr",one_only,_ZN57_$LT$log..Level$u20$as$u20$core..str..traits..FromStr$GT$8from_str28_$u7b$$u7b$closure$u7d$$u7d$17h7a8e9342edb29c89E
	.p2align	4, 0x90
_ZN57_$LT$log..Level$u20$as$u20$core..str..traits..FromStr$GT$8from_str28_$u7b$$u7b$closure$u7d$$u7d$17h7a8e9342edb29c89E:
.Lfunc_begin17:
	.cv_func_id 17
	.cv_loc	17 3 484 0
.seh_proc _ZN57_$LT$log..Level$u20$as$u20$core..str..traits..FromStr$GT$8from_str28_$u7b$$u7b$closure$u7d$$u7d$17h7a8e9342edb29c89E
	subq	$24, %rsp
	.seh_stackalloc 24
	.seh_endprologue
	movq	%rcx, (%rsp)
	movq	%rdx, 8(%rsp)
.Ltmp40:
	movq	(%rdx), %rax
	movq	%rax, 16(%rsp)
.Ltmp41:
	.cv_loc	17 3 484 0
	cmpq	$0, %rax
	setne	%al
.Ltmp42:
	.cv_loc	17 3 484 0
	andb	$1, %al
	movzbl	%al, %eax
	addq	$24, %rsp
	retq
.Ltmp43:
.Lfunc_end17:
	.seh_endproc

	.def	_ZN57_$LT$log..Level$u20$as$u20$core..str..traits..FromStr$GT$8from_str28_$u7b$$u7b$closure$u7d$$u7d$17h3e0ea173b730a547E;
	.scl	3;
	.type	32;
	.endef
	.section	.text,"xr",one_only,_ZN57_$LT$log..Level$u20$as$u20$core..str..traits..FromStr$GT$8from_str28_$u7b$$u7b$closure$u7d$$u7d$17h3e0ea173b730a547E
	.p2align	4, 0x90
_ZN57_$LT$log..Level$u20$as$u20$core..str..traits..FromStr$GT$8from_str28_$u7b$$u7b$closure$u7d$$u7d$17h3e0ea173b730a547E:
.Lfunc_begin18:
	.cv_func_id 18
	.cv_loc	18 3 485 0
.seh_proc _ZN57_$LT$log..Level$u20$as$u20$core..str..traits..FromStr$GT$8from_str28_$u7b$$u7b$closure$u7d$$u7d$17h3e0ea173b730a547E
	subq	$72, %rsp
	.seh_stackalloc 72
	.seh_endprologue
	movq	%rdx, 40(%rsp)
	movq	%rcx, %rax
	movq	40(%rsp), %rcx
	movq	%rax, 56(%rsp)
	movq	%rcx, 64(%rsp)
.Ltmp44:
	callq	_ZN3log5Level10from_usize17h3b5dd3bbf02ae1deE
	movq	%rax, 48(%rsp)
	movq	48(%rsp), %rcx
	leaq	__unnamed_1(%rip), %rdx
	callq	_ZN4core6option15Option$LT$T$GT$6unwrap17hc53d83d0a44be6d3E
	movq	%rax, 32(%rsp)
	movq	32(%rsp), %rax
	addq	$72, %rsp
	retq
.Ltmp45:
.Lfunc_end18:
	.seh_endproc

	.def	_ZN49_$LT$log..Level$u20$as$u20$core..fmt..Display$GT$3fmt17h765d6a9e328e10d0E;
	.scl	2;
	.type	32;
	.endef
	.section	.text,"xr",one_only,_ZN49_$LT$log..Level$u20$as$u20$core..fmt..Display$GT$3fmt17h765d6a9e328e10d0E
	.globl	_ZN49_$LT$log..Level$u20$as$u20$core..fmt..Display$GT$3fmt17h765d6a9e328e10d0E
	.p2align	4, 0x90
_ZN49_$LT$log..Level$u20$as$u20$core..fmt..Display$GT$3fmt17h765d6a9e328e10d0E:
.Lfunc_begin19:
	.cv_func_id 19
	.cv_loc	19 3 493 0
.seh_proc _ZN49_$LT$log..Level$u20$as$u20$core..fmt..Display$GT$3fmt17h765d6a9e328e10d0E
	subq	$88, %rsp
	.seh_stackalloc 88
	.seh_endprologue
	movq	%rdx, 48(%rsp)
	movq	%rcx, 72(%rsp)
	movq	%rdx, 80(%rsp)
.Ltmp46:
	.cv_loc	19 3 494 0
	callq	_ZN3log5Level6as_str17h34b4fb52ff1c40f9E
	movq	%rax, 56(%rsp)
	movq	%rdx, 64(%rsp)
	movq	64(%rsp), %r8
	movq	56(%rsp), %rdx
	movq	48(%rsp), %rcx
	callq	_ZN4core3fmt9Formatter3pad17h36d5d3411186e94eE
	movb	%al, 47(%rsp)
	.cv_loc	19 3 495 0
	movb	47(%rsp), %al
	andb	$1, %al
	movzbl	%al, %eax
	addq	$88, %rsp
	retq
.Ltmp47:
.Lfunc_end19:
	.seh_endproc

	.def	_ZN3log5Level10from_usize17h3b5dd3bbf02ae1deE;
	.scl	2;
	.type	32;
	.endef
	.section	.text,"xr",one_only,_ZN3log5Level10from_usize17h3b5dd3bbf02ae1deE
	.globl	_ZN3log5Level10from_usize17h3b5dd3bbf02ae1deE
	.p2align	4, 0x90
_ZN3log5Level10from_usize17h3b5dd3bbf02ae1deE:
.Lfunc_begin20:
	.cv_func_id 20
	.cv_loc	20 3 499 0
.seh_proc _ZN3log5Level10from_usize17h3b5dd3bbf02ae1deE
	subq	$24, %rsp
	.seh_stackalloc 24
	.seh_endprologue
	movq	%rcx, %rax
	movq	%rax, 16(%rsp)
.Ltmp48:
	.cv_loc	20 3 500 0
	decq	%rax
	movq	%rax, (%rsp)
	subq	$4, %rax
	ja	.LBB20_1
	movq	(%rsp), %rax
	leaq	.LJTI20_0(%rip), %rcx
	movslq	(%rcx,%rax,4), %rax
	addq	%rcx, %rax
	jmpq	*%rax
.LBB20_1:
	.cv_loc	20 3 506 0
	movq	$0, 8(%rsp)
	jmp	.LBB20_7
.LBB20_2:
	.cv_loc	20 3 501 0
	movq	$1, 8(%rsp)
	jmp	.LBB20_7
.LBB20_3:
	.cv_loc	20 3 502 0
	movq	$2, 8(%rsp)
	jmp	.LBB20_7
.LBB20_4:
	.cv_loc	20 3 503 0
	movq	$3, 8(%rsp)
	jmp	.LBB20_7
.LBB20_5:
	.cv_loc	20 3 504 0
	movq	$4, 8(%rsp)
	jmp	.LBB20_7
.LBB20_6:
	.cv_loc	20 3 505 0
	movq	$5, 8(%rsp)
.LBB20_7:
	.cv_loc	20 3 508 0
	movq	8(%rsp), %rax
	addq	$24, %rsp
	retq
.Ltmp49:
.Lfunc_end20:
	.p2align	2, 0x90
.LJTI20_0:
	.long	.LBB20_2-.LJTI20_0
	.long	.LBB20_3-.LJTI20_0
	.long	.LBB20_4-.LJTI20_0
	.long	.LBB20_5-.LJTI20_0
	.long	.LBB20_6-.LJTI20_0
	.seh_endproc

	.def	_ZN3log5Level6as_str17h34b4fb52ff1c40f9E;
	.scl	2;
	.type	32;
	.endef
	.section	.text,"xr",one_only,_ZN3log5Level6as_str17h34b4fb52ff1c40f9E
	.globl	_ZN3log5Level6as_str17h34b4fb52ff1c40f9E
	.p2align	4, 0x90
_ZN3log5Level6as_str17h34b4fb52ff1c40f9E:
.Lfunc_begin21:
	.cv_func_id 21
	.cv_loc	21 3 525 0
.seh_proc _ZN3log5Level6as_str17h34b4fb52ff1c40f9E
	subq	$56, %rsp
	.seh_stackalloc 56
	.seh_endprologue
	movq	%rcx, 48(%rsp)
.Ltmp50:
	.cv_loc	21 3 526 0
	movq	(%rcx), %rax
	movq	%rax, 40(%rsp)
	cmpq	$6, %rax
	setb	%al
	testb	$1, %al
	jne	.LBB21_1
	jmp	.LBB21_2
.LBB21_1:
	movq	40(%rsp), %rcx
	shlq	$4, %rcx
	leaq	_ZN3log15LOG_LEVEL_NAMES17h741de305603e1efaE(%rip), %rdx
	movq	(%rcx,%rdx), %rax
	movq	8(%rcx,%rdx), %rdx
	.cv_loc	21 3 527 0
	addq	$56, %rsp
	retq
.LBB21_2:
	.cv_loc	21 3 526 0
	movq	40(%rsp), %rcx
	leaq	__unnamed_2(%rip), %r8
	movl	$6, %edx
	callq	_ZN4core9panicking18panic_bounds_check17hc019ce8399341c08E
	ud2
.Ltmp51:
.Lfunc_end21:
	.seh_endproc

	.def	_ZN3log5Level4iter17hc94e91927c910fb0E;
	.scl	2;
	.type	32;
	.endef
	.section	.text,"xr",one_only,_ZN3log5Level4iter17hc94e91927c910fb0E
	.globl	_ZN3log5Level4iter17hc94e91927c910fb0E
	.p2align	4, 0x90
_ZN3log5Level4iter17hc94e91927c910fb0E:
.Lfunc_begin22:
	.cv_func_id 22
	.cv_loc	22 3 543 0
.seh_proc _ZN3log5Level4iter17hc94e91927c910fb0E
	subq	$72, %rsp
	.seh_stackalloc 72
	.seh_endprologue
.Ltmp52:
	.cv_loc	22 3 544 0
	movq	$1, 56(%rsp)
	movq	$6, 64(%rsp)
	movq	56(%rsp), %rcx
	movq	64(%rsp), %rdx
	callq	_ZN4core4iter6traits8iterator8Iterator3map17h54d252812a5ebd06E
	movq	%rax, 40(%rsp)
	movq	%rdx, 48(%rsp)
	.cv_loc	22 3 545 0
	movq	48(%rsp), %rdx
	movq	40(%rsp), %rax
	addq	$72, %rsp
	retq
.Ltmp53:
.Lfunc_end22:
	.seh_endproc

	.def	_ZN63_$LT$log..LevelFilter$u20$as$u20$core..str..traits..FromStr$GT$8from_str17h9d0f73741160f7cbE;
	.scl	2;
	.type	32;
	.endef
	.section	.text,"xr",one_only,_ZN63_$LT$log..LevelFilter$u20$as$u20$core..str..traits..FromStr$GT$8from_str17h9d0f73741160f7cbE
	.globl	_ZN63_$LT$log..LevelFilter$u20$as$u20$core..str..traits..FromStr$GT$8from_str17h9d0f73741160f7cbE
	.p2align	4, 0x90
_ZN63_$LT$log..LevelFilter$u20$as$u20$core..str..traits..FromStr$GT$8from_str17h9d0f73741160f7cbE:
.Lfunc_begin23:
	.cv_func_id 23
	.cv_loc	23 3 589 0
.seh_proc _ZN63_$LT$log..LevelFilter$u20$as$u20$core..str..traits..FromStr$GT$8from_str17h9d0f73741160f7cbE
	subq	$104, %rsp
	.seh_stackalloc 104
	.seh_endprologue
	movq	%rcx, 64(%rsp)
	movq	%rdx, 72(%rsp)
.Ltmp54:
	.cv_loc	23 3 591 0
	leaq	_ZN3log15LOG_LEVEL_NAMES17h741de305603e1efaE(%rip), %rcx
	movl	$6, %edx
	callq	_ZN4core5slice29_$LT$impl$u20$$u5b$T$u5d$$GT$4iter17ha4a4110b68ae4031E
	movq	%rdx, 88(%rsp)
	movq	%rax, 80(%rsp)
	.cv_loc	23 3 593 0
	leaq	64(%rsp), %rax
	movq	%rax, 96(%rsp)
	.cv_loc	23 3 591 0
	movq	96(%rsp), %rdx
	leaq	80(%rsp), %rcx
	callq	_ZN91_$LT$core..slice..iter..Iter$LT$T$GT$$u20$as$u20$core..iter..traits..iterator..Iterator$GT$8position17h379a205d5dedc80fE
	movq	%rax, 48(%rsp)
	movq	%rdx, 56(%rsp)
	movq	56(%rsp), %rdx
	movq	48(%rsp), %rcx
	callq	_ZN4core6option15Option$LT$T$GT$3map17h8bcbc1bc7457fa66E
	movq	%rax, 40(%rsp)
	.cv_loc	23 3 590 0
	movq	40(%rsp), %rcx
	callq	_ZN3log5ok_or17h63e7b9d1b399f82eE
	movq	%rax, 32(%rsp)
	.cv_loc	23 3 597 0
	movq	32(%rsp), %rax
	addq	$104, %rsp
	retq
.Ltmp55:
.Lfunc_end23:
	.seh_endproc

	.def	_ZN63_$LT$log..LevelFilter$u20$as$u20$core..str..traits..FromStr$GT$8from_str28_$u7b$$u7b$closure$u7d$$u7d$17hc5ee5a063dbc20acE;
	.scl	3;
	.type	32;
	.endef
	.section	.text,"xr",one_only,_ZN63_$LT$log..LevelFilter$u20$as$u20$core..str..traits..FromStr$GT$8from_str28_$u7b$$u7b$closure$u7d$$u7d$17hc5ee5a063dbc20acE
	.p2align	4, 0x90
_ZN63_$LT$log..LevelFilter$u20$as$u20$core..str..traits..FromStr$GT$8from_str28_$u7b$$u7b$closure$u7d$$u7d$17hc5ee5a063dbc20acE:
.Lfunc_begin24:
	.cv_func_id 24
	.cv_loc	24 3 593 0
.seh_proc _ZN63_$LT$log..LevelFilter$u20$as$u20$core..str..traits..FromStr$GT$8from_str28_$u7b$$u7b$closure$u7d$$u7d$17hc5ee5a063dbc20acE
	subq	$88, %rsp
	.seh_stackalloc 88
	.seh_endprologue
	movq	%rcx, %rax
	movq	%rax, 48(%rsp)
	movq	48(%rsp), %rcx
	movq	(%rcx), %rcx
	movq	%rcx, 56(%rsp)
	movq	%rdx, 64(%rsp)
.Ltmp56:
	movq	(%rdx), %rcx
	movq	8(%rdx), %rdx
	movq	%rcx, 72(%rsp)
	movq	%rdx, 80(%rsp)
.Ltmp57:
	.cv_loc	24 3 593 0
	movq	(%rax), %rax
	movq	(%rax), %r8
	movq	8(%rax), %r9
	callq	_ZN4core3str21_$LT$impl$u20$str$GT$20eq_ignore_ascii_case17h16ddfc38ef1b4156E
	movb	%al, 47(%rsp)
.Ltmp58:
	.cv_loc	24 3 593 0
	movb	47(%rsp), %al
	andb	$1, %al
	movzbl	%al, %eax
	addq	$88, %rsp
	retq
.Ltmp59:
.Lfunc_end24:
	.seh_endproc

	.def	_ZN63_$LT$log..LevelFilter$u20$as$u20$core..str..traits..FromStr$GT$8from_str28_$u7b$$u7b$closure$u7d$$u7d$17h9cc13f589aac4f70E;
	.scl	3;
	.type	32;
	.endef
	.section	.text,"xr",one_only,_ZN63_$LT$log..LevelFilter$u20$as$u20$core..str..traits..FromStr$GT$8from_str28_$u7b$$u7b$closure$u7d$$u7d$17h9cc13f589aac4f70E
	.p2align	4, 0x90
_ZN63_$LT$log..LevelFilter$u20$as$u20$core..str..traits..FromStr$GT$8from_str28_$u7b$$u7b$closure$u7d$$u7d$17h9cc13f589aac4f70E:
.Lfunc_begin25:
	.cv_func_id 25
	.cv_loc	25 3 594 0
.seh_proc _ZN63_$LT$log..LevelFilter$u20$as$u20$core..str..traits..FromStr$GT$8from_str28_$u7b$$u7b$closure$u7d$$u7d$17h9cc13f589aac4f70E
	subq	$72, %rsp
	.seh_stackalloc 72
	.seh_endprologue
	movq	%rcx, 64(%rsp)
.Ltmp60:
	callq	_ZN3log11LevelFilter10from_usize17h4055ef2ab977630fE
	movq	%rax, 48(%rsp)
	movq	48(%rsp), %rcx
	leaq	__unnamed_3(%rip), %rdx
	callq	_ZN4core6option15Option$LT$T$GT$6unwrap17h9cf46cd6a1af00caE
	movq	%rax, 40(%rsp)
	movq	40(%rsp), %rax
	addq	$72, %rsp
	retq
.Ltmp61:
.Lfunc_end25:
	.seh_endproc

	.def	_ZN55_$LT$log..LevelFilter$u20$as$u20$core..fmt..Display$GT$3fmt17h5682127497483933E;
	.scl	2;
	.type	32;
	.endef
	.section	.text,"xr",one_only,_ZN55_$LT$log..LevelFilter$u20$as$u20$core..fmt..Display$GT$3fmt17h5682127497483933E
	.globl	_ZN55_$LT$log..LevelFilter$u20$as$u20$core..fmt..Display$GT$3fmt17h5682127497483933E
	.p2align	4, 0x90
_ZN55_$LT$log..LevelFilter$u20$as$u20$core..fmt..Display$GT$3fmt17h5682127497483933E:
.Lfunc_begin26:
	.cv_func_id 26
	.cv_loc	26 3 601 0
.seh_proc _ZN55_$LT$log..LevelFilter$u20$as$u20$core..fmt..Display$GT$3fmt17h5682127497483933E
	subq	$88, %rsp
	.seh_stackalloc 88
	.seh_endprologue
	movq	%rdx, 48(%rsp)
	movq	%rcx, 72(%rsp)
	movq	%rdx, 80(%rsp)
.Ltmp62:
	.cv_loc	26 3 602 0
	callq	_ZN3log11LevelFilter6as_str17h5b8570084b9899a9E
	movq	%rax, 56(%rsp)
	movq	%rdx, 64(%rsp)
	movq	64(%rsp), %r8
	movq	56(%rsp), %rdx
	movq	48(%rsp), %rcx
	callq	_ZN4core3fmt9Formatter3pad17h36d5d3411186e94eE
	movb	%al, 47(%rsp)
	.cv_loc	26 3 603 0
	movb	47(%rsp), %al
	andb	$1, %al
	movzbl	%al, %eax
	addq	$88, %rsp
	retq
.Ltmp63:
.Lfunc_end26:
	.seh_endproc

	.def	_ZN3log11LevelFilter10from_usize17h4055ef2ab977630fE;
	.scl	2;
	.type	32;
	.endef
	.section	.text,"xr",one_only,_ZN3log11LevelFilter10from_usize17h4055ef2ab977630fE
	.globl	_ZN3log11LevelFilter10from_usize17h4055ef2ab977630fE
	.p2align	4, 0x90
_ZN3log11LevelFilter10from_usize17h4055ef2ab977630fE:
.Lfunc_begin27:
	.cv_func_id 27
	.cv_loc	27 3 607 0
.seh_proc _ZN3log11LevelFilter10from_usize17h4055ef2ab977630fE
	subq	$24, %rsp
	.seh_stackalloc 24
	.seh_endprologue
	movq	%rcx, 16(%rsp)
.Ltmp64:
	.cv_loc	27 3 608 0
	movq	%rcx, %rax
	movq	%rax, (%rsp)
	subq	$5, %rcx
	ja	.LBB27_1
	movq	(%rsp), %rax
	leaq	.LJTI27_0(%rip), %rcx
	movslq	(%rcx,%rax,4), %rax
	addq	%rcx, %rax
	jmpq	*%rax
.LBB27_1:
	.cv_loc	27 3 615 0
	movq	$6, 8(%rsp)
	jmp	.LBB27_8
.LBB27_2:
	.cv_loc	27 3 609 0
	movq	$0, 8(%rsp)
	jmp	.LBB27_8
.LBB27_3:
	.cv_loc	27 3 610 0
	movq	$1, 8(%rsp)
	jmp	.LBB27_8
.LBB27_4:
	.cv_loc	27 3 611 0
	movq	$2, 8(%rsp)
	jmp	.LBB27_8
.LBB27_5:
	.cv_loc	27 3 612 0
	movq	$3, 8(%rsp)
	jmp	.LBB27_8
.LBB27_6:
	.cv_loc	27 3 613 0
	movq	$4, 8(%rsp)
	jmp	.LBB27_8
.LBB27_7:
	.cv_loc	27 3 614 0
	movq	$5, 8(%rsp)
.LBB27_8:
	.cv_loc	27 3 617 0
	movq	8(%rsp), %rax
	addq	$24, %rsp
	retq
.Ltmp65:
.Lfunc_end27:
	.p2align	2, 0x90
.LJTI27_0:
	.long	.LBB27_2-.LJTI27_0
	.long	.LBB27_3-.LJTI27_0
	.long	.LBB27_4-.LJTI27_0
	.long	.LBB27_5-.LJTI27_0
	.long	.LBB27_6-.LJTI27_0
	.long	.LBB27_7-.LJTI27_0
	.seh_endproc

	.def	_ZN3log11LevelFilter6as_str17h5b8570084b9899a9E;
	.scl	2;
	.type	32;
	.endef
	.section	.text,"xr",one_only,_ZN3log11LevelFilter6as_str17h5b8570084b9899a9E
	.globl	_ZN3log11LevelFilter6as_str17h5b8570084b9899a9E
	.p2align	4, 0x90
_ZN3log11LevelFilter6as_str17h5b8570084b9899a9E:
.Lfunc_begin28:
	.cv_func_id 28
	.cv_loc	28 3 636 0
.seh_proc _ZN3log11LevelFilter6as_str17h5b8570084b9899a9E
	subq	$56, %rsp
	.seh_stackalloc 56
	.seh_endprologue
	movq	%rcx, 48(%rsp)
.Ltmp66:
	.cv_loc	28 3 637 0
	movq	(%rcx), %rax
	movq	%rax, 40(%rsp)
	cmpq	$6, %rax
	setb	%al
	testb	$1, %al
	jne	.LBB28_1
	jmp	.LBB28_2
.LBB28_1:
	movq	40(%rsp), %rcx
	shlq	$4, %rcx
	leaq	_ZN3log15LOG_LEVEL_NAMES17h741de305603e1efaE(%rip), %rdx
	movq	(%rcx,%rdx), %rax
	movq	8(%rcx,%rdx), %rdx
	.cv_loc	28 3 638 0
	addq	$56, %rsp
	retq
.LBB28_2:
	.cv_loc	28 3 637 0
	movq	40(%rsp), %rcx
	leaq	__unnamed_4(%rip), %r8
	movl	$6, %edx
	callq	_ZN4core9panicking18panic_bounds_check17hc019ce8399341c08E
	ud2
.Ltmp67:
.Lfunc_end28:
	.seh_endproc

	.def	_ZN3log11LevelFilter4iter17hbca1ebe0482814bcE;
	.scl	2;
	.type	32;
	.endef
	.section	.text,"xr",one_only,_ZN3log11LevelFilter4iter17hbca1ebe0482814bcE
	.globl	_ZN3log11LevelFilter4iter17hbca1ebe0482814bcE
	.p2align	4, 0x90
_ZN3log11LevelFilter4iter17hbca1ebe0482814bcE:
.Lfunc_begin29:
	.cv_func_id 29
	.cv_loc	29 3 654 0
.seh_proc _ZN3log11LevelFilter4iter17hbca1ebe0482814bcE
	subq	$72, %rsp
	.seh_stackalloc 72
	.seh_endprologue
.Ltmp68:
	.cv_loc	29 3 655 0
	movq	$0, 56(%rsp)
	movq	$6, 64(%rsp)
	movq	56(%rsp), %rcx
	movq	64(%rsp), %rdx
	callq	_ZN4core4iter6traits8iterator8Iterator3map17h227fdfb5aef020d9E
	movq	%rax, 40(%rsp)
	movq	%rdx, 48(%rsp)
	.cv_loc	29 3 656 0
	movq	48(%rsp), %rdx
	movq	40(%rsp), %rax
	addq	$72, %rsp
	retq
.Ltmp69:
.Lfunc_end29:
	.seh_endproc

	.def	_ZN3log6Record7builder17h0cec79e4bbcfa14bE;
	.scl	3;
	.type	32;
	.endef
	.section	.text,"xr",one_only,_ZN3log6Record7builder17h0cec79e4bbcfa14bE
	.p2align	4, 0x90
_ZN3log6Record7builder17h0cec79e4bbcfa14bE:
.Lfunc_begin30:
	.cv_func_id 30
	.cv_loc	30 3 751 0
.seh_proc _ZN3log6Record7builder17h0cec79e4bbcfa14bE
	subq	$40, %rsp
	.seh_stackalloc 40
	.seh_endprologue
	movq	%rcx, %rax
	movq	%rax, 32(%rsp)
.Ltmp70:
	.cv_loc	30 3 752 0
	callq	_ZN3log13RecordBuilder3new17h86b6fa7590880364E
	.cv_loc	30 3 753 0
	movq	32(%rsp), %rax
	addq	$40, %rsp
	retq
.Ltmp71:
.Lfunc_end30:
	.seh_endproc

	.def	_ZN3log13RecordBuilder3new17h86b6fa7590880364E;
	.scl	3;
	.type	32;
	.endef
	.section	.text,"xr",one_only,_ZN3log13RecordBuilder3new17h86b6fa7590880364E
	.p2align	4, 0x90
_ZN3log13RecordBuilder3new17h86b6fa7590880364E:
.Lfunc_begin31:
	.cv_func_id 31
	.cv_loc	31 3 900 0
.seh_proc _ZN3log13RecordBuilder3new17h86b6fa7590880364E
	subq	$344, %rsp
	.seh_stackalloc 344
	.seh_endprologue
	movq	%rcx, 48(%rsp)
	movq	%rcx, 56(%rsp)
.Ltmp72:
	.cv_loc	31 3 903 0
	leaq	192(%rsp), %rcx
	leaq	__unnamed_5(%rip), %r9
	movq	%r9, %rdx
	xorl	%eax, %eax
	movl	%eax, %r8d
	movq	$0, 32(%rsp)
	callq	_ZN4core3fmt9Arguments6new_v117h98042da52cfe3bd8E
	.cv_loc	31 3 904 0
	leaq	264(%rsp), %rcx
	callq	_ZN3log8Metadata7builder17h97151ad88dcb5b2dE
	leaq	240(%rsp), %rcx
	leaq	264(%rsp), %rdx
	callq	_ZN3log15MetadataBuilder5build17h5f998a9102da1bd7E
	.cv_loc	31 3 905 0
	movq	$2, 288(%rsp)
	.cv_loc	31 3 906 0
	movq	$2, 312(%rsp)
	.cv_loc	31 3 907 0
	movl	$0, 336(%rsp)
	.cv_loc	31 3 902 0
	movq	240(%rsp), %rax
	movq	%rax, 64(%rsp)
	movq	248(%rsp), %rax
	movq	%rax, 72(%rsp)
	movq	256(%rsp), %rax
	movq	%rax, 80(%rsp)
	leaq	64(%rsp), %rcx
	addq	$24, %rcx
	leaq	192(%rsp), %rdx
	movl	$48, %r8d
	callq	memcpy
	movq	48(%rsp), %rcx
	movq	288(%rsp), %rax
	movq	%rax, 136(%rsp)
	movq	296(%rsp), %rax
	movq	%rax, 144(%rsp)
	movq	304(%rsp), %rax
	movq	%rax, 152(%rsp)
	movq	312(%rsp), %rax
	movq	%rax, 160(%rsp)
	movq	320(%rsp), %rax
	movq	%rax, 168(%rsp)
	movq	328(%rsp), %rax
	movq	%rax, 176(%rsp)
	movl	336(%rsp), %edx
	movl	340(%rsp), %eax
	movl	%edx, 184(%rsp)
	movl	%eax, 188(%rsp)
	.cv_loc	31 3 901 0
	leaq	64(%rsp), %rdx
	movl	$128, %r8d
	callq	memcpy
	movq	56(%rsp), %rax
	.cv_loc	31 3 912 0
	addq	$344, %rsp
	retq
.Ltmp73:
.Lfunc_end31:
	.seh_endproc

	.def	_ZN3log13RecordBuilder4args17h67a55e5f281b5607E;
	.scl	3;
	.type	32;
	.endef
	.section	.text,"xr",one_only,_ZN3log13RecordBuilder4args17h67a55e5f281b5607E
	.p2align	4, 0x90
_ZN3log13RecordBuilder4args17h67a55e5f281b5607E:
.Lfunc_begin32:
	.cv_func_id 32
	.cv_loc	32 3 916 0
.seh_proc _ZN3log13RecordBuilder4args17h67a55e5f281b5607E
	subq	$104, %rsp
	.seh_stackalloc 104
	.seh_endprologue
	movq	%rcx, 40(%rsp)
	movq	%rcx, 96(%rsp)
.Ltmp74:
	.cv_loc	32 3 917 0
	leaq	48(%rsp), %rcx
	movl	$48, %r8d
	callq	memcpy
.Ltmp75:
	movq	40(%rsp), %rcx
	addq	$24, %rcx
	leaq	48(%rsp), %rdx
	movl	$48, %r8d
	callq	memcpy
	movq	40(%rsp), %rax
	.cv_loc	32 3 919 0
	addq	$104, %rsp
	retq
.Ltmp76:
.Lfunc_end32:
	.seh_endproc

	.def	_ZN3log13RecordBuilder5level17h87c352b0537e3cd4E;
	.scl	3;
	.type	32;
	.endef
	.section	.text,"xr",one_only,_ZN3log13RecordBuilder5level17h87c352b0537e3cd4E
	.p2align	4, 0x90
_ZN3log13RecordBuilder5level17h87c352b0537e3cd4E:
.Lfunc_begin33:
	.cv_func_id 33
	.cv_loc	33 3 930 0
.seh_proc _ZN3log13RecordBuilder5level17h87c352b0537e3cd4E
	subq	$16, %rsp
	.seh_stackalloc 16
	.seh_endprologue
	movq	%rcx, %rax
	movq	%rax, (%rsp)
	movq	%rdx, 8(%rsp)
.Ltmp77:
	.cv_loc	33 3 931 0
	movq	%rdx, (%rax)
	.cv_loc	33 3 933 0
	addq	$16, %rsp
	retq
.Ltmp78:
.Lfunc_end33:
	.seh_endproc

	.def	_ZN3log13RecordBuilder6target17h9aebef5093b44188E;
	.scl	3;
	.type	32;
	.endef
	.section	.text,"xr",one_only,_ZN3log13RecordBuilder6target17h9aebef5093b44188E
	.p2align	4, 0x90
_ZN3log13RecordBuilder6target17h9aebef5093b44188E:
.Lfunc_begin34:
	.cv_func_id 34
	.cv_loc	34 3 937 0
.seh_proc _ZN3log13RecordBuilder6target17h9aebef5093b44188E
	subq	$24, %rsp
	.seh_stackalloc 24
	.seh_endprologue
	movq	%rcx, %rax
	movq	%rax, (%rsp)
	movq	%rdx, 8(%rsp)
	movq	%r8, 16(%rsp)
.Ltmp79:
	.cv_loc	34 3 938 0
	movq	%rdx, 8(%rax)
	movq	%r8, 16(%rax)
	.cv_loc	34 3 940 0
	addq	$24, %rsp
	retq
.Ltmp80:
.Lfunc_end34:
	.seh_endproc

	.def	_ZN3log13RecordBuilder18module_path_static17h2433c535167080fdE;
	.scl	3;
	.type	32;
	.endef
	.section	.text,"xr",one_only,_ZN3log13RecordBuilder18module_path_static17h2433c535167080fdE
	.p2align	4, 0x90
_ZN3log13RecordBuilder18module_path_static17h2433c535167080fdE:
.Lfunc_begin35:
	.cv_func_id 35
	.cv_loc	35 3 951 0
.seh_proc _ZN3log13RecordBuilder18module_path_static17h2433c535167080fdE
	subq	$88, %rsp
	.seh_stackalloc 88
	.seh_endprologue
	movq	%rcx, 32(%rsp)
	movq	%rcx, 64(%rsp)
	movq	%rdx, 72(%rsp)
	movq	%r8, 80(%rsp)
.Ltmp81:
	.cv_loc	35 3 952 0
	leaq	40(%rsp), %rcx
	callq	_ZN4core6option15Option$LT$T$GT$3map17h4526c32493b85c10E
	movq	32(%rsp), %rax
	movq	40(%rsp), %rcx
	movq	%rcx, 72(%rax)
	movq	48(%rsp), %rcx
	movq	%rcx, 80(%rax)
	movq	56(%rsp), %rcx
	movq	%rcx, 88(%rax)
	.cv_loc	35 3 954 0
	addq	$88, %rsp
	retq
.Ltmp82:
.Lfunc_end35:
	.seh_endproc

	.def	_ZN3log13RecordBuilder11file_static17ha9759faad50a177aE;
	.scl	3;
	.type	32;
	.endef
	.section	.text,"xr",one_only,_ZN3log13RecordBuilder11file_static17ha9759faad50a177aE
	.p2align	4, 0x90
_ZN3log13RecordBuilder11file_static17ha9759faad50a177aE:
.Lfunc_begin36:
	.cv_func_id 36
	.cv_loc	36 3 965 0
.seh_proc _ZN3log13RecordBuilder11file_static17ha9759faad50a177aE
	subq	$88, %rsp
	.seh_stackalloc 88
	.seh_endprologue
	movq	%rcx, 32(%rsp)
	movq	%rcx, 64(%rsp)
	movq	%rdx, 72(%rsp)
	movq	%r8, 80(%rsp)
.Ltmp83:
	.cv_loc	36 3 966 0
	leaq	40(%rsp), %rcx
	callq	_ZN4core6option15Option$LT$T$GT$3map17h4526c32493b85c10E
	movq	32(%rsp), %rax
	movq	40(%rsp), %rcx
	movq	%rcx, 96(%rax)
	movq	48(%rsp), %rcx
	movq	%rcx, 104(%rax)
	movq	56(%rsp), %rcx
	movq	%rcx, 112(%rax)
	.cv_loc	36 3 968 0
	addq	$88, %rsp
	retq
.Ltmp84:
.Lfunc_end36:
	.seh_endproc

	.def	_ZN3log13RecordBuilder4line17h3cecb1136ea79e52E;
	.scl	3;
	.type	32;
	.endef
	.section	.text,"xr",one_only,_ZN3log13RecordBuilder4line17h3cecb1136ea79e52E
	.p2align	4, 0x90
_ZN3log13RecordBuilder4line17h3cecb1136ea79e52E:
.Lfunc_begin37:
	.cv_func_id 37
	.cv_loc	37 3 972 0
.seh_proc _ZN3log13RecordBuilder4line17h3cecb1136ea79e52E
	subq	$16, %rsp
	.seh_stackalloc 16
	.seh_endprologue
	movq	%rcx, %rax
	movq	%rax, (%rsp)
	movl	%edx, 8(%rsp)
	movl	%r8d, 12(%rsp)
.Ltmp85:
	.cv_loc	37 3 973 0
	movl	%edx, 120(%rax)
	movl	%r8d, 124(%rax)
	.cv_loc	37 3 975 0
	addq	$16, %rsp
	retq
.Ltmp86:
.Lfunc_end37:
	.seh_endproc

	.def	_ZN3log13RecordBuilder5build17h63440d0e0c047e02E;
	.scl	3;
	.type	32;
	.endef
	.section	.text,"xr",one_only,_ZN3log13RecordBuilder5build17h63440d0e0c047e02E
	.p2align	4, 0x90
_ZN3log13RecordBuilder5build17h63440d0e0c047e02E:
.Lfunc_begin38:
	.cv_func_id 38
	.cv_loc	38 3 987 0
.seh_proc _ZN3log13RecordBuilder5build17h63440d0e0c047e02E
	subq	$56, %rsp
	.seh_stackalloc 56
	.seh_endprologue
	movq	%rcx, %rax
	movq	%rax, 40(%rsp)
	movq	%rdx, 48(%rsp)
.Ltmp87:
	.cv_loc	38 3 988 0
	callq	_ZN50_$LT$log..Record$u20$as$u20$core..clone..Clone$GT$5clone17h21b213f7cbf47359E
	.cv_loc	38 3 989 0
	movq	40(%rsp), %rax
	addq	$56, %rsp
	retq
.Ltmp88:
.Lfunc_end38:
	.seh_endproc

	.def	_ZN61_$LT$log..RecordBuilder$u20$as$u20$core..default..Default$GT$7default17hec91b926a419e6b1E;
	.scl	2;
	.type	32;
	.endef
	.section	.text,"xr",one_only,_ZN61_$LT$log..RecordBuilder$u20$as$u20$core..default..Default$GT$7default17hec91b926a419e6b1E
	.globl	_ZN61_$LT$log..RecordBuilder$u20$as$u20$core..default..Default$GT$7default17hec91b926a419e6b1E
	.p2align	4, 0x90
_ZN61_$LT$log..RecordBuilder$u20$as$u20$core..default..Default$GT$7default17hec91b926a419e6b1E:
.Lfunc_begin39:
	.cv_func_id 39
	.cv_loc	39 3 993 0
.seh_proc _ZN61_$LT$log..RecordBuilder$u20$as$u20$core..default..Default$GT$7default17hec91b926a419e6b1E
	subq	$40, %rsp
	.seh_stackalloc 40
	.seh_endprologue
	movq	%rcx, %rax
	movq	%rax, 32(%rsp)
.Ltmp89:
	.cv_loc	39 3 994 0
	callq	_ZN3log13RecordBuilder3new17h86b6fa7590880364E
	.cv_loc	39 3 995 0
	movq	32(%rsp), %rax
	addq	$40, %rsp
	retq
.Ltmp90:
.Lfunc_end39:
	.seh_endproc

	.def	_ZN3log8Metadata7builder17h97151ad88dcb5b2dE;
	.scl	3;
	.type	32;
	.endef
	.section	.text,"xr",one_only,_ZN3log8Metadata7builder17h97151ad88dcb5b2dE
	.p2align	4, 0x90
_ZN3log8Metadata7builder17h97151ad88dcb5b2dE:
.Lfunc_begin40:
	.cv_func_id 40
	.cv_loc	40 3 1045 0
.seh_proc _ZN3log8Metadata7builder17h97151ad88dcb5b2dE
	subq	$40, %rsp
	.seh_stackalloc 40
	.seh_endprologue
	movq	%rcx, %rax
	movq	%rax, 32(%rsp)
.Ltmp91:
	.cv_loc	40 3 1046 0
	callq	_ZN3log15MetadataBuilder3new17h08ae4b235190c40eE
	.cv_loc	40 3 1047 0
	movq	32(%rsp), %rax
	addq	$40, %rsp
	retq
.Ltmp92:
.Lfunc_end40:
	.seh_endproc

	.def	_ZN3log15MetadataBuilder3new17h08ae4b235190c40eE;
	.scl	3;
	.type	32;
	.endef
	.section	.text,"xr",one_only,_ZN3log15MetadataBuilder3new17h08ae4b235190c40eE
	.p2align	4, 0x90
_ZN3log15MetadataBuilder3new17h08ae4b235190c40eE:
.Lfunc_begin41:
	.cv_func_id 41
	.cv_loc	41 3 1091 0
.seh_proc _ZN3log15MetadataBuilder3new17h08ae4b235190c40eE
	subq	$24, %rsp
	.seh_stackalloc 24
	.seh_endprologue
	movq	%rcx, %rax
.Ltmp93:
	.cv_loc	41 3 1093 0
	movq	$3, (%rsp)
	leaq	__unnamed_5(%rip), %rdx
	movq	%rdx, 8(%rsp)
	movq	$0, 16(%rsp)
	.cv_loc	41 3 1092 0
	movq	(%rsp), %rdx
	movq	%rdx, (%rcx)
	movq	8(%rsp), %rdx
	movq	%rdx, 8(%rcx)
	movq	16(%rsp), %rdx
	movq	%rdx, 16(%rcx)
	.cv_loc	41 3 1098 0
	addq	$24, %rsp
	retq
.Ltmp94:
.Lfunc_end41:
	.seh_endproc

	.def	_ZN3log15MetadataBuilder5level17h6ea94581cedd8ab7E;
	.scl	3;
	.type	32;
	.endef
	.section	.text,"xr",one_only,_ZN3log15MetadataBuilder5level17h6ea94581cedd8ab7E
	.p2align	4, 0x90
_ZN3log15MetadataBuilder5level17h6ea94581cedd8ab7E:
.Lfunc_begin42:
	.cv_func_id 42
	.cv_loc	42 3 1102 0
.seh_proc _ZN3log15MetadataBuilder5level17h6ea94581cedd8ab7E
	subq	$16, %rsp
	.seh_stackalloc 16
	.seh_endprologue
	movq	%rcx, %rax
	movq	%rax, (%rsp)
	movq	%rdx, 8(%rsp)
.Ltmp95:
	.cv_loc	42 3 1103 0
	movq	%rdx, (%rax)
	.cv_loc	42 3 1105 0
	addq	$16, %rsp
	retq
.Ltmp96:
.Lfunc_end42:
	.seh_endproc

	.def	_ZN3log15MetadataBuilder6target17hdde1457bb55a7eb7E;
	.scl	3;
	.type	32;
	.endef
	.section	.text,"xr",one_only,_ZN3log15MetadataBuilder6target17hdde1457bb55a7eb7E
	.p2align	4, 0x90
_ZN3log15MetadataBuilder6target17hdde1457bb55a7eb7E:
.Lfunc_begin43:
	.cv_func_id 43
	.cv_loc	43 3 1109 0
.seh_proc _ZN3log15MetadataBuilder6target17hdde1457bb55a7eb7E
	subq	$24, %rsp
	.seh_stackalloc 24
	.seh_endprologue
	movq	%rcx, %rax
	movq	%rax, (%rsp)
	movq	%rdx, 8(%rsp)
	movq	%r8, 16(%rsp)
.Ltmp97:
	.cv_loc	43 3 1110 0
	movq	%rdx, 8(%rax)
	movq	%r8, 16(%rax)
	.cv_loc	43 3 1112 0
	addq	$24, %rsp
	retq
.Ltmp98:
.Lfunc_end43:
	.seh_endproc

	.def	_ZN3log15MetadataBuilder5build17h5f998a9102da1bd7E;
	.scl	3;
	.type	32;
	.endef
	.section	.text,"xr",one_only,_ZN3log15MetadataBuilder5build17h5f998a9102da1bd7E
	.p2align	4, 0x90
_ZN3log15MetadataBuilder5build17h5f998a9102da1bd7E:
.Lfunc_begin44:
	.cv_func_id 44
	.cv_loc	44 3 1116 0
.seh_proc _ZN3log15MetadataBuilder5build17h5f998a9102da1bd7E
	subq	$56, %rsp
	.seh_stackalloc 56
	.seh_endprologue
	movq	%rcx, %rax
	movq	%rax, 40(%rsp)
	movq	%rdx, 48(%rsp)
.Ltmp99:
	.cv_loc	44 3 1117 0
	callq	_ZN52_$LT$log..Metadata$u20$as$u20$core..clone..Clone$GT$5clone17h7f171977d4cc8026E
	.cv_loc	44 3 1118 0
	movq	40(%rsp), %rax
	addq	$56, %rsp
	retq
.Ltmp100:
.Lfunc_end44:
	.seh_endproc

	.def	_ZN63_$LT$log..MetadataBuilder$u20$as$u20$core..default..Default$GT$7default17h4ad01fba50cdec3dE;
	.scl	2;
	.type	32;
	.endef
	.section	.text,"xr",one_only,_ZN63_$LT$log..MetadataBuilder$u20$as$u20$core..default..Default$GT$7default17h4ad01fba50cdec3dE
	.globl	_ZN63_$LT$log..MetadataBuilder$u20$as$u20$core..default..Default$GT$7default17h4ad01fba50cdec3dE
	.p2align	4, 0x90
_ZN63_$LT$log..MetadataBuilder$u20$as$u20$core..default..Default$GT$7default17h4ad01fba50cdec3dE:
.Lfunc_begin45:
	.cv_func_id 45
	.cv_loc	45 3 1122 0
.seh_proc _ZN63_$LT$log..MetadataBuilder$u20$as$u20$core..default..Default$GT$7default17h4ad01fba50cdec3dE
	subq	$40, %rsp
	.seh_stackalloc 40
	.seh_endprologue
	movq	%rcx, %rax
	movq	%rax, 32(%rsp)
.Ltmp101:
	.cv_loc	45 3 1123 0
	callq	_ZN3log15MetadataBuilder3new17h08ae4b235190c40eE
	.cv_loc	45 3 1124 0
	movq	32(%rsp), %rax
	addq	$40, %rsp
	retq
.Ltmp102:
.Lfunc_end45:
	.seh_endproc

	.def	_ZN43_$LT$log..NopLogger$u20$as$u20$log..Log$GT$7enabled17hdce99353ddc36530E;
	.scl	2;
	.type	32;
	.endef
	.section	.text,"xr",one_only,_ZN43_$LT$log..NopLogger$u20$as$u20$log..Log$GT$7enabled17hdce99353ddc36530E
	.globl	_ZN43_$LT$log..NopLogger$u20$as$u20$log..Log$GT$7enabled17hdce99353ddc36530E
	.p2align	4, 0x90
_ZN43_$LT$log..NopLogger$u20$as$u20$log..Log$GT$7enabled17hdce99353ddc36530E:
.Lfunc_begin46:
	.cv_func_id 46
	.cv_loc	46 3 1160 0
.seh_proc _ZN43_$LT$log..NopLogger$u20$as$u20$log..Log$GT$7enabled17hdce99353ddc36530E
	subq	$16, %rsp
	.seh_stackalloc 16
	.seh_endprologue
	movq	%rcx, (%rsp)
	movq	%rdx, 8(%rsp)
.Ltmp103:
	.cv_loc	46 3 1162 0
	xorl	%eax, %eax
	andb	$1, %al
	movzbl	%al, %eax
	addq	$16, %rsp
	retq
.Ltmp104:
.Lfunc_end46:
	.seh_endproc

	.def	_ZN43_$LT$log..NopLogger$u20$as$u20$log..Log$GT$3log17h47435262bf7e785bE;
	.scl	2;
	.type	32;
	.endef
	.section	.text,"xr",one_only,_ZN43_$LT$log..NopLogger$u20$as$u20$log..Log$GT$3log17h47435262bf7e785bE
	.globl	_ZN43_$LT$log..NopLogger$u20$as$u20$log..Log$GT$3log17h47435262bf7e785bE
	.p2align	4, 0x90
_ZN43_$LT$log..NopLogger$u20$as$u20$log..Log$GT$3log17h47435262bf7e785bE:
.Lfunc_begin47:
	.cv_func_id 47
	.cv_loc	47 3 1164 0
.seh_proc _ZN43_$LT$log..NopLogger$u20$as$u20$log..Log$GT$3log17h47435262bf7e785bE
	subq	$16, %rsp
	.seh_stackalloc 16
	.seh_endprologue
	movq	%rcx, (%rsp)
	movq	%rdx, 8(%rsp)
.Ltmp105:
	addq	$16, %rsp
	retq
.Ltmp106:
.Lfunc_end47:
	.seh_endproc

	.def	_ZN43_$LT$log..NopLogger$u20$as$u20$log..Log$GT$5flush17h851ae8dffd814bf6E;
	.scl	2;
	.type	32;
	.endef
	.section	.text,"xr",one_only,_ZN43_$LT$log..NopLogger$u20$as$u20$log..Log$GT$5flush17h851ae8dffd814bf6E
	.globl	_ZN43_$LT$log..NopLogger$u20$as$u20$log..Log$GT$5flush17h851ae8dffd814bf6E
	.p2align	4, 0x90
_ZN43_$LT$log..NopLogger$u20$as$u20$log..Log$GT$5flush17h851ae8dffd814bf6E:
.Lfunc_begin48:
	.cv_func_id 48
	.cv_loc	48 3 1165 0
.seh_proc _ZN43_$LT$log..NopLogger$u20$as$u20$log..Log$GT$5flush17h851ae8dffd814bf6E
	pushq	%rax
	.seh_stackalloc 8
	.seh_endprologue
	movq	%rcx, (%rsp)
.Ltmp107:
	popq	%rax
	retq
.Ltmp108:
.Lfunc_end48:
	.seh_endproc

	.def	_ZN3log10set_logger17hd7b4c5cc2daf2efdE;
	.scl	2;
	.type	32;
	.endef
	.section	.text,"xr",one_only,_ZN3log10set_logger17hd7b4c5cc2daf2efdE
	.globl	_ZN3log10set_logger17hd7b4c5cc2daf2efdE
	.p2align	4, 0x90
_ZN3log10set_logger17hd7b4c5cc2daf2efdE:
.Lfunc_begin49:
	.cv_func_id 49
	.cv_loc	49 3 1352 0
.seh_proc _ZN3log10set_logger17hd7b4c5cc2daf2efdE
	subq	$72, %rsp
	.seh_stackalloc 72
	.seh_endprologue
	movq	%rcx, 48(%rsp)
	movq	%rdx, 56(%rsp)
.Ltmp109:
	.cv_loc	49 3 1353 0
	leaq	48(%rsp), %rax
	movq	%rax, 64(%rsp)
	movq	64(%rsp), %rcx
	callq	_ZN3log16set_logger_inner17h47cc84107dba7b1eE
	movb	%al, 47(%rsp)
	.cv_loc	49 3 1354 0
	movb	47(%rsp), %al
	andb	$1, %al
	movzbl	%al, %eax
	addq	$72, %rsp
	retq
.Ltmp110:
.Lfunc_end49:
	.seh_endproc

	.def	_ZN3log10set_logger28_$u7b$$u7b$closure$u7d$$u7d$17h1b7a1aff98aa25aaE;
	.scl	3;
	.type	32;
	.endef
	.section	.text,"xr",one_only,_ZN3log10set_logger28_$u7b$$u7b$closure$u7d$$u7d$17h1b7a1aff98aa25aaE
	.p2align	4, 0x90
_ZN3log10set_logger28_$u7b$$u7b$closure$u7d$$u7d$17h1b7a1aff98aa25aaE:
.Lfunc_begin50:
	.cv_func_id 50
	.cv_loc	50 3 1353 0
.seh_proc _ZN3log10set_logger28_$u7b$$u7b$closure$u7d$$u7d$17h1b7a1aff98aa25aaE
	pushq	%rax
	.seh_stackalloc 8
	.seh_endprologue
	movq	%rcx, (%rsp)
.Ltmp111:
	movq	(%rcx), %rax
	movq	8(%rcx), %rdx
	popq	%rcx
	retq
.Ltmp112:
.Lfunc_end50:
	.seh_endproc

	.def	_ZN3log16set_logger_inner17h47cc84107dba7b1eE;
	.scl	3;
	.type	32;
	.endef
	.section	.text,"xr",one_only,_ZN3log16set_logger_inner17h47cc84107dba7b1eE
	.p2align	4, 0x90
_ZN3log16set_logger_inner17h47cc84107dba7b1eE:
.Lfunc_begin51:
	.cv_func_id 51
	.cv_loc	51 3 1357 0
.seh_proc _ZN3log16set_logger_inner17h47cc84107dba7b1eE
	.seh_handler __CxxFrameHandler3, @unwind, @except
	pushq	%rbp
	.seh_pushreg %rbp
	subq	$176, %rsp
	.seh_stackalloc 176
	leaq	128(%rsp), %rbp
	.seh_setframe %rbp, 128
	.seh_endprologue
	movq	$-2, 40(%rbp)
	movq	%rcx, -48(%rbp)
	movq	%rcx, 24(%rbp)
.Ltmp123:
	.cv_loc	51 3 1361 0
	movb	$0, 23(%rbp)
	movb	$1, 23(%rbp)
	.cv_loc	51 3 1364 0
	movb	$4, 6(%rbp)
	.cv_loc	51 3 1365 0
	movb	$4, 7(%rbp)
	.cv_loc	51 3 1361 0
	movb	6(%rbp), %r9b
	movb	7(%rbp), %cl
.Ltmp113:
	movq	%rsp, %rax
	movb	%cl, 32(%rax)
	leaq	_ZN3log5STATE17h4a63814c8c9d79caE(%rip), %rcx
	xorl	%eax, %eax
	movl	%eax, %edx
	movl	$1, %r8d
	callq	_ZN4core4sync6atomic11AtomicUsize16compare_exchange17h390b429d0e9684a3E
.Ltmp114:
	movq	%rdx, -40(%rbp)
	movq	%rax, -32(%rbp)
	jmp	.LBB51_1
.LBB51_1:
	movq	-40(%rbp), %rax
	movq	-32(%rbp), %rcx
	movq	%rcx, -16(%rbp)
	movq	%rax, -8(%rbp)
	movq	-16(%rbp), %rax
	testq	%rax, %rax
	je	.LBB51_4
	jmp	.LBB51_21
.LBB51_21:
	jmp	.LBB51_5
	ud2
.LBB51_4:
	.cv_loc	51 3 1367 0
	movq	-8(%rbp), %rax
	movq	%rax, 8(%rbp)
	.cv_loc	51 3 1361 0
	jmp	.LBB51_6
.LBB51_5:
	.cv_loc	51 3 1367 0
	movq	-8(%rbp), %rax
	movq	%rax, 8(%rbp)
.LBB51_6:
.Ltmp124:
	.cv_loc	51 3 1367 0
	movq	8(%rbp), %rax
	movq	%rax, -56(%rbp)
	movq	%rax, 32(%rbp)
.Ltmp125:
	.cv_loc	51 3 1369 0
	testq	%rax, %rax
	je	.LBB51_8
	jmp	.LBB51_22
.LBB51_22:
	movq	-56(%rbp), %rax
	subq	$1, %rax
	je	.LBB51_9
	jmp	.LBB51_7
.LBB51_7:
	.cv_loc	51 3 1385 0
	movb	$1, -17(%rbp)
	jmp	.LBB51_10
.LBB51_8:
	.cv_loc	51 3 1372 0
	movq	-48(%rbp), %rcx
	movb	$0, 23(%rbp)
.Ltmp119:
	callq	_ZN3log10set_logger28_$u7b$$u7b$closure$u7d$$u7d$17h1b7a1aff98aa25aaE
.Ltmp120:
	movq	%rdx, -72(%rbp)
	movq	%rax, -64(%rbp)
	jmp	.LBB51_15
.LBB51_9:
	.cv_loc	51 3 1378 0
	movb	$4, 22(%rbp)
	movb	22(%rbp), %dl
.Ltmp115:
	leaq	_ZN3log5STATE17h4a63814c8c9d79caE(%rip), %rcx
	callq	_ZN4core4sync6atomic11AtomicUsize4load17h0081d1c79bf57ec0E
.Ltmp116:
	movq	%rax, -80(%rbp)
	jmp	.LBB51_11
.Ltmp126:
.LBB51_10:
	.cv_loc	51 3 1387 0
	testb	$1, 23(%rbp)
	jne	.LBB51_20
	jmp	.LBB51_19
.LBB51_11:
	.cv_loc	51 3 1378 0
	movq	-80(%rbp), %rax
.Ltmp127:
	cmpq	$1, %rax
	je	.LBB51_13
	.cv_loc	51 3 1383 0
	movb	$1, -17(%rbp)
	jmp	.LBB51_10
.LBB51_13:
	.cv_loc	51 3 1381 0
.Ltmp117:
	callq	_ZN4core4sync6atomic14spin_loop_hint17h1465badd23d4c8b9E
.Ltmp118:
	jmp	.LBB51_14
.LBB51_14:
	jmp	.LBB51_9
.LBB51_15:
	.cv_loc	51 3 1372 0
	movq	-72(%rbp), %rax
	movq	-64(%rbp), %rcx
	movq	%rcx, _ZN3log6LOGGER17h602df23e1b436041E(%rip)
	movq	%rax, _ZN3log6LOGGER17h602df23e1b436041E+8(%rip)
	.cv_loc	51 3 1374 0
	movb	$4, 21(%rbp)
	movb	21(%rbp), %r8b
.Ltmp121:
	leaq	_ZN3log5STATE17h4a63814c8c9d79caE(%rip), %rcx
	movl	$2, %edx
	callq	_ZN4core4sync6atomic11AtomicUsize5store17h905e03295f32e75bE
.Ltmp122:
	jmp	.LBB51_16
.LBB51_16:
	.cv_loc	51 3 1375 0
	movb	$0, -17(%rbp)
	jmp	.LBB51_10
.Ltmp128:
.LBB51_19:
	.cv_loc	51 3 1387 0
	movb	-17(%rbp), %al
	andb	$1, %al
	movzbl	%al, %eax
	addq	$176, %rsp
	popq	%rbp
	retq
.LBB51_20:
	jmp	.LBB51_19
	.seh_handlerdata
	.long	($cppxdata$_ZN3log16set_logger_inner17h47cc84107dba7b1eE)@IMGREL
	.section	.text,"xr",one_only,_ZN3log16set_logger_inner17h47cc84107dba7b1eE
	.seh_endproc
	.def	"?dtor$2@?0?_ZN3log16set_logger_inner17h47cc84107dba7b1eE@4HA";
	.scl	3;
	.type	32;
	.endef
	.p2align	4, 0x90
"?dtor$2@?0?_ZN3log16set_logger_inner17h47cc84107dba7b1eE@4HA":
.seh_proc "?dtor$2@?0?_ZN3log16set_logger_inner17h47cc84107dba7b1eE@4HA"
.LBB51_2:
	movq	%rdx, 16(%rsp)
	pushq	%rbp
	.seh_pushreg %rbp
	subq	$48, %rsp
	.seh_stackalloc 48
	leaq	128(%rdx), %rbp
	.seh_endprologue
	testb	$1, 23(%rbp)
	jne	.LBB51_18
	jmp	.LBB51_17
.LBB51_17:
	.cv_loc	51 3 1357 0
	addq	$48, %rsp
	popq	%rbp
	retq
.LBB51_18:
	.cv_loc	51 3 1387 0
	jmp	.LBB51_17
.Ltmp129:
.Lfunc_end51:
	.seh_handlerdata
	.section	.text,"xr",one_only,_ZN3log16set_logger_inner17h47cc84107dba7b1eE
	.seh_endproc
	.section	.xdata,"dr",associative,_ZN3log16set_logger_inner17h47cc84107dba7b1eE
	.p2align	2
$cppxdata$_ZN3log16set_logger_inner17h47cc84107dba7b1eE:
	.long	429065506
	.long	1
	.long	($stateUnwindMap$_ZN3log16set_logger_inner17h47cc84107dba7b1eE)@IMGREL
	.long	0
	.long	0
	.long	3
	.long	($ip2state$_ZN3log16set_logger_inner17h47cc84107dba7b1eE)@IMGREL
	.long	168
	.long	0
	.long	1
$stateUnwindMap$_ZN3log16set_logger_inner17h47cc84107dba7b1eE:
	.long	-1
	.long	"?dtor$2@?0?_ZN3log16set_logger_inner17h47cc84107dba7b1eE@4HA"@IMGREL
$ip2state$_ZN3log16set_logger_inner17h47cc84107dba7b1eE:
	.long	.Lfunc_begin51@IMGREL
	.long	-1
	.long	.Ltmp113@IMGREL+1
	.long	0
	.long	.Ltmp122@IMGREL+1
	.long	-1
	.section	.text,"xr",one_only,_ZN3log16set_logger_inner17h47cc84107dba7b1eE

	.def	_ZN3log15set_logger_racy17h5b591f001612bd9fE;
	.scl	2;
	.type	32;
	.endef
	.section	.text,"xr",one_only,_ZN3log15set_logger_racy17h5b591f001612bd9fE
	.globl	_ZN3log15set_logger_racy17h5b591f001612bd9fE
	.p2align	4, 0x90
_ZN3log15set_logger_racy17h5b591f001612bd9fE:
.Lfunc_begin52:
	.cv_func_id 52
	.cv_loc	52 3 1408 0
.seh_proc _ZN3log15set_logger_racy17h5b591f001612bd9fE
	subq	$88, %rsp
	.seh_stackalloc 88
	.seh_endprologue
	movq	%rdx, 40(%rsp)
	movq	%rcx, 48(%rsp)
	movq	%rcx, 72(%rsp)
	movq	%rdx, 80(%rsp)
.Ltmp130:
	.cv_loc	52 3 1409 0
	movb	$4, 70(%rsp)
	movb	70(%rsp), %dl
	leaq	_ZN3log5STATE17h4a63814c8c9d79caE(%rip), %rcx
	callq	_ZN4core4sync6atomic11AtomicUsize4load17h0081d1c79bf57ec0E
	movq	%rax, 56(%rsp)
	movq	56(%rsp), %rax
	testq	%rax, %rax
	je	.LBB52_3
	jmp	.LBB52_7
.LBB52_7:
	movq	56(%rsp), %rax
	subq	$1, %rax
	je	.LBB52_4
	jmp	.LBB52_2
.LBB52_2:
	.cv_loc	52 3 1419 0
	movb	$1, 69(%rsp)
	jmp	.LBB52_5
.LBB52_3:
	.cv_loc	52 3 1411 0
	movq	40(%rsp), %rax
	movq	48(%rsp), %rcx
	movq	%rcx, _ZN3log6LOGGER17h602df23e1b436041E(%rip)
	movq	%rax, _ZN3log6LOGGER17h602df23e1b436041E+8(%rip)
	.cv_loc	52 3 1412 0
	movb	$4, 71(%rsp)
	movb	71(%rsp), %r8b
	leaq	_ZN3log5STATE17h4a63814c8c9d79caE(%rip), %rcx
	movl	$2, %edx
	callq	_ZN4core4sync6atomic11AtomicUsize5store17h905e03295f32e75bE
	jmp	.LBB52_6
.LBB52_4:
	.cv_loc	52 3 1417 0
	leaq	__unnamed_6(%rip), %rcx
	leaq	__unnamed_7(%rip), %rdx
	callq	_ZN4core9panicking19unreachable_display17h89749d4ad7826fb5E
	ud2
.LBB52_5:
	.cv_loc	52 3 1421 0
	movb	69(%rsp), %al
	andb	$1, %al
	movzbl	%al, %eax
	addq	$88, %rsp
	retq
.LBB52_6:
	.cv_loc	52 3 1413 0
	movb	$0, 69(%rsp)
	jmp	.LBB52_5
.Ltmp131:
.Lfunc_end52:
	.seh_endproc

	.def	_ZN58_$LT$log..SetLoggerError$u20$as$u20$core..fmt..Display$GT$3fmt17h63c0c92f123958afE;
	.scl	2;
	.type	32;
	.endef
	.section	.text,"xr",one_only,_ZN58_$LT$log..SetLoggerError$u20$as$u20$core..fmt..Display$GT$3fmt17h63c0c92f123958afE
	.globl	_ZN58_$LT$log..SetLoggerError$u20$as$u20$core..fmt..Display$GT$3fmt17h63c0c92f123958afE
	.p2align	4, 0x90
_ZN58_$LT$log..SetLoggerError$u20$as$u20$core..fmt..Display$GT$3fmt17h63c0c92f123958afE:
.Lfunc_begin53:
	.cv_func_id 53
	.cv_loc	53 3 1431 0
.seh_proc _ZN58_$LT$log..SetLoggerError$u20$as$u20$core..fmt..Display$GT$3fmt17h63c0c92f123958afE
	subq	$72, %rsp
	.seh_stackalloc 72
	.seh_endprologue
	movq	%rdx, 40(%rsp)
	movq	%rcx, %rax
	movq	40(%rsp), %rcx
	movq	%rax, 56(%rsp)
	movq	%rcx, 64(%rsp)
.Ltmp132:
	.cv_loc	53 3 1432 0
	movq	_ZN3log16SET_LOGGER_ERROR17h96604eeba5f304caE(%rip), %rdx
	movq	_ZN3log16SET_LOGGER_ERROR17h96604eeba5f304caE+8(%rip), %r8
	callq	_ZN4core3fmt9Formatter9write_str17hbcbdd4038ac22381E
	movb	%al, 55(%rsp)
	.cv_loc	53 3 1433 0
	movb	55(%rsp), %al
	andb	$1, %al
	movzbl	%al, %eax
	addq	$72, %rsp
	retq
.Ltmp133:
.Lfunc_end53:
	.seh_endproc

	.def	_ZN59_$LT$log..ParseLevelError$u20$as$u20$core..fmt..Display$GT$3fmt17h8827e0a236941c16E;
	.scl	2;
	.type	32;
	.endef
	.section	.text,"xr",one_only,_ZN59_$LT$log..ParseLevelError$u20$as$u20$core..fmt..Display$GT$3fmt17h8827e0a236941c16E
	.globl	_ZN59_$LT$log..ParseLevelError$u20$as$u20$core..fmt..Display$GT$3fmt17h8827e0a236941c16E
	.p2align	4, 0x90
_ZN59_$LT$log..ParseLevelError$u20$as$u20$core..fmt..Display$GT$3fmt17h8827e0a236941c16E:
.Lfunc_begin54:
	.cv_func_id 54
	.cv_loc	54 3 1448 0
.seh_proc _ZN59_$LT$log..ParseLevelError$u20$as$u20$core..fmt..Display$GT$3fmt17h8827e0a236941c16E
	subq	$72, %rsp
	.seh_stackalloc 72
	.seh_endprologue
	movq	%rdx, 40(%rsp)
	movq	%rcx, %rax
	movq	40(%rsp), %rcx
	movq	%rax, 56(%rsp)
	movq	%rcx, 64(%rsp)
.Ltmp134:
	.cv_loc	54 3 1449 0
	movq	_ZN3log17LEVEL_PARSE_ERROR17hc38933dcb840c332E(%rip), %rdx
	movq	_ZN3log17LEVEL_PARSE_ERROR17hc38933dcb840c332E+8(%rip), %r8
	callq	_ZN4core3fmt9Formatter9write_str17hbcbdd4038ac22381E
	movb	%al, 55(%rsp)
	.cv_loc	54 3 1450 0
	movb	55(%rsp), %al
	andb	$1, %al
	movzbl	%al, %eax
	addq	$72, %rsp
	retq
.Ltmp135:
.Lfunc_end54:
	.seh_endproc

	.def	_ZN3log6logger17h13aef7b0fab81951E;
	.scl	2;
	.type	32;
	.endef
	.section	.text,"xr",one_only,_ZN3log6logger17h13aef7b0fab81951E
	.globl	_ZN3log6logger17h13aef7b0fab81951E
	.p2align	4, 0x90
_ZN3log6logger17h13aef7b0fab81951E:
.Lfunc_begin55:
	.cv_func_id 55
	.cv_loc	55 3 1460 0
.seh_proc _ZN3log6logger17h13aef7b0fab81951E
	subq	$72, %rsp
	.seh_stackalloc 72
	.seh_endprologue
.Ltmp136:
	.cv_loc	55 3 1461 0
	movb	$4, 71(%rsp)
	movb	71(%rsp), %dl
	leaq	_ZN3log5STATE17h4a63814c8c9d79caE(%rip), %rcx
	callq	_ZN4core4sync6atomic11AtomicUsize4load17h0081d1c79bf57ec0E
	movq	%rax, 40(%rsp)
	movq	40(%rsp), %rax
	cmpq	$2, %rax
	jne	.LBB55_3
	.cv_loc	55 3 1465 0
	movq	_ZN3log6LOGGER17h602df23e1b436041E(%rip), %rcx
	movq	_ZN3log6LOGGER17h602df23e1b436041E+8(%rip), %rax
	movq	%rcx, 48(%rsp)
	movq	%rax, 56(%rsp)
	.cv_loc	55 3 1461 0
	jmp	.LBB55_4
.LBB55_3:
	.cv_loc	55 3 1463 0
	leaq	_ZN3log6logger3NOP17hbf92e31f77b77813E(%rip), %rax
	movq	%rax, 48(%rsp)
	leaq	__unnamed_8(%rip), %rax
	movq	%rax, 56(%rsp)
.LBB55_4:
	.cv_loc	55 3 1461 0
	movq	48(%rsp), %rax
	movq	56(%rsp), %rdx
	.cv_loc	55 3 1467 0
	addq	$72, %rsp
	retq
.Ltmp137:
.Lfunc_end55:
	.seh_endproc

	.def	_ZN3log13__private_api3log17h8374247af14047adE;
	.scl	2;
	.type	32;
	.endef
	.section	.text,"xr",one_only,_ZN3log13__private_api3log17h8374247af14047adE
	.globl	_ZN3log13__private_api3log17h8374247af14047adE
	.p2align	4, 0x90
_ZN3log13__private_api3log17h8374247af14047adE:
.Lfunc_begin56:
	.cv_func_id 56
	.cv_file	4 "C:\\Users\\cires\\.cargo\\registry\\src\\github.com-1ecc6299db9ec823\\log-0.4.20\\src\\__private_api.rs" "38655A0DC8A94CCAD0BF7D55580344C4BDA06510" 2
	.cv_loc	56 4 9 0
.seh_proc _ZN3log13__private_api3log17h8374247af14047adE
	subq	$616, %rsp
	.seh_stackalloc 616
	.seh_endprologue
	movl	%r9d, 108(%rsp)
	movq	%rdx, 112(%rsp)
	movq	%rcx, 120(%rsp)
.Ltmp138:
	movq	664(%rsp), %rax
	movq	656(%rsp), %rcx
	movq	%rcx, 184(%rsp)
	movq	%rax, 192(%rsp)
	movq	%rdx, 544(%rsp)
	movq	%r8, 552(%rsp)
	movl	%r9d, 564(%rsp)
.Ltmp139:
	.cv_loc	56 4 12 0
	movq	(%r8), %rcx
	movq	%rcx, 128(%rsp)
	movq	8(%r8), %rax
	movq	%rax, 136(%rsp)
	movq	%rcx, 568(%rsp)
	movq	%rax, 576(%rsp)
	movq	16(%r8), %rcx
	movq	%rcx, 144(%rsp)
	movq	24(%r8), %rax
	movq	%rax, 152(%rsp)
	movq	%rcx, 584(%rsp)
	movq	%rax, 592(%rsp)
	movq	32(%r8), %rcx
	movq	%rcx, 160(%rsp)
	movq	40(%r8), %rax
	movq	%rax, 168(%rsp)
	movq	%rcx, 600(%rsp)
	movq	%rax, 608(%rsp)
.Ltmp140:
	.cv_loc	56 4 16 0
	leaq	184(%rsp), %rcx
	callq	_ZN4core6option15Option$LT$T$GT$7is_some17hdc1bcc1215751c9fE
	movb	%al, 183(%rsp)
.Ltmp141:
	movb	183(%rsp), %al
	testb	$1, %al
	jne	.LBB56_3
	jmp	.LBB56_2
.Ltmp142:
.LBB56_2:
	.cv_loc	56 4 22 0
	callq	_ZN3log6logger17h13aef7b0fab81951E
	movq	%rax, 88(%rsp)
	movq	%rdx, 96(%rsp)
	jmp	.LBB56_4
.Ltmp143:
.LBB56_3:
	.cv_loc	56 4 17 0
	leaq	__unnamed_9(%rip), %rcx
	leaq	__unnamed_10(%rip), %r8
	movl	$85, %edx
	callq	_ZN4core9panicking5panic17he5e92b81a70761b4E
	ud2
.Ltmp144:
.LBB56_4:
	.cv_loc	56 4 23 0
	leaq	328(%rsp), %rcx
	callq	_ZN3log6Record7builder17h0cec79e4bbcfa14bE
.Ltmp145:
	.cv_loc	56 4 24 0
	movq	120(%rsp), %rdx
	leaq	456(%rsp), %rcx
	movl	$48, %r8d
	callq	memcpy
	.cv_loc	56 4 23 0
	leaq	328(%rsp), %rcx
	leaq	456(%rsp), %rdx
	callq	_ZN3log13RecordBuilder4args17h67a55e5f281b5607E
	movq	%rax, 80(%rsp)
.Ltmp146:
	movq	112(%rsp), %rdx
	movq	80(%rsp), %rcx
	callq	_ZN3log13RecordBuilder5level17h87c352b0537e3cd4E
	movq	%rax, 72(%rsp)
.Ltmp147:
	movq	136(%rsp), %r8
	movq	128(%rsp), %rdx
	movq	72(%rsp), %rcx
	callq	_ZN3log13RecordBuilder6target17h9aebef5093b44188E
	movq	%rax, 64(%rsp)
.Ltmp148:
	.cv_loc	56 4 27 0
	movq	64(%rsp), %rcx
	movq	152(%rsp), %rax
	movq	144(%rsp), %rdx
	movq	%rdx, 504(%rsp)
	movq	%rax, 512(%rsp)
	.cv_loc	56 4 23 0
	movq	504(%rsp), %rdx
	movq	512(%rsp), %r8
	callq	_ZN3log13RecordBuilder18module_path_static17h2433c535167080fdE
	movq	%rax, 56(%rsp)
.Ltmp149:
	.cv_loc	56 4 28 0
	movq	56(%rsp), %rcx
	movq	168(%rsp), %rax
	movq	160(%rsp), %rdx
	movq	%rdx, 520(%rsp)
	movq	%rax, 528(%rsp)
	.cv_loc	56 4 23 0
	movq	520(%rsp), %rdx
	movq	528(%rsp), %r8
	callq	_ZN3log13RecordBuilder11file_static17ha9759faad50a177aE
	movq	%rax, 48(%rsp)
.Ltmp150:
	.cv_loc	56 4 29 0
	movq	48(%rsp), %rcx
	movl	108(%rsp), %eax
	movl	%eax, 540(%rsp)
	movl	$1, 536(%rsp)
	.cv_loc	56 4 23 0
	movl	536(%rsp), %edx
	movl	540(%rsp), %r8d
	callq	_ZN3log13RecordBuilder4line17h3cecb1136ea79e52E
	movq	%rax, 40(%rsp)
.Ltmp151:
	movq	40(%rsp), %rdx
	leaq	200(%rsp), %rcx
	callq	_ZN3log13RecordBuilder5build17h63440d0e0c047e02E
.Ltmp152:
	.cv_loc	56 4 22 0
	movq	96(%rsp), %rax
	movq	88(%rsp), %rcx
	leaq	200(%rsp), %rdx
	callq	*40(%rax)
.Ltmp153:
	.cv_loc	56 4 32 0
	nop
	addq	$616, %rsp
	retq
.Ltmp154:
.Lfunc_end56:
	.seh_endproc

	.def	_ZN3log13__private_api7enabled17h8be4cb813424c5e8E;
	.scl	2;
	.type	32;
	.endef
	.section	.text,"xr",one_only,_ZN3log13__private_api7enabled17h8be4cb813424c5e8E
	.globl	_ZN3log13__private_api7enabled17h8be4cb813424c5e8E
	.p2align	4, 0x90
_ZN3log13__private_api7enabled17h8be4cb813424c5e8E:
.Lfunc_begin57:
	.cv_func_id 57
	.cv_loc	57 4 55 0
.seh_proc _ZN3log13__private_api7enabled17h8be4cb813424c5e8E
	subq	$168, %rsp
	.seh_stackalloc 168
	.seh_endprologue
	movq	%r8, 56(%rsp)
	movq	%rdx, 64(%rsp)
	movq	%rcx, 72(%rsp)
	movq	%rcx, 144(%rsp)
	movq	%rdx, 152(%rsp)
	movq	%r8, 160(%rsp)
.Ltmp155:
	.cv_loc	57 4 56 0
	callq	_ZN3log6logger17h13aef7b0fab81951E
	movq	%rax, 80(%rsp)
	movq	%rdx, 88(%rsp)
	leaq	120(%rsp), %rcx
	callq	_ZN3log8Metadata7builder17h97151ad88dcb5b2dE
	movq	72(%rsp), %rdx
	leaq	120(%rsp), %rcx
	callq	_ZN3log15MetadataBuilder5level17h6ea94581cedd8ab7E
	movq	%rax, 48(%rsp)
	movq	56(%rsp), %r8
	movq	64(%rsp), %rdx
	movq	48(%rsp), %rcx
	callq	_ZN3log15MetadataBuilder6target17hdde1457bb55a7eb7E
	movq	%rax, 40(%rsp)
	movq	40(%rsp), %rdx
	leaq	96(%rsp), %rcx
	callq	_ZN3log15MetadataBuilder5build17h5f998a9102da1bd7E
	movq	88(%rsp), %rax
	movq	80(%rsp), %rcx
	leaq	96(%rsp), %rdx
	callq	*32(%rax)
	movb	%al, 39(%rsp)
	.cv_loc	57 4 57 0
	movb	39(%rsp), %al
	andb	$1, %al
	movzbl	%al, %eax
	addq	$168, %rsp
	retq
.Ltmp156:
.Lfunc_end57:
	.seh_endproc

	.def	_ZN3log19get_max_level_inner17hc7cc78b2239395a6E;
	.scl	2;
	.type	32;
	.endef
	.section	.text,"xr",one_only,_ZN3log19get_max_level_inner17hc7cc78b2239395a6E
	.globl	_ZN3log19get_max_level_inner17hc7cc78b2239395a6E
	.p2align	4, 0x90
_ZN3log19get_max_level_inner17hc7cc78b2239395a6E:
.Lfunc_begin58:
	.cv_func_id 58
	.cv_loc	58 3 1486 0
.seh_proc _ZN3log19get_max_level_inner17hc7cc78b2239395a6E
	pushq	%rax
	.seh_stackalloc 8
	.seh_endprologue
.Ltmp157:
	.cv_loc	58 3 1534 0
	movq	$5, (%rsp)
	.cv_loc	58 3 1536 0
	movq	(%rsp), %rax
	popq	%rcx
	retq
.Ltmp158:
.Lfunc_end58:
	.seh_endproc

	.def	_ZN49_$LT$log..Level$u20$as$u20$core..clone..Clone$GT$5clone17h3de3e48bb5263c8fE;
	.scl	3;
	.type	32;
	.endef
	.section	.text,"xr",one_only,_ZN49_$LT$log..Level$u20$as$u20$core..clone..Clone$GT$5clone17h3de3e48bb5263c8fE
	.p2align	4, 0x90
_ZN49_$LT$log..Level$u20$as$u20$core..clone..Clone$GT$5clone17h3de3e48bb5263c8fE:
.Lfunc_begin59:
	.cv_func_id 59
	.cv_loc	59 3 428 0
.seh_proc _ZN49_$LT$log..Level$u20$as$u20$core..clone..Clone$GT$5clone17h3de3e48bb5263c8fE
	pushq	%rax
	.seh_stackalloc 8
	.seh_endprologue
	movq	%rcx, (%rsp)
.Ltmp159:
	movq	(%rcx), %rax
	popq	%rcx
	retq
.Ltmp160:
.Lfunc_end59:
	.seh_endproc

	.def	_ZN47_$LT$log..Level$u20$as$u20$core..fmt..Debug$GT$3fmt17h685f214ffa1c8ce4E;
	.scl	2;
	.type	32;
	.endef
	.section	.text,"xr",one_only,_ZN47_$LT$log..Level$u20$as$u20$core..fmt..Debug$GT$3fmt17h685f214ffa1c8ce4E
	.globl	_ZN47_$LT$log..Level$u20$as$u20$core..fmt..Debug$GT$3fmt17h685f214ffa1c8ce4E
	.p2align	4, 0x90
_ZN47_$LT$log..Level$u20$as$u20$core..fmt..Debug$GT$3fmt17h685f214ffa1c8ce4E:
.Lfunc_begin60:
	.cv_func_id 60
	.cv_loc	60 3 428 0
.seh_proc _ZN47_$LT$log..Level$u20$as$u20$core..fmt..Debug$GT$3fmt17h685f214ffa1c8ce4E
	subq	$88, %rsp
	.seh_stackalloc 88
	.seh_endprologue
	movq	%rdx, 40(%rsp)
	movq	%rcx, 72(%rsp)
	movq	%rdx, 80(%rsp)
.Ltmp161:
	movq	%rcx, 64(%rsp)
	movq	64(%rsp), %rax
	movq	(%rax), %rax
	decq	%rax
	movq	%rax, 48(%rsp)
	movq	48(%rsp), %rax
	leaq	.LJTI60_0(%rip), %rcx
	movslq	(%rcx,%rax,4), %rax
	addq	%rcx, %rax
	jmpq	*%rax
	ud2
.LBB60_2:
	movq	40(%rsp), %rcx
	leaq	__unnamed_11(%rip), %rdx
	movl	$5, %r8d
	callq	_ZN4core3fmt9Formatter9write_str17hbcbdd4038ac22381E
	andb	$1, %al
	movb	%al, 63(%rsp)
	jmp	.LBB60_7
.LBB60_3:
	movq	40(%rsp), %rcx
	leaq	__unnamed_12(%rip), %rdx
	movl	$4, %r8d
	callq	_ZN4core3fmt9Formatter9write_str17hbcbdd4038ac22381E
	andb	$1, %al
	movb	%al, 63(%rsp)
	jmp	.LBB60_7
.LBB60_4:
	movq	40(%rsp), %rcx
	leaq	__unnamed_13(%rip), %rdx
	movl	$4, %r8d
	callq	_ZN4core3fmt9Formatter9write_str17hbcbdd4038ac22381E
	andb	$1, %al
	movb	%al, 63(%rsp)
	jmp	.LBB60_7
.LBB60_5:
	movq	40(%rsp), %rcx
	leaq	__unnamed_14(%rip), %rdx
	movl	$5, %r8d
	callq	_ZN4core3fmt9Formatter9write_str17hbcbdd4038ac22381E
	andb	$1, %al
	movb	%al, 63(%rsp)
	jmp	.LBB60_7
.LBB60_6:
	movq	40(%rsp), %rcx
	leaq	__unnamed_15(%rip), %rdx
	movl	$5, %r8d
	callq	_ZN4core3fmt9Formatter9write_str17hbcbdd4038ac22381E
	andb	$1, %al
	movb	%al, 63(%rsp)
.LBB60_7:
	movb	63(%rsp), %al
	andb	$1, %al
	movzbl	%al, %eax
	addq	$88, %rsp
	retq
.Ltmp162:
.Lfunc_end60:
	.p2align	2, 0x90
.LJTI60_0:
	.long	.LBB60_2-.LJTI60_0
	.long	.LBB60_3-.LJTI60_0
	.long	.LBB60_4-.LJTI60_0
	.long	.LBB60_5-.LJTI60_0
	.long	.LBB60_6-.LJTI60_0
	.seh_endproc

	.def	_ZN53_$LT$log..LevelFilter$u20$as$u20$core..fmt..Debug$GT$3fmt17ha289b07e6df3d3eeE;
	.scl	2;
	.type	32;
	.endef
	.section	.text,"xr",one_only,_ZN53_$LT$log..LevelFilter$u20$as$u20$core..fmt..Debug$GT$3fmt17ha289b07e6df3d3eeE
	.globl	_ZN53_$LT$log..LevelFilter$u20$as$u20$core..fmt..Debug$GT$3fmt17ha289b07e6df3d3eeE
	.p2align	4, 0x90
_ZN53_$LT$log..LevelFilter$u20$as$u20$core..fmt..Debug$GT$3fmt17ha289b07e6df3d3eeE:
.Lfunc_begin61:
	.cv_func_id 61
	.cv_loc	61 3 557 0
.seh_proc _ZN53_$LT$log..LevelFilter$u20$as$u20$core..fmt..Debug$GT$3fmt17ha289b07e6df3d3eeE
	subq	$88, %rsp
	.seh_stackalloc 88
	.seh_endprologue
	movq	%rdx, 40(%rsp)
	movq	%rcx, 72(%rsp)
	movq	%rdx, 80(%rsp)
.Ltmp163:
	movq	%rcx, 64(%rsp)
	movq	64(%rsp), %rax
	movq	(%rax), %rax
	movq	%rax, 48(%rsp)
	movq	48(%rsp), %rax
	leaq	.LJTI61_0(%rip), %rcx
	movslq	(%rcx,%rax,4), %rax
	addq	%rcx, %rax
	jmpq	*%rax
	ud2
.LBB61_2:
	movq	40(%rsp), %rcx
	leaq	__unnamed_16(%rip), %rdx
	movl	$3, %r8d
	callq	_ZN4core3fmt9Formatter9write_str17hbcbdd4038ac22381E
	andb	$1, %al
	movb	%al, 63(%rsp)
	jmp	.LBB61_8
.LBB61_3:
	movq	40(%rsp), %rcx
	leaq	__unnamed_11(%rip), %rdx
	movl	$5, %r8d
	callq	_ZN4core3fmt9Formatter9write_str17hbcbdd4038ac22381E
	andb	$1, %al
	movb	%al, 63(%rsp)
	jmp	.LBB61_8
.LBB61_4:
	movq	40(%rsp), %rcx
	leaq	__unnamed_12(%rip), %rdx
	movl	$4, %r8d
	callq	_ZN4core3fmt9Formatter9write_str17hbcbdd4038ac22381E
	andb	$1, %al
	movb	%al, 63(%rsp)
	jmp	.LBB61_8
.LBB61_5:
	movq	40(%rsp), %rcx
	leaq	__unnamed_13(%rip), %rdx
	movl	$4, %r8d
	callq	_ZN4core3fmt9Formatter9write_str17hbcbdd4038ac22381E
	andb	$1, %al
	movb	%al, 63(%rsp)
	jmp	.LBB61_8
.LBB61_6:
	movq	40(%rsp), %rcx
	leaq	__unnamed_14(%rip), %rdx
	movl	$5, %r8d
	callq	_ZN4core3fmt9Formatter9write_str17hbcbdd4038ac22381E
	andb	$1, %al
	movb	%al, 63(%rsp)
	jmp	.LBB61_8
.LBB61_7:
	movq	40(%rsp), %rcx
	leaq	__unnamed_15(%rip), %rdx
	movl	$5, %r8d
	callq	_ZN4core3fmt9Formatter9write_str17hbcbdd4038ac22381E
	andb	$1, %al
	movb	%al, 63(%rsp)
.LBB61_8:
	movb	63(%rsp), %al
	andb	$1, %al
	movzbl	%al, %eax
	addq	$88, %rsp
	retq
.Ltmp164:
.Lfunc_end61:
	.p2align	2, 0x90
.LJTI61_0:
	.long	.LBB61_2-.LJTI61_0
	.long	.LBB61_3-.LJTI61_0
	.long	.LBB61_4-.LJTI61_0
	.long	.LBB61_5-.LJTI61_0
	.long	.LBB61_6-.LJTI61_0
	.long	.LBB61_7-.LJTI61_0
	.seh_endproc

	.def	_ZN3log14MaybeStaticStr6Static17h45de0f6de3d053fbE;
	.scl	3;
	.type	32;
	.endef
	.section	.text,"xr",one_only,_ZN3log14MaybeStaticStr6Static17h45de0f6de3d053fbE
	.p2align	4, 0x90
_ZN3log14MaybeStaticStr6Static17h45de0f6de3d053fbE:
.Lfunc_begin62:
	.cv_func_id 62
	.cv_loc	62 3 661 0
.seh_proc _ZN3log14MaybeStaticStr6Static17h45de0f6de3d053fbE
	subq	$16, %rsp
	.seh_stackalloc 16
	.seh_endprologue
	movq	%rcx, %rax
	movq	%rdx, (%rsp)
	movq	%r8, 8(%rsp)
.Ltmp165:
	movq	%rdx, 8(%rcx)
	movq	%r8, 16(%rcx)
	movq	$0, (%rcx)
	addq	$16, %rsp
	retq
.Ltmp166:
.Lfunc_end62:
	.seh_endproc

	.def	_ZN58_$LT$log..MaybeStaticStr$u20$as$u20$core..clone..Clone$GT$5clone17hd74f72cb59ef9a6eE;
	.scl	3;
	.type	32;
	.endef
	.section	.text,"xr",one_only,_ZN58_$LT$log..MaybeStaticStr$u20$as$u20$core..clone..Clone$GT$5clone17hd74f72cb59ef9a6eE
	.p2align	4, 0x90
_ZN58_$LT$log..MaybeStaticStr$u20$as$u20$core..clone..Clone$GT$5clone17hd74f72cb59ef9a6eE:
.Lfunc_begin63:
	.cv_func_id 63
	.cv_loc	63 3 659 0
.seh_proc _ZN58_$LT$log..MaybeStaticStr$u20$as$u20$core..clone..Clone$GT$5clone17hd74f72cb59ef9a6eE
	pushq	%rax
	.seh_stackalloc 8
	.seh_endprologue
	movq	%rcx, %rax
	movq	%rdx, (%rsp)
.Ltmp167:
	movq	(%rdx), %r8
	movq	%r8, (%rcx)
	movq	8(%rdx), %r8
	movq	%r8, 8(%rcx)
	movq	16(%rdx), %rdx
	movq	%rdx, 16(%rcx)
	popq	%rcx
	retq
.Ltmp168:
.Lfunc_end63:
	.seh_endproc

	.def	_ZN56_$LT$log..MaybeStaticStr$u20$as$u20$core..fmt..Debug$GT$3fmt17h16d588568c8b7dcbE;
	.scl	2;
	.type	32;
	.endef
	.section	.text,"xr",one_only,_ZN56_$LT$log..MaybeStaticStr$u20$as$u20$core..fmt..Debug$GT$3fmt17h16d588568c8b7dcbE
	.globl	_ZN56_$LT$log..MaybeStaticStr$u20$as$u20$core..fmt..Debug$GT$3fmt17h16d588568c8b7dcbE
	.p2align	4, 0x90
_ZN56_$LT$log..MaybeStaticStr$u20$as$u20$core..fmt..Debug$GT$3fmt17h16d588568c8b7dcbE:
.Lfunc_begin64:
	.cv_func_id 64
	.cv_loc	64 3 659 0
.seh_proc _ZN56_$LT$log..MaybeStaticStr$u20$as$u20$core..fmt..Debug$GT$3fmt17h16d588568c8b7dcbE
	subq	$184, %rsp
	.seh_stackalloc 184
	.seh_endprologue
	movq	%rdx, 48(%rsp)
	movq	%rcx, 136(%rsp)
	movq	%rdx, 144(%rsp)
.Ltmp169:
	movq	%rcx, 64(%rsp)
	movq	64(%rsp), %rax
	movq	(%rax), %rax
	testq	%rax, %rax
	je	.LBB64_2
	jmp	.LBB64_9
.LBB64_9:
	jmp	.LBB64_3
	ud2
.LBB64_2:
	.cv_loc	64 3 661 0
	movq	48(%rsp), %rdx
	movq	64(%rsp), %rax
	addq	$8, %rax
	movq	%rax, 40(%rsp)
	movq	%rax, 168(%rsp)
.Ltmp170:
	.cv_loc	64 3 659 0
	leaq	72(%rsp), %rcx
	leaq	__unnamed_17(%rip), %r8
	movl	$6, %r9d
	callq	_ZN4core3fmt9Formatter11debug_tuple17h17befcdd272edef4E
	jmp	.LBB64_7
.Ltmp171:
.LBB64_3:
	.cv_loc	64 3 662 0
	movq	48(%rsp), %rdx
	movq	64(%rsp), %rax
	addq	$8, %rax
	movq	%rax, 32(%rsp)
	movq	%rax, 152(%rsp)
.Ltmp172:
	.cv_loc	64 3 659 0
	leaq	104(%rsp), %rcx
	leaq	__unnamed_18(%rip), %r8
	movl	$8, %r9d
	callq	_ZN4core3fmt9Formatter11debug_tuple17h17befcdd272edef4E
	movq	32(%rsp), %rax
	leaq	104(%rsp), %rcx
	movq	%rcx, 160(%rsp)
.Ltmp173:
	.cv_loc	64 3 662 0
	movq	%rax, 128(%rsp)
	leaq	128(%rsp), %rdx
	.cv_loc	64 3 659 0
	leaq	104(%rsp), %rcx
	leaq	__unnamed_19(%rip), %r8
	callq	_ZN4core3fmt8builders10DebugTuple5field17hcf6d8a0993c37a8aE
	leaq	104(%rsp), %rcx
	callq	_ZN4core3fmt8builders10DebugTuple6finish17h02634223f85efa2fE
	andb	$1, %al
	movb	%al, 63(%rsp)
.Ltmp174:
.LBB64_6:
	.cv_loc	64 3 659 0
	movb	63(%rsp), %al
	andb	$1, %al
	movzbl	%al, %eax
	addq	$184, %rsp
	retq
.LBB64_7:
	.cv_loc	64 3 659 0
	movq	40(%rsp), %rax
.Ltmp175:
	leaq	72(%rsp), %rcx
	movq	%rcx, 176(%rsp)
.Ltmp176:
	.cv_loc	64 3 661 0
	movq	%rax, 96(%rsp)
	leaq	96(%rsp), %rdx
	.cv_loc	64 3 659 0
	leaq	72(%rsp), %rcx
	leaq	__unnamed_19(%rip), %r8
	callq	_ZN4core3fmt8builders10DebugTuple5field17hcf6d8a0993c37a8aE
	leaq	72(%rsp), %rcx
	callq	_ZN4core3fmt8builders10DebugTuple6finish17h02634223f85efa2fE
	andb	$1, %al
	movb	%al, 63(%rsp)
	jmp	.LBB64_6
.Ltmp177:
.Lfunc_end64:
	.seh_endproc

	.def	_ZN50_$LT$log..Record$u20$as$u20$core..clone..Clone$GT$5clone17h21b213f7cbf47359E;
	.scl	3;
	.type	32;
	.endef
	.section	.text,"xr",one_only,_ZN50_$LT$log..Record$u20$as$u20$core..clone..Clone$GT$5clone17h21b213f7cbf47359E
	.p2align	4, 0x90
_ZN50_$LT$log..Record$u20$as$u20$core..clone..Clone$GT$5clone17h21b213f7cbf47359E:
.Lfunc_begin65:
	.cv_func_id 65
	.cv_loc	65 3 720 0
.seh_proc _ZN50_$LT$log..Record$u20$as$u20$core..clone..Clone$GT$5clone17h21b213f7cbf47359E
	subq	$264, %rsp
	.seh_stackalloc 264
	.seh_endprologue
	movq	%rdx, %rax
	movq	%rcx, 48(%rsp)
	movq	%rcx, 56(%rsp)
	movq	%rax, 216(%rsp)
.Ltmp178:
	.cv_loc	65 3 722 0
	movq	%rax, %rdx
	movq	%rdx, 224(%rsp)
	.cv_loc	65 3 723 0
	movq	%rax, %rcx
	addq	$24, %rcx
	movq	%rcx, 64(%rsp)
	movq	%rcx, 232(%rsp)
	.cv_loc	65 3 724 0
	movq	%rax, %rcx
	addq	$72, %rcx
	movq	%rcx, 72(%rsp)
	movq	%rcx, 240(%rsp)
	.cv_loc	65 3 725 0
	movq	%rax, %rcx
	addq	$96, %rcx
	movq	%rcx, 80(%rsp)
	movq	%rcx, 248(%rsp)
	.cv_loc	65 3 726 0
	addq	$120, %rax
	movq	%rax, 88(%rsp)
	movq	%rax, 256(%rsp)
.Ltmp179:
	.cv_loc	65 3 722 0
	leaq	96(%rsp), %rcx
	callq	_ZN52_$LT$log..Metadata$u20$as$u20$core..clone..Clone$GT$5clone17h7f171977d4cc8026E
	.cv_loc	65 3 723 0
	movq	64(%rsp), %rdx
	leaq	120(%rsp), %rcx
	callq	_ZN59_$LT$core..fmt..Arguments$u20$as$u20$core..clone..Clone$GT$5clone17hbf8a9e789eadf86dE
	.cv_loc	65 3 724 0
	movq	72(%rsp), %rdx
	leaq	168(%rsp), %rcx
	callq	_ZN68_$LT$core..option..Option$LT$T$GT$$u20$as$u20$core..clone..Clone$GT$5clone17he9d307f77d0219d5E
	.cv_loc	65 3 725 0
	movq	80(%rsp), %rdx
	leaq	192(%rsp), %rcx
	callq	_ZN68_$LT$core..option..Option$LT$T$GT$$u20$as$u20$core..clone..Clone$GT$5clone17he9d307f77d0219d5E
	.cv_loc	65 3 726 0
	movq	88(%rsp), %rcx
	callq	_ZN68_$LT$core..option..Option$LT$T$GT$$u20$as$u20$core..clone..Clone$GT$5clone17h04a4bba8e0f98fa0E
	movl	%eax, 40(%rsp)
	movl	%edx, 44(%rsp)
	.cv_loc	65 3 720 0
	movq	48(%rsp), %rcx
	movq	96(%rsp), %rax
	movq	%rax, (%rcx)
	movq	104(%rsp), %rax
	movq	%rax, 8(%rcx)
	movq	112(%rsp), %rax
	movq	%rax, 16(%rcx)
	addq	$24, %rcx
	leaq	120(%rsp), %rdx
	movl	$48, %r8d
	callq	memcpy
	movl	40(%rsp), %r8d
	movl	44(%rsp), %edx
	movq	48(%rsp), %rcx
	movq	56(%rsp), %rax
	movq	168(%rsp), %r9
	movq	%r9, 72(%rcx)
	movq	176(%rsp), %r9
	movq	%r9, 80(%rcx)
	movq	184(%rsp), %r9
	movq	%r9, 88(%rcx)
	movq	192(%rsp), %r9
	movq	%r9, 96(%rcx)
	movq	200(%rsp), %r9
	movq	%r9, 104(%rcx)
	movq	208(%rsp), %r9
	movq	%r9, 112(%rcx)
	movl	%r8d, 120(%rcx)
	movl	%edx, 124(%rcx)
.Ltmp180:
	.cv_loc	65 3 720 0
	addq	$264, %rsp
	retq
.Ltmp181:
.Lfunc_end65:
	.seh_endproc

	.def	_ZN48_$LT$log..Record$u20$as$u20$core..fmt..Debug$GT$3fmt17ha9d2c72b53791803E;
	.scl	2;
	.type	32;
	.endef
	.section	.text,"xr",one_only,_ZN48_$LT$log..Record$u20$as$u20$core..fmt..Debug$GT$3fmt17ha9d2c72b53791803E
	.globl	_ZN48_$LT$log..Record$u20$as$u20$core..fmt..Debug$GT$3fmt17ha9d2c72b53791803E
	.p2align	4, 0x90
_ZN48_$LT$log..Record$u20$as$u20$core..fmt..Debug$GT$3fmt17ha9d2c72b53791803E:
.Lfunc_begin66:
	.cv_func_id 66
	.cv_loc	66 3 720 0
.seh_proc _ZN48_$LT$log..Record$u20$as$u20$core..fmt..Debug$GT$3fmt17ha9d2c72b53791803E
	subq	$232, %rsp
	.seh_stackalloc 232
	.seh_endprologue
	movq	%rdx, 48(%rsp)
	movq	%rcx, %rax
	movq	48(%rsp), %rcx
	movq	%rax, 152(%rsp)
	movq	%rcx, 160(%rsp)
.Ltmp182:
	.cv_loc	66 3 722 0
	movq	%rax, %rdx
	movq	%rdx, 56(%rsp)
	movq	%rax, 168(%rsp)
	.cv_loc	66 3 723 0
	movq	%rax, %rdx
	addq	$24, %rdx
	movq	%rdx, 64(%rsp)
	movq	%rdx, 176(%rsp)
	.cv_loc	66 3 724 0
	movq	%rax, %rdx
	addq	$72, %rdx
	movq	%rdx, 72(%rsp)
	movq	%rdx, 184(%rsp)
	.cv_loc	66 3 725 0
	movq	%rax, %rdx
	addq	$96, %rdx
	movq	%rdx, 80(%rsp)
	movq	%rdx, 192(%rsp)
	.cv_loc	66 3 726 0
	addq	$120, %rax
	movq	%rax, 88(%rsp)
	movq	%rax, 200(%rsp)
.Ltmp183:
	.cv_loc	66 3 720 0
	leaq	__unnamed_20(%rip), %rdx
	movl	$6, %r8d
	callq	_ZN4core3fmt9Formatter12debug_struct17hf75caa073396fa81E
	movq	%rdx, 216(%rsp)
	movq	%rax, 208(%rsp)
	movq	208(%rsp), %rax
	movq	%rax, 96(%rsp)
	movq	216(%rsp), %rax
	movq	%rax, 104(%rsp)
	movq	56(%rsp), %rax
	leaq	96(%rsp), %rcx
	movq	%rcx, 224(%rsp)
.Ltmp184:
	.cv_loc	66 3 722 0
	movq	%rax, 112(%rsp)
	leaq	112(%rsp), %r9
	.cv_loc	66 3 720 0
	leaq	96(%rsp), %rcx
	leaq	__unnamed_21(%rip), %rdx
	movl	$8, %r8d
	leaq	__unnamed_22(%rip), %rax
	movq	%rax, 32(%rsp)
	callq	_ZN4core3fmt8builders11DebugStruct5field17h39408be7f68b1743E
	.cv_loc	66 3 723 0
	movq	64(%rsp), %rax
	movq	%rax, 120(%rsp)
	leaq	120(%rsp), %r9
	.cv_loc	66 3 720 0
	leaq	96(%rsp), %rcx
	leaq	__unnamed_23(%rip), %rdx
	movl	$4, %r8d
	leaq	__unnamed_24(%rip), %rax
	movq	%rax, 32(%rsp)
	callq	_ZN4core3fmt8builders11DebugStruct5field17h39408be7f68b1743E
	.cv_loc	66 3 724 0
	movq	72(%rsp), %rax
	movq	%rax, 128(%rsp)
	leaq	128(%rsp), %r9
	.cv_loc	66 3 720 0
	leaq	96(%rsp), %rcx
	leaq	__unnamed_25(%rip), %rdx
	movl	$11, %r8d
	leaq	__unnamed_26(%rip), %rax
	movq	%rax, 32(%rsp)
	callq	_ZN4core3fmt8builders11DebugStruct5field17h39408be7f68b1743E
	.cv_loc	66 3 725 0
	movq	80(%rsp), %rax
	movq	%rax, 136(%rsp)
	leaq	136(%rsp), %r9
	.cv_loc	66 3 720 0
	leaq	96(%rsp), %rcx
	leaq	__unnamed_27(%rip), %rdx
	movl	$4, %r8d
	leaq	__unnamed_26(%rip), %rax
	movq	%rax, 32(%rsp)
	callq	_ZN4core3fmt8builders11DebugStruct5field17h39408be7f68b1743E
	.cv_loc	66 3 726 0
	movq	88(%rsp), %rax
	movq	%rax, 144(%rsp)
	leaq	144(%rsp), %r9
	.cv_loc	66 3 720 0
	leaq	96(%rsp), %rcx
	leaq	__unnamed_28(%rip), %rdx
	movl	$4, %r8d
	leaq	__unnamed_29(%rip), %rax
	movq	%rax, 32(%rsp)
	callq	_ZN4core3fmt8builders11DebugStruct5field17h39408be7f68b1743E
	leaq	96(%rsp), %rcx
	callq	_ZN4core3fmt8builders11DebugStruct6finish17h352f2944555fb8d2E
	movb	%al, 47(%rsp)
.Ltmp185:
	.cv_loc	66 3 720 0
	movb	47(%rsp), %al
	andb	$1, %al
	movzbl	%al, %eax
	addq	$232, %rsp
	retq
.Ltmp186:
.Lfunc_end66:
	.seh_endproc

	.def	_ZN55_$LT$log..RecordBuilder$u20$as$u20$core..fmt..Debug$GT$3fmt17h38daca245519e64aE;
	.scl	2;
	.type	32;
	.endef
	.section	.text,"xr",one_only,_ZN55_$LT$log..RecordBuilder$u20$as$u20$core..fmt..Debug$GT$3fmt17h38daca245519e64aE
	.globl	_ZN55_$LT$log..RecordBuilder$u20$as$u20$core..fmt..Debug$GT$3fmt17h38daca245519e64aE
	.p2align	4, 0x90
_ZN55_$LT$log..RecordBuilder$u20$as$u20$core..fmt..Debug$GT$3fmt17h38daca245519e64aE:
.Lfunc_begin67:
	.cv_func_id 67
	.cv_loc	67 3 881 0
.seh_proc _ZN55_$LT$log..RecordBuilder$u20$as$u20$core..fmt..Debug$GT$3fmt17h38daca245519e64aE
	subq	$136, %rsp
	.seh_stackalloc 136
	.seh_endprologue
	movq	%rdx, 48(%rsp)
	movq	%rcx, %rax
	movq	48(%rsp), %rcx
	movq	%rax, 88(%rsp)
	movq	%rcx, 96(%rsp)
.Ltmp187:
	.cv_loc	67 3 883 0
	movq	%rax, %rdx
	movq	%rdx, 56(%rsp)
	movq	%rax, 104(%rsp)
.Ltmp188:
	.cv_loc	67 3 881 0
	leaq	__unnamed_30(%rip), %rdx
	movl	$13, %r8d
	callq	_ZN4core3fmt9Formatter12debug_struct17hf75caa073396fa81E
	movq	%rdx, 120(%rsp)
	movq	%rax, 112(%rsp)
	movq	112(%rsp), %rax
	movq	%rax, 64(%rsp)
	movq	120(%rsp), %rax
	movq	%rax, 72(%rsp)
	movq	56(%rsp), %rax
	leaq	64(%rsp), %rcx
	movq	%rcx, 128(%rsp)
.Ltmp189:
	.cv_loc	67 3 883 0
	movq	%rax, 80(%rsp)
	leaq	80(%rsp), %r9
	.cv_loc	67 3 881 0
	leaq	64(%rsp), %rcx
	leaq	__unnamed_31(%rip), %rdx
	movl	$6, %r8d
	leaq	__unnamed_32(%rip), %rax
	movq	%rax, 32(%rsp)
	callq	_ZN4core3fmt8builders11DebugStruct5field17h39408be7f68b1743E
	leaq	64(%rsp), %rcx
	callq	_ZN4core3fmt8builders11DebugStruct6finish17h352f2944555fb8d2E
	movb	%al, 47(%rsp)
.Ltmp190:
	.cv_loc	67 3 881 0
	movb	47(%rsp), %al
	andb	$1, %al
	movzbl	%al, %eax
	addq	$136, %rsp
	retq
.Ltmp191:
.Lfunc_end67:
	.seh_endproc

	.def	_ZN52_$LT$log..Metadata$u20$as$u20$core..clone..Clone$GT$5clone17h7f171977d4cc8026E;
	.scl	3;
	.type	32;
	.endef
	.section	.text,"xr",one_only,_ZN52_$LT$log..Metadata$u20$as$u20$core..clone..Clone$GT$5clone17h7f171977d4cc8026E
	.p2align	4, 0x90
_ZN52_$LT$log..Metadata$u20$as$u20$core..clone..Clone$GT$5clone17h7f171977d4cc8026E:
.Lfunc_begin68:
	.cv_func_id 68
	.cv_loc	68 3 1036 0
.seh_proc _ZN52_$LT$log..Metadata$u20$as$u20$core..clone..Clone$GT$5clone17h7f171977d4cc8026E
	subq	$104, %rsp
	.seh_stackalloc 104
	.seh_endprologue
	movq	%rcx, 48(%rsp)
	movq	%rcx, 56(%rsp)
	movq	%rdx, 80(%rsp)
.Ltmp192:
	.cv_loc	68 3 1038 0
	movq	%rdx, %rcx
	movq	%rcx, 88(%rsp)
	.cv_loc	68 3 1039 0
	addq	$8, %rdx
	movq	%rdx, 64(%rsp)
	movq	%rdx, 96(%rsp)
.Ltmp193:
	.cv_loc	68 3 1038 0
	callq	_ZN49_$LT$log..Level$u20$as$u20$core..clone..Clone$GT$5clone17h3de3e48bb5263c8fE
	movq	%rax, 72(%rsp)
	.cv_loc	68 3 1039 0
	movq	64(%rsp), %rcx
	callq	_ZN4core5clone5impls54_$LT$impl$u20$core..clone..Clone$u20$for$u20$$RF$T$GT$5clone17hc0e0e08863ca63d7E
	movq	%rax, 32(%rsp)
	movq	%rdx, 40(%rsp)
	.cv_loc	68 3 1036 0
	movq	56(%rsp), %rax
	movq	48(%rsp), %rcx
	movq	40(%rsp), %rdx
	movq	32(%rsp), %r8
	movq	72(%rsp), %r9
	movq	%r9, (%rcx)
	movq	%r8, 8(%rcx)
	movq	%rdx, 16(%rcx)
.Ltmp194:
	.cv_loc	68 3 1036 0
	addq	$104, %rsp
	retq
.Ltmp195:
.Lfunc_end68:
	.seh_endproc

	.def	_ZN50_$LT$log..Metadata$u20$as$u20$core..fmt..Debug$GT$3fmt17h012e6aa2666e5c62E;
	.scl	2;
	.type	32;
	.endef
	.section	.text,"xr",one_only,_ZN50_$LT$log..Metadata$u20$as$u20$core..fmt..Debug$GT$3fmt17h012e6aa2666e5c62E
	.globl	_ZN50_$LT$log..Metadata$u20$as$u20$core..fmt..Debug$GT$3fmt17h012e6aa2666e5c62E
	.p2align	4, 0x90
_ZN50_$LT$log..Metadata$u20$as$u20$core..fmt..Debug$GT$3fmt17h012e6aa2666e5c62E:
.Lfunc_begin69:
	.cv_func_id 69
	.cv_loc	69 3 1036 0
.seh_proc _ZN50_$LT$log..Metadata$u20$as$u20$core..fmt..Debug$GT$3fmt17h012e6aa2666e5c62E
	subq	$168, %rsp
	.seh_stackalloc 168
	.seh_endprologue
	movq	%rdx, 56(%rsp)
	movq	%rcx, %rax
	movq	56(%rsp), %rcx
	movq	%rax, 112(%rsp)
	movq	%rcx, 120(%rsp)
.Ltmp196:
	.cv_loc	69 3 1038 0
	movq	%rax, %rdx
	movq	%rdx, 64(%rsp)
	movq	%rax, 128(%rsp)
	.cv_loc	69 3 1039 0
	addq	$8, %rax
	movq	%rax, 72(%rsp)
	movq	%rax, 136(%rsp)
.Ltmp197:
	.cv_loc	69 3 1036 0
	leaq	__unnamed_33(%rip), %rdx
	movl	$8, %r8d
	callq	_ZN4core3fmt9Formatter12debug_struct17hf75caa073396fa81E
	movq	%rdx, 152(%rsp)
	movq	%rax, 144(%rsp)
	movq	144(%rsp), %rax
	movq	%rax, 80(%rsp)
	movq	152(%rsp), %rax
	movq	%rax, 88(%rsp)
	movq	64(%rsp), %rax
	leaq	80(%rsp), %rcx
	movq	%rcx, 160(%rsp)
.Ltmp198:
	.cv_loc	69 3 1038 0
	movq	%rax, 96(%rsp)
	leaq	96(%rsp), %r9
	.cv_loc	69 3 1036 0
	leaq	80(%rsp), %rcx
	leaq	__unnamed_34(%rip), %rdx
	movl	$5, %r8d
	leaq	__unnamed_35(%rip), %rax
	movq	%rax, 32(%rsp)
	callq	_ZN4core3fmt8builders11DebugStruct5field17h39408be7f68b1743E
	.cv_loc	69 3 1039 0
	movq	72(%rsp), %rax
	movq	%rax, 104(%rsp)
	leaq	104(%rsp), %r9
	.cv_loc	69 3 1036 0
	leaq	80(%rsp), %rcx
	leaq	__unnamed_36(%rip), %rdx
	movl	$6, %r8d
	leaq	__unnamed_19(%rip), %rax
	movq	%rax, 32(%rsp)
	callq	_ZN4core3fmt8builders11DebugStruct5field17h39408be7f68b1743E
	leaq	80(%rsp), %rcx
	callq	_ZN4core3fmt8builders11DebugStruct6finish17h352f2944555fb8d2E
	movb	%al, 55(%rsp)
.Ltmp199:
	.cv_loc	69 3 1036 0
	movb	55(%rsp), %al
	andb	$1, %al
	movzbl	%al, %eax
	addq	$168, %rsp
	retq
.Ltmp200:
.Lfunc_end69:
	.seh_endproc

	.def	_ZN57_$LT$log..MetadataBuilder$u20$as$u20$core..fmt..Debug$GT$3fmt17ha2e8782f89845e08E;
	.scl	2;
	.type	32;
	.endef
	.section	.text,"xr",one_only,_ZN57_$LT$log..MetadataBuilder$u20$as$u20$core..fmt..Debug$GT$3fmt17ha2e8782f89845e08E
	.globl	_ZN57_$LT$log..MetadataBuilder$u20$as$u20$core..fmt..Debug$GT$3fmt17ha2e8782f89845e08E
	.p2align	4, 0x90
_ZN57_$LT$log..MetadataBuilder$u20$as$u20$core..fmt..Debug$GT$3fmt17ha2e8782f89845e08E:
.Lfunc_begin70:
	.cv_func_id 70
	.cv_loc	70 3 1078 0
.seh_proc _ZN57_$LT$log..MetadataBuilder$u20$as$u20$core..fmt..Debug$GT$3fmt17ha2e8782f89845e08E
	subq	$136, %rsp
	.seh_stackalloc 136
	.seh_endprologue
	movq	%rdx, 48(%rsp)
	movq	%rcx, %rax
	movq	48(%rsp), %rcx
	movq	%rax, 88(%rsp)
	movq	%rcx, 96(%rsp)
.Ltmp201:
	.cv_loc	70 3 1080 0
	movq	%rax, %rdx
	movq	%rdx, 56(%rsp)
	movq	%rax, 104(%rsp)
.Ltmp202:
	.cv_loc	70 3 1078 0
	leaq	__unnamed_37(%rip), %rdx
	movl	$15, %r8d
	callq	_ZN4core3fmt9Formatter12debug_struct17hf75caa073396fa81E
	movq	%rdx, 120(%rsp)
	movq	%rax, 112(%rsp)
	movq	112(%rsp), %rax
	movq	%rax, 64(%rsp)
	movq	120(%rsp), %rax
	movq	%rax, 72(%rsp)
	movq	56(%rsp), %rax
	leaq	64(%rsp), %rcx
	movq	%rcx, 128(%rsp)
.Ltmp203:
	.cv_loc	70 3 1080 0
	movq	%rax, 80(%rsp)
	leaq	80(%rsp), %r9
	.cv_loc	70 3 1078 0
	leaq	64(%rsp), %rcx
	leaq	__unnamed_21(%rip), %rdx
	movl	$8, %r8d
	leaq	__unnamed_22(%rip), %rax
	movq	%rax, 32(%rsp)
	callq	_ZN4core3fmt8builders11DebugStruct5field17h39408be7f68b1743E
	leaq	64(%rsp), %rcx
	callq	_ZN4core3fmt8builders11DebugStruct6finish17h352f2944555fb8d2E
	movb	%al, 47(%rsp)
.Ltmp204:
	.cv_loc	70 3 1078 0
	movb	47(%rsp), %al
	andb	$1, %al
	movzbl	%al, %eax
	addq	$136, %rsp
	retq
.Ltmp205:
.Lfunc_end70:
	.seh_endproc

	.def	_ZN56_$LT$log..SetLoggerError$u20$as$u20$core..fmt..Debug$GT$3fmt17h7d409acf3969e355E;
	.scl	2;
	.type	32;
	.endef
	.section	.text,"xr",one_only,_ZN56_$LT$log..SetLoggerError$u20$as$u20$core..fmt..Debug$GT$3fmt17h7d409acf3969e355E
	.globl	_ZN56_$LT$log..SetLoggerError$u20$as$u20$core..fmt..Debug$GT$3fmt17h7d409acf3969e355E
	.p2align	4, 0x90
_ZN56_$LT$log..SetLoggerError$u20$as$u20$core..fmt..Debug$GT$3fmt17h7d409acf3969e355E:
.Lfunc_begin71:
	.cv_func_id 71
	.cv_loc	71 3 1427 0
.seh_proc _ZN56_$LT$log..SetLoggerError$u20$as$u20$core..fmt..Debug$GT$3fmt17h7d409acf3969e355E
	subq	$120, %rsp
	.seh_stackalloc 120
	.seh_endprologue
	movq	%rcx, 88(%rsp)
	movq	%rdx, 96(%rsp)
	movq	%rcx, 48(%rsp)
.Ltmp206:
	.cv_loc	71 3 1428 0
	movq	%rcx, 104(%rsp)
.Ltmp207:
	.cv_loc	71 3 1427 0
	leaq	56(%rsp), %rcx
	leaq	__unnamed_38(%rip), %r8
	movl	$14, %r9d
	callq	_ZN4core3fmt9Formatter11debug_tuple17h17befcdd272edef4E
	movq	48(%rsp), %rax
	leaq	56(%rsp), %rcx
	movq	%rcx, 112(%rsp)
.Ltmp208:
	.cv_loc	71 3 1428 0
	movq	%rax, 80(%rsp)
	leaq	80(%rsp), %rdx
	.cv_loc	71 3 1427 0
	leaq	56(%rsp), %rcx
	leaq	__unnamed_39(%rip), %r8
	callq	_ZN4core3fmt8builders10DebugTuple5field17hcf6d8a0993c37a8aE
	leaq	56(%rsp), %rcx
	callq	_ZN4core3fmt8builders10DebugTuple6finish17h02634223f85efa2fE
	movb	%al, 47(%rsp)
.Ltmp209:
	.cv_loc	71 3 1427 0
	movb	47(%rsp), %al
	andb	$1, %al
	movzbl	%al, %eax
	addq	$120, %rsp
	retq
.Ltmp210:
.Lfunc_end71:
	.seh_endproc

	.def	_ZN57_$LT$log..ParseLevelError$u20$as$u20$core..fmt..Debug$GT$3fmt17h14c9d23dcb10bcf4E;
	.scl	2;
	.type	32;
	.endef
	.section	.text,"xr",one_only,_ZN57_$LT$log..ParseLevelError$u20$as$u20$core..fmt..Debug$GT$3fmt17h14c9d23dcb10bcf4E
	.globl	_ZN57_$LT$log..ParseLevelError$u20$as$u20$core..fmt..Debug$GT$3fmt17h14c9d23dcb10bcf4E
	.p2align	4, 0x90
_ZN57_$LT$log..ParseLevelError$u20$as$u20$core..fmt..Debug$GT$3fmt17h14c9d23dcb10bcf4E:
.Lfunc_begin72:
	.cv_func_id 72
	.cv_loc	72 3 1444 0
.seh_proc _ZN57_$LT$log..ParseLevelError$u20$as$u20$core..fmt..Debug$GT$3fmt17h14c9d23dcb10bcf4E
	subq	$120, %rsp
	.seh_stackalloc 120
	.seh_endprologue
	movq	%rcx, 88(%rsp)
	movq	%rdx, 96(%rsp)
	movq	%rcx, 48(%rsp)
.Ltmp211:
	.cv_loc	72 3 1445 0
	movq	%rcx, 104(%rsp)
.Ltmp212:
	.cv_loc	72 3 1444 0
	leaq	56(%rsp), %rcx
	leaq	__unnamed_40(%rip), %r8
	movl	$15, %r9d
	callq	_ZN4core3fmt9Formatter11debug_tuple17h17befcdd272edef4E
	movq	48(%rsp), %rax
	leaq	56(%rsp), %rcx
	movq	%rcx, 112(%rsp)
.Ltmp213:
	.cv_loc	72 3 1445 0
	movq	%rax, 80(%rsp)
	leaq	80(%rsp), %rdx
	.cv_loc	72 3 1444 0
	leaq	56(%rsp), %rcx
	leaq	__unnamed_39(%rip), %r8
	callq	_ZN4core3fmt8builders10DebugTuple5field17hcf6d8a0993c37a8aE
	leaq	56(%rsp), %rcx
	callq	_ZN4core3fmt8builders10DebugTuple6finish17h02634223f85efa2fE
	movb	%al, 47(%rsp)
.Ltmp214:
	.cv_loc	72 3 1444 0
	movb	47(%rsp), %al
	andb	$1, %al
	movzbl	%al, %eax
	addq	$120, %rsp
	retq
.Ltmp215:
.Lfunc_end72:
	.seh_endproc

	.def	_ZN4core3num20_$LT$impl$u20$u8$GT$18to_ascii_lowercase17h4fa90992f102fe0bE;
	.scl	3;
	.type	32;
	.endef
	.section	.text,"xr",one_only,_ZN4core3num20_$LT$impl$u20$u8$GT$18to_ascii_lowercase17h4fa90992f102fe0bE
	.p2align	4, 0x90
_ZN4core3num20_$LT$impl$u20$u8$GT$18to_ascii_lowercase17h4fa90992f102fe0bE:
.Lfunc_begin73:
	.cv_func_id 73
	.cv_file	5 "/rustc/7737e0b5c4103216d6fd8cf941b7ab9bdbaace7c\\library\\core\\src\\num\\mod.rs" "70CC75C3B2406559DDD5DE34E647F2387D5EDE7C" 2
	.cv_loc	73 5 335 0
.seh_proc _ZN4core3num20_$LT$impl$u20$u8$GT$18to_ascii_lowercase17h4fa90992f102fe0bE
	subq	$56, %rsp
	.seh_stackalloc 56
	.seh_endprologue
	movq	%rcx, 48(%rsp)
.Ltmp216:
	.cv_loc	73 5 337 0
	movb	(%rcx), %al
	movb	%al, 46(%rsp)
	callq	_ZN4core3num20_$LT$impl$u20$u8$GT$18is_ascii_uppercase17ha117005c153ec126E
	movb	%al, 47(%rsp)
	movb	46(%rsp), %al
	movb	47(%rsp), %cl
	andb	$1, %cl
	shlb	$5, %cl
	orb	%cl, %al
	.cv_loc	73 5 338 0
	addq	$56, %rsp
	retq
.Ltmp217:
.Lfunc_end73:
	.seh_endproc

	.def	_ZN4core3num20_$LT$impl$u20$u8$GT$20eq_ignore_ascii_case17h4da63fe065c759d6E;
	.scl	3;
	.type	32;
	.endef
	.section	.text,"xr",one_only,_ZN4core3num20_$LT$impl$u20$u8$GT$20eq_ignore_ascii_case17h4da63fe065c759d6E
	.p2align	4, 0x90
_ZN4core3num20_$LT$impl$u20$u8$GT$20eq_ignore_ascii_case17h4da63fe065c759d6E:
.Lfunc_begin74:
	.cv_func_id 74
	.cv_loc	74 5 361 0
.seh_proc _ZN4core3num20_$LT$impl$u20$u8$GT$20eq_ignore_ascii_case17h4da63fe065c759d6E
	subq	$72, %rsp
	.seh_stackalloc 72
	.seh_endprologue
	movq	%rdx, 40(%rsp)
	movq	%rcx, 56(%rsp)
	movq	%rdx, 64(%rsp)
.Ltmp218:
	.cv_loc	74 5 362 0
	callq	_ZN4core3num20_$LT$impl$u20$u8$GT$18to_ascii_lowercase17h4fa90992f102fe0bE
	movb	%al, 55(%rsp)
	movq	40(%rsp), %rcx
	callq	_ZN4core3num20_$LT$impl$u20$u8$GT$18to_ascii_lowercase17h4fa90992f102fe0bE
	movb	%al, 39(%rsp)
	movb	55(%rsp), %al
	movb	39(%rsp), %cl
	cmpb	%cl, %al
	sete	%al
	.cv_loc	74 5 363 0
	andb	$1, %al
	movzbl	%al, %eax
	addq	$72, %rsp
	retq
.Ltmp219:
.Lfunc_end74:
	.seh_endproc

	.def	_ZN4core3num20_$LT$impl$u20$u8$GT$18is_ascii_uppercase17ha117005c153ec126E;
	.scl	3;
	.type	32;
	.endef
	.section	.text,"xr",one_only,_ZN4core3num20_$LT$impl$u20$u8$GT$18is_ascii_uppercase17ha117005c153ec126E
	.p2align	4, 0x90
_ZN4core3num20_$LT$impl$u20$u8$GT$18is_ascii_uppercase17ha117005c153ec126E:
.Lfunc_begin75:
	.cv_func_id 75
	.cv_loc	75 5 481 0
.seh_proc _ZN4core3num20_$LT$impl$u20$u8$GT$18is_ascii_uppercase17ha117005c153ec126E
	subq	$24, %rsp
	.seh_stackalloc 24
	.seh_endprologue
	movq	%rcx, (%rsp)
	movq	%rcx, 16(%rsp)
.Ltmp220:
	.cv_loc	75 5 482 0
	movb	$65, %al
	cmpb	(%rcx), %al
	jbe	.LBB75_2
.LBB75_1:
	movb	$0, 15(%rsp)
	jmp	.LBB75_4
.LBB75_2:
	movq	(%rsp), %rax
	cmpb	$90, (%rax)
	ja	.LBB75_1
	movb	$1, 15(%rsp)
.LBB75_4:
	.cv_loc	75 5 483 0
	movb	15(%rsp), %al
	andb	$1, %al
	movzbl	%al, %eax
	addq	$24, %rsp
	retq
.Ltmp221:
.Lfunc_end75:
	.seh_endproc

	.def	_ZN4core4hint9spin_loop17hc061ea9eb2273254E;
	.scl	3;
	.type	32;
	.endef
	.section	.text,"xr",one_only,_ZN4core4hint9spin_loop17hc061ea9eb2273254E
	.p2align	4, 0x90
_ZN4core4hint9spin_loop17hc061ea9eb2273254E:
.Lfunc_begin76:
	.cv_func_id 76
	.cv_file	6 "/rustc/7737e0b5c4103216d6fd8cf941b7ab9bdbaace7c\\library\\core\\src\\hint.rs" "91019E21840AC32D7C5ABEFBFFA63D35358616E9" 2
	.cv_loc	76 6 110 0
.seh_proc _ZN4core4hint9spin_loop17hc061ea9eb2273254E
	subq	$40, %rsp
	.seh_stackalloc 40
	.seh_endprologue
.Ltmp222:
	.cv_loc	76 6 122 0
	callq	_ZN4core9core_arch3x864sse29_mm_pause17h4f7f3b58a6762df6E
	.cv_loc	76 6 155 0
	nop
	addq	$40, %rsp
	retq
.Ltmp223:
.Lfunc_end76:
	.seh_endproc

	.def	_ZN4core3mem7replace17h04895893bd60873dE;
	.scl	2;
	.type	32;
	.endef
	.section	.text,"xr",one_only,_ZN4core3mem7replace17h04895893bd60873dE
	.globl	_ZN4core3mem7replace17h04895893bd60873dE
	.p2align	4, 0x90
_ZN4core3mem7replace17h04895893bd60873dE:
.Lfunc_begin77:
	.cv_func_id 77
	.cv_file	7 "/rustc/7737e0b5c4103216d6fd8cf941b7ab9bdbaace7c\\library\\core\\src\\mem\\mod.rs" "A8F83BEBA34A61EB29D0D98732574C7236384E5C" 2
	.cv_loc	77 7 834 0
.seh_proc _ZN4core3mem7replace17h04895893bd60873dE
	.seh_handler __CxxFrameHandler3, @unwind, @except
	pushq	%rbp
	.seh_pushreg %rbp
	subq	$128, %rsp
	.seh_stackalloc 128
	leaq	128(%rsp), %rbp
	.seh_setframe %rbp, 128
	.seh_endprologue
	movq	$-2, -8(%rbp)
	movq	%r8, -96(%rbp)
	movq	%rdx, -88(%rbp)
	movq	%rcx, -80(%rbp)
	movq	%rcx, -48(%rbp)
	movq	%rdx, -40(%rbp)
	movq	%r8, -32(%rbp)
.Ltmp228:
	.cv_loc	77 7 839 0
	movb	$0, -49(%rbp)
	movb	$1, -49(%rbp)
.Ltmp224:
	callq	_ZN4core3ptr4read17h8bfead33bf7dcc5fE
.Ltmp225:
	movq	%rdx, -72(%rbp)
	movq	%rax, -64(%rbp)
	jmp	.LBB77_1
.LBB77_1:
	movq	-96(%rbp), %r8
	movq	-88(%rbp), %rdx
	movq	-80(%rbp), %rcx
	movq	-72(%rbp), %rax
	movq	-64(%rbp), %r9
	movq	%r9, -24(%rbp)
	movq	%rax, -16(%rbp)
.Ltmp229:
	.cv_loc	77 7 840 0
	movb	$0, -49(%rbp)
.Ltmp226:
	callq	_ZN4core3ptr5write17h31f02adc061dfbdfE
.Ltmp227:
	jmp	.LBB77_3
.Ltmp230:
.LBB77_3:
	.cv_loc	77 7 843 0
	movq	-72(%rbp), %rdx
	movq	-64(%rbp), %rax
	addq	$128, %rsp
	popq	%rbp
	retq
	.seh_handlerdata
	.long	($cppxdata$_ZN4core3mem7replace17h04895893bd60873dE)@IMGREL
	.section	.text,"xr",one_only,_ZN4core3mem7replace17h04895893bd60873dE
	.seh_endproc
	.def	"?dtor$2@?0?_ZN4core3mem7replace17h04895893bd60873dE@4HA";
	.scl	3;
	.type	32;
	.endef
	.p2align	4, 0x90
"?dtor$2@?0?_ZN4core3mem7replace17h04895893bd60873dE@4HA":
.seh_proc "?dtor$2@?0?_ZN4core3mem7replace17h04895893bd60873dE@4HA"
.LBB77_2:
	movq	%rdx, 16(%rsp)
	pushq	%rbp
	.seh_pushreg %rbp
	subq	$32, %rsp
	.seh_stackalloc 32
	leaq	128(%rdx), %rbp
	.seh_endprologue
	testb	$1, -49(%rbp)
	jne	.LBB77_6
	jmp	.LBB77_5
.LBB77_5:
	.cv_loc	77 7 834 0
	addq	$32, %rsp
	popq	%rbp
	retq
.LBB77_6:
	.cv_loc	77 7 843 0
	jmp	.LBB77_5
	.seh_handlerdata
	.section	.text,"xr",one_only,_ZN4core3mem7replace17h04895893bd60873dE
	.seh_endproc
	.def	"?dtor$4@?0?_ZN4core3mem7replace17h04895893bd60873dE@4HA";
	.scl	3;
	.type	32;
	.endef
	.p2align	4, 0x90
"?dtor$4@?0?_ZN4core3mem7replace17h04895893bd60873dE@4HA":
.seh_proc "?dtor$4@?0?_ZN4core3mem7replace17h04895893bd60873dE@4HA"
.LBB77_4:
	movq	%rdx, 16(%rsp)
	pushq	%rbp
	.seh_pushreg %rbp
	subq	$32, %rsp
	.seh_stackalloc 32
	leaq	128(%rdx), %rbp
	.seh_endprologue
	.cv_loc	77 7 842 0
	addq	$32, %rsp
	popq	%rbp
	retq
.Ltmp231:
.Lfunc_end77:
	.seh_handlerdata
	.section	.text,"xr",one_only,_ZN4core3mem7replace17h04895893bd60873dE
	.seh_endproc
	.section	.xdata,"dr",associative,_ZN4core3mem7replace17h04895893bd60873dE
	.p2align	2
$cppxdata$_ZN4core3mem7replace17h04895893bd60873dE:
	.long	429065506
	.long	2
	.long	($stateUnwindMap$_ZN4core3mem7replace17h04895893bd60873dE)@IMGREL
	.long	0
	.long	0
	.long	4
	.long	($ip2state$_ZN4core3mem7replace17h04895893bd60873dE)@IMGREL
	.long	120
	.long	0
	.long	1
$stateUnwindMap$_ZN4core3mem7replace17h04895893bd60873dE:
	.long	-1
	.long	"?dtor$2@?0?_ZN4core3mem7replace17h04895893bd60873dE@4HA"@IMGREL
	.long	0
	.long	"?dtor$4@?0?_ZN4core3mem7replace17h04895893bd60873dE@4HA"@IMGREL
$ip2state$_ZN4core3mem7replace17h04895893bd60873dE:
	.long	.Lfunc_begin77@IMGREL
	.long	-1
	.long	.Ltmp224@IMGREL+1
	.long	0
	.long	.Ltmp226@IMGREL+1
	.long	1
	.long	.Ltmp227@IMGREL+1
	.long	-1
	.section	.text,"xr",one_only,_ZN4core3mem7replace17h04895893bd60873dE

	.def	_ZN4core3ptr8non_null16NonNull$LT$T$GT$13new_unchecked17h518c9ebcd6795845E;
	.scl	2;
	.type	32;
	.endef
	.section	.text,"xr",one_only,_ZN4core3ptr8non_null16NonNull$LT$T$GT$13new_unchecked17h518c9ebcd6795845E
	.globl	_ZN4core3ptr8non_null16NonNull$LT$T$GT$13new_unchecked17h518c9ebcd6795845E
	.p2align	4, 0x90
_ZN4core3ptr8non_null16NonNull$LT$T$GT$13new_unchecked17h518c9ebcd6795845E:
.Lfunc_begin78:
	.cv_func_id 78
	.cv_file	8 "/rustc/7737e0b5c4103216d6fd8cf941b7ab9bdbaace7c\\library\\core\\src\\ptr\\non_null.rs" "D204EDA44093049012A4C9AAA60D34B15050D4BC" 2
	.cv_loc	78 8 194 0
.seh_proc _ZN4core3ptr8non_null16NonNull$LT$T$GT$13new_unchecked17h518c9ebcd6795845E
	subq	$16, %rsp
	.seh_stackalloc 16
	.seh_endprologue
	movq	%rcx, 8(%rsp)
.Ltmp232:
	.cv_loc	78 8 196 0
	movq	%rcx, (%rsp)
	.cv_loc	78 8 197 0
	movq	(%rsp), %rax
	addq	$16, %rsp
	retq
.Ltmp233:
.Lfunc_end78:
	.seh_endproc

	.def	_ZN4core3ptr8non_null16NonNull$LT$T$GT$13new_unchecked17hd22429c5d1a12799E;
	.scl	2;
	.type	32;
	.endef
	.section	.text,"xr",one_only,_ZN4core3ptr8non_null16NonNull$LT$T$GT$13new_unchecked17hd22429c5d1a12799E
	.globl	_ZN4core3ptr8non_null16NonNull$LT$T$GT$13new_unchecked17hd22429c5d1a12799E
	.p2align	4, 0x90
_ZN4core3ptr8non_null16NonNull$LT$T$GT$13new_unchecked17hd22429c5d1a12799E:
.Lfunc_begin79:
	.cv_func_id 79
	.cv_loc	79 8 194 0
.seh_proc _ZN4core3ptr8non_null16NonNull$LT$T$GT$13new_unchecked17hd22429c5d1a12799E
	subq	$16, %rsp
	.seh_stackalloc 16
	.seh_endprologue
	movq	%rcx, 8(%rsp)
.Ltmp234:
	.cv_loc	79 8 196 0
	movq	%rcx, (%rsp)
	.cv_loc	79 8 197 0
	movq	(%rsp), %rax
	addq	$16, %rsp
	retq
.Ltmp235:
.Lfunc_end79:
	.seh_endproc

	.def	_ZN4core3ptr8non_null16NonNull$LT$T$GT$6as_ptr17h8bbd3d45a3f23a6fE;
	.scl	2;
	.type	32;
	.endef
	.section	.text,"xr",one_only,_ZN4core3ptr8non_null16NonNull$LT$T$GT$6as_ptr17h8bbd3d45a3f23a6fE
	.globl	_ZN4core3ptr8non_null16NonNull$LT$T$GT$6as_ptr17h8bbd3d45a3f23a6fE
	.p2align	4, 0x90
_ZN4core3ptr8non_null16NonNull$LT$T$GT$6as_ptr17h8bbd3d45a3f23a6fE:
.Lfunc_begin80:
	.cv_func_id 80
	.cv_loc	80 8 277 0
.seh_proc _ZN4core3ptr8non_null16NonNull$LT$T$GT$6as_ptr17h8bbd3d45a3f23a6fE
	pushq	%rax
	.seh_stackalloc 8
	.seh_endprologue
	movq	%rcx, %rax
	movq	%rax, (%rsp)
.Ltmp236:
	.cv_loc	80 8 279 0
	popq	%rcx
	retq
.Ltmp237:
.Lfunc_end80:
	.seh_endproc

	.def	_ZN4core3ptr8non_null16NonNull$LT$T$GT$6as_ptr17hea958808717d1507E;
	.scl	2;
	.type	32;
	.endef
	.section	.text,"xr",one_only,_ZN4core3ptr8non_null16NonNull$LT$T$GT$6as_ptr17hea958808717d1507E
	.globl	_ZN4core3ptr8non_null16NonNull$LT$T$GT$6as_ptr17hea958808717d1507E
	.p2align	4, 0x90
_ZN4core3ptr8non_null16NonNull$LT$T$GT$6as_ptr17hea958808717d1507E:
.Lfunc_begin81:
	.cv_func_id 81
	.cv_loc	81 8 277 0
.seh_proc _ZN4core3ptr8non_null16NonNull$LT$T$GT$6as_ptr17hea958808717d1507E
	pushq	%rax
	.seh_stackalloc 8
	.seh_endprologue
	movq	%rcx, %rax
	movq	%rax, (%rsp)
.Ltmp238:
	.cv_loc	81 8 279 0
	popq	%rcx
	retq
.Ltmp239:
.Lfunc_end81:
	.seh_endproc

	.def	_ZN4core3ptr9const_ptr33_$LT$impl$u20$$BP$const$u20$T$GT$7is_null17h484719c14c44a646E;
	.scl	2;
	.type	32;
	.endef
	.section	.text,"xr",one_only,_ZN4core3ptr9const_ptr33_$LT$impl$u20$$BP$const$u20$T$GT$7is_null17h484719c14c44a646E
	.globl	_ZN4core3ptr9const_ptr33_$LT$impl$u20$$BP$const$u20$T$GT$7is_null17h484719c14c44a646E
	.p2align	4, 0x90
_ZN4core3ptr9const_ptr33_$LT$impl$u20$$BP$const$u20$T$GT$7is_null17h484719c14c44a646E:
.Lfunc_begin82:
	.cv_func_id 82
	.cv_file	9 "/rustc/7737e0b5c4103216d6fd8cf941b7ab9bdbaace7c\\library\\core\\src\\ptr\\const_ptr.rs" "524908C47671E1DBD4986E929AB4A3976AE2E740" 2
	.cv_loc	82 9 37 0
.seh_proc _ZN4core3ptr9const_ptr33_$LT$impl$u20$$BP$const$u20$T$GT$7is_null17h484719c14c44a646E
	subq	$56, %rsp
	.seh_stackalloc 56
	.seh_endprologue
	movq	%rcx, 40(%rsp)
	movq	%rcx, 48(%rsp)
	.cv_loc	82 9 40 0
	movq	40(%rsp), %rcx
.Ltmp240:
	xorl	%eax, %eax
	movl	%eax, %edx
	callq	_ZN4core3ptr9const_ptr33_$LT$impl$u20$$BP$const$u20$T$GT$13guaranteed_eq17h97ede7e7f31c4384E
	movb	%al, 39(%rsp)
	.cv_loc	82 9 41 0
	movb	39(%rsp), %al
	andb	$1, %al
	movzbl	%al, %eax
	addq	$56, %rsp
	retq
.Ltmp241:
.Lfunc_end82:
	.seh_endproc

	.def	_ZN4core3ptr9const_ptr33_$LT$impl$u20$$BP$const$u20$T$GT$7is_null17h72eea6b85edd802aE;
	.scl	2;
	.type	32;
	.endef
	.section	.text,"xr",one_only,_ZN4core3ptr9const_ptr33_$LT$impl$u20$$BP$const$u20$T$GT$7is_null17h72eea6b85edd802aE
	.globl	_ZN4core3ptr9const_ptr33_$LT$impl$u20$$BP$const$u20$T$GT$7is_null17h72eea6b85edd802aE
	.p2align	4, 0x90
_ZN4core3ptr9const_ptr33_$LT$impl$u20$$BP$const$u20$T$GT$7is_null17h72eea6b85edd802aE:
.Lfunc_begin83:
	.cv_func_id 83
	.cv_loc	83 9 37 0
.seh_proc _ZN4core3ptr9const_ptr33_$LT$impl$u20$$BP$const$u20$T$GT$7is_null17h72eea6b85edd802aE
	subq	$56, %rsp
	.seh_stackalloc 56
	.seh_endprologue
	movq	%rcx, 48(%rsp)
	movq	%rcx, 40(%rsp)
	.cv_loc	83 9 40 0
	movq	40(%rsp), %rcx
.Ltmp242:
	xorl	%eax, %eax
	movl	%eax, %edx
	callq	_ZN4core3ptr9const_ptr33_$LT$impl$u20$$BP$const$u20$T$GT$13guaranteed_eq17h97ede7e7f31c4384E
	movb	%al, 39(%rsp)
	.cv_loc	83 9 41 0
	movb	39(%rsp), %al
	andb	$1, %al
	movzbl	%al, %eax
	addq	$56, %rsp
	retq
.Ltmp243:
.Lfunc_end83:
	.seh_endproc

	.def	_ZN4core3ptr9const_ptr33_$LT$impl$u20$$BP$const$u20$T$GT$13guaranteed_eq17h97ede7e7f31c4384E;
	.scl	2;
	.type	32;
	.endef
	.section	.text,"xr",one_only,_ZN4core3ptr9const_ptr33_$LT$impl$u20$$BP$const$u20$T$GT$13guaranteed_eq17h97ede7e7f31c4384E
	.globl	_ZN4core3ptr9const_ptr33_$LT$impl$u20$$BP$const$u20$T$GT$13guaranteed_eq17h97ede7e7f31c4384E
	.p2align	4, 0x90
_ZN4core3ptr9const_ptr33_$LT$impl$u20$$BP$const$u20$T$GT$13guaranteed_eq17h97ede7e7f31c4384E:
.Lfunc_begin84:
	.cv_func_id 84
	.cv_loc	84 9 478 0
.seh_proc _ZN4core3ptr9const_ptr33_$LT$impl$u20$$BP$const$u20$T$GT$13guaranteed_eq17h97ede7e7f31c4384E
	subq	$32, %rsp
	.seh_stackalloc 32
	.seh_endprologue
	movq	%rcx, 8(%rsp)
	movq	%rdx, 16(%rsp)
.Ltmp244:
	.cv_loc	84 9 482 0
	cmpq	%rdx, %rcx
	sete	%al
	andb	$1, %al
	movb	%al, 31(%rsp)
	movb	31(%rsp), %al
	movb	%al, 7(%rsp)
	.cv_loc	84 9 483 0
	movb	7(%rsp), %al
	andb	$1, %al
	movzbl	%al, %eax
	addq	$32, %rsp
	retq
.Ltmp245:
.Lfunc_end84:
	.seh_endproc

	.def	_ZN4core3ptr7mut_ptr31_$LT$impl$u20$$BP$mut$u20$T$GT$7is_null17h4437aa8cb061c41bE;
	.scl	2;
	.type	32;
	.endef
	.section	.text,"xr",one_only,_ZN4core3ptr7mut_ptr31_$LT$impl$u20$$BP$mut$u20$T$GT$7is_null17h4437aa8cb061c41bE
	.globl	_ZN4core3ptr7mut_ptr31_$LT$impl$u20$$BP$mut$u20$T$GT$7is_null17h4437aa8cb061c41bE
	.p2align	4, 0x90
_ZN4core3ptr7mut_ptr31_$LT$impl$u20$$BP$mut$u20$T$GT$7is_null17h4437aa8cb061c41bE:
.Lfunc_begin85:
	.cv_func_id 85
	.cv_file	10 "/rustc/7737e0b5c4103216d6fd8cf941b7ab9bdbaace7c\\library\\core\\src\\ptr\\mut_ptr.rs" "9C0276CA40F9C26122B44547786A83B5B3539AD0" 2
	.cv_loc	85 10 36 0
.seh_proc _ZN4core3ptr7mut_ptr31_$LT$impl$u20$$BP$mut$u20$T$GT$7is_null17h4437aa8cb061c41bE
	subq	$56, %rsp
	.seh_stackalloc 56
	.seh_endprologue
	movq	%rcx, 48(%rsp)
	movq	%rcx, 40(%rsp)
	.cv_loc	85 10 39 0
	movq	40(%rsp), %rcx
.Ltmp246:
	xorl	%eax, %eax
	movl	%eax, %edx
	callq	_ZN4core3ptr7mut_ptr31_$LT$impl$u20$$BP$mut$u20$T$GT$13guaranteed_eq17h22627fc179a4f849E
	movb	%al, 39(%rsp)
	.cv_loc	85 10 40 0
	movb	39(%rsp), %al
	andb	$1, %al
	movzbl	%al, %eax
	addq	$56, %rsp
	retq
.Ltmp247:
.Lfunc_end85:
	.seh_endproc

	.def	_ZN4core3ptr7mut_ptr31_$LT$impl$u20$$BP$mut$u20$T$GT$13guaranteed_eq17h22627fc179a4f849E;
	.scl	2;
	.type	32;
	.endef
	.section	.text,"xr",one_only,_ZN4core3ptr7mut_ptr31_$LT$impl$u20$$BP$mut$u20$T$GT$13guaranteed_eq17h22627fc179a4f849E
	.globl	_ZN4core3ptr7mut_ptr31_$LT$impl$u20$$BP$mut$u20$T$GT$13guaranteed_eq17h22627fc179a4f849E
	.p2align	4, 0x90
_ZN4core3ptr7mut_ptr31_$LT$impl$u20$$BP$mut$u20$T$GT$13guaranteed_eq17h22627fc179a4f849E:
.Lfunc_begin86:
	.cv_func_id 86
	.cv_loc	86 10 500 0
.seh_proc _ZN4core3ptr7mut_ptr31_$LT$impl$u20$$BP$mut$u20$T$GT$13guaranteed_eq17h22627fc179a4f849E
	subq	$32, %rsp
	.seh_stackalloc 32
	.seh_endprologue
	movq	%rcx, 8(%rsp)
	movq	%rdx, 16(%rsp)
.Ltmp248:
	.cv_loc	86 10 504 0
	cmpq	%rdx, %rcx
	sete	%al
	andb	$1, %al
	movb	%al, 31(%rsp)
	movb	31(%rsp), %al
	movb	%al, 7(%rsp)
	.cv_loc	86 10 505 0
	movb	7(%rsp), %al
	andb	$1, %al
	movzbl	%al, %eax
	addq	$32, %rsp
	retq
.Ltmp249:
.Lfunc_end86:
	.seh_endproc

	.def	_ZN4core3ptr4read17h8bfead33bf7dcc5fE;
	.scl	2;
	.type	32;
	.endef
	.section	.text,"xr",one_only,_ZN4core3ptr4read17h8bfead33bf7dcc5fE
	.globl	_ZN4core3ptr4read17h8bfead33bf7dcc5fE
	.p2align	4, 0x90
_ZN4core3ptr4read17h8bfead33bf7dcc5fE:
.Lfunc_begin87:
	.cv_func_id 87
	.cv_loc	87 2 685 0
.seh_proc _ZN4core3ptr4read17h8bfead33bf7dcc5fE
	subq	$120, %rsp
	.seh_stackalloc 120
	.seh_endprologue
	movq	%rcx, 24(%rsp)
	movq	%rcx, 56(%rsp)
.Ltmp250:
	.cv_file	11 "/rustc/7737e0b5c4103216d6fd8cf941b7ab9bdbaace7c\\library\\core\\src\\mem\\maybe_uninit.rs" "B3A00C62E54889D645367F420D413AF9579CD3A0" 2
	.cv_inline_site_id 88 within 87 inlined_at 2 693 0
	.cv_loc	88 11 322 0
	movq	64(%rsp), %rax
	movq	72(%rsp), %rcx
.Ltmp251:
	.cv_loc	87 2 693 0
	movq	%rcx, 40(%rsp)
	movq	%rax, 32(%rsp)
	leaq	32(%rsp), %rax
	movq	%rax, 80(%rsp)
	.cv_loc	87 2 701 0
	movq	24(%rsp), %rax
.Ltmp252:
	vmovdqu	(%rax), %xmm0
	vmovdqa	%xmm0, 32(%rsp)
	.cv_loc	87 2 702 0
	movq	32(%rsp), %rcx
	movq	%rcx, 8(%rsp)
	movq	40(%rsp), %rax
	movq	%rax, 16(%rsp)
	movq	%rcx, 88(%rsp)
	movq	%rax, 96(%rsp)
	movq	%rcx, 104(%rsp)
	movq	%rax, 112(%rsp)
.Ltmp253:
	.cv_loc	87 2 704 0
	movq	16(%rsp), %rdx
	movq	8(%rsp), %rax
	addq	$120, %rsp
	retq
.Ltmp254:
.Lfunc_end87:
	.seh_endproc

	.def	_ZN4core3ptr5write17h31f02adc061dfbdfE;
	.scl	2;
	.type	32;
	.endef
	.section	.text,"xr",one_only,_ZN4core3ptr5write17h31f02adc061dfbdfE
	.globl	_ZN4core3ptr5write17h31f02adc061dfbdfE
	.p2align	4, 0x90
_ZN4core3ptr5write17h31f02adc061dfbdfE:
.Lfunc_begin88:
	.cv_func_id 89
	.cv_loc	89 2 880 0
.seh_proc _ZN4core3ptr5write17h31f02adc061dfbdfE
	subq	$24, %rsp
	.seh_stackalloc 24
	.seh_endprologue
	movq	%rdx, (%rsp)
	movq	%r8, 8(%rsp)
	movq	%rcx, 16(%rsp)
.Ltmp255:
	.cv_loc	89 2 892 0
	movq	(%rsp), %rax
	movq	%rax, (%rcx)
	movq	8(%rsp), %rax
	movq	%rax, 8(%rcx)
	.cv_loc	89 2 895 0
	addq	$24, %rsp
	retq
.Ltmp256:
.Lfunc_end88:
	.seh_endproc

	.def	_ZN4core5clone5impls54_$LT$impl$u20$core..clone..Clone$u20$for$u20$$RF$T$GT$5clone17hc0e0e08863ca63d7E;
	.scl	2;
	.type	32;
	.endef
	.section	.text,"xr",one_only,_ZN4core5clone5impls54_$LT$impl$u20$core..clone..Clone$u20$for$u20$$RF$T$GT$5clone17hc0e0e08863ca63d7E
	.globl	_ZN4core5clone5impls54_$LT$impl$u20$core..clone..Clone$u20$for$u20$$RF$T$GT$5clone17hc0e0e08863ca63d7E
	.p2align	4, 0x90
_ZN4core5clone5impls54_$LT$impl$u20$core..clone..Clone$u20$for$u20$$RF$T$GT$5clone17hc0e0e08863ca63d7E:
.Lfunc_begin89:
	.cv_func_id 90
	.cv_file	12 "/rustc/7737e0b5c4103216d6fd8cf941b7ab9bdbaace7c\\library\\core\\src\\clone.rs" "41731232DD0F800FC7509FF13FA7FBE852D8F4BA" 2
	.cv_loc	90 12 227 0
.seh_proc _ZN4core5clone5impls54_$LT$impl$u20$core..clone..Clone$u20$for$u20$$RF$T$GT$5clone17hc0e0e08863ca63d7E
	pushq	%rax
	.seh_stackalloc 8
	.seh_endprologue
	movq	%rcx, (%rsp)
.Ltmp257:
	.cv_loc	90 12 228 0
	movq	(%rcx), %rax
	movq	8(%rcx), %rdx
	.cv_loc	90 12 229 0
	popq	%rcx
	retq
.Ltmp258:
.Lfunc_end89:
	.seh_endproc

	.def	_ZN4core3cmp3Ord3min17hea7c24a2dd5b6558E;
	.scl	2;
	.type	32;
	.endef
	.section	.text,"xr",one_only,_ZN4core3cmp3Ord3min17hea7c24a2dd5b6558E
	.globl	_ZN4core3cmp3Ord3min17hea7c24a2dd5b6558E
	.p2align	4, 0x90
_ZN4core3cmp3Ord3min17hea7c24a2dd5b6558E:
.Lfunc_begin90:
	.cv_func_id 91
	.cv_file	13 "/rustc/7737e0b5c4103216d6fd8cf941b7ab9bdbaace7c\\library\\core\\src\\cmp.rs" "073981C02B363E2F76B8276F0AB582196F9B058F" 2
	.cv_loc	91 13 816 0
.seh_proc _ZN4core3cmp3Ord3min17hea7c24a2dd5b6558E
	subq	$56, %rsp
	.seh_stackalloc 56
	.seh_endprologue
	movq	%rcx, 40(%rsp)
	movq	%rdx, 48(%rsp)
.Ltmp259:
	.cv_loc	91 13 820 0
	callq	_ZN4core3cmp6min_by17h916823b00d552bb7E
	movq	%rax, 32(%rsp)
	.cv_loc	91 13 821 0
	movq	32(%rsp), %rax
	addq	$56, %rsp
	retq
.Ltmp260:
.Lfunc_end90:
	.seh_endproc

	.def	_ZN4core3cmp3min17h0a452ed7bdbbd747E;
	.scl	2;
	.type	32;
	.endef
	.section	.text,"xr",one_only,_ZN4core3cmp3min17h0a452ed7bdbbd747E
	.globl	_ZN4core3cmp3min17h0a452ed7bdbbd747E
	.p2align	4, 0x90
_ZN4core3cmp3min17h0a452ed7bdbbd747E:
.Lfunc_begin91:
	.cv_func_id 92
	.cv_loc	92 13 1198 0
.seh_proc _ZN4core3cmp3min17h0a452ed7bdbbd747E
	subq	$56, %rsp
	.seh_stackalloc 56
	.seh_endprologue
	movq	%rcx, 40(%rsp)
	movq	%rdx, 48(%rsp)
.Ltmp261:
	.cv_loc	92 13 1199 0
	callq	_ZN4core3cmp3Ord3min17hea7c24a2dd5b6558E
	movq	%rax, 32(%rsp)
	.cv_loc	92 13 1200 0
	movq	32(%rsp), %rax
	addq	$56, %rsp
	retq
.Ltmp262:
.Lfunc_end91:
	.seh_endproc

	.def	_ZN4core3cmp6min_by17h916823b00d552bb7E;
	.scl	2;
	.type	32;
	.endef
	.section	.text,"xr",one_only,_ZN4core3cmp6min_by17h916823b00d552bb7E
	.globl	_ZN4core3cmp6min_by17h916823b00d552bb7E
	.p2align	4, 0x90
_ZN4core3cmp6min_by17h916823b00d552bb7E:
.Lfunc_begin92:
	.cv_func_id 93
	.cv_loc	93 13 1217 0
.seh_proc _ZN4core3cmp6min_by17h916823b00d552bb7E
	.seh_handler __CxxFrameHandler3, @unwind, @except
	pushq	%rbp
	.seh_pushreg %rbp
	subq	$112, %rsp
	.seh_stackalloc 112
	leaq	112(%rsp), %rbp
	.seh_setframe %rbp, 112
	.seh_endprologue
	movq	$-2, -8(%rbp)
	movq	%rcx, -64(%rbp)
	movq	%rdx, -56(%rbp)
.Ltmp265:
	.cv_loc	93 13 1218 0
	movb	$0, -9(%rbp)
	movb	$0, -10(%rbp)
	movb	$1, -9(%rbp)
	movb	$1, -10(%rbp)
	leaq	-64(%rbp), %rax
	movq	%rax, -32(%rbp)
	leaq	-56(%rbp), %rax
	movq	%rax, -24(%rbp)
	movq	-32(%rbp), %rcx
	movq	-24(%rbp), %rdx
.Ltmp263:
	callq	_ZN4core3ops8function6FnOnce9call_once17h9d21c47419a6449eE
.Ltmp264:
	movb	%al, -65(%rbp)
	jmp	.LBB92_1
.LBB92_1:
	movb	-65(%rbp), %al
	movb	%al, -33(%rbp)
	movb	-33(%rbp), %al
	incb	%al
	subb	$2, %al
	jb	.LBB92_5
	jmp	.LBB92_14
.LBB92_14:
	jmp	.LBB92_6
	ud2
.LBB92_5:
	.cv_loc	93 13 1219 0
	movb	$0, -9(%rbp)
	movq	-64(%rbp), %rax
	movq	%rax, -48(%rbp)
	jmp	.LBB92_7
.LBB92_6:
	.cv_loc	93 13 1220 0
	movb	$0, -10(%rbp)
	movq	-56(%rbp), %rax
	movq	%rax, -48(%rbp)
.LBB92_7:
	.cv_loc	93 13 1222 0
	testb	$1, -10(%rbp)
	jne	.LBB92_9
.LBB92_8:
	testb	$1, -9(%rbp)
	jne	.LBB92_13
	jmp	.LBB92_12
.LBB92_9:
	jmp	.LBB92_8
.LBB92_12:
	movq	-48(%rbp), %rax
	addq	$112, %rsp
	popq	%rbp
	retq
.LBB92_13:
	jmp	.LBB92_12
	.seh_handlerdata
	.long	($cppxdata$_ZN4core3cmp6min_by17h916823b00d552bb7E)@IMGREL
	.section	.text,"xr",one_only,_ZN4core3cmp6min_by17h916823b00d552bb7E
	.seh_endproc
	.def	"?dtor$2@?0?_ZN4core3cmp6min_by17h916823b00d552bb7E@4HA";
	.scl	3;
	.type	32;
	.endef
	.p2align	4, 0x90
"?dtor$2@?0?_ZN4core3cmp6min_by17h916823b00d552bb7E@4HA":
.seh_proc "?dtor$2@?0?_ZN4core3cmp6min_by17h916823b00d552bb7E@4HA"
.LBB92_2:
	movq	%rdx, 16(%rsp)
	pushq	%rbp
	.seh_pushreg %rbp
	subq	$32, %rsp
	.seh_stackalloc 32
	leaq	112(%rdx), %rbp
	.seh_endprologue
	addq	$32, %rsp
	popq	%rbp
	retq
	.seh_handlerdata
	.section	.text,"xr",one_only,_ZN4core3cmp6min_by17h916823b00d552bb7E
	.seh_endproc
	.def	"?dtor$3@?0?_ZN4core3cmp6min_by17h916823b00d552bb7E@4HA";
	.scl	3;
	.type	32;
	.endef
	.p2align	4, 0x90
"?dtor$3@?0?_ZN4core3cmp6min_by17h916823b00d552bb7E@4HA":
.seh_proc "?dtor$3@?0?_ZN4core3cmp6min_by17h916823b00d552bb7E@4HA"
.LBB92_3:
	movq	%rdx, 16(%rsp)
	pushq	%rbp
	.seh_pushreg %rbp
	subq	$32, %rsp
	.seh_stackalloc 32
	leaq	112(%rdx), %rbp
	.seh_endprologue
	testb	$1, -9(%rbp)
	jne	.LBB92_11
	jmp	.LBB92_10
.LBB92_10:
	.cv_loc	93 13 1217 0
	addq	$32, %rsp
	popq	%rbp
	retq
.LBB92_11:
	.cv_loc	93 13 1222 0
	jmp	.LBB92_10
.Ltmp266:
.Lfunc_end92:
	.seh_handlerdata
	.section	.text,"xr",one_only,_ZN4core3cmp6min_by17h916823b00d552bb7E
	.seh_endproc
	.section	.xdata,"dr",associative,_ZN4core3cmp6min_by17h916823b00d552bb7E
	.p2align	2
$cppxdata$_ZN4core3cmp6min_by17h916823b00d552bb7E:
	.long	429065506
	.long	2
	.long	($stateUnwindMap$_ZN4core3cmp6min_by17h916823b00d552bb7E)@IMGREL
	.long	0
	.long	0
	.long	3
	.long	($ip2state$_ZN4core3cmp6min_by17h916823b00d552bb7E)@IMGREL
	.long	104
	.long	0
	.long	1
$stateUnwindMap$_ZN4core3cmp6min_by17h916823b00d552bb7E:
	.long	-1
	.long	"?dtor$3@?0?_ZN4core3cmp6min_by17h916823b00d552bb7E@4HA"@IMGREL
	.long	0
	.long	"?dtor$2@?0?_ZN4core3cmp6min_by17h916823b00d552bb7E@4HA"@IMGREL
$ip2state$_ZN4core3cmp6min_by17h916823b00d552bb7E:
	.long	.Lfunc_begin92@IMGREL
	.long	-1
	.long	.Ltmp263@IMGREL+1
	.long	1
	.long	.Ltmp264@IMGREL+1
	.long	-1
	.section	.text,"xr",one_only,_ZN4core3cmp6min_by17h916823b00d552bb7E

	.def	_ZN4core3cmp5impls59_$LT$impl$u20$core..cmp..PartialEq$u20$for$u20$$LP$$RP$$GT$2eq17heb55c11eaf3a27f2E;
	.scl	3;
	.type	32;
	.endef
	.section	.text,"xr",one_only,_ZN4core3cmp5impls59_$LT$impl$u20$core..cmp..PartialEq$u20$for$u20$$LP$$RP$$GT$2eq17heb55c11eaf3a27f2E
	.p2align	4, 0x90
_ZN4core3cmp5impls59_$LT$impl$u20$core..cmp..PartialEq$u20$for$u20$$LP$$RP$$GT$2eq17heb55c11eaf3a27f2E:
.Lfunc_begin93:
	.cv_func_id 94
	.cv_loc	94 13 1326 0
.seh_proc _ZN4core3cmp5impls59_$LT$impl$u20$core..cmp..PartialEq$u20$for$u20$$LP$$RP$$GT$2eq17heb55c11eaf3a27f2E
	subq	$16, %rsp
	.seh_stackalloc 16
	.seh_endprologue
	movq	%rcx, (%rsp)
	movq	%rdx, 8(%rsp)
.Ltmp267:
	.cv_loc	94 13 1328 0
	movb	$1, %al
	andb	$1, %al
	movzbl	%al, %eax
	addq	$16, %rsp
	retq
.Ltmp268:
.Lfunc_end93:
	.seh_endproc

	.def	_ZN95_$LT$core..ops..control_flow..ControlFlow$LT$B$C$C$GT$$u20$as$u20$core..ops..try_trait..Try$GT$11from_output17h084b96c250ccc620E;
	.scl	2;
	.type	32;
	.endef
	.section	.text,"xr",one_only,_ZN95_$LT$core..ops..control_flow..ControlFlow$LT$B$C$C$GT$$u20$as$u20$core..ops..try_trait..Try$GT$11from_output17h084b96c250ccc620E
	.globl	_ZN95_$LT$core..ops..control_flow..ControlFlow$LT$B$C$C$GT$$u20$as$u20$core..ops..try_trait..Try$GT$11from_output17h084b96c250ccc620E
	.p2align	4, 0x90
_ZN95_$LT$core..ops..control_flow..ControlFlow$LT$B$C$C$GT$$u20$as$u20$core..ops..try_trait..Try$GT$11from_output17h084b96c250ccc620E:
.Lfunc_begin94:
	.cv_func_id 95
	.cv_file	14 "/rustc/7737e0b5c4103216d6fd8cf941b7ab9bdbaace7c\\library\\core\\src\\ops\\control_flow.rs" "358008375A4C8397714F265F8D759BE7D2481351" 2
	.cv_loc	95 14 103 0
.seh_proc _ZN95_$LT$core..ops..control_flow..ControlFlow$LT$B$C$C$GT$$u20$as$u20$core..ops..try_trait..Try$GT$11from_output17h084b96c250ccc620E
	subq	$16, %rsp
	.seh_stackalloc 16
	.seh_endprologue
.Ltmp269:
	.cv_loc	95 14 104 0
	movb	$0, 7(%rsp)
	.cv_loc	95 14 105 0
	movb	7(%rsp), %al
	andb	$1, %al
	movzbl	%al, %eax
	addq	$16, %rsp
	retq
.Ltmp270:
.Lfunc_end94:
	.seh_endproc

	.def	_ZN95_$LT$core..ops..control_flow..ControlFlow$LT$B$C$C$GT$$u20$as$u20$core..ops..try_trait..Try$GT$11from_output17hf1cf6c9ccb3d2c38E;
	.scl	2;
	.type	32;
	.endef
	.section	.text,"xr",one_only,_ZN95_$LT$core..ops..control_flow..ControlFlow$LT$B$C$C$GT$$u20$as$u20$core..ops..try_trait..Try$GT$11from_output17hf1cf6c9ccb3d2c38E
	.globl	_ZN95_$LT$core..ops..control_flow..ControlFlow$LT$B$C$C$GT$$u20$as$u20$core..ops..try_trait..Try$GT$11from_output17hf1cf6c9ccb3d2c38E
	.p2align	4, 0x90
_ZN95_$LT$core..ops..control_flow..ControlFlow$LT$B$C$C$GT$$u20$as$u20$core..ops..try_trait..Try$GT$11from_output17hf1cf6c9ccb3d2c38E:
.Lfunc_begin95:
	.cv_func_id 96
	.cv_loc	96 14 103 0
.seh_proc _ZN95_$LT$core..ops..control_flow..ControlFlow$LT$B$C$C$GT$$u20$as$u20$core..ops..try_trait..Try$GT$11from_output17hf1cf6c9ccb3d2c38E
	subq	$24, %rsp
	.seh_stackalloc 24
	.seh_endprologue
.Ltmp271:
	.cv_loc	96 14 104 0
	movq	$0, (%rsp)
	.cv_loc	96 14 105 0
	movq	(%rsp), %rax
	movq	8(%rsp), %rdx
	addq	$24, %rsp
	retq
.Ltmp272:
.Lfunc_end95:
	.seh_endproc

	.def	_ZN95_$LT$core..ops..control_flow..ControlFlow$LT$B$C$C$GT$$u20$as$u20$core..ops..try_trait..Try$GT$6branch17h7f908e23b1936012E;
	.scl	2;
	.type	32;
	.endef
	.section	.text,"xr",one_only,_ZN95_$LT$core..ops..control_flow..ControlFlow$LT$B$C$C$GT$$u20$as$u20$core..ops..try_trait..Try$GT$6branch17h7f908e23b1936012E
	.globl	_ZN95_$LT$core..ops..control_flow..ControlFlow$LT$B$C$C$GT$$u20$as$u20$core..ops..try_trait..Try$GT$6branch17h7f908e23b1936012E
	.p2align	4, 0x90
_ZN95_$LT$core..ops..control_flow..ControlFlow$LT$B$C$C$GT$$u20$as$u20$core..ops..try_trait..Try$GT$6branch17h7f908e23b1936012E:
.Lfunc_begin96:
	.cv_func_id 97
	.cv_loc	97 14 108 0
.seh_proc _ZN95_$LT$core..ops..control_flow..ControlFlow$LT$B$C$C$GT$$u20$as$u20$core..ops..try_trait..Try$GT$6branch17h7f908e23b1936012E
	subq	$32, %rsp
	.seh_stackalloc 32
	.seh_endprologue
	andb	$1, %cl
	movb	%cl, 6(%rsp)
.Ltmp273:
	.cv_loc	97 14 109 0
	movzbl	6(%rsp), %eax
	testb	$1, %al
	je	.LBB96_2
	jmp	.LBB96_5
.LBB96_5:
	jmp	.LBB96_3
	ud2
.LBB96_2:
.Ltmp274:
	.cv_loc	97 14 110 0
	movb	$0, 7(%rsp)
.Ltmp275:
	.cv_loc	97 14 110 0
	jmp	.LBB96_4
.LBB96_3:
.Ltmp276:
	.cv_loc	97 14 111 0
	movb	$1, 7(%rsp)
.Ltmp277:
.LBB96_4:
	.cv_loc	97 14 113 0
	movb	7(%rsp), %al
	andb	$1, %al
	movzbl	%al, %eax
	addq	$32, %rsp
	retq
.Ltmp278:
.Lfunc_end96:
	.seh_endproc

	.def	_ZN95_$LT$core..ops..control_flow..ControlFlow$LT$B$C$C$GT$$u20$as$u20$core..ops..try_trait..Try$GT$6branch17ha934cec92eaba749E;
	.scl	2;
	.type	32;
	.endef
	.section	.text,"xr",one_only,_ZN95_$LT$core..ops..control_flow..ControlFlow$LT$B$C$C$GT$$u20$as$u20$core..ops..try_trait..Try$GT$6branch17ha934cec92eaba749E
	.globl	_ZN95_$LT$core..ops..control_flow..ControlFlow$LT$B$C$C$GT$$u20$as$u20$core..ops..try_trait..Try$GT$6branch17ha934cec92eaba749E
	.p2align	4, 0x90
_ZN95_$LT$core..ops..control_flow..ControlFlow$LT$B$C$C$GT$$u20$as$u20$core..ops..try_trait..Try$GT$6branch17ha934cec92eaba749E:
.Lfunc_begin97:
	.cv_func_id 98
	.cv_loc	98 14 108 0
.seh_proc _ZN95_$LT$core..ops..control_flow..ControlFlow$LT$B$C$C$GT$$u20$as$u20$core..ops..try_trait..Try$GT$6branch17ha934cec92eaba749E
	subq	$56, %rsp
	.seh_stackalloc 56
	.seh_endprologue
	movq	%rcx, (%rsp)
	movq	%rdx, 8(%rsp)
.Ltmp279:
	.cv_loc	98 14 109 0
	movq	(%rsp), %rax
	testq	%rax, %rax
	je	.LBB97_2
	jmp	.LBB97_5
.LBB97_5:
	jmp	.LBB97_3
	ud2
.LBB97_2:
.Ltmp280:
	.cv_loc	98 14 110 0
	movq	$0, 16(%rsp)
.Ltmp281:
	.cv_loc	98 14 110 0
	jmp	.LBB97_4
.LBB97_3:
	.cv_loc	98 14 111 0
	movq	8(%rsp), %rax
	movq	%rax, 48(%rsp)
.Ltmp282:
	.cv_loc	98 14 111 0
	movq	%rax, 32(%rsp)
	movq	32(%rsp), %rax
	movq	%rax, 24(%rsp)
	movq	$1, 16(%rsp)
.Ltmp283:
.LBB97_4:
	.cv_loc	98 14 113 0
	movq	16(%rsp), %rax
	movq	24(%rsp), %rdx
	addq	$56, %rsp
	retq
.Ltmp284:
.Lfunc_end97:
	.seh_endproc

	.def	_ZN104_$LT$core..ops..control_flow..ControlFlow$LT$B$C$C$GT$$u20$as$u20$core..ops..try_trait..FromResidual$GT$13from_residual17h0b04be1c55d71da0E;
	.scl	2;
	.type	32;
	.endef
	.section	.text,"xr",one_only,_ZN104_$LT$core..ops..control_flow..ControlFlow$LT$B$C$C$GT$$u20$as$u20$core..ops..try_trait..FromResidual$GT$13from_residual17h0b04be1c55d71da0E
	.globl	_ZN104_$LT$core..ops..control_flow..ControlFlow$LT$B$C$C$GT$$u20$as$u20$core..ops..try_trait..FromResidual$GT$13from_residual17h0b04be1c55d71da0E
	.p2align	4, 0x90
_ZN104_$LT$core..ops..control_flow..ControlFlow$LT$B$C$C$GT$$u20$as$u20$core..ops..try_trait..FromResidual$GT$13from_residual17h0b04be1c55d71da0E:
.Lfunc_begin98:
	.cv_func_id 99
	.cv_loc	99 14 119 0
.seh_proc _ZN104_$LT$core..ops..control_flow..ControlFlow$LT$B$C$C$GT$$u20$as$u20$core..ops..try_trait..FromResidual$GT$13from_residual17h0b04be1c55d71da0E
	subq	$24, %rsp
	.seh_stackalloc 24
	.seh_endprologue
.Ltmp285:
	.cv_loc	99 14 121 0
	movb	$1, 7(%rsp)
.Ltmp286:
	.cv_loc	99 14 123 0
	movb	7(%rsp), %al
	andb	$1, %al
	movzbl	%al, %eax
	addq	$24, %rsp
	retq
.Ltmp287:
.Lfunc_end98:
	.seh_endproc

	.def	_ZN104_$LT$core..ops..control_flow..ControlFlow$LT$B$C$C$GT$$u20$as$u20$core..ops..try_trait..FromResidual$GT$13from_residual17h386ebcd42c843c4eE;
	.scl	2;
	.type	32;
	.endef
	.section	.text,"xr",one_only,_ZN104_$LT$core..ops..control_flow..ControlFlow$LT$B$C$C$GT$$u20$as$u20$core..ops..try_trait..FromResidual$GT$13from_residual17h386ebcd42c843c4eE
	.globl	_ZN104_$LT$core..ops..control_flow..ControlFlow$LT$B$C$C$GT$$u20$as$u20$core..ops..try_trait..FromResidual$GT$13from_residual17h386ebcd42c843c4eE
	.p2align	4, 0x90
_ZN104_$LT$core..ops..control_flow..ControlFlow$LT$B$C$C$GT$$u20$as$u20$core..ops..try_trait..FromResidual$GT$13from_residual17h386ebcd42c843c4eE:
.Lfunc_begin99:
	.cv_func_id 100
	.cv_loc	100 14 119 0
.seh_proc _ZN104_$LT$core..ops..control_flow..ControlFlow$LT$B$C$C$GT$$u20$as$u20$core..ops..try_trait..FromResidual$GT$13from_residual17h386ebcd42c843c4eE
	subq	$32, %rsp
	.seh_stackalloc 32
	.seh_endprologue
	movq	%rcx, (%rsp)
.Ltmp288:
	.cv_loc	100 14 121 0
	movq	(%rsp), %rax
	movq	%rax, 24(%rsp)
.Ltmp289:
	.cv_loc	100 14 121 0
	movq	%rax, 16(%rsp)
	movq	$1, 8(%rsp)
.Ltmp290:
	.cv_loc	100 14 123 0
	movq	8(%rsp), %rax
	movq	16(%rsp), %rdx
	addq	$32, %rsp
	retq
.Ltmp291:
.Lfunc_end99:
	.seh_endproc

	.def	_ZN4core3ops12control_flow24ControlFlow$LT$B$C$C$GT$11break_value17h208cc0e113707440E;
	.scl	2;
	.type	32;
	.endef
	.section	.text,"xr",one_only,_ZN4core3ops12control_flow24ControlFlow$LT$B$C$C$GT$11break_value17h208cc0e113707440E
	.globl	_ZN4core3ops12control_flow24ControlFlow$LT$B$C$C$GT$11break_value17h208cc0e113707440E
	.p2align	4, 0x90
_ZN4core3ops12control_flow24ControlFlow$LT$B$C$C$GT$11break_value17h208cc0e113707440E:
.Lfunc_begin100:
	.cv_func_id 101
	.cv_loc	101 14 178 0
.seh_proc _ZN4core3ops12control_flow24ControlFlow$LT$B$C$C$GT$11break_value17h208cc0e113707440E
	subq	$40, %rsp
	.seh_stackalloc 40
	.seh_endprologue
	movq	%rcx, (%rsp)
	movq	%rdx, 8(%rsp)
.Ltmp292:
	.cv_loc	101 14 179 0
	movq	(%rsp), %rax
	testq	%rax, %rax
	je	.LBB100_2
	jmp	.LBB100_7
.LBB100_7:
	jmp	.LBB100_3
	ud2
.LBB100_2:
	.cv_loc	101 14 180 0
	movq	$0, 16(%rsp)
	jmp	.LBB100_4
.LBB100_3:
	.cv_loc	101 14 181 0
	movq	8(%rsp), %rax
	movq	%rax, 32(%rsp)
.Ltmp293:
	.cv_loc	101 14 181 0
	movq	%rax, 24(%rsp)
	movq	$1, 16(%rsp)
.Ltmp294:
.LBB100_4:
	.cv_loc	101 14 183 0
	cmpq	$1, (%rsp)
	jne	.LBB100_6
.LBB100_5:
	movq	16(%rsp), %rax
	movq	24(%rsp), %rdx
	addq	$40, %rsp
	retq
.LBB100_6:
	jmp	.LBB100_5
.Ltmp295:
.Lfunc_end100:
	.seh_endproc

	.def	_ZN4core3ops8function5impls79_$LT$impl$u20$core..ops..function..FnMut$LT$A$GT$$u20$for$u20$$RF$mut$u20$F$GT$8call_mut17h802b57463a2736d6E;
	.scl	2;
	.type	32;
	.endef
	.section	.text,"xr",one_only,_ZN4core3ops8function5impls79_$LT$impl$u20$core..ops..function..FnMut$LT$A$GT$$u20$for$u20$$RF$mut$u20$F$GT$8call_mut17h802b57463a2736d6E
	.globl	_ZN4core3ops8function5impls79_$LT$impl$u20$core..ops..function..FnMut$LT$A$GT$$u20$for$u20$$RF$mut$u20$F$GT$8call_mut17h802b57463a2736d6E
	.p2align	4, 0x90
_ZN4core3ops8function5impls79_$LT$impl$u20$core..ops..function..FnMut$LT$A$GT$$u20$for$u20$$RF$mut$u20$F$GT$8call_mut17h802b57463a2736d6E:
.Lfunc_begin101:
	.cv_func_id 102
	.cv_loc	102 1 268 0
.seh_proc _ZN4core3ops8function5impls79_$LT$impl$u20$core..ops..function..FnMut$LT$A$GT$$u20$for$u20$$RF$mut$u20$F$GT$8call_mut17h802b57463a2736d6E
	subq	$56, %rsp
	.seh_stackalloc 56
	.seh_endprologue
	movq	%rdx, 40(%rsp)
	movq	%rcx, 48(%rsp)
.Ltmp296:
	.cv_loc	102 1 269 0
	movq	(%rcx), %rcx
	movq	40(%rsp), %rdx
	callq	_ZN57_$LT$log..Level$u20$as$u20$core..str..traits..FromStr$GT$8from_str28_$u7b$$u7b$closure$u7d$$u7d$17h7a8e9342edb29c89E
	movb	%al, 39(%rsp)
	.cv_loc	102 1 270 0
	movb	39(%rsp), %al
	andb	$1, %al
	movzbl	%al, %eax
	addq	$56, %rsp
	retq
.Ltmp297:
.Lfunc_end101:
	.seh_endproc

	.def	_ZN4core3ops8function5impls80_$LT$impl$u20$core..ops..function..FnOnce$LT$A$GT$$u20$for$u20$$RF$mut$u20$F$GT$9call_once17h2369dd6f0a588a72E;
	.scl	2;
	.type	32;
	.endef
	.section	.text,"xr",one_only,_ZN4core3ops8function5impls80_$LT$impl$u20$core..ops..function..FnOnce$LT$A$GT$$u20$for$u20$$RF$mut$u20$F$GT$9call_once17h2369dd6f0a588a72E
	.globl	_ZN4core3ops8function5impls80_$LT$impl$u20$core..ops..function..FnOnce$LT$A$GT$$u20$for$u20$$RF$mut$u20$F$GT$9call_once17h2369dd6f0a588a72E
	.p2align	4, 0x90
_ZN4core3ops8function5impls80_$LT$impl$u20$core..ops..function..FnOnce$LT$A$GT$$u20$for$u20$$RF$mut$u20$F$GT$9call_once17h2369dd6f0a588a72E:
.Lfunc_begin102:
	.cv_func_id 103
	.cv_loc	103 1 279 0
.seh_proc _ZN4core3ops8function5impls80_$LT$impl$u20$core..ops..function..FnOnce$LT$A$GT$$u20$for$u20$$RF$mut$u20$F$GT$9call_once17h2369dd6f0a588a72E
	subq	$56, %rsp
	.seh_stackalloc 56
	.seh_endprologue
	movq	%rdx, 40(%rsp)
	movq	%rcx, 48(%rsp)
.Ltmp298:
	.cv_loc	103 1 280 0
	movq	40(%rsp), %rdx
	callq	_ZN57_$LT$log..Level$u20$as$u20$core..str..traits..FromStr$GT$8from_str28_$u7b$$u7b$closure$u7d$$u7d$17h3e0ea173b730a547E
	movq	%rax, 32(%rsp)
	.cv_loc	103 1 281 0
	movq	32(%rsp), %rax
	addq	$56, %rsp
	retq
.Ltmp299:
.Lfunc_end102:
	.seh_endproc

	.def	_ZN4core4iter8adapters6filter19Filter$LT$I$C$P$GT$3new17hc3fb53859d64613eE;
	.scl	2;
	.type	32;
	.endef
	.section	.text,"xr",one_only,_ZN4core4iter8adapters6filter19Filter$LT$I$C$P$GT$3new17hc3fb53859d64613eE
	.globl	_ZN4core4iter8adapters6filter19Filter$LT$I$C$P$GT$3new17hc3fb53859d64613eE
	.p2align	4, 0x90
_ZN4core4iter8adapters6filter19Filter$LT$I$C$P$GT$3new17hc3fb53859d64613eE:
.Lfunc_begin103:
	.cv_func_id 104
	.cv_file	15 "/rustc/7737e0b5c4103216d6fd8cf941b7ab9bdbaace7c\\library\\core\\src\\iter\\adapters\\filter.rs" "86B03BCCC0062DF7D860560F2CF1AF76535BD53F" 2
	.cv_loc	104 15 21 0
.seh_proc _ZN4core4iter8adapters6filter19Filter$LT$I$C$P$GT$3new17hc3fb53859d64613eE
	subq	$40, %rsp
	.seh_stackalloc 40
	.seh_endprologue
	movq	%rcx, 16(%rsp)
	movq	%rdx, 24(%rsp)
.Ltmp300:
	.cv_loc	104 15 22 0
	movq	%rcx, (%rsp)
	movq	%rdx, 8(%rsp)
	.cv_loc	104 15 23 0
	movq	(%rsp), %rax
	movq	8(%rsp), %rdx
	addq	$40, %rsp
	retq
.Ltmp301:
.Lfunc_end103:
	.seh_endproc

	.def	_ZN108_$LT$core..iter..adapters..filter..Filter$LT$I$C$P$GT$$u20$as$u20$core..iter..traits..iterator..Iterator$GT$4next17h2dba6e981132b14bE;
	.scl	2;
	.type	32;
	.endef
	.section	.text,"xr",one_only,_ZN108_$LT$core..iter..adapters..filter..Filter$LT$I$C$P$GT$$u20$as$u20$core..iter..traits..iterator..Iterator$GT$4next17h2dba6e981132b14bE
	.globl	_ZN108_$LT$core..iter..adapters..filter..Filter$LT$I$C$P$GT$$u20$as$u20$core..iter..traits..iterator..Iterator$GT$4next17h2dba6e981132b14bE
	.p2align	4, 0x90
_ZN108_$LT$core..iter..adapters..filter..Filter$LT$I$C$P$GT$$u20$as$u20$core..iter..traits..iterator..Iterator$GT$4next17h2dba6e981132b14bE:
.Lfunc_begin104:
	.cv_func_id 105
	.cv_loc	105 15 55 0
.seh_proc _ZN108_$LT$core..iter..adapters..filter..Filter$LT$I$C$P$GT$$u20$as$u20$core..iter..traits..iterator..Iterator$GT$4next17h2dba6e981132b14bE
	subq	$56, %rsp
	.seh_stackalloc 56
	.seh_endprologue
	movq	%rcx, 48(%rsp)
.Ltmp302:
	.cv_loc	105 15 56 0
	movq	%rcx, %rdx
	callq	_ZN4core4iter6traits8iterator8Iterator4find17h3cd1ab9bb36a9901E
	movq	%rax, 32(%rsp)
	movq	%rdx, 40(%rsp)
	.cv_loc	105 15 57 0
	movq	40(%rsp), %rdx
	movq	32(%rsp), %rax
	addq	$56, %rsp
	retq
.Ltmp303:
.Lfunc_end104:
	.seh_endproc

	.def	_ZN4core4iter8adapters3map16Map$LT$I$C$F$GT$3new17h504a78aec0054d4cE;
	.scl	2;
	.type	32;
	.endef
	.section	.text,"xr",one_only,_ZN4core4iter8adapters3map16Map$LT$I$C$F$GT$3new17h504a78aec0054d4cE
	.globl	_ZN4core4iter8adapters3map16Map$LT$I$C$F$GT$3new17h504a78aec0054d4cE
	.p2align	4, 0x90
_ZN4core4iter8adapters3map16Map$LT$I$C$F$GT$3new17h504a78aec0054d4cE:
.Lfunc_begin105:
	.cv_func_id 106
	.cv_file	16 "/rustc/7737e0b5c4103216d6fd8cf941b7ab9bdbaace7c\\library\\core\\src\\iter\\adapters\\map.rs" "86AECD8BF0794542D1B7FFC3376DC38769D829E8" 2
	.cv_loc	106 16 68 0
.seh_proc _ZN4core4iter8adapters3map16Map$LT$I$C$F$GT$3new17h504a78aec0054d4cE
	subq	$40, %rsp
	.seh_stackalloc 40
	.seh_endprologue
	movq	%rcx, 16(%rsp)
	movq	%rdx, 24(%rsp)
.Ltmp304:
	.cv_loc	106 16 69 0
	movq	%rcx, (%rsp)
	movq	%rdx, 8(%rsp)
	.cv_loc	106 16 70 0
	movq	(%rsp), %rax
	movq	8(%rsp), %rdx
	addq	$40, %rsp
	retq
.Ltmp305:
.Lfunc_end105:
	.seh_endproc

	.def	_ZN4core4iter8adapters3map16Map$LT$I$C$F$GT$3new17h56c95ac40859684fE;
	.scl	2;
	.type	32;
	.endef
	.section	.text,"xr",one_only,_ZN4core4iter8adapters3map16Map$LT$I$C$F$GT$3new17h56c95ac40859684fE
	.globl	_ZN4core4iter8adapters3map16Map$LT$I$C$F$GT$3new17h56c95ac40859684fE
	.p2align	4, 0x90
_ZN4core4iter8adapters3map16Map$LT$I$C$F$GT$3new17h56c95ac40859684fE:
.Lfunc_begin106:
	.cv_func_id 107
	.cv_loc	107 16 68 0
.seh_proc _ZN4core4iter8adapters3map16Map$LT$I$C$F$GT$3new17h56c95ac40859684fE
	subq	$40, %rsp
	.seh_stackalloc 40
	.seh_endprologue
	movq	%rcx, 16(%rsp)
	movq	%rdx, 24(%rsp)
.Ltmp306:
	.cv_loc	107 16 69 0
	movq	%rcx, (%rsp)
	movq	%rdx, 8(%rsp)
	.cv_loc	107 16 70 0
	movq	(%rsp), %rax
	movq	8(%rsp), %rdx
	addq	$40, %rsp
	retq
.Ltmp307:
.Lfunc_end106:
	.seh_endproc

	.def	_ZN4core4iter8adapters3map16Map$LT$I$C$F$GT$3new17h7d726a5238ec4198E;
	.scl	2;
	.type	32;
	.endef
	.section	.text,"xr",one_only,_ZN4core4iter8adapters3map16Map$LT$I$C$F$GT$3new17h7d726a5238ec4198E
	.globl	_ZN4core4iter8adapters3map16Map$LT$I$C$F$GT$3new17h7d726a5238ec4198E
	.p2align	4, 0x90
_ZN4core4iter8adapters3map16Map$LT$I$C$F$GT$3new17h7d726a5238ec4198E:
.Lfunc_begin107:
	.cv_func_id 108
	.cv_loc	108 16 68 0
.seh_proc _ZN4core4iter8adapters3map16Map$LT$I$C$F$GT$3new17h7d726a5238ec4198E
	subq	$40, %rsp
	.seh_stackalloc 40
	.seh_endprologue
	movq	%rcx, 16(%rsp)
	movq	%rdx, 24(%rsp)
.Ltmp308:
	.cv_loc	108 16 69 0
	movq	%rcx, (%rsp)
	movq	%rdx, 8(%rsp)
	.cv_loc	108 16 70 0
	movq	(%rsp), %rax
	movq	8(%rsp), %rdx
	addq	$40, %rsp
	retq
.Ltmp309:
.Lfunc_end107:
	.seh_endproc

	.def	_ZN102_$LT$core..iter..adapters..map..Map$LT$I$C$F$GT$$u20$as$u20$core..iter..traits..iterator..Iterator$GT$4next17h6374869651d415f2E;
	.scl	2;
	.type	32;
	.endef
	.section	.text,"xr",one_only,_ZN102_$LT$core..iter..adapters..map..Map$LT$I$C$F$GT$$u20$as$u20$core..iter..traits..iterator..Iterator$GT$4next17h6374869651d415f2E
	.globl	_ZN102_$LT$core..iter..adapters..map..Map$LT$I$C$F$GT$$u20$as$u20$core..iter..traits..iterator..Iterator$GT$4next17h6374869651d415f2E
	.p2align	4, 0x90
_ZN102_$LT$core..iter..adapters..map..Map$LT$I$C$F$GT$$u20$as$u20$core..iter..traits..iterator..Iterator$GT$4next17h6374869651d415f2E:
.Lfunc_begin108:
	.cv_func_id 109
	.cv_loc	109 16 102 0
.seh_proc _ZN102_$LT$core..iter..adapters..map..Map$LT$I$C$F$GT$$u20$as$u20$core..iter..traits..iterator..Iterator$GT$4next17h6374869651d415f2E
	subq	$72, %rsp
	.seh_stackalloc 72
	.seh_endprologue
	movq	%rcx, 40(%rsp)
	movq	%rcx, 64(%rsp)
.Ltmp310:
	.cv_loc	109 16 103 0
	callq	_ZN108_$LT$core..iter..adapters..filter..Filter$LT$I$C$P$GT$$u20$as$u20$core..iter..traits..iterator..Iterator$GT$4next17h2dba6e981132b14bE
	movq	%rax, 48(%rsp)
	movq	%rdx, 56(%rsp)
	movq	56(%rsp), %rdx
	movq	48(%rsp), %rcx
	movq	40(%rsp), %r8
	callq	_ZN4core6option15Option$LT$T$GT$3map17h7a8e5480617f55c2E
	movq	%rax, 32(%rsp)
	.cv_loc	109 16 104 0
	movq	32(%rsp), %rax
	addq	$72, %rsp
	retq
.Ltmp311:
.Lfunc_end108:
	.seh_endproc

	.def	_ZN4core4iter8adapters3zip3zip17h27b282be5d694795E;
	.scl	2;
	.type	32;
	.endef
	.section	.text,"xr",one_only,_ZN4core4iter8adapters3zip3zip17h27b282be5d694795E
	.globl	_ZN4core4iter8adapters3zip3zip17h27b282be5d694795E
	.p2align	4, 0x90
_ZN4core4iter8adapters3zip3zip17h27b282be5d694795E:
.Lfunc_begin109:
	.cv_func_id 110
	.cv_file	17 "/rustc/7737e0b5c4103216d6fd8cf941b7ab9bdbaace7c\\library\\core\\src\\iter\\adapters\\zip.rs" "3251F721F64B054D00D93915C9A9C0C6AFD0B6BF" 2
	.cv_loc	110 17 66 0
.seh_proc _ZN4core4iter8adapters3zip3zip17h27b282be5d694795E
	.seh_handler __CxxFrameHandler3, @unwind, @except
	pushq	%rbp
	.seh_pushreg %rbp
	subq	$192, %rsp
	.seh_stackalloc 192
	leaq	128(%rsp), %rbp
	.seh_setframe %rbp, 128
	.seh_endprologue
	movq	$-2, 56(%rbp)
	movq	%r9, -48(%rbp)
	movq	%r8, -40(%rbp)
	movq	%rdx, %rax
	movq	-40(%rbp), %rdx
	movq	%rax, -32(%rbp)
	movq	%rcx, %rax
	movq	-32(%rbp), %rcx
	movq	%rax, -24(%rbp)
	movq	%rax, -16(%rbp)
	movq	112(%rbp), %rax
	movq	%rax, -8(%rbp)
	movq	%rcx, 24(%rbp)
	movq	%rdx, 32(%rbp)
	movq	%r9, 40(%rbp)
	movq	%rax, 48(%rbp)
.Ltmp318:
	.cv_loc	110 17 71 0
	movb	$0, 23(%rbp)
	movb	$0, 22(%rbp)
	movb	$1, 23(%rbp)
.Ltmp312:
	callq	_ZN4core5slice4iter87_$LT$impl$u20$core..iter..traits..collect..IntoIterator$u20$for$u20$$RF$$u5b$T$u5d$$GT$9into_iter17h2d99a436cebc03faE
.Ltmp313:
	movq	%rdx, (%rbp)
	movq	%rax, 8(%rbp)
	jmp	.LBB109_1
.LBB109_1:
	movq	-8(%rbp), %rdx
	movq	-48(%rbp), %rcx
	movq	(%rbp), %rax
	movq	8(%rbp), %r8
	movq	%r8, -80(%rbp)
	movq	%rax, -72(%rbp)
	movb	$1, 22(%rbp)
	movb	$0, 23(%rbp)
.Ltmp314:
	callq	_ZN4core5slice4iter87_$LT$impl$u20$core..iter..traits..collect..IntoIterator$u20$for$u20$$RF$$u5b$T$u5d$$GT$9into_iter17h2d99a436cebc03faE
.Ltmp315:
	movq	%rdx, -64(%rbp)
	movq	%rax, -56(%rbp)
	jmp	.LBB109_3
.LBB109_3:
	movq	-56(%rbp), %r9
	movq	-72(%rbp), %r8
	movq	-80(%rbp), %rdx
	movq	-24(%rbp), %rcx
	movq	-64(%rbp), %r10
	movb	$0, 22(%rbp)
.Ltmp316:
	movq	%rsp, %rax
	movq	%r10, 32(%rax)
	callq	_ZN111_$LT$core..iter..adapters..zip..Zip$LT$A$C$B$GT$$u20$as$u20$core..iter..adapters..zip..ZipImpl$LT$A$C$B$GT$$GT$3new17hbc9910b9b197a258E
.Ltmp317:
	jmp	.LBB109_5
.LBB109_5:
	movq	-16(%rbp), %rax
	movb	$0, 22(%rbp)
	.cv_loc	110 17 72 0
	addq	$192, %rsp
	popq	%rbp
	retq
	.seh_handlerdata
	.long	($cppxdata$_ZN4core4iter8adapters3zip3zip17h27b282be5d694795E)@IMGREL
	.section	.text,"xr",one_only,_ZN4core4iter8adapters3zip3zip17h27b282be5d694795E
	.seh_endproc
	.def	"?dtor$2@?0?_ZN4core4iter8adapters3zip3zip17h27b282be5d694795E@4HA";
	.scl	3;
	.type	32;
	.endef
	.p2align	4, 0x90
"?dtor$2@?0?_ZN4core4iter8adapters3zip3zip17h27b282be5d694795E@4HA":
.seh_proc "?dtor$2@?0?_ZN4core4iter8adapters3zip3zip17h27b282be5d694795E@4HA"
.LBB109_2:
	movq	%rdx, 16(%rsp)
	pushq	%rbp
	.seh_pushreg %rbp
	subq	$48, %rsp
	.seh_stackalloc 48
	leaq	128(%rdx), %rbp
	.seh_endprologue
	testb	$1, 23(%rbp)
	jne	.LBB109_9
	jmp	.LBB109_8
.LBB109_8:
	.cv_loc	110 17 66 0
	addq	$48, %rsp
	popq	%rbp
	retq
.LBB109_9:
	.cv_loc	110 17 72 0
	jmp	.LBB109_8
	.seh_handlerdata
	.section	.text,"xr",one_only,_ZN4core4iter8adapters3zip3zip17h27b282be5d694795E
	.seh_endproc
	.def	"?dtor$4@?0?_ZN4core4iter8adapters3zip3zip17h27b282be5d694795E@4HA";
	.scl	3;
	.type	32;
	.endef
	.p2align	4, 0x90
"?dtor$4@?0?_ZN4core4iter8adapters3zip3zip17h27b282be5d694795E@4HA":
.seh_proc "?dtor$4@?0?_ZN4core4iter8adapters3zip3zip17h27b282be5d694795E@4HA"
.LBB109_4:
	movq	%rdx, 16(%rsp)
	pushq	%rbp
	.seh_pushreg %rbp
	subq	$48, %rsp
	.seh_stackalloc 48
	leaq	128(%rdx), %rbp
	.seh_endprologue
	.cv_loc	110 17 71 0
	testb	$1, 22(%rbp)
	jne	.LBB109_7
	jmp	.LBB109_6
.LBB109_6:
	addq	$48, %rsp
	popq	%rbp
	retq
.LBB109_7:
	addq	$48, %rsp
	popq	%rbp
	retq
.Ltmp319:
.Lfunc_end109:
	.seh_handlerdata
	.section	.text,"xr",one_only,_ZN4core4iter8adapters3zip3zip17h27b282be5d694795E
	.seh_endproc
	.section	.xdata,"dr",associative,_ZN4core4iter8adapters3zip3zip17h27b282be5d694795E
	.p2align	2
$cppxdata$_ZN4core4iter8adapters3zip3zip17h27b282be5d694795E:
	.long	429065506
	.long	2
	.long	($stateUnwindMap$_ZN4core4iter8adapters3zip3zip17h27b282be5d694795E)@IMGREL
	.long	0
	.long	0
	.long	4
	.long	($ip2state$_ZN4core4iter8adapters3zip3zip17h27b282be5d694795E)@IMGREL
	.long	184
	.long	0
	.long	1
$stateUnwindMap$_ZN4core4iter8adapters3zip3zip17h27b282be5d694795E:
	.long	-1
	.long	"?dtor$2@?0?_ZN4core4iter8adapters3zip3zip17h27b282be5d694795E@4HA"@IMGREL
	.long	0
	.long	"?dtor$4@?0?_ZN4core4iter8adapters3zip3zip17h27b282be5d694795E@4HA"@IMGREL
$ip2state$_ZN4core4iter8adapters3zip3zip17h27b282be5d694795E:
	.long	.Lfunc_begin109@IMGREL
	.long	-1
	.long	.Ltmp312@IMGREL+1
	.long	0
	.long	.Ltmp314@IMGREL+1
	.long	1
	.long	.Ltmp317@IMGREL+1
	.long	-1
	.section	.text,"xr",one_only,_ZN4core4iter8adapters3zip3zip17h27b282be5d694795E

	.def	_ZN102_$LT$core..iter..adapters..zip..Zip$LT$A$C$B$GT$$u20$as$u20$core..iter..traits..iterator..Iterator$GT$4next17hbba437edbc6afe7fE;
	.scl	2;
	.type	32;
	.endef
	.section	.text,"xr",one_only,_ZN102_$LT$core..iter..adapters..zip..Zip$LT$A$C$B$GT$$u20$as$u20$core..iter..traits..iterator..Iterator$GT$4next17hbba437edbc6afe7fE
	.globl	_ZN102_$LT$core..iter..adapters..zip..Zip$LT$A$C$B$GT$$u20$as$u20$core..iter..traits..iterator..Iterator$GT$4next17hbba437edbc6afe7fE
	.p2align	4, 0x90
_ZN102_$LT$core..iter..adapters..zip..Zip$LT$A$C$B$GT$$u20$as$u20$core..iter..traits..iterator..Iterator$GT$4next17hbba437edbc6afe7fE:
.Lfunc_begin110:
	.cv_func_id 111
	.cv_loc	111 17 83 0
.seh_proc _ZN102_$LT$core..iter..adapters..zip..Zip$LT$A$C$B$GT$$u20$as$u20$core..iter..traits..iterator..Iterator$GT$4next17hbba437edbc6afe7fE
	subq	$56, %rsp
	.seh_stackalloc 56
	.seh_endprologue
	movq	%rcx, 48(%rsp)
.Ltmp320:
	.cv_loc	111 17 84 0
	callq	_ZN111_$LT$core..iter..adapters..zip..Zip$LT$A$C$B$GT$$u20$as$u20$core..iter..adapters..zip..ZipImpl$LT$A$C$B$GT$$GT$4next17heaa6ecedaf0a49c4E
	movq	%rax, 32(%rsp)
	movq	%rdx, 40(%rsp)
	.cv_loc	111 17 85 0
	movq	40(%rsp), %rdx
	movq	32(%rsp), %rax
	addq	$56, %rsp
	retq
.Ltmp321:
.Lfunc_end110:
	.seh_endproc

	.def	_ZN111_$LT$core..iter..adapters..zip..Zip$LT$A$C$B$GT$$u20$as$u20$core..iter..adapters..zip..ZipImpl$LT$A$C$B$GT$$GT$3new17hbc9910b9b197a258E;
	.scl	2;
	.type	32;
	.endef
	.section	.text,"xr",one_only,_ZN111_$LT$core..iter..adapters..zip..Zip$LT$A$C$B$GT$$u20$as$u20$core..iter..adapters..zip..ZipImpl$LT$A$C$B$GT$$GT$3new17hbc9910b9b197a258E
	.globl	_ZN111_$LT$core..iter..adapters..zip..Zip$LT$A$C$B$GT$$u20$as$u20$core..iter..adapters..zip..ZipImpl$LT$A$C$B$GT$$GT$3new17hbc9910b9b197a258E
	.p2align	4, 0x90
_ZN111_$LT$core..iter..adapters..zip..Zip$LT$A$C$B$GT$$u20$as$u20$core..iter..adapters..zip..ZipImpl$LT$A$C$B$GT$$GT$3new17hbc9910b9b197a258E:
.Lfunc_begin111:
	.cv_func_id 112
	.cv_loc	112 17 263 0
.seh_proc _ZN111_$LT$core..iter..adapters..zip..Zip$LT$A$C$B$GT$$u20$as$u20$core..iter..adapters..zip..ZipImpl$LT$A$C$B$GT$$GT$3new17hbc9910b9b197a258E
	.seh_handler __CxxFrameHandler3, @unwind, @except
	pushq	%rbp
	.seh_pushreg %rbp
	pushq	%rsi
	.seh_pushreg %rsi
	subq	$136, %rsp
	.seh_stackalloc 136
	leaq	128(%rsp), %rbp
	.seh_setframe %rbp, 128
	.seh_endprologue
	movq	$-2, (%rbp)
	movq	%rcx, -72(%rbp)
	movq	%rcx, -64(%rbp)
	movq	64(%rbp), %rax
	movq	%rdx, -48(%rbp)
	movq	%r8, -40(%rbp)
	movq	%r9, -32(%rbp)
	movq	%rax, -24(%rbp)
	.cv_loc	112 17 264 0
.Ltmp322:
	leaq	-48(%rbp), %rcx
.Ltmp328:
	callq	_ZN4core4iter8adapters3zip27TrustedRandomAccessNoCoerce4size17h2e9b9606161f66b5E
.Ltmp323:
	movq	%rax, -56(%rbp)
	jmp	.LBB111_1
.LBB111_1:
	movq	-56(%rbp), %rax
	movq	%rax, -16(%rbp)
	.cv_loc	112 17 265 0
.Ltmp324:
	leaq	-32(%rbp), %rcx
.Ltmp329:
	callq	_ZN4core4iter8adapters3zip27TrustedRandomAccessNoCoerce4size17h2e9b9606161f66b5E
.Ltmp325:
	movq	%rax, -80(%rbp)
	jmp	.LBB111_3
.LBB111_3:
.Ltmp326:
	movq	-80(%rbp), %rdx
	movq	-56(%rbp), %rcx
	callq	_ZN4core3cmp3min17h0a452ed7bdbbd747E
.Ltmp327:
	movq	%rax, -88(%rbp)
	jmp	.LBB111_4
.LBB111_4:
	movq	-64(%rbp), %rax
	movq	-72(%rbp), %rcx
	movq	-56(%rbp), %rdx
	movq	-88(%rbp), %r8
	movq	%r8, -8(%rbp)
.Ltmp330:
	.cv_loc	112 17 266 0
	movq	-48(%rbp), %rsi
	movq	-40(%rbp), %r11
	movq	-32(%rbp), %r10
	movq	-24(%rbp), %r9
	movq	%rsi, (%rcx)
	movq	%r11, 8(%rcx)
	movq	%r10, 16(%rcx)
	movq	%r9, 24(%rcx)
	movq	$0, 32(%rcx)
	movq	%r8, 40(%rcx)
	movq	%rdx, 48(%rcx)
.Ltmp331:
	.cv_loc	112 17 267 0
	addq	$136, %rsp
	popq	%rsi
	popq	%rbp
	retq
	.seh_handlerdata
	.long	($cppxdata$_ZN111_$LT$core..iter..adapters..zip..Zip$LT$A$C$B$GT$$u20$as$u20$core..iter..adapters..zip..ZipImpl$LT$A$C$B$GT$$GT$3new17hbc9910b9b197a258E)@IMGREL
	.section	.text,"xr",one_only,_ZN111_$LT$core..iter..adapters..zip..Zip$LT$A$C$B$GT$$u20$as$u20$core..iter..adapters..zip..ZipImpl$LT$A$C$B$GT$$GT$3new17hbc9910b9b197a258E
	.seh_endproc
	.def	"?dtor$2@?0?_ZN111_$LT$core..iter..adapters..zip..Zip$LT$A$C$B$GT$$u20$as$u20$core..iter..adapters..zip..ZipImpl$LT$A$C$B$GT$$GT$3new17hbc9910b9b197a258E@4HA";
	.scl	3;
	.type	32;
	.endef
	.p2align	4, 0x90
"?dtor$2@?0?_ZN111_$LT$core..iter..adapters..zip..Zip$LT$A$C$B$GT$$u20$as$u20$core..iter..adapters..zip..ZipImpl$LT$A$C$B$GT$$GT$3new17hbc9910b9b197a258E@4HA":
.seh_proc "?dtor$2@?0?_ZN111_$LT$core..iter..adapters..zip..Zip$LT$A$C$B$GT$$u20$as$u20$core..iter..adapters..zip..ZipImpl$LT$A$C$B$GT$$GT$3new17hbc9910b9b197a258E@4HA"
.LBB111_2:
	movq	%rdx, 16(%rsp)
	pushq	%rbp
	.seh_pushreg %rbp
	pushq	%rsi
	.seh_pushreg %rsi
	subq	$40, %rsp
	.seh_stackalloc 40
	leaq	128(%rdx), %rbp
	.seh_endprologue
	.cv_loc	112 17 263 0
	addq	$40, %rsp
	popq	%rsi
	popq	%rbp
	retq
.Ltmp332:
.Lfunc_end111:
	.seh_handlerdata
	.section	.text,"xr",one_only,_ZN111_$LT$core..iter..adapters..zip..Zip$LT$A$C$B$GT$$u20$as$u20$core..iter..adapters..zip..ZipImpl$LT$A$C$B$GT$$GT$3new17hbc9910b9b197a258E
	.seh_endproc
	.section	.xdata,"dr",associative,_ZN111_$LT$core..iter..adapters..zip..Zip$LT$A$C$B$GT$$u20$as$u20$core..iter..adapters..zip..ZipImpl$LT$A$C$B$GT$$GT$3new17hbc9910b9b197a258E
	.p2align	2
$cppxdata$_ZN111_$LT$core..iter..adapters..zip..Zip$LT$A$C$B$GT$$u20$as$u20$core..iter..adapters..zip..ZipImpl$LT$A$C$B$GT$$GT$3new17hbc9910b9b197a258E:
	.long	429065506
	.long	1
	.long	($stateUnwindMap$_ZN111_$LT$core..iter..adapters..zip..Zip$LT$A$C$B$GT$$u20$as$u20$core..iter..adapters..zip..ZipImpl$LT$A$C$B$GT$$GT$3new17hbc9910b9b197a258E)@IMGREL
	.long	0
	.long	0
	.long	3
	.long	($ip2state$_ZN111_$LT$core..iter..adapters..zip..Zip$LT$A$C$B$GT$$u20$as$u20$core..iter..adapters..zip..ZipImpl$LT$A$C$B$GT$$GT$3new17hbc9910b9b197a258E)@IMGREL
	.long	128
	.long	0
	.long	1
$stateUnwindMap$_ZN111_$LT$core..iter..adapters..zip..Zip$LT$A$C$B$GT$$u20$as$u20$core..iter..adapters..zip..ZipImpl$LT$A$C$B$GT$$GT$3new17hbc9910b9b197a258E:
	.long	-1
	.long	"?dtor$2@?0?_ZN111_$LT$core..iter..adapters..zip..Zip$LT$A$C$B$GT$$u20$as$u20$core..iter..adapters..zip..ZipImpl$LT$A$C$B$GT$$GT$3new17hbc9910b9b197a258E@4HA"@IMGREL
$ip2state$_ZN111_$LT$core..iter..adapters..zip..Zip$LT$A$C$B$GT$$u20$as$u20$core..iter..adapters..zip..ZipImpl$LT$A$C$B$GT$$GT$3new17hbc9910b9b197a258E:
	.long	.Lfunc_begin111@IMGREL
	.long	-1
	.long	.Ltmp322@IMGREL+1
	.long	0
	.long	.Ltmp327@IMGREL+1
	.long	-1
	.section	.text,"xr",one_only,_ZN111_$LT$core..iter..adapters..zip..Zip$LT$A$C$B$GT$$u20$as$u20$core..iter..adapters..zip..ZipImpl$LT$A$C$B$GT$$GT$3new17hbc9910b9b197a258E

	.def	_ZN111_$LT$core..iter..adapters..zip..Zip$LT$A$C$B$GT$$u20$as$u20$core..iter..adapters..zip..ZipImpl$LT$A$C$B$GT$$GT$4next17heaa6ecedaf0a49c4E;
	.scl	2;
	.type	32;
	.endef
	.section	.text,"xr",one_only,_ZN111_$LT$core..iter..adapters..zip..Zip$LT$A$C$B$GT$$u20$as$u20$core..iter..adapters..zip..ZipImpl$LT$A$C$B$GT$$GT$4next17heaa6ecedaf0a49c4E
	.globl	_ZN111_$LT$core..iter..adapters..zip..Zip$LT$A$C$B$GT$$u20$as$u20$core..iter..adapters..zip..ZipImpl$LT$A$C$B$GT$$GT$4next17heaa6ecedaf0a49c4E
	.p2align	4, 0x90
_ZN111_$LT$core..iter..adapters..zip..Zip$LT$A$C$B$GT$$u20$as$u20$core..iter..adapters..zip..ZipImpl$LT$A$C$B$GT$$GT$4next17heaa6ecedaf0a49c4E:
.Lfunc_begin112:
	.cv_func_id 113
	.cv_loc	113 17 270 0
.seh_proc _ZN111_$LT$core..iter..adapters..zip..Zip$LT$A$C$B$GT$$u20$as$u20$core..iter..adapters..zip..ZipImpl$LT$A$C$B$GT$$GT$4next17heaa6ecedaf0a49c4E
	.seh_handler __CxxFrameHandler3, @unwind, @except
	pushq	%rbp
	.seh_pushreg %rbp
	subq	$144, %rsp
	.seh_stackalloc 144
	leaq	128(%rsp), %rbp
	.seh_setframe %rbp, 128
	.seh_endprologue
	movq	$-2, 8(%rbp)
	movq	%rcx, -64(%rbp)
	movq	%rcx, -16(%rbp)
.Ltmp335:
	.cv_loc	113 17 271 0
	movq	32(%rcx), %rax
	cmpq	40(%rcx), %rax
	jb	.LBB112_2
	.cv_loc	113 17 280 0
	movb	$0, -17(%rbp)
	testb	$1, -17(%rbp)
	jne	.LBB112_7
	jmp	.LBB112_6
.LBB112_2:
	.cv_loc	113 17 272 0
	movq	-64(%rbp), %rcx
	movq	32(%rcx), %rdx
	movq	%rdx, -88(%rbp)
	movq	%rdx, -8(%rbp)
.Ltmp336:
	.cv_loc	113 17 275 0
	movq	32(%rcx), %rax
	incq	%rax
	movq	%rax, 32(%rcx)
	.cv_loc	113 17 278 0
	callq	_ZN91_$LT$core..slice..iter..Iter$LT$T$GT$$u20$as$u20$core..iter..traits..iterator..Iterator$GT$24__iterator_get_unchecked17h88cf13934f722cbbE
	movq	-64(%rbp), %rcx
	movq	-88(%rbp), %rdx
	movq	%rax, -80(%rbp)
	addq	$16, %rcx
.Ltmp333:
	callq	_ZN91_$LT$core..slice..iter..Iter$LT$T$GT$$u20$as$u20$core..iter..traits..iterator..Iterator$GT$24__iterator_get_unchecked17h88cf13934f722cbbE
.Ltmp334:
	movq	%rax, -72(%rbp)
	jmp	.LBB112_3
.LBB112_3:
	movq	-72(%rbp), %rax
	movq	-80(%rbp), %rcx
	movq	%rcx, -40(%rbp)
	movq	%rax, -32(%rbp)
	movq	-40(%rbp), %rcx
	movq	-32(%rbp), %rax
	movq	%rcx, -56(%rbp)
	movq	%rax, -48(%rbp)
.Ltmp337:
	.cv_loc	113 17 271 0
	jmp	.LBB112_5
.LBB112_5:
	.cv_loc	113 17 294 0
	movq	-56(%rbp), %rax
	movq	-48(%rbp), %rdx
	addq	$144, %rsp
	popq	%rbp
	retq
.LBB112_6:
	.cv_loc	113 17 292 0
	movq	$0, -56(%rbp)
	.cv_loc	113 17 280 0
	jmp	.LBB112_8
.LBB112_7:
	.cv_loc	113 17 281 0
	movq	-64(%rbp), %rcx
	movq	32(%rcx), %rdx
	movq	%rdx, (%rbp)
.Ltmp338:
	.cv_loc	113 17 283 0
	movq	32(%rcx), %rax
	addq	$1, %rax
	movq	%rax, 32(%rcx)
	.cv_loc	113 17 284 0
	movq	40(%rcx), %rax
	addq	$1, %rax
	movq	%rax, 40(%rcx)
	.cv_loc	113 17 288 0
	callq	_ZN91_$LT$core..slice..iter..Iter$LT$T$GT$$u20$as$u20$core..iter..traits..iterator..Iterator$GT$24__iterator_get_unchecked17h88cf13934f722cbbE
	.cv_loc	113 17 290 0
	movq	$0, -56(%rbp)
.Ltmp339:
.LBB112_8:
	.cv_loc	113 17 271 0
	jmp	.LBB112_5
	.seh_handlerdata
	.long	($cppxdata$_ZN111_$LT$core..iter..adapters..zip..Zip$LT$A$C$B$GT$$u20$as$u20$core..iter..adapters..zip..ZipImpl$LT$A$C$B$GT$$GT$4next17heaa6ecedaf0a49c4E)@IMGREL
	.section	.text,"xr",one_only,_ZN111_$LT$core..iter..adapters..zip..Zip$LT$A$C$B$GT$$u20$as$u20$core..iter..adapters..zip..ZipImpl$LT$A$C$B$GT$$GT$4next17heaa6ecedaf0a49c4E
	.seh_endproc
	.def	"?dtor$4@?0?_ZN111_$LT$core..iter..adapters..zip..Zip$LT$A$C$B$GT$$u20$as$u20$core..iter..adapters..zip..ZipImpl$LT$A$C$B$GT$$GT$4next17heaa6ecedaf0a49c4E@4HA";
	.scl	3;
	.type	32;
	.endef
	.p2align	4, 0x90
"?dtor$4@?0?_ZN111_$LT$core..iter..adapters..zip..Zip$LT$A$C$B$GT$$u20$as$u20$core..iter..adapters..zip..ZipImpl$LT$A$C$B$GT$$GT$4next17heaa6ecedaf0a49c4E@4HA":
.seh_proc "?dtor$4@?0?_ZN111_$LT$core..iter..adapters..zip..Zip$LT$A$C$B$GT$$u20$as$u20$core..iter..adapters..zip..ZipImpl$LT$A$C$B$GT$$GT$4next17heaa6ecedaf0a49c4E@4HA"
.LBB112_4:
	movq	%rdx, 16(%rsp)
	pushq	%rbp
	.seh_pushreg %rbp
	subq	$32, %rsp
	.seh_stackalloc 32
	leaq	128(%rdx), %rbp
	.seh_endprologue
	.cv_loc	113 17 270 0
	addq	$32, %rsp
	popq	%rbp
	retq
.Ltmp340:
.Lfunc_end112:
	.seh_handlerdata
	.section	.text,"xr",one_only,_ZN111_$LT$core..iter..adapters..zip..Zip$LT$A$C$B$GT$$u20$as$u20$core..iter..adapters..zip..ZipImpl$LT$A$C$B$GT$$GT$4next17heaa6ecedaf0a49c4E
	.seh_endproc
	.section	.xdata,"dr",associative,_ZN111_$LT$core..iter..adapters..zip..Zip$LT$A$C$B$GT$$u20$as$u20$core..iter..adapters..zip..ZipImpl$LT$A$C$B$GT$$GT$4next17heaa6ecedaf0a49c4E
	.p2align	2
$cppxdata$_ZN111_$LT$core..iter..adapters..zip..Zip$LT$A$C$B$GT$$u20$as$u20$core..iter..adapters..zip..ZipImpl$LT$A$C$B$GT$$GT$4next17heaa6ecedaf0a49c4E:
	.long	429065506
	.long	1
	.long	($stateUnwindMap$_ZN111_$LT$core..iter..adapters..zip..Zip$LT$A$C$B$GT$$u20$as$u20$core..iter..adapters..zip..ZipImpl$LT$A$C$B$GT$$GT$4next17heaa6ecedaf0a49c4E)@IMGREL
	.long	0
	.long	0
	.long	3
	.long	($ip2state$_ZN111_$LT$core..iter..adapters..zip..Zip$LT$A$C$B$GT$$u20$as$u20$core..iter..adapters..zip..ZipImpl$LT$A$C$B$GT$$GT$4next17heaa6ecedaf0a49c4E)@IMGREL
	.long	136
	.long	0
	.long	1
$stateUnwindMap$_ZN111_$LT$core..iter..adapters..zip..Zip$LT$A$C$B$GT$$u20$as$u20$core..iter..adapters..zip..ZipImpl$LT$A$C$B$GT$$GT$4next17heaa6ecedaf0a49c4E:
	.long	-1
	.long	"?dtor$4@?0?_ZN111_$LT$core..iter..adapters..zip..Zip$LT$A$C$B$GT$$u20$as$u20$core..iter..adapters..zip..ZipImpl$LT$A$C$B$GT$$GT$4next17heaa6ecedaf0a49c4E@4HA"@IMGREL
$ip2state$_ZN111_$LT$core..iter..adapters..zip..Zip$LT$A$C$B$GT$$u20$as$u20$core..iter..adapters..zip..ZipImpl$LT$A$C$B$GT$$GT$4next17heaa6ecedaf0a49c4E:
	.long	.Lfunc_begin112@IMGREL
	.long	-1
	.long	.Ltmp333@IMGREL+1
	.long	0
	.long	.Ltmp334@IMGREL+1
	.long	-1
	.section	.text,"xr",one_only,_ZN111_$LT$core..iter..adapters..zip..Zip$LT$A$C$B$GT$$u20$as$u20$core..iter..adapters..zip..ZipImpl$LT$A$C$B$GT$$GT$4next17heaa6ecedaf0a49c4E

	.def	_ZN4core4iter8adapters3zip27TrustedRandomAccessNoCoerce4size17h2e9b9606161f66b5E;
	.scl	2;
	.type	32;
	.endef
	.section	.text,"xr",one_only,_ZN4core4iter8adapters3zip27TrustedRandomAccessNoCoerce4size17h2e9b9606161f66b5E
	.globl	_ZN4core4iter8adapters3zip27TrustedRandomAccessNoCoerce4size17h2e9b9606161f66b5E
	.p2align	4, 0x90
_ZN4core4iter8adapters3zip27TrustedRandomAccessNoCoerce4size17h2e9b9606161f66b5E:
.Lfunc_begin113:
	.cv_func_id 114
	.cv_loc	114 17 539 0
.seh_proc _ZN4core4iter8adapters3zip27TrustedRandomAccessNoCoerce4size17h2e9b9606161f66b5E
	subq	$72, %rsp
	.seh_stackalloc 72
	.seh_endprologue
	movq	%rcx, %rdx
	movq	%rdx, 64(%rsp)
.Ltmp341:
	.cv_loc	114 17 543 0
	leaq	40(%rsp), %rcx
	callq	_ZN91_$LT$core..slice..iter..Iter$LT$T$GT$$u20$as$u20$core..iter..traits..iterator..Iterator$GT$9size_hint17h93623aca974a087bE
	movq	40(%rsp), %rax
	.cv_loc	114 17 544 0
	addq	$72, %rsp
	retq
.Ltmp342:
.Lfunc_end113:
	.seh_endproc

	.def	_ZN4core4iter6traits8iterator8Iterator3map17h0683089fa7b6d73dE;
	.scl	2;
	.type	32;
	.endef
	.section	.text,"xr",one_only,_ZN4core4iter6traits8iterator8Iterator3map17h0683089fa7b6d73dE
	.globl	_ZN4core4iter6traits8iterator8Iterator3map17h0683089fa7b6d73dE
	.p2align	4, 0x90
_ZN4core4iter6traits8iterator8Iterator3map17h0683089fa7b6d73dE:
.Lfunc_begin114:
	.cv_func_id 115
	.cv_file	18 "/rustc/7737e0b5c4103216d6fd8cf941b7ab9bdbaace7c\\library\\core\\src\\iter\\traits\\iterator.rs" "5A5B363AE1E95F404AE9C25B34CC0A7BBB9F2F3D" 2
	.cv_loc	115 18 718 0
.seh_proc _ZN4core4iter6traits8iterator8Iterator3map17h0683089fa7b6d73dE
	subq	$72, %rsp
	.seh_stackalloc 72
	.seh_endprologue
	movq	%rcx, 48(%rsp)
	movq	%rdx, 56(%rsp)
.Ltmp343:
	.cv_loc	115 18 723 0
	callq	_ZN4core4iter8adapters3map16Map$LT$I$C$F$GT$3new17h7d726a5238ec4198E
	movq	%rax, 32(%rsp)
	movq	%rdx, 40(%rsp)
	.cv_loc	115 18 724 0
	movq	40(%rsp), %rdx
	movq	32(%rsp), %rax
	addq	$72, %rsp
	retq
.Ltmp344:
.Lfunc_end114:
	.seh_endproc

	.def	_ZN4core4iter6traits8iterator8Iterator3map17h227fdfb5aef020d9E;
	.scl	2;
	.type	32;
	.endef
	.section	.text,"xr",one_only,_ZN4core4iter6traits8iterator8Iterator3map17h227fdfb5aef020d9E
	.globl	_ZN4core4iter6traits8iterator8Iterator3map17h227fdfb5aef020d9E
	.p2align	4, 0x90
_ZN4core4iter6traits8iterator8Iterator3map17h227fdfb5aef020d9E:
.Lfunc_begin115:
	.cv_func_id 116
	.cv_loc	116 18 718 0
.seh_proc _ZN4core4iter6traits8iterator8Iterator3map17h227fdfb5aef020d9E
	subq	$72, %rsp
	.seh_stackalloc 72
	.seh_endprologue
	movq	%rcx, 48(%rsp)
	movq	%rdx, 56(%rsp)
.Ltmp345:
	.cv_loc	116 18 723 0
	callq	_ZN4core4iter8adapters3map16Map$LT$I$C$F$GT$3new17h56c95ac40859684fE
	movq	%rax, 32(%rsp)
	movq	%rdx, 40(%rsp)
	.cv_loc	116 18 724 0
	movq	40(%rsp), %rdx
	movq	32(%rsp), %rax
	addq	$72, %rsp
	retq
.Ltmp346:
.Lfunc_end115:
	.seh_endproc

	.def	_ZN4core4iter6traits8iterator8Iterator3map17h54d252812a5ebd06E;
	.scl	2;
	.type	32;
	.endef
	.section	.text,"xr",one_only,_ZN4core4iter6traits8iterator8Iterator3map17h54d252812a5ebd06E
	.globl	_ZN4core4iter6traits8iterator8Iterator3map17h54d252812a5ebd06E
	.p2align	4, 0x90
_ZN4core4iter6traits8iterator8Iterator3map17h54d252812a5ebd06E:
.Lfunc_begin116:
	.cv_func_id 117
	.cv_loc	117 18 718 0
.seh_proc _ZN4core4iter6traits8iterator8Iterator3map17h54d252812a5ebd06E
	subq	$72, %rsp
	.seh_stackalloc 72
	.seh_endprologue
	movq	%rcx, 48(%rsp)
	movq	%rdx, 56(%rsp)
.Ltmp347:
	.cv_loc	117 18 723 0
	callq	_ZN4core4iter8adapters3map16Map$LT$I$C$F$GT$3new17h504a78aec0054d4cE
	movq	%rax, 32(%rsp)
	movq	%rdx, 40(%rsp)
	.cv_loc	117 18 724 0
	movq	40(%rsp), %rdx
	movq	32(%rsp), %rax
	addq	$72, %rsp
	retq
.Ltmp348:
.Lfunc_end116:
	.seh_endproc

	.def	_ZN4core4iter6traits8iterator8Iterator6filter17h2b19010aa60a7600E;
	.scl	2;
	.type	32;
	.endef
	.section	.text,"xr",one_only,_ZN4core4iter6traits8iterator8Iterator6filter17h2b19010aa60a7600E
	.globl	_ZN4core4iter6traits8iterator8Iterator6filter17h2b19010aa60a7600E
	.p2align	4, 0x90
_ZN4core4iter6traits8iterator8Iterator6filter17h2b19010aa60a7600E:
.Lfunc_begin117:
	.cv_func_id 118
	.cv_loc	118 18 838 0
.seh_proc _ZN4core4iter6traits8iterator8Iterator6filter17h2b19010aa60a7600E
	subq	$72, %rsp
	.seh_stackalloc 72
	.seh_endprologue
	movq	%rcx, 48(%rsp)
	movq	%rdx, 56(%rsp)
.Ltmp349:
	.cv_loc	118 18 843 0
	callq	_ZN4core4iter8adapters6filter19Filter$LT$I$C$P$GT$3new17hc3fb53859d64613eE
	movq	%rax, 32(%rsp)
	movq	%rdx, 40(%rsp)
	.cv_loc	118 18 844 0
	movq	40(%rsp), %rdx
	movq	32(%rsp), %rax
	addq	$72, %rsp
	retq
.Ltmp350:
.Lfunc_end117:
	.seh_endproc

	.def	_ZN4core4iter6traits8iterator8Iterator8try_fold17hb35566a39b10c9b4E;
	.scl	2;
	.type	32;
	.endef
	.section	.text,"xr",one_only,_ZN4core4iter6traits8iterator8Iterator8try_fold17hb35566a39b10c9b4E
	.globl	_ZN4core4iter6traits8iterator8Iterator8try_fold17hb35566a39b10c9b4E
	.p2align	4, 0x90
_ZN4core4iter6traits8iterator8Iterator8try_fold17hb35566a39b10c9b4E:
.Lfunc_begin118:
	.cv_func_id 119
	.cv_loc	119 18 2101 0
.seh_proc _ZN4core4iter6traits8iterator8Iterator8try_fold17hb35566a39b10c9b4E
	.seh_handler __CxxFrameHandler3, @unwind, @except
	pushq	%rbp
	.seh_pushreg %rbp
	subq	$224, %rsp
	.seh_stackalloc 224
	leaq	128(%rsp), %rbp
	.seh_setframe %rbp, 128
	.seh_endprologue
	movq	$-2, 88(%rbp)
	movq	%rcx, -16(%rbp)
	movq	%rdx, -8(%rbp)
	movq	%rcx, 64(%rbp)
.Ltmp361:
	.cv_loc	119 18 2107 0
	movb	$0, 63(%rbp)
	movb	$1, 63(%rbp)
.LBB118_1:
	.cv_loc	119 18 2108 0
.Ltmp351:
	movq	-16(%rbp), %rcx
.Ltmp362:
	callq	_ZN90_$LT$core..option..IntoIter$LT$A$GT$$u20$as$u20$core..iter..traits..iterator..Iterator$GT$4next17h54b6cead716881c6E
.Ltmp352:
	movq	%rdx, -32(%rbp)
	movq	%rax, -24(%rbp)
	jmp	.LBB118_2
.LBB118_2:
	movq	-32(%rbp), %rax
	movq	-24(%rbp), %rcx
	movq	%rcx, 16(%rbp)
	movq	%rax, 24(%rbp)
	cmpq	$1, 16(%rbp)
	je	.LBB118_4
	jmp	.LBB118_5
.LBB118_4:
	movq	24(%rbp), %rax
	movq	%rax, 72(%rbp)
	.cv_loc	119 18 2109 0
	movb	$0, 63(%rbp)
	movq	%rax, 48(%rbp)
	movq	48(%rbp), %rdx
.Ltmp355:
	leaq	-8(%rbp), %rcx
	callq	_ZN4core4iter6traits8iterator8Iterator4find5check28_$u7b$$u7b$closure$u7d$$u7d$17h8cd87f6708ddc320E
.Ltmp356:
	movq	%rdx, -48(%rbp)
	movq	%rax, -40(%rbp)
	jmp	.LBB118_8
.LBB118_5:
	.cv_loc	119 18 2111 0
	movb	$0, 63(%rbp)
.Ltmp353:
	callq	_ZN95_$LT$core..ops..control_flow..ControlFlow$LT$B$C$C$GT$$u20$as$u20$core..ops..try_trait..Try$GT$11from_output17hf1cf6c9ccb3d2c38E
.Ltmp354:
	movq	%rdx, -64(%rbp)
	movq	%rax, -56(%rbp)
	jmp	.LBB118_6
.LBB118_6:
	movq	-64(%rbp), %rax
	movq	-56(%rbp), %rcx
	movq	%rcx, (%rbp)
	movq	%rax, 8(%rbp)
.Ltmp363:
	.cv_loc	119 18 2112 0
	movb	$0, 63(%rbp)
.LBB118_7:
	movq	(%rbp), %rax
	movq	8(%rbp), %rdx
	addq	$224, %rsp
	popq	%rbp
	retq
.LBB118_8:
	.cv_loc	119 18 2109 0
.Ltmp357:
	movq	-48(%rbp), %rdx
	movq	-40(%rbp), %rcx
.Ltmp364:
	callq	_ZN95_$LT$core..ops..control_flow..ControlFlow$LT$B$C$C$GT$$u20$as$u20$core..ops..try_trait..Try$GT$6branch17ha934cec92eaba749E
.Ltmp358:
	movq	%rdx, -80(%rbp)
	movq	%rax, -72(%rbp)
	jmp	.LBB118_9
.LBB118_9:
	movq	-80(%rbp), %rax
	movq	-72(%rbp), %rcx
	movq	%rcx, 32(%rbp)
	movq	%rax, 40(%rbp)
	movq	32(%rbp), %rax
	testq	%rax, %rax
	je	.LBB118_11
	jmp	.LBB118_16
.LBB118_16:
	jmp	.LBB118_12
	ud2
.LBB118_11:
	movb	$1, 63(%rbp)
	.cv_loc	119 18 2108 0
	jmp	.LBB118_1
.LBB118_12:
	.cv_loc	119 18 2109 0
	movq	40(%rbp), %rcx
	movq	%rcx, 80(%rbp)
	.cv_loc	119 18 2109 0
.Ltmp359:
.Ltmp365:
	callq	_ZN104_$LT$core..ops..control_flow..ControlFlow$LT$B$C$C$GT$$u20$as$u20$core..ops..try_trait..FromResidual$GT$13from_residual17h386ebcd42c843c4eE
.Ltmp360:
	movq	%rdx, -96(%rbp)
	movq	%rax, -88(%rbp)
	jmp	.LBB118_13
.LBB118_13:
	movq	-96(%rbp), %rax
	movq	-88(%rbp), %rcx
	movq	%rcx, (%rbp)
	movq	%rax, 8(%rbp)
.Ltmp366:
	.cv_loc	119 18 2112 0
	movb	$0, 63(%rbp)
	jmp	.LBB118_7
	.seh_handlerdata
	.long	($cppxdata$_ZN4core4iter6traits8iterator8Iterator8try_fold17hb35566a39b10c9b4E)@IMGREL
	.section	.text,"xr",one_only,_ZN4core4iter6traits8iterator8Iterator8try_fold17hb35566a39b10c9b4E
	.seh_endproc
	.def	"?dtor$3@?0?_ZN4core4iter6traits8iterator8Iterator8try_fold17hb35566a39b10c9b4E@4HA";
	.scl	3;
	.type	32;
	.endef
	.p2align	4, 0x90
"?dtor$3@?0?_ZN4core4iter6traits8iterator8Iterator8try_fold17hb35566a39b10c9b4E@4HA":
.seh_proc "?dtor$3@?0?_ZN4core4iter6traits8iterator8Iterator8try_fold17hb35566a39b10c9b4E@4HA"
.LBB118_3:
	movq	%rdx, 16(%rsp)
	pushq	%rbp
	.seh_pushreg %rbp
	subq	$32, %rsp
	.seh_stackalloc 32
	leaq	128(%rdx), %rbp
	.seh_endprologue
	testb	$1, 63(%rbp)
	jne	.LBB118_15
	jmp	.LBB118_14
.LBB118_14:
	.cv_loc	119 18 2101 0
	addq	$32, %rsp
	popq	%rbp
	retq
.LBB118_15:
	.cv_loc	119 18 2112 0
	jmp	.LBB118_14
.Ltmp367:
.Lfunc_end118:
	.seh_handlerdata
	.section	.text,"xr",one_only,_ZN4core4iter6traits8iterator8Iterator8try_fold17hb35566a39b10c9b4E
	.seh_endproc
	.section	.xdata,"dr",associative,_ZN4core4iter6traits8iterator8Iterator8try_fold17hb35566a39b10c9b4E
	.p2align	2
$cppxdata$_ZN4core4iter6traits8iterator8Iterator8try_fold17hb35566a39b10c9b4E:
	.long	429065506
	.long	1
	.long	($stateUnwindMap$_ZN4core4iter6traits8iterator8Iterator8try_fold17hb35566a39b10c9b4E)@IMGREL
	.long	0
	.long	0
	.long	3
	.long	($ip2state$_ZN4core4iter6traits8iterator8Iterator8try_fold17hb35566a39b10c9b4E)@IMGREL
	.long	216
	.long	0
	.long	1
$stateUnwindMap$_ZN4core4iter6traits8iterator8Iterator8try_fold17hb35566a39b10c9b4E:
	.long	-1
	.long	"?dtor$3@?0?_ZN4core4iter6traits8iterator8Iterator8try_fold17hb35566a39b10c9b4E@4HA"@IMGREL
$ip2state$_ZN4core4iter6traits8iterator8Iterator8try_fold17hb35566a39b10c9b4E:
	.long	.Lfunc_begin118@IMGREL
	.long	-1
	.long	.Ltmp351@IMGREL+1
	.long	0
	.long	.Ltmp360@IMGREL+1
	.long	-1
	.section	.text,"xr",one_only,_ZN4core4iter6traits8iterator8Iterator8try_fold17hb35566a39b10c9b4E

	.def	_ZN4core4iter6traits8iterator8Iterator8try_fold17he81c8a1eaa3bdb5bE;
	.scl	2;
	.type	32;
	.endef
	.section	.text,"xr",one_only,_ZN4core4iter6traits8iterator8Iterator8try_fold17he81c8a1eaa3bdb5bE
	.globl	_ZN4core4iter6traits8iterator8Iterator8try_fold17he81c8a1eaa3bdb5bE
	.p2align	4, 0x90
_ZN4core4iter6traits8iterator8Iterator8try_fold17he81c8a1eaa3bdb5bE:
.Lfunc_begin119:
	.cv_func_id 120
	.cv_loc	120 18 2101 0
.seh_proc _ZN4core4iter6traits8iterator8Iterator8try_fold17he81c8a1eaa3bdb5bE
	.seh_handler __CxxFrameHandler3, @unwind, @except
	pushq	%rbp
	.seh_pushreg %rbp
	subq	$160, %rsp
	.seh_stackalloc 160
	leaq	128(%rsp), %rbp
	.seh_setframe %rbp, 128
	.seh_endprologue
	movq	$-2, 24(%rbp)
	movq	%rcx, -64(%rbp)
	movq	%rcx, (%rbp)
.Ltmp378:
	.cv_loc	120 18 2107 0
	movb	$0, -1(%rbp)
	movb	$1, -1(%rbp)
.LBB119_1:
	.cv_loc	120 18 2108 0
.Ltmp368:
	movq	-64(%rbp), %rcx
.Ltmp379:
	callq	_ZN102_$LT$core..iter..adapters..zip..Zip$LT$A$C$B$GT$$u20$as$u20$core..iter..traits..iterator..Iterator$GT$4next17hbba437edbc6afe7fE
.Ltmp369:
	movq	%rdx, -80(%rbp)
	movq	%rax, -72(%rbp)
	jmp	.LBB119_2
.LBB119_2:
	movq	-80(%rbp), %rax
	movq	-72(%rbp), %rcx
	movq	%rcx, -48(%rbp)
	movq	%rax, -40(%rbp)
	movl	$1, %eax
	xorl	%ecx, %ecx
	cmpq	$0, -48(%rbp)
	cmoveq	%rcx, %rax
	cmpq	$1, %rax
	je	.LBB119_4
	jmp	.LBB119_5
.LBB119_4:
	movq	-48(%rbp), %rcx
	movq	-40(%rbp), %rax
	movq	%rcx, 8(%rbp)
	movq	%rax, 16(%rbp)
	.cv_loc	120 18 2109 0
	movb	$0, -1(%rbp)
	movq	%rcx, -24(%rbp)
	movq	%rax, -16(%rbp)
	movq	-24(%rbp), %rdx
	movq	-16(%rbp), %r8
.Ltmp372:
	leaq	-56(%rbp), %rcx
	callq	_ZN4core4iter6traits8iterator8Iterator3all5check28_$u7b$$u7b$closure$u7d$$u7d$17hf68254e80a3d9de5E
.Ltmp373:
	movb	%al, -81(%rbp)
	jmp	.LBB119_8
.LBB119_5:
	.cv_loc	120 18 2111 0
	movb	$0, -1(%rbp)
.Ltmp370:
	callq	_ZN95_$LT$core..ops..control_flow..ControlFlow$LT$B$C$C$GT$$u20$as$u20$core..ops..try_trait..Try$GT$11from_output17h084b96c250ccc620E
.Ltmp371:
	movb	%al, -82(%rbp)
	jmp	.LBB119_6
.LBB119_6:
	movb	-82(%rbp), %al
	andb	$1, %al
	movb	%al, -49(%rbp)
.Ltmp380:
	.cv_loc	120 18 2112 0
	movb	$0, -1(%rbp)
.LBB119_7:
	movb	-49(%rbp), %al
	andb	$1, %al
	movzbl	%al, %eax
	addq	$160, %rsp
	popq	%rbp
	retq
.LBB119_8:
	.cv_loc	120 18 2109 0
.Ltmp374:
	movb	-81(%rbp), %cl
.Ltmp381:
	andb	$1, %cl
	callq	_ZN95_$LT$core..ops..control_flow..ControlFlow$LT$B$C$C$GT$$u20$as$u20$core..ops..try_trait..Try$GT$6branch17h7f908e23b1936012E
.Ltmp375:
	movb	%al, -83(%rbp)
	jmp	.LBB119_9
.LBB119_9:
	movb	-83(%rbp), %al
	andb	$1, %al
	movb	%al, -25(%rbp)
	movzbl	-25(%rbp), %eax
	testb	$1, %al
	je	.LBB119_11
	jmp	.LBB119_16
.LBB119_16:
	jmp	.LBB119_12
	ud2
.LBB119_11:
	movb	$1, -1(%rbp)
	.cv_loc	120 18 2108 0
	jmp	.LBB119_1
.LBB119_12:
	.cv_loc	120 18 2109 0
.Ltmp376:
.Ltmp382:
	callq	_ZN104_$LT$core..ops..control_flow..ControlFlow$LT$B$C$C$GT$$u20$as$u20$core..ops..try_trait..FromResidual$GT$13from_residual17h0b04be1c55d71da0E
.Ltmp377:
	movb	%al, -84(%rbp)
	jmp	.LBB119_13
.LBB119_13:
	movb	-84(%rbp), %al
	andb	$1, %al
	movb	%al, -49(%rbp)
.Ltmp383:
	.cv_loc	120 18 2112 0
	movb	$0, -1(%rbp)
	jmp	.LBB119_7
	.seh_handlerdata
	.long	($cppxdata$_ZN4core4iter6traits8iterator8Iterator8try_fold17he81c8a1eaa3bdb5bE)@IMGREL
	.section	.text,"xr",one_only,_ZN4core4iter6traits8iterator8Iterator8try_fold17he81c8a1eaa3bdb5bE
	.seh_endproc
	.def	"?dtor$3@?0?_ZN4core4iter6traits8iterator8Iterator8try_fold17he81c8a1eaa3bdb5bE@4HA";
	.scl	3;
	.type	32;
	.endef
	.p2align	4, 0x90
"?dtor$3@?0?_ZN4core4iter6traits8iterator8Iterator8try_fold17he81c8a1eaa3bdb5bE@4HA":
.seh_proc "?dtor$3@?0?_ZN4core4iter6traits8iterator8Iterator8try_fold17he81c8a1eaa3bdb5bE@4HA"
.LBB119_3:
	movq	%rdx, 16(%rsp)
	pushq	%rbp
	.seh_pushreg %rbp
	subq	$32, %rsp
	.seh_stackalloc 32
	leaq	128(%rdx), %rbp
	.seh_endprologue
	testb	$1, -1(%rbp)
	jne	.LBB119_15
	jmp	.LBB119_14
.LBB119_14:
	.cv_loc	120 18 2101 0
	addq	$32, %rsp
	popq	%rbp
	retq
.LBB119_15:
	.cv_loc	120 18 2112 0
	jmp	.LBB119_14
.Ltmp384:
.Lfunc_end119:
	.seh_handlerdata
	.section	.text,"xr",one_only,_ZN4core4iter6traits8iterator8Iterator8try_fold17he81c8a1eaa3bdb5bE
	.seh_endproc
	.section	.xdata,"dr",associative,_ZN4core4iter6traits8iterator8Iterator8try_fold17he81c8a1eaa3bdb5bE
	.p2align	2
$cppxdata$_ZN4core4iter6traits8iterator8Iterator8try_fold17he81c8a1eaa3bdb5bE:
	.long	429065506
	.long	1
	.long	($stateUnwindMap$_ZN4core4iter6traits8iterator8Iterator8try_fold17he81c8a1eaa3bdb5bE)@IMGREL
	.long	0
	.long	0
	.long	3
	.long	($ip2state$_ZN4core4iter6traits8iterator8Iterator8try_fold17he81c8a1eaa3bdb5bE)@IMGREL
	.long	152
	.long	0
	.long	1
$stateUnwindMap$_ZN4core4iter6traits8iterator8Iterator8try_fold17he81c8a1eaa3bdb5bE:
	.long	-1
	.long	"?dtor$3@?0?_ZN4core4iter6traits8iterator8Iterator8try_fold17he81c8a1eaa3bdb5bE@4HA"@IMGREL
$ip2state$_ZN4core4iter6traits8iterator8Iterator8try_fold17he81c8a1eaa3bdb5bE:
	.long	.Lfunc_begin119@IMGREL
	.long	-1
	.long	.Ltmp368@IMGREL+1
	.long	0
	.long	.Ltmp377@IMGREL+1
	.long	-1
	.section	.text,"xr",one_only,_ZN4core4iter6traits8iterator8Iterator8try_fold17he81c8a1eaa3bdb5bE

	.def	_ZN4core4iter6traits8iterator8Iterator3all17h8c1a56770f0361d2E;
	.scl	2;
	.type	32;
	.endef
	.section	.text,"xr",one_only,_ZN4core4iter6traits8iterator8Iterator3all17h8c1a56770f0361d2E
	.globl	_ZN4core4iter6traits8iterator8Iterator3all17h8c1a56770f0361d2E
	.p2align	4, 0x90
_ZN4core4iter6traits8iterator8Iterator3all17h8c1a56770f0361d2E:
.Lfunc_begin120:
	.cv_func_id 121
	.cv_loc	121 18 2452 0
.seh_proc _ZN4core4iter6traits8iterator8Iterator3all17h8c1a56770f0361d2E
	subq	$72, %rsp
	.seh_stackalloc 72
	.seh_endprologue
	movq	%rcx, 40(%rsp)
	movq	%rcx, 56(%rsp)
.Ltmp385:
	.cv_loc	121 18 2463 0
	callq	_ZN4core4iter6traits8iterator8Iterator3all5check17hf90546a84686a13dE
	movq	40(%rsp), %rcx
	callq	_ZN4core4iter6traits8iterator8Iterator8try_fold17he81c8a1eaa3bdb5bE
	andb	$1, %al
	movb	%al, 55(%rsp)
	leaq	55(%rsp), %rcx
	leaq	__unnamed_41(%rip), %rdx
	callq	_ZN90_$LT$core..ops..control_flow..ControlFlow$LT$B$C$C$GT$$u20$as$u20$core..cmp..PartialEq$GT$2eq17hc9950a1ec904bef3E
	movb	%al, 39(%rsp)
	.cv_loc	121 18 2464 0
	movb	39(%rsp), %al
	andb	$1, %al
	movzbl	%al, %eax
	addq	$72, %rsp
	retq
.Ltmp386:
.Lfunc_end120:
	.seh_endproc

	.def	_ZN4core4iter6traits8iterator8Iterator3all5check17hf90546a84686a13dE;
	.scl	2;
	.type	32;
	.endef
	.section	.text,"xr",one_only,_ZN4core4iter6traits8iterator8Iterator3all5check17hf90546a84686a13dE
	.globl	_ZN4core4iter6traits8iterator8Iterator3all5check17hf90546a84686a13dE
	.p2align	4, 0x90
_ZN4core4iter6traits8iterator8Iterator3all5check17hf90546a84686a13dE:
.Lfunc_begin121:
	.cv_func_id 122
	.cv_loc	122 18 2458 0
.seh_proc _ZN4core4iter6traits8iterator8Iterator3all5check17hf90546a84686a13dE
	subq	$16, %rsp
	.seh_stackalloc 16
	.seh_endprologue
.Ltmp387:
	.cv_loc	122 18 2462 0
	addq	$16, %rsp
	retq
.Ltmp388:
.Lfunc_end121:
	.seh_endproc

	.def	_ZN4core4iter6traits8iterator8Iterator3all5check28_$u7b$$u7b$closure$u7d$$u7d$17hf68254e80a3d9de5E;
	.scl	2;
	.type	32;
	.endef
	.section	.text,"xr",one_only,_ZN4core4iter6traits8iterator8Iterator3all5check28_$u7b$$u7b$closure$u7d$$u7d$17hf68254e80a3d9de5E
	.globl	_ZN4core4iter6traits8iterator8Iterator3all5check28_$u7b$$u7b$closure$u7d$$u7d$17hf68254e80a3d9de5E
	.p2align	4, 0x90
_ZN4core4iter6traits8iterator8Iterator3all5check28_$u7b$$u7b$closure$u7d$$u7d$17hf68254e80a3d9de5E:
.Lfunc_begin122:
	.cv_func_id 123
	.cv_loc	123 18 2459 0
.seh_proc _ZN4core4iter6traits8iterator8Iterator3all5check28_$u7b$$u7b$closure$u7d$$u7d$17hf68254e80a3d9de5E
	subq	$88, %rsp
	.seh_stackalloc 88
	.seh_endprologue
	movq	%rcx, 56(%rsp)
	movq	%rdx, 72(%rsp)
	movq	%r8, 80(%rsp)
.Ltmp389:
	.cv_loc	123 18 2460 0
	movq	%rdx, 40(%rsp)
	movq	%r8, 48(%rsp)
	movq	40(%rsp), %rdx
	movq	48(%rsp), %r8
	callq	_ZN4core5slice5ascii30_$LT$impl$u20$$u5b$u8$u5d$$GT$20eq_ignore_ascii_case28_$u7b$$u7b$closure$u7d$$u7d$17h17a65664d3e4c8daE
	movb	%al, 38(%rsp)
	movb	38(%rsp), %al
	testb	$1, %al
	jne	.LBB122_3
	jmp	.LBB122_2
.LBB122_2:
	movb	$1, 39(%rsp)
	jmp	.LBB122_4
.LBB122_3:
	movb	$0, 39(%rsp)
.LBB122_4:
	.cv_loc	123 18 2461 0
	movb	39(%rsp), %al
	andb	$1, %al
	movzbl	%al, %eax
	addq	$88, %rsp
	retq
.Ltmp390:
.Lfunc_end122:
	.seh_endproc

	.def	_ZN4core4iter6traits8iterator8Iterator4find17h3cd1ab9bb36a9901E;
	.scl	2;
	.type	32;
	.endef
	.section	.text,"xr",one_only,_ZN4core4iter6traits8iterator8Iterator4find17h3cd1ab9bb36a9901E
	.globl	_ZN4core4iter6traits8iterator8Iterator4find17h3cd1ab9bb36a9901E
	.p2align	4, 0x90
_ZN4core4iter6traits8iterator8Iterator4find17h3cd1ab9bb36a9901E:
.Lfunc_begin123:
	.cv_func_id 124
	.cv_loc	124 18 2565 0
.seh_proc _ZN4core4iter6traits8iterator8Iterator4find17h3cd1ab9bb36a9901E
	subq	$104, %rsp
	.seh_stackalloc 104
	.seh_endprologue
	movq	%rdx, 64(%rsp)
	movq	%rcx, %rax
	movq	64(%rsp), %rcx
	movq	%rax, 72(%rsp)
	movq	%rax, 88(%rsp)
	movq	%rcx, 96(%rsp)
.Ltmp391:
	.cv_loc	124 18 2577 0
	callq	_ZN4core4iter6traits8iterator8Iterator4find5check17h3dd9dda9fe49c8deE
	movq	%rax, 80(%rsp)
	movq	80(%rsp), %rdx
	movq	72(%rsp), %rcx
	callq	_ZN4core4iter6traits8iterator8Iterator8try_fold17hb35566a39b10c9b4E
	movq	%rax, 48(%rsp)
	movq	%rdx, 56(%rsp)
	movq	56(%rsp), %rdx
	movq	48(%rsp), %rcx
	callq	_ZN4core3ops12control_flow24ControlFlow$LT$B$C$C$GT$11break_value17h208cc0e113707440E
	movq	%rax, 32(%rsp)
	movq	%rdx, 40(%rsp)
	.cv_loc	124 18 2578 0
	movq	40(%rsp), %rdx
	movq	32(%rsp), %rax
	addq	$104, %rsp
	retq
.Ltmp392:
.Lfunc_end123:
	.seh_endproc

	.def	_ZN4core4iter6traits8iterator8Iterator4find5check17h3dd9dda9fe49c8deE;
	.scl	2;
	.type	32;
	.endef
	.section	.text,"xr",one_only,_ZN4core4iter6traits8iterator8Iterator4find5check17h3dd9dda9fe49c8deE
	.globl	_ZN4core4iter6traits8iterator8Iterator4find5check17h3dd9dda9fe49c8deE
	.p2align	4, 0x90
_ZN4core4iter6traits8iterator8Iterator4find5check17h3dd9dda9fe49c8deE:
.Lfunc_begin124:
	.cv_func_id 125
	.cv_loc	125 18 2571 0
.seh_proc _ZN4core4iter6traits8iterator8Iterator4find5check17h3dd9dda9fe49c8deE
	subq	$16, %rsp
	.seh_stackalloc 16
	.seh_endprologue
	movq	%rcx, 8(%rsp)
.Ltmp393:
	.cv_loc	125 18 2572 0
	movq	%rcx, (%rsp)
	.cv_loc	125 18 2575 0
	movq	(%rsp), %rax
	addq	$16, %rsp
	retq
.Ltmp394:
.Lfunc_end124:
	.seh_endproc

	.def	_ZN4core4iter6traits8iterator8Iterator4find5check28_$u7b$$u7b$closure$u7d$$u7d$17h8cd87f6708ddc320E;
	.scl	2;
	.type	32;
	.endef
	.section	.text,"xr",one_only,_ZN4core4iter6traits8iterator8Iterator4find5check28_$u7b$$u7b$closure$u7d$$u7d$17h8cd87f6708ddc320E
	.globl	_ZN4core4iter6traits8iterator8Iterator4find5check28_$u7b$$u7b$closure$u7d$$u7d$17h8cd87f6708ddc320E
	.p2align	4, 0x90
_ZN4core4iter6traits8iterator8Iterator4find5check28_$u7b$$u7b$closure$u7d$$u7d$17h8cd87f6708ddc320E:
.Lfunc_begin125:
	.cv_func_id 126
	.cv_loc	126 18 2572 0
.seh_proc _ZN4core4iter6traits8iterator8Iterator4find5check28_$u7b$$u7b$closure$u7d$$u7d$17h8cd87f6708ddc320E
	.seh_handler __CxxFrameHandler3, @unwind, @except
	pushq	%rbp
	.seh_pushreg %rbp
	subq	$96, %rsp
	.seh_stackalloc 96
	leaq	96(%rsp), %rbp
	.seh_setframe %rbp, 96
	.seh_endprologue
	movq	$-2, -8(%rbp)
	movq	%rdx, -56(%rbp)
	movq	%rcx, -16(%rbp)
.Ltmp397:
	.cv_loc	126 18 2573 0
	movb	$0, -17(%rbp)
	movb	$1, -17(%rbp)
	leaq	-56(%rbp), %rax
	movq	%rax, -32(%rbp)
	movq	-32(%rbp), %rdx
.Ltmp395:
	callq	_ZN4core3ops8function5impls79_$LT$impl$u20$core..ops..function..FnMut$LT$A$GT$$u20$for$u20$$RF$mut$u20$F$GT$8call_mut17h802b57463a2736d6E
.Ltmp396:
	movb	%al, -57(%rbp)
	jmp	.LBB125_1
.LBB125_1:
	movb	-57(%rbp), %al
	testb	$1, %al
	jne	.LBB125_4
	jmp	.LBB125_3
.LBB125_3:
	movq	$0, -48(%rbp)
	movq	$0, -40(%rbp)
	jmp	.LBB125_5
.LBB125_4:
	movb	$0, -17(%rbp)
	movq	-56(%rbp), %rax
	movq	%rax, -40(%rbp)
	movq	$1, -48(%rbp)
.LBB125_5:
	.cv_loc	126 18 2574 0
	testb	$1, -17(%rbp)
	jne	.LBB125_7
.LBB125_6:
	movq	-48(%rbp), %rax
	movq	-40(%rbp), %rdx
	addq	$96, %rsp
	popq	%rbp
	retq
.LBB125_7:
	jmp	.LBB125_6
	.seh_handlerdata
	.long	($cppxdata$_ZN4core4iter6traits8iterator8Iterator4find5check28_$u7b$$u7b$closure$u7d$$u7d$17h8cd87f6708ddc320E)@IMGREL
	.section	.text,"xr",one_only,_ZN4core4iter6traits8iterator8Iterator4find5check28_$u7b$$u7b$closure$u7d$$u7d$17h8cd87f6708ddc320E
	.seh_endproc
	.def	"?dtor$2@?0?_ZN4core4iter6traits8iterator8Iterator4find5check28_$u7b$$u7b$closure$u7d$$u7d$17h8cd87f6708ddc320E@4HA";
	.scl	3;
	.type	32;
	.endef
	.p2align	4, 0x90
"?dtor$2@?0?_ZN4core4iter6traits8iterator8Iterator4find5check28_$u7b$$u7b$closure$u7d$$u7d$17h8cd87f6708ddc320E@4HA":
.seh_proc "?dtor$2@?0?_ZN4core4iter6traits8iterator8Iterator4find5check28_$u7b$$u7b$closure$u7d$$u7d$17h8cd87f6708ddc320E@4HA"
.LBB125_2:
	movq	%rdx, 16(%rsp)
	pushq	%rbp
	.seh_pushreg %rbp
	subq	$32, %rsp
	.seh_stackalloc 32
	leaq	96(%rdx), %rbp
	.seh_endprologue
	.cv_loc	126 18 2572 0
	addq	$32, %rsp
	popq	%rbp
	retq
.Ltmp398:
.Lfunc_end125:
	.seh_handlerdata
	.section	.text,"xr",one_only,_ZN4core4iter6traits8iterator8Iterator4find5check28_$u7b$$u7b$closure$u7d$$u7d$17h8cd87f6708ddc320E
	.seh_endproc
	.section	.xdata,"dr",associative,_ZN4core4iter6traits8iterator8Iterator4find5check28_$u7b$$u7b$closure$u7d$$u7d$17h8cd87f6708ddc320E
	.p2align	2
$cppxdata$_ZN4core4iter6traits8iterator8Iterator4find5check28_$u7b$$u7b$closure$u7d$$u7d$17h8cd87f6708ddc320E:
	.long	429065506
	.long	1
	.long	($stateUnwindMap$_ZN4core4iter6traits8iterator8Iterator4find5check28_$u7b$$u7b$closure$u7d$$u7d$17h8cd87f6708ddc320E)@IMGREL
	.long	0
	.long	0
	.long	3
	.long	($ip2state$_ZN4core4iter6traits8iterator8Iterator4find5check28_$u7b$$u7b$closure$u7d$$u7d$17h8cd87f6708ddc320E)@IMGREL
	.long	88
	.long	0
	.long	1
$stateUnwindMap$_ZN4core4iter6traits8iterator8Iterator4find5check28_$u7b$$u7b$closure$u7d$$u7d$17h8cd87f6708ddc320E:
	.long	-1
	.long	"?dtor$2@?0?_ZN4core4iter6traits8iterator8Iterator4find5check28_$u7b$$u7b$closure$u7d$$u7d$17h8cd87f6708ddc320E@4HA"@IMGREL
$ip2state$_ZN4core4iter6traits8iterator8Iterator4find5check28_$u7b$$u7b$closure$u7d$$u7d$17h8cd87f6708ddc320E:
	.long	.Lfunc_begin125@IMGREL
	.long	-1
	.long	.Ltmp395@IMGREL+1
	.long	0
	.long	.Ltmp396@IMGREL+1
	.long	-1
	.section	.text,"xr",one_only,_ZN4core4iter6traits8iterator8Iterator4find5check28_$u7b$$u7b$closure$u7d$$u7d$17h8cd87f6708ddc320E

	.def	_ZN4core6option15Option$LT$T$GT$7is_some17hdc1bcc1215751c9fE;
	.scl	2;
	.type	32;
	.endef
	.section	.text,"xr",one_only,_ZN4core6option15Option$LT$T$GT$7is_some17hdc1bcc1215751c9fE
	.globl	_ZN4core6option15Option$LT$T$GT$7is_some17hdc1bcc1215751c9fE
	.p2align	4, 0x90
_ZN4core6option15Option$LT$T$GT$7is_some17hdc1bcc1215751c9fE:
.Lfunc_begin126:
	.cv_func_id 127
	.cv_file	19 "/rustc/7737e0b5c4103216d6fd8cf941b7ab9bdbaace7c\\library\\core\\src\\option.rs" "BE0AE7D636EAB5D84734B2A41E0804DA72C75BCD" 2
	.cv_loc	127 19 550 0
.seh_proc _ZN4core6option15Option$LT$T$GT$7is_some17hdc1bcc1215751c9fE
	subq	$16, %rsp
	.seh_stackalloc 16
	.seh_endprologue
	movq	%rcx, %rdx
	movq	%rdx, 8(%rsp)
.Ltmp399:
	.cv_loc	127 19 551 0
	movl	$1, %eax
	xorl	%ecx, %ecx
	cmpq	$0, (%rdx)
	cmoveq	%rcx, %rax
	cmpq	$1, %rax
	jne	.LBB126_2
	movb	$1, 7(%rsp)
	jmp	.LBB126_3
.LBB126_2:
	movb	$0, 7(%rsp)
.LBB126_3:
	.cv_loc	127 19 552 0
	movb	7(%rsp), %al
	andb	$1, %al
	movzbl	%al, %eax
	addq	$16, %rsp
	retq
.Ltmp400:
.Lfunc_end126:
	.seh_endproc

	.def	_ZN4core6option15Option$LT$T$GT$6unwrap17h9cf46cd6a1af00caE;
	.scl	2;
	.type	32;
	.endef
	.section	.text,"xr",one_only,_ZN4core6option15Option$LT$T$GT$6unwrap17h9cf46cd6a1af00caE
	.globl	_ZN4core6option15Option$LT$T$GT$6unwrap17h9cf46cd6a1af00caE
	.p2align	4, 0x90
_ZN4core6option15Option$LT$T$GT$6unwrap17h9cf46cd6a1af00caE:
.Lfunc_begin127:
	.cv_func_id 128
	.cv_loc	128 19 749 0
.seh_proc _ZN4core6option15Option$LT$T$GT$6unwrap17h9cf46cd6a1af00caE
	subq	$56, %rsp
	.seh_stackalloc 56
	.seh_endprologue
	movq	%rdx, 32(%rsp)
	movq	%rcx, 40(%rsp)
.Ltmp401:
	.cv_loc	128 19 750 0
	movq	40(%rsp), %rax
	addq	$-6, %rax
	setne	%al
	movzbl	%al, %eax
	je	.LBB127_2
	jmp	.LBB127_4
.LBB127_4:
	jmp	.LBB127_3
	ud2
.LBB127_2:
	.cv_loc	128 19 752 0
	movq	32(%rsp), %r8
	leaq	__unnamed_42(%rip), %rcx
	movl	$43, %edx
	callq	_ZN4core9panicking5panic17he5e92b81a70761b4E
	ud2
.LBB127_3:
	.cv_loc	128 19 751 0
	movq	40(%rsp), %rax
	movq	%rax, 48(%rsp)
	.cv_loc	128 19 754 0
	addq	$56, %rsp
	retq
.Ltmp402:
.Lfunc_end127:
	.seh_endproc

	.def	_ZN4core6option15Option$LT$T$GT$6unwrap17hc53d83d0a44be6d3E;
	.scl	2;
	.type	32;
	.endef
	.section	.text,"xr",one_only,_ZN4core6option15Option$LT$T$GT$6unwrap17hc53d83d0a44be6d3E
	.globl	_ZN4core6option15Option$LT$T$GT$6unwrap17hc53d83d0a44be6d3E
	.p2align	4, 0x90
_ZN4core6option15Option$LT$T$GT$6unwrap17hc53d83d0a44be6d3E:
.Lfunc_begin128:
	.cv_func_id 129
	.cv_loc	129 19 749 0
.seh_proc _ZN4core6option15Option$LT$T$GT$6unwrap17hc53d83d0a44be6d3E
	subq	$56, %rsp
	.seh_stackalloc 56
	.seh_endprologue
	movq	%rdx, 32(%rsp)
	movq	%rcx, 40(%rsp)
.Ltmp403:
	.cv_loc	129 19 750 0
	movq	40(%rsp), %rax
	testq	%rax, %rax
	setne	%al
	movzbl	%al, %eax
	je	.LBB128_2
	jmp	.LBB128_4
.LBB128_4:
	jmp	.LBB128_3
	ud2
.LBB128_2:
	.cv_loc	129 19 752 0
	movq	32(%rsp), %r8
	leaq	__unnamed_42(%rip), %rcx
	movl	$43, %edx
	callq	_ZN4core9panicking5panic17he5e92b81a70761b4E
	ud2
.LBB128_3:
	.cv_loc	129 19 751 0
	movq	40(%rsp), %rax
	movq	%rax, 48(%rsp)
	.cv_loc	129 19 754 0
	addq	$56, %rsp
	retq
.Ltmp404:
.Lfunc_end128:
	.seh_endproc

	.def	_ZN4core6option15Option$LT$T$GT$3map17h4526c32493b85c10E;
	.scl	2;
	.type	32;
	.endef
	.section	.text,"xr",one_only,_ZN4core6option15Option$LT$T$GT$3map17h4526c32493b85c10E
	.globl	_ZN4core6option15Option$LT$T$GT$3map17h4526c32493b85c10E
	.p2align	4, 0x90
_ZN4core6option15Option$LT$T$GT$3map17h4526c32493b85c10E:
.Lfunc_begin129:
	.cv_func_id 130
	.cv_loc	130 19 900 0
.seh_proc _ZN4core6option15Option$LT$T$GT$3map17h4526c32493b85c10E
	subq	$136, %rsp
	.seh_stackalloc 136
	.seh_endprologue
	movq	%rcx, 32(%rsp)
	movq	%rcx, 40(%rsp)
	movq	%rdx, 48(%rsp)
	movq	%r8, 56(%rsp)
.Ltmp405:
	.cv_loc	130 19 905 0
	movb	$0, 111(%rsp)
	movb	$1, 111(%rsp)
	movq	48(%rsp), %rax
	testq	%rax, %rax
	setne	%al
	movzbl	%al, %eax
	je	.LBB129_2
	jmp	.LBB129_8
.LBB129_8:
	jmp	.LBB129_3
	ud2
.LBB129_2:
	.cv_loc	130 19 907 0
	movq	32(%rsp), %rax
	movq	$2, (%rax)
	jmp	.LBB129_5
.LBB129_3:
	.cv_loc	130 19 906 0
	movq	48(%rsp), %rcx
	movq	56(%rsp), %rax
	movq	%rcx, 120(%rsp)
	movq	%rax, 128(%rsp)
.Ltmp406:
	.cv_loc	130 19 906 0
	movb	$0, 111(%rsp)
	movq	%rcx, 88(%rsp)
	movq	%rax, 96(%rsp)
	movq	88(%rsp), %rdx
	movq	96(%rsp), %r8
	leaq	64(%rsp), %rcx
	callq	_ZN4core3ops8function6FnOnce9call_once17ha90c23754cd36505E
	movq	32(%rsp), %rax
	movq	64(%rsp), %rcx
	movq	%rcx, (%rax)
	movq	72(%rsp), %rcx
	movq	%rcx, 8(%rax)
	movq	80(%rsp), %rcx
	movq	%rcx, 16(%rax)
.Ltmp407:
.LBB129_5:
	.cv_loc	130 19 909 0
	testb	$1, 111(%rsp)
	jne	.LBB129_7
.LBB129_6:
	movq	40(%rsp), %rax
	addq	$136, %rsp
	retq
.LBB129_7:
	jmp	.LBB129_6
.Ltmp408:
.Lfunc_end129:
	.seh_endproc

	.def	_ZN4core6option15Option$LT$T$GT$3map17h7a8e5480617f55c2E;
	.scl	2;
	.type	32;
	.endef
	.section	.text,"xr",one_only,_ZN4core6option15Option$LT$T$GT$3map17h7a8e5480617f55c2E
	.globl	_ZN4core6option15Option$LT$T$GT$3map17h7a8e5480617f55c2E
	.p2align	4, 0x90
_ZN4core6option15Option$LT$T$GT$3map17h7a8e5480617f55c2E:
.Lfunc_begin130:
	.cv_func_id 131
	.cv_loc	131 19 900 0
.seh_proc _ZN4core6option15Option$LT$T$GT$3map17h7a8e5480617f55c2E
	subq	$104, %rsp
	.seh_stackalloc 104
	.seh_endprologue
	movq	%r8, 40(%rsp)
	movq	%rcx, 48(%rsp)
	movq	%rdx, 56(%rsp)
	movq	%r8, 88(%rsp)
.Ltmp409:
	.cv_loc	131 19 905 0
	movb	$0, 87(%rsp)
	movb	$1, 87(%rsp)
	movq	48(%rsp), %rax
	testq	%rax, %rax
	je	.LBB130_2
	jmp	.LBB130_8
.LBB130_8:
	jmp	.LBB130_3
	ud2
.LBB130_2:
	.cv_loc	131 19 907 0
	movq	$0, 64(%rsp)
	jmp	.LBB130_5
.LBB130_3:
	.cv_loc	131 19 906 0
	movq	40(%rsp), %rcx
	movq	56(%rsp), %rax
	movq	%rax, 96(%rsp)
.Ltmp410:
	.cv_loc	131 19 906 0
	movb	$0, 87(%rsp)
	movq	%rax, 72(%rsp)
	movq	72(%rsp), %rdx
	callq	_ZN4core3ops8function5impls80_$LT$impl$u20$core..ops..function..FnOnce$LT$A$GT$$u20$for$u20$$RF$mut$u20$F$GT$9call_once17h2369dd6f0a588a72E
	movq	%rax, 32(%rsp)
	movq	32(%rsp), %rax
	movq	%rax, 64(%rsp)
.Ltmp411:
.LBB130_5:
	.cv_loc	131 19 909 0
	testb	$1, 87(%rsp)
	jne	.LBB130_7
.LBB130_6:
	movq	64(%rsp), %rax
	addq	$104, %rsp
	retq
.LBB130_7:
	jmp	.LBB130_6
.Ltmp412:
.Lfunc_end130:
	.seh_endproc

	.def	_ZN4core6option15Option$LT$T$GT$3map17h8bcbc1bc7457fa66E;
	.scl	2;
	.type	32;
	.endef
	.section	.text,"xr",one_only,_ZN4core6option15Option$LT$T$GT$3map17h8bcbc1bc7457fa66E
	.globl	_ZN4core6option15Option$LT$T$GT$3map17h8bcbc1bc7457fa66E
	.p2align	4, 0x90
_ZN4core6option15Option$LT$T$GT$3map17h8bcbc1bc7457fa66E:
.Lfunc_begin131:
	.cv_func_id 132
	.cv_loc	132 19 900 0
.seh_proc _ZN4core6option15Option$LT$T$GT$3map17h8bcbc1bc7457fa66E
	subq	$104, %rsp
	.seh_stackalloc 104
	.seh_endprologue
	movq	%rcx, 48(%rsp)
	movq	%rdx, 56(%rsp)
.Ltmp413:
	.cv_loc	132 19 905 0
	movb	$0, 87(%rsp)
	movb	$1, 87(%rsp)
	movq	48(%rsp), %rax
	testq	%rax, %rax
	je	.LBB131_2
	jmp	.LBB131_8
.LBB131_8:
	jmp	.LBB131_3
	ud2
.LBB131_2:
	.cv_loc	132 19 907 0
	movq	$6, 64(%rsp)
	jmp	.LBB131_5
.LBB131_3:
	.cv_loc	132 19 906 0
	movq	56(%rsp), %rax
	movq	%rax, 96(%rsp)
.Ltmp414:
	.cv_loc	132 19 906 0
	movb	$0, 87(%rsp)
	movq	%rax, 72(%rsp)
	movq	72(%rsp), %rcx
	callq	_ZN63_$LT$log..LevelFilter$u20$as$u20$core..str..traits..FromStr$GT$8from_str28_$u7b$$u7b$closure$u7d$$u7d$17h9cc13f589aac4f70E
	movq	%rax, 40(%rsp)
	movq	40(%rsp), %rax
	movq	%rax, 64(%rsp)
.Ltmp415:
.LBB131_5:
	.cv_loc	132 19 909 0
	testb	$1, 87(%rsp)
	jne	.LBB131_7
.LBB131_6:
	movq	64(%rsp), %rax
	addq	$104, %rsp
	retq
.LBB131_7:
	jmp	.LBB131_6
.Ltmp416:
.Lfunc_end131:
	.seh_endproc

	.def	_ZN4core6option15Option$LT$T$GT$4take17h7a4aa572489c7fe7E;
	.scl	2;
	.type	32;
	.endef
	.section	.text,"xr",one_only,_ZN4core6option15Option$LT$T$GT$4take17h7a4aa572489c7fe7E
	.globl	_ZN4core6option15Option$LT$T$GT$4take17h7a4aa572489c7fe7E
	.p2align	4, 0x90
_ZN4core6option15Option$LT$T$GT$4take17h7a4aa572489c7fe7E:
.Lfunc_begin132:
	.cv_func_id 133
	.cv_loc	133 19 1552 0
.seh_proc _ZN4core6option15Option$LT$T$GT$4take17h7a4aa572489c7fe7E
	subq	$72, %rsp
	.seh_stackalloc 72
	.seh_endprologue
	movq	%rcx, 64(%rsp)
.Ltmp417:
	.cv_loc	133 19 1554 0
	movq	$0, 48(%rsp)
	movq	48(%rsp), %rdx
	movq	56(%rsp), %r8
	callq	_ZN4core3mem7replace17h04895893bd60873dE
	movq	%rax, 32(%rsp)
	movq	%rdx, 40(%rsp)
	.cv_loc	133 19 1555 0
	movq	40(%rsp), %rdx
	movq	32(%rsp), %rax
	addq	$72, %rsp
	retq
.Ltmp418:
.Lfunc_end132:
	.seh_endproc

	.def	_ZN68_$LT$core..option..Option$LT$T$GT$$u20$as$u20$core..clone..Clone$GT$5clone17h04a4bba8e0f98fa0E;
	.scl	2;
	.type	32;
	.endef
	.section	.text,"xr",one_only,_ZN68_$LT$core..option..Option$LT$T$GT$$u20$as$u20$core..clone..Clone$GT$5clone17h04a4bba8e0f98fa0E
	.globl	_ZN68_$LT$core..option..Option$LT$T$GT$$u20$as$u20$core..clone..Clone$GT$5clone17h04a4bba8e0f98fa0E
	.p2align	4, 0x90
_ZN68_$LT$core..option..Option$LT$T$GT$$u20$as$u20$core..clone..Clone$GT$5clone17h04a4bba8e0f98fa0E:
.Lfunc_begin133:
	.cv_func_id 134
	.cv_loc	134 19 1862 0
.seh_proc _ZN68_$LT$core..option..Option$LT$T$GT$$u20$as$u20$core..clone..Clone$GT$5clone17h04a4bba8e0f98fa0E
	subq	$72, %rsp
	.seh_stackalloc 72
	.seh_endprologue
	movq	%rcx, 40(%rsp)
	movq	%rcx, 56(%rsp)
.Ltmp419:
	.cv_loc	134 19 1863 0
	movl	(%rcx), %eax
	testq	%rax, %rax
	je	.LBB133_2
	jmp	.LBB133_6
.LBB133_6:
	jmp	.LBB133_3
	ud2
.LBB133_2:
	.cv_loc	134 19 1865 0
	movl	$0, 48(%rsp)
	jmp	.LBB133_5
.LBB133_3:
	.cv_loc	134 19 1864 0
	movq	40(%rsp), %rcx
	addq	$4, %rcx
	movq	%rcx, 64(%rsp)
.Ltmp420:
	.cv_loc	134 19 1864 0
	callq	_ZN4core5clone5impls52_$LT$impl$u20$core..clone..Clone$u20$for$u20$u32$GT$5clone17heff85127d2f24c50E
	movl	%eax, 36(%rsp)
	movl	36(%rsp), %eax
	movl	%eax, 52(%rsp)
	movl	$1, 48(%rsp)
.Ltmp421:
.LBB133_5:
	.cv_loc	134 19 1867 0
	movl	48(%rsp), %eax
	movl	52(%rsp), %edx
	addq	$72, %rsp
	retq
.Ltmp422:
.Lfunc_end133:
	.seh_endproc

	.def	_ZN68_$LT$core..option..Option$LT$T$GT$$u20$as$u20$core..clone..Clone$GT$5clone17he9d307f77d0219d5E;
	.scl	2;
	.type	32;
	.endef
	.section	.text,"xr",one_only,_ZN68_$LT$core..option..Option$LT$T$GT$$u20$as$u20$core..clone..Clone$GT$5clone17he9d307f77d0219d5E
	.globl	_ZN68_$LT$core..option..Option$LT$T$GT$$u20$as$u20$core..clone..Clone$GT$5clone17he9d307f77d0219d5E
	.p2align	4, 0x90
_ZN68_$LT$core..option..Option$LT$T$GT$$u20$as$u20$core..clone..Clone$GT$5clone17he9d307f77d0219d5E:
.Lfunc_begin134:
	.cv_func_id 135
	.cv_loc	135 19 1862 0
.seh_proc _ZN68_$LT$core..option..Option$LT$T$GT$$u20$as$u20$core..clone..Clone$GT$5clone17he9d307f77d0219d5E
	subq	$104, %rsp
	.seh_stackalloc 104
	.seh_endprologue
	movq	%rdx, 40(%rsp)
	movq	%rcx, 48(%rsp)
	movq	%rcx, 56(%rsp)
	movq	%rdx, 88(%rsp)
.Ltmp423:
	.cv_loc	135 19 1863 0
	movq	(%rdx), %rax
	addq	$-2, %rax
	setne	%al
	movzbl	%al, %eax
	je	.LBB134_2
	jmp	.LBB134_6
.LBB134_6:
	jmp	.LBB134_3
	ud2
.LBB134_2:
	.cv_loc	135 19 1865 0
	movq	48(%rsp), %rax
	movq	$2, (%rax)
	jmp	.LBB134_5
.LBB134_3:
	.cv_loc	135 19 1864 0
	movq	40(%rsp), %rdx
	movq	%rdx, 96(%rsp)
.Ltmp424:
	.cv_loc	135 19 1864 0
	leaq	64(%rsp), %rcx
	callq	_ZN58_$LT$log..MaybeStaticStr$u20$as$u20$core..clone..Clone$GT$5clone17hd74f72cb59ef9a6eE
	movq	48(%rsp), %rax
	movq	64(%rsp), %rcx
	movq	%rcx, (%rax)
	movq	72(%rsp), %rcx
	movq	%rcx, 8(%rax)
	movq	80(%rsp), %rcx
	movq	%rcx, 16(%rax)
.Ltmp425:
.LBB134_5:
	.cv_loc	135 19 1867 0
	movq	56(%rsp), %rax
	addq	$104, %rsp
	retq
.Ltmp426:
.Lfunc_end134:
	.seh_endproc

	.def	_ZN91_$LT$core..option..Option$LT$T$GT$$u20$as$u20$core..iter..traits..collect..IntoIterator$GT$9into_iter17h9065db61e1ddf31eE;
	.scl	2;
	.type	32;
	.endef
	.section	.text,"xr",one_only,_ZN91_$LT$core..option..Option$LT$T$GT$$u20$as$u20$core..iter..traits..collect..IntoIterator$GT$9into_iter17h9065db61e1ddf31eE
	.globl	_ZN91_$LT$core..option..Option$LT$T$GT$$u20$as$u20$core..iter..traits..collect..IntoIterator$GT$9into_iter17h9065db61e1ddf31eE
	.p2align	4, 0x90
_ZN91_$LT$core..option..Option$LT$T$GT$$u20$as$u20$core..iter..traits..collect..IntoIterator$GT$9into_iter17h9065db61e1ddf31eE:
.Lfunc_begin135:
	.cv_func_id 136
	.cv_loc	136 19 1914 0
.seh_proc _ZN91_$LT$core..option..Option$LT$T$GT$$u20$as$u20$core..iter..traits..collect..IntoIterator$GT$9into_iter17h9065db61e1ddf31eE
	subq	$48, %rsp
	.seh_stackalloc 48
	.seh_endprologue
	movq	%rcx, 32(%rsp)
	movq	%rdx, 40(%rsp)
.Ltmp427:
	.cv_loc	136 19 1915 0
	movq	%rcx, 16(%rsp)
	movq	%rdx, 24(%rsp)
	movq	16(%rsp), %rcx
	movq	24(%rsp), %rax
	movq	%rcx, (%rsp)
	movq	%rax, 8(%rsp)
	.cv_loc	136 19 1916 0
	movq	(%rsp), %rax
	movq	8(%rsp), %rdx
	addq	$48, %rsp
	retq
.Ltmp428:
.Lfunc_end135:
	.seh_endproc

	.def	_ZN86_$LT$core..option..Item$LT$A$GT$$u20$as$u20$core..iter..traits..iterator..Iterator$GT$4next17h0b0c35906ea211e0E;
	.scl	2;
	.type	32;
	.endef
	.section	.text,"xr",one_only,_ZN86_$LT$core..option..Item$LT$A$GT$$u20$as$u20$core..iter..traits..iterator..Iterator$GT$4next17h0b0c35906ea211e0E
	.globl	_ZN86_$LT$core..option..Item$LT$A$GT$$u20$as$u20$core..iter..traits..iterator..Iterator$GT$4next17h0b0c35906ea211e0E
	.p2align	4, 0x90
_ZN86_$LT$core..option..Item$LT$A$GT$$u20$as$u20$core..iter..traits..iterator..Iterator$GT$4next17h0b0c35906ea211e0E:
.Lfunc_begin136:
	.cv_func_id 137
	.cv_loc	137 19 2020 0
.seh_proc _ZN86_$LT$core..option..Item$LT$A$GT$$u20$as$u20$core..iter..traits..iterator..Iterator$GT$4next17h0b0c35906ea211e0E
	subq	$56, %rsp
	.seh_stackalloc 56
	.seh_endprologue
	movq	%rcx, 48(%rsp)
.Ltmp429:
	.cv_loc	137 19 2021 0
	callq	_ZN4core6option15Option$LT$T$GT$4take17h7a4aa572489c7fe7E
	movq	%rax, 32(%rsp)
	movq	%rdx, 40(%rsp)
	.cv_loc	137 19 2022 0
	movq	40(%rsp), %rdx
	movq	32(%rsp), %rax
	addq	$56, %rsp
	retq
.Ltmp430:
.Lfunc_end136:
	.seh_endproc

	.def	_ZN90_$LT$core..option..IntoIter$LT$A$GT$$u20$as$u20$core..iter..traits..iterator..Iterator$GT$4next17h54b6cead716881c6E;
	.scl	2;
	.type	32;
	.endef
	.section	.text,"xr",one_only,_ZN90_$LT$core..option..IntoIter$LT$A$GT$$u20$as$u20$core..iter..traits..iterator..Iterator$GT$4next17h54b6cead716881c6E
	.globl	_ZN90_$LT$core..option..IntoIter$LT$A$GT$$u20$as$u20$core..iter..traits..iterator..Iterator$GT$4next17h54b6cead716881c6E
	.p2align	4, 0x90
_ZN90_$LT$core..option..IntoIter$LT$A$GT$$u20$as$u20$core..iter..traits..iterator..Iterator$GT$4next17h54b6cead716881c6E:
.Lfunc_begin137:
	.cv_func_id 138
	.cv_loc	138 19 2151 0
.seh_proc _ZN90_$LT$core..option..IntoIter$LT$A$GT$$u20$as$u20$core..iter..traits..iterator..Iterator$GT$4next17h54b6cead716881c6E
	subq	$56, %rsp
	.seh_stackalloc 56
	.seh_endprologue
	movq	%rcx, 48(%rsp)
.Ltmp431:
	.cv_loc	138 19 2152 0
	callq	_ZN86_$LT$core..option..Item$LT$A$GT$$u20$as$u20$core..iter..traits..iterator..Iterator$GT$4next17h0b0c35906ea211e0E
	movq	%rax, 32(%rsp)
	movq	%rdx, 40(%rsp)
	.cv_loc	138 19 2153 0
	movq	40(%rsp), %rdx
	movq	32(%rsp), %rax
	addq	$56, %rsp
	retq
.Ltmp432:
.Lfunc_end137:
	.seh_endproc

	.def	_ZN4core9panicking19unreachable_display17h89749d4ad7826fb5E;
	.scl	2;
	.type	32;
	.endef
	.section	.text,"xr",one_only,_ZN4core9panicking19unreachable_display17h89749d4ad7826fb5E
	.globl	_ZN4core9panicking19unreachable_display17h89749d4ad7826fb5E
	.p2align	4, 0x90
_ZN4core9panicking19unreachable_display17h89749d4ad7826fb5E:
.Lfunc_begin138:
	.cv_func_id 139
	.cv_file	20 "/rustc/7737e0b5c4103216d6fd8cf941b7ab9bdbaace7c\\library\\core\\src\\panicking.rs" "1EF13CD78545A90A23BEB7E587693683D053A90D" 2
	.cv_loc	139 20 63 0
.seh_proc _ZN4core9panicking19unreachable_display17h89749d4ad7826fb5E
	subq	$136, %rsp
	.seh_stackalloc 136
	.seh_endprologue
	movq	%rdx, 40(%rsp)
	movq	%rcx, 128(%rsp)
.Ltmp433:
	.cv_loc	139 20 64 0
	callq	_ZN4core3fmt10ArgumentV111new_display17h839c3c498a440a73E
	movq	%rax, 48(%rsp)
	movq	%rdx, 56(%rsp)
	movq	56(%rsp), %rax
	movq	48(%rsp), %rcx
	movq	%rcx, 112(%rsp)
	movq	%rax, 120(%rsp)
	leaq	112(%rsp), %r9
	leaq	64(%rsp), %rcx
	leaq	__unnamed_43(%rip), %rdx
	movl	$1, %r8d
	movq	$1, 32(%rsp)
	callq	_ZN4core3fmt9Arguments6new_v117h98042da52cfe3bd8E
	movq	40(%rsp), %rdx
	leaq	64(%rsp), %rcx
	callq	_ZN4core9panicking9panic_fmt17h2062231a6e23fa25E
	ud2
.Ltmp434:
.Lfunc_end138:
	.seh_endproc

	.def	_ZN4core4sync6atomic12atomic_store17h31f66e3d9ee38952E;
	.scl	2;
	.type	32;
	.endef
	.section	.text,"xr",one_only,_ZN4core4sync6atomic12atomic_store17h31f66e3d9ee38952E
	.globl	_ZN4core4sync6atomic12atomic_store17h31f66e3d9ee38952E
	.p2align	4, 0x90
_ZN4core4sync6atomic12atomic_store17h31f66e3d9ee38952E:
.Lfunc_begin139:
	.cv_func_id 140
	.cv_file	21 "/rustc/7737e0b5c4103216d6fd8cf941b7ab9bdbaace7c\\library\\core\\src\\sync\\atomic.rs" "BCC3CF02001A0D37123B183E62223CAA10B3096F" 2
	.cv_loc	140 21 2347 0
.seh_proc _ZN4core4sync6atomic12atomic_store17h31f66e3d9ee38952E
	subq	$184, %rsp
	.seh_stackalloc 184
	.seh_endprologue
	movq	%rdx, 40(%rsp)
	movq	%rcx, 48(%rsp)
	movb	%r8b, 71(%rsp)
	movq	%rcx, 168(%rsp)
	movq	%rdx, 176(%rsp)
.Ltmp435:
	.cv_loc	140 21 2350 0
	movzbl	71(%rsp), %eax
	movq	%rax, 56(%rsp)
	movq	56(%rsp), %rax
	leaq	.LJTI139_0(%rip), %rcx
	movslq	(%rcx,%rax,4), %rax
	addq	%rcx, %rax
	jmpq	*%rax
	ud2
.LBB139_2:
	.cv_loc	140 21 2352 0
	movq	48(%rsp), %rax
	movq	40(%rsp), %rcx
	movq	%rcx, (%rax)
	jmp	.LBB139_12
.LBB139_3:
	.cv_loc	140 21 2351 0
	movq	48(%rsp), %rax
	movq	40(%rsp), %rcx
	movq	%rcx, (%rax)
	jmp	.LBB139_11
.LBB139_4:
	.cv_loc	140 21 2354 0
	leaq	72(%rsp), %rcx
	leaq	__unnamed_44(%rip), %rdx
	movl	$1, %r8d
	leaq	__unnamed_5(%rip), %r9
	xorl	%eax, %eax
	movq	$0, 32(%rsp)
	callq	_ZN4core3fmt9Arguments6new_v117h98042da52cfe3bd8E
	jmp	.LBB139_10
.LBB139_5:
	.cv_loc	140 21 2355 0
	leaq	120(%rsp), %rcx
	leaq	__unnamed_45(%rip), %rdx
	movl	$1, %r8d
	leaq	__unnamed_5(%rip), %r9
	xorl	%eax, %eax
	movq	$0, 32(%rsp)
	callq	_ZN4core3fmt9Arguments6new_v117h98042da52cfe3bd8E
	jmp	.LBB139_9
.LBB139_6:
	.cv_loc	140 21 2353 0
	movq	48(%rsp), %rcx
	movq	40(%rsp), %rax
	xchgq	%rax, (%rcx)
	jmp	.LBB139_8
.LBB139_8:
	.cv_loc	140 21 2358 0
	addq	$184, %rsp
	retq
.LBB139_9:
	.cv_loc	140 21 2355 0
	leaq	__unnamed_46(%rip), %rdx
	leaq	120(%rsp), %rcx
	callq	_ZN4core9panicking9panic_fmt17h2062231a6e23fa25E
	ud2
.LBB139_10:
	.cv_loc	140 21 2354 0
	leaq	__unnamed_47(%rip), %rdx
	leaq	72(%rsp), %rcx
	callq	_ZN4core9panicking9panic_fmt17h2062231a6e23fa25E
	ud2
.LBB139_11:
	.cv_loc	140 21 2351 0
	jmp	.LBB139_8
.LBB139_12:
	.cv_loc	140 21 2352 0
	jmp	.LBB139_8
.Ltmp436:
.Lfunc_end139:
	.p2align	2, 0x90
.LJTI139_0:
	.long	.LBB139_2-.LJTI139_0
	.long	.LBB139_3-.LJTI139_0
	.long	.LBB139_4-.LJTI139_0
	.long	.LBB139_5-.LJTI139_0
	.long	.LBB139_6-.LJTI139_0
	.seh_endproc

	.def	_ZN4core4sync6atomic11atomic_load17ha1c92b82d95bce3eE;
	.scl	2;
	.type	32;
	.endef
	.section	.text,"xr",one_only,_ZN4core4sync6atomic11atomic_load17ha1c92b82d95bce3eE
	.globl	_ZN4core4sync6atomic11atomic_load17ha1c92b82d95bce3eE
	.p2align	4, 0x90
_ZN4core4sync6atomic11atomic_load17ha1c92b82d95bce3eE:
.Lfunc_begin140:
	.cv_func_id 141
	.cv_loc	141 21 2361 0
.seh_proc _ZN4core4sync6atomic11atomic_load17ha1c92b82d95bce3eE
	subq	$184, %rsp
	.seh_stackalloc 184
	.seh_endprologue
	movq	%rcx, 48(%rsp)
	movb	%dl, 71(%rsp)
	movq	%rcx, 176(%rsp)
.Ltmp437:
	.cv_loc	141 21 2364 0
	movzbl	71(%rsp), %eax
	movq	%rax, 56(%rsp)
	movq	56(%rsp), %rax
	leaq	.LJTI140_0(%rip), %rcx
	movslq	(%rcx,%rax,4), %rax
	addq	%rcx, %rax
	jmpq	*%rax
	ud2
.LBB140_2:
	.cv_loc	141 21 2366 0
	movq	48(%rsp), %rax
	movq	(%rax), %rax
	movq	%rax, 72(%rsp)
	jmp	.LBB140_12
.LBB140_3:
	.cv_loc	141 21 2368 0
	leaq	80(%rsp), %rcx
	leaq	__unnamed_48(%rip), %rdx
	movl	$1, %r8d
	leaq	__unnamed_5(%rip), %r9
	xorl	%eax, %eax
	movq	$0, 32(%rsp)
	callq	_ZN4core3fmt9Arguments6new_v117h98042da52cfe3bd8E
	jmp	.LBB140_11
.LBB140_4:
	.cv_loc	141 21 2365 0
	movq	48(%rsp), %rax
	movq	(%rax), %rax
	movq	%rax, 72(%rsp)
	jmp	.LBB140_10
.LBB140_5:
	.cv_loc	141 21 2369 0
	leaq	128(%rsp), %rcx
	leaq	__unnamed_49(%rip), %rdx
	movl	$1, %r8d
	leaq	__unnamed_5(%rip), %r9
	xorl	%eax, %eax
	movq	$0, 32(%rsp)
	callq	_ZN4core3fmt9Arguments6new_v117h98042da52cfe3bd8E
	jmp	.LBB140_9
.LBB140_6:
	.cv_loc	141 21 2367 0
	movq	48(%rsp), %rax
	movq	(%rax), %rax
	movq	%rax, 72(%rsp)
	jmp	.LBB140_8
.LBB140_8:
	.cv_loc	141 21 2372 0
	movq	72(%rsp), %rax
	addq	$184, %rsp
	retq
.LBB140_9:
	.cv_loc	141 21 2369 0
	leaq	__unnamed_50(%rip), %rdx
	leaq	128(%rsp), %rcx
	callq	_ZN4core9panicking9panic_fmt17h2062231a6e23fa25E
	ud2
.LBB140_10:
	.cv_loc	141 21 2365 0
	jmp	.LBB140_8
.LBB140_11:
	.cv_loc	141 21 2368 0
	leaq	__unnamed_51(%rip), %rdx
	leaq	80(%rsp), %rcx
	callq	_ZN4core9panicking9panic_fmt17h2062231a6e23fa25E
	ud2
.LBB140_12:
	.cv_loc	141 21 2366 0
	jmp	.LBB140_8
.Ltmp438:
.Lfunc_end140:
	.p2align	2, 0x90
.LJTI140_0:
	.long	.LBB140_2-.LJTI140_0
	.long	.LBB140_3-.LJTI140_0
	.long	.LBB140_4-.LJTI140_0
	.long	.LBB140_5-.LJTI140_0
	.long	.LBB140_6-.LJTI140_0
	.seh_endproc

	.def	_ZN4core4sync6atomic23atomic_compare_exchange17h4d0ffcba5a04d4eeE;
	.scl	2;
	.type	32;
	.endef
	.section	.text,"xr",one_only,_ZN4core4sync6atomic23atomic_compare_exchange17h4d0ffcba5a04d4eeE
	.globl	_ZN4core4sync6atomic23atomic_compare_exchange17h4d0ffcba5a04d4eeE
	.p2align	4, 0x90
_ZN4core4sync6atomic23atomic_compare_exchange17h4d0ffcba5a04d4eeE:
.Lfunc_begin141:
	.cv_func_id 142
	.cv_loc	142 21 2423 0
.seh_proc _ZN4core4sync6atomic23atomic_compare_exchange17h4d0ffcba5a04d4eeE
	subq	$344, %rsp
	.seh_stackalloc 344
	.seh_endprologue
	movq	%r8, 80(%rsp)
	movq	%rdx, 88(%rsp)
	movq	%rcx, 96(%rsp)
	movb	384(%rsp), %al
	movq	%rcx, 296(%rsp)
	movq	%rdx, 304(%rsp)
	movq	%r8, 312(%rsp)
	movb	%r9b, 327(%rsp)
.Ltmp439:
	.cv_loc	142 21 2432 0
	movb	%r9b, 144(%rsp)
	movb	%al, 145(%rsp)
	movzbl	144(%rsp), %eax
	movq	%rax, 104(%rsp)
	subq	$4, %rax
	ja	.LBB141_1
	movq	104(%rsp), %rax
	leaq	.LJTI141_0(%rip), %rcx
	movslq	(%rcx,%rax,4), %rax
	addq	%rcx, %rax
	jmpq	*%rax
.LBB141_1:
	movzbl	145(%rsp), %eax
	movq	%rax, 72(%rsp)
	subq	$1, %rax
	je	.LBB141_26
	jmp	.LBB141_40
.LBB141_40:
	movq	72(%rsp), %rax
	subq	$3, %rax
	je	.LBB141_27
	jmp	.LBB141_25
.LBB141_2:
	movzbl	145(%rsp), %eax
	cmpq	$0, %rax
	je	.LBB141_24
	jmp	.LBB141_1
.LBB141_3:
	movzbl	145(%rsp), %eax
	cmpq	$0, %rax
	je	.LBB141_22
	jmp	.LBB141_1
.LBB141_4:
	movzbl	145(%rsp), %eax
	movq	%rax, 64(%rsp)
	testq	%rax, %rax
	je	.LBB141_18
	jmp	.LBB141_39
.LBB141_39:
	movq	64(%rsp), %rax
	subq	$2, %rax
	je	.LBB141_19
	jmp	.LBB141_1
.LBB141_5:
	movzbl	145(%rsp), %eax
	movq	%rax, 56(%rsp)
	testq	%rax, %rax
	je	.LBB141_14
	jmp	.LBB141_38
.LBB141_38:
	movq	56(%rsp), %rax
	subq	$2, %rax
	je	.LBB141_15
	jmp	.LBB141_1
.LBB141_6:
	movzbl	145(%rsp), %eax
	movq	%rax, 48(%rsp)
	testq	%rax, %rax
	je	.LBB141_7
	jmp	.LBB141_36
.LBB141_36:
	movq	48(%rsp), %rax
	subq	$2, %rax
	je	.LBB141_8
	jmp	.LBB141_37
.LBB141_37:
	movq	48(%rsp), %rax
	subq	$4, %rax
	je	.LBB141_9
	jmp	.LBB141_1
.LBB141_7:
	.cv_loc	142 21 2440 0
	movq	96(%rsp), %rcx
	movq	80(%rsp), %rdx
	movq	88(%rsp), %rax
	lock		cmpxchgq	%rdx, (%rcx)
	movq	%rax, %rcx
	sete	%al
	andb	$1, %al
	movq	%rcx, 128(%rsp)
	movb	%al, 136(%rsp)
	jmp	.LBB141_13
.LBB141_8:
	.cv_loc	142 21 2441 0
	movq	96(%rsp), %rcx
	movq	80(%rsp), %rdx
	movq	88(%rsp), %rax
	lock		cmpxchgq	%rdx, (%rcx)
	movq	%rax, %rcx
	sete	%al
	andb	$1, %al
	movq	%rcx, 128(%rsp)
	movb	%al, 136(%rsp)
	jmp	.LBB141_12
.LBB141_9:
	.cv_loc	142 21 2437 0
	movq	96(%rsp), %rcx
	movq	80(%rsp), %rdx
	movq	88(%rsp), %rax
	lock		cmpxchgq	%rdx, (%rcx)
	movq	%rax, %rcx
	sete	%al
	andb	$1, %al
	movq	%rcx, 128(%rsp)
	movb	%al, 136(%rsp)
	jmp	.LBB141_11
.LBB141_11:
	.cv_loc	142 21 2431 0
	movq	128(%rsp), %rax
	movq	%rax, 40(%rsp)
	movq	%rax, 328(%rsp)
	movb	136(%rsp), %al
	movb	%al, %cl
	andb	$1, %cl
	movb	%cl, 343(%rsp)
.Ltmp440:
	.cv_loc	142 21 2447 0
	testb	$1, %al
	jne	.LBB141_33
	jmp	.LBB141_32
.Ltmp441:
.LBB141_12:
	.cv_loc	142 21 2441 0
	jmp	.LBB141_11
.LBB141_13:
	.cv_loc	142 21 2440 0
	jmp	.LBB141_11
.LBB141_14:
	.cv_loc	142 21 2439 0
	movq	96(%rsp), %rcx
	movq	80(%rsp), %rdx
	movq	88(%rsp), %rax
	lock		cmpxchgq	%rdx, (%rcx)
	movq	%rax, %rcx
	sete	%al
	andb	$1, %al
	movq	%rcx, 128(%rsp)
	movb	%al, 136(%rsp)
	jmp	.LBB141_17
.LBB141_15:
	.cv_loc	142 21 2435 0
	movq	96(%rsp), %rcx
	movq	80(%rsp), %rdx
	movq	88(%rsp), %rax
	lock		cmpxchgq	%rdx, (%rcx)
	movq	%rax, %rcx
	sete	%al
	andb	$1, %al
	movq	%rcx, 128(%rsp)
	movb	%al, 136(%rsp)
	jmp	.LBB141_11
.LBB141_17:
	.cv_loc	142 21 2439 0
	jmp	.LBB141_11
.LBB141_18:
	.cv_loc	142 21 2438 0
	movq	96(%rsp), %rcx
	movq	80(%rsp), %rdx
	movq	88(%rsp), %rax
	lock		cmpxchgq	%rdx, (%rcx)
	movq	%rax, %rcx
	sete	%al
	andb	$1, %al
	movq	%rcx, 128(%rsp)
	movb	%al, 136(%rsp)
	jmp	.LBB141_21
.LBB141_19:
	.cv_loc	142 21 2433 0
	movq	96(%rsp), %rcx
	movq	80(%rsp), %rdx
	movq	88(%rsp), %rax
	lock		cmpxchgq	%rdx, (%rcx)
	movq	%rax, %rcx
	sete	%al
	andb	$1, %al
	movq	%rcx, 128(%rsp)
	movb	%al, 136(%rsp)
	jmp	.LBB141_11
.LBB141_21:
	.cv_loc	142 21 2438 0
	jmp	.LBB141_11
.LBB141_22:
	.cv_loc	142 21 2434 0
	movq	96(%rsp), %rcx
	movq	80(%rsp), %rdx
	movq	88(%rsp), %rax
	lock		cmpxchgq	%rdx, (%rcx)
	movq	%rax, %rcx
	sete	%al
	andb	$1, %al
	movq	%rcx, 128(%rsp)
	movb	%al, 136(%rsp)
	jmp	.LBB141_11
.LBB141_24:
	.cv_loc	142 21 2436 0
	movq	96(%rsp), %rcx
	movq	80(%rsp), %rdx
	movq	88(%rsp), %rax
	lock		cmpxchgq	%rdx, (%rcx)
	movq	%rax, %rcx
	sete	%al
	andb	$1, %al
	movq	%rcx, 128(%rsp)
	movb	%al, 136(%rsp)
	jmp	.LBB141_31
.LBB141_25:
	.cv_loc	142 21 2444 0
	leaq	248(%rsp), %rcx
	leaq	__unnamed_52(%rip), %rdx
	movl	$1, %r8d
	leaq	__unnamed_5(%rip), %r9
	xorl	%eax, %eax
	movq	$0, 32(%rsp)
	callq	_ZN4core3fmt9Arguments6new_v117h98042da52cfe3bd8E
	jmp	.LBB141_28
.LBB141_26:
	.cv_loc	142 21 2443 0
	leaq	200(%rsp), %rcx
	leaq	__unnamed_53(%rip), %rdx
	movl	$1, %r8d
	leaq	__unnamed_5(%rip), %r9
	xorl	%eax, %eax
	movq	$0, 32(%rsp)
	callq	_ZN4core3fmt9Arguments6new_v117h98042da52cfe3bd8E
	jmp	.LBB141_30
.LBB141_27:
	.cv_loc	142 21 2442 0
	leaq	152(%rsp), %rcx
	leaq	__unnamed_54(%rip), %rdx
	movl	$1, %r8d
	leaq	__unnamed_5(%rip), %r9
	xorl	%eax, %eax
	movq	$0, 32(%rsp)
	callq	_ZN4core3fmt9Arguments6new_v117h98042da52cfe3bd8E
	jmp	.LBB141_29
.LBB141_28:
	.cv_loc	142 21 2444 0
	leaq	__unnamed_55(%rip), %rdx
	leaq	248(%rsp), %rcx
	callq	_ZN4core9panicking9panic_fmt17h2062231a6e23fa25E
	ud2
.LBB141_29:
	.cv_loc	142 21 2442 0
	leaq	__unnamed_56(%rip), %rdx
	leaq	152(%rsp), %rcx
	callq	_ZN4core9panicking9panic_fmt17h2062231a6e23fa25E
	ud2
.LBB141_30:
	.cv_loc	142 21 2443 0
	leaq	__unnamed_57(%rip), %rdx
	leaq	200(%rsp), %rcx
	callq	_ZN4core9panicking9panic_fmt17h2062231a6e23fa25E
	ud2
.LBB141_31:
	.cv_loc	142 21 2436 0
	jmp	.LBB141_11
.LBB141_32:
	.cv_loc	142 21 2447 0
	movq	40(%rsp), %rax
.Ltmp442:
	movq	%rax, 120(%rsp)
	movq	$1, 112(%rsp)
	jmp	.LBB141_34
.LBB141_33:
	movq	40(%rsp), %rax
	movq	%rax, 120(%rsp)
	movq	$0, 112(%rsp)
.Ltmp443:
.LBB141_34:
	.cv_loc	142 21 2448 0
	movq	112(%rsp), %rax
	movq	120(%rsp), %rdx
	addq	$344, %rsp
	retq
.Ltmp444:
.Lfunc_end141:
	.p2align	2, 0x90
.LJTI141_0:
	.long	.LBB141_2-.LJTI141_0
	.long	.LBB141_3-.LJTI141_0
	.long	.LBB141_4-.LJTI141_0
	.long	.LBB141_5-.LJTI141_0
	.long	.LBB141_6-.LJTI141_0
	.seh_endproc

	.def	_ZN4core4sync6atomic14spin_loop_hint17h1465badd23d4c8b9E;
	.scl	3;
	.type	32;
	.endef
	.section	.text,"xr",one_only,_ZN4core4sync6atomic14spin_loop_hint17h1465badd23d4c8b9E
	.p2align	4, 0x90
_ZN4core4sync6atomic14spin_loop_hint17h1465badd23d4c8b9E:
.Lfunc_begin142:
	.cv_func_id 143
	.cv_loc	143 21 2807 0
.seh_proc _ZN4core4sync6atomic14spin_loop_hint17h1465badd23d4c8b9E
	subq	$40, %rsp
	.seh_stackalloc 40
	.seh_endprologue
.Ltmp445:
	.cv_loc	143 21 2808 0
	callq	_ZN4core4hint9spin_loop17hc061ea9eb2273254E
	.cv_loc	143 21 2809 0
	nop
	addq	$40, %rsp
	retq
.Ltmp446:
.Lfunc_end142:
	.seh_endproc

	.def	_ZN4core3fmt10ArgumentV13new17he438a2bbfab3c3aaE;
	.scl	2;
	.type	32;
	.endef
	.section	.text,"xr",one_only,_ZN4core3fmt10ArgumentV13new17he438a2bbfab3c3aaE
	.globl	_ZN4core3fmt10ArgumentV13new17he438a2bbfab3c3aaE
	.p2align	4, 0x90
_ZN4core3fmt10ArgumentV13new17he438a2bbfab3c3aaE:
.Lfunc_begin143:
	.cv_func_id 144
	.cv_file	22 "/rustc/7737e0b5c4103216d6fd8cf941b7ab9bdbaace7c\\library\\core\\src\\fmt\\mod.rs" "553B4F9F06121E4FC335738106767224FE914A71" 2
	.cv_loc	144 22 326 0
.seh_proc _ZN4core3fmt10ArgumentV13new17he438a2bbfab3c3aaE
	subq	$72, %rsp
	.seh_stackalloc 72
	.seh_endprologue
	movq	%rcx, 8(%rsp)
	movq	%rcx, 40(%rsp)
	movq	%rdx, 48(%rsp)
.Ltmp447:
	.cv_loc	144 22 335 0
	movq	%rdx, 56(%rsp)
	movq	56(%rsp), %rax
	movq	%rax, 16(%rsp)
	movq	8(%rsp), %rax
	movq	%rax, 64(%rsp)
	movq	64(%rsp), %rax
	movq	%rax, (%rsp)
	movq	16(%rsp), %rax
	movq	(%rsp), %rcx
	movq	%rcx, 24(%rsp)
	movq	%rax, 32(%rsp)
	.cv_loc	144 22 336 0
	movq	24(%rsp), %rax
	movq	32(%rsp), %rdx
	addq	$72, %rsp
	retq
.Ltmp448:
.Lfunc_end143:
	.seh_endproc

	.def	_ZN4core3fmt9Arguments6new_v117h98042da52cfe3bd8E;
	.scl	3;
	.type	32;
	.endef
	.section	.text,"xr",one_only,_ZN4core3fmt9Arguments6new_v117h98042da52cfe3bd8E
	.p2align	4, 0x90
_ZN4core3fmt9Arguments6new_v117h98042da52cfe3bd8E:
.Lfunc_begin144:
	.cv_func_id 145
	.cv_loc	145 22 383 0
.seh_proc _ZN4core3fmt9Arguments6new_v117h98042da52cfe3bd8E
	subq	$200, %rsp
	.seh_stackalloc 200
	.seh_endprologue
	movq	%r9, 48(%rsp)
	movq	%r8, 56(%rsp)
	movq	%rdx, 64(%rsp)
	movq	%rcx, 72(%rsp)
	movq	%rcx, 80(%rsp)
	movq	240(%rsp), %rax
	movq	%rax, 88(%rsp)
	movq	%rdx, 168(%rsp)
	movq	%r8, 176(%rsp)
	movq	%r9, 184(%rsp)
	movq	%rax, 192(%rsp)
.Ltmp449:
	.cv_loc	145 22 384 0
	cmpq	%rax, %r8
	jb	.LBB144_2
	movq	56(%rsp), %rax
	movq	88(%rsp), %rcx
	addq	$1, %rcx
	cmpq	%rcx, %rax
	seta	%al
	andb	$1, %al
	movb	%al, 103(%rsp)
	jmp	.LBB144_3
.LBB144_2:
	movb	$1, 103(%rsp)
.LBB144_3:
	testb	$1, 103(%rsp)
	jne	.LBB144_5
	.cv_loc	145 22 387 0
	movq	80(%rsp), %rax
	movq	72(%rsp), %rcx
	movq	88(%rsp), %rdx
	movq	48(%rsp), %r8
	movq	56(%rsp), %r9
	movq	64(%rsp), %r10
	movq	$0, 152(%rsp)
	movq	%r10, (%rcx)
	movq	%r9, 8(%rcx)
	movq	152(%rsp), %r10
	movq	160(%rsp), %r9
	movq	%r10, 16(%rcx)
	movq	%r9, 24(%rcx)
	movq	%r8, 32(%rcx)
	movq	%rdx, 40(%rcx)
	.cv_loc	145 22 388 0
	addq	$200, %rsp
	retq
.LBB144_5:
	.cv_loc	145 22 385 0
	leaq	104(%rsp), %rcx
	leaq	__unnamed_58(%rip), %rdx
	movl	$1, %r8d
	leaq	__unnamed_5(%rip), %r9
	xorl	%eax, %eax
	movq	$0, 32(%rsp)
	callq	_ZN4core3fmt9Arguments6new_v117h98042da52cfe3bd8E
	leaq	__unnamed_59(%rip), %rdx
	leaq	104(%rsp), %rcx
	callq	_ZN4core9panicking9panic_fmt17h2062231a6e23fa25E
	ud2
.Ltmp450:
.Lfunc_end144:
	.seh_endproc

	.def	_ZN45_$LT$$LP$$RP$$u20$as$u20$core..fmt..Debug$GT$3fmt17h6a898a952a003e54E;
	.scl	3;
	.type	32;
	.endef
	.section	.text,"xr",one_only,_ZN45_$LT$$LP$$RP$$u20$as$u20$core..fmt..Debug$GT$3fmt17h6a898a952a003e54E
	.p2align	4, 0x90
_ZN45_$LT$$LP$$RP$$u20$as$u20$core..fmt..Debug$GT$3fmt17h6a898a952a003e54E:
.Lfunc_begin145:
	.cv_func_id 146
	.cv_loc	146 22 2338 0
.seh_proc _ZN45_$LT$$LP$$RP$$u20$as$u20$core..fmt..Debug$GT$3fmt17h6a898a952a003e54E
	subq	$72, %rsp
	.seh_stackalloc 72
	.seh_endprologue
	movq	%rdx, 40(%rsp)
	movq	%rcx, %rax
	movq	40(%rsp), %rcx
	movq	%rax, 56(%rsp)
	movq	%rcx, 64(%rsp)
.Ltmp451:
	.cv_loc	146 22 2339 0
	leaq	__unnamed_60(%rip), %rdx
	movl	$2, %r8d
	callq	_ZN4core3fmt9Formatter3pad17h36d5d3411186e94eE
	movb	%al, 55(%rsp)
	.cv_loc	146 22 2340 0
	movb	55(%rsp), %al
	andb	$1, %al
	movzbl	%al, %eax
	addq	$72, %rsp
	retq
.Ltmp452:
.Lfunc_end145:
	.seh_endproc

	.def	_ZN4core5slice5ascii30_$LT$impl$u20$$u5b$u8$u5d$$GT$20eq_ignore_ascii_case17h8c7af5424560d06bE;
	.scl	3;
	.type	32;
	.endef
	.section	.text,"xr",one_only,_ZN4core5slice5ascii30_$LT$impl$u20$$u5b$u8$u5d$$GT$20eq_ignore_ascii_case17h8c7af5424560d06bE
	.p2align	4, 0x90
_ZN4core5slice5ascii30_$LT$impl$u20$$u5b$u8$u5d$$GT$20eq_ignore_ascii_case17h8c7af5424560d06bE:
.Lfunc_begin146:
	.cv_func_id 147
	.cv_file	23 "/rustc/7737e0b5c4103216d6fd8cf941b7ab9bdbaace7c\\library\\core\\src\\slice\\ascii.rs" "D0464BA9C412F469DDA6CE7C079F41B29B540630" 2
	.cv_loc	147 23 27 0
.seh_proc _ZN4core5slice5ascii30_$LT$impl$u20$$u5b$u8$u5d$$GT$20eq_ignore_ascii_case17h8c7af5424560d06bE
	subq	$184, %rsp
	.seh_stackalloc 184
	.seh_endprologue
	movq	%r9, 56(%rsp)
	movq	%r8, 64(%rsp)
	movq	%rdx, 72(%rsp)
	movq	%rcx, 80(%rsp)
	movq	%rcx, 152(%rsp)
	movq	%rdx, 160(%rsp)
	movq	%r8, 168(%rsp)
	movq	%r9, 176(%rsp)
.Ltmp453:
	.cv_loc	147 23 28 0
	cmpq	%r9, %rdx
	je	.LBB146_2
	movb	$0, 95(%rsp)
	jmp	.LBB146_5
.LBB146_2:
	movq	56(%rsp), %rax
	movq	64(%rsp), %r9
	movq	72(%rsp), %r8
	movq	80(%rsp), %rdx
	leaq	96(%rsp), %rcx
	movq	%rax, 32(%rsp)
	callq	_ZN4core4iter8adapters3zip3zip17h27b282be5d694795E
	leaq	96(%rsp), %rcx
	callq	_ZN4core4iter6traits8iterator8Iterator3all17h8c1a56770f0361d2E
	movb	%al, 55(%rsp)
	movb	55(%rsp), %al
	andb	$1, %al
	movb	%al, 95(%rsp)
.LBB146_5:
	.cv_loc	147 23 29 0
	movb	95(%rsp), %al
	andb	$1, %al
	movzbl	%al, %eax
	addq	$184, %rsp
	retq
.Ltmp454:
.Lfunc_end146:
	.seh_endproc

	.def	_ZN4core5slice5ascii30_$LT$impl$u20$$u5b$u8$u5d$$GT$20eq_ignore_ascii_case28_$u7b$$u7b$closure$u7d$$u7d$17h17a65664d3e4c8daE;
	.scl	2;
	.type	32;
	.endef
	.section	.text,"xr",one_only,_ZN4core5slice5ascii30_$LT$impl$u20$$u5b$u8$u5d$$GT$20eq_ignore_ascii_case28_$u7b$$u7b$closure$u7d$$u7d$17h17a65664d3e4c8daE
	.globl	_ZN4core5slice5ascii30_$LT$impl$u20$$u5b$u8$u5d$$GT$20eq_ignore_ascii_case28_$u7b$$u7b$closure$u7d$$u7d$17h17a65664d3e4c8daE
	.p2align	4, 0x90
_ZN4core5slice5ascii30_$LT$impl$u20$$u5b$u8$u5d$$GT$20eq_ignore_ascii_case28_$u7b$$u7b$closure$u7d$$u7d$17h17a65664d3e4c8daE:
.Lfunc_begin147:
	.cv_func_id 148
	.cv_loc	148 23 28 0
.seh_proc _ZN4core5slice5ascii30_$LT$impl$u20$$u5b$u8$u5d$$GT$20eq_ignore_ascii_case28_$u7b$$u7b$closure$u7d$$u7d$17h17a65664d3e4c8daE
	subq	$104, %rsp
	.seh_stackalloc 104
	.seh_endprologue
	movq	%r8, 40(%rsp)
	movq	%rdx, %rax
	movq	40(%rsp), %rdx
	movq	%rax, 48(%rsp)
	movq	%rcx, %rax
	movq	48(%rsp), %rcx
	movq	%rax, 64(%rsp)
	movq	%rcx, 72(%rsp)
	movq	%rdx, 80(%rsp)
.Ltmp455:
	movq	%rcx, 88(%rsp)
	movq	%rdx, 96(%rsp)
.Ltmp456:
	.cv_loc	148 23 28 0
	callq	_ZN4core3num20_$LT$impl$u20$u8$GT$20eq_ignore_ascii_case17h4da63fe065c759d6E
	movb	%al, 63(%rsp)
.Ltmp457:
	.cv_loc	148 23 28 0
	movb	63(%rsp), %al
	andb	$1, %al
	movzbl	%al, %eax
	addq	$104, %rsp
	retq
.Ltmp458:
.Lfunc_end147:
	.seh_endproc

	.def	_ZN4core5slice4iter87_$LT$impl$u20$core..iter..traits..collect..IntoIterator$u20$for$u20$$RF$$u5b$T$u5d$$GT$9into_iter17h2d99a436cebc03faE;
	.scl	2;
	.type	32;
	.endef
	.section	.text,"xr",one_only,_ZN4core5slice4iter87_$LT$impl$u20$core..iter..traits..collect..IntoIterator$u20$for$u20$$RF$$u5b$T$u5d$$GT$9into_iter17h2d99a436cebc03faE
	.globl	_ZN4core5slice4iter87_$LT$impl$u20$core..iter..traits..collect..IntoIterator$u20$for$u20$$RF$$u5b$T$u5d$$GT$9into_iter17h2d99a436cebc03faE
	.p2align	4, 0x90
_ZN4core5slice4iter87_$LT$impl$u20$core..iter..traits..collect..IntoIterator$u20$for$u20$$RF$$u5b$T$u5d$$GT$9into_iter17h2d99a436cebc03faE:
.Lfunc_begin148:
	.cv_func_id 149
	.cv_file	24 "/rustc/7737e0b5c4103216d6fd8cf941b7ab9bdbaace7c\\library\\core\\src\\slice\\iter.rs" "834FE2311269DE46112B544F4F133977F6C983DC" 2
	.cv_loc	149 24 23 0
.seh_proc _ZN4core5slice4iter87_$LT$impl$u20$core..iter..traits..collect..IntoIterator$u20$for$u20$$RF$$u5b$T$u5d$$GT$9into_iter17h2d99a436cebc03faE
	subq	$72, %rsp
	.seh_stackalloc 72
	.seh_endprologue
	movq	%rcx, 56(%rsp)
	movq	%rdx, 64(%rsp)
.Ltmp459:
	.cv_loc	149 24 24 0
	callq	_ZN4core5slice29_$LT$impl$u20$$u5b$T$u5d$$GT$4iter17hf53d816b0a470600E
	movq	%rax, 40(%rsp)
	movq	%rdx, 48(%rsp)
	.cv_loc	149 24 25 0
	movq	48(%rsp), %rdx
	movq	40(%rsp), %rax
	addq	$72, %rsp
	retq
.Ltmp460:
.Lfunc_end148:
	.seh_endproc

	.def	_ZN4core5slice4iter13Iter$LT$T$GT$3new17h0cf290f8dcd0d97eE;
	.scl	2;
	.type	32;
	.endef
	.section	.text,"xr",one_only,_ZN4core5slice4iter13Iter$LT$T$GT$3new17h0cf290f8dcd0d97eE
	.globl	_ZN4core5slice4iter13Iter$LT$T$GT$3new17h0cf290f8dcd0d97eE
	.p2align	4, 0x90
_ZN4core5slice4iter13Iter$LT$T$GT$3new17h0cf290f8dcd0d97eE:
.Lfunc_begin149:
	.cv_func_id 150
	.cv_loc	150 24 87 0
.seh_proc _ZN4core5slice4iter13Iter$LT$T$GT$3new17h0cf290f8dcd0d97eE
	subq	$200, %rsp
	.seh_stackalloc 200
	.seh_endprologue
	movq	%rdx, 56(%rsp)
	movq	%rcx, 96(%rsp)
	movq	%rdx, 104(%rsp)
.Ltmp461:
	.cv_loc	150 24 88 0
	callq	_ZN4core5slice29_$LT$impl$u20$$u5b$T$u5d$$GT$6as_ptr17h92a117ae4eecd93fE
	movq	%rax, 64(%rsp)
	movq	%rax, 112(%rsp)
	.cv_loc	150 24 91 0
	movq	64(%rsp), %rcx
.Ltmp462:
	callq	_ZN4core3ptr9const_ptr33_$LT$impl$u20$$BP$const$u20$T$GT$7is_null17h484719c14c44a646E
	.cv_loc	150 24 93 0
	jmp	.LBB149_4
.LBB149_4:
	movl	$1, %eax
	cmpq	$0, %rax
	jne	.LBB149_6
	.cv_inline_site_id 151 within 150 inlined_at 24 94 0
	.cv_inline_site_id 152 within 151 inlined_at 9 702 0
	.cv_loc	152 9 357 0
	movq	56(%rsp), %rcx
	movq	64(%rsp), %rax
	movq	%rax, 160(%rsp)
	movq	%rcx, 168(%rsp)
	movq	%rax, 176(%rsp)
	movq	%rcx, 184(%rsp)
.Ltmp463:
	addq	%rcx, %rax
	movq	%rax, 192(%rsp)
	movq	192(%rsp), %rax
	movq	%rax, 48(%rsp)
.Ltmp464:
	.cv_loc	150 24 94 0
	jmp	.LBB149_9
.LBB149_6:
	.cv_inline_site_id 153 within 150 inlined_at 24 96 0
	.cv_inline_site_id 154 within 153 inlined_at 9 576 0
	.cv_loc	154 9 295 0
	movq	56(%rsp), %rcx
	movq	64(%rsp), %rax
	movq	%rax, 120(%rsp)
	movq	%rcx, 128(%rsp)
	movq	%rax, 136(%rsp)
	movq	%rcx, 144(%rsp)
.Ltmp465:
	addq	%rcx, %rax
	movq	%rax, 152(%rsp)
	movq	152(%rsp), %rax
.Ltmp466:
	.cv_loc	150 24 96 0
	movq	%rax, 88(%rsp)
	.cv_loc	150 24 93 0
	jmp	.LBB149_8
.LBB149_8:
	.cv_loc	150 24 99 0
	movq	64(%rsp), %rcx
.Ltmp467:
	callq	_ZN4core3ptr8non_null16NonNull$LT$T$GT$13new_unchecked17hd22429c5d1a12799E
	movq	%rax, 40(%rsp)
	jmp	.LBB149_10
.Ltmp468:
.LBB149_9:
	.cv_loc	150 24 94 0
	movq	48(%rsp), %rax
	movq	%rax, 88(%rsp)
	.cv_loc	150 24 93 0
	jmp	.LBB149_8
.LBB149_10:
	.cv_loc	150 24 99 0
	movq	40(%rsp), %rcx
.Ltmp469:
	movq	88(%rsp), %rax
	movq	%rcx, 72(%rsp)
	movq	%rax, 80(%rsp)
.Ltmp470:
	.cv_loc	150 24 101 0
	movq	72(%rsp), %rax
	movq	80(%rsp), %rdx
	addq	$200, %rsp
	retq
.Ltmp471:
.Lfunc_end149:
	.seh_endproc

	.def	_ZN4core5slice4iter13Iter$LT$T$GT$3new17h7cf8c02b0bbb876cE;
	.scl	2;
	.type	32;
	.endef
	.section	.text,"xr",one_only,_ZN4core5slice4iter13Iter$LT$T$GT$3new17h7cf8c02b0bbb876cE
	.globl	_ZN4core5slice4iter13Iter$LT$T$GT$3new17h7cf8c02b0bbb876cE
	.p2align	4, 0x90
_ZN4core5slice4iter13Iter$LT$T$GT$3new17h7cf8c02b0bbb876cE:
.Lfunc_begin150:
	.cv_func_id 155
	.cv_loc	155 24 87 0
.seh_proc _ZN4core5slice4iter13Iter$LT$T$GT$3new17h7cf8c02b0bbb876cE
	subq	$200, %rsp
	.seh_stackalloc 200
	.seh_endprologue
	movq	%rdx, 56(%rsp)
	movq	%rcx, 96(%rsp)
	movq	%rdx, 104(%rsp)
.Ltmp472:
	.cv_loc	155 24 88 0
	callq	_ZN4core5slice29_$LT$impl$u20$$u5b$T$u5d$$GT$6as_ptr17hd0fc4aa158238350E
	movq	%rax, 64(%rsp)
	movq	%rax, 112(%rsp)
	.cv_loc	155 24 91 0
	movq	64(%rsp), %rcx
.Ltmp473:
	callq	_ZN4core3ptr9const_ptr33_$LT$impl$u20$$BP$const$u20$T$GT$7is_null17h72eea6b85edd802aE
	.cv_loc	155 24 93 0
	jmp	.LBB150_4
.LBB150_4:
	movl	$16, %eax
	cmpq	$0, %rax
	jne	.LBB150_6
	.cv_inline_site_id 156 within 155 inlined_at 24 94 0
	.cv_inline_site_id 157 within 156 inlined_at 9 702 0
	.cv_loc	157 9 357 0
	movq	56(%rsp), %rcx
	movq	64(%rsp), %rax
	movq	%rax, 160(%rsp)
	movq	%rcx, 168(%rsp)
	movq	%rax, 176(%rsp)
	movq	%rcx, 184(%rsp)
.Ltmp474:
	addq	%rcx, %rax
	movq	%rax, 192(%rsp)
	movq	192(%rsp), %rax
	movq	%rax, 48(%rsp)
.Ltmp475:
	.cv_loc	155 24 94 0
	jmp	.LBB150_9
.LBB150_6:
	.cv_inline_site_id 158 within 155 inlined_at 24 96 0
	.cv_inline_site_id 159 within 158 inlined_at 9 576 0
	.cv_loc	159 9 295 0
	movq	64(%rsp), %rax
	movq	56(%rsp), %rcx
	movq	%rax, 120(%rsp)
	movq	%rcx, 128(%rsp)
	movq	%rax, 136(%rsp)
	movq	%rcx, 144(%rsp)
.Ltmp476:
	shlq	$4, %rcx
	addq	%rcx, %rax
	movq	%rax, 152(%rsp)
	movq	152(%rsp), %rax
.Ltmp477:
	.cv_loc	155 24 96 0
	movq	%rax, 88(%rsp)
	.cv_loc	155 24 93 0
	jmp	.LBB150_8
.LBB150_8:
	.cv_loc	155 24 99 0
	movq	64(%rsp), %rcx
.Ltmp478:
	callq	_ZN4core3ptr8non_null16NonNull$LT$T$GT$13new_unchecked17h518c9ebcd6795845E
	movq	%rax, 40(%rsp)
	jmp	.LBB150_10
.Ltmp479:
.LBB150_9:
	.cv_loc	155 24 94 0
	movq	48(%rsp), %rax
	movq	%rax, 88(%rsp)
	.cv_loc	155 24 93 0
	jmp	.LBB150_8
.LBB150_10:
	.cv_loc	155 24 99 0
	movq	40(%rsp), %rcx
.Ltmp480:
	movq	88(%rsp), %rax
	movq	%rcx, 72(%rsp)
	movq	%rax, 80(%rsp)
.Ltmp481:
	.cv_loc	155 24 101 0
	movq	72(%rsp), %rax
	movq	80(%rsp), %rdx
	addq	$200, %rsp
	retq
.Ltmp482:
.Lfunc_end150:
	.seh_endproc

	.def	_ZN4core5slice29_$LT$impl$u20$$u5b$T$u5d$$GT$6as_ptr17h92a117ae4eecd93fE;
	.scl	2;
	.type	32;
	.endef
	.section	.text,"xr",one_only,_ZN4core5slice29_$LT$impl$u20$$u5b$T$u5d$$GT$6as_ptr17h92a117ae4eecd93fE
	.globl	_ZN4core5slice29_$LT$impl$u20$$u5b$T$u5d$$GT$6as_ptr17h92a117ae4eecd93fE
	.p2align	4, 0x90
_ZN4core5slice29_$LT$impl$u20$$u5b$T$u5d$$GT$6as_ptr17h92a117ae4eecd93fE:
.Lfunc_begin151:
	.cv_func_id 160
	.cv_file	25 "/rustc/7737e0b5c4103216d6fd8cf941b7ab9bdbaace7c\\library\\core\\src\\slice\\mod.rs" "8D7CB03A38EEA468CC705213DB0AFAFB53E5F3F7" 2
	.cv_loc	160 25 455 0
.seh_proc _ZN4core5slice29_$LT$impl$u20$$u5b$T$u5d$$GT$6as_ptr17h92a117ae4eecd93fE
	subq	$16, %rsp
	.seh_stackalloc 16
	.seh_endprologue
	movq	%rcx, %rax
	movq	%rax, (%rsp)
	movq	%rdx, 8(%rsp)
.Ltmp483:
	.cv_loc	160 25 457 0
	addq	$16, %rsp
	retq
.Ltmp484:
.Lfunc_end151:
	.seh_endproc

	.def	_ZN4core5slice29_$LT$impl$u20$$u5b$T$u5d$$GT$6as_ptr17hd0fc4aa158238350E;
	.scl	2;
	.type	32;
	.endef
	.section	.text,"xr",one_only,_ZN4core5slice29_$LT$impl$u20$$u5b$T$u5d$$GT$6as_ptr17hd0fc4aa158238350E
	.globl	_ZN4core5slice29_$LT$impl$u20$$u5b$T$u5d$$GT$6as_ptr17hd0fc4aa158238350E
	.p2align	4, 0x90
_ZN4core5slice29_$LT$impl$u20$$u5b$T$u5d$$GT$6as_ptr17hd0fc4aa158238350E:
.Lfunc_begin152:
	.cv_func_id 161
	.cv_loc	161 25 455 0
.seh_proc _ZN4core5slice29_$LT$impl$u20$$u5b$T$u5d$$GT$6as_ptr17hd0fc4aa158238350E
	subq	$16, %rsp
	.seh_stackalloc 16
	.seh_endprologue
	movq	%rcx, %rax
	movq	%rax, (%rsp)
	movq	%rdx, 8(%rsp)
.Ltmp485:
	.cv_loc	161 25 457 0
	addq	$16, %rsp
	retq
.Ltmp486:
.Lfunc_end152:
	.seh_endproc

	.def	_ZN4core5slice29_$LT$impl$u20$$u5b$T$u5d$$GT$4iter17ha4a4110b68ae4031E;
	.scl	2;
	.type	32;
	.endef
	.section	.text,"xr",one_only,_ZN4core5slice29_$LT$impl$u20$$u5b$T$u5d$$GT$4iter17ha4a4110b68ae4031E
	.globl	_ZN4core5slice29_$LT$impl$u20$$u5b$T$u5d$$GT$4iter17ha4a4110b68ae4031E
	.p2align	4, 0x90
_ZN4core5slice29_$LT$impl$u20$$u5b$T$u5d$$GT$4iter17ha4a4110b68ae4031E:
.Lfunc_begin153:
	.cv_func_id 162
	.cv_loc	162 25 705 0
.seh_proc _ZN4core5slice29_$LT$impl$u20$$u5b$T$u5d$$GT$4iter17ha4a4110b68ae4031E
	subq	$72, %rsp
	.seh_stackalloc 72
	.seh_endprologue
	movq	%rcx, 56(%rsp)
	movq	%rdx, 64(%rsp)
.Ltmp487:
	.cv_loc	162 25 706 0
	callq	_ZN4core5slice4iter13Iter$LT$T$GT$3new17h7cf8c02b0bbb876cE
	movq	%rax, 40(%rsp)
	movq	%rdx, 48(%rsp)
	.cv_loc	162 25 707 0
	movq	48(%rsp), %rdx
	movq	40(%rsp), %rax
	addq	$72, %rsp
	retq
.Ltmp488:
.Lfunc_end153:
	.seh_endproc

	.def	_ZN4core5slice29_$LT$impl$u20$$u5b$T$u5d$$GT$4iter17hf53d816b0a470600E;
	.scl	2;
	.type	32;
	.endef
	.section	.text,"xr",one_only,_ZN4core5slice29_$LT$impl$u20$$u5b$T$u5d$$GT$4iter17hf53d816b0a470600E
	.globl	_ZN4core5slice29_$LT$impl$u20$$u5b$T$u5d$$GT$4iter17hf53d816b0a470600E
	.p2align	4, 0x90
_ZN4core5slice29_$LT$impl$u20$$u5b$T$u5d$$GT$4iter17hf53d816b0a470600E:
.Lfunc_begin154:
	.cv_func_id 163
	.cv_loc	163 25 705 0
.seh_proc _ZN4core5slice29_$LT$impl$u20$$u5b$T$u5d$$GT$4iter17hf53d816b0a470600E
	subq	$72, %rsp
	.seh_stackalloc 72
	.seh_endprologue
	movq	%rcx, 56(%rsp)
	movq	%rdx, 64(%rsp)
.Ltmp489:
	.cv_loc	163 25 706 0
	callq	_ZN4core5slice4iter13Iter$LT$T$GT$3new17h0cf290f8dcd0d97eE
	movq	%rax, 40(%rsp)
	movq	%rdx, 48(%rsp)
	.cv_loc	163 25 707 0
	movq	48(%rsp), %rdx
	movq	40(%rsp), %rax
	addq	$72, %rsp
	retq
.Ltmp490:
.Lfunc_end154:
	.seh_endproc

	.def	_ZN4core3str21_$LT$impl$u20$str$GT$20eq_ignore_ascii_case17h16ddfc38ef1b4156E;
	.scl	3;
	.type	32;
	.endef
	.section	.text,"xr",one_only,_ZN4core3str21_$LT$impl$u20$str$GT$20eq_ignore_ascii_case17h16ddfc38ef1b4156E
	.p2align	4, 0x90
_ZN4core3str21_$LT$impl$u20$str$GT$20eq_ignore_ascii_case17h16ddfc38ef1b4156E:
.Lfunc_begin155:
	.cv_func_id 164
	.cv_file	26 "/rustc/7737e0b5c4103216d6fd8cf941b7ab9bdbaace7c\\library\\core\\src\\str\\mod.rs" "5E4D60C2B01FE200E3B6AA9A1A5CF6A8E78889A6" 2
	.cv_loc	164 26 2356 0
.seh_proc _ZN4core3str21_$LT$impl$u20$str$GT$20eq_ignore_ascii_case17h16ddfc38ef1b4156E
	subq	$184, %rsp
	.seh_stackalloc 184
	.seh_endprologue
	movq	%r9, 56(%rsp)
	movq	%r8, 64(%rsp)
	movq	%rcx, 88(%rsp)
	movq	%rdx, 96(%rsp)
	movq	%r8, 104(%rsp)
	movq	%r9, 112(%rsp)
	movq	%rcx, 152(%rsp)
	movq	%rdx, 160(%rsp)
.Ltmp491:
	.cv_inline_site_id 165 within 164 inlined_at 26 2357 0
	.cv_loc	165 26 309 0
	movq	%rcx, 168(%rsp)
	movq	%rdx, 176(%rsp)
	movq	168(%rsp), %rax
	movq	%rax, 72(%rsp)
	movq	176(%rsp), %rax
	movq	%rax, 80(%rsp)
.Ltmp492:
	.cv_inline_site_id 166 within 164 inlined_at 26 2357 0
	.cv_loc	166 26 309 0
	movq	56(%rsp), %rax
	movq	64(%rsp), %rcx
	movq	%rcx, 120(%rsp)
	movq	%rax, 128(%rsp)
.Ltmp493:
	movq	%rcx, 136(%rsp)
	movq	%rax, 144(%rsp)
	movq	136(%rsp), %rax
	movq	%rax, 40(%rsp)
	movq	144(%rsp), %rax
	movq	%rax, 48(%rsp)
.Ltmp494:
	.cv_loc	164 26 2357 0
	movq	48(%rsp), %r9
	movq	40(%rsp), %r8
	movq	80(%rsp), %rdx
	movq	72(%rsp), %rcx
	callq	_ZN4core5slice5ascii30_$LT$impl$u20$$u5b$u8$u5d$$GT$20eq_ignore_ascii_case17h8c7af5424560d06bE
	movb	%al, 39(%rsp)
	.cv_loc	164 26 2358 0
	movb	39(%rsp), %al
	andb	$1, %al
	movzbl	%al, %eax
	addq	$184, %rsp
	retq
.Ltmp495:
.Lfunc_end155:
	.seh_endproc

	.def	_ZN4core9core_arch3x864sse29_mm_pause17h4f7f3b58a6762df6E;
	.scl	3;
	.type	32;
	.endef
	.section	.text,"xr",one_only,_ZN4core9core_arch3x864sse29_mm_pause17h4f7f3b58a6762df6E
	.p2align	4, 0x90
_ZN4core9core_arch3x864sse29_mm_pause17h4f7f3b58a6762df6E:
.Lfunc_begin156:
	.cv_func_id 167
	.cv_file	27 "/rustc/7737e0b5c4103216d6fd8cf941b7ab9bdbaace7c\\library\\core\\src\\..\\..\\stdarch\\crates\\core_arch\\src\\x86\\sse2.rs" "7CA0269BBE6786EEFFF1987BF675C1937203B317" 2
	.cv_loc	167 27 25 0
	pause
	.cv_loc	167 27 26 0
	retq
.Ltmp496:
.Lfunc_end156:

	.def	_ZN4core5clone5impls52_$LT$impl$u20$core..clone..Clone$u20$for$u20$u32$GT$5clone17heff85127d2f24c50E;
	.scl	3;
	.type	32;
	.endef
	.section	.text,"xr",one_only,_ZN4core5clone5impls52_$LT$impl$u20$core..clone..Clone$u20$for$u20$u32$GT$5clone17heff85127d2f24c50E
	.p2align	4, 0x90
_ZN4core5clone5impls52_$LT$impl$u20$core..clone..Clone$u20$for$u20$u32$GT$5clone17heff85127d2f24c50E:
.Lfunc_begin157:
	.cv_func_id 168
	.cv_loc	168 12 183 0
.seh_proc _ZN4core5clone5impls52_$LT$impl$u20$core..clone..Clone$u20$for$u20$u32$GT$5clone17heff85127d2f24c50E
	pushq	%rax
	.seh_stackalloc 8
	.seh_endprologue
	movq	%rcx, (%rsp)
.Ltmp497:
	.cv_loc	168 12 184 0
	movl	(%rcx), %eax
	.cv_loc	168 12 185 0
	popq	%rcx
	retq
.Ltmp498:
.Lfunc_end157:
	.seh_endproc

	.def	_ZN4core3cmp5impls50_$LT$impl$u20$core..cmp..Ord$u20$for$u20$usize$GT$3cmp17h972ebcae687bfdbcE;
	.scl	3;
	.type	32;
	.endef
	.section	.text,"xr",one_only,_ZN4core3cmp5impls50_$LT$impl$u20$core..cmp..Ord$u20$for$u20$usize$GT$3cmp17h972ebcae687bfdbcE
	.p2align	4, 0x90
_ZN4core3cmp5impls50_$LT$impl$u20$core..cmp..Ord$u20$for$u20$usize$GT$3cmp17h972ebcae687bfdbcE:
.Lfunc_begin158:
	.cv_func_id 169
	.cv_loc	169 13 1412 0
.seh_proc _ZN4core3cmp5impls50_$LT$impl$u20$core..cmp..Ord$u20$for$u20$usize$GT$3cmp17h972ebcae687bfdbcE
	subq	$40, %rsp
	.seh_stackalloc 40
	.seh_endprologue
	movq	%rdx, (%rsp)
	movq	%rcx, 8(%rsp)
	movq	%rcx, 24(%rsp)
	movq	%rdx, 32(%rsp)
.Ltmp499:
	.cv_loc	169 13 1415 0
	movq	(%rcx), %rax
	cmpq	(%rdx), %rax
	jb	.LBB158_2
	.cv_loc	169 13 1416 0
	movq	(%rsp), %rcx
	movq	8(%rsp), %rax
	movq	(%rax), %rax
	cmpq	(%rcx), %rax
	je	.LBB158_5
	jmp	.LBB158_4
.LBB158_2:
	.cv_loc	169 13 1415 0
	movb	$-1, 23(%rsp)
.LBB158_3:
	.cv_loc	169 13 1418 0
	movb	23(%rsp), %al
	addq	$40, %rsp
	retq
.LBB158_4:
	.cv_loc	169 13 1417 0
	movb	$1, 23(%rsp)
	.cv_loc	169 13 1416 0
	jmp	.LBB158_6
.LBB158_5:
	movb	$0, 23(%rsp)
.LBB158_6:
	.cv_loc	169 13 1415 0
	jmp	.LBB158_3
.Ltmp500:
.Lfunc_end158:
	.seh_endproc

	.def	_ZN90_$LT$core..ops..control_flow..ControlFlow$LT$B$C$C$GT$$u20$as$u20$core..cmp..PartialEq$GT$2eq17hc9950a1ec904bef3E;
	.scl	2;
	.type	32;
	.endef
	.section	.text,"xr",one_only,_ZN90_$LT$core..ops..control_flow..ControlFlow$LT$B$C$C$GT$$u20$as$u20$core..cmp..PartialEq$GT$2eq17hc9950a1ec904bef3E
	.globl	_ZN90_$LT$core..ops..control_flow..ControlFlow$LT$B$C$C$GT$$u20$as$u20$core..cmp..PartialEq$GT$2eq17hc9950a1ec904bef3E
	.p2align	4, 0x90
_ZN90_$LT$core..ops..control_flow..ControlFlow$LT$B$C$C$GT$$u20$as$u20$core..cmp..PartialEq$GT$2eq17hc9950a1ec904bef3E:
.Lfunc_begin159:
	.cv_func_id 170
	.cv_loc	170 14 82 0
.seh_proc _ZN90_$LT$core..ops..control_flow..ControlFlow$LT$B$C$C$GT$$u20$as$u20$core..cmp..PartialEq$GT$2eq17hc9950a1ec904bef3E
	subq	$152, %rsp
	.seh_stackalloc 152
	.seh_endprologue
	movq	%rdx, 48(%rsp)
	movq	%rcx, 56(%rsp)
	movq	%rcx, 88(%rsp)
	movq	%rdx, 96(%rsp)
.Ltmp501:
	movb	(%rcx), %al
	andb	$1, %al
	movzbl	%al, %eax
	movq	%rax, 104(%rsp)
.Ltmp502:
	.cv_loc	170 14 82 0
	movb	(%rdx), %cl
	andb	$1, %cl
	movzbl	%cl, %ecx
	movq	%rcx, 112(%rsp)
.Ltmp503:
	.cv_loc	170 14 82 0
	cmpq	%rcx, %rax
	je	.LBB159_2
	movb	$0, 71(%rsp)
	jmp	.LBB159_10
.LBB159_2:
	movq	48(%rsp), %rax
	movq	56(%rsp), %rcx
	movq	%rcx, 72(%rsp)
	movq	%rax, 80(%rsp)
	movq	72(%rsp), %rax
	movb	(%rax), %al
	andb	$1, %al
	movzbl	%al, %eax
	movq	%rax, 40(%rsp)
	movq	80(%rsp), %rcx
	movb	(%rcx), %cl
	andb	$1, %cl
	movzbl	%cl, %ecx
	cmpq	%rcx, %rax
	jne	.LBB159_4
	movq	40(%rsp), %rax
	testq	%rax, %rax
	je	.LBB159_5
	jmp	.LBB159_11
.LBB159_11:
	jmp	.LBB159_6
.LBB159_4:
	ud2
.LBB159_5:
	.cv_loc	170 14 87 0
	movq	72(%rsp), %rcx
	addq	$1, %rcx
	movq	%rcx, 136(%rsp)
	movq	80(%rsp), %rdx
	addq	$1, %rdx
	movq	%rdx, 144(%rsp)
.Ltmp504:
	.cv_loc	170 14 87 0
	callq	_ZN4core3cmp5impls59_$LT$impl$u20$core..cmp..PartialEq$u20$for$u20$$LP$$RP$$GT$2eq17heb55c11eaf3a27f2E
	andb	$1, %al
	movb	%al, 71(%rsp)
	jmp	.LBB159_9
.Ltmp505:
.LBB159_6:
	.cv_loc	170 14 91 0
	movq	72(%rsp), %rcx
	addq	$1, %rcx
	movq	%rcx, 120(%rsp)
	movq	80(%rsp), %rdx
	addq	$1, %rdx
	movq	%rdx, 128(%rsp)
.Ltmp506:
	.cv_loc	170 14 91 0
	callq	_ZN4core3cmp5impls59_$LT$impl$u20$core..cmp..PartialEq$u20$for$u20$$LP$$RP$$GT$2eq17heb55c11eaf3a27f2E
	andb	$1, %al
	movb	%al, 71(%rsp)
.Ltmp507:
	.cv_loc	170 14 82 0
	jmp	.LBB159_8
.LBB159_8:
	jmp	.LBB159_10
.LBB159_9:
	jmp	.LBB159_8
.Ltmp508:
.LBB159_10:
	.cv_loc	170 14 82 0
	movb	71(%rsp), %al
	andb	$1, %al
	movzbl	%al, %eax
	addq	$152, %rsp
	retq
.Ltmp509:
.Lfunc_end159:
	.seh_endproc

	.def	_ZN66_$LT$core..option..Option$LT$T$GT$$u20$as$u20$core..fmt..Debug$GT$3fmt17h3081a81f9ca90a3fE;
	.scl	2;
	.type	32;
	.endef
	.section	.text,"xr",one_only,_ZN66_$LT$core..option..Option$LT$T$GT$$u20$as$u20$core..fmt..Debug$GT$3fmt17h3081a81f9ca90a3fE
	.globl	_ZN66_$LT$core..option..Option$LT$T$GT$$u20$as$u20$core..fmt..Debug$GT$3fmt17h3081a81f9ca90a3fE
	.p2align	4, 0x90
_ZN66_$LT$core..option..Option$LT$T$GT$$u20$as$u20$core..fmt..Debug$GT$3fmt17h3081a81f9ca90a3fE:
.Lfunc_begin160:
	.cv_func_id 171
	.cv_loc	171 19 512 0
.seh_proc _ZN66_$LT$core..option..Option$LT$T$GT$$u20$as$u20$core..fmt..Debug$GT$3fmt17h3081a81f9ca90a3fE
	subq	$136, %rsp
	.seh_stackalloc 136
	.seh_endprologue
	movq	%rdx, 48(%rsp)
	movq	%rcx, 104(%rsp)
	movq	%rdx, 112(%rsp)
.Ltmp510:
	movq	%rcx, 64(%rsp)
	movq	64(%rsp), %rax
	movl	(%rax), %eax
	testq	%rax, %rax
	je	.LBB160_2
	jmp	.LBB160_9
.LBB160_9:
	jmp	.LBB160_3
	ud2
.LBB160_2:
	movq	48(%rsp), %rcx
	leaq	__unnamed_61(%rip), %rdx
	movl	$4, %r8d
	callq	_ZN4core3fmt9Formatter9write_str17hbcbdd4038ac22381E
	andb	$1, %al
	movb	%al, 63(%rsp)
	jmp	.LBB160_8
.LBB160_3:
	.cv_loc	171 19 523 0
	movq	48(%rsp), %rdx
	movq	64(%rsp), %rax
	addq	$4, %rax
	movq	%rax, 40(%rsp)
	movq	%rax, 120(%rsp)
.Ltmp511:
	.cv_loc	171 19 512 0
	leaq	72(%rsp), %rcx
	leaq	__unnamed_62(%rip), %r8
	movl	$4, %r9d
	callq	_ZN4core3fmt9Formatter11debug_tuple17h17befcdd272edef4E
	movq	40(%rsp), %rax
	leaq	72(%rsp), %rcx
	movq	%rcx, 128(%rsp)
.Ltmp512:
	.cv_loc	171 19 523 0
	movq	%rax, 96(%rsp)
	leaq	96(%rsp), %rdx
	.cv_loc	171 19 512 0
	leaq	72(%rsp), %rcx
	leaq	__unnamed_63(%rip), %r8
	callq	_ZN4core3fmt8builders10DebugTuple5field17hcf6d8a0993c37a8aE
	leaq	72(%rsp), %rcx
	callq	_ZN4core3fmt8builders10DebugTuple6finish17h02634223f85efa2fE
	andb	$1, %al
	movb	%al, 63(%rsp)
.Ltmp513:
	.cv_loc	171 19 512 0
	jmp	.LBB160_7
.LBB160_7:
	movb	63(%rsp), %al
	andb	$1, %al
	movzbl	%al, %eax
	addq	$136, %rsp
	retq
.LBB160_8:
	jmp	.LBB160_7
.Ltmp514:
.Lfunc_end160:
	.seh_endproc

	.def	_ZN66_$LT$core..option..Option$LT$T$GT$$u20$as$u20$core..fmt..Debug$GT$3fmt17h415dce1823aefd42E;
	.scl	2;
	.type	32;
	.endef
	.section	.text,"xr",one_only,_ZN66_$LT$core..option..Option$LT$T$GT$$u20$as$u20$core..fmt..Debug$GT$3fmt17h415dce1823aefd42E
	.globl	_ZN66_$LT$core..option..Option$LT$T$GT$$u20$as$u20$core..fmt..Debug$GT$3fmt17h415dce1823aefd42E
	.p2align	4, 0x90
_ZN66_$LT$core..option..Option$LT$T$GT$$u20$as$u20$core..fmt..Debug$GT$3fmt17h415dce1823aefd42E:
.Lfunc_begin161:
	.cv_func_id 172
	.cv_loc	172 19 512 0
.seh_proc _ZN66_$LT$core..option..Option$LT$T$GT$$u20$as$u20$core..fmt..Debug$GT$3fmt17h415dce1823aefd42E
	subq	$136, %rsp
	.seh_stackalloc 136
	.seh_endprologue
	movq	%rdx, 48(%rsp)
	movq	%rcx, 104(%rsp)
	movq	%rdx, 112(%rsp)
.Ltmp515:
	movq	%rcx, 64(%rsp)
	movq	64(%rsp), %rax
	movq	(%rax), %rax
	addq	$-2, %rax
	setne	%al
	movzbl	%al, %eax
	je	.LBB161_2
	jmp	.LBB161_9
.LBB161_9:
	jmp	.LBB161_3
	ud2
.LBB161_2:
	movq	48(%rsp), %rcx
	leaq	__unnamed_61(%rip), %rdx
	movl	$4, %r8d
	callq	_ZN4core3fmt9Formatter9write_str17hbcbdd4038ac22381E
	andb	$1, %al
	movb	%al, 63(%rsp)
	jmp	.LBB161_8
.LBB161_3:
	.cv_loc	172 19 523 0
	movq	48(%rsp), %rdx
	movq	64(%rsp), %rax
	movq	%rax, 40(%rsp)
	movq	%rax, 120(%rsp)
.Ltmp516:
	.cv_loc	172 19 512 0
	leaq	72(%rsp), %rcx
	leaq	__unnamed_62(%rip), %r8
	movl	$4, %r9d
	callq	_ZN4core3fmt9Formatter11debug_tuple17h17befcdd272edef4E
	movq	40(%rsp), %rax
	leaq	72(%rsp), %rcx
	movq	%rcx, 128(%rsp)
.Ltmp517:
	.cv_loc	172 19 523 0
	movq	%rax, 96(%rsp)
	leaq	96(%rsp), %rdx
	.cv_loc	172 19 512 0
	leaq	72(%rsp), %rcx
	leaq	__unnamed_64(%rip), %r8
	callq	_ZN4core3fmt8builders10DebugTuple5field17hcf6d8a0993c37a8aE
	leaq	72(%rsp), %rcx
	callq	_ZN4core3fmt8builders10DebugTuple6finish17h02634223f85efa2fE
	andb	$1, %al
	movb	%al, 63(%rsp)
.Ltmp518:
	.cv_loc	172 19 512 0
	jmp	.LBB161_7
.LBB161_7:
	movb	63(%rsp), %al
	andb	$1, %al
	movzbl	%al, %eax
	addq	$136, %rsp
	retq
.LBB161_8:
	jmp	.LBB161_7
.Ltmp519:
.Lfunc_end161:
	.seh_endproc

	.def	_ZN4core4sync6atomic11AtomicUsize4load17h0081d1c79bf57ec0E;
	.scl	3;
	.type	32;
	.endef
	.section	.text,"xr",one_only,_ZN4core4sync6atomic11AtomicUsize4load17h0081d1c79bf57ec0E
	.p2align	4, 0x90
_ZN4core4sync6atomic11AtomicUsize4load17h0081d1c79bf57ec0E:
.Lfunc_begin162:
	.cv_func_id 173
	.cv_loc	173 21 1502 0
.seh_proc _ZN4core4sync6atomic11AtomicUsize4load17h0081d1c79bf57ec0E
	subq	$88, %rsp
	.seh_stackalloc 88
	.seh_endprologue
	movb	%dl, 55(%rsp)
	movq	%rcx, 64(%rsp)
	movb	%dl, 79(%rsp)
	movq	%rcx, 56(%rsp)
	movq	%rcx, 80(%rsp)
	.cv_loc	173 21 1504 0
	movb	55(%rsp), %dl
	movq	56(%rsp), %rcx
.Ltmp520:
	callq	_ZN4core4sync6atomic11atomic_load17ha1c92b82d95bce3eE
	movq	%rax, 40(%rsp)
	.cv_loc	173 21 1505 0
	movq	40(%rsp), %rax
	addq	$88, %rsp
	retq
.Ltmp521:
.Lfunc_end162:
	.seh_endproc

	.def	_ZN4core4sync6atomic11AtomicUsize5store17h905e03295f32e75bE;
	.scl	3;
	.type	32;
	.endef
	.section	.text,"xr",one_only,_ZN4core4sync6atomic11AtomicUsize5store17h905e03295f32e75bE
	.p2align	4, 0x90
_ZN4core4sync6atomic11AtomicUsize5store17h905e03295f32e75bE:
.Lfunc_begin163:
	.cv_func_id 174
	.cv_loc	174 21 1528 0
.seh_proc _ZN4core4sync6atomic11AtomicUsize5store17h905e03295f32e75bE
	subq	$88, %rsp
	.seh_stackalloc 88
	.seh_endprologue
	movb	%r8b, 39(%rsp)
	movq	%rdx, 40(%rsp)
	movq	%rcx, 56(%rsp)
	movq	%rdx, 64(%rsp)
	movb	%r8b, 79(%rsp)
	movq	%rcx, 48(%rsp)
	movq	%rcx, 80(%rsp)
	.cv_loc	174 21 1530 0
	movb	39(%rsp), %r8b
	movq	40(%rsp), %rdx
	movq	48(%rsp), %rcx
.Ltmp522:
	callq	_ZN4core4sync6atomic12atomic_store17h31f66e3d9ee38952E
	.cv_loc	174 21 1531 0
	nop
	addq	$88, %rsp
	retq
.Ltmp523:
.Lfunc_end163:
	.seh_endproc

	.def	_ZN4core4sync6atomic11AtomicUsize16compare_exchange17h390b429d0e9684a3E;
	.scl	3;
	.type	32;
	.endef
	.section	.text,"xr",one_only,_ZN4core4sync6atomic11AtomicUsize16compare_exchange17h390b429d0e9684a3E
	.p2align	4, 0x90
_ZN4core4sync6atomic11AtomicUsize16compare_exchange17h390b429d0e9684a3E:
.Lfunc_begin164:
	.cv_func_id 175
	.cv_loc	175 21 1666 0
.seh_proc _ZN4core4sync6atomic11AtomicUsize16compare_exchange17h390b429d0e9684a3E
	subq	$136, %rsp
	.seh_stackalloc 136
	.seh_endprologue
	movb	%r9b, 63(%rsp)
	movq	%r8, 64(%rsp)
	movq	%rdx, 72(%rsp)
	movb	176(%rsp), %al
	movb	%al, 87(%rsp)
	movq	%rcx, 96(%rsp)
	movq	%rdx, 104(%rsp)
	movq	%r8, 112(%rsp)
	movb	%r9b, 127(%rsp)
	movq	%rcx, 88(%rsp)
	movq	%rcx, 128(%rsp)
	.cv_loc	175 21 1672 0
	movb	87(%rsp), %al
	movb	63(%rsp), %r9b
	movq	64(%rsp), %r8
	movq	72(%rsp), %rdx
	movq	88(%rsp), %rcx
.Ltmp524:
	movb	%al, 32(%rsp)
	callq	_ZN4core4sync6atomic23atomic_compare_exchange17h4d0ffcba5a04d4eeE
	movq	%rax, 40(%rsp)
	movq	%rdx, 48(%rsp)
	.cv_loc	175 21 1673 0
	movq	48(%rsp), %rdx
	movq	40(%rsp), %rax
	addq	$136, %rsp
	retq
.Ltmp525:
.Lfunc_end164:
	.seh_endproc

	.def	_ZN4core3fmt3num50_$LT$impl$u20$core..fmt..Debug$u20$for$u20$u32$GT$3fmt17he4a9cee23c4b003aE;
	.scl	3;
	.type	32;
	.endef
	.section	.text,"xr",one_only,_ZN4core3fmt3num50_$LT$impl$u20$core..fmt..Debug$u20$for$u20$u32$GT$3fmt17he4a9cee23c4b003aE
	.p2align	4, 0x90
_ZN4core3fmt3num50_$LT$impl$u20$core..fmt..Debug$u20$for$u20$u32$GT$3fmt17he4a9cee23c4b003aE:
.Lfunc_begin165:
	.cv_func_id 176
	.cv_file	28 "/rustc/7737e0b5c4103216d6fd8cf941b7ab9bdbaace7c\\library\\core\\src\\fmt\\num.rs" "DC43C0914AC0092AF0AB175569929520A80E5ECE" 2
	.cv_loc	176 28 185 0
.seh_proc _ZN4core3fmt3num50_$LT$impl$u20$core..fmt..Debug$u20$for$u20$u32$GT$3fmt17he4a9cee23c4b003aE
	subq	$88, %rsp
	.seh_stackalloc 88
	.seh_endprologue
	movq	%rdx, 48(%rsp)
	movq	%rcx, %rax
	movq	48(%rsp), %rcx
	movq	%rax, 56(%rsp)
	movq	%rax, 72(%rsp)
	movq	%rcx, 80(%rsp)
.Ltmp526:
	.cv_loc	176 28 186 0
	callq	_ZN4core3fmt9Formatter15debug_lower_hex17h78b12257ba71b440E
	movb	%al, 70(%rsp)
	movb	70(%rsp), %al
	testb	$1, %al
	jne	.LBB165_3
	jmp	.LBB165_2
.LBB165_2:
	.cv_loc	176 28 188 0
	movq	48(%rsp), %rcx
	callq	_ZN4core3fmt9Formatter15debug_upper_hex17h6c827b3ef2ba1791E
	movb	%al, 47(%rsp)
	jmp	.LBB165_6
.LBB165_3:
	.cv_loc	176 28 187 0
	movq	48(%rsp), %rdx
	movq	56(%rsp), %rcx
	callq	_ZN4core3fmt3num53_$LT$impl$u20$core..fmt..LowerHex$u20$for$u20$u32$GT$3fmt17hcf2f41b5122d410fE
	andb	$1, %al
	movb	%al, 71(%rsp)
	.cv_loc	176 28 186 0
	jmp	.LBB165_5
.LBB165_5:
	.cv_loc	176 28 193 0
	movb	71(%rsp), %al
	andb	$1, %al
	movzbl	%al, %eax
	addq	$88, %rsp
	retq
.LBB165_6:
	.cv_loc	176 28 188 0
	movb	47(%rsp), %al
	testb	$1, %al
	jne	.LBB165_8
	jmp	.LBB165_7
.LBB165_7:
	.cv_loc	176 28 191 0
	movq	48(%rsp), %rdx
	movq	56(%rsp), %rcx
	callq	_ZN4core3fmt3num3imp52_$LT$impl$u20$core..fmt..Display$u20$for$u20$u32$GT$3fmt17he914ada9ac5e13b3E
	andb	$1, %al
	movb	%al, 71(%rsp)
	jmp	.LBB165_11
.LBB165_8:
	.cv_loc	176 28 189 0
	movq	48(%rsp), %rdx
	movq	56(%rsp), %rcx
	callq	_ZN4core3fmt3num53_$LT$impl$u20$core..fmt..UpperHex$u20$for$u20$u32$GT$3fmt17h119f0f8cf5b4be13E
	andb	$1, %al
	movb	%al, 71(%rsp)
	.cv_loc	176 28 188 0
	jmp	.LBB165_10
.LBB165_10:
	.cv_loc	176 28 186 0
	jmp	.LBB165_5
.LBB165_11:
	.cv_loc	176 28 188 0
	jmp	.LBB165_10
.Ltmp527:
.Lfunc_end165:
	.seh_endproc

	.def	_ZN4core3fmt10ArgumentV111new_display17h839c3c498a440a73E;
	.scl	2;
	.type	32;
	.endef
	.section	.text,"xr",one_only,_ZN4core3fmt10ArgumentV111new_display17h839c3c498a440a73E
	.globl	_ZN4core3fmt10ArgumentV111new_display17h839c3c498a440a73E
	.p2align	4, 0x90
_ZN4core3fmt10ArgumentV111new_display17h839c3c498a440a73E:
.Lfunc_begin166:
	.cv_func_id 177
	.cv_loc	177 22 316 0
.seh_proc _ZN4core3fmt10ArgumentV111new_display17h839c3c498a440a73E
	subq	$56, %rsp
	.seh_stackalloc 56
	.seh_endprologue
	movq	%rcx, 48(%rsp)
.Ltmp528:
	.cv_loc	177 22 317 0
	leaq	_ZN44_$LT$$RF$T$u20$as$u20$core..fmt..Display$GT$3fmt17hd5c987788cb5f238E(%rip), %rdx
	callq	_ZN4core3fmt10ArgumentV13new17he438a2bbfab3c3aaE
	movq	%rax, 32(%rsp)
	movq	%rdx, 40(%rsp)
	.cv_loc	177 22 318 0
	movq	40(%rsp), %rdx
	movq	32(%rsp), %rax
	addq	$56, %rsp
	retq
.Ltmp529:
.Lfunc_end166:
	.seh_endproc

	.def	_ZN59_$LT$core..fmt..Arguments$u20$as$u20$core..clone..Clone$GT$5clone17hbf8a9e789eadf86dE;
	.scl	3;
	.type	32;
	.endef
	.section	.text,"xr",one_only,_ZN59_$LT$core..fmt..Arguments$u20$as$u20$core..clone..Clone$GT$5clone17hbf8a9e789eadf86dE
	.p2align	4, 0x90
_ZN59_$LT$core..fmt..Arguments$u20$as$u20$core..clone..Clone$GT$5clone17hbf8a9e789eadf86dE:
.Lfunc_begin167:
	.cv_func_id 178
	.cv_loc	178 22 461 0
.seh_proc _ZN59_$LT$core..fmt..Arguments$u20$as$u20$core..clone..Clone$GT$5clone17hbf8a9e789eadf86dE
	subq	$56, %rsp
	.seh_stackalloc 56
	.seh_endprologue
	movq	%rcx, %rax
	movq	%rax, 40(%rsp)
	movq	%rdx, 48(%rsp)
.Ltmp530:
	movl	$48, %r8d
	callq	memcpy
	movq	40(%rsp), %rax
	addq	$56, %rsp
	retq
.Ltmp531:
.Lfunc_end167:
	.seh_endproc

	.def	_ZN42_$LT$$RF$T$u20$as$u20$core..fmt..Debug$GT$3fmt17h09620e1e872c64ddE;
	.scl	2;
	.type	32;
	.endef
	.section	.text,"xr",one_only,_ZN42_$LT$$RF$T$u20$as$u20$core..fmt..Debug$GT$3fmt17h09620e1e872c64ddE
	.globl	_ZN42_$LT$$RF$T$u20$as$u20$core..fmt..Debug$GT$3fmt17h09620e1e872c64ddE
	.p2align	4, 0x90
_ZN42_$LT$$RF$T$u20$as$u20$core..fmt..Debug$GT$3fmt17h09620e1e872c64ddE:
.Lfunc_begin168:
	.cv_func_id 179
	.cv_loc	179 22 2128 0
.seh_proc _ZN42_$LT$$RF$T$u20$as$u20$core..fmt..Debug$GT$3fmt17h09620e1e872c64ddE
	subq	$56, %rsp
	.seh_stackalloc 56
	.seh_endprologue
	movq	%rcx, 40(%rsp)
	movq	%rdx, 48(%rsp)
.Ltmp532:
	movq	(%rcx), %rcx
	callq	_ZN57_$LT$core..fmt..Arguments$u20$as$u20$core..fmt..Debug$GT$3fmt17hf5cc838db8542d05E
	movb	%al, 39(%rsp)
	movb	39(%rsp), %al
	andb	$1, %al
	movzbl	%al, %eax
	addq	$56, %rsp
	retq
.Ltmp533:
.Lfunc_end168:
	.seh_endproc

	.def	_ZN42_$LT$$RF$T$u20$as$u20$core..fmt..Debug$GT$3fmt17h0f17e136e68283eaE;
	.scl	2;
	.type	32;
	.endef
	.section	.text,"xr",one_only,_ZN42_$LT$$RF$T$u20$as$u20$core..fmt..Debug$GT$3fmt17h0f17e136e68283eaE
	.globl	_ZN42_$LT$$RF$T$u20$as$u20$core..fmt..Debug$GT$3fmt17h0f17e136e68283eaE
	.p2align	4, 0x90
_ZN42_$LT$$RF$T$u20$as$u20$core..fmt..Debug$GT$3fmt17h0f17e136e68283eaE:
.Lfunc_begin169:
	.cv_func_id 180
	.cv_loc	180 22 2128 0
.seh_proc _ZN42_$LT$$RF$T$u20$as$u20$core..fmt..Debug$GT$3fmt17h0f17e136e68283eaE
	subq	$56, %rsp
	.seh_stackalloc 56
	.seh_endprologue
	movq	%rcx, 40(%rsp)
	movq	%rdx, 48(%rsp)
.Ltmp534:
	movq	(%rcx), %rcx
	callq	_ZN4core3fmt3num50_$LT$impl$u20$core..fmt..Debug$u20$for$u20$u32$GT$3fmt17he4a9cee23c4b003aE
	movb	%al, 39(%rsp)
	movb	39(%rsp), %al
	andb	$1, %al
	movzbl	%al, %eax
	addq	$56, %rsp
	retq
.Ltmp535:
.Lfunc_end169:
	.seh_endproc

	.def	_ZN42_$LT$$RF$T$u20$as$u20$core..fmt..Debug$GT$3fmt17h128d39e044137910E;
	.scl	2;
	.type	32;
	.endef
	.section	.text,"xr",one_only,_ZN42_$LT$$RF$T$u20$as$u20$core..fmt..Debug$GT$3fmt17h128d39e044137910E
	.globl	_ZN42_$LT$$RF$T$u20$as$u20$core..fmt..Debug$GT$3fmt17h128d39e044137910E
	.p2align	4, 0x90
_ZN42_$LT$$RF$T$u20$as$u20$core..fmt..Debug$GT$3fmt17h128d39e044137910E:
.Lfunc_begin170:
	.cv_func_id 181
	.cv_loc	181 22 2128 0
.seh_proc _ZN42_$LT$$RF$T$u20$as$u20$core..fmt..Debug$GT$3fmt17h128d39e044137910E
	subq	$56, %rsp
	.seh_stackalloc 56
	.seh_endprologue
	movq	%rcx, 40(%rsp)
	movq	%rdx, 48(%rsp)
.Ltmp536:
	movq	(%rcx), %rcx
	callq	_ZN48_$LT$log..Record$u20$as$u20$core..fmt..Debug$GT$3fmt17ha9d2c72b53791803E
	movb	%al, 39(%rsp)
	movb	39(%rsp), %al
	andb	$1, %al
	movzbl	%al, %eax
	addq	$56, %rsp
	retq
.Ltmp537:
.Lfunc_end170:
	.seh_endproc

	.def	_ZN42_$LT$$RF$T$u20$as$u20$core..fmt..Debug$GT$3fmt17h12b3e8683655f464E;
	.scl	2;
	.type	32;
	.endef
	.section	.text,"xr",one_only,_ZN42_$LT$$RF$T$u20$as$u20$core..fmt..Debug$GT$3fmt17h12b3e8683655f464E
	.globl	_ZN42_$LT$$RF$T$u20$as$u20$core..fmt..Debug$GT$3fmt17h12b3e8683655f464E
	.p2align	4, 0x90
_ZN42_$LT$$RF$T$u20$as$u20$core..fmt..Debug$GT$3fmt17h12b3e8683655f464E:
.Lfunc_begin171:
	.cv_func_id 182
	.cv_loc	182 22 2128 0
.seh_proc _ZN42_$LT$$RF$T$u20$as$u20$core..fmt..Debug$GT$3fmt17h12b3e8683655f464E
	subq	$56, %rsp
	.seh_stackalloc 56
	.seh_endprologue
	movq	%rcx, 40(%rsp)
	movq	%rdx, 48(%rsp)
.Ltmp538:
	movq	(%rcx), %rcx
	callq	_ZN42_$LT$$RF$T$u20$as$u20$core..fmt..Debug$GT$3fmt17hab041942ab757308E
	movb	%al, 39(%rsp)
	movb	39(%rsp), %al
	andb	$1, %al
	movzbl	%al, %eax
	addq	$56, %rsp
	retq
.Ltmp539:
.Lfunc_end171:
	.seh_endproc

	.def	_ZN42_$LT$$RF$T$u20$as$u20$core..fmt..Debug$GT$3fmt17h28e43203d990e494E;
	.scl	2;
	.type	32;
	.endef
	.section	.text,"xr",one_only,_ZN42_$LT$$RF$T$u20$as$u20$core..fmt..Debug$GT$3fmt17h28e43203d990e494E
	.globl	_ZN42_$LT$$RF$T$u20$as$u20$core..fmt..Debug$GT$3fmt17h28e43203d990e494E
	.p2align	4, 0x90
_ZN42_$LT$$RF$T$u20$as$u20$core..fmt..Debug$GT$3fmt17h28e43203d990e494E:
.Lfunc_begin172:
	.cv_func_id 183
	.cv_loc	183 22 2128 0
.seh_proc _ZN42_$LT$$RF$T$u20$as$u20$core..fmt..Debug$GT$3fmt17h28e43203d990e494E
	subq	$56, %rsp
	.seh_stackalloc 56
	.seh_endprologue
	movq	%rcx, 40(%rsp)
	movq	%rdx, 48(%rsp)
.Ltmp540:
	movq	(%rcx), %rcx
	callq	_ZN56_$LT$log..MaybeStaticStr$u20$as$u20$core..fmt..Debug$GT$3fmt17h16d588568c8b7dcbE
	movb	%al, 39(%rsp)
	movb	39(%rsp), %al
	andb	$1, %al
	movzbl	%al, %eax
	addq	$56, %rsp
	retq
.Ltmp541:
.Lfunc_end172:
	.seh_endproc

	.def	_ZN42_$LT$$RF$T$u20$as$u20$core..fmt..Debug$GT$3fmt17h31f2ded3bf5f1f09E;
	.scl	2;
	.type	32;
	.endef
	.section	.text,"xr",one_only,_ZN42_$LT$$RF$T$u20$as$u20$core..fmt..Debug$GT$3fmt17h31f2ded3bf5f1f09E
	.globl	_ZN42_$LT$$RF$T$u20$as$u20$core..fmt..Debug$GT$3fmt17h31f2ded3bf5f1f09E
	.p2align	4, 0x90
_ZN42_$LT$$RF$T$u20$as$u20$core..fmt..Debug$GT$3fmt17h31f2ded3bf5f1f09E:
.Lfunc_begin173:
	.cv_func_id 184
	.cv_loc	184 22 2128 0
.seh_proc _ZN42_$LT$$RF$T$u20$as$u20$core..fmt..Debug$GT$3fmt17h31f2ded3bf5f1f09E
	subq	$56, %rsp
	.seh_stackalloc 56
	.seh_endprologue
	movq	%rcx, 40(%rsp)
	movq	%rdx, 48(%rsp)
.Ltmp542:
	movq	(%rcx), %rcx
	callq	_ZN47_$LT$log..Level$u20$as$u20$core..fmt..Debug$GT$3fmt17h685f214ffa1c8ce4E
	movb	%al, 39(%rsp)
	movb	39(%rsp), %al
	andb	$1, %al
	movzbl	%al, %eax
	addq	$56, %rsp
	retq
.Ltmp543:
.Lfunc_end173:
	.seh_endproc

	.def	_ZN42_$LT$$RF$T$u20$as$u20$core..fmt..Debug$GT$3fmt17h5f7b3c936282999eE;
	.scl	2;
	.type	32;
	.endef
	.section	.text,"xr",one_only,_ZN42_$LT$$RF$T$u20$as$u20$core..fmt..Debug$GT$3fmt17h5f7b3c936282999eE
	.globl	_ZN42_$LT$$RF$T$u20$as$u20$core..fmt..Debug$GT$3fmt17h5f7b3c936282999eE
	.p2align	4, 0x90
_ZN42_$LT$$RF$T$u20$as$u20$core..fmt..Debug$GT$3fmt17h5f7b3c936282999eE:
.Lfunc_begin174:
	.cv_func_id 185
	.cv_loc	185 22 2128 0
.seh_proc _ZN42_$LT$$RF$T$u20$as$u20$core..fmt..Debug$GT$3fmt17h5f7b3c936282999eE
	subq	$56, %rsp
	.seh_stackalloc 56
	.seh_endprologue
	movq	%rcx, 40(%rsp)
	movq	%rdx, 48(%rsp)
.Ltmp544:
	movq	(%rcx), %rcx
	callq	_ZN45_$LT$$LP$$RP$$u20$as$u20$core..fmt..Debug$GT$3fmt17h6a898a952a003e54E
	movb	%al, 39(%rsp)
	movb	39(%rsp), %al
	andb	$1, %al
	movzbl	%al, %eax
	addq	$56, %rsp
	retq
.Ltmp545:
.Lfunc_end174:
	.seh_endproc

	.def	_ZN42_$LT$$RF$T$u20$as$u20$core..fmt..Debug$GT$3fmt17h8184803ec80cc532E;
	.scl	2;
	.type	32;
	.endef
	.section	.text,"xr",one_only,_ZN42_$LT$$RF$T$u20$as$u20$core..fmt..Debug$GT$3fmt17h8184803ec80cc532E
	.globl	_ZN42_$LT$$RF$T$u20$as$u20$core..fmt..Debug$GT$3fmt17h8184803ec80cc532E
	.p2align	4, 0x90
_ZN42_$LT$$RF$T$u20$as$u20$core..fmt..Debug$GT$3fmt17h8184803ec80cc532E:
.Lfunc_begin175:
	.cv_func_id 186
	.cv_loc	186 22 2128 0
.seh_proc _ZN42_$LT$$RF$T$u20$as$u20$core..fmt..Debug$GT$3fmt17h8184803ec80cc532E
	subq	$56, %rsp
	.seh_stackalloc 56
	.seh_endprologue
	movq	%rcx, 40(%rsp)
	movq	%rdx, 48(%rsp)
.Ltmp546:
	movq	(%rcx), %rcx
	callq	_ZN66_$LT$core..option..Option$LT$T$GT$$u20$as$u20$core..fmt..Debug$GT$3fmt17h3081a81f9ca90a3fE
	movb	%al, 39(%rsp)
	movb	39(%rsp), %al
	andb	$1, %al
	movzbl	%al, %eax
	addq	$56, %rsp
	retq
.Ltmp547:
.Lfunc_end175:
	.seh_endproc

	.def	_ZN42_$LT$$RF$T$u20$as$u20$core..fmt..Debug$GT$3fmt17hab041942ab757308E;
	.scl	2;
	.type	32;
	.endef
	.section	.text,"xr",one_only,_ZN42_$LT$$RF$T$u20$as$u20$core..fmt..Debug$GT$3fmt17hab041942ab757308E
	.globl	_ZN42_$LT$$RF$T$u20$as$u20$core..fmt..Debug$GT$3fmt17hab041942ab757308E
	.p2align	4, 0x90
_ZN42_$LT$$RF$T$u20$as$u20$core..fmt..Debug$GT$3fmt17hab041942ab757308E:
.Lfunc_begin176:
	.cv_func_id 187
	.cv_loc	187 22 2128 0
.seh_proc _ZN42_$LT$$RF$T$u20$as$u20$core..fmt..Debug$GT$3fmt17hab041942ab757308E
	subq	$56, %rsp
	.seh_stackalloc 56
	.seh_endprologue
	movq	%rdx, %r8
	movq	%rcx, %rax
	movq	%rax, 40(%rsp)
	movq	%r8, 48(%rsp)
.Ltmp548:
	movq	(%rax), %rcx
	movq	8(%rax), %rdx
	callq	_ZN40_$LT$str$u20$as$u20$core..fmt..Debug$GT$3fmt17h3099bb5046771cb7E
	movb	%al, 39(%rsp)
	movb	39(%rsp), %al
	andb	$1, %al
	movzbl	%al, %eax
	addq	$56, %rsp
	retq
.Ltmp549:
.Lfunc_end176:
	.seh_endproc

	.def	_ZN42_$LT$$RF$T$u20$as$u20$core..fmt..Debug$GT$3fmt17hc707b9d88c803c3dE;
	.scl	2;
	.type	32;
	.endef
	.section	.text,"xr",one_only,_ZN42_$LT$$RF$T$u20$as$u20$core..fmt..Debug$GT$3fmt17hc707b9d88c803c3dE
	.globl	_ZN42_$LT$$RF$T$u20$as$u20$core..fmt..Debug$GT$3fmt17hc707b9d88c803c3dE
	.p2align	4, 0x90
_ZN42_$LT$$RF$T$u20$as$u20$core..fmt..Debug$GT$3fmt17hc707b9d88c803c3dE:
.Lfunc_begin177:
	.cv_func_id 188
	.cv_loc	188 22 2128 0
.seh_proc _ZN42_$LT$$RF$T$u20$as$u20$core..fmt..Debug$GT$3fmt17hc707b9d88c803c3dE
	subq	$56, %rsp
	.seh_stackalloc 56
	.seh_endprologue
	movq	%rcx, 40(%rsp)
	movq	%rdx, 48(%rsp)
.Ltmp550:
	movq	(%rcx), %rcx
	callq	_ZN50_$LT$log..Metadata$u20$as$u20$core..fmt..Debug$GT$3fmt17h012e6aa2666e5c62E
	movb	%al, 39(%rsp)
	movb	39(%rsp), %al
	andb	$1, %al
	movzbl	%al, %eax
	addq	$56, %rsp
	retq
.Ltmp551:
.Lfunc_end177:
	.seh_endproc

	.def	_ZN42_$LT$$RF$T$u20$as$u20$core..fmt..Debug$GT$3fmt17hcfb38f226020e57aE;
	.scl	2;
	.type	32;
	.endef
	.section	.text,"xr",one_only,_ZN42_$LT$$RF$T$u20$as$u20$core..fmt..Debug$GT$3fmt17hcfb38f226020e57aE
	.globl	_ZN42_$LT$$RF$T$u20$as$u20$core..fmt..Debug$GT$3fmt17hcfb38f226020e57aE
	.p2align	4, 0x90
_ZN42_$LT$$RF$T$u20$as$u20$core..fmt..Debug$GT$3fmt17hcfb38f226020e57aE:
.Lfunc_begin178:
	.cv_func_id 189
	.cv_loc	189 22 2128 0
.seh_proc _ZN42_$LT$$RF$T$u20$as$u20$core..fmt..Debug$GT$3fmt17hcfb38f226020e57aE
	subq	$56, %rsp
	.seh_stackalloc 56
	.seh_endprologue
	movq	%rcx, 40(%rsp)
	movq	%rdx, 48(%rsp)
.Ltmp552:
	movq	(%rcx), %rcx
	callq	_ZN66_$LT$core..option..Option$LT$T$GT$$u20$as$u20$core..fmt..Debug$GT$3fmt17h415dce1823aefd42E
	movb	%al, 39(%rsp)
	movb	39(%rsp), %al
	andb	$1, %al
	movzbl	%al, %eax
	addq	$56, %rsp
	retq
.Ltmp553:
.Lfunc_end178:
	.seh_endproc

	.def	_ZN44_$LT$$RF$T$u20$as$u20$core..fmt..Display$GT$3fmt17hd5c987788cb5f238E;
	.scl	2;
	.type	32;
	.endef
	.section	.text,"xr",one_only,_ZN44_$LT$$RF$T$u20$as$u20$core..fmt..Display$GT$3fmt17hd5c987788cb5f238E
	.globl	_ZN44_$LT$$RF$T$u20$as$u20$core..fmt..Display$GT$3fmt17hd5c987788cb5f238E
	.p2align	4, 0x90
_ZN44_$LT$$RF$T$u20$as$u20$core..fmt..Display$GT$3fmt17hd5c987788cb5f238E:
.Lfunc_begin179:
	.cv_func_id 190
	.cv_loc	190 22 2128 0
.seh_proc _ZN44_$LT$$RF$T$u20$as$u20$core..fmt..Display$GT$3fmt17hd5c987788cb5f238E
	subq	$56, %rsp
	.seh_stackalloc 56
	.seh_endprologue
	movq	%rdx, %r8
	movq	%rcx, %rax
	movq	%rax, 40(%rsp)
	movq	%r8, 48(%rsp)
.Ltmp554:
	movq	(%rax), %rcx
	movq	8(%rax), %rdx
	callq	_ZN42_$LT$str$u20$as$u20$core..fmt..Display$GT$3fmt17hd878a59bdc0589eeE
	movb	%al, 39(%rsp)
	movb	39(%rsp), %al
	andb	$1, %al
	movzbl	%al, %eax
	addq	$56, %rsp
	retq
.Ltmp555:
.Lfunc_end179:
	.seh_endproc

	.def	_ZN91_$LT$core..slice..iter..Iter$LT$T$GT$$u20$as$u20$core..iter..traits..iterator..Iterator$GT$4next17hcf764be0ef30aafbE;
	.scl	2;
	.type	32;
	.endef
	.section	.text,"xr",one_only,_ZN91_$LT$core..slice..iter..Iter$LT$T$GT$$u20$as$u20$core..iter..traits..iterator..Iterator$GT$4next17hcf764be0ef30aafbE
	.globl	_ZN91_$LT$core..slice..iter..Iter$LT$T$GT$$u20$as$u20$core..iter..traits..iterator..Iterator$GT$4next17hcf764be0ef30aafbE
	.p2align	4, 0x90
_ZN91_$LT$core..slice..iter..Iter$LT$T$GT$$u20$as$u20$core..iter..traits..iterator..Iterator$GT$4next17hcf764be0ef30aafbE:
.Lfunc_begin180:
	.cv_func_id 191
	.cv_file	29 "/rustc/7737e0b5c4103216d6fd8cf941b7ab9bdbaace7c\\library\\core\\src\\slice\\iter\\macros.rs" "2406A1514B5F5B474CEACAEA19AFB6CE794F9C1F" 2
	.cv_loc	191 29 134 0
.seh_proc _ZN91_$LT$core..slice..iter..Iter$LT$T$GT$$u20$as$u20$core..iter..traits..iterator..Iterator$GT$4next17hcf764be0ef30aafbE
	subq	$152, %rsp
	.seh_stackalloc 152
	.seh_endprologue
	movq	%rcx, 64(%rsp)
	movq	%rcx, 88(%rsp)
.Ltmp556:
	.cv_loc	191 29 142 0
	movq	(%rcx), %rcx
	callq	_ZN4core3ptr8non_null16NonNull$LT$T$GT$6as_ptr17h8bbd3d45a3f23a6fE
	movq	%rax, 72(%rsp)
	movq	72(%rsp), %rcx
	callq	_ZN4core3ptr7mut_ptr31_$LT$impl$u20$$BP$mut$u20$T$GT$7is_null17h4437aa8cb061c41bE
	.cv_loc	191 29 143 0
	jmp	.LBB180_4
.LBB180_4:
	movl	$16, %eax
	cmpq	$0, %rax
	jne	.LBB180_6
	jmp	.LBB180_9
.LBB180_6:
	.cv_loc	191 29 144 0
	movq	64(%rsp), %rax
	movq	8(%rax), %rcx
	callq	_ZN4core3ptr9const_ptr33_$LT$impl$u20$$BP$const$u20$T$GT$7is_null17h72eea6b85edd802aE
	.cv_loc	191 29 143 0
	jmp	.LBB180_9
.LBB180_9:
	.cv_loc	191 29 146 0
	movq	64(%rsp), %rax
	movq	(%rax), %rcx
	callq	_ZN4core3ptr8non_null16NonNull$LT$T$GT$6as_ptr17h8bbd3d45a3f23a6fE
	movq	%rax, 56(%rsp)
	movq	56(%rsp), %rax
	movq	64(%rsp), %rcx
	cmpq	8(%rcx), %rax
	je	.LBB180_12
	.cv_inline_site_id 192 within 191 inlined_at 29 149 0
	.cv_loc	192 29 90 0
	movq	64(%rsp), %rax
	movq	%rax, 104(%rsp)
	movq	$1, 112(%rsp)
.Ltmp557:
	movq	(%rax), %rcx
	callq	_ZN4core3ptr8non_null16NonNull$LT$T$GT$6as_ptr17h8bbd3d45a3f23a6fE
	movq	%rax, %rcx
	movq	64(%rsp), %rax
	movq	%rcx, 40(%rsp)
	movq	%rcx, 120(%rsp)
.Ltmp558:
	.cv_loc	192 29 93 0
	movq	(%rax), %rcx
	callq	_ZN4core3ptr8non_null16NonNull$LT$T$GT$6as_ptr17h8bbd3d45a3f23a6fE
	movq	%rax, 128(%rsp)
	movq	$1, 136(%rsp)
.Ltmp559:
	.cv_inline_site_id 193 within 192 inlined_at 29 93 0
	.cv_loc	193 10 307 0
	addq	$16, %rax
	movq	%rax, 144(%rsp)
	movq	144(%rsp), %rcx
.Ltmp560:
	.cv_loc	192 29 93 0
	callq	_ZN4core3ptr8non_null16NonNull$LT$T$GT$13new_unchecked17h518c9ebcd6795845E
	movq	64(%rsp), %rcx
	movq	%rax, %rdx
	movq	40(%rsp), %rax
	movq	%rdx, (%rcx)
	.cv_loc	192 29 94 0
	movq	%rax, 96(%rsp)
.Ltmp561:
	.cv_loc	192 29 96 0
	movq	96(%rsp), %rax
	movq	%rax, 48(%rsp)
.Ltmp562:
	.cv_loc	191 29 149 0
	jmp	.LBB180_14
.LBB180_12:
	.cv_loc	191 29 147 0
	movq	$0, 80(%rsp)
.LBB180_13:
	.cv_loc	191 29 152 0
	movq	80(%rsp), %rax
	addq	$152, %rsp
	retq
.LBB180_14:
	.cv_loc	191 29 149 0
	movq	48(%rsp), %rax
	movq	%rax, 80(%rsp)
	.cv_loc	191 29 146 0
	jmp	.LBB180_13
.Ltmp563:
.Lfunc_end180:
	.seh_endproc

	.def	_ZN91_$LT$core..slice..iter..Iter$LT$T$GT$$u20$as$u20$core..iter..traits..iterator..Iterator$GT$9size_hint17h93623aca974a087bE;
	.scl	2;
	.type	32;
	.endef
	.section	.text,"xr",one_only,_ZN91_$LT$core..slice..iter..Iter$LT$T$GT$$u20$as$u20$core..iter..traits..iterator..Iterator$GT$9size_hint17h93623aca974a087bE
	.globl	_ZN91_$LT$core..slice..iter..Iter$LT$T$GT$$u20$as$u20$core..iter..traits..iterator..Iterator$GT$9size_hint17h93623aca974a087bE
	.p2align	4, 0x90
_ZN91_$LT$core..slice..iter..Iter$LT$T$GT$$u20$as$u20$core..iter..traits..iterator..Iterator$GT$9size_hint17h93623aca974a087bE:
.Lfunc_begin181:
	.cv_func_id 194
	.cv_loc	194 29 155 0
.seh_proc _ZN91_$LT$core..slice..iter..Iter$LT$T$GT$$u20$as$u20$core..iter..traits..iterator..Iterator$GT$9size_hint17h93623aca974a087bE
	subq	$200, %rsp
	.seh_stackalloc 200
	.seh_endprologue
	movq	%rdx, 72(%rsp)
	movq	%rcx, 80(%rsp)
	movq	%rcx, 88(%rsp)
	movq	%rdx, 136(%rsp)
.Ltmp564:
	.cv_loc	194 29 156 0
	movq	(%rdx), %rcx
	movq	%rcx, 96(%rsp)
	movq	%rcx, 144(%rsp)
.Ltmp565:
	.cv_loc	194 29 156 0
	callq	_ZN4core3ptr8non_null16NonNull$LT$T$GT$6as_ptr17hea958808717d1507E
	movq	%rax, 104(%rsp)
	movq	104(%rsp), %rax
	movq	%rax, 176(%rsp)
	movq	$1, 152(%rsp)
.Ltmp566:
	.cv_loc	194 29 156 0
	movl	$1, %eax
	cmpq	$0, %rax
	jne	.LBB181_4
	movq	96(%rsp), %rcx
	movq	72(%rsp), %rax
	movq	8(%rax), %rax
	movq	%rax, 56(%rsp)
	callq	_ZN4core3ptr8non_null16NonNull$LT$T$GT$6as_ptr17hea958808717d1507E
	movq	%rax, 64(%rsp)
	jmp	.LBB181_9
.LBB181_4:
	movq	96(%rsp), %rcx
	movq	72(%rsp), %rax
	movq	8(%rax), %rax
	movq	%rax, 40(%rsp)
	callq	_ZN4core3ptr8non_null16NonNull$LT$T$GT$6as_ptr17hea958808717d1507E
	movq	%rax, 48(%rsp)
	movq	48(%rsp), %rcx
	movq	40(%rsp), %rax
	subq	%rcx, %rax
	movq	%rax, 160(%rsp)
	movq	160(%rsp), %rax
	movq	%rax, 32(%rsp)
	movq	%rax, 168(%rsp)
	.cv_loc	194 29 156 0
	movq	32(%rsp), %rax
.Ltmp567:
	shrq	$0, %rax
	movq	%rax, 112(%rsp)
.Ltmp568:
	.cv_loc	194 29 156 0
	jmp	.LBB181_8
.Ltmp569:
.LBB181_8:
	.cv_loc	194 29 157 0
	movq	88(%rsp), %rax
	movq	80(%rsp), %rcx
.Ltmp570:
	movq	112(%rsp), %rdx
	movq	112(%rsp), %r8
	movq	%r8, 128(%rsp)
	movq	$1, 120(%rsp)
	movq	%rdx, (%rcx)
	movq	120(%rsp), %r8
	movq	128(%rsp), %rdx
	movq	%r8, 8(%rcx)
	movq	%rdx, 16(%rcx)
.Ltmp571:
	.cv_loc	194 29 158 0
	addq	$200, %rsp
	retq
.LBB181_9:
	.cv_file	30 "/rustc/7737e0b5c4103216d6fd8cf941b7ab9bdbaace7c\\library\\core\\src\\num\\uint_macros.rs" "B298527EC39C71E25CAD5E5EA0CCBB0E12754E99" 2
	.cv_inline_site_id 195 within 194 inlined_at 29 156 0
	.cv_loc	195 30 1226 0
	movq	64(%rsp), %rcx
	movq	56(%rsp), %rax
	movq	%rax, 184(%rsp)
	movq	%rcx, 192(%rsp)
.Ltmp572:
	subq	%rcx, %rax
.Ltmp573:
	.cv_loc	194 29 156 0
	movq	%rax, 112(%rsp)
	jmp	.LBB181_8
.Ltmp574:
.Lfunc_end181:
	.seh_endproc

	.def	_ZN91_$LT$core..slice..iter..Iter$LT$T$GT$$u20$as$u20$core..iter..traits..iterator..Iterator$GT$8position17h379a205d5dedc80fE;
	.scl	2;
	.type	32;
	.endef
	.section	.text,"xr",one_only,_ZN91_$LT$core..slice..iter..Iter$LT$T$GT$$u20$as$u20$core..iter..traits..iterator..Iterator$GT$8position17h379a205d5dedc80fE
	.globl	_ZN91_$LT$core..slice..iter..Iter$LT$T$GT$$u20$as$u20$core..iter..traits..iterator..Iterator$GT$8position17h379a205d5dedc80fE
	.p2align	4, 0x90
_ZN91_$LT$core..slice..iter..Iter$LT$T$GT$$u20$as$u20$core..iter..traits..iterator..Iterator$GT$8position17h379a205d5dedc80fE:
.Lfunc_begin182:
	.cv_func_id 196
	.cv_loc	196 29 288 0
.seh_proc _ZN91_$LT$core..slice..iter..Iter$LT$T$GT$$u20$as$u20$core..iter..traits..iterator..Iterator$GT$8position17h379a205d5dedc80fE
	.seh_handler __CxxFrameHandler3, @unwind, @except
	pushq	%rbp
	.seh_pushreg %rbp
	subq	$240, %rsp
	.seh_stackalloc 240
	leaq	128(%rsp), %rbp
	.seh_setframe %rbp, 128
	.seh_endprologue
	movq	$-2, 104(%rbp)
	movq	%rcx, -48(%rbp)
	movq	%rdx, -24(%rbp)
	movq	%rcx, 32(%rbp)
.Ltmp585:
	.cv_loc	196 29 292 0
	movq	(%rcx), %rcx
	movq	%rcx, -40(%rbp)
	movq	%rcx, 40(%rbp)
	.cv_loc	196 29 292 0
.Ltmp575:
.Ltmp586:
	callq	_ZN4core3ptr8non_null16NonNull$LT$T$GT$6as_ptr17h8bbd3d45a3f23a6fE
.Ltmp576:
	movq	%rax, -32(%rbp)
	jmp	.LBB182_1
.LBB182_1:
	movq	-40(%rbp), %rcx
	movq	-48(%rbp), %rax
	movq	-32(%rbp), %rdx
	movq	%rdx, 80(%rbp)
	movq	$16, 48(%rbp)
.Ltmp587:
	.cv_loc	196 29 292 0
	movq	8(%rax), %rax
	movq	%rax, -64(%rbp)
.Ltmp577:
	callq	_ZN4core3ptr8non_null16NonNull$LT$T$GT$6as_ptr17h8bbd3d45a3f23a6fE
.Ltmp578:
	movq	%rax, -56(%rbp)
	jmp	.LBB182_3
.LBB182_3:
	movq	-56(%rbp), %rcx
	movq	-64(%rbp), %rax
	subq	%rcx, %rax
	movq	%rax, 56(%rbp)
	movq	56(%rbp), %rax
	movq	%rax, 64(%rbp)
.Ltmp588:
	.cv_loc	196 29 292 0
	shrq	$4, %rax
	movq	%rax, (%rbp)
.Ltmp589:
	.cv_loc	196 29 293 0
	movq	$0, 8(%rbp)
.LBB182_5:
	.cv_loc	196 29 294 0
.Ltmp579:
	movq	-48(%rbp), %rcx
.Ltmp590:
	callq	_ZN91_$LT$core..slice..iter..Iter$LT$T$GT$$u20$as$u20$core..iter..traits..iterator..Iterator$GT$4next17hcf764be0ef30aafbE
.Ltmp580:
	movq	%rax, -72(%rbp)
	jmp	.LBB182_6
.LBB182_6:
	movq	-72(%rbp), %rax
	movq	%rax, 16(%rbp)
	movl	$1, %eax
	xorl	%ecx, %ecx
	cmpq	$0, 16(%rbp)
	cmoveq	%rcx, %rax
	cmpq	$1, %rax
	jne	.LBB182_8
	movq	16(%rbp), %rax
	movq	%rax, 72(%rbp)
	.cv_loc	196 29 295 0
	movq	%rax, 24(%rbp)
	movq	24(%rbp), %rdx
.Ltmp581:
	leaq	-24(%rbp), %rcx
	callq	_ZN63_$LT$log..LevelFilter$u20$as$u20$core..str..traits..FromStr$GT$8from_str28_$u7b$$u7b$closure$u7d$$u7d$17hc5ee5a063dbc20acE
.Ltmp582:
	movb	%al, -73(%rbp)
	jmp	.LBB182_10
.LBB182_8:
	.cv_loc	196 29 303 0
	movq	$0, -16(%rbp)
.Ltmp591:
.LBB182_9:
	.cv_loc	196 29 304 0
	movq	-16(%rbp), %rax
	movq	-8(%rbp), %rdx
	addq	$240, %rsp
	popq	%rbp
	retq
.LBB182_10:
	.cv_loc	196 29 295 0
	movb	-73(%rbp), %al
.Ltmp592:
	testb	$1, %al
	jne	.LBB182_12
	jmp	.LBB182_11
.LBB182_11:
	.cv_loc	196 29 301 0
	movq	8(%rbp), %rax
	addq	$1, %rax
	movq	%rax, -88(%rbp)
	setb	%al
	testb	$1, %al
	jne	.LBB182_14
	jmp	.LBB182_13
.LBB182_12:
	.cv_loc	196 29 298 0
	movq	8(%rbp), %rax
	.cv_loc	196 29 299 0
	movq	8(%rbp), %rax
	movq	%rax, -8(%rbp)
	movq	$1, -16(%rbp)
.Ltmp593:
	.cv_loc	196 29 304 0
	jmp	.LBB182_9
.LBB182_13:
	.cv_loc	196 29 301 0
	movq	-88(%rbp), %rax
.Ltmp594:
	movq	%rax, 8(%rbp)
	.cv_loc	196 29 294 0
	jmp	.LBB182_5
.LBB182_14:
	.cv_loc	196 29 301 0
.Ltmp583:
	leaq	str.0(%rip), %rcx
	leaq	__unnamed_65(%rip), %r8
	movl	$28, %edx
	callq	_ZN4core9panicking5panic17he5e92b81a70761b4E
.Ltmp584:
	jmp	.LBB182_15
.Ltmp595:
.LBB182_15:
	ud2
	.seh_handlerdata
	.long	($cppxdata$_ZN91_$LT$core..slice..iter..Iter$LT$T$GT$$u20$as$u20$core..iter..traits..iterator..Iterator$GT$8position17h379a205d5dedc80fE)@IMGREL
	.section	.text,"xr",one_only,_ZN91_$LT$core..slice..iter..Iter$LT$T$GT$$u20$as$u20$core..iter..traits..iterator..Iterator$GT$8position17h379a205d5dedc80fE
	.seh_endproc
	.def	"?dtor$2@?0?_ZN91_$LT$core..slice..iter..Iter$LT$T$GT$$u20$as$u20$core..iter..traits..iterator..Iterator$GT$8position17h379a205d5dedc80fE@4HA";
	.scl	3;
	.type	32;
	.endef
	.p2align	4, 0x90
"?dtor$2@?0?_ZN91_$LT$core..slice..iter..Iter$LT$T$GT$$u20$as$u20$core..iter..traits..iterator..Iterator$GT$8position17h379a205d5dedc80fE@4HA":
.seh_proc "?dtor$2@?0?_ZN91_$LT$core..slice..iter..Iter$LT$T$GT$$u20$as$u20$core..iter..traits..iterator..Iterator$GT$8position17h379a205d5dedc80fE@4HA"
.LBB182_2:
	movq	%rdx, 16(%rsp)
	pushq	%rbp
	.seh_pushreg %rbp
	subq	$32, %rsp
	.seh_stackalloc 32
	leaq	128(%rdx), %rbp
	.seh_endprologue
	.cv_loc	196 29 288 0
	addq	$32, %rsp
	popq	%rbp
	retq
.Ltmp596:
.Lfunc_end182:
	.seh_handlerdata
	.section	.text,"xr",one_only,_ZN91_$LT$core..slice..iter..Iter$LT$T$GT$$u20$as$u20$core..iter..traits..iterator..Iterator$GT$8position17h379a205d5dedc80fE
	.seh_endproc
	.section	.xdata,"dr",associative,_ZN91_$LT$core..slice..iter..Iter$LT$T$GT$$u20$as$u20$core..iter..traits..iterator..Iterator$GT$8position17h379a205d5dedc80fE
	.p2align	2
$cppxdata$_ZN91_$LT$core..slice..iter..Iter$LT$T$GT$$u20$as$u20$core..iter..traits..iterator..Iterator$GT$8position17h379a205d5dedc80fE:
	.long	429065506
	.long	1
	.long	($stateUnwindMap$_ZN91_$LT$core..slice..iter..Iter$LT$T$GT$$u20$as$u20$core..iter..traits..iterator..Iterator$GT$8position17h379a205d5dedc80fE)@IMGREL
	.long	0
	.long	0
	.long	3
	.long	($ip2state$_ZN91_$LT$core..slice..iter..Iter$LT$T$GT$$u20$as$u20$core..iter..traits..iterator..Iterator$GT$8position17h379a205d5dedc80fE)@IMGREL
	.long	232
	.long	0
	.long	1
$stateUnwindMap$_ZN91_$LT$core..slice..iter..Iter$LT$T$GT$$u20$as$u20$core..iter..traits..iterator..Iterator$GT$8position17h379a205d5dedc80fE:
	.long	-1
	.long	"?dtor$2@?0?_ZN91_$LT$core..slice..iter..Iter$LT$T$GT$$u20$as$u20$core..iter..traits..iterator..Iterator$GT$8position17h379a205d5dedc80fE@4HA"@IMGREL
$ip2state$_ZN91_$LT$core..slice..iter..Iter$LT$T$GT$$u20$as$u20$core..iter..traits..iterator..Iterator$GT$8position17h379a205d5dedc80fE:
	.long	.Lfunc_begin182@IMGREL
	.long	-1
	.long	.Ltmp575@IMGREL+1
	.long	0
	.long	.Ltmp584@IMGREL+1
	.long	-1
	.section	.text,"xr",one_only,_ZN91_$LT$core..slice..iter..Iter$LT$T$GT$$u20$as$u20$core..iter..traits..iterator..Iterator$GT$8position17h379a205d5dedc80fE

	.def	_ZN91_$LT$core..slice..iter..Iter$LT$T$GT$$u20$as$u20$core..iter..traits..iterator..Iterator$GT$8position17hac5b640795d1969cE;
	.scl	2;
	.type	32;
	.endef
	.section	.text,"xr",one_only,_ZN91_$LT$core..slice..iter..Iter$LT$T$GT$$u20$as$u20$core..iter..traits..iterator..Iterator$GT$8position17hac5b640795d1969cE
	.globl	_ZN91_$LT$core..slice..iter..Iter$LT$T$GT$$u20$as$u20$core..iter..traits..iterator..Iterator$GT$8position17hac5b640795d1969cE
	.p2align	4, 0x90
_ZN91_$LT$core..slice..iter..Iter$LT$T$GT$$u20$as$u20$core..iter..traits..iterator..Iterator$GT$8position17hac5b640795d1969cE:
.Lfunc_begin183:
	.cv_func_id 197
	.cv_loc	197 29 288 0
.seh_proc _ZN91_$LT$core..slice..iter..Iter$LT$T$GT$$u20$as$u20$core..iter..traits..iterator..Iterator$GT$8position17hac5b640795d1969cE
