	.text
	.def	@feat.00;
	.scl	3;
	.type	0;
	.endef
	.globl	@feat.00
.set @feat.00, 0
	.file	"proc_macro2.c47a7385db715bb4-cgu.0"
	.def	_ZN103_$LT$alloc..vec..into_iter..IntoIter$LT$T$C$A$GT$$u20$as$u20$core..iter..traits..iterator..Iterator$GT$4next17hb69174d03a7032f3E;
	.scl	2;
	.type	32;
	.endef
	.section	.text,"xr",one_only,_ZN103_$LT$alloc..vec..into_iter..IntoIter$LT$T$C$A$GT$$u20$as$u20$core..iter..traits..iterator..Iterator$GT$4next17hb69174d03a7032f3E
	.globl	_ZN103_$LT$alloc..vec..into_iter..IntoIter$LT$T$C$A$GT$$u20$as$u20$core..iter..traits..iterator..Iterator$GT$4next17hb69174d03a7032f3E
	.p2align	4, 0x90
_ZN103_$LT$alloc..vec..into_iter..IntoIter$LT$T$C$A$GT$$u20$as$u20$core..iter..traits..iterator..Iterator$GT$4next17hb69174d03a7032f3E:
.seh_proc _ZN103_$LT$alloc..vec..into_iter..IntoIter$LT$T$C$A$GT$$u20$as$u20$core..iter..traits..iterator..Iterator$GT$4next17hb69174d03a7032f3E
	subq	$248, %rsp
	.seh_stackalloc 248
	.seh_endprologue
	movq	%rdx, 40(%rsp)
	movq	%rcx, 48(%rsp)
	movq	%rcx, 56(%rsp)
	movq	16(%rdx), %rax
	cmpq	24(%rdx), %rax
	je	.LBB0_2
	xorl	%eax, %eax
	testb	$1, %al
	jne	.LBB0_4
	jmp	.LBB0_3
.LBB0_2:
	movq	48(%rsp), %rax
	movabsq	$-9223372036854775803, %rcx
	movq	%rcx, (%rax)
	jmp	.LBB0_6
.LBB0_3:
	movq	48(%rsp), %rax
	movq	40(%rsp), %rdx
	movq	16(%rdx), %rcx
	movq	16(%rdx), %r8
	addq	$32, %r8
	movq	%r8, 16(%rdx)
	movq	(%rcx), %rdx
	movq	%rdx, 96(%rsp)
	movq	8(%rcx), %rdx
	movq	%rdx, 104(%rsp)
	movq	16(%rcx), %rdx
	movq	%rdx, 112(%rsp)
	movq	24(%rcx), %rcx
	movq	%rcx, 120(%rsp)
	movq	96(%rsp), %rcx
	movq	%rcx, (%rax)
	movq	104(%rsp), %rcx
	movq	%rcx, 8(%rax)
	movq	112(%rsp), %rcx
	movq	%rcx, 16(%rax)
	movq	120(%rsp), %rcx
	movq	%rcx, 24(%rax)
	jmp	.LBB0_5
.LBB0_4:
	movq	40(%rsp), %rax
	movq	24(%rax), %rcx
	addq	$-1, %rcx
	movq	%rcx, 240(%rsp)
	movq	240(%rsp), %rcx
	movq	%rcx, 136(%rsp)
	movq	136(%rsp), %rcx
	movq	%rcx, 128(%rsp)
	movq	128(%rsp), %rcx
	movq	%rcx, 24(%rax)
	leaq	176(%rsp), %rcx
	xorl	%edx, %edx
	movl	$32, %r8d
	callq	memset
	movq	48(%rsp), %rax
	movq	176(%rsp), %rcx
	movq	%rcx, 144(%rsp)
	movq	184(%rsp), %rcx
	movq	%rcx, 152(%rsp)
	movq	192(%rsp), %rcx
	movq	%rcx, 160(%rsp)
	movq	200(%rsp), %rcx
	movq	%rcx, 168(%rsp)
	movq	144(%rsp), %rcx
	movq	%rcx, 208(%rsp)
	movq	152(%rsp), %rcx
	movq	%rcx, 216(%rsp)
	movq	160(%rsp), %rcx
	movq	%rcx, 224(%rsp)
	movq	168(%rsp), %rcx
	movq	%rcx, 232(%rsp)
	movq	208(%rsp), %rcx
	movq	%rcx, 64(%rsp)
	movq	216(%rsp), %rcx
	movq	%rcx, 72(%rsp)
	movq	224(%rsp), %rcx
	movq	%rcx, 80(%rsp)
	movq	232(%rsp), %rcx
	movq	%rcx, 88(%rsp)
	movq	64(%rsp), %rcx
	movq	%rcx, (%rax)
	movq	72(%rsp), %rcx
	movq	%rcx, 8(%rax)
	movq	80(%rsp), %rcx
	movq	%rcx, 16(%rax)
	movq	88(%rsp), %rcx
	movq	%rcx, 24(%rax)
.LBB0_5:
	jmp	.LBB0_6
.LBB0_6:
	movq	56(%rsp), %rax
	addq	$248, %rsp
	retq
	.seh_endproc

	.def	_ZN103_$LT$alloc..vec..into_iter..IntoIter$LT$T$C$A$GT$$u20$as$u20$core..iter..traits..iterator..Iterator$GT$9size_hint17h1308774690d2256fE;
	.scl	2;
	.type	32;
	.endef
	.section	.text,"xr",one_only,_ZN103_$LT$alloc..vec..into_iter..IntoIter$LT$T$C$A$GT$$u20$as$u20$core..iter..traits..iterator..Iterator$GT$9size_hint17h1308774690d2256fE
	.globl	_ZN103_$LT$alloc..vec..into_iter..IntoIter$LT$T$C$A$GT$$u20$as$u20$core..iter..traits..iterator..Iterator$GT$9size_hint17h1308774690d2256fE
	.p2align	4, 0x90
_ZN103_$LT$alloc..vec..into_iter..IntoIter$LT$T$C$A$GT$$u20$as$u20$core..iter..traits..iterator..Iterator$GT$9size_hint17h1308774690d2256fE:
.seh_proc _ZN103_$LT$alloc..vec..into_iter..IntoIter$LT$T$C$A$GT$$u20$as$u20$core..iter..traits..iterator..Iterator$GT$9size_hint17h1308774690d2256fE
	subq	$104, %rsp
	.seh_stackalloc 104
	.seh_endprologue
	movq	%rdx, 56(%rsp)
	movq	%rcx, 64(%rsp)
	movq	%rcx, 72(%rsp)
	xorl	%eax, %eax
	testb	$1, %al
	jne	.LBB1_2
	movq	56(%rsp), %rax
	movq	24(%rax), %rcx
	movq	%rcx, 40(%rsp)
	movq	16(%rax), %rax
	movq	%rax, 48(%rsp)
	movb	$1, %al
	testb	$1, %al
	jne	.LBB1_4
	jmp	.LBB1_3
.LBB1_2:
	movq	56(%rsp), %rcx
	movq	24(%rcx), %rax
	movq	16(%rcx), %rcx
	subq	%rcx, %rax
	movq	%rax, 80(%rsp)
	jmp	.LBB1_6
.LBB1_3:
	leaq	__unnamed_1(%rip), %rcx
	leaq	__unnamed_2(%rip), %r8
	movl	$73, %edx
	callq	_ZN4core9panicking5panic17hb11f2d409f96600eE
.LBB1_4:
	movb	$1, %al
	testb	$1, %al
	jne	.LBB1_5
	jmp	.LBB1_3
.LBB1_5:
	movq	48(%rsp), %rcx
	movq	40(%rsp), %rax
	subq	%rcx, %rax
	movl	$20, %ecx
	xorl	%edx, %edx
	divq	%rcx
	movq	%rax, 80(%rsp)
.LBB1_6:
	movq	72(%rsp), %rax
	movq	64(%rsp), %rcx
	movq	80(%rsp), %rdx
	movq	80(%rsp), %r8
	movq	%r8, 96(%rsp)
	movq	$1, 88(%rsp)
	movq	%rdx, (%rcx)
	movq	88(%rsp), %r8
	movq	96(%rsp), %rdx
	movq	%r8, 8(%rcx)
	movq	%rdx, 16(%rcx)
	addq	$104, %rsp
	retq
	.seh_endproc

	.def	_ZN103_$LT$alloc..vec..into_iter..IntoIter$LT$T$C$A$GT$$u20$as$u20$core..iter..traits..iterator..Iterator$GT$9size_hint17he0d8522af6f41d1aE;
	.scl	2;
	.type	32;
	.endef
	.section	.text,"xr",one_only,_ZN103_$LT$alloc..vec..into_iter..IntoIter$LT$T$C$A$GT$$u20$as$u20$core..iter..traits..iterator..Iterator$GT$9size_hint17he0d8522af6f41d1aE
	.globl	_ZN103_$LT$alloc..vec..into_iter..IntoIter$LT$T$C$A$GT$$u20$as$u20$core..iter..traits..iterator..Iterator$GT$9size_hint17he0d8522af6f41d1aE
	.p2align	4, 0x90
_ZN103_$LT$alloc..vec..into_iter..IntoIter$LT$T$C$A$GT$$u20$as$u20$core..iter..traits..iterator..Iterator$GT$9size_hint17he0d8522af6f41d1aE:
.seh_proc _ZN103_$LT$alloc..vec..into_iter..IntoIter$LT$T$C$A$GT$$u20$as$u20$core..iter..traits..iterator..Iterator$GT$9size_hint17he0d8522af6f41d1aE
	subq	$104, %rsp
	.seh_stackalloc 104
	.seh_endprologue
	movq	%rdx, 56(%rsp)
	movq	%rcx, 64(%rsp)
	movq	%rcx, 72(%rsp)
	xorl	%eax, %eax
	testb	$1, %al
	jne	.LBB2_2
	movq	56(%rsp), %rax
	movq	24(%rax), %rcx
	movq	%rcx, 40(%rsp)
	movq	16(%rax), %rax
	movq	%rax, 48(%rsp)
	movb	$1, %al
	testb	$1, %al
	jne	.LBB2_4
	jmp	.LBB2_3
.LBB2_2:
	movq	56(%rsp), %rcx
	movq	24(%rcx), %rax
	movq	16(%rcx), %rcx
	subq	%rcx, %rax
	movq	%rax, 80(%rsp)
	jmp	.LBB2_6
.LBB2_3:
	leaq	__unnamed_1(%rip), %rcx
	leaq	__unnamed_2(%rip), %r8
	movl	$73, %edx
	callq	_ZN4core9panicking5panic17hb11f2d409f96600eE
.LBB2_4:
	movb	$1, %al
	testb	$1, %al
	jne	.LBB2_5
	jmp	.LBB2_3
.LBB2_5:
	movq	48(%rsp), %rcx
	movq	40(%rsp), %rax
	subq	%rcx, %rax
	shrq	$5, %rax
	movq	%rax, 80(%rsp)
.LBB2_6:
	movq	72(%rsp), %rax
	movq	64(%rsp), %rcx
	movq	80(%rsp), %rdx
	movq	80(%rsp), %r8
	movq	%r8, 96(%rsp)
	movq	$1, 88(%rsp)
	movq	%rdx, (%rcx)
	movq	88(%rsp), %r8
	movq	96(%rsp), %rdx
	movq	%r8, 8(%rcx)
	movq	%rdx, 16(%rcx)
	addq	$104, %rsp
	retq
	.seh_endproc

	.def	_ZN103_$LT$proc_macro..bridge..TokenTree$LT$TokenStream$C$Span$C$Symbol$GT$$u20$as$u20$core..clone..Clone$GT$5clone17ha4b986c4ae8a0e99E;
	.scl	2;
	.type	32;
	.endef
	.section	.text,"xr",one_only,_ZN103_$LT$proc_macro..bridge..TokenTree$LT$TokenStream$C$Span$C$Symbol$GT$$u20$as$u20$core..clone..Clone$GT$5clone17ha4b986c4ae8a0e99E
	.globl	_ZN103_$LT$proc_macro..bridge..TokenTree$LT$TokenStream$C$Span$C$Symbol$GT$$u20$as$u20$core..clone..Clone$GT$5clone17ha4b986c4ae8a0e99E
	.p2align	4, 0x90
_ZN103_$LT$proc_macro..bridge..TokenTree$LT$TokenStream$C$Span$C$Symbol$GT$$u20$as$u20$core..clone..Clone$GT$5clone17ha4b986c4ae8a0e99E:
.seh_proc _ZN103_$LT$proc_macro..bridge..TokenTree$LT$TokenStream$C$Span$C$Symbol$GT$$u20$as$u20$core..clone..Clone$GT$5clone17ha4b986c4ae8a0e99E
	subq	$136, %rsp
	.seh_stackalloc 136
	.seh_endprologue
	movq	%rdx, 48(%rsp)
	movq	%rcx, 56(%rsp)
	movq	%rcx, 64(%rsp)
	movb	16(%rdx), %dl
	addb	$-4, %dl
	movzbl	%dl, %eax
	movl	%eax, %ecx
	incq	%rcx
	xorl	%eax, %eax
	subb	$3, %dl
	cmovbq	%rcx, %rax
	movq	%rax, 72(%rsp)
	movq	72(%rsp), %rax
	leaq	.LJTI3_0(%rip), %rcx
	movslq	(%rcx,%rax,4), %rax
	addq	%rcx, %rax
	jmpq	*%rax
	ud2
.LBB3_2:
	movq	48(%rsp), %rdx
	leaq	80(%rsp), %rcx
	callq	_ZN90_$LT$proc_macro..bridge..Group$LT$TokenStream$C$Span$GT$$u20$as$u20$core..clone..Clone$GT$5clone17h2b426f09f5c21bbdE
	movq	56(%rsp), %rax
	movq	80(%rsp), %rcx
	movq	%rcx, (%rax)
	movq	88(%rsp), %rcx
	movq	%rcx, 8(%rax)
	movl	96(%rsp), %ecx
	movl	%ecx, 16(%rax)
	jmp	.LBB3_6
.LBB3_3:
	movq	48(%rsp), %rcx
	movb	4(%rcx), %al
	movb	%al, 46(%rsp)
	movb	5(%rcx), %al
	movb	%al, 47(%rsp)
	callq	_ZN71_$LT$proc_macro..bridge..client..Span$u20$as$u20$core..clone..Clone$GT$5clone17ha0769697f48c5332E
	movb	46(%rsp), %r8b
	movb	47(%rsp), %dl
	movl	%eax, %ecx
	movq	56(%rsp), %rax
	movb	%r8b, 104(%rsp)
	andb	$1, %dl
	movb	%dl, 105(%rsp)
	movl	%ecx, 100(%rsp)
	movq	100(%rsp), %rcx
	movq	%rcx, (%rax)
	movb	$4, 16(%rax)
	jmp	.LBB3_6
.LBB3_4:
	movq	48(%rsp), %rdx
	leaq	108(%rsp), %rcx
	callq	_ZN85_$LT$proc_macro..bridge..Ident$LT$Span$C$Symbol$GT$$u20$as$u20$core..clone..Clone$GT$5clone17hb3027e4f4193fccdE
	movq	56(%rsp), %rax
	movq	108(%rsp), %rcx
	movq	%rcx, (%rax)
	movl	116(%rsp), %ecx
	movl	%ecx, 8(%rax)
	movb	$5, 16(%rax)
	jmp	.LBB3_6
.LBB3_5:
	movq	48(%rsp), %rdx
	leaq	120(%rsp), %rcx
	callq	_ZN87_$LT$proc_macro..bridge..Literal$LT$Span$C$Symbol$GT$$u20$as$u20$core..clone..Clone$GT$5clone17hf1be7c4b3c10702fE
	movq	56(%rsp), %rax
	movq	120(%rsp), %rcx
	movq	%rcx, (%rax)
	movq	128(%rsp), %rcx
	movq	%rcx, 8(%rax)
	movb	$6, 16(%rax)
.LBB3_6:
	movq	64(%rsp), %rax
	addq	$136, %rsp
	retq
	.section	.rdata,"dr",associative,_ZN103_$LT$proc_macro..bridge..TokenTree$LT$TokenStream$C$Span$C$Symbol$GT$$u20$as$u20$core..clone..Clone$GT$5clone17ha4b986c4ae8a0e99E
	.p2align	2, 0x0
.LJTI3_0:
	.long	.LBB3_2-.LJTI3_0
	.long	.LBB3_3-.LJTI3_0
	.long	.LBB3_4-.LJTI3_0
	.long	.LBB3_5-.LJTI3_0
	.section	.text,"xr",one_only,_ZN103_$LT$proc_macro..bridge..TokenTree$LT$TokenStream$C$Span$C$Symbol$GT$$u20$as$u20$core..clone..Clone$GT$5clone17ha4b986c4ae8a0e99E
	.seh_endproc

	.def	_ZN104_$LT$core..iter..adapters..copied..Copied$LT$I$GT$$u20$as$u20$core..iter..traits..iterator..Iterator$GT$4next17he3dc154c03d6b236E;
	.scl	2;
	.type	32;
	.endef
	.section	.text,"xr",one_only,_ZN104_$LT$core..iter..adapters..copied..Copied$LT$I$GT$$u20$as$u20$core..iter..traits..iterator..Iterator$GT$4next17he3dc154c03d6b236E
	.globl	_ZN104_$LT$core..iter..adapters..copied..Copied$LT$I$GT$$u20$as$u20$core..iter..traits..iterator..Iterator$GT$4next17he3dc154c03d6b236E
	.p2align	4, 0x90
_ZN104_$LT$core..iter..adapters..copied..Copied$LT$I$GT$$u20$as$u20$core..iter..traits..iterator..Iterator$GT$4next17he3dc154c03d6b236E:
.seh_proc _ZN104_$LT$core..iter..adapters..copied..Copied$LT$I$GT$$u20$as$u20$core..iter..traits..iterator..Iterator$GT$4next17he3dc154c03d6b236E
	subq	$56, %rsp
	.seh_stackalloc 56
	.seh_endprologue
	callq	_ZN91_$LT$core..slice..iter..Iter$LT$T$GT$$u20$as$u20$core..iter..traits..iterator..Iterator$GT$4next17h6859a742d370aa39E
	movq	%rax, 48(%rsp)
	movq	48(%rsp), %rdx
	movl	$1, %eax
	xorl	%ecx, %ecx
	cmpq	$0, %rdx
	cmoveq	%rcx, %rax
	cmpq	$0, %rax
	jne	.LBB4_2
	movb	$0, 46(%rsp)
	jmp	.LBB4_3
.LBB4_2:
	movq	48(%rsp), %rax
	movb	(%rax), %al
	movb	%al, 47(%rsp)
	movb	$1, 46(%rsp)
.LBB4_3:
	movb	46(%rsp), %al
	movb	47(%rsp), %dl
	addq	$56, %rsp
	retq
	.seh_endproc

	.def	_ZN104_$LT$core..iter..adapters..copied..Copied$LT$I$GT$$u20$as$u20$core..iter..traits..iterator..Iterator$GT$8try_fold17h637088ebb0ee3592E;
	.scl	2;
	.type	32;
	.endef
	.section	.text,"xr",one_only,_ZN104_$LT$core..iter..adapters..copied..Copied$LT$I$GT$$u20$as$u20$core..iter..traits..iterator..Iterator$GT$8try_fold17h637088ebb0ee3592E
	.globl	_ZN104_$LT$core..iter..adapters..copied..Copied$LT$I$GT$$u20$as$u20$core..iter..traits..iterator..Iterator$GT$8try_fold17h637088ebb0ee3592E
	.p2align	4, 0x90
_ZN104_$LT$core..iter..adapters..copied..Copied$LT$I$GT$$u20$as$u20$core..iter..traits..iterator..Iterator$GT$8try_fold17h637088ebb0ee3592E:
.Lfunc_begin0:
.seh_proc _ZN104_$LT$core..iter..adapters..copied..Copied$LT$I$GT$$u20$as$u20$core..iter..traits..iterator..Iterator$GT$8try_fold17h637088ebb0ee3592E
	.seh_handler __CxxFrameHandler3, @unwind, @except
	pushq	%rbp
	.seh_pushreg %rbp
	subq	$48, %rsp
	.seh_stackalloc 48
	leaq	48(%rsp), %rbp
	.seh_setframe %rbp, 48
	.seh_endprologue
	movq	$-2, -8(%rbp)
.Ltmp0:
	callq	_ZN4core4iter6traits8iterator8Iterator8try_fold17h65674e906b37b0a0E
.Ltmp1:
	movb	%al, -9(%rbp)
	jmp	.LBB5_2
.LBB5_2:
	movb	-9(%rbp), %al
	andb	$1, %al
	movzbl	%al, %eax
	addq	$48, %rsp
	popq	%rbp
	retq
	.seh_handlerdata
	.long	($cppxdata$_ZN104_$LT$core..iter..adapters..copied..Copied$LT$I$GT$$u20$as$u20$core..iter..traits..iterator..Iterator$GT$8try_fold17h637088ebb0ee3592E)@IMGREL
	.section	.text,"xr",one_only,_ZN104_$LT$core..iter..adapters..copied..Copied$LT$I$GT$$u20$as$u20$core..iter..traits..iterator..Iterator$GT$8try_fold17h637088ebb0ee3592E
	.seh_endproc
	.def	"?dtor$1@?0?_ZN104_$LT$core..iter..adapters..copied..Copied$LT$I$GT$$u20$as$u20$core..iter..traits..iterator..Iterator$GT$8try_fold17h637088ebb0ee3592E@4HA";
	.scl	3;
	.type	32;
	.endef
	.p2align	4, 0x90
"?dtor$1@?0?_ZN104_$LT$core..iter..adapters..copied..Copied$LT$I$GT$$u20$as$u20$core..iter..traits..iterator..Iterator$GT$8try_fold17h637088ebb0ee3592E@4HA":
.seh_proc "?dtor$1@?0?_ZN104_$LT$core..iter..adapters..copied..Copied$LT$I$GT$$u20$as$u20$core..iter..traits..iterator..Iterator$GT$8try_fold17h637088ebb0ee3592E@4HA"
.LBB5_1:
	movq	%rdx, 16(%rsp)
	pushq	%rbp
	.seh_pushreg %rbp
	subq	$32, %rsp
	.seh_stackalloc 32
	leaq	48(%rdx), %rbp
	.seh_endprologue
	addq	$32, %rsp
	popq	%rbp
	retq
.Lfunc_end0:
	.seh_handlerdata
	.section	.text,"xr",one_only,_ZN104_$LT$core..iter..adapters..copied..Copied$LT$I$GT$$u20$as$u20$core..iter..traits..iterator..Iterator$GT$8try_fold17h637088ebb0ee3592E
	.seh_endproc
	.section	.xdata,"dr",associative,_ZN104_$LT$core..iter..adapters..copied..Copied$LT$I$GT$$u20$as$u20$core..iter..traits..iterator..Iterator$GT$8try_fold17h637088ebb0ee3592E
	.p2align	2, 0x0
$cppxdata$_ZN104_$LT$core..iter..adapters..copied..Copied$LT$I$GT$$u20$as$u20$core..iter..traits..iterator..Iterator$GT$8try_fold17h637088ebb0ee3592E:
	.long	429065506
	.long	1
	.long	($stateUnwindMap$_ZN104_$LT$core..iter..adapters..copied..Copied$LT$I$GT$$u20$as$u20$core..iter..traits..iterator..Iterator$GT$8try_fold17h637088ebb0ee3592E)@IMGREL
	.long	0
	.long	0
	.long	3
	.long	($ip2state$_ZN104_$LT$core..iter..adapters..copied..Copied$LT$I$GT$$u20$as$u20$core..iter..traits..iterator..Iterator$GT$8try_fold17h637088ebb0ee3592E)@IMGREL
	.long	40
	.long	0
	.long	1
$stateUnwindMap$_ZN104_$LT$core..iter..adapters..copied..Copied$LT$I$GT$$u20$as$u20$core..iter..traits..iterator..Iterator$GT$8try_fold17h637088ebb0ee3592E:
	.long	-1
	.long	"?dtor$1@?0?_ZN104_$LT$core..iter..adapters..copied..Copied$LT$I$GT$$u20$as$u20$core..iter..traits..iterator..Iterator$GT$8try_fold17h637088ebb0ee3592E@4HA"@IMGREL
$ip2state$_ZN104_$LT$core..iter..adapters..copied..Copied$LT$I$GT$$u20$as$u20$core..iter..traits..iterator..Iterator$GT$8try_fold17h637088ebb0ee3592E:
	.long	.Lfunc_begin0@IMGREL
	.long	-1
	.long	.Ltmp0@IMGREL+1
	.long	0
	.long	.Ltmp1@IMGREL+1
	.long	-1
	.section	.text,"xr",one_only,_ZN104_$LT$core..iter..adapters..copied..Copied$LT$I$GT$$u20$as$u20$core..iter..traits..iterator..Iterator$GT$8try_fold17h637088ebb0ee3592E

	.def	_ZN104_$LT$core..ops..control_flow..ControlFlow$LT$B$C$C$GT$$u20$as$u20$core..ops..try_trait..FromResidual$GT$13from_residual17h4badfc010f61d91eE;
	.scl	2;
	.type	32;
	.endef
	.section	.text,"xr",one_only,_ZN104_$LT$core..ops..control_flow..ControlFlow$LT$B$C$C$GT$$u20$as$u20$core..ops..try_trait..FromResidual$GT$13from_residual17h4badfc010f61d91eE
	.globl	_ZN104_$LT$core..ops..control_flow..ControlFlow$LT$B$C$C$GT$$u20$as$u20$core..ops..try_trait..FromResidual$GT$13from_residual17h4badfc010f61d91eE
	.p2align	4, 0x90
_ZN104_$LT$core..ops..control_flow..ControlFlow$LT$B$C$C$GT$$u20$as$u20$core..ops..try_trait..FromResidual$GT$13from_residual17h4badfc010f61d91eE:
.seh_proc _ZN104_$LT$core..ops..control_flow..ControlFlow$LT$B$C$C$GT$$u20$as$u20$core..ops..try_trait..FromResidual$GT$13from_residual17h4badfc010f61d91eE
	subq	$24, %rsp
	.seh_stackalloc 24
	.seh_endprologue
	movq	%rcx, (%rsp)
	movq	(%rsp), %rax
	movq	%rax, 16(%rsp)
	movq	$1, 8(%rsp)
	movq	8(%rsp), %rax
	movq	16(%rsp), %rdx
	addq	$24, %rsp
	retq
	.seh_endproc

	.def	_ZN104_$LT$core..ops..control_flow..ControlFlow$LT$B$C$C$GT$$u20$as$u20$core..ops..try_trait..FromResidual$GT$13from_residual17h9107ee3ac034adc9E;
	.scl	2;
	.type	32;
	.endef
	.section	.text,"xr",one_only,_ZN104_$LT$core..ops..control_flow..ControlFlow$LT$B$C$C$GT$$u20$as$u20$core..ops..try_trait..FromResidual$GT$13from_residual17h9107ee3ac034adc9E
	.globl	_ZN104_$LT$core..ops..control_flow..ControlFlow$LT$B$C$C$GT$$u20$as$u20$core..ops..try_trait..FromResidual$GT$13from_residual17h9107ee3ac034adc9E
	.p2align	4, 0x90
_ZN104_$LT$core..ops..control_flow..ControlFlow$LT$B$C$C$GT$$u20$as$u20$core..ops..try_trait..FromResidual$GT$13from_residual17h9107ee3ac034adc9E:
.seh_proc _ZN104_$LT$core..ops..control_flow..ControlFlow$LT$B$C$C$GT$$u20$as$u20$core..ops..try_trait..FromResidual$GT$13from_residual17h9107ee3ac034adc9E
	pushq	%rax
	.seh_stackalloc 8
	.seh_endprologue
	movb	$1, 7(%rsp)
	movb	7(%rsp), %al
	andb	$1, %al
	movzbl	%al, %eax
	popq	%rcx
	retq
	.seh_endproc

	.def	_ZN106_$LT$core..ops..range..Range$LT$usize$GT$$u20$as$u20$core..slice..index..SliceIndex$LT$$u5b$T$u5d$$GT$$GT$3get17h74a7ee6efb034c75E;
	.scl	2;
	.type	32;
	.endef
	.section	.text,"xr",one_only,_ZN106_$LT$core..ops..range..Range$LT$usize$GT$$u20$as$u20$core..slice..index..SliceIndex$LT$$u5b$T$u5d$$GT$$GT$3get17h74a7ee6efb034c75E
	.globl	_ZN106_$LT$core..ops..range..Range$LT$usize$GT$$u20$as$u20$core..slice..index..SliceIndex$LT$$u5b$T$u5d$$GT$$GT$3get17h74a7ee6efb034c75E
	.p2align	4, 0x90
_ZN106_$LT$core..ops..range..Range$LT$usize$GT$$u20$as$u20$core..slice..index..SliceIndex$LT$$u5b$T$u5d$$GT$$GT$3get17h74a7ee6efb034c75E:
.seh_proc _ZN106_$LT$core..ops..range..Range$LT$usize$GT$$u20$as$u20$core..slice..index..SliceIndex$LT$$u5b$T$u5d$$GT$$GT$3get17h74a7ee6efb034c75E
	subq	$80, %rsp
	.seh_stackalloc 80
	.seh_endprologue
	movq	%r9, (%rsp)
	movq	%r8, 8(%rsp)
	movq	%rdx, 16(%rsp)
	movq	%rcx, 24(%rsp)
	cmpq	%rdx, %rcx
	ja	.LBB8_2
	movq	16(%rsp), %rax
	movq	(%rsp), %rcx
	cmpq	%rcx, %rax
	ja	.LBB8_4
	jmp	.LBB8_3
.LBB8_2:
	jmp	.LBB8_4
.LBB8_3:
	movq	24(%rsp), %rdx
	movq	8(%rsp), %rcx
	movq	16(%rsp), %rax
	subq	%rdx, %rax
	addq	%rdx, %rcx
	movq	%rcx, 64(%rsp)
	movq	%rax, 72(%rsp)
	movq	64(%rsp), %rcx
	movq	72(%rsp), %rax
	movq	%rcx, 48(%rsp)
	movq	%rax, 56(%rsp)
	movq	48(%rsp), %rcx
	movq	56(%rsp), %rax
	movq	%rcx, 32(%rsp)
	movq	%rax, 40(%rsp)
	jmp	.LBB8_5
.LBB8_4:
	movq	$0, 32(%rsp)
.LBB8_5:
	movq	32(%rsp), %rax
	movq	40(%rsp), %rdx
	addq	$80, %rsp
	retq
	.seh_endproc

	.def	_ZN106_$LT$core..ops..range..Range$LT$usize$GT$$u20$as$u20$core..slice..index..SliceIndex$LT$$u5b$T$u5d$$GT$$GT$5index17hc569774c9b515c1aE;
	.scl	2;
	.type	32;
	.endef
	.section	.text,"xr",one_only,_ZN106_$LT$core..ops..range..Range$LT$usize$GT$$u20$as$u20$core..slice..index..SliceIndex$LT$$u5b$T$u5d$$GT$$GT$5index17hc569774c9b515c1aE
	.globl	_ZN106_$LT$core..ops..range..Range$LT$usize$GT$$u20$as$u20$core..slice..index..SliceIndex$LT$$u5b$T$u5d$$GT$$GT$5index17hc569774c9b515c1aE
	.p2align	4, 0x90
_ZN106_$LT$core..ops..range..Range$LT$usize$GT$$u20$as$u20$core..slice..index..SliceIndex$LT$$u5b$T$u5d$$GT$$GT$5index17hc569774c9b515c1aE:
.seh_proc _ZN106_$LT$core..ops..range..Range$LT$usize$GT$$u20$as$u20$core..slice..index..SliceIndex$LT$$u5b$T$u5d$$GT$$GT$5index17hc569774c9b515c1aE
	subq	$104, %rsp
	.seh_stackalloc 104
	.seh_endprologue
	movq	%r9, 32(%rsp)
	movq	%r8, 40(%rsp)
	movq	%rdx, 48(%rsp)
	movq	%rcx, 56(%rsp)
	movq	144(%rsp), %rax
	movq	%rax, 64(%rsp)
	cmpq	%rdx, %rcx
	ja	.LBB9_2
	movq	48(%rsp), %rax
	movq	32(%rsp), %rcx
	cmpq	%rcx, %rax
	ja	.LBB9_4
	jmp	.LBB9_3
.LBB9_2:
	movq	64(%rsp), %r8
	movq	48(%rsp), %rdx
	movq	56(%rsp), %rcx
	callq	_ZN4core5slice5index22slice_index_order_fail17h7ca406d2fb242740E
.LBB9_3:
	movq	56(%rsp), %rdx
	movq	40(%rsp), %rcx
	movq	48(%rsp), %rax
	subq	%rdx, %rax
	addq	%rdx, %rcx
	movq	%rcx, 88(%rsp)
	movq	%rax, 96(%rsp)
	movq	88(%rsp), %rcx
	movq	96(%rsp), %rax
	movq	%rcx, 72(%rsp)
	movq	%rax, 80(%rsp)
	movq	72(%rsp), %rax
	movq	80(%rsp), %rdx
	addq	$104, %rsp
	retq
.LBB9_4:
	movq	64(%rsp), %r8
	movq	32(%rsp), %rdx
	movq	48(%rsp), %rcx
	callq	_ZN4core5slice5index24slice_end_index_len_fail17h3bc272e480489ed9E
	int3
	.seh_endproc

	.def	_ZN106_$LT$core..ops..range..Range$LT$usize$GT$$u20$as$u20$core..slice..index..SliceIndex$LT$$u5b$T$u5d$$GT$$GT$9index_mut17h8fd40d8ab75ead16E;
	.scl	2;
	.type	32;
	.endef
	.section	.text,"xr",one_only,_ZN106_$LT$core..ops..range..Range$LT$usize$GT$$u20$as$u20$core..slice..index..SliceIndex$LT$$u5b$T$u5d$$GT$$GT$9index_mut17h8fd40d8ab75ead16E
	.globl	_ZN106_$LT$core..ops..range..Range$LT$usize$GT$$u20$as$u20$core..slice..index..SliceIndex$LT$$u5b$T$u5d$$GT$$GT$9index_mut17h8fd40d8ab75ead16E
	.p2align	4, 0x90
_ZN106_$LT$core..ops..range..Range$LT$usize$GT$$u20$as$u20$core..slice..index..SliceIndex$LT$$u5b$T$u5d$$GT$$GT$9index_mut17h8fd40d8ab75ead16E:
.seh_proc _ZN106_$LT$core..ops..range..Range$LT$usize$GT$$u20$as$u20$core..slice..index..SliceIndex$LT$$u5b$T$u5d$$GT$$GT$9index_mut17h8fd40d8ab75ead16E
	subq	$104, %rsp
	.seh_stackalloc 104
	.seh_endprologue
	movq	%r9, 32(%rsp)
	movq	%r8, 40(%rsp)
	movq	%rdx, 48(%rsp)
	movq	%rcx, 56(%rsp)
	movq	144(%rsp), %rax
	movq	%rax, 64(%rsp)
	cmpq	%rdx, %rcx
	ja	.LBB10_2
	movq	48(%rsp), %rax
	movq	32(%rsp), %rcx
	cmpq	%rcx, %rax
	ja	.LBB10_4
	jmp	.LBB10_3
.LBB10_2:
	movq	64(%rsp), %r8
	movq	48(%rsp), %rdx
	movq	56(%rsp), %rcx
	callq	_ZN4core5slice5index22slice_index_order_fail17h7ca406d2fb242740E
.LBB10_3:
	movq	56(%rsp), %rdx
	movq	40(%rsp), %rcx
	movq	48(%rsp), %rax
	subq	%rdx, %rax
	addq	%rdx, %rcx
	movq	%rcx, 88(%rsp)
	movq	%rax, 96(%rsp)
	movq	88(%rsp), %rcx
	movq	96(%rsp), %rax
	movq	%rcx, 72(%rsp)
	movq	%rax, 80(%rsp)
	movq	72(%rsp), %rax
	movq	80(%rsp), %rdx
	addq	$104, %rsp
	retq
.LBB10_4:
	movq	64(%rsp), %r8
	movq	32(%rsp), %rdx
	movq	48(%rsp), %rcx
	callq	_ZN4core5slice5index24slice_end_index_len_fail17h3bc272e480489ed9E
	int3
	.seh_endproc

	.def	_ZN108_$LT$core..iter..adapters..peekable..Peekable$LT$I$GT$$u20$as$u20$core..iter..traits..iterator..Iterator$GT$4next17h73c9ec921b91bafeE;
	.scl	2;
	.type	32;
	.endef
	.section	.text,"xr",one_only,_ZN108_$LT$core..iter..adapters..peekable..Peekable$LT$I$GT$$u20$as$u20$core..iter..traits..iterator..Iterator$GT$4next17h73c9ec921b91bafeE
	.globl	_ZN108_$LT$core..iter..adapters..peekable..Peekable$LT$I$GT$$u20$as$u20$core..iter..traits..iterator..Iterator$GT$4next17h73c9ec921b91bafeE
	.p2align	4, 0x90
_ZN108_$LT$core..iter..adapters..peekable..Peekable$LT$I$GT$$u20$as$u20$core..iter..traits..iterator..Iterator$GT$4next17h73c9ec921b91bafeE:
.seh_proc _ZN108_$LT$core..iter..adapters..peekable..Peekable$LT$I$GT$$u20$as$u20$core..iter..traits..iterator..Iterator$GT$4next17h73c9ec921b91bafeE
	subq	$56, %rsp
	.seh_stackalloc 56
	.seh_endprologue
	movq	%rcx, 32(%rsp)
	movl	$1114113, 52(%rsp)
	movl	16(%rcx), %eax
	movl	%eax, 48(%rsp)
	movl	52(%rsp), %eax
	movl	%eax, 16(%rcx)
	movl	$1, %eax
	xorl	%ecx, %ecx
	cmpl	$1114113, 48(%rsp)
	cmoveq	%rcx, %rax
	cmpq	$0, %rax
	jne	.LBB11_2
	movq	32(%rsp), %rcx
	callq	_ZN81_$LT$core..str..iter..Chars$u20$as$u20$core..iter..traits..iterator..Iterator$GT$4next17h8042dec8ce5a2444E
	movl	%eax, 44(%rsp)
	jmp	.LBB11_3
.LBB11_2:
	movl	48(%rsp), %eax
	movl	%eax, 44(%rsp)
.LBB11_3:
	movl	44(%rsp), %eax
	addq	$56, %rsp
	retq
	.seh_endproc

	.def	_ZN108_$LT$proc_macro..TokenStream$u20$as$u20$core..iter..traits..collect..Extend$LT$proc_macro..TokenTree$GT$$GT$6extend17h8896382c9d9a1593E;
	.scl	2;
	.type	32;
	.endef
	.section	.text,"xr",one_only,_ZN108_$LT$proc_macro..TokenStream$u20$as$u20$core..iter..traits..collect..Extend$LT$proc_macro..TokenTree$GT$$GT$6extend17h8896382c9d9a1593E
	.globl	_ZN108_$LT$proc_macro..TokenStream$u20$as$u20$core..iter..traits..collect..Extend$LT$proc_macro..TokenTree$GT$$GT$6extend17h8896382c9d9a1593E
	.p2align	4, 0x90
_ZN108_$LT$proc_macro..TokenStream$u20$as$u20$core..iter..traits..collect..Extend$LT$proc_macro..TokenTree$GT$$GT$6extend17h8896382c9d9a1593E:
.Lfunc_begin1:
.seh_proc _ZN108_$LT$proc_macro..TokenStream$u20$as$u20$core..iter..traits..collect..Extend$LT$proc_macro..TokenTree$GT$$GT$6extend17h8896382c9d9a1593E
	.seh_handler __CxxFrameHandler3, @unwind, @except
	pushq	%rbp
	.seh_pushreg %rbp
	subq	$240, %rsp
	.seh_stackalloc 240
	leaq	128(%rsp), %rbp
	.seh_setframe %rbp, 128
	.seh_endprologue
	movq	$-2, 104(%rbp)
	movq	%rcx, -88(%rbp)
	leaq	-72(%rbp), %rcx
	movq	%rcx, -80(%rbp)
	callq	_ZN63_$LT$I$u20$as$u20$core..iter..traits..collect..IntoIterator$GT$9into_iter17he3873ca42384e8a8E
	movq	-80(%rbp), %rdx
	movb	$1, 103(%rbp)
.Ltmp2:
	leaq	-8(%rbp), %rcx
	callq	_ZN96_$LT$alloc..vec..drain..Drain$LT$T$C$A$GT$$u20$as$u20$core..iter..traits..iterator..Iterator$GT$9size_hint17h29f55d17a13984abE
.Ltmp3:
	jmp	.LBB12_2
.LBB12_2:
	movq	-8(%rbp), %rdx
.Ltmp4:
	leaq	-32(%rbp), %rcx
	callq	_ZN10proc_macro17ConcatTreesHelper3new17hf250303e7840629bE
.Ltmp5:
	jmp	.LBB12_3
.LBB12_3:
	movb	$1, 102(%rbp)
	movb	$0, 103(%rbp)
	movq	-40(%rbp), %rax
	movq	%rax, 48(%rbp)
	vmovups	-72(%rbp), %ymm0
	vmovups	%ymm0, 16(%rbp)
	leaq	-32(%rbp), %rax
	movq	%rax, 56(%rbp)
	movq	56(%rbp), %rdx
.Ltmp6:
	leaq	16(%rbp), %rcx
	vzeroupper
	callq	_ZN4core4iter6traits8iterator8Iterator8for_each17h3b2e0ef9653dbd0fE
.Ltmp7:
	jmp	.LBB12_5
.LBB12_5:
	movq	-88(%rbp), %rdx
	movb	$0, 102(%rbp)
	movq	-16(%rbp), %rax
	movq	%rax, 80(%rbp)
	vmovdqu	-32(%rbp), %xmm0
	vmovdqa	%xmm0, 64(%rbp)
.Ltmp8:
	leaq	64(%rbp), %rcx
	callq	_ZN10proc_macro17ConcatTreesHelper9append_to17h44ea3b2c0566b865E
.Ltmp9:
	jmp	.LBB12_6
.LBB12_6:
	addq	$240, %rsp
	popq	%rbp
	retq
	.seh_handlerdata
	.long	($cppxdata$_ZN108_$LT$proc_macro..TokenStream$u20$as$u20$core..iter..traits..collect..Extend$LT$proc_macro..TokenTree$GT$$GT$6extend17h8896382c9d9a1593E)@IMGREL
	.section	.text,"xr",one_only,_ZN108_$LT$proc_macro..TokenStream$u20$as$u20$core..iter..traits..collect..Extend$LT$proc_macro..TokenTree$GT$$GT$6extend17h8896382c9d9a1593E
	.seh_endproc
	.def	"?dtor$1@?0?_ZN108_$LT$proc_macro..TokenStream$u20$as$u20$core..iter..traits..collect..Extend$LT$proc_macro..TokenTree$GT$$GT$6extend17h8896382c9d9a1593E@4HA";
	.scl	3;
	.type	32;
	.endef
	.p2align	4, 0x90
"?dtor$1@?0?_ZN108_$LT$proc_macro..TokenStream$u20$as$u20$core..iter..traits..collect..Extend$LT$proc_macro..TokenTree$GT$$GT$6extend17h8896382c9d9a1593E@4HA":
.seh_proc "?dtor$1@?0?_ZN108_$LT$proc_macro..TokenStream$u20$as$u20$core..iter..traits..collect..Extend$LT$proc_macro..TokenTree$GT$$GT$6extend17h8896382c9d9a1593E@4HA"
.LBB12_1:
	movq	%rdx, 16(%rsp)
	pushq	%rbp
	.seh_pushreg %rbp
	subq	$32, %rsp
	.seh_stackalloc 32
	leaq	128(%rdx), %rbp
	.seh_endprologue
	testb	$1, 103(%rbp)
	jne	.LBB12_10
	jmp	.LBB12_9
.LBB12_9:
	addq	$32, %rsp
	popq	%rbp
	retq
.LBB12_10:
	leaq	-72(%rbp), %rcx
	callq	_ZN4core3ptr74drop_in_place$LT$alloc..vec..drain..Drain$LT$proc_macro..TokenTree$GT$$GT$17hdc4825931ec99bdeE
	jmp	.LBB12_9
	.seh_handlerdata
	.section	.text,"xr",one_only,_ZN108_$LT$proc_macro..TokenStream$u20$as$u20$core..iter..traits..collect..Extend$LT$proc_macro..TokenTree$GT$$GT$6extend17h8896382c9d9a1593E
	.seh_endproc
	.def	"?dtor$4@?0?_ZN108_$LT$proc_macro..TokenStream$u20$as$u20$core..iter..traits..collect..Extend$LT$proc_macro..TokenTree$GT$$GT$6extend17h8896382c9d9a1593E@4HA";
	.scl	3;
	.type	32;
	.endef
	.p2align	4, 0x90
"?dtor$4@?0?_ZN108_$LT$proc_macro..TokenStream$u20$as$u20$core..iter..traits..collect..Extend$LT$proc_macro..TokenTree$GT$$GT$6extend17h8896382c9d9a1593E@4HA":
.seh_proc "?dtor$4@?0?_ZN108_$LT$proc_macro..TokenStream$u20$as$u20$core..iter..traits..collect..Extend$LT$proc_macro..TokenTree$GT$$GT$6extend17h8896382c9d9a1593E@4HA"
.LBB12_4:
	movq	%rdx, 16(%rsp)
	pushq	%rbp
	.seh_pushreg %rbp
	subq	$32, %rsp
	.seh_stackalloc 32
	leaq	128(%rdx), %rbp
	.seh_endprologue
	testb	$1, 102(%rbp)
	jne	.LBB12_8
	jmp	.LBB12_7
.LBB12_7:
	addq	$32, %rsp
	popq	%rbp
	retq
.LBB12_8:
	leaq	-32(%rbp), %rcx
	callq	_ZN4core3ptr50drop_in_place$LT$proc_macro..ConcatTreesHelper$GT$17hb6b6ca6b4d33f83dE
	nop
	addq	$32, %rsp
	popq	%rbp
	retq
.Lfunc_end1:
	.seh_handlerdata
	.section	.text,"xr",one_only,_ZN108_$LT$proc_macro..TokenStream$u20$as$u20$core..iter..traits..collect..Extend$LT$proc_macro..TokenTree$GT$$GT$6extend17h8896382c9d9a1593E
	.seh_endproc
	.section	.xdata,"dr",associative,_ZN108_$LT$proc_macro..TokenStream$u20$as$u20$core..iter..traits..collect..Extend$LT$proc_macro..TokenTree$GT$$GT$6extend17h8896382c9d9a1593E
	.p2align	2, 0x0
$cppxdata$_ZN108_$LT$proc_macro..TokenStream$u20$as$u20$core..iter..traits..collect..Extend$LT$proc_macro..TokenTree$GT$$GT$6extend17h8896382c9d9a1593E:
	.long	429065506
	.long	2
	.long	($stateUnwindMap$_ZN108_$LT$proc_macro..TokenStream$u20$as$u20$core..iter..traits..collect..Extend$LT$proc_macro..TokenTree$GT$$GT$6extend17h8896382c9d9a1593E)@IMGREL
	.long	0
	.long	0
	.long	4
	.long	($ip2state$_ZN108_$LT$proc_macro..TokenStream$u20$as$u20$core..iter..traits..collect..Extend$LT$proc_macro..TokenTree$GT$$GT$6extend17h8896382c9d9a1593E)@IMGREL
	.long	232
	.long	0
	.long	1
$stateUnwindMap$_ZN108_$LT$proc_macro..TokenStream$u20$as$u20$core..iter..traits..collect..Extend$LT$proc_macro..TokenTree$GT$$GT$6extend17h8896382c9d9a1593E:
	.long	-1
	.long	"?dtor$1@?0?_ZN108_$LT$proc_macro..TokenStream$u20$as$u20$core..iter..traits..collect..Extend$LT$proc_macro..TokenTree$GT$$GT$6extend17h8896382c9d9a1593E@4HA"@IMGREL
	.long	0
	.long	"?dtor$4@?0?_ZN108_$LT$proc_macro..TokenStream$u20$as$u20$core..iter..traits..collect..Extend$LT$proc_macro..TokenTree$GT$$GT$6extend17h8896382c9d9a1593E@4HA"@IMGREL
$ip2state$_ZN108_$LT$proc_macro..TokenStream$u20$as$u20$core..iter..traits..collect..Extend$LT$proc_macro..TokenTree$GT$$GT$6extend17h8896382c9d9a1593E:
	.long	.Lfunc_begin1@IMGREL
	.long	-1
	.long	.Ltmp2@IMGREL+1
	.long	0
	.long	.Ltmp6@IMGREL+1
	.long	1
	.long	.Ltmp9@IMGREL+1
	.long	-1
	.section	.text,"xr",one_only,_ZN108_$LT$proc_macro..TokenStream$u20$as$u20$core..iter..traits..collect..Extend$LT$proc_macro..TokenTree$GT$$GT$6extend17h8896382c9d9a1593E

	.def	_ZN108_$LT$proc_macro..TokenStream$u20$as$u20$core..iter..traits..collect..Extend$LT$proc_macro..TokenTree$GT$$GT$6extend28_$u7b$$u7b$closure$u7d$$u7d$17h78c08f94bb8e0542E;
	.scl	2;
	.type	32;
	.endef
	.section	.text,"xr",one_only,_ZN108_$LT$proc_macro..TokenStream$u20$as$u20$core..iter..traits..collect..Extend$LT$proc_macro..TokenTree$GT$$GT$6extend28_$u7b$$u7b$closure$u7d$$u7d$17h78c08f94bb8e0542E
	.globl	_ZN108_$LT$proc_macro..TokenStream$u20$as$u20$core..iter..traits..collect..Extend$LT$proc_macro..TokenTree$GT$$GT$6extend28_$u7b$$u7b$closure$u7d$$u7d$17h78c08f94bb8e0542E
	.p2align	4, 0x90
_ZN108_$LT$proc_macro..TokenStream$u20$as$u20$core..iter..traits..collect..Extend$LT$proc_macro..TokenTree$GT$$GT$6extend28_$u7b$$u7b$closure$u7d$$u7d$17h78c08f94bb8e0542E:
.seh_proc _ZN108_$LT$proc_macro..TokenStream$u20$as$u20$core..iter..traits..collect..Extend$LT$proc_macro..TokenTree$GT$$GT$6extend28_$u7b$$u7b$closure$u7d$$u7d$17h78c08f94bb8e0542E
	subq	$40, %rsp
	.seh_stackalloc 40
	.seh_endprologue
	movq	(%rcx), %rcx
	callq	_ZN10proc_macro17ConcatTreesHelper4push17hd61df02577967d59E
	nop
	addq	$40, %rsp
	retq
	.seh_endproc

	.def	_ZN10proc_macro11TokenStream3new17hf548d61ef81b3821E;
	.scl	3;
	.type	32;
	.endef
	.section	.text,"xr",one_only,_ZN10proc_macro11TokenStream3new17hf548d61ef81b3821E
	.p2align	4, 0x90
_ZN10proc_macro11TokenStream3new17hf548d61ef81b3821E:
	xorl	%eax, %eax
	retq

	.def	_ZN10proc_macro5Group10span_close17h6565ee1ca05fb13fE;
	.scl	3;
	.type	32;
	.endef
	.section	.text,"xr",one_only,_ZN10proc_macro5Group10span_close17h6565ee1ca05fb13fE
	.p2align	4, 0x90
_ZN10proc_macro5Group10span_close17h6565ee1ca05fb13fE:
.seh_proc _ZN10proc_macro5Group10span_close17h6565ee1ca05fb13fE
	pushq	%rax
	.seh_stackalloc 8
	.seh_endprologue
	movl	4(%rcx), %eax
	movl	%eax, 4(%rsp)
	movl	4(%rsp), %eax
	popq	%rcx
	retq
	.seh_endproc

	.def	_ZN10proc_macro5Group4span17h138978dfbc0e7665E;
	.scl	3;
	.type	32;
	.endef
	.section	.text,"xr",one_only,_ZN10proc_macro5Group4span17h138978dfbc0e7665E
	.p2align	4, 0x90
_ZN10proc_macro5Group4span17h138978dfbc0e7665E:
.seh_proc _ZN10proc_macro5Group4span17h138978dfbc0e7665E
	pushq	%rax
	.seh_stackalloc 8
	.seh_endprologue
	movl	8(%rcx), %eax
	movl	%eax, 4(%rsp)
	movl	4(%rsp), %eax
	popq	%rcx
	retq
	.seh_endproc

	.def	_ZN10proc_macro5Group8set_span17ha03e58f95189cef2E;
	.scl	3;
	.type	32;
	.endef
	.section	.text,"xr",one_only,_ZN10proc_macro5Group8set_span17ha03e58f95189cef2E
	.p2align	4, 0x90
_ZN10proc_macro5Group8set_span17ha03e58f95189cef2E:
.seh_proc _ZN10proc_macro5Group8set_span17ha03e58f95189cef2E
	subq	$16, %rsp
	.seh_stackalloc 16
	.seh_endprologue
	movl	%edx, 4(%rsp)
	movl	%edx, 8(%rsp)
	movl	%edx, 12(%rsp)
	movq	4(%rsp), %rax
	movq	%rax, (%rcx)
	movl	12(%rsp), %eax
	movl	%eax, 8(%rcx)
	addq	$16, %rsp
	retq
	.seh_endproc

	.def	_ZN10proc_macro5Group9delimiter17h8ec1476426235fe0E;
	.scl	3;
	.type	32;
	.endef
	.section	.text,"xr",one_only,_ZN10proc_macro5Group9delimiter17h8ec1476426235fe0E
	.p2align	4, 0x90
_ZN10proc_macro5Group9delimiter17h8ec1476426235fe0E:
	movb	16(%rcx), %al
	retq

	.def	_ZN10proc_macro5Group9span_open17h74ba962c8f645ea3E;
	.scl	3;
	.type	32;
	.endef
	.section	.text,"xr",one_only,_ZN10proc_macro5Group9span_open17h74ba962c8f645ea3E
	.p2align	4, 0x90
_ZN10proc_macro5Group9span_open17h74ba962c8f645ea3E:
.seh_proc _ZN10proc_macro5Group9span_open17h74ba962c8f645ea3E
	pushq	%rax
	.seh_stackalloc 8
	.seh_endprologue
	movl	(%rcx), %eax
	movl	%eax, 4(%rsp)
	movl	4(%rsp), %eax
	popq	%rcx
	retq
	.seh_endproc

	.def	_ZN10proc_macro5Ident4span17he075fc942e3657acE;
	.scl	3;
	.type	32;
	.endef
	.section	.text,"xr",one_only,_ZN10proc_macro5Ident4span17he075fc942e3657acE
	.p2align	4, 0x90
_ZN10proc_macro5Ident4span17he075fc942e3657acE:
.seh_proc _ZN10proc_macro5Ident4span17he075fc942e3657acE
	pushq	%rax
	.seh_stackalloc 8
	.seh_endprologue
	movl	4(%rcx), %eax
	movl	%eax, 4(%rsp)
	movl	4(%rsp), %eax
	popq	%rcx
	retq
	.seh_endproc

	.def	_ZN10proc_macro5Ident8set_span17h72a96bd7e5d20a39E;
	.scl	3;
	.type	32;
	.endef
	.section	.text,"xr",one_only,_ZN10proc_macro5Ident8set_span17h72a96bd7e5d20a39E
	.p2align	4, 0x90
_ZN10proc_macro5Ident8set_span17h72a96bd7e5d20a39E:
	movl	%edx, 4(%rcx)
	retq

	.def	_ZN10proc_macro5Punct4span17h731033716a627d84E;
	.scl	3;
	.type	32;
	.endef
	.section	.text,"xr",one_only,_ZN10proc_macro5Punct4span17h731033716a627d84E
	.p2align	4, 0x90
_ZN10proc_macro5Punct4span17h731033716a627d84E:
.seh_proc _ZN10proc_macro5Punct4span17h731033716a627d84E
	pushq	%rax
	.seh_stackalloc 8
	.seh_endprologue
	movl	(%rcx), %eax
	movl	%eax, 4(%rsp)
	movl	4(%rsp), %eax
	popq	%rcx
	retq
	.seh_endproc

	.def	_ZN10proc_macro5Punct7as_char17h03481016cbe72921E;
	.scl	3;
	.type	32;
	.endef
	.section	.text,"xr",one_only,_ZN10proc_macro5Punct7as_char17h03481016cbe72921E
	.p2align	4, 0x90
_ZN10proc_macro5Punct7as_char17h03481016cbe72921E:
	movzbl	4(%rcx), %eax
	retq

	.def	_ZN10proc_macro5Punct7spacing17h80664cbde0834815E;
	.scl	3;
	.type	32;
	.endef
	.section	.text,"xr",one_only,_ZN10proc_macro5Punct7spacing17h80664cbde0834815E
	.p2align	4, 0x90
_ZN10proc_macro5Punct7spacing17h80664cbde0834815E:
.seh_proc _ZN10proc_macro5Punct7spacing17h80664cbde0834815E
	pushq	%rax
	.seh_stackalloc 8
	.seh_endprologue
	testb	$1, 5(%rcx)
	jne	.LBB24_2
	movb	$1, 7(%rsp)
	jmp	.LBB24_3
.LBB24_2:
	movb	$0, 7(%rsp)
.LBB24_3:
	movb	7(%rsp), %al
	andb	$1, %al
	movzbl	%al, %eax
	popq	%rcx
	retq
	.seh_endproc

	.def	_ZN10proc_macro5Punct8set_span17h55a7a819f66cf1f1E;
	.scl	3;
	.type	32;
	.endef
	.section	.text,"xr",one_only,_ZN10proc_macro5Punct8set_span17h55a7a819f66cf1f1E
	.p2align	4, 0x90
_ZN10proc_macro5Punct8set_span17h55a7a819f66cf1f1E:
	movl	%edx, (%rcx)
	retq

	.def	_ZN10proc_macro7Literal4span17ha316fc850a775ba3E;
	.scl	3;
	.type	32;
	.endef
	.section	.text,"xr",one_only,_ZN10proc_macro7Literal4span17ha316fc850a775ba3E
	.p2align	4, 0x90
_ZN10proc_macro7Literal4span17ha316fc850a775ba3E:
.seh_proc _ZN10proc_macro7Literal4span17ha316fc850a775ba3E
	pushq	%rax
	.seh_stackalloc 8
	.seh_endprologue
	movl	4(%rcx), %eax
	movl	%eax, 4(%rsp)
	movl	4(%rsp), %eax
	popq	%rcx
	retq
	.seh_endproc

	.def	_ZN10proc_macro7Literal8set_span17h55e403a59262a13cE;
	.scl	3;
	.type	32;
	.endef
	.section	.text,"xr",one_only,_ZN10proc_macro7Literal8set_span17h55e403a59262a13cE
	.p2align	4, 0x90
_ZN10proc_macro7Literal8set_span17h55e403a59262a13cE:
	movl	%edx, 4(%rcx)
	retq

	.def	_ZN110_$LT$core..iter..adapters..enumerate..Enumerate$LT$I$GT$$u20$as$u20$core..iter..traits..iterator..Iterator$GT$4next17h7dc49eb2a41ef824E;
	.scl	2;
	.type	32;
	.endef
	.section	.text,"xr",one_only,_ZN110_$LT$core..iter..adapters..enumerate..Enumerate$LT$I$GT$$u20$as$u20$core..iter..traits..iterator..Iterator$GT$4next17h7dc49eb2a41ef824E
	.globl	_ZN110_$LT$core..iter..adapters..enumerate..Enumerate$LT$I$GT$$u20$as$u20$core..iter..traits..iterator..Iterator$GT$4next17h7dc49eb2a41ef824E
	.p2align	4, 0x90
_ZN110_$LT$core..iter..adapters..enumerate..Enumerate$LT$I$GT$$u20$as$u20$core..iter..traits..iterator..Iterator$GT$4next17h7dc49eb2a41ef824E:
.Lfunc_begin2:
.seh_proc _ZN110_$LT$core..iter..adapters..enumerate..Enumerate$LT$I$GT$$u20$as$u20$core..iter..traits..iterator..Iterator$GT$4next17h7dc49eb2a41ef824E
	.seh_handler __CxxFrameHandler3, @unwind, @except
	pushq	%rbp
	.seh_pushreg %rbp
	subq	$128, %rsp
	.seh_stackalloc 128
	leaq	128(%rsp), %rbp
	.seh_setframe %rbp, 128
	.seh_endprologue
	movq	$-2, -8(%rbp)
	movq	%rcx, -64(%rbp)
	callq	_ZN91_$LT$core..slice..iter..Iter$LT$T$GT$$u20$as$u20$core..iter..traits..iterator..Iterator$GT$4next17h9288d8a81081054dE
	movq	%rax, -32(%rbp)
	movq	-32(%rbp), %rax
	cmpq	$0, %rax
	sete	%al
	testb	$1, %al
	jne	.LBB28_1
	jmp	.LBB28_2
.LBB28_1:
	movq	$0, -40(%rbp)
	jmp	.LBB28_3
.LBB28_2:
	movq	-32(%rbp), %rax
	movq	%rax, -40(%rbp)
.LBB28_3:
	movq	-40(%rbp), %rdx
	xorl	%eax, %eax
	movl	$1, %ecx
	cmpq	$0, %rdx
	cmoveq	%rcx, %rax
	cmpq	$0, %rax
	jne	.LBB28_5
	movq	-64(%rbp), %rax
	movq	-40(%rbp), %rcx
	movq	%rcx, -88(%rbp)
	movq	16(%rax), %rcx
	movq	%rcx, -80(%rbp)
	movq	16(%rax), %rax
	addq	$1, %rax
	movq	%rax, -72(%rbp)
	setb	%al
	testb	$1, %al
	jne	.LBB28_7
	jmp	.LBB28_6
.LBB28_5:
	movq	$0, -48(%rbp)
	jmp	.LBB28_10
.LBB28_6:
	movq	-88(%rbp), %rax
	movq	-80(%rbp), %rcx
	movq	-64(%rbp), %rdx
	movq	-72(%rbp), %r8
	movq	%r8, 16(%rdx)
	movq	%rcx, -24(%rbp)
	movq	%rax, -16(%rbp)
	movq	-24(%rbp), %rcx
	movq	-16(%rbp), %rax
	movq	%rcx, -56(%rbp)
	movq	%rax, -48(%rbp)
	jmp	.LBB28_10
.LBB28_7:
.Ltmp10:
	leaq	str.0(%rip), %rcx
	leaq	__unnamed_3(%rip), %r8
	movl	$28, %edx
	callq	_ZN4core9panicking5panic17hb11f2d409f96600eE
.Ltmp11:
	jmp	.LBB28_9
.LBB28_9:
	ud2
.LBB28_10:
	movq	-56(%rbp), %rax
	movq	-48(%rbp), %rdx
	addq	$128, %rsp
	popq	%rbp
	retq
	.seh_handlerdata
	.long	($cppxdata$_ZN110_$LT$core..iter..adapters..enumerate..Enumerate$LT$I$GT$$u20$as$u20$core..iter..traits..iterator..Iterator$GT$4next17h7dc49eb2a41ef824E)@IMGREL
	.section	.text,"xr",one_only,_ZN110_$LT$core..iter..adapters..enumerate..Enumerate$LT$I$GT$$u20$as$u20$core..iter..traits..iterator..Iterator$GT$4next17h7dc49eb2a41ef824E
	.seh_endproc
	.def	"?dtor$8@?0?_ZN110_$LT$core..iter..adapters..enumerate..Enumerate$LT$I$GT$$u20$as$u20$core..iter..traits..iterator..Iterator$GT$4next17h7dc49eb2a41ef824E@4HA";
	.scl	3;
	.type	32;
	.endef
	.p2align	4, 0x90
"?dtor$8@?0?_ZN110_$LT$core..iter..adapters..enumerate..Enumerate$LT$I$GT$$u20$as$u20$core..iter..traits..iterator..Iterator$GT$4next17h7dc49eb2a41ef824E@4HA":
.seh_proc "?dtor$8@?0?_ZN110_$LT$core..iter..adapters..enumerate..Enumerate$LT$I$GT$$u20$as$u20$core..iter..traits..iterator..Iterator$GT$4next17h7dc49eb2a41ef824E@4HA"
.LBB28_8:
	movq	%rdx, 16(%rsp)
	pushq	%rbp
	.seh_pushreg %rbp
	subq	$32, %rsp
	.seh_stackalloc 32
	leaq	128(%rdx), %rbp
	.seh_endprologue
	addq	$32, %rsp
	popq	%rbp
	retq
.Lfunc_end2:
	.seh_handlerdata
	.section	.text,"xr",one_only,_ZN110_$LT$core..iter..adapters..enumerate..Enumerate$LT$I$GT$$u20$as$u20$core..iter..traits..iterator..Iterator$GT$4next17h7dc49eb2a41ef824E
	.seh_endproc
	.section	.xdata,"dr",associative,_ZN110_$LT$core..iter..adapters..enumerate..Enumerate$LT$I$GT$$u20$as$u20$core..iter..traits..iterator..Iterator$GT$4next17h7dc49eb2a41ef824E
	.p2align	2, 0x0
$cppxdata$_ZN110_$LT$core..iter..adapters..enumerate..Enumerate$LT$I$GT$$u20$as$u20$core..iter..traits..iterator..Iterator$GT$4next17h7dc49eb2a41ef824E:
	.long	429065506
	.long	1
	.long	($stateUnwindMap$_ZN110_$LT$core..iter..adapters..enumerate..Enumerate$LT$I$GT$$u20$as$u20$core..iter..traits..iterator..Iterator$GT$4next17h7dc49eb2a41ef824E)@IMGREL
	.long	0
	.long	0
	.long	3
	.long	($ip2state$_ZN110_$LT$core..iter..adapters..enumerate..Enumerate$LT$I$GT$$u20$as$u20$core..iter..traits..iterator..Iterator$GT$4next17h7dc49eb2a41ef824E)@IMGREL
	.long	120
	.long	0
	.long	1
$stateUnwindMap$_ZN110_$LT$core..iter..adapters..enumerate..Enumerate$LT$I$GT$$u20$as$u20$core..iter..traits..iterator..Iterator$GT$4next17h7dc49eb2a41ef824E:
	.long	-1
	.long	"?dtor$8@?0?_ZN110_$LT$core..iter..adapters..enumerate..Enumerate$LT$I$GT$$u20$as$u20$core..iter..traits..iterator..Iterator$GT$4next17h7dc49eb2a41ef824E@4HA"@IMGREL
$ip2state$_ZN110_$LT$core..iter..adapters..enumerate..Enumerate$LT$I$GT$$u20$as$u20$core..iter..traits..iterator..Iterator$GT$4next17h7dc49eb2a41ef824E:
	.long	.Lfunc_begin2@IMGREL
	.long	-1
	.long	.Ltmp10@IMGREL+1
	.long	0
	.long	.Ltmp11@IMGREL+1
	.long	-1
	.section	.text,"xr",one_only,_ZN110_$LT$core..iter..adapters..enumerate..Enumerate$LT$I$GT$$u20$as$u20$core..iter..traits..iterator..Iterator$GT$4next17h7dc49eb2a41ef824E

	.def	_ZN110_$LT$core..iter..adapters..enumerate..Enumerate$LT$I$GT$$u20$as$u20$core..iter..traits..iterator..Iterator$GT$4next17hcfdeedb985e74416E;
	.scl	2;
	.type	32;
	.endef
	.section	.text,"xr",one_only,_ZN110_$LT$core..iter..adapters..enumerate..Enumerate$LT$I$GT$$u20$as$u20$core..iter..traits..iterator..Iterator$GT$4next17hcfdeedb985e74416E
	.globl	_ZN110_$LT$core..iter..adapters..enumerate..Enumerate$LT$I$GT$$u20$as$u20$core..iter..traits..iterator..Iterator$GT$4next17hcfdeedb985e74416E
	.p2align	4, 0x90
_ZN110_$LT$core..iter..adapters..enumerate..Enumerate$LT$I$GT$$u20$as$u20$core..iter..traits..iterator..Iterator$GT$4next17hcfdeedb985e74416E:
.Lfunc_begin3:
.seh_proc _ZN110_$LT$core..iter..adapters..enumerate..Enumerate$LT$I$GT$$u20$as$u20$core..iter..traits..iterator..Iterator$GT$4next17hcfdeedb985e74416E
	.seh_handler __CxxFrameHandler3, @unwind, @except
	pushq	%rbp
	.seh_pushreg %rbp
	subq	$128, %rsp
	.seh_stackalloc 128
	leaq	128(%rsp), %rbp
	.seh_setframe %rbp, 128
	.seh_endprologue
	movq	$-2, -8(%rbp)
	movq	%rcx, -64(%rbp)
	callq	_ZN91_$LT$core..slice..iter..Iter$LT$T$GT$$u20$as$u20$core..iter..traits..iterator..Iterator$GT$4next17h4355aa99a15f80f3E
	movq	%rax, -32(%rbp)
	movq	-32(%rbp), %rax
	cmpq	$0, %rax
	sete	%al
	testb	$1, %al
	jne	.LBB29_1
	jmp	.LBB29_2
.LBB29_1:
	movq	$0, -40(%rbp)
	jmp	.LBB29_3
.LBB29_2:
	movq	-32(%rbp), %rax
	movq	%rax, -40(%rbp)
.LBB29_3:
	movq	-40(%rbp), %rdx
	xorl	%eax, %eax
	movl	$1, %ecx
	cmpq	$0, %rdx
	cmoveq	%rcx, %rax
	cmpq	$0, %rax
	jne	.LBB29_5
	movq	-64(%rbp), %rax
	movq	-40(%rbp), %rcx
	movq	%rcx, -88(%rbp)
	movq	16(%rax), %rcx
	movq	%rcx, -80(%rbp)
	movq	16(%rax), %rax
	addq	$1, %rax
	movq	%rax, -72(%rbp)
	setb	%al
	testb	$1, %al
	jne	.LBB29_7
	jmp	.LBB29_6
.LBB29_5:
	movq	$0, -48(%rbp)
	jmp	.LBB29_10
.LBB29_6:
	movq	-88(%rbp), %rax
	movq	-80(%rbp), %rcx
	movq	-64(%rbp), %rdx
	movq	-72(%rbp), %r8
	movq	%r8, 16(%rdx)
	movq	%rcx, -24(%rbp)
	movq	%rax, -16(%rbp)
	movq	-24(%rbp), %rcx
	movq	-16(%rbp), %rax
	movq	%rcx, -56(%rbp)
	movq	%rax, -48(%rbp)
	jmp	.LBB29_10
.LBB29_7:
.Ltmp12:
	leaq	str.0(%rip), %rcx
	leaq	__unnamed_3(%rip), %r8
	movl	$28, %edx
	callq	_ZN4core9panicking5panic17hb11f2d409f96600eE
.Ltmp13:
	jmp	.LBB29_9
.LBB29_9:
	ud2
.LBB29_10:
	movq	-56(%rbp), %rax
	movq	-48(%rbp), %rdx
	addq	$128, %rsp
	popq	%rbp
	retq
	.seh_handlerdata
	.long	($cppxdata$_ZN110_$LT$core..iter..adapters..enumerate..Enumerate$LT$I$GT$$u20$as$u20$core..iter..traits..iterator..Iterator$GT$4next17hcfdeedb985e74416E)@IMGREL
	.section	.text,"xr",one_only,_ZN110_$LT$core..iter..adapters..enumerate..Enumerate$LT$I$GT$$u20$as$u20$core..iter..traits..iterator..Iterator$GT$4next17hcfdeedb985e74416E
	.seh_endproc
	.def	"?dtor$8@?0?_ZN110_$LT$core..iter..adapters..enumerate..Enumerate$LT$I$GT$$u20$as$u20$core..iter..traits..iterator..Iterator$GT$4next17hcfdeedb985e74416E@4HA";
	.scl	3;
	.type	32;
	.endef
	.p2align	4, 0x90
"?dtor$8@?0?_ZN110_$LT$core..iter..adapters..enumerate..Enumerate$LT$I$GT$$u20$as$u20$core..iter..traits..iterator..Iterator$GT$4next17hcfdeedb985e74416E@4HA":
.seh_proc "?dtor$8@?0?_ZN110_$LT$core..iter..adapters..enumerate..Enumerate$LT$I$GT$$u20$as$u20$core..iter..traits..iterator..Iterator$GT$4next17hcfdeedb985e74416E@4HA"
.LBB29_8:
	movq	%rdx, 16(%rsp)
	pushq	%rbp
	.seh_pushreg %rbp
	subq	$32, %rsp
	.seh_stackalloc 32
	leaq	128(%rdx), %rbp
	.seh_endprologue
	addq	$32, %rsp
	popq	%rbp
	retq
.Lfunc_end3:
	.seh_handlerdata
	.section	.text,"xr",one_only,_ZN110_$LT$core..iter..adapters..enumerate..Enumerate$LT$I$GT$$u20$as$u20$core..iter..traits..iterator..Iterator$GT$4next17hcfdeedb985e74416E
	.seh_endproc
	.section	.xdata,"dr",associative,_ZN110_$LT$core..iter..adapters..enumerate..Enumerate$LT$I$GT$$u20$as$u20$core..iter..traits..iterator..Iterator$GT$4next17hcfdeedb985e74416E
	.p2align	2, 0x0
$cppxdata$_ZN110_$LT$core..iter..adapters..enumerate..Enumerate$LT$I$GT$$u20$as$u20$core..iter..traits..iterator..Iterator$GT$4next17hcfdeedb985e74416E:
	.long	429065506
	.long	1
	.long	($stateUnwindMap$_ZN110_$LT$core..iter..adapters..enumerate..Enumerate$LT$I$GT$$u20$as$u20$core..iter..traits..iterator..Iterator$GT$4next17hcfdeedb985e74416E)@IMGREL
	.long	0
	.long	0
	.long	3
	.long	($ip2state$_ZN110_$LT$core..iter..adapters..enumerate..Enumerate$LT$I$GT$$u20$as$u20$core..iter..traits..iterator..Iterator$GT$4next17hcfdeedb985e74416E)@IMGREL
	.long	120
	.long	0
	.long	1
$stateUnwindMap$_ZN110_$LT$core..iter..adapters..enumerate..Enumerate$LT$I$GT$$u20$as$u20$core..iter..traits..iterator..Iterator$GT$4next17hcfdeedb985e74416E:
	.long	-1
	.long	"?dtor$8@?0?_ZN110_$LT$core..iter..adapters..enumerate..Enumerate$LT$I$GT$$u20$as$u20$core..iter..traits..iterator..Iterator$GT$4next17hcfdeedb985e74416E@4HA"@IMGREL
$ip2state$_ZN110_$LT$core..iter..adapters..enumerate..Enumerate$LT$I$GT$$u20$as$u20$core..iter..traits..iterator..Iterator$GT$4next17hcfdeedb985e74416E:
	.long	.Lfunc_begin3@IMGREL
	.long	-1
	.long	.Ltmp12@IMGREL+1
	.long	0
	.long	.Ltmp13@IMGREL+1
	.long	-1
	.section	.text,"xr",one_only,_ZN110_$LT$core..iter..adapters..enumerate..Enumerate$LT$I$GT$$u20$as$u20$core..iter..traits..iterator..Iterator$GT$4next17hcfdeedb985e74416E

	.def	_ZN110_$LT$core..iter..adapters..enumerate..Enumerate$LT$I$GT$$u20$as$u20$core..iter..traits..iterator..Iterator$GT$4next17hed02c1da4ffe435dE;
	.scl	2;
	.type	32;
	.endef
	.section	.text,"xr",one_only,_ZN110_$LT$core..iter..adapters..enumerate..Enumerate$LT$I$GT$$u20$as$u20$core..iter..traits..iterator..Iterator$GT$4next17hed02c1da4ffe435dE
	.globl	_ZN110_$LT$core..iter..adapters..enumerate..Enumerate$LT$I$GT$$u20$as$u20$core..iter..traits..iterator..Iterator$GT$4next17hed02c1da4ffe435dE
	.p2align	4, 0x90
_ZN110_$LT$core..iter..adapters..enumerate..Enumerate$LT$I$GT$$u20$as$u20$core..iter..traits..iterator..Iterator$GT$4next17hed02c1da4ffe435dE:
.Lfunc_begin4:
.seh_proc _ZN110_$LT$core..iter..adapters..enumerate..Enumerate$LT$I$GT$$u20$as$u20$core..iter..traits..iterator..Iterator$GT$4next17hed02c1da4ffe435dE
	.seh_handler __CxxFrameHandler3, @unwind, @except
	pushq	%rbp
	.seh_pushreg %rbp
	subq	$128, %rsp
	.seh_stackalloc 128
	leaq	128(%rsp), %rbp
	.seh_setframe %rbp, 128
	.seh_endprologue
	movq	$-2, -8(%rbp)
	movq	%rcx, -64(%rbp)
	callq	_ZN91_$LT$core..slice..iter..Iter$LT$T$GT$$u20$as$u20$core..iter..traits..iterator..Iterator$GT$4next17h1a87a81976fe703aE
	movq	%rax, -32(%rbp)
	movq	-32(%rbp), %rax
	cmpq	$0, %rax
	sete	%al
	testb	$1, %al
	jne	.LBB30_1
	jmp	.LBB30_2
.LBB30_1:
	movq	$0, -40(%rbp)
	jmp	.LBB30_3
.LBB30_2:
	movq	-32(%rbp), %rax
	movq	%rax, -40(%rbp)
.LBB30_3:
	movq	-40(%rbp), %rdx
	xorl	%eax, %eax
	movl	$1, %ecx
	cmpq	$0, %rdx
	cmoveq	%rcx, %rax
	cmpq	$0, %rax
	jne	.LBB30_5
	movq	-64(%rbp), %rax
	movq	-40(%rbp), %rcx
	movq	%rcx, -88(%rbp)
	movq	16(%rax), %rcx
	movq	%rcx, -80(%rbp)
	movq	16(%rax), %rax
	addq	$1, %rax
	movq	%rax, -72(%rbp)
	setb	%al
	testb	$1, %al
	jne	.LBB30_7
	jmp	.LBB30_6
.LBB30_5:
	movq	$0, -48(%rbp)
	jmp	.LBB30_10
.LBB30_6:
	movq	-88(%rbp), %rax
	movq	-80(%rbp), %rcx
	movq	-64(%rbp), %rdx
	movq	-72(%rbp), %r8
	movq	%r8, 16(%rdx)
	movq	%rcx, -24(%rbp)
	movq	%rax, -16(%rbp)
	movq	-24(%rbp), %rcx
	movq	-16(%rbp), %rax
	movq	%rcx, -56(%rbp)
	movq	%rax, -48(%rbp)
	jmp	.LBB30_10
.LBB30_7:
.Ltmp14:
	leaq	str.0(%rip), %rcx
	leaq	__unnamed_3(%rip), %r8
	movl	$28, %edx
	callq	_ZN4core9panicking5panic17hb11f2d409f96600eE
.Ltmp15:
	jmp	.LBB30_9
.LBB30_9:
	ud2
.LBB30_10:
	movq	-56(%rbp), %rax
	movq	-48(%rbp), %rdx
	addq	$128, %rsp
	popq	%rbp
	retq
	.seh_handlerdata
	.long	($cppxdata$_ZN110_$LT$core..iter..adapters..enumerate..Enumerate$LT$I$GT$$u20$as$u20$core..iter..traits..iterator..Iterator$GT$4next17hed02c1da4ffe435dE)@IMGREL
	.section	.text,"xr",one_only,_ZN110_$LT$core..iter..adapters..enumerate..Enumerate$LT$I$GT$$u20$as$u20$core..iter..traits..iterator..Iterator$GT$4next17hed02c1da4ffe435dE
	.seh_endproc
	.def	"?dtor$8@?0?_ZN110_$LT$core..iter..adapters..enumerate..Enumerate$LT$I$GT$$u20$as$u20$core..iter..traits..iterator..Iterator$GT$4next17hed02c1da4ffe435dE@4HA";
	.scl	3;
	.type	32;
	.endef
	.p2align	4, 0x90
"?dtor$8@?0?_ZN110_$LT$core..iter..adapters..enumerate..Enumerate$LT$I$GT$$u20$as$u20$core..iter..traits..iterator..Iterator$GT$4next17hed02c1da4ffe435dE@4HA":
.seh_proc "?dtor$8@?0?_ZN110_$LT$core..iter..adapters..enumerate..Enumerate$LT$I$GT$$u20$as$u20$core..iter..traits..iterator..Iterator$GT$4next17hed02c1da4ffe435dE@4HA"
.LBB30_8:
	movq	%rdx, 16(%rsp)
	pushq	%rbp
	.seh_pushreg %rbp
	subq	$32, %rsp
	.seh_stackalloc 32
	leaq	128(%rdx), %rbp
	.seh_endprologue
	addq	$32, %rsp
	popq	%rbp
	retq
.Lfunc_end4:
	.seh_handlerdata
	.section	.text,"xr",one_only,_ZN110_$LT$core..iter..adapters..enumerate..Enumerate$LT$I$GT$$u20$as$u20$core..iter..traits..iterator..Iterator$GT$4next17hed02c1da4ffe435dE
	.seh_endproc
	.section	.xdata,"dr",associative,_ZN110_$LT$core..iter..adapters..enumerate..Enumerate$LT$I$GT$$u20$as$u20$core..iter..traits..iterator..Iterator$GT$4next17hed02c1da4ffe435dE
	.p2align	2, 0x0
$cppxdata$_ZN110_$LT$core..iter..adapters..enumerate..Enumerate$LT$I$GT$$u20$as$u20$core..iter..traits..iterator..Iterator$GT$4next17hed02c1da4ffe435dE:
	.long	429065506
	.long	1
	.long	($stateUnwindMap$_ZN110_$LT$core..iter..adapters..enumerate..Enumerate$LT$I$GT$$u20$as$u20$core..iter..traits..iterator..Iterator$GT$4next17hed02c1da4ffe435dE)@IMGREL
	.long	0
	.long	0
	.long	3
	.long	($ip2state$_ZN110_$LT$core..iter..adapters..enumerate..Enumerate$LT$I$GT$$u20$as$u20$core..iter..traits..iterator..Iterator$GT$4next17hed02c1da4ffe435dE)@IMGREL
	.long	120
	.long	0
	.long	1
$stateUnwindMap$_ZN110_$LT$core..iter..adapters..enumerate..Enumerate$LT$I$GT$$u20$as$u20$core..iter..traits..iterator..Iterator$GT$4next17hed02c1da4ffe435dE:
	.long	-1
	.long	"?dtor$8@?0?_ZN110_$LT$core..iter..adapters..enumerate..Enumerate$LT$I$GT$$u20$as$u20$core..iter..traits..iterator..Iterator$GT$4next17hed02c1da4ffe435dE@4HA"@IMGREL
$ip2state$_ZN110_$LT$core..iter..adapters..enumerate..Enumerate$LT$I$GT$$u20$as$u20$core..iter..traits..iterator..Iterator$GT$4next17hed02c1da4ffe435dE:
	.long	.Lfunc_begin4@IMGREL
	.long	-1
	.long	.Ltmp14@IMGREL+1
	.long	0
	.long	.Ltmp15@IMGREL+1
	.long	-1
	.section	.text,"xr",one_only,_ZN110_$LT$core..iter..adapters..enumerate..Enumerate$LT$I$GT$$u20$as$u20$core..iter..traits..iterator..Iterator$GT$4next17hed02c1da4ffe435dE

	.def	_ZN110_$LT$core..iter..adapters..enumerate..Enumerate$LT$I$GT$$u20$as$u20$core..iter..traits..iterator..Iterator$GT$4next17hfce6cf0a332d2b64E;
	.scl	2;
	.type	32;
	.endef
	.section	.text,"xr",one_only,_ZN110_$LT$core..iter..adapters..enumerate..Enumerate$LT$I$GT$$u20$as$u20$core..iter..traits..iterator..Iterator$GT$4next17hfce6cf0a332d2b64E
	.globl	_ZN110_$LT$core..iter..adapters..enumerate..Enumerate$LT$I$GT$$u20$as$u20$core..iter..traits..iterator..Iterator$GT$4next17hfce6cf0a332d2b64E
	.p2align	4, 0x90
_ZN110_$LT$core..iter..adapters..enumerate..Enumerate$LT$I$GT$$u20$as$u20$core..iter..traits..iterator..Iterator$GT$4next17hfce6cf0a332d2b64E:
.Lfunc_begin5:
.seh_proc _ZN110_$LT$core..iter..adapters..enumerate..Enumerate$LT$I$GT$$u20$as$u20$core..iter..traits..iterator..Iterator$GT$4next17hfce6cf0a332d2b64E
	.seh_handler __CxxFrameHandler3, @unwind, @except
	pushq	%rbp
	.seh_pushreg %rbp
	subq	$112, %rsp
	.seh_stackalloc 112
	leaq	112(%rsp), %rbp
	.seh_setframe %rbp, 112
	.seh_endprologue
	movq	$-2, -8(%rbp)
	movq	%rdx, -56(%rbp)
	movq	%rcx, %rax
	movq	-56(%rbp), %rcx
	movq	%rax, -48(%rbp)
	movq	%rax, -40(%rbp)
	callq	_ZN81_$LT$core..str..iter..Bytes$u20$as$u20$core..iter..traits..iterator..Iterator$GT$4next17h95b8e84457838deeE
	movb	%dl, -25(%rbp)
	movb	%al, -26(%rbp)
	movb	-26(%rbp), %al
	andb	$1, %al
	movzbl	%al, %eax
	cmpq	$0, %rax
	jne	.LBB31_2
	movb	$1, -28(%rbp)
	jmp	.LBB31_3
.LBB31_2:
	movb	-25(%rbp), %al
	movb	%al, -27(%rbp)
	movb	$0, -28(%rbp)
.LBB31_3:
	movb	-28(%rbp), %al
	andb	$1, %al
	movzbl	%al, %eax
	cmpq	$0, %rax
	jne	.LBB31_5
	movq	-56(%rbp), %rax
	movb	-27(%rbp), %cl
	movb	%cl, -73(%rbp)
	movq	16(%rax), %rcx
	movq	%rcx, -72(%rbp)
	movq	16(%rax), %rax
	addq	$1, %rax
	movq	%rax, -64(%rbp)
	setb	%al
	testb	$1, %al
	jne	.LBB31_7
	jmp	.LBB31_6
.LBB31_5:
	movq	-48(%rbp), %rax
	movq	$0, (%rax)
	jmp	.LBB31_10
.LBB31_6:
	movq	-48(%rbp), %rax
	movb	-73(%rbp), %cl
	movq	-72(%rbp), %rdx
	movq	-56(%rbp), %r8
	movq	-64(%rbp), %r9
	movq	%r9, 16(%r8)
	movq	%rdx, -24(%rbp)
	movb	%cl, -16(%rbp)
	movq	-24(%rbp), %rdx
	movb	-16(%rbp), %cl
	movq	%rdx, 8(%rax)
	movb	%cl, 16(%rax)
	movq	$1, (%rax)
	jmp	.LBB31_10
.LBB31_7:
.Ltmp16:
	leaq	str.0(%rip), %rcx
	leaq	__unnamed_3(%rip), %r8
	movl	$28, %edx
	callq	_ZN4core9panicking5panic17hb11f2d409f96600eE
.Ltmp17:
	jmp	.LBB31_9
.LBB31_9:
	ud2
.LBB31_10:
	movq	-40(%rbp), %rax
	addq	$112, %rsp
	popq	%rbp
	retq
	.seh_handlerdata
	.long	($cppxdata$_ZN110_$LT$core..iter..adapters..enumerate..Enumerate$LT$I$GT$$u20$as$u20$core..iter..traits..iterator..Iterator$GT$4next17hfce6cf0a332d2b64E)@IMGREL
	.section	.text,"xr",one_only,_ZN110_$LT$core..iter..adapters..enumerate..Enumerate$LT$I$GT$$u20$as$u20$core..iter..traits..iterator..Iterator$GT$4next17hfce6cf0a332d2b64E
	.seh_endproc
	.def	"?dtor$8@?0?_ZN110_$LT$core..iter..adapters..enumerate..Enumerate$LT$I$GT$$u20$as$u20$core..iter..traits..iterator..Iterator$GT$4next17hfce6cf0a332d2b64E@4HA";
	.scl	3;
	.type	32;
	.endef
	.p2align	4, 0x90
"?dtor$8@?0?_ZN110_$LT$core..iter..adapters..enumerate..Enumerate$LT$I$GT$$u20$as$u20$core..iter..traits..iterator..Iterator$GT$4next17hfce6cf0a332d2b64E@4HA":
.seh_proc "?dtor$8@?0?_ZN110_$LT$core..iter..adapters..enumerate..Enumerate$LT$I$GT$$u20$as$u20$core..iter..traits..iterator..Iterator$GT$4next17hfce6cf0a332d2b64E@4HA"
.LBB31_8:
	movq	%rdx, 16(%rsp)
	pushq	%rbp
	.seh_pushreg %rbp
	subq	$32, %rsp
	.seh_stackalloc 32
	leaq	112(%rdx), %rbp
	.seh_endprologue
	addq	$32, %rsp
	popq	%rbp
	retq
.Lfunc_end5:
	.seh_handlerdata
	.section	.text,"xr",one_only,_ZN110_$LT$core..iter..adapters..enumerate..Enumerate$LT$I$GT$$u20$as$u20$core..iter..traits..iterator..Iterator$GT$4next17hfce6cf0a332d2b64E
	.seh_endproc
	.section	.xdata,"dr",associative,_ZN110_$LT$core..iter..adapters..enumerate..Enumerate$LT$I$GT$$u20$as$u20$core..iter..traits..iterator..Iterator$GT$4next17hfce6cf0a332d2b64E
	.p2align	2, 0x0
$cppxdata$_ZN110_$LT$core..iter..adapters..enumerate..Enumerate$LT$I$GT$$u20$as$u20$core..iter..traits..iterator..Iterator$GT$4next17hfce6cf0a332d2b64E:
	.long	429065506
	.long	1
	.long	($stateUnwindMap$_ZN110_$LT$core..iter..adapters..enumerate..Enumerate$LT$I$GT$$u20$as$u20$core..iter..traits..iterator..Iterator$GT$4next17hfce6cf0a332d2b64E)@IMGREL
	.long	0
	.long	0
	.long	3
	.long	($ip2state$_ZN110_$LT$core..iter..adapters..enumerate..Enumerate$LT$I$GT$$u20$as$u20$core..iter..traits..iterator..Iterator$GT$4next17hfce6cf0a332d2b64E)@IMGREL
	.long	104
	.long	0
	.long	1
$stateUnwindMap$_ZN110_$LT$core..iter..adapters..enumerate..Enumerate$LT$I$GT$$u20$as$u20$core..iter..traits..iterator..Iterator$GT$4next17hfce6cf0a332d2b64E:
	.long	-1
	.long	"?dtor$8@?0?_ZN110_$LT$core..iter..adapters..enumerate..Enumerate$LT$I$GT$$u20$as$u20$core..iter..traits..iterator..Iterator$GT$4next17hfce6cf0a332d2b64E@4HA"@IMGREL
$ip2state$_ZN110_$LT$core..iter..adapters..enumerate..Enumerate$LT$I$GT$$u20$as$u20$core..iter..traits..iterator..Iterator$GT$4next17hfce6cf0a332d2b64E:
	.long	.Lfunc_begin5@IMGREL
	.long	-1
	.long	.Ltmp16@IMGREL+1
	.long	0
	.long	.Ltmp17@IMGREL+1
	.long	-1
	.section	.text,"xr",one_only,_ZN110_$LT$core..iter..adapters..enumerate..Enumerate$LT$I$GT$$u20$as$u20$core..iter..traits..iterator..Iterator$GT$4next17hfce6cf0a332d2b64E

	.def	_ZN111_$LT$core..iter..adapters..zip..Zip$LT$A$C$B$GT$$u20$as$u20$core..iter..adapters..zip..ZipImpl$LT$A$C$B$GT$$GT$3new17h65a59f127b1ff939E;
	.scl	2;
	.type	32;
	.endef
	.section	.text,"xr",one_only,_ZN111_$LT$core..iter..adapters..zip..Zip$LT$A$C$B$GT$$u20$as$u20$core..iter..adapters..zip..ZipImpl$LT$A$C$B$GT$$GT$3new17h65a59f127b1ff939E
	.globl	_ZN111_$LT$core..iter..adapters..zip..Zip$LT$A$C$B$GT$$u20$as$u20$core..iter..adapters..zip..ZipImpl$LT$A$C$B$GT$$GT$3new17h65a59f127b1ff939E
	.p2align	4, 0x90
_ZN111_$LT$core..iter..adapters..zip..Zip$LT$A$C$B$GT$$u20$as$u20$core..iter..adapters..zip..ZipImpl$LT$A$C$B$GT$$GT$3new17h65a59f127b1ff939E:
.Lfunc_begin6:
.seh_proc _ZN111_$LT$core..iter..adapters..zip..Zip$LT$A$C$B$GT$$u20$as$u20$core..iter..adapters..zip..ZipImpl$LT$A$C$B$GT$$GT$3new17h65a59f127b1ff939E
	.seh_handler __CxxFrameHandler3, @unwind, @except
	pushq	%rbp
	.seh_pushreg %rbp
	pushq	%rsi
	.seh_pushreg %rsi
	subq	$120, %rsp
	.seh_stackalloc 120
	leaq	112(%rsp), %rbp
	.seh_setframe %rbp, 112
	.seh_endprologue
	movq	$-2, (%rbp)
	movq	%rcx, -56(%rbp)
	movq	%rcx, -48(%rbp)
	movq	64(%rbp), %rax
	movq	%rdx, -32(%rbp)
	movq	%r8, -24(%rbp)
	movq	%r9, -16(%rbp)
	movq	%rax, -8(%rbp)
.Ltmp18:
	leaq	-32(%rbp), %rcx
	callq	_ZN4core4iter8adapters3zip27TrustedRandomAccessNoCoerce4size17hb48b947d71bc5af8E
.Ltmp19:
	movq	%rax, -40(%rbp)
	jmp	.LBB32_2
.LBB32_2:
.Ltmp20:
	leaq	-16(%rbp), %rcx
	callq	_ZN4core4iter8adapters3zip27TrustedRandomAccessNoCoerce4size17hb48b947d71bc5af8E
.Ltmp21:
	movq	%rax, -64(%rbp)
	jmp	.LBB32_3
.LBB32_3:
.Ltmp22:
	movq	-64(%rbp), %rdx
	movq	-40(%rbp), %rcx
	callq	_ZN4core3cmp6min_by17h945a005e00d30626E
.Ltmp23:
	movq	%rax, -72(%rbp)
	jmp	.LBB32_4
.LBB32_4:
	movq	-48(%rbp), %rax
	movq	-56(%rbp), %rcx
	movq	-40(%rbp), %rdx
	movq	-72(%rbp), %r8
	movq	-32(%rbp), %rsi
	movq	-24(%rbp), %r11
	movq	-16(%rbp), %r10
	movq	-8(%rbp), %r9
	movq	%rsi, (%rcx)
	movq	%r11, 8(%rcx)
	movq	%r10, 16(%rcx)
	movq	%r9, 24(%rcx)
	movq	$0, 32(%rcx)
	movq	%r8, 40(%rcx)
	movq	%rdx, 48(%rcx)
	addq	$120, %rsp
	popq	%rsi
	popq	%rbp
	retq
	.seh_handlerdata
	.long	($cppxdata$_ZN111_$LT$core..iter..adapters..zip..Zip$LT$A$C$B$GT$$u20$as$u20$core..iter..adapters..zip..ZipImpl$LT$A$C$B$GT$$GT$3new17h65a59f127b1ff939E)@IMGREL
	.section	.text,"xr",one_only,_ZN111_$LT$core..iter..adapters..zip..Zip$LT$A$C$B$GT$$u20$as$u20$core..iter..adapters..zip..ZipImpl$LT$A$C$B$GT$$GT$3new17h65a59f127b1ff939E
	.seh_endproc
	.def	"?dtor$1@?0?_ZN111_$LT$core..iter..adapters..zip..Zip$LT$A$C$B$GT$$u20$as$u20$core..iter..adapters..zip..ZipImpl$LT$A$C$B$GT$$GT$3new17h65a59f127b1ff939E@4HA";
	.scl	3;
	.type	32;
	.endef
	.p2align	4, 0x90
"?dtor$1@?0?_ZN111_$LT$core..iter..adapters..zip..Zip$LT$A$C$B$GT$$u20$as$u20$core..iter..adapters..zip..ZipImpl$LT$A$C$B$GT$$GT$3new17h65a59f127b1ff939E@4HA":
.seh_proc "?dtor$1@?0?_ZN111_$LT$core..iter..adapters..zip..Zip$LT$A$C$B$GT$$u20$as$u20$core..iter..adapters..zip..ZipImpl$LT$A$C$B$GT$$GT$3new17h65a59f127b1ff939E@4HA"
.LBB32_1:
	movq	%rdx, 16(%rsp)
	pushq	%rbp
	.seh_pushreg %rbp
	pushq	%rsi
	.seh_pushreg %rsi
	subq	$40, %rsp
	.seh_stackalloc 40
	leaq	112(%rdx), %rbp
	.seh_endprologue
	addq	$40, %rsp
	popq	%rsi
	popq	%rbp
	retq
.Lfunc_end6:
	.seh_handlerdata
	.section	.text,"xr",one_only,_ZN111_$LT$core..iter..adapters..zip..Zip$LT$A$C$B$GT$$u20$as$u20$core..iter..adapters..zip..ZipImpl$LT$A$C$B$GT$$GT$3new17h65a59f127b1ff939E
	.seh_endproc
	.section	.xdata,"dr",associative,_ZN111_$LT$core..iter..adapters..zip..Zip$LT$A$C$B$GT$$u20$as$u20$core..iter..adapters..zip..ZipImpl$LT$A$C$B$GT$$GT$3new17h65a59f127b1ff939E
	.p2align	2, 0x0
$cppxdata$_ZN111_$LT$core..iter..adapters..zip..Zip$LT$A$C$B$GT$$u20$as$u20$core..iter..adapters..zip..ZipImpl$LT$A$C$B$GT$$GT$3new17h65a59f127b1ff939E:
	.long	429065506
	.long	1
	.long	($stateUnwindMap$_ZN111_$LT$core..iter..adapters..zip..Zip$LT$A$C$B$GT$$u20$as$u20$core..iter..adapters..zip..ZipImpl$LT$A$C$B$GT$$GT$3new17h65a59f127b1ff939E)@IMGREL
	.long	0
	.long	0
	.long	3
	.long	($ip2state$_ZN111_$LT$core..iter..adapters..zip..Zip$LT$A$C$B$GT$$u20$as$u20$core..iter..adapters..zip..ZipImpl$LT$A$C$B$GT$$GT$3new17h65a59f127b1ff939E)@IMGREL
	.long	112
	.long	0
	.long	1
$stateUnwindMap$_ZN111_$LT$core..iter..adapters..zip..Zip$LT$A$C$B$GT$$u20$as$u20$core..iter..adapters..zip..ZipImpl$LT$A$C$B$GT$$GT$3new17h65a59f127b1ff939E:
	.long	-1
	.long	"?dtor$1@?0?_ZN111_$LT$core..iter..adapters..zip..Zip$LT$A$C$B$GT$$u20$as$u20$core..iter..adapters..zip..ZipImpl$LT$A$C$B$GT$$GT$3new17h65a59f127b1ff939E@4HA"@IMGREL
$ip2state$_ZN111_$LT$core..iter..adapters..zip..Zip$LT$A$C$B$GT$$u20$as$u20$core..iter..adapters..zip..ZipImpl$LT$A$C$B$GT$$GT$3new17h65a59f127b1ff939E:
	.long	.Lfunc_begin6@IMGREL
	.long	-1
	.long	.Ltmp18@IMGREL+1
	.long	0
	.long	.Ltmp23@IMGREL+1
	.long	-1
	.section	.text,"xr",one_only,_ZN111_$LT$core..iter..adapters..zip..Zip$LT$A$C$B$GT$$u20$as$u20$core..iter..adapters..zip..ZipImpl$LT$A$C$B$GT$$GT$3new17h65a59f127b1ff939E

	.def	_ZN111_$LT$core..iter..adapters..zip..Zip$LT$A$C$B$GT$$u20$as$u20$core..iter..adapters..zip..ZipImpl$LT$A$C$B$GT$$GT$4next17hdaeb07b9594bdf5cE;
	.scl	2;
	.type	32;
	.endef
	.section	.text,"xr",one_only,_ZN111_$LT$core..iter..adapters..zip..Zip$LT$A$C$B$GT$$u20$as$u20$core..iter..adapters..zip..ZipImpl$LT$A$C$B$GT$$GT$4next17hdaeb07b9594bdf5cE
	.globl	_ZN111_$LT$core..iter..adapters..zip..Zip$LT$A$C$B$GT$$u20$as$u20$core..iter..adapters..zip..ZipImpl$LT$A$C$B$GT$$GT$4next17hdaeb07b9594bdf5cE
	.p2align	4, 0x90
_ZN111_$LT$core..iter..adapters..zip..Zip$LT$A$C$B$GT$$u20$as$u20$core..iter..adapters..zip..ZipImpl$LT$A$C$B$GT$$GT$4next17hdaeb07b9594bdf5cE:
.Lfunc_begin7:
.seh_proc _ZN111_$LT$core..iter..adapters..zip..Zip$LT$A$C$B$GT$$u20$as$u20$core..iter..adapters..zip..ZipImpl$LT$A$C$B$GT$$GT$4next17hdaeb07b9594bdf5cE
	.seh_handler __CxxFrameHandler3, @unwind, @except
	pushq	%rbp
	.seh_pushreg %rbp
	subq	$112, %rsp
	.seh_stackalloc 112
	leaq	112(%rsp), %rbp
	.seh_setframe %rbp, 112
	.seh_endprologue
	movq	$-2, -8(%rbp)
	movq	%rcx, -48(%rbp)
	movq	32(%rcx), %rax
	cmpq	40(%rcx), %rax
	jb	.LBB33_2
	movq	$0, -40(%rbp)
	jmp	.LBB33_3
.LBB33_2:
	movq	-48(%rbp), %rcx
	movq	32(%rcx), %rdx
	movq	%rdx, -72(%rbp)
	movq	%rdx, %rax
	incq	%rax
	movq	%rax, 32(%rcx)
	callq	_ZN91_$LT$core..slice..iter..Iter$LT$T$GT$$u20$as$u20$core..iter..traits..iterator..Iterator$GT$24__iterator_get_unchecked17h169d4d10180f880eE
	movq	-48(%rbp), %rcx
	movq	-72(%rbp), %rdx
	movq	%rax, -64(%rbp)
	addq	$16, %rcx
.Ltmp24:
	callq	_ZN91_$LT$core..slice..iter..Iter$LT$T$GT$$u20$as$u20$core..iter..traits..iterator..Iterator$GT$24__iterator_get_unchecked17h169d4d10180f880eE
.Ltmp25:
	movq	%rax, -56(%rbp)
	jmp	.LBB33_5
.LBB33_3:
	movq	-40(%rbp), %rax
	movq	-32(%rbp), %rdx
	addq	$112, %rsp
	popq	%rbp
	retq
.LBB33_5:
	movq	-56(%rbp), %rax
	movq	-64(%rbp), %rcx
	movq	%rcx, -24(%rbp)
	movq	%rax, -16(%rbp)
	movq	-24(%rbp), %rcx
	movq	-16(%rbp), %rax
	movq	%rcx, -40(%rbp)
	movq	%rax, -32(%rbp)
	jmp	.LBB33_3
	.seh_handlerdata
	.long	($cppxdata$_ZN111_$LT$core..iter..adapters..zip..Zip$LT$A$C$B$GT$$u20$as$u20$core..iter..adapters..zip..ZipImpl$LT$A$C$B$GT$$GT$4next17hdaeb07b9594bdf5cE)@IMGREL
	.section	.text,"xr",one_only,_ZN111_$LT$core..iter..adapters..zip..Zip$LT$A$C$B$GT$$u20$as$u20$core..iter..adapters..zip..ZipImpl$LT$A$C$B$GT$$GT$4next17hdaeb07b9594bdf5cE
	.seh_endproc
	.def	"?dtor$4@?0?_ZN111_$LT$core..iter..adapters..zip..Zip$LT$A$C$B$GT$$u20$as$u20$core..iter..adapters..zip..ZipImpl$LT$A$C$B$GT$$GT$4next17hdaeb07b9594bdf5cE@4HA";
	.scl	3;
	.type	32;
	.endef
	.p2align	4, 0x90
"?dtor$4@?0?_ZN111_$LT$core..iter..adapters..zip..Zip$LT$A$C$B$GT$$u20$as$u20$core..iter..adapters..zip..ZipImpl$LT$A$C$B$GT$$GT$4next17hdaeb07b9594bdf5cE@4HA":
.seh_proc "?dtor$4@?0?_ZN111_$LT$core..iter..adapters..zip..Zip$LT$A$C$B$GT$$u20$as$u20$core..iter..adapters..zip..ZipImpl$LT$A$C$B$GT$$GT$4next17hdaeb07b9594bdf5cE@4HA"
.LBB33_4:
	movq	%rdx, 16(%rsp)
	pushq	%rbp
	.seh_pushreg %rbp
	subq	$32, %rsp
	.seh_stackalloc 32
	leaq	112(%rdx), %rbp
	.seh_endprologue
	addq	$32, %rsp
	popq	%rbp
	retq
.Lfunc_end7:
	.seh_handlerdata
	.section	.text,"xr",one_only,_ZN111_$LT$core..iter..adapters..zip..Zip$LT$A$C$B$GT$$u20$as$u20$core..iter..adapters..zip..ZipImpl$LT$A$C$B$GT$$GT$4next17hdaeb07b9594bdf5cE
	.seh_endproc
	.section	.xdata,"dr",associative,_ZN111_$LT$core..iter..adapters..zip..Zip$LT$A$C$B$GT$$u20$as$u20$core..iter..adapters..zip..ZipImpl$LT$A$C$B$GT$$GT$4next17hdaeb07b9594bdf5cE
	.p2align	2, 0x0
$cppxdata$_ZN111_$LT$core..iter..adapters..zip..Zip$LT$A$C$B$GT$$u20$as$u20$core..iter..adapters..zip..ZipImpl$LT$A$C$B$GT$$GT$4next17hdaeb07b9594bdf5cE:
	.long	429065506
	.long	1
	.long	($stateUnwindMap$_ZN111_$LT$core..iter..adapters..zip..Zip$LT$A$C$B$GT$$u20$as$u20$core..iter..adapters..zip..ZipImpl$LT$A$C$B$GT$$GT$4next17hdaeb07b9594bdf5cE)@IMGREL
	.long	0
	.long	0
	.long	3
	.long	($ip2state$_ZN111_$LT$core..iter..adapters..zip..Zip$LT$A$C$B$GT$$u20$as$u20$core..iter..adapters..zip..ZipImpl$LT$A$C$B$GT$$GT$4next17hdaeb07b9594bdf5cE)@IMGREL
	.long	104
	.long	0
	.long	1
$stateUnwindMap$_ZN111_$LT$core..iter..adapters..zip..Zip$LT$A$C$B$GT$$u20$as$u20$core..iter..adapters..zip..ZipImpl$LT$A$C$B$GT$$GT$4next17hdaeb07b9594bdf5cE:
	.long	-1
	.long	"?dtor$4@?0?_ZN111_$LT$core..iter..adapters..zip..Zip$LT$A$C$B$GT$$u20$as$u20$core..iter..adapters..zip..ZipImpl$LT$A$C$B$GT$$GT$4next17hdaeb07b9594bdf5cE@4HA"@IMGREL
$ip2state$_ZN111_$LT$core..iter..adapters..zip..Zip$LT$A$C$B$GT$$u20$as$u20$core..iter..adapters..zip..ZipImpl$LT$A$C$B$GT$$GT$4next17hdaeb07b9594bdf5cE:
	.long	.Lfunc_begin7@IMGREL
	.long	-1
	.long	.Ltmp24@IMGREL+1
	.long	0
	.long	.Ltmp25@IMGREL+1
	.long	-1
	.section	.text,"xr",one_only,_ZN111_$LT$core..iter..adapters..zip..Zip$LT$A$C$B$GT$$u20$as$u20$core..iter..adapters..zip..ZipImpl$LT$A$C$B$GT$$GT$4next17hdaeb07b9594bdf5cE

	.def	_ZN113_$LT$alloc..string..String$u20$as$u20$core..ops..index..Index$LT$core..ops..range..RangeFrom$LT$usize$GT$$GT$$GT$5index17hc531db403e5300f2E;
	.scl	3;
	.type	32;
	.endef
	.section	.text,"xr",one_only,_ZN113_$LT$alloc..string..String$u20$as$u20$core..ops..index..Index$LT$core..ops..range..RangeFrom$LT$usize$GT$$GT$$GT$5index17hc531db403e5300f2E
	.p2align	4, 0x90
_ZN113_$LT$alloc..string..String$u20$as$u20$core..ops..index..Index$LT$core..ops..range..RangeFrom$LT$usize$GT$$GT$$GT$5index17hc531db403e5300f2E:
.seh_proc _ZN113_$LT$alloc..string..String$u20$as$u20$core..ops..index..Index$LT$core..ops..range..RangeFrom$LT$usize$GT$$GT$$GT$5index17hc531db403e5300f2E
	subq	$120, %rsp
	.seh_stackalloc 120
	.seh_endprologue
	movq	%r8, 40(%rsp)
	movq	%rdx, 48(%rsp)
	movq	%rcx, %rax
	movq	48(%rsp), %rcx
	movq	8(%rax), %rdx
	movq	16(%rax), %rax
	movq	%rdx, 88(%rsp)
	movq	%rax, 96(%rsp)
	movq	88(%rsp), %rdx
	movq	96(%rsp), %rax
	movq	%rdx, 72(%rsp)
	movq	%rax, 80(%rsp)
	movq	72(%rsp), %rdx
	movq	%rdx, 56(%rsp)
	movq	80(%rsp), %r8
	movq	%r8, 64(%rsp)
	callq	_ZN4core3str6traits112_$LT$impl$u20$core..slice..index..SliceIndex$LT$str$GT$$u20$for$u20$core..ops..range..RangeFrom$LT$usize$GT$$GT$3get17h42c2877f5a00448dE
	movq	%rdx, 112(%rsp)
	movq	%rax, 104(%rsp)
	movq	104(%rsp), %rdx
	movl	$1, %eax
	xorl	%ecx, %ecx
	cmpq	$0, %rdx
	cmoveq	%rcx, %rax
	cmpq	$0, %rax
	jne	.LBB34_2
	movq	64(%rsp), %r9
	movq	48(%rsp), %r8
	movq	56(%rsp), %rcx
	movq	40(%rsp), %rdx
	movq	%rsp, %rax
	movq	%rdx, 32(%rax)
	movq	%r9, %rdx
	callq	_ZN4core3str16slice_error_fail17h1fda531fa5713a2aE
.LBB34_2:
	movq	104(%rsp), %rax
	movq	112(%rsp), %rdx
	addq	$120, %rsp
	retq
	.seh_endproc

	.def	_ZN125_$LT$$LT$T$u20$as$u20$alloc..slice..hack..ConvertVec$GT$..to_vec..DropGuard$LT$T$C$A$GT$$u20$as$u20$core..ops..drop..Drop$GT$4drop17h30cb73eba59d34bfE;
	.scl	2;
	.type	32;
	.endef
	.section	.text,"xr",one_only,_ZN125_$LT$$LT$T$u20$as$u20$alloc..slice..hack..ConvertVec$GT$..to_vec..DropGuard$LT$T$C$A$GT$$u20$as$u20$core..ops..drop..Drop$GT$4drop17h30cb73eba59d34bfE
	.globl	_ZN125_$LT$$LT$T$u20$as$u20$alloc..slice..hack..ConvertVec$GT$..to_vec..DropGuard$LT$T$C$A$GT$$u20$as$u20$core..ops..drop..Drop$GT$4drop17h30cb73eba59d34bfE
	.p2align	4, 0x90
_ZN125_$LT$$LT$T$u20$as$u20$alloc..slice..hack..ConvertVec$GT$..to_vec..DropGuard$LT$T$C$A$GT$$u20$as$u20$core..ops..drop..Drop$GT$4drop17h30cb73eba59d34bfE:
	movq	(%rcx), %rax
	movq	8(%rcx), %rcx
	movq	%rcx, 16(%rax)
	retq

	.def	_ZN125_$LT$$LT$T$u20$as$u20$alloc..slice..hack..ConvertVec$GT$..to_vec..DropGuard$LT$T$C$A$GT$$u20$as$u20$core..ops..drop..Drop$GT$4drop17h483f9bbd784c3b4cE;
	.scl	2;
	.type	32;
	.endef
	.section	.text,"xr",one_only,_ZN125_$LT$$LT$T$u20$as$u20$alloc..slice..hack..ConvertVec$GT$..to_vec..DropGuard$LT$T$C$A$GT$$u20$as$u20$core..ops..drop..Drop$GT$4drop17h483f9bbd784c3b4cE
	.globl	_ZN125_$LT$$LT$T$u20$as$u20$alloc..slice..hack..ConvertVec$GT$..to_vec..DropGuard$LT$T$C$A$GT$$u20$as$u20$core..ops..drop..Drop$GT$4drop17h483f9bbd784c3b4cE
	.p2align	4, 0x90
_ZN125_$LT$$LT$T$u20$as$u20$alloc..slice..hack..ConvertVec$GT$..to_vec..DropGuard$LT$T$C$A$GT$$u20$as$u20$core..ops..drop..Drop$GT$4drop17h483f9bbd784c3b4cE:
	movq	(%rcx), %rax
	movq	8(%rcx), %rcx
	movq	%rcx, 16(%rax)
	retq

	.def	_ZN125_$LT$$LT$T$u20$as$u20$alloc..slice..hack..ConvertVec$GT$..to_vec..DropGuard$LT$T$C$A$GT$$u20$as$u20$core..ops..drop..Drop$GT$4drop17hfd87bb56fc4f1c01E;
	.scl	2;
	.type	32;
	.endef
	.section	.text,"xr",one_only,_ZN125_$LT$$LT$T$u20$as$u20$alloc..slice..hack..ConvertVec$GT$..to_vec..DropGuard$LT$T$C$A$GT$$u20$as$u20$core..ops..drop..Drop$GT$4drop17hfd87bb56fc4f1c01E
	.globl	_ZN125_$LT$$LT$T$u20$as$u20$alloc..slice..hack..ConvertVec$GT$..to_vec..DropGuard$LT$T$C$A$GT$$u20$as$u20$core..ops..drop..Drop$GT$4drop17hfd87bb56fc4f1c01E
	.p2align	4, 0x90
_ZN125_$LT$$LT$T$u20$as$u20$alloc..slice..hack..ConvertVec$GT$..to_vec..DropGuard$LT$T$C$A$GT$$u20$as$u20$core..ops..drop..Drop$GT$4drop17hfd87bb56fc4f1c01E:
	movq	(%rcx), %rax
	movq	8(%rcx), %rcx
	movq	%rcx, 16(%rax)
	retq

	.def	_ZN132_$LT$alloc..vec..Vec$LT$T$C$A$GT$$u20$as$u20$alloc..vec..spec_extend..SpecExtend$LT$$RF$T$C$core..slice..iter..Iter$LT$T$GT$$GT$$GT$11spec_extend17hcd5421f7f1bb62abE;
	.scl	2;
	.type	32;
	.endef
	.section	.text,"xr",one_only,_ZN132_$LT$alloc..vec..Vec$LT$T$C$A$GT$$u20$as$u20$alloc..vec..spec_extend..SpecExtend$LT$$RF$T$C$core..slice..iter..Iter$LT$T$GT$$GT$$GT$11spec_extend17hcd5421f7f1bb62abE
	.globl	_ZN132_$LT$alloc..vec..Vec$LT$T$C$A$GT$$u20$as$u20$alloc..vec..spec_extend..SpecExtend$LT$$RF$T$C$core..slice..iter..Iter$LT$T$GT$$GT$$GT$11spec_extend17hcd5421f7f1bb62abE
	.p2align	4, 0x90
_ZN132_$LT$alloc..vec..Vec$LT$T$C$A$GT$$u20$as$u20$alloc..vec..spec_extend..SpecExtend$LT$$RF$T$C$core..slice..iter..Iter$LT$T$GT$$GT$$GT$11spec_extend17hcd5421f7f1bb62abE:
.seh_proc _ZN132_$LT$alloc..vec..Vec$LT$T$C$A$GT$$u20$as$u20$alloc..vec..spec_extend..SpecExtend$LT$$RF$T$C$core..slice..iter..Iter$LT$T$GT$$GT$$GT$11spec_extend17hcd5421f7f1bb62abE
	subq	$120, %rsp
	.seh_stackalloc 120
	.seh_endprologue
	movq	%rcx, 56(%rsp)
	movq	%rdx, 64(%rsp)
	movq	%r8, 72(%rsp)
	movq	64(%rsp), %rax
	movq	72(%rsp), %rdx
	subq	%rax, %rdx
	movq	%rdx, 80(%rsp)
	movq	%rax, 104(%rsp)
	movq	80(%rsp), %rax
	movq	%rax, 112(%rsp)
	movq	104(%rsp), %rdx
	movq	112(%rsp), %rax
	movq	%rdx, 88(%rsp)
	movq	%rax, 96(%rsp)
	movq	88(%rsp), %rax
	movq	%rax, 40(%rsp)
	movq	96(%rsp), %rdx
	movq	%rdx, 48(%rsp)
	callq	_ZN5alloc3vec16Vec$LT$T$C$A$GT$7reserve17h009c48179aa9b3afE
	movq	40(%rsp), %rdx
	movq	48(%rsp), %r8
	movq	56(%rsp), %rax
	movq	16(%rax), %rcx
	addq	8(%rax), %rcx
	shlq	$0, %r8
	callq	memcpy
	movq	48(%rsp), %rax
	movq	56(%rsp), %rcx
	addq	16(%rcx), %rax
	movq	%rax, 16(%rcx)
	addq	$120, %rsp
	retq
	.seh_endproc

	.def	_ZN150_$LT$$LT$alloc..vec..drain..Drain$LT$T$C$A$GT$$u20$as$u20$core..ops..drop..Drop$GT$..drop..DropGuard$LT$T$C$A$GT$$u20$as$u20$core..ops..drop..Drop$GT$4drop17h7c4bed07181625e0E;
	.scl	2;
	.type	32;
	.endef
	.section	.text,"xr",one_only,_ZN150_$LT$$LT$alloc..vec..drain..Drain$LT$T$C$A$GT$$u20$as$u20$core..ops..drop..Drop$GT$..drop..DropGuard$LT$T$C$A$GT$$u20$as$u20$core..ops..drop..Drop$GT$4drop17h7c4bed07181625e0E
	.globl	_ZN150_$LT$$LT$alloc..vec..drain..Drain$LT$T$C$A$GT$$u20$as$u20$core..ops..drop..Drop$GT$..drop..DropGuard$LT$T$C$A$GT$$u20$as$u20$core..ops..drop..Drop$GT$4drop17h7c4bed07181625e0E
	.p2align	4, 0x90
_ZN150_$LT$$LT$alloc..vec..drain..Drain$LT$T$C$A$GT$$u20$as$u20$core..ops..drop..Drop$GT$..drop..DropGuard$LT$T$C$A$GT$$u20$as$u20$core..ops..drop..Drop$GT$4drop17h7c4bed07181625e0E:
.seh_proc _ZN150_$LT$$LT$alloc..vec..drain..Drain$LT$T$C$A$GT$$u20$as$u20$core..ops..drop..Drop$GT$..drop..DropGuard$LT$T$C$A$GT$$u20$as$u20$core..ops..drop..Drop$GT$4drop17h7c4bed07181625e0E
	subq	$72, %rsp
	.seh_stackalloc 72
	.seh_endprologue
	movq	%rcx, 64(%rsp)
	movq	(%rcx), %rax
	cmpq	$0, 32(%rax)
	ja	.LBB39_2
	jmp	.LBB39_3
.LBB39_2:
	movq	64(%rsp), %rax
	movq	(%rax), %rcx
	movq	16(%rcx), %rcx
	movq	%rcx, 40(%rsp)
	movq	16(%rcx), %rcx
	movq	%rcx, 48(%rsp)
	movq	(%rax), %rax
	movq	24(%rax), %rax
	movq	%rax, 56(%rsp)
	cmpq	%rcx, %rax
	jne	.LBB39_5
	jmp	.LBB39_4
.LBB39_3:
	addq	$72, %rsp
	retq
.LBB39_4:
	movq	40(%rsp), %rax
	movq	48(%rsp), %rcx
	movq	64(%rsp), %rdx
	movq	(%rdx), %rdx
	addq	32(%rdx), %rcx
	movq	%rcx, 16(%rax)
	jmp	.LBB39_3
.LBB39_5:
	movq	64(%rsp), %rax
	movq	40(%rsp), %r8
	movq	48(%rsp), %rcx
	movq	56(%rsp), %rdx
	imulq	$20, %rdx, %rdx
	addq	8(%r8), %rdx
	imulq	$20, %rcx, %rcx
	addq	8(%r8), %rcx
	movq	(%rax), %rax
	imulq	$20, 32(%rax), %r8
	callq	memmove
	jmp	.LBB39_4
	.seh_endproc

	.def	_ZN153_$LT$core..result..Result$LT$T$C$F$GT$$u20$as$u20$core..ops..try_trait..FromResidual$LT$core..result..Result$LT$core..convert..Infallible$C$E$GT$$GT$$GT$13from_residual17h13b7dc60bb56d74dE;
	.scl	2;
	.type	32;
	.endef
	.section	.text,"xr",one_only,_ZN153_$LT$core..result..Result$LT$T$C$F$GT$$u20$as$u20$core..ops..try_trait..FromResidual$LT$core..result..Result$LT$core..convert..Infallible$C$E$GT$$GT$$GT$13from_residual17h13b7dc60bb56d74dE
	.globl	_ZN153_$LT$core..result..Result$LT$T$C$F$GT$$u20$as$u20$core..ops..try_trait..FromResidual$LT$core..result..Result$LT$core..convert..Infallible$C$E$GT$$GT$$GT$13from_residual17h13b7dc60bb56d74dE
	.p2align	4, 0x90
_ZN153_$LT$core..result..Result$LT$T$C$F$GT$$u20$as$u20$core..ops..try_trait..FromResidual$LT$core..result..Result$LT$core..convert..Infallible$C$E$GT$$GT$$GT$13from_residual17h13b7dc60bb56d74dE:
.seh_proc _ZN153_$LT$core..result..Result$LT$T$C$F$GT$$u20$as$u20$core..ops..try_trait..FromResidual$LT$core..result..Result$LT$core..convert..Infallible$C$E$GT$$GT$$GT$13from_residual17h13b7dc60bb56d74dE
	subq	$56, %rsp
	.seh_stackalloc 56
	.seh_endprologue
	movq	%rcx, 40(%rsp)
	movq	%rcx, 48(%rsp)
	callq	_ZN105_$LT$proc_macro2..imp..LexError$u20$as$u20$core..convert..From$LT$proc_macro2..fallback..LexError$GT$$GT$4from17hc5c304c279037334E
	movq	40(%rsp), %rcx
	movb	%al, %dl
	movq	48(%rsp), %rax
	andb	$1, %dl
	movb	%dl, 8(%rcx)
	movabsq	$-9223372036854775807, %rdx
	movq	%rdx, (%rcx)
	addq	$56, %rsp
	retq
	.seh_endproc

	.def	_ZN153_$LT$core..result..Result$LT$T$C$F$GT$$u20$as$u20$core..ops..try_trait..FromResidual$LT$core..result..Result$LT$core..convert..Infallible$C$E$GT$$GT$$GT$13from_residual17h2e9ec14289f5ffb6E;
	.scl	2;
	.type	32;
	.endef
	.section	.text,"xr",one_only,_ZN153_$LT$core..result..Result$LT$T$C$F$GT$$u20$as$u20$core..ops..try_trait..FromResidual$LT$core..result..Result$LT$core..convert..Infallible$C$E$GT$$GT$$GT$13from_residual17h2e9ec14289f5ffb6E
	.globl	_ZN153_$LT$core..result..Result$LT$T$C$F$GT$$u20$as$u20$core..ops..try_trait..FromResidual$LT$core..result..Result$LT$core..convert..Infallible$C$E$GT$$GT$$GT$13from_residual17h2e9ec14289f5ffb6E
	.p2align	4, 0x90
_ZN153_$LT$core..result..Result$LT$T$C$F$GT$$u20$as$u20$core..ops..try_trait..FromResidual$LT$core..result..Result$LT$core..convert..Infallible$C$E$GT$$GT$$GT$13from_residual17h2e9ec14289f5ffb6E:
.seh_proc _ZN153_$LT$core..result..Result$LT$T$C$F$GT$$u20$as$u20$core..ops..try_trait..FromResidual$LT$core..result..Result$LT$core..convert..Infallible$C$E$GT$$GT$$GT$13from_residual17h2e9ec14289f5ffb6E
	pushq	%rax
	.seh_stackalloc 8
	.seh_endprologue
	movq	%rcx, %rax
	andb	$1, %dl
	movb	%dl, 7(%rsp)
	movb	7(%rsp), %dl
	andb	$1, %dl
	movb	%dl, 8(%rcx)
	movabsq	$-9223372036854775807, %rdx
	movq	%rdx, (%rcx)
	popq	%rcx
	retq
	.seh_endproc

	.def	_ZN153_$LT$core..result..Result$LT$T$C$F$GT$$u20$as$u20$core..ops..try_trait..FromResidual$LT$core..result..Result$LT$core..convert..Infallible$C$E$GT$$GT$$GT$13from_residual17h4fa1feaf6894cf0fE;
	.scl	2;
	.type	32;
	.endef
	.section	.text,"xr",one_only,_ZN153_$LT$core..result..Result$LT$T$C$F$GT$$u20$as$u20$core..ops..try_trait..FromResidual$LT$core..result..Result$LT$core..convert..Infallible$C$E$GT$$GT$$GT$13from_residual17h4fa1feaf6894cf0fE
	.globl	_ZN153_$LT$core..result..Result$LT$T$C$F$GT$$u20$as$u20$core..ops..try_trait..FromResidual$LT$core..result..Result$LT$core..convert..Infallible$C$E$GT$$GT$$GT$13from_residual17h4fa1feaf6894cf0fE
	.p2align	4, 0x90
_ZN153_$LT$core..result..Result$LT$T$C$F$GT$$u20$as$u20$core..ops..try_trait..FromResidual$LT$core..result..Result$LT$core..convert..Infallible$C$E$GT$$GT$$GT$13from_residual17h4fa1feaf6894cf0fE:
	movq	%rcx, %rax
	movl	$1114112, 16(%rcx)
	retq

	.def	_ZN153_$LT$core..result..Result$LT$T$C$F$GT$$u20$as$u20$core..ops..try_trait..FromResidual$LT$core..result..Result$LT$core..convert..Infallible$C$E$GT$$GT$$GT$13from_residual17h51601344916b6aacE;
	.scl	2;
	.type	32;
	.endef
	.section	.text,"xr",one_only,_ZN153_$LT$core..result..Result$LT$T$C$F$GT$$u20$as$u20$core..ops..try_trait..FromResidual$LT$core..result..Result$LT$core..convert..Infallible$C$E$GT$$GT$$GT$13from_residual17h51601344916b6aacE
	.globl	_ZN153_$LT$core..result..Result$LT$T$C$F$GT$$u20$as$u20$core..ops..try_trait..FromResidual$LT$core..result..Result$LT$core..convert..Infallible$C$E$GT$$GT$$GT$13from_residual17h51601344916b6aacE
	.p2align	4, 0x90
_ZN153_$LT$core..result..Result$LT$T$C$F$GT$$u20$as$u20$core..ops..try_trait..FromResidual$LT$core..result..Result$LT$core..convert..Infallible$C$E$GT$$GT$$GT$13from_residual17h51601344916b6aacE:
.seh_proc _ZN153_$LT$core..result..Result$LT$T$C$F$GT$$u20$as$u20$core..ops..try_trait..FromResidual$LT$core..result..Result$LT$core..convert..Infallible$C$E$GT$$GT$$GT$13from_residual17h51601344916b6aacE
	subq	$16, %rsp
	.seh_stackalloc 16
	.seh_endprologue
	movq	$0, (%rsp)
	movq	(%rsp), %rax
	movq	8(%rsp), %rdx
	addq	$16, %rsp
	retq
	.seh_endproc

	.def	_ZN153_$LT$core..result..Result$LT$T$C$F$GT$$u20$as$u20$core..ops..try_trait..FromResidual$LT$core..result..Result$LT$core..convert..Infallible$C$E$GT$$GT$$GT$13from_residual17h5490baf946067d4fE;
	.scl	2;
	.type	32;
	.endef
	.section	.text,"xr",one_only,_ZN153_$LT$core..result..Result$LT$T$C$F$GT$$u20$as$u20$core..ops..try_trait..FromResidual$LT$core..result..Result$LT$core..convert..Infallible$C$E$GT$$GT$$GT$13from_residual17h5490baf946067d4fE
	.globl	_ZN153_$LT$core..result..Result$LT$T$C$F$GT$$u20$as$u20$core..ops..try_trait..FromResidual$LT$core..result..Result$LT$core..convert..Infallible$C$E$GT$$GT$$GT$13from_residual17h5490baf946067d4fE
	.p2align	4, 0x90
_ZN153_$LT$core..result..Result$LT$T$C$F$GT$$u20$as$u20$core..ops..try_trait..FromResidual$LT$core..result..Result$LT$core..convert..Infallible$C$E$GT$$GT$$GT$13from_residual17h5490baf946067d4fE:
.seh_proc _ZN153_$LT$core..result..Result$LT$T$C$F$GT$$u20$as$u20$core..ops..try_trait..FromResidual$LT$core..result..Result$LT$core..convert..Infallible$C$E$GT$$GT$$GT$13from_residual17h5490baf946067d4fE
	pushq	%rax
	.seh_stackalloc 8
	.seh_endprologue
	movq	%rcx, %rax
	andb	$1, %dl
	movb	%dl, 7(%rsp)
	movb	7(%rsp), %dl
	andb	$1, %dl
	movb	%dl, 8(%rcx)
	movabsq	$-9223372036854775807, %rdx
	movq	%rdx, (%rcx)
	popq	%rcx
	retq
	.seh_endproc

	.def	_ZN153_$LT$core..result..Result$LT$T$C$F$GT$$u20$as$u20$core..ops..try_trait..FromResidual$LT$core..result..Result$LT$core..convert..Infallible$C$E$GT$$GT$$GT$13from_residual17h5d3cc98e6733dd97E;
	.scl	2;
	.type	32;
	.endef
	.section	.text,"xr",one_only,_ZN153_$LT$core..result..Result$LT$T$C$F$GT$$u20$as$u20$core..ops..try_trait..FromResidual$LT$core..result..Result$LT$core..convert..Infallible$C$E$GT$$GT$$GT$13from_residual17h5d3cc98e6733dd97E
	.globl	_ZN153_$LT$core..result..Result$LT$T$C$F$GT$$u20$as$u20$core..ops..try_trait..FromResidual$LT$core..result..Result$LT$core..convert..Infallible$C$E$GT$$GT$$GT$13from_residual17h5d3cc98e6733dd97E
	.p2align	4, 0x90
_ZN153_$LT$core..result..Result$LT$T$C$F$GT$$u20$as$u20$core..ops..try_trait..FromResidual$LT$core..result..Result$LT$core..convert..Infallible$C$E$GT$$GT$$GT$13from_residual17h5d3cc98e6733dd97E:
.seh_proc _ZN153_$LT$core..result..Result$LT$T$C$F$GT$$u20$as$u20$core..ops..try_trait..FromResidual$LT$core..result..Result$LT$core..convert..Infallible$C$E$GT$$GT$$GT$13from_residual17h5d3cc98e6733dd97E
	pushq	%rax
	.seh_stackalloc 8
	.seh_endprologue
	movb	$1, 7(%rsp)
	movb	7(%rsp), %al
	andb	$1, %al
	movzbl	%al, %eax
	popq	%rcx
	retq
	.seh_endproc

	.def	_ZN153_$LT$core..result..Result$LT$T$C$F$GT$$u20$as$u20$core..ops..try_trait..FromResidual$LT$core..result..Result$LT$core..convert..Infallible$C$E$GT$$GT$$GT$13from_residual17hb330fb03e2922c3eE;
	.scl	2;
	.type	32;
	.endef
	.section	.text,"xr",one_only,_ZN153_$LT$core..result..Result$LT$T$C$F$GT$$u20$as$u20$core..ops..try_trait..FromResidual$LT$core..result..Result$LT$core..convert..Infallible$C$E$GT$$GT$$GT$13from_residual17hb330fb03e2922c3eE
	.globl	_ZN153_$LT$core..result..Result$LT$T$C$F$GT$$u20$as$u20$core..ops..try_trait..FromResidual$LT$core..result..Result$LT$core..convert..Infallible$C$E$GT$$GT$$GT$13from_residual17hb330fb03e2922c3eE
	.p2align	4, 0x90
_ZN153_$LT$core..result..Result$LT$T$C$F$GT$$u20$as$u20$core..ops..try_trait..FromResidual$LT$core..result..Result$LT$core..convert..Infallible$C$E$GT$$GT$$GT$13from_residual17hb330fb03e2922c3eE:
.seh_proc _ZN153_$LT$core..result..Result$LT$T$C$F$GT$$u20$as$u20$core..ops..try_trait..FromResidual$LT$core..result..Result$LT$core..convert..Infallible$C$E$GT$$GT$$GT$13from_residual17hb330fb03e2922c3eE
	subq	$16, %rsp
	.seh_stackalloc 16
	.seh_endprologue
	movq	$0, (%rsp)
	movq	(%rsp), %rax
	movq	8(%rsp), %rdx
	addq	$16, %rsp
	retq
	.seh_endproc

	.def	_ZN153_$LT$core..result..Result$LT$T$C$F$GT$$u20$as$u20$core..ops..try_trait..FromResidual$LT$core..result..Result$LT$core..convert..Infallible$C$E$GT$$GT$$GT$13from_residual17hd18093d32975d5c2E;
	.scl	2;
	.type	32;
	.endef
	.section	.text,"xr",one_only,_ZN153_$LT$core..result..Result$LT$T$C$F$GT$$u20$as$u20$core..ops..try_trait..FromResidual$LT$core..result..Result$LT$core..convert..Infallible$C$E$GT$$GT$$GT$13from_residual17hd18093d32975d5c2E
	.globl	_ZN153_$LT$core..result..Result$LT$T$C$F$GT$$u20$as$u20$core..ops..try_trait..FromResidual$LT$core..result..Result$LT$core..convert..Infallible$C$E$GT$$GT$$GT$13from_residual17hd18093d32975d5c2E
	.p2align	4, 0x90
_ZN153_$LT$core..result..Result$LT$T$C$F$GT$$u20$as$u20$core..ops..try_trait..FromResidual$LT$core..result..Result$LT$core..convert..Infallible$C$E$GT$$GT$$GT$13from_residual17hd18093d32975d5c2E:
	movq	%rcx, %rax
	movabsq	$-9223372036854775808, %rdx
	movq	%rdx, 16(%rcx)
	retq

	.def	_ZN153_$LT$core..result..Result$LT$T$C$F$GT$$u20$as$u20$core..ops..try_trait..FromResidual$LT$core..result..Result$LT$core..convert..Infallible$C$E$GT$$GT$$GT$13from_residual17hd39df908024ea079E;
	.scl	2;
	.type	32;
	.endef
	.section	.text,"xr",one_only,_ZN153_$LT$core..result..Result$LT$T$C$F$GT$$u20$as$u20$core..ops..try_trait..FromResidual$LT$core..result..Result$LT$core..convert..Infallible$C$E$GT$$GT$$GT$13from_residual17hd39df908024ea079E
	.globl	_ZN153_$LT$core..result..Result$LT$T$C$F$GT$$u20$as$u20$core..ops..try_trait..FromResidual$LT$core..result..Result$LT$core..convert..Infallible$C$E$GT$$GT$$GT$13from_residual17hd39df908024ea079E
	.p2align	4, 0x90
_ZN153_$LT$core..result..Result$LT$T$C$F$GT$$u20$as$u20$core..ops..try_trait..FromResidual$LT$core..result..Result$LT$core..convert..Infallible$C$E$GT$$GT$$GT$13from_residual17hd39df908024ea079E:
	movq	%rcx, %rax
	movb	$2, 32(%rcx)
	retq

	.def	_ZN153_$LT$core..result..Result$LT$T$C$F$GT$$u20$as$u20$core..ops..try_trait..FromResidual$LT$core..result..Result$LT$core..convert..Infallible$C$E$GT$$GT$$GT$13from_residual17hd4c4bc17dd06d1e8E;
	.scl	2;
	.type	32;
	.endef
	.section	.text,"xr",one_only,_ZN153_$LT$core..result..Result$LT$T$C$F$GT$$u20$as$u20$core..ops..try_trait..FromResidual$LT$core..result..Result$LT$core..convert..Infallible$C$E$GT$$GT$$GT$13from_residual17hd4c4bc17dd06d1e8E
	.globl	_ZN153_$LT$core..result..Result$LT$T$C$F$GT$$u20$as$u20$core..ops..try_trait..FromResidual$LT$core..result..Result$LT$core..convert..Infallible$C$E$GT$$GT$$GT$13from_residual17hd4c4bc17dd06d1e8E
	.p2align	4, 0x90
_ZN153_$LT$core..result..Result$LT$T$C$F$GT$$u20$as$u20$core..ops..try_trait..FromResidual$LT$core..result..Result$LT$core..convert..Infallible$C$E$GT$$GT$$GT$13from_residual17hd4c4bc17dd06d1e8E:
.seh_proc _ZN153_$LT$core..result..Result$LT$T$C$F$GT$$u20$as$u20$core..ops..try_trait..FromResidual$LT$core..result..Result$LT$core..convert..Infallible$C$E$GT$$GT$$GT$13from_residual17hd4c4bc17dd06d1e8E
	subq	$56, %rsp
	.seh_stackalloc 56
	.seh_endprologue
	movq	%rcx, 40(%rsp)
	movq	%rcx, 48(%rsp)
	callq	_ZN94_$LT$proc_macro2..imp..LexError$u20$as$u20$core..convert..From$LT$proc_macro..LexError$GT$$GT$4from17hf7623caaca0e0a0aE
	movq	40(%rsp), %rcx
	movb	%al, %dl
	movq	48(%rsp), %rax
	andb	$1, %dl
	movb	%dl, 8(%rcx)
	movabsq	$-9223372036854775807, %rdx
	movq	%rdx, (%rcx)
	addq	$56, %rsp
	retq
	.seh_endproc

	.def	_ZN153_$LT$core..result..Result$LT$T$C$F$GT$$u20$as$u20$core..ops..try_trait..FromResidual$LT$core..result..Result$LT$core..convert..Infallible$C$E$GT$$GT$$GT$13from_residual17hda73a91649d82028E;
	.scl	2;
	.type	32;
	.endef
	.section	.text,"xr",one_only,_ZN153_$LT$core..result..Result$LT$T$C$F$GT$$u20$as$u20$core..ops..try_trait..FromResidual$LT$core..result..Result$LT$core..convert..Infallible$C$E$GT$$GT$$GT$13from_residual17hda73a91649d82028E
	.globl	_ZN153_$LT$core..result..Result$LT$T$C$F$GT$$u20$as$u20$core..ops..try_trait..FromResidual$LT$core..result..Result$LT$core..convert..Infallible$C$E$GT$$GT$$GT$13from_residual17hda73a91649d82028E
	.p2align	4, 0x90
_ZN153_$LT$core..result..Result$LT$T$C$F$GT$$u20$as$u20$core..ops..try_trait..FromResidual$LT$core..result..Result$LT$core..convert..Infallible$C$E$GT$$GT$$GT$13from_residual17hda73a91649d82028E:
	movq	%rcx, %rax
	movabsq	$-9223372036854775807, %rdx
	movq	%rdx, 16(%rcx)
	retq

	.def	_ZN153_$LT$core..result..Result$LT$T$C$F$GT$$u20$as$u20$core..ops..try_trait..FromResidual$LT$core..result..Result$LT$core..convert..Infallible$C$E$GT$$GT$$GT$13from_residual17he1c457ed11a87448E;
	.scl	2;
	.type	32;
	.endef
	.section	.text,"xr",one_only,_ZN153_$LT$core..result..Result$LT$T$C$F$GT$$u20$as$u20$core..ops..try_trait..FromResidual$LT$core..result..Result$LT$core..convert..Infallible$C$E$GT$$GT$$GT$13from_residual17he1c457ed11a87448E
	.globl	_ZN153_$LT$core..result..Result$LT$T$C$F$GT$$u20$as$u20$core..ops..try_trait..FromResidual$LT$core..result..Result$LT$core..convert..Infallible$C$E$GT$$GT$$GT$13from_residual17he1c457ed11a87448E
	.p2align	4, 0x90
_ZN153_$LT$core..result..Result$LT$T$C$F$GT$$u20$as$u20$core..ops..try_trait..FromResidual$LT$core..result..Result$LT$core..convert..Infallible$C$E$GT$$GT$$GT$13from_residual17he1c457ed11a87448E:
.seh_proc _ZN153_$LT$core..result..Result$LT$T$C$F$GT$$u20$as$u20$core..ops..try_trait..FromResidual$LT$core..result..Result$LT$core..convert..Infallible$C$E$GT$$GT$$GT$13from_residual17he1c457ed11a87448E
	subq	$56, %rsp
	.seh_stackalloc 56
	.seh_endprologue
	movq	%rcx, 40(%rsp)
	movq	%rcx, 48(%rsp)
	callq	_ZN105_$LT$proc_macro2..imp..LexError$u20$as$u20$core..convert..From$LT$proc_macro2..fallback..LexError$GT$$GT$4from17hc5c304c279037334E
	movq	40(%rsp), %rcx
	movb	%al, %dl
	movq	48(%rsp), %rax
	andb	$1, %dl
	movb	%dl, 8(%rcx)
	movabsq	$-9223372036854775807, %rdx
	movq	%rdx, (%rcx)
	addq	$56, %rsp
	retq
	.seh_endproc

	.def	_ZN157_$LT$$LT$alloc..vec..into_iter..IntoIter$LT$T$C$A$GT$$u20$as$u20$core..ops..drop..Drop$GT$..drop..DropGuard$LT$T$C$A$GT$$u20$as$u20$core..ops..drop..Drop$GT$4drop17h3987c4697373d362E;
	.scl	2;
	.type	32;
	.endef
	.section	.text,"xr",one_only,_ZN157_$LT$$LT$alloc..vec..into_iter..IntoIter$LT$T$C$A$GT$$u20$as$u20$core..ops..drop..Drop$GT$..drop..DropGuard$LT$T$C$A$GT$$u20$as$u20$core..ops..drop..Drop$GT$4drop17h3987c4697373d362E
	.globl	_ZN157_$LT$$LT$alloc..vec..into_iter..IntoIter$LT$T$C$A$GT$$u20$as$u20$core..ops..drop..Drop$GT$..drop..DropGuard$LT$T$C$A$GT$$u20$as$u20$core..ops..drop..Drop$GT$4drop17h3987c4697373d362E
	.p2align	4, 0x90
_ZN157_$LT$$LT$alloc..vec..into_iter..IntoIter$LT$T$C$A$GT$$u20$as$u20$core..ops..drop..Drop$GT$..drop..DropGuard$LT$T$C$A$GT$$u20$as$u20$core..ops..drop..Drop$GT$4drop17h3987c4697373d362E:
.Lfunc_begin8:
.seh_proc _ZN157_$LT$$LT$alloc..vec..into_iter..IntoIter$LT$T$C$A$GT$$u20$as$u20$core..ops..drop..Drop$GT$..drop..DropGuard$LT$T$C$A$GT$$u20$as$u20$core..ops..drop..Drop$GT$4drop17h3987c4697373d362E
	.seh_handler __CxxFrameHandler3, @unwind, @except
	pushq	%rbp
	.seh_pushreg %rbp
	subq	$80, %rsp
	.seh_stackalloc 80
	leaq	80(%rsp), %rbp
	.seh_setframe %rbp, 80
	.seh_endprologue
	movq	$-2, -8(%rbp)
	movq	(%rcx), %rcx
	movq	(%rcx), %rax
	movq	8(%rcx), %rcx
	movq	%rcx, -32(%rbp)
	movq	%rax, -16(%rbp)
	movq	-16(%rbp), %rax
	movq	%rax, -24(%rbp)
	movq	-32(%rbp), %rax
	movq	-24(%rbp), %rcx
	movq	%rcx, -40(%rbp)
	movq	%rax, -48(%rbp)
.Ltmp26:
	leaq	-48(%rbp), %rcx
	callq	_ZN4core3ptr199drop_in_place$LT$alloc..raw_vec..RawVec$LT$proc_macro..bridge..TokenTree$LT$proc_macro..bridge..client..TokenStream$C$proc_macro..bridge..client..Span$C$proc_macro..bridge..symbol..Symbol$GT$$GT$$GT$17h0937c59e0bb0c6aeE
.Ltmp27:
	jmp	.LBB52_2
.LBB52_2:
	addq	$80, %rsp
	popq	%rbp
	retq
	.seh_handlerdata
	.long	($cppxdata$_ZN157_$LT$$LT$alloc..vec..into_iter..IntoIter$LT$T$C$A$GT$$u20$as$u20$core..ops..drop..Drop$GT$..drop..DropGuard$LT$T$C$A$GT$$u20$as$u20$core..ops..drop..Drop$GT$4drop17h3987c4697373d362E)@IMGREL
	.section	.text,"xr",one_only,_ZN157_$LT$$LT$alloc..vec..into_iter..IntoIter$LT$T$C$A$GT$$u20$as$u20$core..ops..drop..Drop$GT$..drop..DropGuard$LT$T$C$A$GT$$u20$as$u20$core..ops..drop..Drop$GT$4drop17h3987c4697373d362E
	.seh_endproc
	.def	"?dtor$1@?0?_ZN157_$LT$$LT$alloc..vec..into_iter..IntoIter$LT$T$C$A$GT$$u20$as$u20$core..ops..drop..Drop$GT$..drop..DropGuard$LT$T$C$A$GT$$u20$as$u20$core..ops..drop..Drop$GT$4drop17h3987c4697373d362E@4HA";
	.scl	3;
	.type	32;
	.endef
	.p2align	4, 0x90
"?dtor$1@?0?_ZN157_$LT$$LT$alloc..vec..into_iter..IntoIter$LT$T$C$A$GT$$u20$as$u20$core..ops..drop..Drop$GT$..drop..DropGuard$LT$T$C$A$GT$$u20$as$u20$core..ops..drop..Drop$GT$4drop17h3987c4697373d362E@4HA":
.seh_proc "?dtor$1@?0?_ZN157_$LT$$LT$alloc..vec..into_iter..IntoIter$LT$T$C$A$GT$$u20$as$u20$core..ops..drop..Drop$GT$..drop..DropGuard$LT$T$C$A$GT$$u20$as$u20$core..ops..drop..Drop$GT$4drop17h3987c4697373d362E@4HA"
.LBB52_1:
	movq	%rdx, 16(%rsp)
	pushq	%rbp
	.seh_pushreg %rbp
	subq	$32, %rsp
	.seh_stackalloc 32
	leaq	80(%rdx), %rbp
	.seh_endprologue
	addq	$32, %rsp
	popq	%rbp
	retq
.Lfunc_end8:
	.seh_handlerdata
	.section	.text,"xr",one_only,_ZN157_$LT$$LT$alloc..vec..into_iter..IntoIter$LT$T$C$A$GT$$u20$as$u20$core..ops..drop..Drop$GT$..drop..DropGuard$LT$T$C$A$GT$$u20$as$u20$core..ops..drop..Drop$GT$4drop17h3987c4697373d362E
	.seh_endproc
	.section	.xdata,"dr",associative,_ZN157_$LT$$LT$alloc..vec..into_iter..IntoIter$LT$T$C$A$GT$$u20$as$u20$core..ops..drop..Drop$GT$..drop..DropGuard$LT$T$C$A$GT$$u20$as$u20$core..ops..drop..Drop$GT$4drop17h3987c4697373d362E
	.p2align	2, 0x0
$cppxdata$_ZN157_$LT$$LT$alloc..vec..into_iter..IntoIter$LT$T$C$A$GT$$u20$as$u20$core..ops..drop..Drop$GT$..drop..DropGuard$LT$T$C$A$GT$$u20$as$u20$core..ops..drop..Drop$GT$4drop17h3987c4697373d362E:
	.long	429065506
	.long	1
	.long	($stateUnwindMap$_ZN157_$LT$$LT$alloc..vec..into_iter..IntoIter$LT$T$C$A$GT$$u20$as$u20$core..ops..drop..Drop$GT$..drop..DropGuard$LT$T$C$A$GT$$u20$as$u20$core..ops..drop..Drop$GT$4drop17h3987c4697373d362E)@IMGREL
	.long	0
	.long	0
	.long	3
	.long	($ip2state$_ZN157_$LT$$LT$alloc..vec..into_iter..IntoIter$LT$T$C$A$GT$$u20$as$u20$core..ops..drop..Drop$GT$..drop..DropGuard$LT$T$C$A$GT$$u20$as$u20$core..ops..drop..Drop$GT$4drop17h3987c4697373d362E)@IMGREL
	.long	72
	.long	0
	.long	1
$stateUnwindMap$_ZN157_$LT$$LT$alloc..vec..into_iter..IntoIter$LT$T$C$A$GT$$u20$as$u20$core..ops..drop..Drop$GT$..drop..DropGuard$LT$T$C$A$GT$$u20$as$u20$core..ops..drop..Drop$GT$4drop17h3987c4697373d362E:
	.long	-1
	.long	"?dtor$1@?0?_ZN157_$LT$$LT$alloc..vec..into_iter..IntoIter$LT$T$C$A$GT$$u20$as$u20$core..ops..drop..Drop$GT$..drop..DropGuard$LT$T$C$A$GT$$u20$as$u20$core..ops..drop..Drop$GT$4drop17h3987c4697373d362E@4HA"@IMGREL
$ip2state$_ZN157_$LT$$LT$alloc..vec..into_iter..IntoIter$LT$T$C$A$GT$$u20$as$u20$core..ops..drop..Drop$GT$..drop..DropGuard$LT$T$C$A$GT$$u20$as$u20$core..ops..drop..Drop$GT$4drop17h3987c4697373d362E:
	.long	.Lfunc_begin8@IMGREL
	.long	-1
	.long	.Ltmp26@IMGREL+1
	.long	0
	.long	.Ltmp27@IMGREL+1
	.long	-1
	.section	.text,"xr",one_only,_ZN157_$LT$$LT$alloc..vec..into_iter..IntoIter$LT$T$C$A$GT$$u20$as$u20$core..ops..drop..Drop$GT$..drop..DropGuard$LT$T$C$A$GT$$u20$as$u20$core..ops..drop..Drop$GT$4drop17h3987c4697373d362E

	.def	_ZN157_$LT$$LT$alloc..vec..into_iter..IntoIter$LT$T$C$A$GT$$u20$as$u20$core..ops..drop..Drop$GT$..drop..DropGuard$LT$T$C$A$GT$$u20$as$u20$core..ops..drop..Drop$GT$4drop17h9193e8eb4c0a44d4E;
	.scl	2;
	.type	32;
	.endef
	.section	.text,"xr",one_only,_ZN157_$LT$$LT$alloc..vec..into_iter..IntoIter$LT$T$C$A$GT$$u20$as$u20$core..ops..drop..Drop$GT$..drop..DropGuard$LT$T$C$A$GT$$u20$as$u20$core..ops..drop..Drop$GT$4drop17h9193e8eb4c0a44d4E
	.globl	_ZN157_$LT$$LT$alloc..vec..into_iter..IntoIter$LT$T$C$A$GT$$u20$as$u20$core..ops..drop..Drop$GT$..drop..DropGuard$LT$T$C$A$GT$$u20$as$u20$core..ops..drop..Drop$GT$4drop17h9193e8eb4c0a44d4E
	.p2align	4, 0x90
_ZN157_$LT$$LT$alloc..vec..into_iter..IntoIter$LT$T$C$A$GT$$u20$as$u20$core..ops..drop..Drop$GT$..drop..DropGuard$LT$T$C$A$GT$$u20$as$u20$core..ops..drop..Drop$GT$4drop17h9193e8eb4c0a44d4E:
.Lfunc_begin9:
.seh_proc _ZN157_$LT$$LT$alloc..vec..into_iter..IntoIter$LT$T$C$A$GT$$u20$as$u20$core..ops..drop..Drop$GT$..drop..DropGuard$LT$T$C$A$GT$$u20$as$u20$core..ops..drop..Drop$GT$4drop17h9193e8eb4c0a44d4E
	.seh_handler __CxxFrameHandler3, @unwind, @except
	pushq	%rbp
	.seh_pushreg %rbp
	subq	$80, %rsp
	.seh_stackalloc 80
	leaq	80(%rsp), %rbp
	.seh_setframe %rbp, 80
	.seh_endprologue
	movq	$-2, -8(%rbp)
	movq	(%rcx), %rcx
	movq	(%rcx), %rax
	movq	8(%rcx), %rcx
	movq	%rcx, -32(%rbp)
	movq	%rax, -16(%rbp)
	movq	-16(%rbp), %rax
	movq	%rax, -24(%rbp)
	movq	-32(%rbp), %rax
	movq	-24(%rbp), %rcx
	movq	%rcx, -40(%rbp)
	movq	%rax, -48(%rbp)
.Ltmp28:
	leaq	-48(%rbp), %rcx
	callq	_ZN4core3ptr73drop_in_place$LT$alloc..raw_vec..RawVec$LT$proc_macro2..TokenTree$GT$$GT$17hed3dff45a391b6ccE
.Ltmp29:
	jmp	.LBB53_2
.LBB53_2:
	addq	$80, %rsp
	popq	%rbp
	retq
	.seh_handlerdata
	.long	($cppxdata$_ZN157_$LT$$LT$alloc..vec..into_iter..IntoIter$LT$T$C$A$GT$$u20$as$u20$core..ops..drop..Drop$GT$..drop..DropGuard$LT$T$C$A$GT$$u20$as$u20$core..ops..drop..Drop$GT$4drop17h9193e8eb4c0a44d4E)@IMGREL
	.section	.text,"xr",one_only,_ZN157_$LT$$LT$alloc..vec..into_iter..IntoIter$LT$T$C$A$GT$$u20$as$u20$core..ops..drop..Drop$GT$..drop..DropGuard$LT$T$C$A$GT$$u20$as$u20$core..ops..drop..Drop$GT$4drop17h9193e8eb4c0a44d4E
	.seh_endproc
	.def	"?dtor$1@?0?_ZN157_$LT$$LT$alloc..vec..into_iter..IntoIter$LT$T$C$A$GT$$u20$as$u20$core..ops..drop..Drop$GT$..drop..DropGuard$LT$T$C$A$GT$$u20$as$u20$core..ops..drop..Drop$GT$4drop17h9193e8eb4c0a44d4E@4HA";
	.scl	3;
	.type	32;
	.endef
	.p2align	4, 0x90
"?dtor$1@?0?_ZN157_$LT$$LT$alloc..vec..into_iter..IntoIter$LT$T$C$A$GT$$u20$as$u20$core..ops..drop..Drop$GT$..drop..DropGuard$LT$T$C$A$GT$$u20$as$u20$core..ops..drop..Drop$GT$4drop17h9193e8eb4c0a44d4E@4HA":
.seh_proc "?dtor$1@?0?_ZN157_$LT$$LT$alloc..vec..into_iter..IntoIter$LT$T$C$A$GT$$u20$as$u20$core..ops..drop..Drop$GT$..drop..DropGuard$LT$T$C$A$GT$$u20$as$u20$core..ops..drop..Drop$GT$4drop17h9193e8eb4c0a44d4E@4HA"
.LBB53_1:
	movq	%rdx, 16(%rsp)
	pushq	%rbp
	.seh_pushreg %rbp
	subq	$32, %rsp
	.seh_stackalloc 32
	leaq	80(%rdx), %rbp
	.seh_endprologue
	addq	$32, %rsp
	popq	%rbp
	retq
.Lfunc_end9:
	.seh_handlerdata
	.section	.text,"xr",one_only,_ZN157_$LT$$LT$alloc..vec..into_iter..IntoIter$LT$T$C$A$GT$$u20$as$u20$core..ops..drop..Drop$GT$..drop..DropGuard$LT$T$C$A$GT$$u20$as$u20$core..ops..drop..Drop$GT$4drop17h9193e8eb4c0a44d4E
	.seh_endproc
	.section	.xdata,"dr",associative,_ZN157_$LT$$LT$alloc..vec..into_iter..IntoIter$LT$T$C$A$GT$$u20$as$u20$core..ops..drop..Drop$GT$..drop..DropGuard$LT$T$C$A$GT$$u20$as$u20$core..ops..drop..Drop$GT$4drop17h9193e8eb4c0a44d4E
	.p2align	2, 0x0
$cppxdata$_ZN157_$LT$$LT$alloc..vec..into_iter..IntoIter$LT$T$C$A$GT$$u20$as$u20$core..ops..drop..Drop$GT$..drop..DropGuard$LT$T$C$A$GT$$u20$as$u20$core..ops..drop..Drop$GT$4drop17h9193e8eb4c0a44d4E:
	.long	429065506
	.long	1
	.long	($stateUnwindMap$_ZN157_$LT$$LT$alloc..vec..into_iter..IntoIter$LT$T$C$A$GT$$u20$as$u20$core..ops..drop..Drop$GT$..drop..DropGuard$LT$T$C$A$GT$$u20$as$u20$core..ops..drop..Drop$GT$4drop17h9193e8eb4c0a44d4E)@IMGREL
	.long	0
	.long	0
	.long	3
	.long	($ip2state$_ZN157_$LT$$LT$alloc..vec..into_iter..IntoIter$LT$T$C$A$GT$$u20$as$u20$core..ops..drop..Drop$GT$..drop..DropGuard$LT$T$C$A$GT$$u20$as$u20$core..ops..drop..Drop$GT$4drop17h9193e8eb4c0a44d4E)@IMGREL
	.long	72
	.long	0
	.long	1
$stateUnwindMap$_ZN157_$LT$$LT$alloc..vec..into_iter..IntoIter$LT$T$C$A$GT$$u20$as$u20$core..ops..drop..Drop$GT$..drop..DropGuard$LT$T$C$A$GT$$u20$as$u20$core..ops..drop..Drop$GT$4drop17h9193e8eb4c0a44d4E:
	.long	-1
	.long	"?dtor$1@?0?_ZN157_$LT$$LT$alloc..vec..into_iter..IntoIter$LT$T$C$A$GT$$u20$as$u20$core..ops..drop..Drop$GT$..drop..DropGuard$LT$T$C$A$GT$$u20$as$u20$core..ops..drop..Drop$GT$4drop17h9193e8eb4c0a44d4E@4HA"@IMGREL
$ip2state$_ZN157_$LT$$LT$alloc..vec..into_iter..IntoIter$LT$T$C$A$GT$$u20$as$u20$core..ops..drop..Drop$GT$..drop..DropGuard$LT$T$C$A$GT$$u20$as$u20$core..ops..drop..Drop$GT$4drop17h9193e8eb4c0a44d4E:
	.long	.Lfunc_begin9@IMGREL
	.long	-1
	.long	.Ltmp28@IMGREL+1
	.long	0
	.long	.Ltmp29@IMGREL+1
	.long	-1
	.section	.text,"xr",one_only,_ZN157_$LT$$LT$alloc..vec..into_iter..IntoIter$LT$T$C$A$GT$$u20$as$u20$core..ops..drop..Drop$GT$..drop..DropGuard$LT$T$C$A$GT$$u20$as$u20$core..ops..drop..Drop$GT$4drop17h9193e8eb4c0a44d4E

	.def	_ZN3std4sync4once4Once9call_once17h96d32888aa0ba515E;
	.scl	2;
	.type	32;
	.endef
	.section	.text,"xr",one_only,_ZN3std4sync4once4Once9call_once17h96d32888aa0ba515E
	.globl	_ZN3std4sync4once4Once9call_once17h96d32888aa0ba515E
	.p2align	4, 0x90
_ZN3std4sync4once4Once9call_once17h96d32888aa0ba515E:
.Lfunc_begin10:
.seh_proc _ZN3std4sync4once4Once9call_once17h96d32888aa0ba515E
	.seh_handler __CxxFrameHandler3, @unwind, @except
	pushq	%rbp
	.seh_pushreg %rbp
	subq	$96, %rsp
	.seh_stackalloc 96
	leaq	96(%rsp), %rbp
	.seh_setframe %rbp, 96
	.seh_endprologue
	movq	$-2, -8(%rbp)
	movq	%rdx, -56(%rbp)
	movq	%rcx, -48(%rbp)
	movb	$1, -9(%rbp)
.Ltmp30:
	movb	$2, %dl
	callq	_ZN4core4sync6atomic11atomic_load17hc49d7a70b812e964E
.Ltmp31:
	movq	%rax, -40(%rbp)
	jmp	.LBB54_2
.LBB54_2:
	movq	-40(%rbp), %rax
	cmpq	$3, %rax
	je	.LBB54_4
	movq	-48(%rbp), %rcx
	movq	-56(%rbp), %rdx
	movb	$0, -9(%rbp)
	movb	$1, -25(%rbp)
	leaq	-25(%rbp), %rax
	movq	%rax, -24(%rbp)
.Ltmp32:
	movq	%rsp, %rax
	movq	%rdx, 32(%rax)
	leaq	__unnamed_4(%rip), %r9
	xorl	%eax, %eax
	movb	%al, %dl
	leaq	-24(%rbp), %r8
	callq	_ZN3std10sys_common4once5queue4Once4call17hcdeee4f814a2fb68E
.Ltmp33:
	jmp	.LBB54_6
.LBB54_4:
	jmp	.LBB54_7
.LBB54_6:
	jmp	.LBB54_7
.LBB54_7:
	addq	$96, %rsp
	popq	%rbp
	retq
	.seh_handlerdata
	.long	($cppxdata$_ZN3std4sync4once4Once9call_once17h96d32888aa0ba515E)@IMGREL
	.section	.text,"xr",one_only,_ZN3std4sync4once4Once9call_once17h96d32888aa0ba515E
	.seh_endproc
	.def	"?dtor$1@?0?_ZN3std4sync4once4Once9call_once17h96d32888aa0ba515E@4HA";
	.scl	3;
	.type	32;
	.endef
	.p2align	4, 0x90
"?dtor$1@?0?_ZN3std4sync4once4Once9call_once17h96d32888aa0ba515E@4HA":
.seh_proc "?dtor$1@?0?_ZN3std4sync4once4Once9call_once17h96d32888aa0ba515E@4HA"
.LBB54_1:
	movq	%rdx, 16(%rsp)
	pushq	%rbp
	.seh_pushreg %rbp
	subq	$48, %rsp
	.seh_stackalloc 48
	leaq	96(%rdx), %rbp
	.seh_endprologue
	testb	$1, -9(%rbp)
	jne	.LBB54_9
	jmp	.LBB54_8
.LBB54_8:
	addq	$48, %rsp
	popq	%rbp
	retq
.LBB54_9:
	jmp	.LBB54_8
	.seh_handlerdata
	.section	.text,"xr",one_only,_ZN3std4sync4once4Once9call_once17h96d32888aa0ba515E
	.seh_endproc
	.def	"?dtor$5@?0?_ZN3std4sync4once4Once9call_once17h96d32888aa0ba515E@4HA";
	.scl	3;
	.type	32;
	.endef
	.p2align	4, 0x90
"?dtor$5@?0?_ZN3std4sync4once4Once9call_once17h96d32888aa0ba515E@4HA":
.seh_proc "?dtor$5@?0?_ZN3std4sync4once4Once9call_once17h96d32888aa0ba515E@4HA"
.LBB54_5:
	movq	%rdx, 16(%rsp)
	pushq	%rbp
	.seh_pushreg %rbp
	subq	$48, %rsp
	.seh_stackalloc 48
	leaq	96(%rdx), %rbp
	.seh_endprologue
	addq	$48, %rsp
	popq	%rbp
	retq
.Lfunc_end10:
	.seh_handlerdata
	.section	.text,"xr",one_only,_ZN3std4sync4once4Once9call_once17h96d32888aa0ba515E
	.seh_endproc
	.section	.xdata,"dr",associative,_ZN3std4sync4once4Once9call_once17h96d32888aa0ba515E
	.p2align	2, 0x0
$cppxdata$_ZN3std4sync4once4Once9call_once17h96d32888aa0ba515E:
	.long	429065506
	.long	2
	.long	($stateUnwindMap$_ZN3std4sync4once4Once9call_once17h96d32888aa0ba515E)@IMGREL
	.long	0
	.long	0
	.long	4
	.long	($ip2state$_ZN3std4sync4once4Once9call_once17h96d32888aa0ba515E)@IMGREL
	.long	88
	.long	0
	.long	1
$stateUnwindMap$_ZN3std4sync4once4Once9call_once17h96d32888aa0ba515E:
	.long	-1
	.long	"?dtor$1@?0?_ZN3std4sync4once4Once9call_once17h96d32888aa0ba515E@4HA"@IMGREL
	.long	0
	.long	"?dtor$5@?0?_ZN3std4sync4once4Once9call_once17h96d32888aa0ba515E@4HA"@IMGREL
$ip2state$_ZN3std4sync4once4Once9call_once17h96d32888aa0ba515E:
	.long	.Lfunc_begin10@IMGREL
	.long	-1
	.long	.Ltmp30@IMGREL+1
	.long	0
	.long	.Ltmp32@IMGREL+1
	.long	1
	.long	.Ltmp33@IMGREL+1
	.long	-1
	.section	.text,"xr",one_only,_ZN3std4sync4once4Once9call_once17h96d32888aa0ba515E

	.def	_ZN3std4sync4once4Once9call_once28_$u7b$$u7b$closure$u7d$$u7d$17h2cce995445aa3856E;
	.scl	2;
	.type	32;
	.endef
	.section	.text,"xr",one_only,_ZN3std4sync4once4Once9call_once28_$u7b$$u7b$closure$u7d$$u7d$17h2cce995445aa3856E
	.globl	_ZN3std4sync4once4Once9call_once28_$u7b$$u7b$closure$u7d$$u7d$17h2cce995445aa3856E
	.p2align	4, 0x90
_ZN3std4sync4once4Once9call_once28_$u7b$$u7b$closure$u7d$$u7d$17h2cce995445aa3856E:
.seh_proc _ZN3std4sync4once4Once9call_once28_$u7b$$u7b$closure$u7d$$u7d$17h2cce995445aa3856E
	subq	$40, %rsp
	.seh_stackalloc 40
	.seh_endprologue
	movq	(%rcx), %rax
	movb	$0, 39(%rsp)
	movb	(%rax), %cl
	andb	$1, %cl
	movb	%cl, 38(%rsp)
	movb	39(%rsp), %cl
	andb	$1, %cl
	movb	%cl, (%rax)
	movb	38(%rsp), %al
	andb	$1, %al
	movzbl	%al, %eax
	cmpq	$0, %rax
	jne	.LBB55_2
	leaq	__unnamed_5(%rip), %rcx
	leaq	__unnamed_6(%rip), %r8
	movl	$43, %edx
	callq	_ZN4core9panicking5panic17hb11f2d409f96600eE
.LBB55_2:
	callq	_ZN4core3ops8function6FnOnce9call_once17h00b3407534ef1182E
	nop
	addq	$40, %rsp
	retq
	.seh_endproc

	.def	_ZN3std5panic12catch_unwind17hae49b2f4230b76aaE;
	.scl	2;
	.type	32;
	.endef
	.section	.text,"xr",one_only,_ZN3std5panic12catch_unwind17hae49b2f4230b76aaE
	.globl	_ZN3std5panic12catch_unwind17hae49b2f4230b76aaE
	.p2align	4, 0x90
_ZN3std5panic12catch_unwind17hae49b2f4230b76aaE:
.seh_proc _ZN3std5panic12catch_unwind17hae49b2f4230b76aaE
	subq	$40, %rsp
	.seh_stackalloc 40
	.seh_endprologue
	movq	%rcx, %rax
	movq	%rax, 32(%rsp)
	callq	_ZN3std9panicking3try17h2ecfe1d3eb896935E
	movq	32(%rsp), %rax
	addq	$40, %rsp
	retq
	.seh_endproc

	.def	_ZN3std9panicking3try17h2ecfe1d3eb896935E;
	.scl	2;
	.type	32;
	.endef
	.section	.text,"xr",one_only,_ZN3std9panicking3try17h2ecfe1d3eb896935E
	.globl	_ZN3std9panicking3try17h2ecfe1d3eb896935E
	.p2align	4, 0x90
_ZN3std9panicking3try17h2ecfe1d3eb896935E:
.seh_proc _ZN3std9panicking3try17h2ecfe1d3eb896935E
	subq	$104, %rsp
	.seh_stackalloc 104
	.seh_endprologue
	movq	%rcx, 32(%rsp)
	movq	%rcx, 40(%rsp)
	movq	%rdx, 64(%rsp)
	movq	%r8, 72(%rsp)
	movq	64(%rsp), %rcx
	movq	72(%rsp), %rax
	movq	%rcx, 48(%rsp)
	movq	%rax, 56(%rsp)
	leaq	_ZN3std9panicking3try7do_call17hfe76bc4067d18698E(%rip), %rcx
	leaq	48(%rsp), %rdx
	leaq	_ZN3std9panicking3try8do_catch17h31f030c3859d311dE(%rip), %r8
	callq	__rust_try
	movl	%eax, 100(%rsp)
	cmpl	$0, 100(%rsp)
	jne	.LBB57_2
	movq	32(%rsp), %rax
	movq	48(%rsp), %rcx
	movq	%rcx, 92(%rsp)
	movq	92(%rsp), %rcx
	movq	%rcx, 84(%rsp)
	movq	84(%rsp), %rcx
	movq	%rcx, 8(%rax)
	movq	$0, (%rax)
	jmp	.LBB57_3
.LBB57_2:
	movq	32(%rsp), %rax
	movq	48(%rsp), %rdx
	movq	56(%rsp), %rcx
	movq	%rdx, (%rax)
	movq	%rcx, 8(%rax)
.LBB57_3:
	movq	40(%rsp), %rax
	addq	$104, %rsp
	retq
	.seh_endproc

	.def	_ZN3std9panicking3try7do_call17hfe76bc4067d18698E;
	.scl	2;
	.type	32;
	.endef
	.section	.text,"xr",one_only,_ZN3std9panicking3try7do_call17hfe76bc4067d18698E
	.globl	_ZN3std9panicking3try7do_call17hfe76bc4067d18698E
	.p2align	4, 0x90
_ZN3std9panicking3try7do_call17hfe76bc4067d18698E:
.seh_proc _ZN3std9panicking3try7do_call17hfe76bc4067d18698E
	subq	$72, %rsp
	.seh_stackalloc 72
	.seh_endprologue
	movq	%rcx, %rax
	movq	%rax, 40(%rsp)
	movq	(%rax), %rcx
	movq	8(%rax), %rdx
	callq	_ZN11proc_macro23imp16proc_macro_parse28_$u7b$$u7b$closure$u7d$$u7d$17h7a02809321f46b46E
	movq	40(%rsp), %rcx
	movq	%rax, 64(%rsp)
	movq	64(%rsp), %rax
	movq	%rax, 56(%rsp)
	movq	56(%rsp), %rax
	movq	%rax, 48(%rsp)
	movq	48(%rsp), %rax
	movq	%rax, (%rcx)
	addq	$72, %rsp
	retq
	.seh_endproc

	.def	_ZN3std9panicking3try8do_catch17h31f030c3859d311dE;
	.scl	2;
	.type	32;
	.endef
	.section	.text,"xr",one_only,_ZN3std9panicking3try8do_catch17h31f030c3859d311dE
	.globl	_ZN3std9panicking3try8do_catch17h31f030c3859d311dE
	.p2align	4, 0x90
_ZN3std9panicking3try8do_catch17h31f030c3859d311dE:
.Lfunc_begin11:
.seh_proc _ZN3std9panicking3try8do_catch17h31f030c3859d311dE
	.seh_handler __CxxFrameHandler3, @unwind, @except
	pushq	%rbp
	.seh_pushreg %rbp
	subq	$96, %rsp
	.seh_stackalloc 96
	leaq	96(%rsp), %rbp
	.seh_setframe %rbp, 96
	.seh_endprologue
	movq	$-2, -8(%rbp)
	movq	%rdx, -56(%rbp)
	movq	%rcx, %rax
	movq	-56(%rbp), %rcx
	movq	%rax, -48(%rbp)
.Ltmp34:
	callq	_ZN3std9panicking3try7cleanup17h059e2575766b5663E
.Ltmp35:
	movq	%rdx, -40(%rbp)
	movq	%rax, -32(%rbp)
	jmp	.LBB59_2
.LBB59_2:
	movq	-48(%rbp), %rax
	movq	-40(%rbp), %rcx
	movq	-32(%rbp), %rdx
	movq	%rdx, -24(%rbp)
	movq	%rcx, -16(%rbp)
	movq	-24(%rbp), %rdx
	movq	-16(%rbp), %rcx
	movq	%rdx, (%rax)
	movq	%rcx, 8(%rax)
	addq	$96, %rsp
	popq	%rbp
	retq
	.seh_handlerdata
	.long	($cppxdata$_ZN3std9panicking3try8do_catch17h31f030c3859d311dE)@IMGREL
	.section	.text,"xr",one_only,_ZN3std9panicking3try8do_catch17h31f030c3859d311dE
	.seh_endproc
	.def	"?catch$1@?0?_ZN3std9panicking3try8do_catch17h31f030c3859d311dE@4HA";
	.scl	3;
	.type	32;
	.endef
	.p2align	4, 0x90
"?catch$1@?0?_ZN3std9panicking3try8do_catch17h31f030c3859d311dE@4HA":
.seh_proc "?catch$1@?0?_ZN3std9panicking3try8do_catch17h31f030c3859d311dE@4HA"
	.seh_handler __CxxFrameHandler3, @unwind, @except
.LBB59_1:
	movq	%rdx, 16(%rsp)
	pushq	%rbp
	.seh_pushreg %rbp
	subq	$32, %rsp
	.seh_stackalloc 32
	leaq	96(%rdx), %rbp
	.seh_endprologue
	callq	_ZN4core9panicking19panic_cannot_unwind17h49d978f716c1f361E
	int3
.Lfunc_end11:
	.seh_handlerdata
	.long	($cppxdata$_ZN3std9panicking3try8do_catch17h31f030c3859d311dE)@IMGREL
	.section	.text,"xr",one_only,_ZN3std9panicking3try8do_catch17h31f030c3859d311dE
	.seh_endproc
	.section	.xdata,"dr",associative,_ZN3std9panicking3try8do_catch17h31f030c3859d311dE
	.p2align	2, 0x0
$cppxdata$_ZN3std9panicking3try8do_catch17h31f030c3859d311dE:
	.long	429065506
	.long	2
	.long	($stateUnwindMap$_ZN3std9panicking3try8do_catch17h31f030c3859d311dE)@IMGREL
	.long	1
	.long	($tryMap$_ZN3std9panicking3try8do_catch17h31f030c3859d311dE)@IMGREL
	.long	4
	.long	($ip2state$_ZN3std9panicking3try8do_catch17h31f030c3859d311dE)@IMGREL
	.long	88
	.long	0
	.long	1
$stateUnwindMap$_ZN3std9panicking3try8do_catch17h31f030c3859d311dE:
	.long	-1
	.long	0
	.long	-1
	.long	0
$tryMap$_ZN3std9panicking3try8do_catch17h31f030c3859d311dE:
	.long	0
	.long	0
	.long	1
	.long	1
	.long	($handlerMap$0$_ZN3std9panicking3try8do_catch17h31f030c3859d311dE)@IMGREL
$handlerMap$0$_ZN3std9panicking3try8do_catch17h31f030c3859d311dE:
	.long	64
	.long	0
	.long	0
	.long	"?catch$1@?0?_ZN3std9panicking3try8do_catch17h31f030c3859d311dE@4HA"@IMGREL
	.long	56
$ip2state$_ZN3std9panicking3try8do_catch17h31f030c3859d311dE:
	.long	.Lfunc_begin11@IMGREL
	.long	-1
	.long	.Ltmp34@IMGREL+1
	.long	0
	.long	.Ltmp35@IMGREL+1
	.long	-1
	.long	"?catch$1@?0?_ZN3std9panicking3try8do_catch17h31f030c3859d311dE@4HA"@IMGREL
	.long	1
	.section	.text,"xr",one_only,_ZN3std9panicking3try8do_catch17h31f030c3859d311dE

	.def	_ZN41_$LT$bool$u20$as$u20$core..fmt..Debug$GT$3fmt17h609d96fe91cba5b3E;
	.scl	3;
	.type	32;
	.endef
	.section	.text,"xr",one_only,_ZN41_$LT$bool$u20$as$u20$core..fmt..Debug$GT$3fmt17h609d96fe91cba5b3E
	.p2align	4, 0x90
_ZN41_$LT$bool$u20$as$u20$core..fmt..Debug$GT$3fmt17h609d96fe91cba5b3E:
.seh_proc _ZN41_$LT$bool$u20$as$u20$core..fmt..Debug$GT$3fmt17h609d96fe91cba5b3E
	subq	$40, %rsp
	.seh_stackalloc 40
	.seh_endprologue
	callq	_ZN43_$LT$bool$u20$as$u20$core..fmt..Display$GT$3fmt17h0d4c244b8076b900E
	andb	$1, %al
	movzbl	%al, %eax
	addq	$40, %rsp
	retq
	.seh_endproc

	.def	_ZN42_$LT$$RF$T$u20$as$u20$core..fmt..Debug$GT$3fmt17h296b8af984033623E;
	.scl	2;
	.type	32;
	.endef
	.section	.text,"xr",one_only,_ZN42_$LT$$RF$T$u20$as$u20$core..fmt..Debug$GT$3fmt17h296b8af984033623E
	.globl	_ZN42_$LT$$RF$T$u20$as$u20$core..fmt..Debug$GT$3fmt17h296b8af984033623E
	.p2align	4, 0x90
_ZN42_$LT$$RF$T$u20$as$u20$core..fmt..Debug$GT$3fmt17h296b8af984033623E:
.seh_proc _ZN42_$LT$$RF$T$u20$as$u20$core..fmt..Debug$GT$3fmt17h296b8af984033623E
	subq	$40, %rsp
	.seh_stackalloc 40
	.seh_endprologue
	movq	%rdx, %r8
	movq	%rcx, %rax
	movq	(%rax), %rcx
	movq	8(%rax), %rdx
	callq	_ZN40_$LT$str$u20$as$u20$core..fmt..Debug$GT$3fmt17he12099553dc4bc12E
	andb	$1, %al
	movzbl	%al, %eax
	addq	$40, %rsp
	retq
	.seh_endproc

	.def	_ZN42_$LT$$RF$T$u20$as$u20$core..fmt..Debug$GT$3fmt17h5d576b1bff38c4feE;
	.scl	2;
	.type	32;
	.endef
	.section	.text,"xr",one_only,_ZN42_$LT$$RF$T$u20$as$u20$core..fmt..Debug$GT$3fmt17h5d576b1bff38c4feE
	.globl	_ZN42_$LT$$RF$T$u20$as$u20$core..fmt..Debug$GT$3fmt17h5d576b1bff38c4feE
	.p2align	4, 0x90
_ZN42_$LT$$RF$T$u20$as$u20$core..fmt..Debug$GT$3fmt17h5d576b1bff38c4feE:
.seh_proc _ZN42_$LT$$RF$T$u20$as$u20$core..fmt..Debug$GT$3fmt17h5d576b1bff38c4feE
	subq	$40, %rsp
	.seh_stackalloc 40
	.seh_endprologue
	movq	(%rcx), %rcx
	callq	_ZN64_$LT$proc_macro2..fallback..Span$u20$as$u20$core..fmt..Debug$GT$3fmt17h3ae6888b86511a31E
	andb	$1, %al
	movzbl	%al, %eax
	addq	$40, %rsp
	retq
	.seh_endproc

	.def	_ZN42_$LT$$RF$T$u20$as$u20$core..fmt..Debug$GT$3fmt17h7aaeab1596823074E;
	.scl	2;
	.type	32;
	.endef
	.section	.text,"xr",one_only,_ZN42_$LT$$RF$T$u20$as$u20$core..fmt..Debug$GT$3fmt17h7aaeab1596823074E
	.globl	_ZN42_$LT$$RF$T$u20$as$u20$core..fmt..Debug$GT$3fmt17h7aaeab1596823074E
	.p2align	4, 0x90
_ZN42_$LT$$RF$T$u20$as$u20$core..fmt..Debug$GT$3fmt17h7aaeab1596823074E:
.seh_proc _ZN42_$LT$$RF$T$u20$as$u20$core..fmt..Debug$GT$3fmt17h7aaeab1596823074E
	subq	$40, %rsp
	.seh_stackalloc 40
	.seh_endprologue
	movq	(%rcx), %rcx
	callq	_ZN4core3fmt3num52_$LT$impl$u20$core..fmt..Debug$u20$for$u20$usize$GT$3fmt17hc9773210c27d0281E
	andb	$1, %al
	movzbl	%al, %eax
	addq	$40, %rsp
	retq
	.seh_endproc

	.def	_ZN42_$LT$$RF$T$u20$as$u20$core..fmt..Debug$GT$3fmt17hb24bcef3b508141eE;
	.scl	2;
	.type	32;
	.endef
	.section	.text,"xr",one_only,_ZN42_$LT$$RF$T$u20$as$u20$core..fmt..Debug$GT$3fmt17hb24bcef3b508141eE
	.globl	_ZN42_$LT$$RF$T$u20$as$u20$core..fmt..Debug$GT$3fmt17hb24bcef3b508141eE
	.p2align	4, 0x90
_ZN42_$LT$$RF$T$u20$as$u20$core..fmt..Debug$GT$3fmt17hb24bcef3b508141eE:
.seh_proc _ZN42_$LT$$RF$T$u20$as$u20$core..fmt..Debug$GT$3fmt17hb24bcef3b508141eE
	subq	$40, %rsp
	.seh_stackalloc 40
	.seh_endprologue
	movq	(%rcx), %rcx
	callq	_ZN66_$LT$core..option..Option$LT$T$GT$$u20$as$u20$core..fmt..Debug$GT$3fmt17h3ac9b4490a147de5E
	andb	$1, %al
	movzbl	%al, %eax
	addq	$40, %rsp
	retq
	.seh_endproc

	.def	_ZN44_$LT$$RF$T$u20$as$u20$core..fmt..Display$GT$3fmt17h0cb8ec16556757d1E;
	.scl	2;
	.type	32;
	.endef
	.section	.text,"xr",one_only,_ZN44_$LT$$RF$T$u20$as$u20$core..fmt..Display$GT$3fmt17h0cb8ec16556757d1E
	.globl	_ZN44_$LT$$RF$T$u20$as$u20$core..fmt..Display$GT$3fmt17h0cb8ec16556757d1E
	.p2align	4, 0x90
_ZN44_$LT$$RF$T$u20$as$u20$core..fmt..Display$GT$3fmt17h0cb8ec16556757d1E:
.seh_proc _ZN44_$LT$$RF$T$u20$as$u20$core..fmt..Display$GT$3fmt17h0cb8ec16556757d1E
	subq	$40, %rsp
	.seh_stackalloc 40
	.seh_endprologue
	movq	(%rcx), %rcx
	callq	_ZN57_$LT$proc_macro2..Ident$u20$as$u20$core..fmt..Display$GT$3fmt17h6ea4316d05b59005E
	andb	$1, %al
	movzbl	%al, %eax
	addq	$40, %rsp
	retq
	.seh_endproc

	.def	_ZN44_$LT$$RF$T$u20$as$u20$core..fmt..Display$GT$3fmt17h3adb3a26855d79adE;
	.scl	2;
	.type	32;
	.endef
	.section	.text,"xr",one_only,_ZN44_$LT$$RF$T$u20$as$u20$core..fmt..Display$GT$3fmt17h3adb3a26855d79adE
	.globl	_ZN44_$LT$$RF$T$u20$as$u20$core..fmt..Display$GT$3fmt17h3adb3a26855d79adE
	.p2align	4, 0x90
_ZN44_$LT$$RF$T$u20$as$u20$core..fmt..Display$GT$3fmt17h3adb3a26855d79adE:
.seh_proc _ZN44_$LT$$RF$T$u20$as$u20$core..fmt..Display$GT$3fmt17h3adb3a26855d79adE
	subq	$40, %rsp
	.seh_stackalloc 40
	.seh_endprologue
	movq	%rdx, %r8
	movq	%rcx, %rax
	movq	(%rax), %rcx
	movq	8(%rax), %rdx
	callq	_ZN42_$LT$str$u20$as$u20$core..fmt..Display$GT$3fmt17h8812a9a66be60dcfE
	andb	$1, %al
	movzbl	%al, %eax
	addq	$40, %rsp
	retq
	.seh_endproc

	.def	_ZN44_$LT$$RF$T$u20$as$u20$core..fmt..Display$GT$3fmt17he96a5499f353f6b4E;
	.scl	2;
	.type	32;
	.endef
	.section	.text,"xr",one_only,_ZN44_$LT$$RF$T$u20$as$u20$core..fmt..Display$GT$3fmt17he96a5499f353f6b4E
	.globl	_ZN44_$LT$$RF$T$u20$as$u20$core..fmt..Display$GT$3fmt17he96a5499f353f6b4E
	.p2align	4, 0x90
_ZN44_$LT$$RF$T$u20$as$u20$core..fmt..Display$GT$3fmt17he96a5499f353f6b4E:
.seh_proc _ZN44_$LT$$RF$T$u20$as$u20$core..fmt..Display$GT$3fmt17he96a5499f353f6b4E
	subq	$40, %rsp
	.seh_stackalloc 40
	.seh_endprologue
	movq	(%rcx), %rcx
	callq	_ZN67_$LT$proc_macro2..fallback..Ident$u20$as$u20$core..fmt..Display$GT$3fmt17h4b8d5721bf8cb2d0E
	andb	$1, %al
	movzbl	%al, %eax
	addq	$40, %rsp
	retq
	.seh_endproc

	.def	_ZN45_$LT$T$u20$as$u20$alloc..string..ToString$GT$9to_string17h09680ac09e806dddE;
	.scl	2;
	.type	32;
	.endef
	.section	.text,"xr",one_only,_ZN45_$LT$T$u20$as$u20$alloc..string..ToString$GT$9to_string17h09680ac09e806dddE
	.globl	_ZN45_$LT$T$u20$as$u20$alloc..string..ToString$GT$9to_string17h09680ac09e806dddE
	.p2align	4, 0x90
_ZN45_$LT$T$u20$as$u20$alloc..string..ToString$GT$9to_string17h09680ac09e806dddE:
.Lfunc_begin12:
.seh_proc _ZN45_$LT$T$u20$as$u20$alloc..string..ToString$GT$9to_string17h09680ac09e806dddE
	.seh_handler __CxxFrameHandler3, @unwind, @except
	pushq	%rbp
	.seh_pushreg %rbp
	subq	$224, %rsp
	.seh_stackalloc 224
	leaq	128(%rsp), %rbp
	.seh_setframe %rbp, 128
	.seh_endprologue
	movq	$-2, 88(%rbp)
	movq	%rdx, -96(%rbp)
	movq	%rcx, %rax
	movq	-96(%rbp), %rcx
	movq	%rax, -88(%rbp)
	movq	%rax, -80(%rbp)
	movq	$0, 32(%rbp)
	movq	$1, 40(%rbp)
	movq	$0, 48(%rbp)
	movq	48(%rbp), %rax
	movq	%rax, -48(%rbp)
	vmovdqu	32(%rbp), %xmm0
	vmovdqa	%xmm0, -64(%rbp)
	movq	$0, 56(%rbp)
	movq	$0, 72(%rbp)
	movl	$0, 20(%rbp)
	movl	$32, 16(%rbp)
	movb	$3, 24(%rbp)
	movq	56(%rbp), %rdx
	movq	64(%rbp), %rax
	movq	%rdx, -32(%rbp)
	movq	%rax, -24(%rbp)
	movq	72(%rbp), %rdx
	movq	80(%rbp), %rax
	movq	%rdx, -16(%rbp)
	movq	%rax, -8(%rbp)
	leaq	-64(%rbp), %rax
	movq	%rax, (%rbp)
	leaq	__unnamed_7(%rip), %rax
	movq	%rax, 8(%rbp)
.Ltmp36:
	leaq	-32(%rbp), %rdx
	callq	_ZN73_$LT$proc_macro2..fallback..TokenStream$u20$as$u20$core..fmt..Display$GT$3fmt17hb18b253211d5f367E
.Ltmp37:
	movb	%al, -65(%rbp)
	jmp	.LBB68_2
.LBB68_2:
.Ltmp38:
	movb	-65(%rbp), %cl
	andb	$1, %cl
	leaq	__unnamed_8(%rip), %rdx
	leaq	__unnamed_9(%rip), %r9
	movl	$55, %r8d
	callq	_ZN4core6result19Result$LT$T$C$E$GT$6expect17h42ce4f0abb54c0d6E
.Ltmp39:
	jmp	.LBB68_3
.LBB68_3:
	movq	-80(%rbp), %rax
	movq	-88(%rbp), %rcx
	movq	-64(%rbp), %rdx
	movq	%rdx, (%rcx)
	movq	-56(%rbp), %rdx
	movq	%rdx, 8(%rcx)
	movq	-48(%rbp), %rdx
	movq	%rdx, 16(%rcx)
	addq	$224, %rsp
	popq	%rbp
	retq
	.seh_handlerdata
	.long	($cppxdata$_ZN45_$LT$T$u20$as$u20$alloc..string..ToString$GT$9to_string17h09680ac09e806dddE)@IMGREL
	.section	.text,"xr",one_only,_ZN45_$LT$T$u20$as$u20$alloc..string..ToString$GT$9to_string17h09680ac09e806dddE
	.seh_endproc
	.def	"?dtor$1@?0?_ZN45_$LT$T$u20$as$u20$alloc..string..ToString$GT$9to_string17h09680ac09e806dddE@4HA";
	.scl	3;
	.type	32;
	.endef
	.p2align	4, 0x90
"?dtor$1@?0?_ZN45_$LT$T$u20$as$u20$alloc..string..ToString$GT$9to_string17h09680ac09e806dddE@4HA":
.seh_proc "?dtor$1@?0?_ZN45_$LT$T$u20$as$u20$alloc..string..ToString$GT$9to_string17h09680ac09e806dddE@4HA"
.LBB68_1:
	movq	%rdx, 16(%rsp)
	pushq	%rbp
	.seh_pushreg %rbp
	subq	$32, %rsp
	.seh_stackalloc 32
	leaq	128(%rdx), %rbp
	.seh_endprologue
	leaq	-64(%rbp), %rcx
	callq	_ZN4core3ptr42drop_in_place$LT$alloc..string..String$GT$17h39f9057bf19a3471E
	nop
	addq	$32, %rsp
	popq	%rbp
	retq
.Lfunc_end12:
	.seh_handlerdata
	.section	.text,"xr",one_only,_ZN45_$LT$T$u20$as$u20$alloc..string..ToString$GT$9to_string17h09680ac09e806dddE
	.seh_endproc
	.section	.xdata,"dr",associative,_ZN45_$LT$T$u20$as$u20$alloc..string..ToString$GT$9to_string17h09680ac09e806dddE
	.p2align	2, 0x0
$cppxdata$_ZN45_$LT$T$u20$as$u20$alloc..string..ToString$GT$9to_string17h09680ac09e806dddE:
	.long	429065506
	.long	1
	.long	($stateUnwindMap$_ZN45_$LT$T$u20$as$u20$alloc..string..ToString$GT$9to_string17h09680ac09e806dddE)@IMGREL
	.long	0
	.long	0
	.long	3
	.long	($ip2state$_ZN45_$LT$T$u20$as$u20$alloc..string..ToString$GT$9to_string17h09680ac09e806dddE)@IMGREL
	.long	216
	.long	0
	.long	1
$stateUnwindMap$_ZN45_$LT$T$u20$as$u20$alloc..string..ToString$GT$9to_string17h09680ac09e806dddE:
	.long	-1
	.long	"?dtor$1@?0?_ZN45_$LT$T$u20$as$u20$alloc..string..ToString$GT$9to_string17h09680ac09e806dddE@4HA"@IMGREL
$ip2state$_ZN45_$LT$T$u20$as$u20$alloc..string..ToString$GT$9to_string17h09680ac09e806dddE:
	.long	.Lfunc_begin12@IMGREL
	.long	-1
	.long	.Ltmp36@IMGREL+1
	.long	0
	.long	.Ltmp39@IMGREL+1
	.long	-1
	.section	.text,"xr",one_only,_ZN45_$LT$T$u20$as$u20$alloc..string..ToString$GT$9to_string17h09680ac09e806dddE

	.def	_ZN45_$LT$T$u20$as$u20$alloc..string..ToString$GT$9to_string17h3628b3bbd2fc9fd3E;
	.scl	2;
	.type	32;
	.endef
	.section	.text,"xr",one_only,_ZN45_$LT$T$u20$as$u20$alloc..string..ToString$GT$9to_string17h3628b3bbd2fc9fd3E
	.globl	_ZN45_$LT$T$u20$as$u20$alloc..string..ToString$GT$9to_string17h3628b3bbd2fc9fd3E
	.p2align	4, 0x90
_ZN45_$LT$T$u20$as$u20$alloc..string..ToString$GT$9to_string17h3628b3bbd2fc9fd3E:
.Lfunc_begin13:
.seh_proc _ZN45_$LT$T$u20$as$u20$alloc..string..ToString$GT$9to_string17h3628b3bbd2fc9fd3E
	.seh_handler __CxxFrameHandler3, @unwind, @except
	pushq	%rbp
	.seh_pushreg %rbp
	subq	$224, %rsp
	.seh_stackalloc 224
	leaq	128(%rsp), %rbp
	.seh_setframe %rbp, 128
	.seh_endprologue
	movq	$-2, 88(%rbp)
	movq	%rdx, -96(%rbp)
	movq	%rcx, %rax
	movq	-96(%rbp), %rcx
	movq	%rax, -88(%rbp)
	movq	%rax, -80(%rbp)
	movq	$0, 32(%rbp)
	movq	$1, 40(%rbp)
	movq	$0, 48(%rbp)
	movq	48(%rbp), %rax
	movq	%rax, -48(%rbp)
	vmovdqu	32(%rbp), %xmm0
	vmovdqa	%xmm0, -64(%rbp)
	movq	$0, 56(%rbp)
	movq	$0, 72(%rbp)
	movl	$0, 20(%rbp)
	movl	$32, 16(%rbp)
	movb	$3, 24(%rbp)
	movq	56(%rbp), %rdx
	movq	64(%rbp), %rax
	movq	%rdx, -32(%rbp)
	movq	%rax, -24(%rbp)
	movq	72(%rbp), %rdx
	movq	80(%rbp), %rax
	movq	%rdx, -16(%rbp)
	movq	%rax, -8(%rbp)
	leaq	-64(%rbp), %rax
	movq	%rax, (%rbp)
	leaq	__unnamed_7(%rip), %rax
	movq	%rax, 8(%rbp)
.Ltmp40:
	leaq	-32(%rbp), %rdx
	callq	_ZN4core3fmt3num3imp54_$LT$impl$u20$core..fmt..Display$u20$for$u20$isize$GT$3fmt17hb22c2d134888d803E
.Ltmp41:
	movb	%al, -65(%rbp)
	jmp	.LBB69_2
.LBB69_2:
.Ltmp42:
	movb	-65(%rbp), %cl
	andb	$1, %cl
	leaq	__unnamed_8(%rip), %rdx
	leaq	__unnamed_9(%rip), %r9
	movl	$55, %r8d
	callq	_ZN4core6result19Result$LT$T$C$E$GT$6expect17h42ce4f0abb54c0d6E
.Ltmp43:
	jmp	.LBB69_3
.LBB69_3:
	movq	-80(%rbp), %rax
	movq	-88(%rbp), %rcx
	movq	-64(%rbp), %rdx
	movq	%rdx, (%rcx)
	movq	-56(%rbp), %rdx
	movq	%rdx, 8(%rcx)
	movq	-48(%rbp), %rdx
	movq	%rdx, 16(%rcx)
	addq	$224, %rsp
	popq	%rbp
	retq
	.seh_handlerdata
	.long	($cppxdata$_ZN45_$LT$T$u20$as$u20$alloc..string..ToString$GT$9to_string17h3628b3bbd2fc9fd3E)@IMGREL
	.section	.text,"xr",one_only,_ZN45_$LT$T$u20$as$u20$alloc..string..ToString$GT$9to_string17h3628b3bbd2fc9fd3E
	.seh_endproc
	.def	"?dtor$1@?0?_ZN45_$LT$T$u20$as$u20$alloc..string..ToString$GT$9to_string17h3628b3bbd2fc9fd3E@4HA";
	.scl	3;
	.type	32;
	.endef
	.p2align	4, 0x90
"?dtor$1@?0?_ZN45_$LT$T$u20$as$u20$alloc..string..ToString$GT$9to_string17h3628b3bbd2fc9fd3E@4HA":
.seh_proc "?dtor$1@?0?_ZN45_$LT$T$u20$as$u20$alloc..string..ToString$GT$9to_string17h3628b3bbd2fc9fd3E@4HA"
.LBB69_1:
	movq	%rdx, 16(%rsp)
	pushq	%rbp
	.seh_pushreg %rbp
	subq	$32, %rsp
	.seh_stackalloc 32
	leaq	128(%rdx), %rbp
	.seh_endprologue
	leaq	-64(%rbp), %rcx
	callq	_ZN4core3ptr42drop_in_place$LT$alloc..string..String$GT$17h39f9057bf19a3471E
	nop
	addq	$32, %rsp
	popq	%rbp
	retq
.Lfunc_end13:
	.seh_handlerdata
	.section	.text,"xr",one_only,_ZN45_$LT$T$u20$as$u20$alloc..string..ToString$GT$9to_string17h3628b3bbd2fc9fd3E
	.seh_endproc
	.section	.xdata,"dr",associative,_ZN45_$LT$T$u20$as$u20$alloc..string..ToString$GT$9to_string17h3628b3bbd2fc9fd3E
	.p2align	2, 0x0
$cppxdata$_ZN45_$LT$T$u20$as$u20$alloc..string..ToString$GT$9to_string17h3628b3bbd2fc9fd3E:
	.long	429065506
	.long	1
	.long	($stateUnwindMap$_ZN45_$LT$T$u20$as$u20$alloc..string..ToString$GT$9to_string17h3628b3bbd2fc9fd3E)@IMGREL
	.long	0
	.long	0
	.long	3
	.long	($ip2state$_ZN45_$LT$T$u20$as$u20$alloc..string..ToString$GT$9to_string17h3628b3bbd2fc9fd3E)@IMGREL
	.long	216
	.long	0
	.long	1
$stateUnwindMap$_ZN45_$LT$T$u20$as$u20$alloc..string..ToString$GT$9to_string17h3628b3bbd2fc9fd3E:
	.long	-1
	.long	"?dtor$1@?0?_ZN45_$LT$T$u20$as$u20$alloc..string..ToString$GT$9to_string17h3628b3bbd2fc9fd3E@4HA"@IMGREL
$ip2state$_ZN45_$LT$T$u20$as$u20$alloc..string..ToString$GT$9to_string17h3628b3bbd2fc9fd3E:
	.long	.Lfunc_begin13@IMGREL
	.long	-1
	.long	.Ltmp40@IMGREL+1
	.long	0
	.long	.Ltmp43@IMGREL+1
	.long	-1
	.section	.text,"xr",one_only,_ZN45_$LT$T$u20$as$u20$alloc..string..ToString$GT$9to_string17h3628b3bbd2fc9fd3E

	.def	_ZN45_$LT$T$u20$as$u20$alloc..string..ToString$GT$9to_string17h4bb55a58605de302E;
	.scl	2;
	.type	32;
	.endef
	.section	.text,"xr",one_only,_ZN45_$LT$T$u20$as$u20$alloc..string..ToString$GT$9to_string17h4bb55a58605de302E
	.globl	_ZN45_$LT$T$u20$as$u20$alloc..string..ToString$GT$9to_string17h4bb55a58605de302E
	.p2align	4, 0x90
_ZN45_$LT$T$u20$as$u20$alloc..string..ToString$GT$9to_string17h4bb55a58605de302E:
.Lfunc_begin14:
.seh_proc _ZN45_$LT$T$u20$as$u20$alloc..string..ToString$GT$9to_string17h4bb55a58605de302E
	.seh_handler __CxxFrameHandler3, @unwind, @except
	pushq	%rbp
	.seh_pushreg %rbp
	subq	$224, %rsp
	.seh_stackalloc 224
	leaq	128(%rsp), %rbp
	.seh_setframe %rbp, 128
	.seh_endprologue
	movq	$-2, 88(%rbp)
	movq	%rdx, -96(%rbp)
	movq	%rcx, %rax
	movq	-96(%rbp), %rcx
	movq	%rax, -88(%rbp)
	movq	%rax, -80(%rbp)
	movq	$0, 32(%rbp)
	movq	$1, 40(%rbp)
	movq	$0, 48(%rbp)
	movq	48(%rbp), %rax
	movq	%rax, -48(%rbp)
	vmovdqu	32(%rbp), %xmm0
	vmovdqa	%xmm0, -64(%rbp)
	movq	$0, 56(%rbp)
	movq	$0, 72(%rbp)
	movl	$0, 20(%rbp)
	movl	$32, 16(%rbp)
	movb	$3, 24(%rbp)
	movq	56(%rbp), %rdx
	movq	64(%rbp), %rax
	movq	%rdx, -32(%rbp)
	movq	%rax, -24(%rbp)
	movq	72(%rbp), %rdx
	movq	80(%rbp), %rax
	movq	%rdx, -16(%rbp)
	movq	%rax, -8(%rbp)
	leaq	-64(%rbp), %rax
	movq	%rax, (%rbp)
	leaq	__unnamed_7(%rip), %rax
	movq	%rax, 8(%rbp)
.Ltmp44:
	leaq	-32(%rbp), %rdx
	callq	_ZN4core3fmt3num3imp52_$LT$impl$u20$core..fmt..Display$u20$for$u20$i32$GT$3fmt17h46f274b61e2f4c49E
.Ltmp45:
	movb	%al, -65(%rbp)
	jmp	.LBB70_2
.LBB70_2:
.Ltmp46:
	movb	-65(%rbp), %cl
	andb	$1, %cl
	leaq	__unnamed_8(%rip), %rdx
	leaq	__unnamed_9(%rip), %r9
	movl	$55, %r8d
	callq	_ZN4core6result19Result$LT$T$C$E$GT$6expect17h42ce4f0abb54c0d6E
.Ltmp47:
	jmp	.LBB70_3
.LBB70_3:
	movq	-80(%rbp), %rax
	movq	-88(%rbp), %rcx
	movq	-64(%rbp), %rdx
	movq	%rdx, (%rcx)
	movq	-56(%rbp), %rdx
	movq	%rdx, 8(%rcx)
	movq	-48(%rbp), %rdx
	movq	%rdx, 16(%rcx)
	addq	$224, %rsp
	popq	%rbp
	retq
	.seh_handlerdata
	.long	($cppxdata$_ZN45_$LT$T$u20$as$u20$alloc..string..ToString$GT$9to_string17h4bb55a58605de302E)@IMGREL
	.section	.text,"xr",one_only,_ZN45_$LT$T$u20$as$u20$alloc..string..ToString$GT$9to_string17h4bb55a58605de302E
	.seh_endproc
	.def	"?dtor$1@?0?_ZN45_$LT$T$u20$as$u20$alloc..string..ToString$GT$9to_string17h4bb55a58605de302E@4HA";
	.scl	3;
	.type	32;
	.endef
	.p2align	4, 0x90
"?dtor$1@?0?_ZN45_$LT$T$u20$as$u20$alloc..string..ToString$GT$9to_string17h4bb55a58605de302E@4HA":
.seh_proc "?dtor$1@?0?_ZN45_$LT$T$u20$as$u20$alloc..string..ToString$GT$9to_string17h4bb55a58605de302E@4HA"
.LBB70_1:
	movq	%rdx, 16(%rsp)
	pushq	%rbp
	.seh_pushreg %rbp
	subq	$32, %rsp
	.seh_stackalloc 32
	leaq	128(%rdx), %rbp
	.seh_endprologue
	leaq	-64(%rbp), %rcx
	callq	_ZN4core3ptr42drop_in_place$LT$alloc..string..String$GT$17h39f9057bf19a3471E
	nop
	addq	$32, %rsp
	popq	%rbp
	retq
.Lfunc_end14:
	.seh_handlerdata
	.section	.text,"xr",one_only,_ZN45_$LT$T$u20$as$u20$alloc..string..ToString$GT$9to_string17h4bb55a58605de302E
	.seh_endproc
	.section	.xdata,"dr",associative,_ZN45_$LT$T$u20$as$u20$alloc..string..ToString$GT$9to_string17h4bb55a58605de302E
	.p2align	2, 0x0
$cppxdata$_ZN45_$LT$T$u20$as$u20$alloc..string..ToString$GT$9to_string17h4bb55a58605de302E:
	.long	429065506
	.long	1
	.long	($stateUnwindMap$_ZN45_$LT$T$u20$as$u20$alloc..string..ToString$GT$9to_string17h4bb55a58605de302E)@IMGREL
	.long	0
	.long	0
	.long	3
	.long	($ip2state$_ZN45_$LT$T$u20$as$u20$alloc..string..ToString$GT$9to_string17h4bb55a58605de302E)@IMGREL
	.long	216
	.long	0
	.long	1
$stateUnwindMap$_ZN45_$LT$T$u20$as$u20$alloc..string..ToString$GT$9to_string17h4bb55a58605de302E:
	.long	-1
	.long	"?dtor$1@?0?_ZN45_$LT$T$u20$as$u20$alloc..string..ToString$GT$9to_string17h4bb55a58605de302E@4HA"@IMGREL
$ip2state$_ZN45_$LT$T$u20$as$u20$alloc..string..ToString$GT$9to_string17h4bb55a58605de302E:
	.long	.Lfunc_begin14@IMGREL
	.long	-1
	.long	.Ltmp44@IMGREL+1
	.long	0
	.long	.Ltmp47@IMGREL+1
	.long	-1
	.section	.text,"xr",one_only,_ZN45_$LT$T$u20$as$u20$alloc..string..ToString$GT$9to_string17h4bb55a58605de302E

	.def	_ZN45_$LT$T$u20$as$u20$alloc..string..ToString$GT$9to_string17h6080a263b339c517E;
	.scl	2;
	.type	32;
	.endef
	.section	.text,"xr",one_only,_ZN45_$LT$T$u20$as$u20$alloc..string..ToString$GT$9to_string17h6080a263b339c517E
	.globl	_ZN45_$LT$T$u20$as$u20$alloc..string..ToString$GT$9to_string17h6080a263b339c517E
	.p2align	4, 0x90
_ZN45_$LT$T$u20$as$u20$alloc..string..ToString$GT$9to_string17h6080a263b339c517E:
.Lfunc_begin15:
.seh_proc _ZN45_$LT$T$u20$as$u20$alloc..string..ToString$GT$9to_string17h6080a263b339c517E
	.seh_handler __CxxFrameHandler3, @unwind, @except
	pushq	%rbp
	.seh_pushreg %rbp
	subq	$224, %rsp
	.seh_stackalloc 224
	leaq	128(%rsp), %rbp
	.seh_setframe %rbp, 128
	.seh_endprologue
	movq	$-2, 88(%rbp)
	movq	%rdx, -96(%rbp)
	movq	%rcx, %rax
	movq	-96(%rbp), %rcx
	movq	%rax, -88(%rbp)
	movq	%rax, -80(%rbp)
	movq	$0, 32(%rbp)
	movq	$1, 40(%rbp)
	movq	$0, 48(%rbp)
	movq	48(%rbp), %rax
	movq	%rax, -48(%rbp)
	vmovdqu	32(%rbp), %xmm0
	vmovdqa	%xmm0, -64(%rbp)
	movq	$0, 56(%rbp)
	movq	$0, 72(%rbp)
	movl	$0, 20(%rbp)
	movl	$32, 16(%rbp)
	movb	$3, 24(%rbp)
	movq	56(%rbp), %rdx
	movq	64(%rbp), %rax
	movq	%rdx, -32(%rbp)
	movq	%rax, -24(%rbp)
	movq	72(%rbp), %rdx
	movq	80(%rbp), %rax
	movq	%rdx, -16(%rbp)
	movq	%rax, -8(%rbp)
	leaq	-64(%rbp), %rax
	movq	%rax, (%rbp)
	leaq	__unnamed_7(%rip), %rax
	movq	%rax, 8(%rbp)
.Ltmp48:
	leaq	-32(%rbp), %rdx
	callq	_ZN4core3fmt3num53_$LT$impl$u20$core..fmt..Display$u20$for$u20$i128$GT$3fmt17hc06a683ffc59412bE
.Ltmp49:
	movb	%al, -65(%rbp)
	jmp	.LBB71_2
.LBB71_2:
.Ltmp50:
	movb	-65(%rbp), %cl
	andb	$1, %cl
	leaq	__unnamed_8(%rip), %rdx
	leaq	__unnamed_9(%rip), %r9
	movl	$55, %r8d
	callq	_ZN4core6result19Result$LT$T$C$E$GT$6expect17h42ce4f0abb54c0d6E
.Ltmp51:
	jmp	.LBB71_3
.LBB71_3:
	movq	-80(%rbp), %rax
	movq	-88(%rbp), %rcx
	movq	-64(%rbp), %rdx
	movq	%rdx, (%rcx)
	movq	-56(%rbp), %rdx
	movq	%rdx, 8(%rcx)
	movq	-48(%rbp), %rdx
	movq	%rdx, 16(%rcx)
	addq	$224, %rsp
	popq	%rbp
	retq
	.seh_handlerdata
	.long	($cppxdata$_ZN45_$LT$T$u20$as$u20$alloc..string..ToString$GT$9to_string17h6080a263b339c517E)@IMGREL
	.section	.text,"xr",one_only,_ZN45_$LT$T$u20$as$u20$alloc..string..ToString$GT$9to_string17h6080a263b339c517E
	.seh_endproc
	.def	"?dtor$1@?0?_ZN45_$LT$T$u20$as$u20$alloc..string..ToString$GT$9to_string17h6080a263b339c517E@4HA";
	.scl	3;
	.type	32;
	.endef
	.p2align	4, 0x90
"?dtor$1@?0?_ZN45_$LT$T$u20$as$u20$alloc..string..ToString$GT$9to_string17h6080a263b339c517E@4HA":
.seh_proc "?dtor$1@?0?_ZN45_$LT$T$u20$as$u20$alloc..string..ToString$GT$9to_string17h6080a263b339c517E@4HA"
.LBB71_1:
	movq	%rdx, 16(%rsp)
	pushq	%rbp
	.seh_pushreg %rbp
	subq	$32, %rsp
	.seh_stackalloc 32
	leaq	128(%rdx), %rbp
	.seh_endprologue
	leaq	-64(%rbp), %rcx
	callq	_ZN4core3ptr42drop_in_place$LT$alloc..string..String$GT$17h39f9057bf19a3471E
	nop
	addq	$32, %rsp
	popq	%rbp
	retq
.Lfunc_end15:
	.seh_handlerdata
	.section	.text,"xr",one_only,_ZN45_$LT$T$u20$as$u20$alloc..string..ToString$GT$9to_string17h6080a263b339c517E
	.seh_endproc
	.section	.xdata,"dr",associative,_ZN45_$LT$T$u20$as$u20$alloc..string..ToString$GT$9to_string17h6080a263b339c517E
	.p2align	2, 0x0
$cppxdata$_ZN45_$LT$T$u20$as$u20$alloc..string..ToString$GT$9to_string17h6080a263b339c517E:
	.long	429065506
	.long	1
	.long	($stateUnwindMap$_ZN45_$LT$T$u20$as$u20$alloc..string..ToString$GT$9to_string17h6080a263b339c517E)@IMGREL
	.long	0
	.long	0
	.long	3
	.long	($ip2state$_ZN45_$LT$T$u20$as$u20$alloc..string..ToString$GT$9to_string17h6080a263b339c517E)@IMGREL
	.long	216
	.long	0
	.long	1
$stateUnwindMap$_ZN45_$LT$T$u20$as$u20$alloc..string..ToString$GT$9to_string17h6080a263b339c517E:
	.long	-1
	.long	"?dtor$1@?0?_ZN45_$LT$T$u20$as$u20$alloc..string..ToString$GT$9to_string17h6080a263b339c517E@4HA"@IMGREL
$ip2state$_ZN45_$LT$T$u20$as$u20$alloc..string..ToString$GT$9to_string17h6080a263b339c517E:
	.long	.Lfunc_begin15@IMGREL
	.long	-1
	.long	.Ltmp48@IMGREL+1
	.long	0
	.long	.Ltmp51@IMGREL+1
	.long	-1
	.section	.text,"xr",one_only,_ZN45_$LT$T$u20$as$u20$alloc..string..ToString$GT$9to_string17h6080a263b339c517E

	.def	_ZN45_$LT$T$u20$as$u20$alloc..string..ToString$GT$9to_string17h7970198a05840843E;
	.scl	2;
	.type	32;
	.endef
	.section	.text,"xr",one_only,_ZN45_$LT$T$u20$as$u20$alloc..string..ToString$GT$9to_string17h7970198a05840843E
	.globl	_ZN45_$LT$T$u20$as$u20$alloc..string..ToString$GT$9to_string17h7970198a05840843E
	.p2align	4, 0x90
_ZN45_$LT$T$u20$as$u20$alloc..string..ToString$GT$9to_string17h7970198a05840843E:
.Lfunc_begin16:
.seh_proc _ZN45_$LT$T$u20$as$u20$alloc..string..ToString$GT$9to_string17h7970198a05840843E
	.seh_handler __CxxFrameHandler3, @unwind, @except
	pushq	%rbp
	.seh_pushreg %rbp
	subq	$224, %rsp
	.seh_stackalloc 224
	leaq	128(%rsp), %rbp
	.seh_setframe %rbp, 128
	.seh_endprologue
	movq	$-2, 88(%rbp)
	movq	%rdx, -96(%rbp)
	movq	%rcx, %rax
	movq	-96(%rbp), %rcx
	movq	%rax, -88(%rbp)
	movq	%rax, -80(%rbp)
	movq	$0, 32(%rbp)
	movq	$1, 40(%rbp)
	movq	$0, 48(%rbp)
	movq	48(%rbp), %rax
	movq	%rax, -48(%rbp)
	vmovdqu	32(%rbp), %xmm0
	vmovdqa	%xmm0, -64(%rbp)
	movq	$0, 56(%rbp)
	movq	$0, 72(%rbp)
	movl	$0, 20(%rbp)
	movl	$32, 16(%rbp)
	movb	$3, 24(%rbp)
	movq	56(%rbp), %rdx
	movq	64(%rbp), %rax
	movq	%rdx, -32(%rbp)
	movq	%rax, -24(%rbp)
	movq	72(%rbp), %rdx
	movq	80(%rbp), %rax
	movq	%rdx, -16(%rbp)
	movq	%rax, -8(%rbp)
	leaq	-64(%rbp), %rax
	movq	%rax, (%rbp)
	leaq	__unnamed_7(%rip), %rax
	movq	%rax, 8(%rbp)
.Ltmp52:
	leaq	-32(%rbp), %rdx
	callq	_ZN4core3fmt3num53_$LT$impl$u20$core..fmt..Display$u20$for$u20$u128$GT$3fmt17h7f7b833e5c955bcfE
.Ltmp53:
	movb	%al, -65(%rbp)
	jmp	.LBB72_2
.LBB72_2:
.Ltmp54:
	movb	-65(%rbp), %cl
	andb	$1, %cl
	leaq	__unnamed_8(%rip), %rdx
	leaq	__unnamed_9(%rip), %r9
	movl	$55, %r8d
	callq	_ZN4core6result19Result$LT$T$C$E$GT$6expect17h42ce4f0abb54c0d6E
.Ltmp55:
	jmp	.LBB72_3
.LBB72_3:
	movq	-80(%rbp), %rax
	movq	-88(%rbp), %rcx
	movq	-64(%rbp), %rdx
	movq	%rdx, (%rcx)
	movq	-56(%rbp), %rdx
	movq	%rdx, 8(%rcx)
	movq	-48(%rbp), %rdx
	movq	%rdx, 16(%rcx)
	addq	$224, %rsp
	popq	%rbp
	retq
	.seh_handlerdata
	.long	($cppxdata$_ZN45_$LT$T$u20$as$u20$alloc..string..ToString$GT$9to_string17h7970198a05840843E)@IMGREL
	.section	.text,"xr",one_only,_ZN45_$LT$T$u20$as$u20$alloc..string..ToString$GT$9to_string17h7970198a05840843E
	.seh_endproc
	.def	"?dtor$1@?0?_ZN45_$LT$T$u20$as$u20$alloc..string..ToString$GT$9to_string17h7970198a05840843E@4HA";
	.scl	3;
	.type	32;
	.endef
	.p2align	4, 0x90
"?dtor$1@?0?_ZN45_$LT$T$u20$as$u20$alloc..string..ToString$GT$9to_string17h7970198a05840843E@4HA":
.seh_proc "?dtor$1@?0?_ZN45_$LT$T$u20$as$u20$alloc..string..ToString$GT$9to_string17h7970198a05840843E@4HA"
.LBB72_1:
	movq	%rdx, 16(%rsp)
	pushq	%rbp
	.seh_pushreg %rbp
	subq	$32, %rsp
	.seh_stackalloc 32
	leaq	128(%rdx), %rbp
	.seh_endprologue
	leaq	-64(%rbp), %rcx
	callq	_ZN4core3ptr42drop_in_place$LT$alloc..string..String$GT$17h39f9057bf19a3471E
	nop
	addq	$32, %rsp
	popq	%rbp
	retq
.Lfunc_end16:
	.seh_handlerdata
	.section	.text,"xr",one_only,_ZN45_$LT$T$u20$as$u20$alloc..string..ToString$GT$9to_string17h7970198a05840843E
	.seh_endproc
	.section	.xdata,"dr",associative,_ZN45_$LT$T$u20$as$u20$alloc..string..ToString$GT$9to_string17h7970198a05840843E
	.p2align	2, 0x0
$cppxdata$_ZN45_$LT$T$u20$as$u20$alloc..string..ToString$GT$9to_string17h7970198a05840843E:
	.long	429065506
	.long	1
	.long	($stateUnwindMap$_ZN45_$LT$T$u20$as$u20$alloc..string..ToString$GT$9to_string17h7970198a05840843E)@IMGREL
	.long	0
	.long	0
	.long	3
	.long	($ip2state$_ZN45_$LT$T$u20$as$u20$alloc..string..ToString$GT$9to_string17h7970198a05840843E)@IMGREL
	.long	216
	.long	0
	.long	1
$stateUnwindMap$_ZN45_$LT$T$u20$as$u20$alloc..string..ToString$GT$9to_string17h7970198a05840843E:
	.long	-1
	.long	"?dtor$1@?0?_ZN45_$LT$T$u20$as$u20$alloc..string..ToString$GT$9to_string17h7970198a05840843E@4HA"@IMGREL
$ip2state$_ZN45_$LT$T$u20$as$u20$alloc..string..ToString$GT$9to_string17h7970198a05840843E:
	.long	.Lfunc_begin16@IMGREL
	.long	-1
	.long	.Ltmp52@IMGREL+1
	.long	0
	.long	.Ltmp55@IMGREL+1
	.long	-1
	.section	.text,"xr",one_only,_ZN45_$LT$T$u20$as$u20$alloc..string..ToString$GT$9to_string17h7970198a05840843E

	.def	_ZN45_$LT$T$u20$as$u20$alloc..string..ToString$GT$9to_string17h7e39174648fae15fE;
	.scl	2;
	.type	32;
	.endef
	.section	.text,"xr",one_only,_ZN45_$LT$T$u20$as$u20$alloc..string..ToString$GT$9to_string17h7e39174648fae15fE
	.globl	_ZN45_$LT$T$u20$as$u20$alloc..string..ToString$GT$9to_string17h7e39174648fae15fE
	.p2align	4, 0x90
_ZN45_$LT$T$u20$as$u20$alloc..string..ToString$GT$9to_string17h7e39174648fae15fE:
.Lfunc_begin17:
.seh_proc _ZN45_$LT$T$u20$as$u20$alloc..string..ToString$GT$9to_string17h7e39174648fae15fE
	.seh_handler __CxxFrameHandler3, @unwind, @except
	pushq	%rbp
	.seh_pushreg %rbp
	subq	$224, %rsp
	.seh_stackalloc 224
	leaq	128(%rsp), %rbp
	.seh_setframe %rbp, 128
	.seh_endprologue
	movq	$-2, 88(%rbp)
	movq	%rdx, -96(%rbp)
	movq	%rcx, %rax
	movq	-96(%rbp), %rcx
	movq	%rax, -88(%rbp)
	movq	%rax, -80(%rbp)
	movq	$0, 32(%rbp)
	movq	$1, 40(%rbp)
	movq	$0, 48(%rbp)
	movq	48(%rbp), %rax
	movq	%rax, -48(%rbp)
	vmovdqu	32(%rbp), %xmm0
	vmovdqa	%xmm0, -64(%rbp)
	movq	$0, 56(%rbp)
	movq	$0, 72(%rbp)
	movl	$0, 20(%rbp)
	movl	$32, 16(%rbp)
	movb	$3, 24(%rbp)
	movq	56(%rbp), %rdx
	movq	64(%rbp), %rax
	movq	%rdx, -32(%rbp)
	movq	%rax, -24(%rbp)
	movq	72(%rbp), %rdx
	movq	80(%rbp), %rax
	movq	%rdx, -16(%rbp)
	movq	%rax, -8(%rbp)
	leaq	-64(%rbp), %rax
	movq	%rax, (%rbp)
	leaq	__unnamed_7(%rip), %rax
	movq	%rax, 8(%rbp)
.Ltmp56:
	leaq	-32(%rbp), %rdx
	callq	_ZN4core3fmt3num3imp52_$LT$impl$u20$core..fmt..Display$u20$for$u20$i64$GT$3fmt17hd548383d6fcda1f7E
.Ltmp57:
	movb	%al, -65(%rbp)
	jmp	.LBB73_2
.LBB73_2:
.Ltmp58:
	movb	-65(%rbp), %cl
	andb	$1, %cl
	leaq	__unnamed_8(%rip), %rdx
	leaq	__unnamed_9(%rip), %r9
	movl	$55, %r8d
	callq	_ZN4core6result19Result$LT$T$C$E$GT$6expect17h42ce4f0abb54c0d6E
.Ltmp59:
	jmp	.LBB73_3
.LBB73_3:
	movq	-80(%rbp), %rax
	movq	-88(%rbp), %rcx
	movq	-64(%rbp), %rdx
	movq	%rdx, (%rcx)
	movq	-56(%rbp), %rdx
	movq	%rdx, 8(%rcx)
	movq	-48(%rbp), %rdx
	movq	%rdx, 16(%rcx)
	addq	$224, %rsp
	popq	%rbp
	retq
	.seh_handlerdata
	.long	($cppxdata$_ZN45_$LT$T$u20$as$u20$alloc..string..ToString$GT$9to_string17h7e39174648fae15fE)@IMGREL
	.section	.text,"xr",one_only,_ZN45_$LT$T$u20$as$u20$alloc..string..ToString$GT$9to_string17h7e39174648fae15fE
	.seh_endproc
	.def	"?dtor$1@?0?_ZN45_$LT$T$u20$as$u20$alloc..string..ToString$GT$9to_string17h7e39174648fae15fE@4HA";
	.scl	3;
	.type	32;
	.endef
	.p2align	4, 0x90
"?dtor$1@?0?_ZN45_$LT$T$u20$as$u20$alloc..string..ToString$GT$9to_string17h7e39174648fae15fE@4HA":
.seh_proc "?dtor$1@?0?_ZN45_$LT$T$u20$as$u20$alloc..string..ToString$GT$9to_string17h7e39174648fae15fE@4HA"
.LBB73_1:
	movq	%rdx, 16(%rsp)
	pushq	%rbp
	.seh_pushreg %rbp
	subq	$32, %rsp
	.seh_stackalloc 32
	leaq	128(%rdx), %rbp
	.seh_endprologue
	leaq	-64(%rbp), %rcx
	callq	_ZN4core3ptr42drop_in_place$LT$alloc..string..String$GT$17h39f9057bf19a3471E
	nop
	addq	$32, %rsp
	popq	%rbp
	retq
.Lfunc_end17:
	.seh_handlerdata
	.section	.text,"xr",one_only,_ZN45_$LT$T$u20$as$u20$alloc..string..ToString$GT$9to_string17h7e39174648fae15fE
	.seh_endproc
	.section	.xdata,"dr",associative,_ZN45_$LT$T$u20$as$u20$alloc..string..ToString$GT$9to_string17h7e39174648fae15fE
	.p2align	2, 0x0
$cppxdata$_ZN45_$LT$T$u20$as$u20$alloc..string..ToString$GT$9to_string17h7e39174648fae15fE:
	.long	429065506
	.long	1
	.long	($stateUnwindMap$_ZN45_$LT$T$u20$as$u20$alloc..string..ToString$GT$9to_string17h7e39174648fae15fE)@IMGREL
	.long	0
	.long	0
	.long	3
	.long	($ip2state$_ZN45_$LT$T$u20$as$u20$alloc..string..ToString$GT$9to_string17h7e39174648fae15fE)@IMGREL
	.long	216
	.long	0
	.long	1
$stateUnwindMap$_ZN45_$LT$T$u20$as$u20$alloc..string..ToString$GT$9to_string17h7e39174648fae15fE:
	.long	-1
	.long	"?dtor$1@?0?_ZN45_$LT$T$u20$as$u20$alloc..string..ToString$GT$9to_string17h7e39174648fae15fE@4HA"@IMGREL
$ip2state$_ZN45_$LT$T$u20$as$u20$alloc..string..ToString$GT$9to_string17h7e39174648fae15fE:
	.long	.Lfunc_begin17@IMGREL
	.long	-1
	.long	.Ltmp56@IMGREL+1
	.long	0
	.long	.Ltmp59@IMGREL+1
	.long	-1
	.section	.text,"xr",one_only,_ZN45_$LT$T$u20$as$u20$alloc..string..ToString$GT$9to_string17h7e39174648fae15fE

	.def	_ZN45_$LT$T$u20$as$u20$alloc..string..ToString$GT$9to_string17h80d59f22a15efe08E;
	.scl	2;
	.type	32;
	.endef
	.section	.text,"xr",one_only,_ZN45_$LT$T$u20$as$u20$alloc..string..ToString$GT$9to_string17h80d59f22a15efe08E
	.globl	_ZN45_$LT$T$u20$as$u20$alloc..string..ToString$GT$9to_string17h80d59f22a15efe08E
	.p2align	4, 0x90
_ZN45_$LT$T$u20$as$u20$alloc..string..ToString$GT$9to_string17h80d59f22a15efe08E:
.Lfunc_begin18:
.seh_proc _ZN45_$LT$T$u20$as$u20$alloc..string..ToString$GT$9to_string17h80d59f22a15efe08E
	.seh_handler __CxxFrameHandler3, @unwind, @except
	pushq	%rbp
	.seh_pushreg %rbp
	subq	$224, %rsp
	.seh_stackalloc 224
	leaq	128(%rsp), %rbp
	.seh_setframe %rbp, 128
	.seh_endprologue
	movq	$-2, 88(%rbp)
	movq	%rdx, -96(%rbp)
	movq	%rcx, %rax
	movq	-96(%rbp), %rcx
	movq	%rax, -88(%rbp)
	movq	%rax, -80(%rbp)
	movq	$0, 32(%rbp)
	movq	$1, 40(%rbp)
	movq	$0, 48(%rbp)
	movq	48(%rbp), %rax
	movq	%rax, -48(%rbp)
	vmovdqu	32(%rbp), %xmm0
	vmovdqa	%xmm0, -64(%rbp)
	movq	$0, 56(%rbp)
	movq	$0, 72(%rbp)
	movl	$0, 20(%rbp)
	movl	$32, 16(%rbp)
	movb	$3, 24(%rbp)
	movq	56(%rbp), %rdx
	movq	64(%rbp), %rax
	movq	%rdx, -32(%rbp)
	movq	%rax, -24(%rbp)
	movq	72(%rbp), %rdx
	movq	80(%rbp), %rax
	movq	%rdx, -16(%rbp)
	movq	%rax, -8(%rbp)
	leaq	-64(%rbp), %rax
	movq	%rax, (%rbp)
	leaq	__unnamed_7(%rip), %rax
	movq	%rax, 8(%rbp)
.Ltmp60:
	leaq	-32(%rbp), %rdx
	callq	_ZN4core3fmt5float52_$LT$impl$u20$core..fmt..Display$u20$for$u20$f32$GT$3fmt17ha0ec8ca2a8cdcda8E
.Ltmp61:
	movb	%al, -65(%rbp)
	jmp	.LBB74_2
.LBB74_2:
.Ltmp62:
	movb	-65(%rbp), %cl
	andb	$1, %cl
	leaq	__unnamed_8(%rip), %rdx
	leaq	__unnamed_9(%rip), %r9
	movl	$55, %r8d
	callq	_ZN4core6result19Result$LT$T$C$E$GT$6expect17h42ce4f0abb54c0d6E
.Ltmp63:
	jmp	.LBB74_3
.LBB74_3:
	movq	-80(%rbp), %rax
	movq	-88(%rbp), %rcx
	movq	-64(%rbp), %rdx
	movq	%rdx, (%rcx)
	movq	-56(%rbp), %rdx
	movq	%rdx, 8(%rcx)
	movq	-48(%rbp), %rdx
	movq	%rdx, 16(%rcx)
	addq	$224, %rsp
	popq	%rbp
	retq
	.seh_handlerdata
	.long	($cppxdata$_ZN45_$LT$T$u20$as$u20$alloc..string..ToString$GT$9to_string17h80d59f22a15efe08E)@IMGREL
	.section	.text,"xr",one_only,_ZN45_$LT$T$u20$as$u20$alloc..string..ToString$GT$9to_string17h80d59f22a15efe08E
	.seh_endproc
	.def	"?dtor$1@?0?_ZN45_$LT$T$u20$as$u20$alloc..string..ToString$GT$9to_string17h80d59f22a15efe08E@4HA";
	.scl	3;
	.type	32;
	.endef
	.p2align	4, 0x90
"?dtor$1@?0?_ZN45_$LT$T$u20$as$u20$alloc..string..ToString$GT$9to_string17h80d59f22a15efe08E@4HA":
.seh_proc "?dtor$1@?0?_ZN45_$LT$T$u20$as$u20$alloc..string..ToString$GT$9to_string17h80d59f22a15efe08E@4HA"
.LBB74_1:
	movq	%rdx, 16(%rsp)
	pushq	%rbp
	.seh_pushreg %rbp
	subq	$32, %rsp
	.seh_stackalloc 32
	leaq	128(%rdx), %rbp
	.seh_endprologue
	leaq	-64(%rbp), %rcx
	callq	_ZN4core3ptr42drop_in_place$LT$alloc..string..String$GT$17h39f9057bf19a3471E
	nop
	addq	$32, %rsp
	popq	%rbp
	retq
.Lfunc_end18:
	.seh_handlerdata
	.section	.text,"xr",one_only,_ZN45_$LT$T$u20$as$u20$alloc..string..ToString$GT$9to_string17h80d59f22a15efe08E
	.seh_endproc
	.section	.xdata,"dr",associative,_ZN45_$LT$T$u20$as$u20$alloc..string..ToString$GT$9to_string17h80d59f22a15efe08E
	.p2align	2, 0x0
$cppxdata$_ZN45_$LT$T$u20$as$u20$alloc..string..ToString$GT$9to_string17h80d59f22a15efe08E:
	.long	429065506
	.long	1
	.long	($stateUnwindMap$_ZN45_$LT$T$u20$as$u20$alloc..string..ToString$GT$9to_string17h80d59f22a15efe08E)@IMGREL
	.long	0
	.long	0
	.long	3
	.long	($ip2state$_ZN45_$LT$T$u20$as$u20$alloc..string..ToString$GT$9to_string17h80d59f22a15efe08E)@IMGREL
	.long	216
	.long	0
	.long	1
$stateUnwindMap$_ZN45_$LT$T$u20$as$u20$alloc..string..ToString$GT$9to_string17h80d59f22a15efe08E:
	.long	-1
	.long	"?dtor$1@?0?_ZN45_$LT$T$u20$as$u20$alloc..string..ToString$GT$9to_string17h80d59f22a15efe08E@4HA"@IMGREL
$ip2state$_ZN45_$LT$T$u20$as$u20$alloc..string..ToString$GT$9to_string17h80d59f22a15efe08E:
	.long	.Lfunc_begin18@IMGREL
	.long	-1
	.long	.Ltmp60@IMGREL+1
	.long	0
	.long	.Ltmp63@IMGREL+1
	.long	-1
	.section	.text,"xr",one_only,_ZN45_$LT$T$u20$as$u20$alloc..string..ToString$GT$9to_string17h80d59f22a15efe08E

	.def	_ZN45_$LT$T$u20$as$u20$alloc..string..ToString$GT$9to_string17h85c4ea23d36c87d5E;
	.scl	2;
	.type	32;
	.endef
	.section	.text,"xr",one_only,_ZN45_$LT$T$u20$as$u20$alloc..string..ToString$GT$9to_string17h85c4ea23d36c87d5E
	.globl	_ZN45_$LT$T$u20$as$u20$alloc..string..ToString$GT$9to_string17h85c4ea23d36c87d5E
	.p2align	4, 0x90
_ZN45_$LT$T$u20$as$u20$alloc..string..ToString$GT$9to_string17h85c4ea23d36c87d5E:
.Lfunc_begin19:
.seh_proc _ZN45_$LT$T$u20$as$u20$alloc..string..ToString$GT$9to_string17h85c4ea23d36c87d5E
	.seh_handler __CxxFrameHandler3, @unwind, @except
	pushq	%rbp
	.seh_pushreg %rbp
	subq	$224, %rsp
	.seh_stackalloc 224
	leaq	128(%rsp), %rbp
	.seh_setframe %rbp, 128
	.seh_endprologue
	movq	$-2, 88(%rbp)
	movq	%rdx, -96(%rbp)
	movq	%rcx, %rax
	movq	-96(%rbp), %rcx
	movq	%rax, -88(%rbp)
	movq	%rax, -80(%rbp)
	movq	$0, 32(%rbp)
	movq	$1, 40(%rbp)
	movq	$0, 48(%rbp)
	movq	48(%rbp), %rax
	movq	%rax, -48(%rbp)
	vmovdqu	32(%rbp), %xmm0
	vmovdqa	%xmm0, -64(%rbp)
	movq	$0, 56(%rbp)
	movq	$0, 72(%rbp)
	movl	$0, 20(%rbp)
	movl	$32, 16(%rbp)
	movb	$3, 24(%rbp)
	movq	56(%rbp), %rdx
	movq	64(%rbp), %rax
	movq	%rdx, -32(%rbp)
	movq	%rax, -24(%rbp)
	movq	72(%rbp), %rdx
	movq	80(%rbp), %rax
	movq	%rdx, -16(%rbp)
	movq	%rax, -8(%rbp)
	leaq	-64(%rbp), %rax
	movq	%rax, (%rbp)
	leaq	__unnamed_7(%rip), %rax
	movq	%rax, 8(%rbp)
.Ltmp64:
	leaq	-32(%rbp), %rdx
	callq	_ZN4core3fmt3num3imp54_$LT$impl$u20$core..fmt..Display$u20$for$u20$usize$GT$3fmt17h334fec8f020c9fa2E
.Ltmp65:
	movb	%al, -65(%rbp)
	jmp	.LBB75_2
.LBB75_2:
.Ltmp66:
	movb	-65(%rbp), %cl
	andb	$1, %cl
	leaq	__unnamed_8(%rip), %rdx
	leaq	__unnamed_9(%rip), %r9
	movl	$55, %r8d
	callq	_ZN4core6result19Result$LT$T$C$E$GT$6expect17h42ce4f0abb54c0d6E
.Ltmp67:
	jmp	.LBB75_3
.LBB75_3:
	movq	-80(%rbp), %rax
	movq	-88(%rbp), %rcx
	movq	-64(%rbp), %rdx
	movq	%rdx, (%rcx)
	movq	-56(%rbp), %rdx
	movq	%rdx, 8(%rcx)
	movq	-48(%rbp), %rdx
	movq	%rdx, 16(%rcx)
	addq	$224, %rsp
	popq	%rbp
	retq
	.seh_handlerdata
	.long	($cppxdata$_ZN45_$LT$T$u20$as$u20$alloc..string..ToString$GT$9to_string17h85c4ea23d36c87d5E)@IMGREL
	.section	.text,"xr",one_only,_ZN45_$LT$T$u20$as$u20$alloc..string..ToString$GT$9to_string17h85c4ea23d36c87d5E
	.seh_endproc
	.def	"?dtor$1@?0?_ZN45_$LT$T$u20$as$u20$alloc..string..ToString$GT$9to_string17h85c4ea23d36c87d5E@4HA";
	.scl	3;
	.type	32;
	.endef
	.p2align	4, 0x90
"?dtor$1@?0?_ZN45_$LT$T$u20$as$u20$alloc..string..ToString$GT$9to_string17h85c4ea23d36c87d5E@4HA":
.seh_proc "?dtor$1@?0?_ZN45_$LT$T$u20$as$u20$alloc..string..ToString$GT$9to_string17h85c4ea23d36c87d5E@4HA"
.LBB75_1:
	movq	%rdx, 16(%rsp)
	pushq	%rbp
	.seh_pushreg %rbp
	subq	$32, %rsp
	.seh_stackalloc 32
	leaq	128(%rdx), %rbp
	.seh_endprologue
	leaq	-64(%rbp), %rcx
	callq	_ZN4core3ptr42drop_in_place$LT$alloc..string..String$GT$17h39f9057bf19a3471E
	nop
	addq	$32, %rsp
	popq	%rbp
	retq
.Lfunc_end19:
	.seh_handlerdata
	.section	.text,"xr",one_only,_ZN45_$LT$T$u20$as$u20$alloc..string..ToString$GT$9to_string17h85c4ea23d36c87d5E
	.seh_endproc
	.section	.xdata,"dr",associative,_ZN45_$LT$T$u20$as$u20$alloc..string..ToString$GT$9to_string17h85c4ea23d36c87d5E
	.p2align	2, 0x0
$cppxdata$_ZN45_$LT$T$u20$as$u20$alloc..string..ToString$GT$9to_string17h85c4ea23d36c87d5E:
	.long	429065506
	.long	1
	.long	($stateUnwindMap$_ZN45_$LT$T$u20$as$u20$alloc..string..ToString$GT$9to_string17h85c4ea23d36c87d5E)@IMGREL
	.long	0
	.long	0
	.long	3
	.long	($ip2state$_ZN45_$LT$T$u20$as$u20$alloc..string..ToString$GT$9to_string17h85c4ea23d36c87d5E)@IMGREL
	.long	216
	.long	0
	.long	1
$stateUnwindMap$_ZN45_$LT$T$u20$as$u20$alloc..string..ToString$GT$9to_string17h85c4ea23d36c87d5E:
	.long	-1
	.long	"?dtor$1@?0?_ZN45_$LT$T$u20$as$u20$alloc..string..ToString$GT$9to_string17h85c4ea23d36c87d5E@4HA"@IMGREL
$ip2state$_ZN45_$LT$T$u20$as$u20$alloc..string..ToString$GT$9to_string17h85c4ea23d36c87d5E:
	.long	.Lfunc_begin19@IMGREL
	.long	-1
	.long	.Ltmp64@IMGREL+1
	.long	0
	.long	.Ltmp67@IMGREL+1
	.long	-1
	.section	.text,"xr",one_only,_ZN45_$LT$T$u20$as$u20$alloc..string..ToString$GT$9to_string17h85c4ea23d36c87d5E

	.def	_ZN45_$LT$T$u20$as$u20$alloc..string..ToString$GT$9to_string17h9d58fa16db627841E;
	.scl	2;
	.type	32;
	.endef
	.section	.text,"xr",one_only,_ZN45_$LT$T$u20$as$u20$alloc..string..ToString$GT$9to_string17h9d58fa16db627841E
	.globl	_ZN45_$LT$T$u20$as$u20$alloc..string..ToString$GT$9to_string17h9d58fa16db627841E
	.p2align	4, 0x90
_ZN45_$LT$T$u20$as$u20$alloc..string..ToString$GT$9to_string17h9d58fa16db627841E:
.Lfunc_begin20:
.seh_proc _ZN45_$LT$T$u20$as$u20$alloc..string..ToString$GT$9to_string17h9d58fa16db627841E
	.seh_handler __CxxFrameHandler3, @unwind, @except
	pushq	%rbp
	.seh_pushreg %rbp
	subq	$224, %rsp
	.seh_stackalloc 224
	leaq	128(%rsp), %rbp
	.seh_setframe %rbp, 128
	.seh_endprologue
	movq	$-2, 88(%rbp)
	movq	%rdx, -96(%rbp)
	movq	%rcx, %rax
	movq	-96(%rbp), %rcx
	movq	%rax, -88(%rbp)
	movq	%rax, -80(%rbp)
	movq	$0, 32(%rbp)
	movq	$1, 40(%rbp)
	movq	$0, 48(%rbp)
	movq	48(%rbp), %rax
	movq	%rax, -48(%rbp)
	vmovdqu	32(%rbp), %xmm0
	vmovdqa	%xmm0, -64(%rbp)
	movq	$0, 56(%rbp)
	movq	$0, 72(%rbp)
	movl	$0, 20(%rbp)
	movl	$32, 16(%rbp)
	movb	$3, 24(%rbp)
	movq	56(%rbp), %rdx
	movq	64(%rbp), %rax
	movq	%rdx, -32(%rbp)
	movq	%rax, -24(%rbp)
	movq	72(%rbp), %rdx
	movq	80(%rbp), %rax
	movq	%rdx, -16(%rbp)
	movq	%rax, -8(%rbp)
	leaq	-64(%rbp), %rax
	movq	%rax, (%rbp)
	leaq	__unnamed_7(%rip), %rax
	movq	%rax, 8(%rbp)
.Ltmp68:
	leaq	-32(%rbp), %rdx
	callq	_ZN4core3fmt5float52_$LT$impl$u20$core..fmt..Display$u20$for$u20$f64$GT$3fmt17ha86ffdd071ac23b3E
.Ltmp69:
	movb	%al, -65(%rbp)
	jmp	.LBB76_2
.LBB76_2:
.Ltmp70:
	movb	-65(%rbp), %cl
	andb	$1, %cl
	leaq	__unnamed_8(%rip), %rdx
	leaq	__unnamed_9(%rip), %r9
	movl	$55, %r8d
	callq	_ZN4core6result19Result$LT$T$C$E$GT$6expect17h42ce4f0abb54c0d6E
.Ltmp71:
	jmp	.LBB76_3
.LBB76_3:
	movq	-80(%rbp), %rax
	movq	-88(%rbp), %rcx
	movq	-64(%rbp), %rdx
	movq	%rdx, (%rcx)
	movq	-56(%rbp), %rdx
	movq	%rdx, 8(%rcx)
	movq	-48(%rbp), %rdx
	movq	%rdx, 16(%rcx)
	addq	$224, %rsp
	popq	%rbp
	retq
	.seh_handlerdata
	.long	($cppxdata$_ZN45_$LT$T$u20$as$u20$alloc..string..ToString$GT$9to_string17h9d58fa16db627841E)@IMGREL
	.section	.text,"xr",one_only,_ZN45_$LT$T$u20$as$u20$alloc..string..ToString$GT$9to_string17h9d58fa16db627841E
	.seh_endproc
	.def	"?dtor$1@?0?_ZN45_$LT$T$u20$as$u20$alloc..string..ToString$GT$9to_string17h9d58fa16db627841E@4HA";
	.scl	3;
	.type	32;
	.endef
	.p2align	4, 0x90
"?dtor$1@?0?_ZN45_$LT$T$u20$as$u20$alloc..string..ToString$GT$9to_string17h9d58fa16db627841E@4HA":
.seh_proc "?dtor$1@?0?_ZN45_$LT$T$u20$as$u20$alloc..string..ToString$GT$9to_string17h9d58fa16db627841E@4HA"
.LBB76_1:
	movq	%rdx, 16(%rsp)
	pushq	%rbp
	.seh_pushreg %rbp
	subq	$32, %rsp
	.seh_stackalloc 32
	leaq	128(%rdx), %rbp
	.seh_endprologue
	leaq	-64(%rbp), %rcx
	callq	_ZN4core3ptr42drop_in_place$LT$alloc..string..String$GT$17h39f9057bf19a3471E
	nop
	addq	$32, %rsp
	popq	%rbp
	retq
.Lfunc_end20:
	.seh_handlerdata
	.section	.text,"xr",one_only,_ZN45_$LT$T$u20$as$u20$alloc..string..ToString$GT$9to_string17h9d58fa16db627841E
	.seh_endproc
	.section	.xdata,"dr",associative,_ZN45_$LT$T$u20$as$u20$alloc..string..ToString$GT$9to_string17h9d58fa16db627841E
	.p2align	2, 0x0
$cppxdata$_ZN45_$LT$T$u20$as$u20$alloc..string..ToString$GT$9to_string17h9d58fa16db627841E:
	.long	429065506
	.long	1
	.long	($stateUnwindMap$_ZN45_$LT$T$u20$as$u20$alloc..string..ToString$GT$9to_string17h9d58fa16db627841E)@IMGREL
	.long	0
	.long	0
	.long	3
	.long	($ip2state$_ZN45_$LT$T$u20$as$u20$alloc..string..ToString$GT$9to_string17h9d58fa16db627841E)@IMGREL
	.long	216
	.long	0
	.long	1
$stateUnwindMap$_ZN45_$LT$T$u20$as$u20$alloc..string..ToString$GT$9to_string17h9d58fa16db627841E:
	.long	-1
	.long	"?dtor$1@?0?_ZN45_$LT$T$u20$as$u20$alloc..string..ToString$GT$9to_string17h9d58fa16db627841E@4HA"@IMGREL
$ip2state$_ZN45_$LT$T$u20$as$u20$alloc..string..ToString$GT$9to_string17h9d58fa16db627841E:
	.long	.Lfunc_begin20@IMGREL
	.long	-1
	.long	.Ltmp68@IMGREL+1
	.long	0
	.long	.Ltmp71@IMGREL+1
	.long	-1
	.section	.text,"xr",one_only,_ZN45_$LT$T$u20$as$u20$alloc..string..ToString$GT$9to_string17h9d58fa16db627841E

	.def	_ZN45_$LT$T$u20$as$u20$alloc..string..ToString$GT$9to_string17ha0579ca97fcc9f3fE;
	.scl	2;
	.type	32;
	.endef
	.section	.text,"xr",one_only,_ZN45_$LT$T$u20$as$u20$alloc..string..ToString$GT$9to_string17ha0579ca97fcc9f3fE
	.globl	_ZN45_$LT$T$u20$as$u20$alloc..string..ToString$GT$9to_string17ha0579ca97fcc9f3fE
	.p2align	4, 0x90
_ZN45_$LT$T$u20$as$u20$alloc..string..ToString$GT$9to_string17ha0579ca97fcc9f3fE:
.Lfunc_begin21:
.seh_proc _ZN45_$LT$T$u20$as$u20$alloc..string..ToString$GT$9to_string17ha0579ca97fcc9f3fE
	.seh_handler __CxxFrameHandler3, @unwind, @except
	pushq	%rbp
	.seh_pushreg %rbp
	subq	$224, %rsp
	.seh_stackalloc 224
	leaq	128(%rsp), %rbp
	.seh_setframe %rbp, 128
	.seh_endprologue
	movq	$-2, 88(%rbp)
	movq	%rdx, -96(%rbp)
	movq	%rcx, %rax
	movq	-96(%rbp), %rcx
	movq	%rax, -88(%rbp)
	movq	%rax, -80(%rbp)
	movq	$0, 32(%rbp)
	movq	$1, 40(%rbp)
	movq	$0, 48(%rbp)
	movq	48(%rbp), %rax
	movq	%rax, -48(%rbp)
	vmovdqu	32(%rbp), %xmm0
	vmovdqa	%xmm0, -64(%rbp)
	movq	$0, 56(%rbp)
	movq	$0, 72(%rbp)
	movl	$0, 20(%rbp)
	movl	$32, 16(%rbp)
	movb	$3, 24(%rbp)
	movq	56(%rbp), %rdx
	movq	64(%rbp), %rax
	movq	%rdx, -32(%rbp)
	movq	%rax, -24(%rbp)
	movq	72(%rbp), %rdx
	movq	80(%rbp), %rax
	movq	%rdx, -16(%rbp)
	movq	%rax, -8(%rbp)
	leaq	-64(%rbp), %rax
	movq	%rax, (%rbp)
	leaq	__unnamed_7(%rip), %rax
	movq	%rax, 8(%rbp)
.Ltmp72:
	leaq	-32(%rbp), %rdx
	callq	_ZN57_$LT$proc_macro2..Ident$u20$as$u20$core..fmt..Display$GT$3fmt17h6ea4316d05b59005E
.Ltmp73:
	movb	%al, -65(%rbp)
	jmp	.LBB77_2
.LBB77_2:
.Ltmp74:
	movb	-65(%rbp), %cl
	andb	$1, %cl
	leaq	__unnamed_8(%rip), %rdx
	leaq	__unnamed_9(%rip), %r9
	movl	$55, %r8d
	callq	_ZN4core6result19Result$LT$T$C$E$GT$6expect17h42ce4f0abb54c0d6E
.Ltmp75:
	jmp	.LBB77_3
.LBB77_3:
	movq	-80(%rbp), %rax
	movq	-88(%rbp), %rcx
	movq	-64(%rbp), %rdx
	movq	%rdx, (%rcx)
	movq	-56(%rbp), %rdx
	movq	%rdx, 8(%rcx)
	movq	-48(%rbp), %rdx
	movq	%rdx, 16(%rcx)
	addq	$224, %rsp
	popq	%rbp
	retq
	.seh_handlerdata
	.long	($cppxdata$_ZN45_$LT$T$u20$as$u20$alloc..string..ToString$GT$9to_string17ha0579ca97fcc9f3fE)@IMGREL
	.section	.text,"xr",one_only,_ZN45_$LT$T$u20$as$u20$alloc..string..ToString$GT$9to_string17ha0579ca97fcc9f3fE
	.seh_endproc
	.def	"?dtor$1@?0?_ZN45_$LT$T$u20$as$u20$alloc..string..ToString$GT$9to_string17ha0579ca97fcc9f3fE@4HA";
	.scl	3;
	.type	32;
	.endef
	.p2align	4, 0x90
"?dtor$1@?0?_ZN45_$LT$T$u20$as$u20$alloc..string..ToString$GT$9to_string17ha0579ca97fcc9f3fE@4HA":
.seh_proc "?dtor$1@?0?_ZN45_$LT$T$u20$as$u20$alloc..string..ToString$GT$9to_string17ha0579ca97fcc9f3fE@4HA"
.LBB77_1:
	movq	%rdx, 16(%rsp)
	pushq	%rbp
	.seh_pushreg %rbp
	subq	$32, %rsp
	.seh_stackalloc 32
	leaq	128(%rdx), %rbp
	.seh_endprologue
	leaq	-64(%rbp), %rcx
	callq	_ZN4core3ptr42drop_in_place$LT$alloc..string..String$GT$17h39f9057bf19a3471E
	nop
	addq	$32, %rsp
	popq	%rbp
	retq
.Lfunc_end21:
	.seh_handlerdata
	.section	.text,"xr",one_only,_ZN45_$LT$T$u20$as$u20$alloc..string..ToString$GT$9to_string17ha0579ca97fcc9f3fE
	.seh_endproc
	.section	.xdata,"dr",associative,_ZN45_$LT$T$u20$as$u20$alloc..string..ToString$GT$9to_string17ha0579ca97fcc9f3fE
	.p2align	2, 0x0
$cppxdata$_ZN45_$LT$T$u20$as$u20$alloc..string..ToString$GT$9to_string17ha0579ca97fcc9f3fE:
	.long	429065506
	.long	1
	.long	($stateUnwindMap$_ZN45_$LT$T$u20$as$u20$alloc..string..ToString$GT$9to_string17ha0579ca97fcc9f3fE)@IMGREL
	.long	0
	.long	0
	.long	3
	.long	($ip2state$_ZN45_$LT$T$u20$as$u20$alloc..string..ToString$GT$9to_string17ha0579ca97fcc9f3fE)@IMGREL
	.long	216
	.long	0
	.long	1
$stateUnwindMap$_ZN45_$LT$T$u20$as$u20$alloc..string..ToString$GT$9to_string17ha0579ca97fcc9f3fE:
	.long	-1
	.long	"?dtor$1@?0?_ZN45_$LT$T$u20$as$u20$alloc..string..ToString$GT$9to_string17ha0579ca97fcc9f3fE@4HA"@IMGREL
$ip2state$_ZN45_$LT$T$u20$as$u20$alloc..string..ToString$GT$9to_string17ha0579ca97fcc9f3fE:
	.long	.Lfunc_begin21@IMGREL
	.long	-1
	.long	.Ltmp72@IMGREL+1
	.long	0
	.long	.Ltmp75@IMGREL+1
	.long	-1
	.section	.text,"xr",one_only,_ZN45_$LT$T$u20$as$u20$alloc..string..ToString$GT$9to_string17ha0579ca97fcc9f3fE

	.def	_ZN45_$LT$T$u20$as$u20$alloc..string..ToString$GT$9to_string17haf13fded76d64706E;
	.scl	2;
	.type	32;
	.endef
	.section	.text,"xr",one_only,_ZN45_$LT$T$u20$as$u20$alloc..string..ToString$GT$9to_string17haf13fded76d64706E
	.globl	_ZN45_$LT$T$u20$as$u20$alloc..string..ToString$GT$9to_string17haf13fded76d64706E
	.p2align	4, 0x90
_ZN45_$LT$T$u20$as$u20$alloc..string..ToString$GT$9to_string17haf13fded76d64706E:
.Lfunc_begin22:
.seh_proc _ZN45_$LT$T$u20$as$u20$alloc..string..ToString$GT$9to_string17haf13fded76d64706E
	.seh_handler __CxxFrameHandler3, @unwind, @except
	pushq	%rbp
	.seh_pushreg %rbp
	subq	$224, %rsp
	.seh_stackalloc 224
	leaq	128(%rsp), %rbp
	.seh_setframe %rbp, 128
	.seh_endprologue
	movq	$-2, 88(%rbp)
	movq	%rdx, -96(%rbp)
	movq	%rcx, %rax
	movq	-96(%rbp), %rcx
	movq	%rax, -88(%rbp)
	movq	%rax, -80(%rbp)
	movq	$0, 32(%rbp)
	movq	$1, 40(%rbp)
	movq	$0, 48(%rbp)
	movq	48(%rbp), %rax
	movq	%rax, -48(%rbp)
	vmovdqu	32(%rbp), %xmm0
	vmovdqa	%xmm0, -64(%rbp)
	movq	$0, 56(%rbp)
	movq	$0, 72(%rbp)
	movl	$0, 20(%rbp)
	movl	$32, 16(%rbp)
	movb	$3, 24(%rbp)
	movq	56(%rbp), %rdx
	movq	64(%rbp), %rax
	movq	%rdx, -32(%rbp)
	movq	%rax, -24(%rbp)
	movq	72(%rbp), %rdx
	movq	80(%rbp), %rax
	movq	%rdx, -16(%rbp)
	movq	%rax, -8(%rbp)
	leaq	-64(%rbp), %rax
	movq	%rax, (%rbp)
	leaq	__unnamed_7(%rip), %rax
	movq	%rax, 8(%rbp)
.Ltmp76:
	leaq	-32(%rbp), %rdx
	callq	_ZN4core3fmt3num3imp52_$LT$impl$u20$core..fmt..Display$u20$for$u20$u32$GT$3fmt17ha84526df701900d8E
.Ltmp77:
	movb	%al, -65(%rbp)
	jmp	.LBB78_2
.LBB78_2:
.Ltmp78:
	movb	-65(%rbp), %cl
	andb	$1, %cl
	leaq	__unnamed_8(%rip), %rdx
	leaq	__unnamed_9(%rip), %r9
	movl	$55, %r8d
	callq	_ZN4core6result19Result$LT$T$C$E$GT$6expect17h42ce4f0abb54c0d6E
.Ltmp79:
	jmp	.LBB78_3
.LBB78_3:
	movq	-80(%rbp), %rax
	movq	-88(%rbp), %rcx
	movq	-64(%rbp), %rdx
	movq	%rdx, (%rcx)
	movq	-56(%rbp), %rdx
	movq	%rdx, 8(%rcx)
	movq	-48(%rbp), %rdx
	movq	%rdx, 16(%rcx)
	addq	$224, %rsp
	popq	%rbp
	retq
	.seh_handlerdata
	.long	($cppxdata$_ZN45_$LT$T$u20$as$u20$alloc..string..ToString$GT$9to_string17haf13fded76d64706E)@IMGREL
	.section	.text,"xr",one_only,_ZN45_$LT$T$u20$as$u20$alloc..string..ToString$GT$9to_string17haf13fded76d64706E
	.seh_endproc
	.def	"?dtor$1@?0?_ZN45_$LT$T$u20$as$u20$alloc..string..ToString$GT$9to_string17haf13fded76d64706E@4HA";
	.scl	3;
	.type	32;
	.endef
	.p2align	4, 0x90
"?dtor$1@?0?_ZN45_$LT$T$u20$as$u20$alloc..string..ToString$GT$9to_string17haf13fded76d64706E@4HA":
.seh_proc "?dtor$1@?0?_ZN45_$LT$T$u20$as$u20$alloc..string..ToString$GT$9to_string17haf13fded76d64706E@4HA"
.LBB78_1:
	movq	%rdx, 16(%rsp)
	pushq	%rbp
	.seh_pushreg %rbp
	subq	$32, %rsp
	.seh_stackalloc 32
	leaq	128(%rdx), %rbp
	.seh_endprologue
	leaq	-64(%rbp), %rcx
	callq	_ZN4core3ptr42drop_in_place$LT$alloc..string..String$GT$17h39f9057bf19a3471E
	nop
	addq	$32, %rsp
	popq	%rbp
	retq
.Lfunc_end22:
	.seh_handlerdata
	.section	.text,"xr",one_only,_ZN45_$LT$T$u20$as$u20$alloc..string..ToString$GT$9to_string17haf13fded76d64706E
	.seh_endproc
	.section	.xdata,"dr",associative,_ZN45_$LT$T$u20$as$u20$alloc..string..ToString$GT$9to_string17haf13fded76d64706E
	.p2align	2, 0x0
$cppxdata$_ZN45_$LT$T$u20$as$u20$alloc..string..ToString$GT$9to_string17haf13fded76d64706E:
	.long	429065506
	.long	1
	.long	($stateUnwindMap$_ZN45_$LT$T$u20$as$u20$alloc..string..ToString$GT$9to_string17haf13fded76d64706E)@IMGREL
	.long	0
	.long	0
	.long	3
	.long	($ip2state$_ZN45_$LT$T$u20$as$u20$alloc..string..ToString$GT$9to_string17haf13fded76d64706E)@IMGREL
	.long	216
	.long	0
	.long	1
$stateUnwindMap$_ZN45_$LT$T$u20$as$u20$alloc..string..ToString$GT$9to_string17haf13fded76d64706E:
	.long	-1
	.long	"?dtor$1@?0?_ZN45_$LT$T$u20$as$u20$alloc..string..ToString$GT$9to_string17haf13fded76d64706E@4HA"@IMGREL
$ip2state$_ZN45_$LT$T$u20$as$u20$alloc..string..ToString$GT$9to_string17haf13fded76d64706E:
	.long	.Lfunc_begin22@IMGREL
	.long	-1
	.long	.Ltmp76@IMGREL+1
	.long	0
	.long	.Ltmp79@IMGREL+1
	.long	-1
	.section	.text,"xr",one_only,_ZN45_$LT$T$u20$as$u20$alloc..string..ToString$GT$9to_string17haf13fded76d64706E

	.def	_ZN45_$LT$T$u20$as$u20$alloc..string..ToString$GT$9to_string17hde0391857b05b7b9E;
	.scl	2;
	.type	32;
	.endef
	.section	.text,"xr",one_only,_ZN45_$LT$T$u20$as$u20$alloc..string..ToString$GT$9to_string17hde0391857b05b7b9E
	.globl	_ZN45_$LT$T$u20$as$u20$alloc..string..ToString$GT$9to_string17hde0391857b05b7b9E
	.p2align	4, 0x90
_ZN45_$LT$T$u20$as$u20$alloc..string..ToString$GT$9to_string17hde0391857b05b7b9E:
.Lfunc_begin23:
.seh_proc _ZN45_$LT$T$u20$as$u20$alloc..string..ToString$GT$9to_string17hde0391857b05b7b9E
	.seh_handler __CxxFrameHandler3, @unwind, @except
	pushq	%rbp
	.seh_pushreg %rbp
	subq	$224, %rsp
	.seh_stackalloc 224
	leaq	128(%rsp), %rbp
	.seh_setframe %rbp, 128
	.seh_endprologue
	movq	$-2, 88(%rbp)
	movq	%rdx, -96(%rbp)
	movq	%rcx, %rax
	movq	-96(%rbp), %rcx
	movq	%rax, -88(%rbp)
	movq	%rax, -80(%rbp)
	movq	$0, 32(%rbp)
	movq	$1, 40(%rbp)
	movq	$0, 48(%rbp)
	movq	48(%rbp), %rax
	movq	%rax, -48(%rbp)
	vmovdqu	32(%rbp), %xmm0
	vmovdqa	%xmm0, -64(%rbp)
	movq	$0, 56(%rbp)
	movq	$0, 72(%rbp)
	movl	$0, 20(%rbp)
	movl	$32, 16(%rbp)
	movb	$3, 24(%rbp)
	movq	56(%rbp), %rdx
	movq	64(%rbp), %rax
	movq	%rdx, -32(%rbp)
	movq	%rax, -24(%rbp)
	movq	72(%rbp), %rdx
	movq	80(%rbp), %rax
	movq	%rdx, -16(%rbp)
	movq	%rax, -8(%rbp)
	leaq	-64(%rbp), %rax
	movq	%rax, (%rbp)
	leaq	__unnamed_7(%rip), %rax
	movq	%rax, 8(%rbp)
.Ltmp80:
	leaq	-32(%rbp), %rdx
	callq	_ZN4core3fmt3num3imp52_$LT$impl$u20$core..fmt..Display$u20$for$u20$i16$GT$3fmt17h5026b891716a8c62E
.Ltmp81:
	movb	%al, -65(%rbp)
	jmp	.LBB79_2
.LBB79_2:
.Ltmp82:
	movb	-65(%rbp), %cl
	andb	$1, %cl
	leaq	__unnamed_8(%rip), %rdx
	leaq	__unnamed_9(%rip), %r9
	movl	$55, %r8d
	callq	_ZN4core6result19Result$LT$T$C$E$GT$6expect17h42ce4f0abb54c0d6E
.Ltmp83:
	jmp	.LBB79_3
.LBB79_3:
	movq	-80(%rbp), %rax
	movq	-88(%rbp), %rcx
	movq	-64(%rbp), %rdx
	movq	%rdx, (%rcx)
	movq	-56(%rbp), %rdx
	movq	%rdx, 8(%rcx)
	movq	-48(%rbp), %rdx
	movq	%rdx, 16(%rcx)
	addq	$224, %rsp
	popq	%rbp
	retq
	.seh_handlerdata
	.long	($cppxdata$_ZN45_$LT$T$u20$as$u20$alloc..string..ToString$GT$9to_string17hde0391857b05b7b9E)@IMGREL
	.section	.text,"xr",one_only,_ZN45_$LT$T$u20$as$u20$alloc..string..ToString$GT$9to_string17hde0391857b05b7b9E
	.seh_endproc
	.def	"?dtor$1@?0?_ZN45_$LT$T$u20$as$u20$alloc..string..ToString$GT$9to_string17hde0391857b05b7b9E@4HA";
	.scl	3;
	.type	32;
	.endef
	.p2align	4, 0x90
"?dtor$1@?0?_ZN45_$LT$T$u20$as$u20$alloc..string..ToString$GT$9to_string17hde0391857b05b7b9E@4HA":
.seh_proc "?dtor$1@?0?_ZN45_$LT$T$u20$as$u20$alloc..string..ToString$GT$9to_string17hde0391857b05b7b9E@4HA"
.LBB79_1:
	movq	%rdx, 16(%rsp)
	pushq	%rbp
	.seh_pushreg %rbp
	subq	$32, %rsp
	.seh_stackalloc 32
	leaq	128(%rdx), %rbp
	.seh_endprologue
	leaq	-64(%rbp), %rcx
	callq	_ZN4core3ptr42drop_in_place$LT$alloc..string..String$GT$17h39f9057bf19a3471E
	nop
	addq	$32, %rsp
	popq	%rbp
	retq
.Lfunc_end23:
	.seh_handlerdata
	.section	.text,"xr",one_only,_ZN45_$LT$T$u20$as$u20$alloc..string..ToString$GT$9to_string17hde0391857b05b7b9E
	.seh_endproc
	.section	.xdata,"dr",associative,_ZN45_$LT$T$u20$as$u20$alloc..string..ToString$GT$9to_string17hde0391857b05b7b9E
	.p2align	2, 0x0
$cppxdata$_ZN45_$LT$T$u20$as$u20$alloc..string..ToString$GT$9to_string17hde0391857b05b7b9E:
	.long	429065506
	.long	1
	.long	($stateUnwindMap$_ZN45_$LT$T$u20$as$u20$alloc..string..ToString$GT$9to_string17hde0391857b05b7b9E)@IMGREL
	.long	0
	.long	0
	.long	3
	.long	($ip2state$_ZN45_$LT$T$u20$as$u20$alloc..string..ToString$GT$9to_string17hde0391857b05b7b9E)@IMGREL
	.long	216
	.long	0
	.long	1
$stateUnwindMap$_ZN45_$LT$T$u20$as$u20$alloc..string..ToString$GT$9to_string17hde0391857b05b7b9E:
	.long	-1
	.long	"?dtor$1@?0?_ZN45_$LT$T$u20$as$u20$alloc..string..ToString$GT$9to_string17hde0391857b05b7b9E@4HA"@IMGREL
$ip2state$_ZN45_$LT$T$u20$as$u20$alloc..string..ToString$GT$9to_string17hde0391857b05b7b9E:
	.long	.Lfunc_begin23@IMGREL
	.long	-1
	.long	.Ltmp80@IMGREL+1
	.long	0
	.long	.Ltmp83@IMGREL+1
	.long	-1
	.section	.text,"xr",one_only,_ZN45_$LT$T$u20$as$u20$alloc..string..ToString$GT$9to_string17hde0391857b05b7b9E

	.def	_ZN45_$LT$T$u20$as$u20$alloc..string..ToString$GT$9to_string17hf28bb4d5a1909a2bE;
	.scl	2;
	.type	32;
	.endef
	.section	.text,"xr",one_only,_ZN45_$LT$T$u20$as$u20$alloc..string..ToString$GT$9to_string17hf28bb4d5a1909a2bE
	.globl	_ZN45_$LT$T$u20$as$u20$alloc..string..ToString$GT$9to_string17hf28bb4d5a1909a2bE
	.p2align	4, 0x90
_ZN45_$LT$T$u20$as$u20$alloc..string..ToString$GT$9to_string17hf28bb4d5a1909a2bE:
.Lfunc_begin24:
.seh_proc _ZN45_$LT$T$u20$as$u20$alloc..string..ToString$GT$9to_string17hf28bb4d5a1909a2bE
	.seh_handler __CxxFrameHandler3, @unwind, @except
	pushq	%rbp
	.seh_pushreg %rbp
	subq	$224, %rsp
	.seh_stackalloc 224
	leaq	128(%rsp), %rbp
	.seh_setframe %rbp, 128
	.seh_endprologue
	movq	$-2, 88(%rbp)
	movq	%rdx, -96(%rbp)
	movq	%rcx, %rax
	movq	-96(%rbp), %rcx
	movq	%rax, -88(%rbp)
	movq	%rax, -80(%rbp)
	movq	$0, 32(%rbp)
	movq	$1, 40(%rbp)
	movq	$0, 48(%rbp)
	movq	48(%rbp), %rax
	movq	%rax, -48(%rbp)
	vmovdqu	32(%rbp), %xmm0
	vmovdqa	%xmm0, -64(%rbp)
	movq	$0, 56(%rbp)
	movq	$0, 72(%rbp)
	movl	$0, 20(%rbp)
	movl	$32, 16(%rbp)
	movb	$3, 24(%rbp)
	movq	56(%rbp), %rdx
	movq	64(%rbp), %rax
	movq	%rdx, -32(%rbp)
	movq	%rax, -24(%rbp)
	movq	72(%rbp), %rdx
	movq	80(%rbp), %rax
	movq	%rdx, -16(%rbp)
	movq	%rax, -8(%rbp)
	leaq	-64(%rbp), %rax
	movq	%rax, (%rbp)
	leaq	__unnamed_7(%rip), %rax
	movq	%rax, 8(%rbp)
.Ltmp84:
	leaq	-32(%rbp), %rdx
	callq	_ZN4core3fmt3num3imp52_$LT$impl$u20$core..fmt..Display$u20$for$u20$u16$GT$3fmt17hf65155918196c150E
.Ltmp85:
	movb	%al, -65(%rbp)
	jmp	.LBB80_2
.LBB80_2:
.Ltmp86:
	movb	-65(%rbp), %cl
	andb	$1, %cl
	leaq	__unnamed_8(%rip), %rdx
	leaq	__unnamed_9(%rip), %r9
	movl	$55, %r8d
	callq	_ZN4core6result19Result$LT$T$C$E$GT$6expect17h42ce4f0abb54c0d6E
.Ltmp87:
	jmp	.LBB80_3
.LBB80_3:
	movq	-80(%rbp), %rax
	movq	-88(%rbp), %rcx
	movq	-64(%rbp), %rdx
	movq	%rdx, (%rcx)
	movq	-56(%rbp), %rdx
	movq	%rdx, 8(%rcx)
	movq	-48(%rbp), %rdx
	movq	%rdx, 16(%rcx)
	addq	$224, %rsp
	popq	%rbp
	retq
	.seh_handlerdata
	.long	($cppxdata$_ZN45_$LT$T$u20$as$u20$alloc..string..ToString$GT$9to_string17hf28bb4d5a1909a2bE)@IMGREL
	.section	.text,"xr",one_only,_ZN45_$LT$T$u20$as$u20$alloc..string..ToString$GT$9to_string17hf28bb4d5a1909a2bE
	.seh_endproc
	.def	"?dtor$1@?0?_ZN45_$LT$T$u20$as$u20$alloc..string..ToString$GT$9to_string17hf28bb4d5a1909a2bE@4HA";
	.scl	3;
	.type	32;
	.endef
	.p2align	4, 0x90
"?dtor$1@?0?_ZN45_$LT$T$u20$as$u20$alloc..string..ToString$GT$9to_string17hf28bb4d5a1909a2bE@4HA":
.seh_proc "?dtor$1@?0?_ZN45_$LT$T$u20$as$u20$alloc..string..ToString$GT$9to_string17hf28bb4d5a1909a2bE@4HA"
.LBB80_1:
	movq	%rdx, 16(%rsp)
	pushq	%rbp
	.seh_pushreg %rbp
	subq	$32, %rsp
	.seh_stackalloc 32
	leaq	128(%rdx), %rbp
	.seh_endprologue
	leaq	-64(%rbp), %rcx
	callq	_ZN4core3ptr42drop_in_place$LT$alloc..string..String$GT$17h39f9057bf19a3471E
	nop
	addq	$32, %rsp
	popq	%rbp
	retq
.Lfunc_end24:
	.seh_handlerdata
	.section	.text,"xr",one_only,_ZN45_$LT$T$u20$as$u20$alloc..string..ToString$GT$9to_string17hf28bb4d5a1909a2bE
	.seh_endproc
	.section	.xdata,"dr",associative,_ZN45_$LT$T$u20$as$u20$alloc..string..ToString$GT$9to_string17hf28bb4d5a1909a2bE
	.p2align	2, 0x0
$cppxdata$_ZN45_$LT$T$u20$as$u20$alloc..string..ToString$GT$9to_string17hf28bb4d5a1909a2bE:
	.long	429065506
	.long	1
	.long	($stateUnwindMap$_ZN45_$LT$T$u20$as$u20$alloc..string..ToString$GT$9to_string17hf28bb4d5a1909a2bE)@IMGREL
	.long	0
	.long	0
	.long	3
	.long	($ip2state$_ZN45_$LT$T$u20$as$u20$alloc..string..ToString$GT$9to_string17hf28bb4d5a1909a2bE)@IMGREL
	.long	216
	.long	0
	.long	1
$stateUnwindMap$_ZN45_$LT$T$u20$as$u20$alloc..string..ToString$GT$9to_string17hf28bb4d5a1909a2bE:
	.long	-1
	.long	"?dtor$1@?0?_ZN45_$LT$T$u20$as$u20$alloc..string..ToString$GT$9to_string17hf28bb4d5a1909a2bE@4HA"@IMGREL
$ip2state$_ZN45_$LT$T$u20$as$u20$alloc..string..ToString$GT$9to_string17hf28bb4d5a1909a2bE:
	.long	.Lfunc_begin24@IMGREL
	.long	-1
	.long	.Ltmp84@IMGREL+1
	.long	0
	.long	.Ltmp87@IMGREL+1
	.long	-1
	.section	.text,"xr",one_only,_ZN45_$LT$T$u20$as$u20$alloc..string..ToString$GT$9to_string17hf28bb4d5a1909a2bE

	.def	_ZN45_$LT$T$u20$as$u20$alloc..string..ToString$GT$9to_string17hfa32ed932033e7b3E;
	.scl	2;
	.type	32;
	.endef
	.section	.text,"xr",one_only,_ZN45_$LT$T$u20$as$u20$alloc..string..ToString$GT$9to_string17hfa32ed932033e7b3E
	.globl	_ZN45_$LT$T$u20$as$u20$alloc..string..ToString$GT$9to_string17hfa32ed932033e7b3E
	.p2align	4, 0x90
_ZN45_$LT$T$u20$as$u20$alloc..string..ToString$GT$9to_string17hfa32ed932033e7b3E:
.Lfunc_begin25:
.seh_proc _ZN45_$LT$T$u20$as$u20$alloc..string..ToString$GT$9to_string17hfa32ed932033e7b3E
	.seh_handler __CxxFrameHandler3, @unwind, @except
	pushq	%rbp
	.seh_pushreg %rbp
	subq	$224, %rsp
	.seh_stackalloc 224
	leaq	128(%rsp), %rbp
	.seh_setframe %rbp, 128
	.seh_endprologue
	movq	$-2, 88(%rbp)
	movq	%rdx, -96(%rbp)
	movq	%rcx, %rax
	movq	-96(%rbp), %rcx
	movq	%rax, -88(%rbp)
	movq	%rax, -80(%rbp)
	movq	$0, 32(%rbp)
	movq	$1, 40(%rbp)
	movq	$0, 48(%rbp)
	movq	48(%rbp), %rax
	movq	%rax, -48(%rbp)
	vmovdqu	32(%rbp), %xmm0
	vmovdqa	%xmm0, -64(%rbp)
	movq	$0, 56(%rbp)
	movq	$0, 72(%rbp)
	movl	$0, 20(%rbp)
	movl	$32, 16(%rbp)
	movb	$3, 24(%rbp)
	movq	56(%rbp), %rdx
	movq	64(%rbp), %rax
	movq	%rdx, -32(%rbp)
	movq	%rax, -24(%rbp)
	movq	72(%rbp), %rdx
	movq	80(%rbp), %rax
	movq	%rdx, -16(%rbp)
	movq	%rax, -8(%rbp)
	leaq	-64(%rbp), %rax
	movq	%rax, (%rbp)
	leaq	__unnamed_7(%rip), %rax
	movq	%rax, 8(%rbp)
.Ltmp88:
	leaq	-32(%rbp), %rdx
	callq	_ZN4core3fmt3num3imp52_$LT$impl$u20$core..fmt..Display$u20$for$u20$u64$GT$3fmt17h6c0dda9b003b49b2E
.Ltmp89:
	movb	%al, -65(%rbp)
	jmp	.LBB81_2
.LBB81_2:
.Ltmp90:
	movb	-65(%rbp), %cl
	andb	$1, %cl
	leaq	__unnamed_8(%rip), %rdx
	leaq	__unnamed_9(%rip), %r9
	movl	$55, %r8d
	callq	_ZN4core6result19Result$LT$T$C$E$GT$6expect17h42ce4f0abb54c0d6E
.Ltmp91:
	jmp	.LBB81_3
.LBB81_3:
	movq	-80(%rbp), %rax
	movq	-88(%rbp), %rcx
	movq	-64(%rbp), %rdx
	movq	%rdx, (%rcx)
	movq	-56(%rbp), %rdx
	movq	%rdx, 8(%rcx)
	movq	-48(%rbp), %rdx
	movq	%rdx, 16(%rcx)
	addq	$224, %rsp
	popq	%rbp
	retq
	.seh_handlerdata
	.long	($cppxdata$_ZN45_$LT$T$u20$as$u20$alloc..string..ToString$GT$9to_string17hfa32ed932033e7b3E)@IMGREL
	.section	.text,"xr",one_only,_ZN45_$LT$T$u20$as$u20$alloc..string..ToString$GT$9to_string17hfa32ed932033e7b3E
	.seh_endproc
	.def	"?dtor$1@?0?_ZN45_$LT$T$u20$as$u20$alloc..string..ToString$GT$9to_string17hfa32ed932033e7b3E@4HA";
	.scl	3;
	.type	32;
	.endef
	.p2align	4, 0x90
"?dtor$1@?0?_ZN45_$LT$T$u20$as$u20$alloc..string..ToString$GT$9to_string17hfa32ed932033e7b3E@4HA":
.seh_proc "?dtor$1@?0?_ZN45_$LT$T$u20$as$u20$alloc..string..ToString$GT$9to_string17hfa32ed932033e7b3E@4HA"
.LBB81_1:
	movq	%rdx, 16(%rsp)
	pushq	%rbp
	.seh_pushreg %rbp
	subq	$32, %rsp
	.seh_stackalloc 32
	leaq	128(%rdx), %rbp
	.seh_endprologue
	leaq	-64(%rbp), %rcx
	callq	_ZN4core3ptr42drop_in_place$LT$alloc..string..String$GT$17h39f9057bf19a3471E
	nop
	addq	$32, %rsp
	popq	%rbp
	retq
.Lfunc_end25:
	.seh_handlerdata
	.section	.text,"xr",one_only,_ZN45_$LT$T$u20$as$u20$alloc..string..ToString$GT$9to_string17hfa32ed932033e7b3E
	.seh_endproc
	.section	.xdata,"dr",associative,_ZN45_$LT$T$u20$as$u20$alloc..string..ToString$GT$9to_string17hfa32ed932033e7b3E
	.p2align	2, 0x0
$cppxdata$_ZN45_$LT$T$u20$as$u20$alloc..string..ToString$GT$9to_string17hfa32ed932033e7b3E:
	.long	429065506
	.long	1
	.long	($stateUnwindMap$_ZN45_$LT$T$u20$as$u20$alloc..string..ToString$GT$9to_string17hfa32ed932033e7b3E)@IMGREL
	.long	0
	.long	0
	.long	3
	.long	($ip2state$_ZN45_$LT$T$u20$as$u20$alloc..string..ToString$GT$9to_string17hfa32ed932033e7b3E)@IMGREL
	.long	216
	.long	0
	.long	1
$stateUnwindMap$_ZN45_$LT$T$u20$as$u20$alloc..string..ToString$GT$9to_string17hfa32ed932033e7b3E:
	.long	-1
	.long	"?dtor$1@?0?_ZN45_$LT$T$u20$as$u20$alloc..string..ToString$GT$9to_string17hfa32ed932033e7b3E@4HA"@IMGREL
$ip2state$_ZN45_$LT$T$u20$as$u20$alloc..string..ToString$GT$9to_string17hfa32ed932033e7b3E:
	.long	.Lfunc_begin25@IMGREL
	.long	-1
	.long	.Ltmp88@IMGREL+1
	.long	0
	.long	.Ltmp91@IMGREL+1
	.long	-1
	.section	.text,"xr",one_only,_ZN45_$LT$T$u20$as$u20$alloc..string..ToString$GT$9to_string17hfa32ed932033e7b3E

	.def	_ZN46_$LT$i8$u20$as$u20$alloc..string..ToString$GT$9to_string17h6aab0a287c3c7d27E;
	.scl	3;
	.type	32;
	.endef
	.section	.text,"xr",one_only,_ZN46_$LT$i8$u20$as$u20$alloc..string..ToString$GT$9to_string17h6aab0a287c3c7d27E
	.p2align	4, 0x90
_ZN46_$LT$i8$u20$as$u20$alloc..string..ToString$GT$9to_string17h6aab0a287c3c7d27E:
.Lfunc_begin26:
.seh_proc _ZN46_$LT$i8$u20$as$u20$alloc..string..ToString$GT$9to_string17h6aab0a287c3c7d27E
	.seh_handler __CxxFrameHandler3, @unwind, @except
	pushq	%rbp
	.seh_pushreg %rbp
	subq	$144, %rsp
	.seh_stackalloc 144
	leaq	128(%rsp), %rbp
	.seh_setframe %rbp, 128
	.seh_endprologue
	movq	$-2, 8(%rbp)
	movq	%rdx, -64(%rbp)
	movq	%rcx, -80(%rbp)
	movq	%rcx, -72(%rbp)
	movl	$4, %ecx
	xorl	%edx, %edx
	callq	_ZN5alloc7raw_vec19RawVec$LT$T$C$A$GT$11allocate_in17h0ed99399125479acE
	movq	%rax, %rcx
	movq	%rdx, %rax
	movq	-64(%rbp), %rdx
	movq	%rcx, -24(%rbp)
	movq	%rax, -16(%rbp)
	movq	$0, -8(%rbp)
	movq	-24(%rbp), %rax
	movq	%rax, -56(%rbp)
	movq	-16(%rbp), %rax
	movq	%rax, -48(%rbp)
	movq	-8(%rbp), %rax
	movq	%rax, -40(%rbp)
	cmpb	$0, (%rdx)
	jl	.LBB82_2
	jmp	.LBB82_3
.LBB82_2:
.Ltmp92:
	leaq	-56(%rbp), %rcx
	movl	$45, %edx
	callq	_ZN5alloc6string6String4push17h655221e700e23c32E
.Ltmp93:
	jmp	.LBB82_5
.LBB82_3:
	movq	-64(%rbp), %rax
	movb	(%rax), %al
	movb	%al, -81(%rbp)
	cmpb	$0, %al
	jl	.LBB82_7
	jmp	.LBB82_6
.LBB82_5:
	jmp	.LBB82_3
.LBB82_6:
	movb	-81(%rbp), %al
	movb	%al, 7(%rbp)
	jmp	.LBB82_8
.LBB82_7:
	movb	-81(%rbp), %cl
	xorl	%eax, %eax
	subb	%cl, %al
	movb	%al, 7(%rbp)
.LBB82_8:
	movb	7(%rbp), %al
	movb	%al, -25(%rbp)
	cmpb	$10, -25(%rbp)
	jae	.LBB82_10
	jmp	.LBB82_11
.LBB82_10:
	cmpb	$100, -25(%rbp)
	jae	.LBB82_13
	jmp	.LBB82_12
.LBB82_11:
	movb	-25(%rbp), %al
	addb	$48, %al
	movzbl	%al, %edx
.Ltmp98:
	leaq	-56(%rbp), %rcx
	callq	_ZN5alloc6string6String4push17h655221e700e23c32E
.Ltmp99:
	jmp	.LBB82_17
.LBB82_12:
	jmp	.LBB82_14
.LBB82_13:
.Ltmp94:
	leaq	-56(%rbp), %rcx
	movl	$49, %edx
	callq	_ZN5alloc6string6String4push17h655221e700e23c32E
.Ltmp95:
	jmp	.LBB82_15
.LBB82_14:
	movzbl	-25(%rbp), %eax
	imull	$205, %eax, %eax
	shrl	$11, %eax
	addb	$48, %al
	movzbl	%al, %edx
.Ltmp96:
	leaq	-56(%rbp), %rcx
	callq	_ZN5alloc6string6String4push17h655221e700e23c32E
.Ltmp97:
	jmp	.LBB82_16
.LBB82_15:
	movb	-25(%rbp), %al
	subb	$100, %al
	movb	%al, -25(%rbp)
	jmp	.LBB82_14
.LBB82_16:
	movb	$10, %cl
	movzbw	-25(%rbp), %ax
	divb	%cl
	shrw	$8, %ax
	movb	%al, -25(%rbp)
	jmp	.LBB82_11
.LBB82_17:
	movq	-72(%rbp), %rax
	movq	-80(%rbp), %rcx
	movq	-56(%rbp), %rdx
	movq	%rdx, (%rcx)
	movq	-48(%rbp), %rdx
	movq	%rdx, 8(%rcx)
	movq	-40(%rbp), %rdx
	movq	%rdx, 16(%rcx)
	addq	$144, %rsp
	popq	%rbp
	retq
	.seh_handlerdata
	.long	($cppxdata$_ZN46_$LT$i8$u20$as$u20$alloc..string..ToString$GT$9to_string17h6aab0a287c3c7d27E)@IMGREL
	.section	.text,"xr",one_only,_ZN46_$LT$i8$u20$as$u20$alloc..string..ToString$GT$9to_string17h6aab0a287c3c7d27E
	.seh_endproc
	.def	"?dtor$4@?0?_ZN46_$LT$i8$u20$as$u20$alloc..string..ToString$GT$9to_string17h6aab0a287c3c7d27E@4HA";
	.scl	3;
	.type	32;
	.endef
	.p2align	4, 0x90
"?dtor$4@?0?_ZN46_$LT$i8$u20$as$u20$alloc..string..ToString$GT$9to_string17h6aab0a287c3c7d27E@4HA":
.seh_proc "?dtor$4@?0?_ZN46_$LT$i8$u20$as$u20$alloc..string..ToString$GT$9to_string17h6aab0a287c3c7d27E@4HA"
.LBB82_4:
	movq	%rdx, 16(%rsp)
	pushq	%rbp
	.seh_pushreg %rbp
	subq	$32, %rsp
	.seh_stackalloc 32
	leaq	128(%rdx), %rbp
	.seh_endprologue
	leaq	-56(%rbp), %rcx
	callq	_ZN4core3ptr42drop_in_place$LT$alloc..string..String$GT$17h39f9057bf19a3471E
	nop
	addq	$32, %rsp
	popq	%rbp
	retq
.Lfunc_end26:
	.seh_handlerdata
	.section	.text,"xr",one_only,_ZN46_$LT$i8$u20$as$u20$alloc..string..ToString$GT$9to_string17h6aab0a287c3c7d27E
	.seh_endproc
	.section	.xdata,"dr",associative,_ZN46_$LT$i8$u20$as$u20$alloc..string..ToString$GT$9to_string17h6aab0a287c3c7d27E
	.p2align	2, 0x0
$cppxdata$_ZN46_$LT$i8$u20$as$u20$alloc..string..ToString$GT$9to_string17h6aab0a287c3c7d27E:
	.long	429065506
	.long	1
	.long	($stateUnwindMap$_ZN46_$LT$i8$u20$as$u20$alloc..string..ToString$GT$9to_string17h6aab0a287c3c7d27E)@IMGREL
	.long	0
	.long	0
	.long	3
	.long	($ip2state$_ZN46_$LT$i8$u20$as$u20$alloc..string..ToString$GT$9to_string17h6aab0a287c3c7d27E)@IMGREL
	.long	136
	.long	0
	.long	1
$stateUnwindMap$_ZN46_$LT$i8$u20$as$u20$alloc..string..ToString$GT$9to_string17h6aab0a287c3c7d27E:
	.long	-1
	.long	"?dtor$4@?0?_ZN46_$LT$i8$u20$as$u20$alloc..string..ToString$GT$9to_string17h6aab0a287c3c7d27E@4HA"@IMGREL
$ip2state$_ZN46_$LT$i8$u20$as$u20$alloc..string..ToString$GT$9to_string17h6aab0a287c3c7d27E:
	.long	.Lfunc_begin26@IMGREL
	.long	-1
	.long	.Ltmp92@IMGREL+1
	.long	0
	.long	.Ltmp97@IMGREL+1
	.long	-1
	.section	.text,"xr",one_only,_ZN46_$LT$i8$u20$as$u20$alloc..string..ToString$GT$9to_string17h6aab0a287c3c7d27E

	.def	_ZN46_$LT$u8$u20$as$u20$alloc..string..ToString$GT$9to_string17h3bb6787a04a8707dE;
	.scl	3;
	.type	32;
	.endef
	.section	.text,"xr",one_only,_ZN46_$LT$u8$u20$as$u20$alloc..string..ToString$GT$9to_string17h3bb6787a04a8707dE
	.p2align	4, 0x90
_ZN46_$LT$u8$u20$as$u20$alloc..string..ToString$GT$9to_string17h3bb6787a04a8707dE:
.Lfunc_begin27:
.seh_proc _ZN46_$LT$u8$u20$as$u20$alloc..string..ToString$GT$9to_string17h3bb6787a04a8707dE
	.seh_handler __CxxFrameHandler3, @unwind, @except
	pushq	%rbp
	.seh_pushreg %rbp
	subq	$128, %rsp
	.seh_stackalloc 128
	leaq	128(%rsp), %rbp
	.seh_setframe %rbp, 128
	.seh_endprologue
	movq	$-2, -8(%rbp)
	movq	%rdx, -72(%rbp)
	movq	%rcx, -88(%rbp)
	movq	%rcx, -80(%rbp)
	movl	$3, %ecx
	xorl	%edx, %edx
	callq	_ZN5alloc7raw_vec19RawVec$LT$T$C$A$GT$11allocate_in17h0ed99399125479acE
	movq	%rax, %rcx
	movq	%rdx, %rax
	movq	-72(%rbp), %rdx
	movq	%rcx, -32(%rbp)
	movq	%rax, -24(%rbp)
	movq	$0, -16(%rbp)
	movq	-32(%rbp), %rax
	movq	%rax, -64(%rbp)
	movq	-24(%rbp), %rax
	movq	%rax, -56(%rbp)
	movq	-16(%rbp), %rax
	movq	%rax, -48(%rbp)
	movb	(%rdx), %al
	movb	%al, -33(%rbp)
	cmpb	$10, -33(%rbp)
	jae	.LBB83_2
	jmp	.LBB83_3
.LBB83_2:
	cmpb	$100, -33(%rbp)
	jae	.LBB83_5
	jmp	.LBB83_4
.LBB83_3:
	movb	-33(%rbp), %al
	addb	$48, %al
	movzbl	%al, %edx
.Ltmp104:
	leaq	-64(%rbp), %rcx
	callq	_ZN5alloc6string6String4push17h655221e700e23c32E
.Ltmp105:
	jmp	.LBB83_10
.LBB83_4:
	jmp	.LBB83_6
.LBB83_5:
	movzbl	-33(%rbp), %ecx
	movl	%ecx, %eax
	leal	(%rax,%rax,4), %edx
	movl	%edx, %ecx
	leal	(%rax,%rcx,8), %eax
	shrl	$12, %eax
	orb	$48, %al
	movzbl	%al, %edx
.Ltmp100:
	leaq	-64(%rbp), %rcx
	callq	_ZN5alloc6string6String4push17h655221e700e23c32E
.Ltmp101:
	jmp	.LBB83_8
.LBB83_6:
	movzbl	-33(%rbp), %eax
	imull	$205, %eax, %eax
	shrl	$11, %eax
	addb	$48, %al
	movzbl	%al, %edx
.Ltmp102:
	leaq	-64(%rbp), %rcx
	callq	_ZN5alloc6string6String4push17h655221e700e23c32E
.Ltmp103:
	jmp	.LBB83_9
.LBB83_8:
	movb	$100, %cl
	movzbw	-33(%rbp), %ax
	divb	%cl
	shrw	$8, %ax
	movb	%al, -33(%rbp)
	jmp	.LBB83_6
.LBB83_9:
	movb	$10, %cl
	movzbw	-33(%rbp), %ax
	divb	%cl
	shrw	$8, %ax
	movb	%al, -33(%rbp)
	jmp	.LBB83_3
.LBB83_10:
	movq	-80(%rbp), %rax
	movq	-88(%rbp), %rcx
	movq	-64(%rbp), %rdx
	movq	%rdx, (%rcx)
	movq	-56(%rbp), %rdx
	movq	%rdx, 8(%rcx)
	movq	-48(%rbp), %rdx
	movq	%rdx, 16(%rcx)
	addq	$128, %rsp
	popq	%rbp
	retq
	.seh_handlerdata
	.long	($cppxdata$_ZN46_$LT$u8$u20$as$u20$alloc..string..ToString$GT$9to_string17h3bb6787a04a8707dE)@IMGREL
	.section	.text,"xr",one_only,_ZN46_$LT$u8$u20$as$u20$alloc..string..ToString$GT$9to_string17h3bb6787a04a8707dE
	.seh_endproc
	.def	"?dtor$7@?0?_ZN46_$LT$u8$u20$as$u20$alloc..string..ToString$GT$9to_string17h3bb6787a04a8707dE@4HA";
	.scl	3;
	.type	32;
	.endef
	.p2align	4, 0x90
"?dtor$7@?0?_ZN46_$LT$u8$u20$as$u20$alloc..string..ToString$GT$9to_string17h3bb6787a04a8707dE@4HA":
.seh_proc "?dtor$7@?0?_ZN46_$LT$u8$u20$as$u20$alloc..string..ToString$GT$9to_string17h3bb6787a04a8707dE@4HA"
.LBB83_7:
	movq	%rdx, 16(%rsp)
	pushq	%rbp
	.seh_pushreg %rbp
	subq	$32, %rsp
	.seh_stackalloc 32
	leaq	128(%rdx), %rbp
	.seh_endprologue
	leaq	-64(%rbp), %rcx
	callq	_ZN4core3ptr42drop_in_place$LT$alloc..string..String$GT$17h39f9057bf19a3471E
	nop
	addq	$32, %rsp
	popq	%rbp
	retq
.Lfunc_end27:
	.seh_handlerdata
	.section	.text,"xr",one_only,_ZN46_$LT$u8$u20$as$u20$alloc..string..ToString$GT$9to_string17h3bb6787a04a8707dE
	.seh_endproc
	.section	.xdata,"dr",associative,_ZN46_$LT$u8$u20$as$u20$alloc..string..ToString$GT$9to_string17h3bb6787a04a8707dE
	.p2align	2, 0x0
$cppxdata$_ZN46_$LT$u8$u20$as$u20$alloc..string..ToString$GT$9to_string17h3bb6787a04a8707dE:
	.long	429065506
	.long	1
	.long	($stateUnwindMap$_ZN46_$LT$u8$u20$as$u20$alloc..string..ToString$GT$9to_string17h3bb6787a04a8707dE)@IMGREL
	.long	0
	.long	0
	.long	3
	.long	($ip2state$_ZN46_$LT$u8$u20$as$u20$alloc..string..ToString$GT$9to_string17h3bb6787a04a8707dE)@IMGREL
	.long	120
	.long	0
	.long	1
$stateUnwindMap$_ZN46_$LT$u8$u20$as$u20$alloc..string..ToString$GT$9to_string17h3bb6787a04a8707dE:
	.long	-1
	.long	"?dtor$7@?0?_ZN46_$LT$u8$u20$as$u20$alloc..string..ToString$GT$9to_string17h3bb6787a04a8707dE@4HA"@IMGREL
$ip2state$_ZN46_$LT$u8$u20$as$u20$alloc..string..ToString$GT$9to_string17h3bb6787a04a8707dE:
	.long	.Lfunc_begin27@IMGREL
	.long	-1
	.long	.Ltmp104@IMGREL+1
	.long	0
	.long	.Ltmp103@IMGREL+1
	.long	-1
	.section	.text,"xr",one_only,_ZN46_$LT$u8$u20$as$u20$alloc..string..ToString$GT$9to_string17h3bb6787a04a8707dE

	.def	_ZN46_$LT$u8$u20$as$u20$core..iter..range..Step$GT$17forward_unchecked17h7fe2cc6b7753bc17E;
	.scl	3;
	.type	32;
	.endef
	.section	.text,"xr",one_only,_ZN46_$LT$u8$u20$as$u20$core..iter..range..Step$GT$17forward_unchecked17h7fe2cc6b7753bc17E
	.p2align	4, 0x90
_ZN46_$LT$u8$u20$as$u20$core..iter..range..Step$GT$17forward_unchecked17h7fe2cc6b7753bc17E:
	movb	%cl, %al
	movb	%dl, %cl
	addb	%cl, %al
	retq

	.def	_ZN47_$LT$str$u20$as$u20$alloc..string..ToString$GT$9to_string17h5081e1a02044819bE;
	.scl	3;
	.type	32;
	.endef
	.section	.text,"xr",one_only,_ZN47_$LT$str$u20$as$u20$alloc..string..ToString$GT$9to_string17h5081e1a02044819bE
	.p2align	4, 0x90
_ZN47_$LT$str$u20$as$u20$alloc..string..ToString$GT$9to_string17h5081e1a02044819bE:
.seh_proc _ZN47_$LT$str$u20$as$u20$alloc..string..ToString$GT$9to_string17h5081e1a02044819bE
	subq	$72, %rsp
	.seh_stackalloc 72
	.seh_endprologue
	movq	%rcx, 32(%rsp)
	movq	%rcx, 40(%rsp)
	leaq	48(%rsp), %rcx
	callq	_ZN52_$LT$T$u20$as$u20$alloc..slice..hack..ConvertVec$GT$6to_vec17h2a16d7a665ebbf4cE
	movq	32(%rsp), %rcx
	movq	40(%rsp), %rax
	movq	48(%rsp), %rdx
	movq	%rdx, (%rcx)
	movq	56(%rsp), %rdx
	movq	%rdx, 8(%rcx)
	movq	64(%rsp), %rdx
	movq	%rdx, 16(%rcx)
	addq	$72, %rsp
	retq
	.seh_endproc

	.def	_ZN49_$LT$F$u20$as$u20$core..str..pattern..Pattern$GT$12is_prefix_of17h77fc51e27f3cfa9cE;
	.scl	2;
	.type	32;
	.endef
	.section	.text,"xr",one_only,_ZN49_$LT$F$u20$as$u20$core..str..pattern..Pattern$GT$12is_prefix_of17h77fc51e27f3cfa9cE
	.globl	_ZN49_$LT$F$u20$as$u20$core..str..pattern..Pattern$GT$12is_prefix_of17h77fc51e27f3cfa9cE
	.p2align	4, 0x90
_ZN49_$LT$F$u20$as$u20$core..str..pattern..Pattern$GT$12is_prefix_of17h77fc51e27f3cfa9cE:
.seh_proc _ZN49_$LT$F$u20$as$u20$core..str..pattern..Pattern$GT$12is_prefix_of17h77fc51e27f3cfa9cE
	subq	$40, %rsp
	.seh_stackalloc 40
	.seh_endprologue
	callq	_ZN4core3str7pattern7Pattern12is_prefix_of17he6ad94dce1bd1f34E
	andb	$1, %al
	movzbl	%al, %eax
	addq	$40, %rsp
	retq
	.seh_endproc

	.def	_ZN49_$LT$F$u20$as$u20$core..str..pattern..Pattern$GT$12is_prefix_of17hf389af9f9bb0a6d0E;
	.scl	2;
	.type	32;
	.endef
	.section	.text,"xr",one_only,_ZN49_$LT$F$u20$as$u20$core..str..pattern..Pattern$GT$12is_prefix_of17hf389af9f9bb0a6d0E
	.globl	_ZN49_$LT$F$u20$as$u20$core..str..pattern..Pattern$GT$12is_prefix_of17hf389af9f9bb0a6d0E
	.p2align	4, 0x90
_ZN49_$LT$F$u20$as$u20$core..str..pattern..Pattern$GT$12is_prefix_of17hf389af9f9bb0a6d0E:
.seh_proc _ZN49_$LT$F$u20$as$u20$core..str..pattern..Pattern$GT$12is_prefix_of17hf389af9f9bb0a6d0E
	subq	$40, %rsp
	.seh_stackalloc 40
	.seh_endprologue
	callq	_ZN4core3str7pattern7Pattern12is_prefix_of17h2f9227409dd17873E
	andb	$1, %al
	movzbl	%al, %eax
	addq	$40, %rsp
	retq
	.seh_endproc

	.def	_ZN49_$LT$u8$u20$as$u20$core..slice..cmp..SliceOrd$GT$7compare17h3ca7c55a9ec1c473E;
	.scl	3;
	.type	32;
	.endef
	.section	.text,"xr",one_only,_ZN49_$LT$u8$u20$as$u20$core..slice..cmp..SliceOrd$GT$7compare17h3ca7c55a9ec1c473E
	.p2align	4, 0x90
_ZN49_$LT$u8$u20$as$u20$core..slice..cmp..SliceOrd$GT$7compare17h3ca7c55a9ec1c473E:
.seh_proc _ZN49_$LT$u8$u20$as$u20$core..slice..cmp..SliceOrd$GT$7compare17h3ca7c55a9ec1c473E
	subq	$104, %rsp
	.seh_stackalloc 104
	.seh_endprologue
	movq	%r9, 32(%rsp)
	movq	%r8, 40(%rsp)
	movq	%rdx, 48(%rsp)
	movq	%rcx, 56(%rsp)
	movq	%rdx, %rax
	subq	%r9, %rax
	movq	%rax, 64(%rsp)
	cmpq	%r9, %rdx
	jb	.LBB88_2
	movq	32(%rsp), %rax
	movq	%rax, 80(%rsp)
	jmp	.LBB88_3
.LBB88_2:
	movq	48(%rsp), %rax
	movq	%rax, 80(%rsp)
.LBB88_3:
	movq	40(%rsp), %rdx
	movq	56(%rsp), %rcx
	movq	80(%rsp), %r8
	callq	memcmp
	movl	%eax, 100(%rsp)
	movslq	100(%rsp), %rax
	movq	%rax, 88(%rsp)
	cmpq	$0, 88(%rsp)
	jne	.LBB88_5
	movq	64(%rsp), %rax
	movq	%rax, 88(%rsp)
	jmp	.LBB88_6
.LBB88_5:
	jmp	.LBB88_6
.LBB88_6:
	cmpq	$0, 88(%rsp)
	jl	.LBB88_8
	cmpq	$0, 88(%rsp)
	je	.LBB88_9
	jmp	.LBB88_10
.LBB88_8:
	movb	$-1, 79(%rsp)
	jmp	.LBB88_11
.LBB88_9:
	movb	$0, 79(%rsp)
	jmp	.LBB88_11
.LBB88_10:
	movb	$1, 79(%rsp)
.LBB88_11:
	movb	79(%rsp), %al
	addq	$104, %rsp
	retq
	.seh_endproc

	.def	_ZN49_$LT$usize$u20$as$u20$core..iter..range..Step$GT$17forward_unchecked17h36dd6bc994da30b5E;
	.scl	3;
	.type	32;
	.endef
	.section	.text,"xr",one_only,_ZN49_$LT$usize$u20$as$u20$core..iter..range..Step$GT$17forward_unchecked17h36dd6bc994da30b5E
	.p2align	4, 0x90
_ZN49_$LT$usize$u20$as$u20$core..iter..range..Step$GT$17forward_unchecked17h36dd6bc994da30b5E:
	movq	%rcx, %rax
	addq	%rdx, %rax
	retq

	.def	_ZN49_$LT$usize$u20$as$u20$core..iter..range..Step$GT$18backward_unchecked17h85f56278e926b2a9E;
	.scl	3;
	.type	32;
	.endef
	.section	.text,"xr",one_only,_ZN49_$LT$usize$u20$as$u20$core..iter..range..Step$GT$18backward_unchecked17h85f56278e926b2a9E
	.p2align	4, 0x90
_ZN49_$LT$usize$u20$as$u20$core..iter..range..Step$GT$18backward_unchecked17h85f56278e926b2a9E:
	movq	%rcx, %rax
	subq	%rdx, %rax
	retq

	.def	_ZN4core3cmp5impls50_$LT$impl$u20$core..cmp..Ord$u20$for$u20$usize$GT$3cmp17h2b6b42dd0ca13228E;
	.scl	3;
	.type	32;
	.endef
	.section	.text,"xr",one_only,_ZN4core3cmp5impls50_$LT$impl$u20$core..cmp..Ord$u20$for$u20$usize$GT$3cmp17h2b6b42dd0ca13228E
	.p2align	4, 0x90
_ZN4core3cmp5impls50_$LT$impl$u20$core..cmp..Ord$u20$for$u20$usize$GT$3cmp17h2b6b42dd0ca13228E:
.seh_proc _ZN4core3cmp5impls50_$LT$impl$u20$core..cmp..Ord$u20$for$u20$usize$GT$3cmp17h2b6b42dd0ca13228E
	subq	$24, %rsp
	.seh_stackalloc 24
	.seh_endprologue
	movq	%rdx, (%rsp)
	movq	%rcx, 8(%rsp)
	movq	(%rcx), %rax
	cmpq	(%rdx), %rax
	jb	.LBB91_2
	movq	(%rsp), %rcx
	movq	8(%rsp), %rax
	movq	(%rax), %rax
	cmpq	(%rcx), %rax
	je	.LBB91_4
	jmp	.LBB91_3
.LBB91_2:
	movb	$-1, 23(%rsp)
	jmp	.LBB91_6
.LBB91_3:
	movb	$1, 23(%rsp)
	jmp	.LBB91_5
.LBB91_4:
	movb	$0, 23(%rsp)
.LBB91_5:
	jmp	.LBB91_6
.LBB91_6:
	movb	23(%rsp), %al
	addq	$24, %rsp
	retq
	.seh_endproc

	.def	_ZN4core3cmp5impls59_$LT$impl$u20$core..cmp..PartialEq$u20$for$u20$$LP$$RP$$GT$2eq17h7462ce78b0116b99E;
	.scl	3;
	.type	32;
	.endef
	.section	.text,"xr",one_only,_ZN4core3cmp5impls59_$LT$impl$u20$core..cmp..PartialEq$u20$for$u20$$LP$$RP$$GT$2eq17h7462ce78b0116b99E
	.p2align	4, 0x90
_ZN4core3cmp5impls59_$LT$impl$u20$core..cmp..PartialEq$u20$for$u20$$LP$$RP$$GT$2eq17h7462ce78b0116b99E:
	movb	$1, %al
	andb	$1, %al
	movzbl	%al, %eax
	retq

	.def	_ZN4core3cmp5impls69_$LT$impl$u20$core..cmp..PartialEq$LT$$RF$B$GT$$u20$for$u20$$RF$A$GT$2eq17h0ff27763d10790f2E;
	.scl	2;
	.type	32;
	.endef
	.section	.text,"xr",one_only,_ZN4core3cmp5impls69_$LT$impl$u20$core..cmp..PartialEq$LT$$RF$B$GT$$u20$for$u20$$RF$A$GT$2eq17h0ff27763d10790f2E
	.globl	_ZN4core3cmp5impls69_$LT$impl$u20$core..cmp..PartialEq$LT$$RF$B$GT$$u20$for$u20$$RF$A$GT$2eq17h0ff27763d10790f2E
	.p2align	4, 0x90
_ZN4core3cmp5impls69_$LT$impl$u20$core..cmp..PartialEq$LT$$RF$B$GT$$u20$for$u20$$RF$A$GT$2eq17h0ff27763d10790f2E:
.seh_proc _ZN4core3cmp5impls69_$LT$impl$u20$core..cmp..PartialEq$LT$$RF$B$GT$$u20$for$u20$$RF$A$GT$2eq17h0ff27763d10790f2E
	subq	$40, %rsp
	.seh_stackalloc 40
	.seh_endprologue
	movq	(%rcx), %rcx
	movq	(%rdx), %rdx
	callq	_ZN69_$LT$proc_macro2..fallback..Ident$u20$as$u20$core..cmp..PartialEq$GT$2eq17h735ccf00dea0e9f9E
	andb	$1, %al
	movzbl	%al, %eax
	addq	$40, %rsp
	retq
	.seh_endproc

	.def	_ZN4core3cmp6max_by17h181ea9c88caacd66E;
	.scl	2;
	.type	32;
	.endef
	.section	.text,"xr",one_only,_ZN4core3cmp6max_by17h181ea9c88caacd66E
	.globl	_ZN4core3cmp6max_by17h181ea9c88caacd66E
	.p2align	4, 0x90
_ZN4core3cmp6max_by17h181ea9c88caacd66E:
.Lfunc_begin28:
.seh_proc _ZN4core3cmp6max_by17h181ea9c88caacd66E
	.seh_handler __CxxFrameHandler3, @unwind, @except
	pushq	%rbp
	.seh_pushreg %rbp
	subq	$112, %rsp
	.seh_stackalloc 112
	leaq	112(%rsp), %rbp
	.seh_setframe %rbp, 112
	.seh_endprologue
	movq	$-2, -8(%rbp)
	movq	%rcx, -64(%rbp)
	movq	%rdx, -56(%rbp)
	movb	$1, -9(%rbp)
	movb	$1, -10(%rbp)
	leaq	-64(%rbp), %rax
	movq	%rax, -32(%rbp)
	leaq	-56(%rbp), %rax
	movq	%rax, -24(%rbp)
	movq	-32(%rbp), %rcx
	movq	-24(%rbp), %rdx
.Ltmp106:
	callq	_ZN4core3ops8function6FnOnce9call_once17h999d5d71003f2fdeE
.Ltmp107:
	movb	%al, -65(%rbp)
	jmp	.LBB94_2
.LBB94_2:
	movb	-65(%rbp), %al
	movb	%al, -33(%rbp)
	movb	-33(%rbp), %al
	incb	%al
	subb	$2, %al
	jb	.LBB94_4
	jmp	.LBB94_14
.LBB94_14:
	jmp	.LBB94_5
	ud2
.LBB94_4:
	movb	$0, -10(%rbp)
	movq	-56(%rbp), %rax
	movq	%rax, -48(%rbp)
	jmp	.LBB94_6
.LBB94_5:
	movb	$0, -9(%rbp)
	movq	-64(%rbp), %rax
	movq	%rax, -48(%rbp)
.LBB94_6:
	testb	$1, -10(%rbp)
	jne	.LBB94_8
.LBB94_7:
	testb	$1, -9(%rbp)
	jne	.LBB94_10
	jmp	.LBB94_9
.LBB94_8:
	jmp	.LBB94_7
.LBB94_9:
	movq	-48(%rbp), %rax
	addq	$112, %rsp
	popq	%rbp
	retq
.LBB94_10:
	jmp	.LBB94_9
	.seh_handlerdata
	.long	($cppxdata$_ZN4core3cmp6max_by17h181ea9c88caacd66E)@IMGREL
	.section	.text,"xr",one_only,_ZN4core3cmp6max_by17h181ea9c88caacd66E
	.seh_endproc
	.def	"?dtor$1@?0?_ZN4core3cmp6max_by17h181ea9c88caacd66E@4HA";
	.scl	3;
	.type	32;
	.endef
	.p2align	4, 0x90
"?dtor$1@?0?_ZN4core3cmp6max_by17h181ea9c88caacd66E@4HA":
.seh_proc "?dtor$1@?0?_ZN4core3cmp6max_by17h181ea9c88caacd66E@4HA"
.LBB94_1:
	movq	%rdx, 16(%rsp)
	pushq	%rbp
	.seh_pushreg %rbp
	subq	$32, %rsp
	.seh_stackalloc 32
	leaq	112(%rdx), %rbp
	.seh_endprologue
	addq	$32, %rsp
	popq	%rbp
	retq
	.seh_handlerdata
	.section	.text,"xr",one_only,_ZN4core3cmp6max_by17h181ea9c88caacd66E
	.seh_endproc
	.def	"?dtor$11@?0?_ZN4core3cmp6max_by17h181ea9c88caacd66E@4HA";
	.scl	3;
	.type	32;
	.endef
	.p2align	4, 0x90
"?dtor$11@?0?_ZN4core3cmp6max_by17h181ea9c88caacd66E@4HA":
.seh_proc "?dtor$11@?0?_ZN4core3cmp6max_by17h181ea9c88caacd66E@4HA"
.LBB94_11:
	movq	%rdx, 16(%rsp)
	pushq	%rbp
	.seh_pushreg %rbp
	subq	$32, %rsp
	.seh_stackalloc 32
	leaq	112(%rdx), %rbp
	.seh_endprologue
	testb	$1, -9(%rbp)
	jne	.LBB94_13
.LBB94_12:
	addq	$32, %rsp
	popq	%rbp
	retq
.LBB94_13:
	jmp	.LBB94_12
.Lfunc_end28:
	.seh_handlerdata
	.section	.text,"xr",one_only,_ZN4core3cmp6max_by17h181ea9c88caacd66E
	.seh_endproc
	.section	.xdata,"dr",associative,_ZN4core3cmp6max_by17h181ea9c88caacd66E
	.p2align	2, 0x0
$cppxdata$_ZN4core3cmp6max_by17h181ea9c88caacd66E:
	.long	429065506
	.long	2
	.long	($stateUnwindMap$_ZN4core3cmp6max_by17h181ea9c88caacd66E)@IMGREL
	.long	0
	.long	0
	.long	3
	.long	($ip2state$_ZN4core3cmp6max_by17h181ea9c88caacd66E)@IMGREL
	.long	104
	.long	0
	.long	1
$stateUnwindMap$_ZN4core3cmp6max_by17h181ea9c88caacd66E:
	.long	-1
	.long	"?dtor$11@?0?_ZN4core3cmp6max_by17h181ea9c88caacd66E@4HA"@IMGREL
	.long	0
	.long	"?dtor$1@?0?_ZN4core3cmp6max_by17h181ea9c88caacd66E@4HA"@IMGREL
$ip2state$_ZN4core3cmp6max_by17h181ea9c88caacd66E:
	.long	.Lfunc_begin28@IMGREL
	.long	-1
	.long	.Ltmp106@IMGREL+1
	.long	1
	.long	.Ltmp107@IMGREL+1
	.long	-1
	.section	.text,"xr",one_only,_ZN4core3cmp6max_by17h181ea9c88caacd66E

	.def	_ZN4core3cmp6min_by17h945a005e00d30626E;
	.scl	2;
	.type	32;
	.endef
	.section	.text,"xr",one_only,_ZN4core3cmp6min_by17h945a005e00d30626E
	.globl	_ZN4core3cmp6min_by17h945a005e00d30626E
	.p2align	4, 0x90
_ZN4core3cmp6min_by17h945a005e00d30626E:
.Lfunc_begin29:
.seh_proc _ZN4core3cmp6min_by17h945a005e00d30626E
	.seh_handler __CxxFrameHandler3, @unwind, @except
	pushq	%rbp
	.seh_pushreg %rbp
	subq	$112, %rsp
	.seh_stackalloc 112
	leaq	112(%rsp), %rbp
	.seh_setframe %rbp, 112
	.seh_endprologue
	movq	$-2, -8(%rbp)
	movq	%rcx, -64(%rbp)
	movq	%rdx, -56(%rbp)
	movb	$1, -9(%rbp)
	movb	$1, -10(%rbp)
	leaq	-64(%rbp), %rax
	movq	%rax, -32(%rbp)
	leaq	-56(%rbp), %rax
	movq	%rax, -24(%rbp)
	movq	-32(%rbp), %rcx
	movq	-24(%rbp), %rdx
.Ltmp108:
	callq	_ZN4core3ops8function6FnOnce9call_once17h999d5d71003f2fdeE
.Ltmp109:
	movb	%al, -65(%rbp)
	jmp	.LBB95_2
.LBB95_2:
	movb	-65(%rbp), %al
	movb	%al, -33(%rbp)
	movb	-33(%rbp), %al
	incb	%al
	subb	$2, %al
	jb	.LBB95_4
	jmp	.LBB95_14
.LBB95_14:
	jmp	.LBB95_5
	ud2
.LBB95_4:
	movb	$0, -9(%rbp)
	movq	-64(%rbp), %rax
	movq	%rax, -48(%rbp)
	jmp	.LBB95_6
.LBB95_5:
	movb	$0, -10(%rbp)
	movq	-56(%rbp), %rax
	movq	%rax, -48(%rbp)
.LBB95_6:
	testb	$1, -10(%rbp)
	jne	.LBB95_8
.LBB95_7:
	testb	$1, -9(%rbp)
	jne	.LBB95_10
	jmp	.LBB95_9
.LBB95_8:
	jmp	.LBB95_7
.LBB95_9:
	movq	-48(%rbp), %rax
	addq	$112, %rsp
	popq	%rbp
	retq
.LBB95_10:
	jmp	.LBB95_9
	.seh_handlerdata
	.long	($cppxdata$_ZN4core3cmp6min_by17h945a005e00d30626E)@IMGREL
	.section	.text,"xr",one_only,_ZN4core3cmp6min_by17h945a005e00d30626E
	.seh_endproc
	.def	"?dtor$1@?0?_ZN4core3cmp6min_by17h945a005e00d30626E@4HA";
	.scl	3;
	.type	32;
	.endef
	.p2align	4, 0x90
"?dtor$1@?0?_ZN4core3cmp6min_by17h945a005e00d30626E@4HA":
.seh_proc "?dtor$1@?0?_ZN4core3cmp6min_by17h945a005e00d30626E@4HA"
.LBB95_1:
	movq	%rdx, 16(%rsp)
	pushq	%rbp
	.seh_pushreg %rbp
	subq	$32, %rsp
	.seh_stackalloc 32
	leaq	112(%rdx), %rbp
	.seh_endprologue
	addq	$32, %rsp
	popq	%rbp
	retq
	.seh_handlerdata
	.section	.text,"xr",one_only,_ZN4core3cmp6min_by17h945a005e00d30626E
	.seh_endproc
	.def	"?dtor$11@?0?_ZN4core3cmp6min_by17h945a005e00d30626E@4HA";
	.scl	3;
	.type	32;
	.endef
	.p2align	4, 0x90
"?dtor$11@?0?_ZN4core3cmp6min_by17h945a005e00d30626E@4HA":
.seh_proc "?dtor$11@?0?_ZN4core3cmp6min_by17h945a005e00d30626E@4HA"
.LBB95_11:
	movq	%rdx, 16(%rsp)
	pushq	%rbp
	.seh_pushreg %rbp
	subq	$32, %rsp
	.seh_stackalloc 32
	leaq	112(%rdx), %rbp
	.seh_endprologue
	testb	$1, -9(%rbp)
	jne	.LBB95_13
.LBB95_12:
	addq	$32, %rsp
	popq	%rbp
	retq
.LBB95_13:
	jmp	.LBB95_12
.Lfunc_end29:
	.seh_handlerdata
	.section	.text,"xr",one_only,_ZN4core3cmp6min_by17h945a005e00d30626E
	.seh_endproc
	.section	.xdata,"dr",associative,_ZN4core3cmp6min_by17h945a005e00d30626E
	.p2align	2, 0x0
$cppxdata$_ZN4core3cmp6min_by17h945a005e00d30626E:
	.long	429065506
	.long	2
	.long	($stateUnwindMap$_ZN4core3cmp6min_by17h945a005e00d30626E)@IMGREL
	.long	0
	.long	0
	.long	3
	.long	($ip2state$_ZN4core3cmp6min_by17h945a005e00d30626E)@IMGREL
	.long	104
	.long	0
	.long	1
$stateUnwindMap$_ZN4core3cmp6min_by17h945a005e00d30626E:
	.long	-1
	.long	"?dtor$11@?0?_ZN4core3cmp6min_by17h945a005e00d30626E@4HA"@IMGREL
	.long	0
	.long	"?dtor$1@?0?_ZN4core3cmp6min_by17h945a005e00d30626E@4HA"@IMGREL
$ip2state$_ZN4core3cmp6min_by17h945a005e00d30626E:
	.long	.Lfunc_begin29@IMGREL
	.long	-1
	.long	.Ltmp108@IMGREL+1
	.long	1
	.long	.Ltmp109@IMGREL+1
	.long	-1
	.section	.text,"xr",one_only,_ZN4core3cmp6min_by17h945a005e00d30626E

	.def	_ZN4core3cmp9PartialEq2ne17haf3897fb56715e8eE;
	.scl	2;
	.type	32;
	.endef
	.section	.text,"xr",one_only,_ZN4core3cmp9PartialEq2ne17haf3897fb56715e8eE
	.globl	_ZN4core3cmp9PartialEq2ne17haf3897fb56715e8eE
	.p2align	4, 0x90
_ZN4core3cmp9PartialEq2ne17haf3897fb56715e8eE:
.seh_proc _ZN4core3cmp9PartialEq2ne17haf3897fb56715e8eE
	subq	$40, %rsp
	.seh_stackalloc 40
	.seh_endprologue
	callq	_ZN63_$LT$proc_macro2..Delimiter$u20$as$u20$core..cmp..PartialEq$GT$2eq17h4c97c7cf1e5215b7E
	xorb	$-1, %al
	andb	$1, %al
	movzbl	%al, %eax
	addq	$40, %rsp
	retq
	.seh_endproc

	.def	_ZN4core3f3221_$LT$impl$u20$f32$GT$9is_finite17hbea44a5b55d51364E;
	.scl	3;
	.type	32;
	.endef
	.globl	__real@7f800000
	.section	.rdata,"dr",discard,__real@7f800000
	.p2align	2, 0x0
__real@7f800000:
	.long	0x7f800000
	.section	.text,"xr",one_only,_ZN4core3f3221_$LT$impl$u20$f32$GT$9is_finite17hbea44a5b55d51364E
	.p2align	4, 0x90
_ZN4core3f3221_$LT$impl$u20$f32$GT$9is_finite17hbea44a5b55d51364E:
	vmovd	%xmm0, %eax
	andl	$2147483647, %eax
	vmovd	%eax, %xmm1
	vmovss	__real@7f800000(%rip), %xmm0
	vucomiss	%xmm1, %xmm0
	seta	%al
	andb	$1, %al
	movzbl	%al, %eax
	retq

	.def	_ZN4core3f6421_$LT$impl$u20$f64$GT$9is_finite17hb721dcbe4a174740E;
	.scl	3;
	.type	32;
	.endef
	.globl	__real@7ff0000000000000
	.section	.rdata,"dr",discard,__real@7ff0000000000000
	.p2align	3, 0x0
__real@7ff0000000000000:
	.quad	0x7ff0000000000000
	.section	.text,"xr",one_only,_ZN4core3f6421_$LT$impl$u20$f64$GT$9is_finite17hb721dcbe4a174740E
	.p2align	4, 0x90
_ZN4core3f6421_$LT$impl$u20$f64$GT$9is_finite17hb721dcbe4a174740E:
	vmovq	%xmm0, %rax
	movabsq	$9223372036854775807, %rcx
	andq	%rcx, %rax
	vmovq	%rax, %xmm1
	vmovsd	__real@7ff0000000000000(%rip), %xmm0
	vucomisd	%xmm1, %xmm0
	seta	%al
	andb	$1, %al
	movzbl	%al, %eax
	retq

	.def	_ZN4core3fmt3num52_$LT$impl$u20$core..fmt..Debug$u20$for$u20$usize$GT$3fmt17hc9773210c27d0281E;
	.scl	3;
	.type	32;
	.endef
	.section	.text,"xr",one_only,_ZN4core3fmt3num52_$LT$impl$u20$core..fmt..Debug$u20$for$u20$usize$GT$3fmt17hc9773210c27d0281E
	.p2align	4, 0x90
_ZN4core3fmt3num52_$LT$impl$u20$core..fmt..Debug$u20$for$u20$usize$GT$3fmt17hc9773210c27d0281E:
.seh_proc _ZN4core3fmt3num52_$LT$impl$u20$core..fmt..Debug$u20$for$u20$usize$GT$3fmt17hc9773210c27d0281E
	subq	$56, %rsp
	.seh_stackalloc 56
	.seh_endprologue
	movq	%rdx, 32(%rsp)
	movq	%rcx, 40(%rsp)
	movl	52(%rdx), %eax
	andl	$16, %eax
	cmpl	$0, %eax
	jne	.LBB99_2
	movq	32(%rsp), %rax
	movl	52(%rax), %eax
	andl	$32, %eax
	cmpl	$0, %eax
	je	.LBB99_3
	jmp	.LBB99_4
.LBB99_2:
	movq	32(%rsp), %rdx
	movq	40(%rsp), %rcx
	callq	_ZN4core3fmt3num55_$LT$impl$u20$core..fmt..LowerHex$u20$for$u20$usize$GT$3fmt17h4d796772892b498fE
	andb	$1, %al
	movb	%al, 55(%rsp)
	jmp	.LBB99_5
.LBB99_3:
	movq	32(%rsp), %rdx
	movq	40(%rsp), %rcx
	callq	_ZN4core3fmt3num3imp54_$LT$impl$u20$core..fmt..Display$u20$for$u20$usize$GT$3fmt17h334fec8f020c9fa2E
	andb	$1, %al
	movb	%al, 55(%rsp)
	jmp	.LBB99_5
.LBB99_4:
	movq	32(%rsp), %rdx
	movq	40(%rsp), %rcx
	callq	_ZN4core3fmt3num55_$LT$impl$u20$core..fmt..UpperHex$u20$for$u20$usize$GT$3fmt17h3a78c4308ed307f9E
	andb	$1, %al
	movb	%al, 55(%rsp)
.LBB99_5:
	movb	55(%rsp), %al
	andb	$1, %al
	movzbl	%al, %eax
	addq	$56, %rsp
	retq
	.seh_endproc

	.def	_ZN4core3fmt5Write9write_fmt17h81d4d42630de1e7fE;
	.scl	2;
	.type	32;
	.endef
	.section	.text,"xr",one_only,_ZN4core3fmt5Write9write_fmt17h81d4d42630de1e7fE
	.globl	_ZN4core3fmt5Write9write_fmt17h81d4d42630de1e7fE
	.p2align	4, 0x90
_ZN4core3fmt5Write9write_fmt17h81d4d42630de1e7fE:
.seh_proc _ZN4core3fmt5Write9write_fmt17h81d4d42630de1e7fE
	subq	$40, %rsp
	.seh_stackalloc 40
	.seh_endprologue
	callq	_ZN75_$LT$$RF$mut$u20$W$u20$as$u20$core..fmt..Write..write_fmt..SpecWriteFmt$GT$14spec_write_fmt17h3305cd4edb1aa10aE
	andb	$1, %al
	movzbl	%al, %eax
	addq	$40, %rsp
	retq
	.seh_endproc

	.def	_ZN4core3fmt8builders9DebugList7entries17h53f1d93d2f7bdff0E;
	.scl	2;
	.type	32;
	.endef
	.section	.text,"xr",one_only,_ZN4core3fmt8builders9DebugList7entries17h53f1d93d2f7bdff0E
	.globl	_ZN4core3fmt8builders9DebugList7entries17h53f1d93d2f7bdff0E
	.p2align	4, 0x90
_ZN4core3fmt8builders9DebugList7entries17h53f1d93d2f7bdff0E:
.Lfunc_begin30:
.seh_proc _ZN4core3fmt8builders9DebugList7entries17h53f1d93d2f7bdff0E
	.seh_handler __CxxFrameHandler3, @unwind, @except
	pushq	%rbp
	.seh_pushreg %rbp
	subq	$192, %rsp
	.seh_stackalloc 192
	leaq	128(%rsp), %rbp
	.seh_setframe %rbp, 128
	.seh_endprologue
	movq	$-2, 56(%rbp)
	movq	%rcx, -88(%rbp)
	leaq	-80(%rbp), %rcx
	callq	_ZN96_$LT$proc_macro2..fallback..TokenStream$u20$as$u20$core..iter..traits..collect..IntoIterator$GT$9into_iter17h116287b57afe2fb3E
	movq	-80(%rbp), %rax
	movq	%rax, -48(%rbp)
	movq	-72(%rbp), %rax
	movq	%rax, -40(%rbp)
	movq	-64(%rbp), %rax
	movq	%rax, -32(%rbp)
	movq	-56(%rbp), %rax
	movq	%rax, -24(%rbp)
.LBB101_1:
.Ltmp110:
	leaq	-16(%rbp), %rcx
	leaq	-48(%rbp), %rdx
	callq	_ZN101_$LT$proc_macro2..rcvec..RcVecIntoIter$LT$T$GT$$u20$as$u20$core..iter..traits..iterator..Iterator$GT$4next17h5fe0064d23613c2dE
.Ltmp111:
	jmp	.LBB101_3
.LBB101_3:
	movabsq	$-9223372036854775803, %rax
	cmpq	%rax, -16(%rbp)
	sete	%al
	testb	$1, %al
	jne	.LBB101_4
	jmp	.LBB101_5
.LBB101_4:
	leaq	-48(%rbp), %rcx
	callq	_ZN4core3ptr84drop_in_place$LT$proc_macro2..rcvec..RcVecIntoIter$LT$proc_macro2..TokenTree$GT$$GT$17hdfe5a220045bfc96E
	movq	-88(%rbp), %rax
	addq	$192, %rsp
	popq	%rbp
	retq
.LBB101_5:
	movq	-88(%rbp), %rcx
	vmovups	-16(%rbp), %ymm0
	vmovups	%ymm0, 16(%rbp)
.Ltmp112:
	leaq	__unnamed_10(%rip), %r8
	leaq	16(%rbp), %rdx
	vzeroupper
	callq	_ZN4core3fmt8builders9DebugList5entry17h75fd9ceef8dbb3c3E
.Ltmp113:
	jmp	.LBB101_7
.LBB101_7:
.Ltmp114:
	leaq	16(%rbp), %rcx
	callq	_ZN4core3ptr43drop_in_place$LT$proc_macro2..TokenTree$GT$17h0eb878d59ea5326eE
.Ltmp115:
	jmp	.LBB101_8
.LBB101_8:
	jmp	.LBB101_1
	.seh_handlerdata
	.long	($cppxdata$_ZN4core3fmt8builders9DebugList7entries17h53f1d93d2f7bdff0E)@IMGREL
	.section	.text,"xr",one_only,_ZN4core3fmt8builders9DebugList7entries17h53f1d93d2f7bdff0E
	.seh_endproc
	.def	"?dtor$2@?0?_ZN4core3fmt8builders9DebugList7entries17h53f1d93d2f7bdff0E@4HA";
	.scl	3;
	.type	32;
	.endef
	.p2align	4, 0x90
"?dtor$2@?0?_ZN4core3fmt8builders9DebugList7entries17h53f1d93d2f7bdff0E@4HA":
.seh_proc "?dtor$2@?0?_ZN4core3fmt8builders9DebugList7entries17h53f1d93d2f7bdff0E@4HA"
.LBB101_2:
	movq	%rdx, 16(%rsp)
	pushq	%rbp
	.seh_pushreg %rbp
	subq	$32, %rsp
	.seh_stackalloc 32
	leaq	128(%rdx), %rbp
	.seh_endprologue
	leaq	-48(%rbp), %rcx
	callq	_ZN4core3ptr84drop_in_place$LT$proc_macro2..rcvec..RcVecIntoIter$LT$proc_macro2..TokenTree$GT$$GT$17hdfe5a220045bfc96E
	nop
	addq	$32, %rsp
	popq	%rbp
	retq
	.seh_handlerdata
	.section	.text,"xr",one_only,_ZN4core3fmt8builders9DebugList7entries17h53f1d93d2f7bdff0E
	.seh_endproc
	.def	"?dtor$6@?0?_ZN4core3fmt8builders9DebugList7entries17h53f1d93d2f7bdff0E@4HA";
	.scl	3;
	.type	32;
	.endef
	.p2align	4, 0x90
"?dtor$6@?0?_ZN4core3fmt8builders9DebugList7entries17h53f1d93d2f7bdff0E@4HA":
.seh_proc "?dtor$6@?0?_ZN4core3fmt8builders9DebugList7entries17h53f1d93d2f7bdff0E@4HA"
.LBB101_6:
	movq	%rdx, 16(%rsp)
	pushq	%rbp
	.seh_pushreg %rbp
	subq	$32, %rsp
	.seh_stackalloc 32
	leaq	128(%rdx), %rbp
	.seh_endprologue
	leaq	16(%rbp), %rcx
	callq	_ZN4core3ptr43drop_in_place$LT$proc_macro2..TokenTree$GT$17h0eb878d59ea5326eE
	nop
	addq	$32, %rsp
	popq	%rbp
	retq
.Lfunc_end30:
	.seh_handlerdata
	.section	.text,"xr",one_only,_ZN4core3fmt8builders9DebugList7entries17h53f1d93d2f7bdff0E
	.seh_endproc
	.section	.xdata,"dr",associative,_ZN4core3fmt8builders9DebugList7entries17h53f1d93d2f7bdff0E
	.p2align	2, 0x0
$cppxdata$_ZN4core3fmt8builders9DebugList7entries17h53f1d93d2f7bdff0E:
	.long	429065506
	.long	2
	.long	($stateUnwindMap$_ZN4core3fmt8builders9DebugList7entries17h53f1d93d2f7bdff0E)@IMGREL
	.long	0
	.long	0
	.long	6
	.long	($ip2state$_ZN4core3fmt8builders9DebugList7entries17h53f1d93d2f7bdff0E)@IMGREL
	.long	184
	.long	0
	.long	1
$stateUnwindMap$_ZN4core3fmt8builders9DebugList7entries17h53f1d93d2f7bdff0E:
	.long	-1
	.long	"?dtor$2@?0?_ZN4core3fmt8builders9DebugList7entries17h53f1d93d2f7bdff0E@4HA"@IMGREL
	.long	0
	.long	"?dtor$6@?0?_ZN4core3fmt8builders9DebugList7entries17h53f1d93d2f7bdff0E@4HA"@IMGREL
$ip2state$_ZN4core3fmt8builders9DebugList7entries17h53f1d93d2f7bdff0E:
	.long	.Lfunc_begin30@IMGREL
	.long	-1
	.long	.Ltmp110@IMGREL+1
	.long	0
	.long	.Ltmp111@IMGREL+1
	.long	-1
	.long	.Ltmp112@IMGREL+1
	.long	1
	.long	.Ltmp114@IMGREL+1
	.long	0
	.long	.Ltmp115@IMGREL+1
	.long	-1
	.section	.text,"xr",one_only,_ZN4core3fmt8builders9DebugList7entries17h53f1d93d2f7bdff0E

	.def	_ZN4core3fmt8builders9DebugList7entries17ha0af08e5dfb5d150E;
	.scl	2;
	.type	32;
	.endef
	.section	.text,"xr",one_only,_ZN4core3fmt8builders9DebugList7entries17ha0af08e5dfb5d150E
	.globl	_ZN4core3fmt8builders9DebugList7entries17ha0af08e5dfb5d150E
	.p2align	4, 0x90
_ZN4core3fmt8builders9DebugList7entries17ha0af08e5dfb5d150E:
.Lfunc_begin31:
.seh_proc _ZN4core3fmt8builders9DebugList7entries17ha0af08e5dfb5d150E
	.seh_handler __CxxFrameHandler3, @unwind, @except
	pushq	%rbp
	.seh_pushreg %rbp
	subq	$208, %rsp
	.seh_stackalloc 208
	leaq	128(%rsp), %rbp
	.seh_setframe %rbp, 128
	.seh_endprologue
	movq	$-2, 72(%rbp)
	movq	%rcx, -88(%rbp)
	leaq	-80(%rbp), %rcx
	callq	_ZN63_$LT$I$u20$as$u20$core..iter..traits..collect..IntoIterator$GT$9into_iter17hd6c35996a3dbd88bE
	leaq	-40(%rbp), %rcx
	leaq	-80(%rbp), %rdx
	movl	$40, %r8d
	callq	memcpy
.LBB102_1:
.Ltmp116:
	movq	%rbp, %rcx
	leaq	-40(%rbp), %rdx
	callq	_ZN94_$LT$proc_macro2..token_stream..IntoIter$u20$as$u20$core..iter..traits..iterator..Iterator$GT$4next17he51b05171fd0791fE
.Ltmp117:
	jmp	.LBB102_3
.LBB102_3:
	movabsq	$-9223372036854775803, %rax
	cmpq	%rax, (%rbp)
	sete	%al
	testb	$1, %al
	jne	.LBB102_4
	jmp	.LBB102_5
.LBB102_4:
	leaq	-40(%rbp), %rcx
	callq	_ZN4core3ptr56drop_in_place$LT$proc_macro2..token_stream..IntoIter$GT$17h45ba3be0ea10cc56E
	movq	-88(%rbp), %rax
	addq	$208, %rsp
	popq	%rbp
	retq
.LBB102_5:
	movq	-88(%rbp), %rcx
	vmovups	(%rbp), %ymm0
	vmovups	%ymm0, 32(%rbp)
.Ltmp118:
	leaq	__unnamed_10(%rip), %r8
	leaq	32(%rbp), %rdx
	vzeroupper
	callq	_ZN4core3fmt8builders9DebugList5entry17h75fd9ceef8dbb3c3E
.Ltmp119:
	jmp	.LBB102_7
.LBB102_7:
.Ltmp120:
	leaq	32(%rbp), %rcx
	callq	_ZN4core3ptr43drop_in_place$LT$proc_macro2..TokenTree$GT$17h0eb878d59ea5326eE
.Ltmp121:
	jmp	.LBB102_8
.LBB102_8:
	jmp	.LBB102_1
	.seh_handlerdata
	.long	($cppxdata$_ZN4core3fmt8builders9DebugList7entries17ha0af08e5dfb5d150E)@IMGREL
	.section	.text,"xr",one_only,_ZN4core3fmt8builders9DebugList7entries17ha0af08e5dfb5d150E
	.seh_endproc
	.def	"?dtor$2@?0?_ZN4core3fmt8builders9DebugList7entries17ha0af08e5dfb5d150E@4HA";
	.scl	3;
	.type	32;
	.endef
	.p2align	4, 0x90
"?dtor$2@?0?_ZN4core3fmt8builders9DebugList7entries17ha0af08e5dfb5d150E@4HA":
.seh_proc "?dtor$2@?0?_ZN4core3fmt8builders9DebugList7entries17ha0af08e5dfb5d150E@4HA"
.LBB102_2:
	movq	%rdx, 16(%rsp)
	pushq	%rbp
	.seh_pushreg %rbp
	subq	$32, %rsp
	.seh_stackalloc 32
	leaq	128(%rdx), %rbp
	.seh_endprologue
	leaq	-40(%rbp), %rcx
	callq	_ZN4core3ptr56drop_in_place$LT$proc_macro2..token_stream..IntoIter$GT$17h45ba3be0ea10cc56E
	nop
	addq	$32, %rsp
	popq	%rbp
	retq
	.seh_handlerdata
	.section	.text,"xr",one_only,_ZN4core3fmt8builders9DebugList7entries17ha0af08e5dfb5d150E
	.seh_endproc
	.def	"?dtor$6@?0?_ZN4core3fmt8builders9DebugList7entries17ha0af08e5dfb5d150E@4HA";
	.scl	3;
	.type	32;
	.endef
	.p2align	4, 0x90
"?dtor$6@?0?_ZN4core3fmt8builders9DebugList7entries17ha0af08e5dfb5d150E@4HA":
.seh_proc "?dtor$6@?0?_ZN4core3fmt8builders9DebugList7entries17ha0af08e5dfb5d150E@4HA"
.LBB102_6:
	movq	%rdx, 16(%rsp)
	pushq	%rbp
	.seh_pushreg %rbp
	subq	$32, %rsp
	.seh_stackalloc 32
	leaq	128(%rdx), %rbp
	.seh_endprologue
	leaq	32(%rbp), %rcx
	callq	_ZN4core3ptr43drop_in_place$LT$proc_macro2..TokenTree$GT$17h0eb878d59ea5326eE
	nop
	addq	$32, %rsp
	popq	%rbp
	retq
.Lfunc_end31:
	.seh_handlerdata
	.section	.text,"xr",one_only,_ZN4core3fmt8builders9DebugList7entries17ha0af08e5dfb5d150E
	.seh_endproc
	.section	.xdata,"dr",associative,_ZN4core3fmt8builders9DebugList7entries17ha0af08e5dfb5d150E
	.p2align	2, 0x0
$cppxdata$_ZN4core3fmt8builders9DebugList7entries17ha0af08e5dfb5d150E:
	.long	429065506
	.long	2
	.long	($stateUnwindMap$_ZN4core3fmt8builders9DebugList7entries17ha0af08e5dfb5d150E)@IMGREL
	.long	0
	.long	0
	.long	6
	.long	($ip2state$_ZN4core3fmt8builders9DebugList7entries17ha0af08e5dfb5d150E)@IMGREL
	.long	200
	.long	0
	.long	1
$stateUnwindMap$_ZN4core3fmt8builders9DebugList7entries17ha0af08e5dfb5d150E:
	.long	-1
	.long	"?dtor$2@?0?_ZN4core3fmt8builders9DebugList7entries17ha0af08e5dfb5d150E@4HA"@IMGREL
	.long	0
	.long	"?dtor$6@?0?_ZN4core3fmt8builders9DebugList7entries17ha0af08e5dfb5d150E@4HA"@IMGREL
$ip2state$_ZN4core3fmt8builders9DebugList7entries17ha0af08e5dfb5d150E:
	.long	.Lfunc_begin31@IMGREL
	.long	-1
	.long	.Ltmp116@IMGREL+1
	.long	0
	.long	.Ltmp117@IMGREL+1
	.long	-1
	.long	.Ltmp118@IMGREL+1
	.long	1
	.long	.Ltmp120@IMGREL+1
	.long	0
	.long	.Ltmp121@IMGREL+1
	.long	-1
	.section	.text,"xr",one_only,_ZN4core3fmt8builders9DebugList7entries17ha0af08e5dfb5d150E

	.def	_ZN4core3fmt9Arguments16new_v1_formatted17h4fdc0115fef6d64fE;
	.scl	3;
	.type	32;
	.endef
	.section	.text,"xr",one_only,_ZN4core3fmt9Arguments16new_v1_formatted17h4fdc0115fef6d64fE
	.p2align	4, 0x90
_ZN4core3fmt9Arguments16new_v1_formatted17h4fdc0115fef6d64fE:
.seh_proc _ZN4core3fmt9Arguments16new_v1_formatted17h4fdc0115fef6d64fE
	pushq	%rsi
	.seh_pushreg %rsi
	subq	$16, %rsp
	.seh_stackalloc 16
	.seh_endprologue
	movq	%rdx, %r10
	movq	%rcx, %rax
	movq	80(%rsp), %r11
	movq	72(%rsp), %rsi
	movq	64(%rsp), %rdx
	movq	%rsi, (%rsp)
	movq	%r11, 8(%rsp)
	movq	%r10, (%rcx)
	movq	%r8, 8(%rcx)
	movq	(%rsp), %r10
	movq	8(%rsp), %r8
	movq	%r10, 32(%rcx)
	movq	%r8, 40(%rcx)
	movq	%r9, 16(%rcx)
	movq	%rdx, 24(%rcx)
	addq	$16, %rsp
	popq	%rsi
	retq
	.seh_endproc

	.def	_ZN4core3fmt9Arguments6new_v117hb4789d960aff607dE;
	.scl	3;
	.type	32;
	.endef
	.section	.text,"xr",one_only,_ZN4core3fmt9Arguments6new_v117hb4789d960aff607dE
	.p2align	4, 0x90
_ZN4core3fmt9Arguments6new_v117hb4789d960aff607dE:
.seh_proc _ZN4core3fmt9Arguments6new_v117hb4789d960aff607dE
	subq	$168, %rsp
	.seh_stackalloc 168
	.seh_endprologue
	movq	%r9, 40(%rsp)
	movq	%r8, 48(%rsp)
	movq	%rdx, 56(%rsp)
	movq	%rcx, 64(%rsp)
	movq	%rcx, 72(%rsp)
	movq	208(%rsp), %rax
	movq	%rax, 80(%rsp)
	cmpq	%rax, %r8
	jb	.LBB104_2
	movq	48(%rsp), %rax
	movq	80(%rsp), %rcx
	addq	$1, %rcx
	cmpq	%rcx, %rax
	ja	.LBB104_4
	jmp	.LBB104_3
.LBB104_2:
	jmp	.LBB104_4
.LBB104_3:
	movq	72(%rsp), %rax
	movq	64(%rsp), %rcx
	movq	80(%rsp), %rdx
	movq	40(%rsp), %r8
	movq	48(%rsp), %r9
	movq	56(%rsp), %r10
	movq	$0, 136(%rsp)
	movq	%r10, (%rcx)
	movq	%r9, 8(%rcx)
	movq	136(%rsp), %r10
	movq	144(%rsp), %r9
	movq	%r10, 32(%rcx)
	movq	%r9, 40(%rcx)
	movq	%r8, 16(%rcx)
	movq	%rdx, 24(%rcx)
	addq	$168, %rsp
	retq
.LBB104_4:
	movq	$0, 152(%rsp)
	leaq	__unnamed_11(%rip), %rax
	movq	%rax, 88(%rsp)
	movq	$1, 96(%rsp)
	movq	152(%rsp), %rcx
	movq	160(%rsp), %rax
	movq	%rcx, 120(%rsp)
	movq	%rax, 128(%rsp)
	leaq	__unnamed_12(%rip), %rax
	movq	%rax, 104(%rsp)
	movq	$0, 112(%rsp)
	leaq	__unnamed_13(%rip), %rdx
	leaq	88(%rsp), %rcx
	callq	_ZN4core9panicking9panic_fmt17hdbb75bebc22f3408E
	int3
	.seh_endproc

	.def	_ZN4core3fmt9Arguments9new_const17h1a40470e7de9f0acE;
	.scl	3;
	.type	32;
	.endef
	.section	.text,"xr",one_only,_ZN4core3fmt9Arguments9new_const17h1a40470e7de9f0acE
	.p2align	4, 0x90
_ZN4core3fmt9Arguments9new_const17h1a40470e7de9f0acE:
.seh_proc _ZN4core3fmt9Arguments9new_const17h1a40470e7de9f0acE
	subq	$136, %rsp
	.seh_stackalloc 136
	.seh_endprologue
	movq	%r8, 40(%rsp)
	movq	%rdx, 48(%rsp)
	movq	%rcx, 56(%rsp)
	movq	%rcx, 64(%rsp)
	cmpq	$1, %r8
	ja	.LBB105_2
	movq	64(%rsp), %rax
	movq	56(%rsp), %rcx
	movq	40(%rsp), %rdx
	movq	48(%rsp), %r8
	movq	$0, 120(%rsp)
	movq	%r8, (%rcx)
	movq	%rdx, 8(%rcx)
	movq	120(%rsp), %r8
	movq	128(%rsp), %rdx
	movq	%r8, 32(%rcx)
	movq	%rdx, 40(%rcx)
	leaq	__unnamed_12(%rip), %rdx
	movq	%rdx, 16(%rcx)
	movq	$0, 24(%rcx)
	addq	$136, %rsp
	retq
.LBB105_2:
	leaq	__unnamed_11(%rip), %rdx
	leaq	72(%rsp), %rcx
	movq	%rcx, 32(%rsp)
	movl	$1, %r8d
	callq	_ZN4core3fmt9Arguments9new_const17h1a40470e7de9f0acE
	movq	32(%rsp), %rcx
	leaq	__unnamed_14(%rip), %rdx
	callq	_ZN4core9panicking9panic_fmt17hdbb75bebc22f3408E
	int3
	.seh_endproc

	.def	_ZN4core3mem4take17h7a9c4a4129b4e495E;
	.scl	2;
	.type	32;
	.endef
	.section	.text,"xr",one_only,_ZN4core3mem4take17h7a9c4a4129b4e495E
	.globl	_ZN4core3mem4take17h7a9c4a4129b4e495E
	.p2align	4, 0x90
_ZN4core3mem4take17h7a9c4a4129b4e495E:
.seh_proc _ZN4core3mem4take17h7a9c4a4129b4e495E
	subq	$88, %rsp
	.seh_stackalloc 88
	.seh_endprologue
	movq	%rdx, 48(%rsp)
	movq	%rcx, 40(%rsp)
	movq	%rcx, 56(%rsp)
	leaq	64(%rsp), %rcx
	callq	_ZN67_$LT$alloc..vec..Vec$LT$T$GT$$u20$as$u20$core..default..Default$GT$7default17h704637c223866115E
	movq	40(%rsp), %rcx
	movq	48(%rsp), %rdx
	movq	56(%rsp), %rax
	movq	(%rdx), %r8
	movq	%r8, (%rcx)
	movq	8(%rdx), %r8
	movq	%r8, 8(%rcx)
	movq	16(%rdx), %r8
	movq	%r8, 16(%rcx)
	movq	64(%rsp), %rcx
	movq	%rcx, (%rdx)
	movq	72(%rsp), %rcx
	movq	%rcx, 8(%rdx)
	movq	80(%rsp), %rcx
	movq	%rcx, 16(%rdx)
	addq	$88, %rsp
	retq
	.seh_endproc

	.def	_ZN4core3num20_$LT$impl$u20$u8$GT$8is_ascii17hbddeb12dfa9d14beE;
	.scl	3;
	.type	32;
	.endef
	.section	.text,"xr",one_only,_ZN4core3num20_$LT$impl$u20$u8$GT$8is_ascii17hbddeb12dfa9d14beE
	.p2align	4, 0x90
_ZN4core3num20_$LT$impl$u20$u8$GT$8is_ascii17hbddeb12dfa9d14beE:
	cmpb	$127, (%rcx)
	setbe	%al
	andb	$1, %al
	movzbl	%al, %eax
	retq

	.def	_ZN4core3ops8function6FnOnce40call_once$u7b$$u7b$vtable.shim$u7d$$u7d$17hf7ff04977c4b4a46E;
	.scl	3;
	.type	32;
	.endef
	.section	.text,"xr",one_only,_ZN4core3ops8function6FnOnce40call_once$u7b$$u7b$vtable.shim$u7d$$u7d$17hf7ff04977c4b4a46E
	.p2align	4, 0x90
_ZN4core3ops8function6FnOnce40call_once$u7b$$u7b$vtable.shim$u7d$$u7d$17hf7ff04977c4b4a46E:
.seh_proc _ZN4core3ops8function6FnOnce40call_once$u7b$$u7b$vtable.shim$u7d$$u7d$17hf7ff04977c4b4a46E
	subq	$40, %rsp
	.seh_stackalloc 40
	.seh_endprologue
	movq	%rdx, 32(%rsp)
	movq	(%rcx), %rcx
	movq	32(%rsp), %rdx
	callq	_ZN4core3ops8function6FnOnce9call_once17he81feda60a89ccefE
	nop
	addq	$40, %rsp
	retq
	.seh_endproc

	.def	_ZN4core3ops8function6FnOnce9call_once17h00b3407534ef1182E;
	.scl	3;
	.type	32;
	.endef
	.section	.text,"xr",one_only,_ZN4core3ops8function6FnOnce9call_once17h00b3407534ef1182E
	.p2align	4, 0x90
_ZN4core3ops8function6FnOnce9call_once17h00b3407534ef1182E:
.seh_proc _ZN4core3ops8function6FnOnce9call_once17h00b3407534ef1182E
	subq	$40, %rsp
	.seh_stackalloc 40
	.seh_endprologue
	callq	_ZN11proc_macro29detection10initialize17h1a75779e562d9f38E
	nop
	addq	$40, %rsp
	retq
	.seh_endproc

	.def	_ZN4core3ops8function6FnOnce9call_once17h333d8ef1356eb5f4E;
	.scl	3;
	.type	32;
	.endef
	.section	.text,"xr",one_only,_ZN4core3ops8function6FnOnce9call_once17h333d8ef1356eb5f4E
	.p2align	4, 0x90
_ZN4core3ops8function6FnOnce9call_once17h333d8ef1356eb5f4E:
.seh_proc _ZN4core3ops8function6FnOnce9call_once17h333d8ef1356eb5f4E
	subq	$40, %rsp
	.seh_stackalloc 40
	.seh_endprologue
	movb	%cl, 39(%rsp)
	movb	39(%rsp), %cl
	callq	_ZN4core4char7convert64_$LT$impl$u20$core..convert..From$LT$u8$GT$$u20$for$u20$char$GT$4from17hd3731d976b496c5eE
	nop
	addq	$40, %rsp
	retq
	.seh_endproc

	.def	_ZN4core3ops8function6FnOnce9call_once17h86be7425bea70dedE;
	.scl	3;
	.type	32;
	.endef
	.section	.text,"xr",one_only,_ZN4core3ops8function6FnOnce9call_once17h86be7425bea70dedE
	.p2align	4, 0x90
_ZN4core3ops8function6FnOnce9call_once17h86be7425bea70dedE:
.seh_proc _ZN4core3ops8function6FnOnce9call_once17h86be7425bea70dedE
	subq	$72, %rsp
	.seh_stackalloc 72
	.seh_endprologue
	movq	%rcx, %rax
	movq	%rax, 40(%rsp)
	movq	(%rdx), %rax
	movq	%rax, 48(%rsp)
	movq	8(%rdx), %rax
	movq	%rax, 56(%rsp)
	movq	16(%rdx), %rax
	movq	%rax, 64(%rsp)
	leaq	48(%rsp), %rdx
	callq	_ZN11proc_macro27Literal4_new17ha9b84824819746ebE
	movq	40(%rsp), %rax
	addq	$72, %rsp
	retq
	.seh_endproc

	.def	_ZN4core3ops8function6FnOnce9call_once17h999d5d71003f2fdeE;
	.scl	3;
	.type	32;
	.endef
	.section	.text,"xr",one_only,_ZN4core3ops8function6FnOnce9call_once17h999d5d71003f2fdeE
	.p2align	4, 0x90
_ZN4core3ops8function6FnOnce9call_once17h999d5d71003f2fdeE:
.seh_proc _ZN4core3ops8function6FnOnce9call_once17h999d5d71003f2fdeE
	subq	$56, %rsp
	.seh_stackalloc 56
	.seh_endprologue
	movq	%rcx, 40(%rsp)
	movq	%rdx, 48(%rsp)
	movq	40(%rsp), %rcx
	movq	48(%rsp), %rdx
	callq	_ZN4core3cmp5impls50_$LT$impl$u20$core..cmp..Ord$u20$for$u20$usize$GT$3cmp17h2b6b42dd0ca13228E
	nop
	addq	$56, %rsp
	retq
	.seh_endproc

	.def	_ZN4core3ops8function6FnOnce9call_once17hadb3ba0f3cc212f0E;
	.scl	3;
	.type	32;
	.endef
	.section	.text,"xr",one_only,_ZN4core3ops8function6FnOnce9call_once17hadb3ba0f3cc212f0E
	.p2align	4, 0x90
_ZN4core3ops8function6FnOnce9call_once17hadb3ba0f3cc212f0E:
.seh_proc _ZN4core3ops8function6FnOnce9call_once17hadb3ba0f3cc212f0E
	subq	$40, %rsp
	.seh_stackalloc 40
	.seh_endprologue
	callq	_ZN11proc_macro23imp8LexError8Compiler17he1bccc312e2c65e1E
	andb	$1, %al
	movzbl	%al, %eax
	addq	$40, %rsp
	retq
	.seh_endproc

	.def	_ZN4core3ops8function6FnOnce9call_once17hd76c9371686f60acE;
	.scl	3;
	.type	32;
	.endef
	.section	.text,"xr",one_only,_ZN4core3ops8function6FnOnce9call_once17hd76c9371686f60acE
	.p2align	4, 0x90
_ZN4core3ops8function6FnOnce9call_once17hd76c9371686f60acE:
.seh_proc _ZN4core3ops8function6FnOnce9call_once17hd76c9371686f60acE
	subq	$56, %rsp
	.seh_stackalloc 56
	.seh_endprologue
	movq	%rcx, %rax
	movq	%rax, 32(%rsp)
	movq	%rdx, 40(%rsp)
	movq	%r8, 48(%rsp)
	movq	40(%rsp), %rdx
	movq	48(%rsp), %r8
	callq	_ZN5alloc3str56_$LT$impl$u20$alloc..borrow..ToOwned$u20$for$u20$str$GT$8to_owned17h0e13b7ee65b3b4b3E
	movq	32(%rsp), %rax
	addq	$56, %rsp
	retq
	.seh_endproc

	.def	_ZN4core3ops8function6FnOnce9call_once17hd796b3e607912613E;
	.scl	3;
	.type	32;
	.endef
	.section	.text,"xr",one_only,_ZN4core3ops8function6FnOnce9call_once17hd796b3e607912613E
	.p2align	4, 0x90
_ZN4core3ops8function6FnOnce9call_once17hd796b3e607912613E:
.seh_proc _ZN4core3ops8function6FnOnce9call_once17hd796b3e607912613E
	subq	$40, %rsp
	.seh_stackalloc 40
	.seh_endprologue
	movl	%ecx, 36(%rsp)
	movl	36(%rsp), %ecx
	callq	_ZN11proc_macro24Span4_new17h1355eafd805fe2b3E
	nop
	addq	$40, %rsp
	retq
	.seh_endproc

	.def	_ZN4core3ops8function6FnOnce9call_once17he81feda60a89ccefE;
	.scl	3;
	.type	32;
	.endef
	.section	.text,"xr",one_only,_ZN4core3ops8function6FnOnce9call_once17he81feda60a89ccefE
	.p2align	4, 0x90
_ZN4core3ops8function6FnOnce9call_once17he81feda60a89ccefE:
.Lfunc_begin32:
.seh_proc _ZN4core3ops8function6FnOnce9call_once17he81feda60a89ccefE
	.seh_handler __CxxFrameHandler3, @unwind, @except
	pushq	%rbp
	.seh_pushreg %rbp
	subq	$64, %rsp
	.seh_stackalloc 64
	leaq	64(%rsp), %rbp
	.seh_setframe %rbp, 64
	.seh_endprologue
	movq	$-2, -8(%rbp)
	movq	%rcx, -24(%rbp)
	movq	%rdx, -16(%rbp)
	movq	-16(%rbp), %rdx
.Ltmp122:
	leaq	-24(%rbp), %rcx
	callq	_ZN3std4sync4once4Once9call_once28_$u7b$$u7b$closure$u7d$$u7d$17h2cce995445aa3856E
.Ltmp123:
	jmp	.LBB116_2
.LBB116_2:
	addq	$64, %rsp
	popq	%rbp
	retq
	.seh_handlerdata
	.long	($cppxdata$_ZN4core3ops8function6FnOnce9call_once17he81feda60a89ccefE)@IMGREL
	.section	.text,"xr",one_only,_ZN4core3ops8function6FnOnce9call_once17he81feda60a89ccefE
	.seh_endproc
	.def	"?dtor$1@?0?_ZN4core3ops8function6FnOnce9call_once17he81feda60a89ccefE@4HA";
	.scl	3;
	.type	32;
	.endef
	.p2align	4, 0x90
"?dtor$1@?0?_ZN4core3ops8function6FnOnce9call_once17he81feda60a89ccefE@4HA":
.seh_proc "?dtor$1@?0?_ZN4core3ops8function6FnOnce9call_once17he81feda60a89ccefE@4HA"
.LBB116_1:
	movq	%rdx, 16(%rsp)
	pushq	%rbp
	.seh_pushreg %rbp
	subq	$32, %rsp
	.seh_stackalloc 32
	leaq	64(%rdx), %rbp
	.seh_endprologue
	addq	$32, %rsp
	popq	%rbp
	retq
.Lfunc_end32:
	.seh_handlerdata
	.section	.text,"xr",one_only,_ZN4core3ops8function6FnOnce9call_once17he81feda60a89ccefE
	.seh_endproc
	.section	.xdata,"dr",associative,_ZN4core3ops8function6FnOnce9call_once17he81feda60a89ccefE
	.p2align	2, 0x0
$cppxdata$_ZN4core3ops8function6FnOnce9call_once17he81feda60a89ccefE:
	.long	429065506
	.long	1
	.long	($stateUnwindMap$_ZN4core3ops8function6FnOnce9call_once17he81feda60a89ccefE)@IMGREL
	.long	0
	.long	0
	.long	3
	.long	($ip2state$_ZN4core3ops8function6FnOnce9call_once17he81feda60a89ccefE)@IMGREL
	.long	56
	.long	0
	.long	1
$stateUnwindMap$_ZN4core3ops8function6FnOnce9call_once17he81feda60a89ccefE:
	.long	-1
	.long	"?dtor$1@?0?_ZN4core3ops8function6FnOnce9call_once17he81feda60a89ccefE@4HA"@IMGREL
$ip2state$_ZN4core3ops8function6FnOnce9call_once17he81feda60a89ccefE:
	.long	.Lfunc_begin32@IMGREL
	.long	-1
	.long	.Ltmp122@IMGREL+1
	.long	0
	.long	.Ltmp123@IMGREL+1
	.long	-1
	.section	.text,"xr",one_only,_ZN4core3ops8function6FnOnce9call_once17he81feda60a89ccefE

	.def	_ZN4core3ptr105drop_in_place$LT$$u5b$$LP$proc_macro2..Delimiter$C$proc_macro2..fallback..TokenStreamBuilder$RP$$u5d$$GT$17hcaa1532af45751cdE;
	.scl	2;
	.type	32;
	.endef
	.section	.text,"xr",one_only,_ZN4core3ptr105drop_in_place$LT$$u5b$$LP$proc_macro2..Delimiter$C$proc_macro2..fallback..TokenStreamBuilder$RP$$u5d$$GT$17hcaa1532af45751cdE
	.globl	_ZN4core3ptr105drop_in_place$LT$$u5b$$LP$proc_macro2..Delimiter$C$proc_macro2..fallback..TokenStreamBuilder$RP$$u5d$$GT$17hcaa1532af45751cdE
	.p2align	4, 0x90
_ZN4core3ptr105drop_in_place$LT$$u5b$$LP$proc_macro2..Delimiter$C$proc_macro2..fallback..TokenStreamBuilder$RP$$u5d$$GT$17hcaa1532af45751cdE:
.Lfunc_begin33:
.seh_proc _ZN4core3ptr105drop_in_place$LT$$u5b$$LP$proc_macro2..Delimiter$C$proc_macro2..fallback..TokenStreamBuilder$RP$$u5d$$GT$17hcaa1532af45751cdE
	.seh_handler __CxxFrameHandler3, @unwind, @except
	pushq	%rbp
	.seh_pushreg %rbp
	subq	$64, %rsp
	.seh_stackalloc 64
	leaq	64(%rsp), %rbp
	.seh_setframe %rbp, 64
	.seh_endprologue
	movq	$-2, -8(%rbp)
	movq	%rdx, -32(%rbp)
	movq	%rcx, -24(%rbp)
	movq	$0, -16(%rbp)
.LBB117_1:
	movq	-32(%rbp), %rax
	cmpq	%rax, -16(%rbp)
	je	.LBB117_3
	movq	-24(%rbp), %rcx
	movq	-16(%rbp), %rax
	movq	%rax, %rdx
	shlq	$5, %rdx
	addq	%rdx, %rcx
	incq	%rax
	movq	%rax, -16(%rbp)
.Ltmp124:
	callq	_ZN4core3ptr95drop_in_place$LT$$LP$proc_macro2..Delimiter$C$proc_macro2..fallback..TokenStreamBuilder$RP$$GT$17h18de593cfe13f136E
.Ltmp125:
	jmp	.LBB117_1
.LBB117_3:
	addq	$64, %rsp
	popq	%rbp
	retq
.LBB117_4:
	movq	-32(%rbp), %rax
	cmpq	%rax, -16(%rbp)
	je	.LBB117_7
	jmp	.LBB117_6
	.seh_handlerdata
	.long	($cppxdata$_ZN4core3ptr105drop_in_place$LT$$u5b$$LP$proc_macro2..Delimiter$C$proc_macro2..fallback..TokenStreamBuilder$RP$$u5d$$GT$17hcaa1532af45751cdE)@IMGREL
	.section	.text,"xr",one_only,_ZN4core3ptr105drop_in_place$LT$$u5b$$LP$proc_macro2..Delimiter$C$proc_macro2..fallback..TokenStreamBuilder$RP$$u5d$$GT$17hcaa1532af45751cdE
	.seh_endproc
	.def	"?dtor$5@?0?_ZN4core3ptr105drop_in_place$LT$$u5b$$LP$proc_macro2..Delimiter$C$proc_macro2..fallback..TokenStreamBuilder$RP$$u5d$$GT$17hcaa1532af45751cdE@4HA";
	.scl	3;
	.type	32;
	.endef
	.p2align	4, 0x90
"?dtor$5@?0?_ZN4core3ptr105drop_in_place$LT$$u5b$$LP$proc_macro2..Delimiter$C$proc_macro2..fallback..TokenStreamBuilder$RP$$u5d$$GT$17hcaa1532af45751cdE@4HA":
.seh_proc "?dtor$5@?0?_ZN4core3ptr105drop_in_place$LT$$u5b$$LP$proc_macro2..Delimiter$C$proc_macro2..fallback..TokenStreamBuilder$RP$$u5d$$GT$17hcaa1532af45751cdE@4HA"
.LBB117_5:
	movq	%rdx, 16(%rsp)
	pushq	%rbp
	.seh_pushreg %rbp
	subq	$32, %rsp
	.seh_stackalloc 32
	leaq	64(%rdx), %rbp
	.seh_endprologue
	jmp	.LBB117_4
.LBB117_6:
	movq	-24(%rbp), %rcx
	movq	-16(%rbp), %rax
	shlq	$5, %rax
	addq	%rax, %rcx
	movq	-16(%rbp), %rax
	addq	$1, %rax
	movq	%rax, -16(%rbp)
	callq	_ZN4core3ptr95drop_in_place$LT$$LP$proc_macro2..Delimiter$C$proc_macro2..fallback..TokenStreamBuilder$RP$$GT$17h18de593cfe13f136E
	jmp	.LBB117_4
.LBB117_7:
	addq	$32, %rsp
	popq	%rbp
	retq
.Lfunc_end33:
	.seh_handlerdata
	.section	.text,"xr",one_only,_ZN4core3ptr105drop_in_place$LT$$u5b$$LP$proc_macro2..Delimiter$C$proc_macro2..fallback..TokenStreamBuilder$RP$$u5d$$GT$17hcaa1532af45751cdE
	.seh_endproc
	.section	.xdata,"dr",associative,_ZN4core3ptr105drop_in_place$LT$$u5b$$LP$proc_macro2..Delimiter$C$proc_macro2..fallback..TokenStreamBuilder$RP$$u5d$$GT$17hcaa1532af45751cdE
	.p2align	2, 0x0
$cppxdata$_ZN4core3ptr105drop_in_place$LT$$u5b$$LP$proc_macro2..Delimiter$C$proc_macro2..fallback..TokenStreamBuilder$RP$$u5d$$GT$17hcaa1532af45751cdE:
	.long	429065506
	.long	1
	.long	($stateUnwindMap$_ZN4core3ptr105drop_in_place$LT$$u5b$$LP$proc_macro2..Delimiter$C$proc_macro2..fallback..TokenStreamBuilder$RP$$u5d$$GT$17hcaa1532af45751cdE)@IMGREL
	.long	0
	.long	0
	.long	3
	.long	($ip2state$_ZN4core3ptr105drop_in_place$LT$$u5b$$LP$proc_macro2..Delimiter$C$proc_macro2..fallback..TokenStreamBuilder$RP$$u5d$$GT$17hcaa1532af45751cdE)@IMGREL
	.long	56
	.long	0
	.long	1
$stateUnwindMap$_ZN4core3ptr105drop_in_place$LT$$u5b$$LP$proc_macro2..Delimiter$C$proc_macro2..fallback..TokenStreamBuilder$RP$$u5d$$GT$17hcaa1532af45751cdE:
	.long	-1
	.long	"?dtor$5@?0?_ZN4core3ptr105drop_in_place$LT$$u5b$$LP$proc_macro2..Delimiter$C$proc_macro2..fallback..TokenStreamBuilder$RP$$u5d$$GT$17hcaa1532af45751cdE@4HA"@IMGREL
$ip2state$_ZN4core3ptr105drop_in_place$LT$$u5b$$LP$proc_macro2..Delimiter$C$proc_macro2..fallback..TokenStreamBuilder$RP$$u5d$$GT$17hcaa1532af45751cdE:
	.long	.Lfunc_begin33@IMGREL
	.long	-1
	.long	.Ltmp124@IMGREL+1
	.long	0
	.long	.Ltmp125@IMGREL+1
	.long	-1
	.section	.text,"xr",one_only,_ZN4core3ptr105drop_in_place$LT$$u5b$$LP$proc_macro2..Delimiter$C$proc_macro2..fallback..TokenStreamBuilder$RP$$u5d$$GT$17hcaa1532af45751cdE

	.def	_ZN4core3ptr118drop_in_place$LT$alloc..vec..Vec$LT$$LP$proc_macro2..Delimiter$C$proc_macro2..fallback..TokenStreamBuilder$RP$$GT$$GT$17h9cb1533a636f64b4E;
	.scl	2;
	.type	32;
	.endef
	.section	.text,"xr",one_only,_ZN4core3ptr118drop_in_place$LT$alloc..vec..Vec$LT$$LP$proc_macro2..Delimiter$C$proc_macro2..fallback..TokenStreamBuilder$RP$$GT$$GT$17h9cb1533a636f64b4E
	.globl	_ZN4core3ptr118drop_in_place$LT$alloc..vec..Vec$LT$$LP$proc_macro2..Delimiter$C$proc_macro2..fallback..TokenStreamBuilder$RP$$GT$$GT$17h9cb1533a636f64b4E
	.p2align	4, 0x90
_ZN4core3ptr118drop_in_place$LT$alloc..vec..Vec$LT$$LP$proc_macro2..Delimiter$C$proc_macro2..fallback..TokenStreamBuilder$RP$$GT$$GT$17h9cb1533a636f64b4E:
.Lfunc_begin34:
.seh_proc _ZN4core3ptr118drop_in_place$LT$alloc..vec..Vec$LT$$LP$proc_macro2..Delimiter$C$proc_macro2..fallback..TokenStreamBuilder$RP$$GT$$GT$17h9cb1533a636f64b4E
	.seh_handler __CxxFrameHandler3, @unwind, @except
	pushq	%rbp
	.seh_pushreg %rbp
	subq	$48, %rsp
	.seh_stackalloc 48
	leaq	48(%rsp), %rbp
	.seh_setframe %rbp, 48
	.seh_endprologue
	movq	$-2, -8(%rbp)
	movq	%rcx, -16(%rbp)
.Ltmp126:
	callq	_ZN70_$LT$alloc..vec..Vec$LT$T$C$A$GT$$u20$as$u20$core..ops..drop..Drop$GT$4drop17ha5aebf3c853c055fE
.Ltmp127:
	jmp	.LBB118_2
.LBB118_2:
	movq	-16(%rbp), %rcx
	callq	_ZN4core3ptr125drop_in_place$LT$alloc..raw_vec..RawVec$LT$$LP$proc_macro2..Delimiter$C$proc_macro2..fallback..TokenStreamBuilder$RP$$GT$$GT$17h64f2188ddec8b585E
	nop
	addq	$48, %rsp
	popq	%rbp
	retq
	.seh_handlerdata
	.long	($cppxdata$_ZN4core3ptr118drop_in_place$LT$alloc..vec..Vec$LT$$LP$proc_macro2..Delimiter$C$proc_macro2..fallback..TokenStreamBuilder$RP$$GT$$GT$17h9cb1533a636f64b4E)@IMGREL
	.section	.text,"xr",one_only,_ZN4core3ptr118drop_in_place$LT$alloc..vec..Vec$LT$$LP$proc_macro2..Delimiter$C$proc_macro2..fallback..TokenStreamBuilder$RP$$GT$$GT$17h9cb1533a636f64b4E
	.seh_endproc
	.def	"?dtor$1@?0?_ZN4core3ptr118drop_in_place$LT$alloc..vec..Vec$LT$$LP$proc_macro2..Delimiter$C$proc_macro2..fallback..TokenStreamBuilder$RP$$GT$$GT$17h9cb1533a636f64b4E@4HA";
	.scl	3;
	.type	32;
	.endef
	.p2align	4, 0x90
"?dtor$1@?0?_ZN4core3ptr118drop_in_place$LT$alloc..vec..Vec$LT$$LP$proc_macro2..Delimiter$C$proc_macro2..fallback..TokenStreamBuilder$RP$$GT$$GT$17h9cb1533a636f64b4E@4HA":
.seh_proc "?dtor$1@?0?_ZN4core3ptr118drop_in_place$LT$alloc..vec..Vec$LT$$LP$proc_macro2..Delimiter$C$proc_macro2..fallback..TokenStreamBuilder$RP$$GT$$GT$17h9cb1533a636f64b4E@4HA"
.LBB118_1:
	movq	%rdx, 16(%rsp)
	pushq	%rbp
	.seh_pushreg %rbp
	subq	$32, %rsp
	.seh_stackalloc 32
	leaq	48(%rdx), %rbp
	.seh_endprologue
	movq	-16(%rbp), %rcx
	callq	_ZN4core3ptr125drop_in_place$LT$alloc..raw_vec..RawVec$LT$$LP$proc_macro2..Delimiter$C$proc_macro2..fallback..TokenStreamBuilder$RP$$GT$$GT$17h64f2188ddec8b585E
	nop
	addq	$32, %rsp
	popq	%rbp
	retq
.Lfunc_end34:
	.seh_handlerdata
	.section	.text,"xr",one_only,_ZN4core3ptr118drop_in_place$LT$alloc..vec..Vec$LT$$LP$proc_macro2..Delimiter$C$proc_macro2..fallback..TokenStreamBuilder$RP$$GT$$GT$17h9cb1533a636f64b4E
	.seh_endproc
	.section	.xdata,"dr",associative,_ZN4core3ptr118drop_in_place$LT$alloc..vec..Vec$LT$$LP$proc_macro2..Delimiter$C$proc_macro2..fallback..TokenStreamBuilder$RP$$GT$$GT$17h9cb1533a636f64b4E
	.p2align	2, 0x0
$cppxdata$_ZN4core3ptr118drop_in_place$LT$alloc..vec..Vec$LT$$LP$proc_macro2..Delimiter$C$proc_macro2..fallback..TokenStreamBuilder$RP$$GT$$GT$17h9cb1533a636f64b4E:
	.long	429065506
	.long	1
	.long	($stateUnwindMap$_ZN4core3ptr118drop_in_place$LT$alloc..vec..Vec$LT$$LP$proc_macro2..Delimiter$C$proc_macro2..fallback..TokenStreamBuilder$RP$$GT$$GT$17h9cb1533a636f64b4E)@IMGREL
	.long	0
	.long	0
	.long	3
	.long	($ip2state$_ZN4core3ptr118drop_in_place$LT$alloc..vec..Vec$LT$$LP$proc_macro2..Delimiter$C$proc_macro2..fallback..TokenStreamBuilder$RP$$GT$$GT$17h9cb1533a636f64b4E)@IMGREL
	.long	40
	.long	0
	.long	1
$stateUnwindMap$_ZN4core3ptr118drop_in_place$LT$alloc..vec..Vec$LT$$LP$proc_macro2..Delimiter$C$proc_macro2..fallback..TokenStreamBuilder$RP$$GT$$GT$17h9cb1533a636f64b4E:
	.long	-1
	.long	"?dtor$1@?0?_ZN4core3ptr118drop_in_place$LT$alloc..vec..Vec$LT$$LP$proc_macro2..Delimiter$C$proc_macro2..fallback..TokenStreamBuilder$RP$$GT$$GT$17h9cb1533a636f64b4E@4HA"@IMGREL
$ip2state$_ZN4core3ptr118drop_in_place$LT$alloc..vec..Vec$LT$$LP$proc_macro2..Delimiter$C$proc_macro2..fallback..TokenStreamBuilder$RP$$GT$$GT$17h9cb1533a636f64b4E:
	.long	.Lfunc_begin34@IMGREL
	.long	-1
	.long	.Ltmp126@IMGREL+1
	.long	0
	.long	.Ltmp127@IMGREL+1
	.long	-1
	.section	.text,"xr",one_only,_ZN4core3ptr118drop_in_place$LT$alloc..vec..Vec$LT$$LP$proc_macro2..Delimiter$C$proc_macro2..fallback..TokenStreamBuilder$RP$$GT$$GT$17h9cb1533a636f64b4E

	.def	_ZN4core3ptr124drop_in_place$LT$std..sync..once..Once..call_once$LT$proc_macro2..detection..initialize$GT$..$u7b$$u7b$closure$u7d$$u7d$$GT$17h579cfc39905abd14E;
	.scl	3;
	.type	32;
	.endef
	.section	.text,"xr",one_only,_ZN4core3ptr124drop_in_place$LT$std..sync..once..Once..call_once$LT$proc_macro2..detection..initialize$GT$..$u7b$$u7b$closure$u7d$$u7d$$GT$17h579cfc39905abd14E
	.p2align	4, 0x90
_ZN4core3ptr124drop_in_place$LT$std..sync..once..Once..call_once$LT$proc_macro2..detection..initialize$GT$..$u7b$$u7b$closure$u7d$$u7d$$GT$17h579cfc39905abd14E:
	retq

	.def	_ZN4core3ptr125drop_in_place$LT$alloc..raw_vec..RawVec$LT$$LP$proc_macro2..Delimiter$C$proc_macro2..fallback..TokenStreamBuilder$RP$$GT$$GT$17h64f2188ddec8b585E;
	.scl	2;
	.type	32;
	.endef
	.section	.text,"xr",one_only,_ZN4core3ptr125drop_in_place$LT$alloc..raw_vec..RawVec$LT$$LP$proc_macro2..Delimiter$C$proc_macro2..fallback..TokenStreamBuilder$RP$$GT$$GT$17h64f2188ddec8b585E
	.globl	_ZN4core3ptr125drop_in_place$LT$alloc..raw_vec..RawVec$LT$$LP$proc_macro2..Delimiter$C$proc_macro2..fallback..TokenStreamBuilder$RP$$GT$$GT$17h64f2188ddec8b585E
	.p2align	4, 0x90
_ZN4core3ptr125drop_in_place$LT$alloc..raw_vec..RawVec$LT$$LP$proc_macro2..Delimiter$C$proc_macro2..fallback..TokenStreamBuilder$RP$$GT$$GT$17h64f2188ddec8b585E:
.seh_proc _ZN4core3ptr125drop_in_place$LT$alloc..raw_vec..RawVec$LT$$LP$proc_macro2..Delimiter$C$proc_macro2..fallback..TokenStreamBuilder$RP$$GT$$GT$17h64f2188ddec8b585E
	subq	$40, %rsp
	.seh_stackalloc 40
	.seh_endprologue
	callq	_ZN77_$LT$alloc..raw_vec..RawVec$LT$T$C$A$GT$$u20$as$u20$core..ops..drop..Drop$GT$4drop17heec25307432041fbE
	nop
	addq	$40, %rsp
	retq
	.seh_endproc

	.def	_ZN4core3ptr128drop_in_place$LT$proc_macro..bridge..Group$LT$proc_macro..bridge..client..TokenStream$C$proc_macro..bridge..client..Span$GT$$GT$17h06753e298c3b3119E;
	.scl	2;
	.type	32;
	.endef
	.section	.text,"xr",one_only,_ZN4core3ptr128drop_in_place$LT$proc_macro..bridge..Group$LT$proc_macro..bridge..client..TokenStream$C$proc_macro..bridge..client..Span$GT$$GT$17h06753e298c3b3119E
	.globl	_ZN4core3ptr128drop_in_place$LT$proc_macro..bridge..Group$LT$proc_macro..bridge..client..TokenStream$C$proc_macro..bridge..client..Span$GT$$GT$17h06753e298c3b3119E
	.p2align	4, 0x90
_ZN4core3ptr128drop_in_place$LT$proc_macro..bridge..Group$LT$proc_macro..bridge..client..TokenStream$C$proc_macro..bridge..client..Span$GT$$GT$17h06753e298c3b3119E:
.seh_proc _ZN4core3ptr128drop_in_place$LT$proc_macro..bridge..Group$LT$proc_macro..bridge..client..TokenStream$C$proc_macro..bridge..client..Span$GT$$GT$17h06753e298c3b3119E
	subq	$40, %rsp
	.seh_stackalloc 40
	.seh_endprologue
	addq	$12, %rcx
	callq	_ZN4core3ptr88drop_in_place$LT$core..option..Option$LT$proc_macro..bridge..client..TokenStream$GT$$GT$17h930a561ebfba6964E
	nop
	addq	$40, %rsp
	retq
	.seh_endproc

	.def	_ZN4core3ptr133drop_in_place$LT$core..result..Result$LT$$LP$proc_macro2..parse..Cursor$C$proc_macro2..Ident$RP$$C$proc_macro2..parse..Reject$GT$$GT$17h45004d21a48d79b9E;
	.scl	2;
	.type	32;
	.endef
	.section	.text,"xr",one_only,_ZN4core3ptr133drop_in_place$LT$core..result..Result$LT$$LP$proc_macro2..parse..Cursor$C$proc_macro2..Ident$RP$$C$proc_macro2..parse..Reject$GT$$GT$17h45004d21a48d79b9E
	.globl	_ZN4core3ptr133drop_in_place$LT$core..result..Result$LT$$LP$proc_macro2..parse..Cursor$C$proc_macro2..Ident$RP$$C$proc_macro2..parse..Reject$GT$$GT$17h45004d21a48d79b9E
	.p2align	4, 0x90
_ZN4core3ptr133drop_in_place$LT$core..result..Result$LT$$LP$proc_macro2..parse..Cursor$C$proc_macro2..Ident$RP$$C$proc_macro2..parse..Reject$GT$$GT$17h45004d21a48d79b9E:
.seh_proc _ZN4core3ptr133drop_in_place$LT$core..result..Result$LT$$LP$proc_macro2..parse..Cursor$C$proc_macro2..Ident$RP$$C$proc_macro2..parse..Reject$GT$$GT$17h45004d21a48d79b9E
	subq	$40, %rsp
	.seh_stackalloc 40
	.seh_endprologue
	movq	%rcx, %rdx
	movq	%rdx, 32(%rsp)
	movabsq	$-9223372036854775807, %r8
	xorl	%eax, %eax
	movl	$1, %ecx
	cmpq	%r8, 16(%rdx)
	cmoveq	%rcx, %rax
	cmpq	$0, %rax
	jne	.LBB122_2
	movq	32(%rsp), %rcx
	callq	_ZN4core3ptr76drop_in_place$LT$$LP$proc_macro2..parse..Cursor$C$proc_macro2..Ident$RP$$GT$17h339644d190389df1E
.LBB122_2:
	nop
	addq	$40, %rsp
	retq
	.seh_endproc

	.def	_ZN4core3ptr143drop_in_place$LT$$LT$T$u20$as$u20$alloc..slice..hack..ConvertVec$GT$..to_vec..DropGuard$LT$proc_macro..TokenTree$C$alloc..alloc..Global$GT$$GT$17h7e72492c478b4e8bE;
	.scl	2;
	.type	32;
	.endef
	.section	.text,"xr",one_only,_ZN4core3ptr143drop_in_place$LT$$LT$T$u20$as$u20$alloc..slice..hack..ConvertVec$GT$..to_vec..DropGuard$LT$proc_macro..TokenTree$C$alloc..alloc..Global$GT$$GT$17h7e72492c478b4e8bE
	.globl	_ZN4core3ptr143drop_in_place$LT$$LT$T$u20$as$u20$alloc..slice..hack..ConvertVec$GT$..to_vec..DropGuard$LT$proc_macro..TokenTree$C$alloc..alloc..Global$GT$$GT$17h7e72492c478b4e8bE
	.p2align	4, 0x90
_ZN4core3ptr143drop_in_place$LT$$LT$T$u20$as$u20$alloc..slice..hack..ConvertVec$GT$..to_vec..DropGuard$LT$proc_macro..TokenTree$C$alloc..alloc..Global$GT$$GT$17h7e72492c478b4e8bE:
.seh_proc _ZN4core3ptr143drop_in_place$LT$$LT$T$u20$as$u20$alloc..slice..hack..ConvertVec$GT$..to_vec..DropGuard$LT$proc_macro..TokenTree$C$alloc..alloc..Global$GT$$GT$17h7e72492c478b4e8bE
	subq	$40, %rsp
	.seh_stackalloc 40
	.seh_endprologue
	callq	_ZN125_$LT$$LT$T$u20$as$u20$alloc..slice..hack..ConvertVec$GT$..to_vec..DropGuard$LT$T$C$A$GT$$u20$as$u20$core..ops..drop..Drop$GT$4drop17h483f9bbd784c3b4cE
	nop
	addq	$40, %rsp
	retq
	.seh_endproc

	.def	_ZN4core3ptr144drop_in_place$LT$$LT$T$u20$as$u20$alloc..slice..hack..ConvertVec$GT$..to_vec..DropGuard$LT$proc_macro2..TokenTree$C$alloc..alloc..Global$GT$$GT$17h92d6bed464972b33E;
	.scl	2;
	.type	32;
	.endef
	.section	.text,"xr",one_only,_ZN4core3ptr144drop_in_place$LT$$LT$T$u20$as$u20$alloc..slice..hack..ConvertVec$GT$..to_vec..DropGuard$LT$proc_macro2..TokenTree$C$alloc..alloc..Global$GT$$GT$17h92d6bed464972b33E
	.globl	_ZN4core3ptr144drop_in_place$LT$$LT$T$u20$as$u20$alloc..slice..hack..ConvertVec$GT$..to_vec..DropGuard$LT$proc_macro2..TokenTree$C$alloc..alloc..Global$GT$$GT$17h92d6bed464972b33E
	.p2align	4, 0x90
_ZN4core3ptr144drop_in_place$LT$$LT$T$u20$as$u20$alloc..slice..hack..ConvertVec$GT$..to_vec..DropGuard$LT$proc_macro2..TokenTree$C$alloc..alloc..Global$GT$$GT$17h92d6bed464972b33E:
.seh_proc _ZN4core3ptr144drop_in_place$LT$$LT$T$u20$as$u20$alloc..slice..hack..ConvertVec$GT$..to_vec..DropGuard$LT$proc_macro2..TokenTree$C$alloc..alloc..Global$GT$$GT$17h92d6bed464972b33E
	subq	$40, %rsp
	.seh_stackalloc 40
	.seh_endprologue
	callq	_ZN125_$LT$$LT$T$u20$as$u20$alloc..slice..hack..ConvertVec$GT$..to_vec..DropGuard$LT$T$C$A$GT$$u20$as$u20$core..ops..drop..Drop$GT$4drop17h30cb73eba59d34bfE
	nop
	addq	$40, %rsp
	retq
	.seh_endproc

	.def	_ZN4core3ptr168drop_in_place$LT$$LT$alloc..vec..drain..Drain$LT$T$C$A$GT$$u20$as$u20$core..ops..drop..Drop$GT$..drop..DropGuard$LT$proc_macro..TokenTree$C$alloc..alloc..Global$GT$$GT$17h60b103d0ad5f0828E;
	.scl	2;
	.type	32;
	.endef
	.section	.text,"xr",one_only,_ZN4core3ptr168drop_in_place$LT$$LT$alloc..vec..drain..Drain$LT$T$C$A$GT$$u20$as$u20$core..ops..drop..Drop$GT$..drop..DropGuard$LT$proc_macro..TokenTree$C$alloc..alloc..Global$GT$$GT$17h60b103d0ad5f0828E
	.globl	_ZN4core3ptr168drop_in_place$LT$$LT$alloc..vec..drain..Drain$LT$T$C$A$GT$$u20$as$u20$core..ops..drop..Drop$GT$..drop..DropGuard$LT$proc_macro..TokenTree$C$alloc..alloc..Global$GT$$GT$17h60b103d0ad5f0828E
	.p2align	4, 0x90
_ZN4core3ptr168drop_in_place$LT$$LT$alloc..vec..drain..Drain$LT$T$C$A$GT$$u20$as$u20$core..ops..drop..Drop$GT$..drop..DropGuard$LT$proc_macro..TokenTree$C$alloc..alloc..Global$GT$$GT$17h60b103d0ad5f0828E:
.seh_proc _ZN4core3ptr168drop_in_place$LT$$LT$alloc..vec..drain..Drain$LT$T$C$A$GT$$u20$as$u20$core..ops..drop..Drop$GT$..drop..DropGuard$LT$proc_macro..TokenTree$C$alloc..alloc..Global$GT$$GT$17h60b103d0ad5f0828E
	subq	$40, %rsp
	.seh_stackalloc 40
	.seh_endprologue
	callq	_ZN150_$LT$$LT$alloc..vec..drain..Drain$LT$T$C$A$GT$$u20$as$u20$core..ops..drop..Drop$GT$..drop..DropGuard$LT$T$C$A$GT$$u20$as$u20$core..ops..drop..Drop$GT$4drop17h7c4bed07181625e0E
	nop
	addq	$40, %rsp
	retq
	.seh_endproc

	.def	_ZN4core3ptr169drop_in_place$LT$proc_macro..bridge..TokenTree$LT$proc_macro..bridge..client..TokenStream$C$proc_macro..bridge..client..Span$C$proc_macro..bridge..symbol..Symbol$GT$$GT$17ha11fd00e153aaa57E;
	.scl	2;
	.type	32;
	.endef
	.section	.text,"xr",one_only,_ZN4core3ptr169drop_in_place$LT$proc_macro..bridge..TokenTree$LT$proc_macro..bridge..client..TokenStream$C$proc_macro..bridge..client..Span$C$proc_macro..bridge..symbol..Symbol$GT$$GT$17ha11fd00e153aaa57E
	.globl	_ZN4core3ptr169drop_in_place$LT$proc_macro..bridge..TokenTree$LT$proc_macro..bridge..client..TokenStream$C$proc_macro..bridge..client..Span$C$proc_macro..bridge..symbol..Symbol$GT$$GT$17ha11fd00e153aaa57E
	.p2align	4, 0x90
_ZN4core3ptr169drop_in_place$LT$proc_macro..bridge..TokenTree$LT$proc_macro..bridge..client..TokenStream$C$proc_macro..bridge..client..Span$C$proc_macro..bridge..symbol..Symbol$GT$$GT$17ha11fd00e153aaa57E:
.seh_proc _ZN4core3ptr169drop_in_place$LT$proc_macro..bridge..TokenTree$LT$proc_macro..bridge..client..TokenStream$C$proc_macro..bridge..client..Span$C$proc_macro..bridge..symbol..Symbol$GT$$GT$17ha11fd00e153aaa57E
	subq	$56, %rsp
	.seh_stackalloc 56
	.seh_endprologue
	movq	%rcx, 40(%rsp)
	movb	16(%rcx), %dl
	addb	$-4, %dl
	movzbl	%dl, %eax
	movl	%eax, %ecx
	incq	%rcx
	xorl	%eax, %eax
	subb	$3, %dl
	cmovbq	%rcx, %rax
	movq	%rax, 48(%rsp)
	testq	%rax, %rax
	je	.LBB126_2
	jmp	.LBB126_3
.LBB126_3:
	movq	48(%rsp), %rax
	decq	%rax
	subq	$1, %rax
	ja	.LBB126_1
	jmp	.LBB126_1
.LBB126_1:
	addq	$56, %rsp
	retq
.LBB126_2:
	movq	40(%rsp), %rcx
	callq	_ZN4core3ptr128drop_in_place$LT$proc_macro..bridge..Group$LT$proc_macro..bridge..client..TokenStream$C$proc_macro..bridge..client..Span$GT$$GT$17h06753e298c3b3119E
	jmp	.LBB126_1
	.seh_endproc

	.def	_ZN4core3ptr176drop_in_place$LT$$LT$alloc..vec..into_iter..IntoIter$LT$T$C$A$GT$$u20$as$u20$core..ops..drop..Drop$GT$..drop..DropGuard$LT$proc_macro2..TokenTree$C$alloc..alloc..Global$GT$$GT$17h6b6c1eb60d0b63b8E;
	.scl	2;
	.type	32;
	.endef
	.section	.text,"xr",one_only,_ZN4core3ptr176drop_in_place$LT$$LT$alloc..vec..into_iter..IntoIter$LT$T$C$A$GT$$u20$as$u20$core..ops..drop..Drop$GT$..drop..DropGuard$LT$proc_macro2..TokenTree$C$alloc..alloc..Global$GT$$GT$17h6b6c1eb60d0b63b8E
	.globl	_ZN4core3ptr176drop_in_place$LT$$LT$alloc..vec..into_iter..IntoIter$LT$T$C$A$GT$$u20$as$u20$core..ops..drop..Drop$GT$..drop..DropGuard$LT$proc_macro2..TokenTree$C$alloc..alloc..Global$GT$$GT$17h6b6c1eb60d0b63b8E
	.p2align	4, 0x90
_ZN4core3ptr176drop_in_place$LT$$LT$alloc..vec..into_iter..IntoIter$LT$T$C$A$GT$$u20$as$u20$core..ops..drop..Drop$GT$..drop..DropGuard$LT$proc_macro2..TokenTree$C$alloc..alloc..Global$GT$$GT$17h6b6c1eb60d0b63b8E:
.seh_proc _ZN4core3ptr176drop_in_place$LT$$LT$alloc..vec..into_iter..IntoIter$LT$T$C$A$GT$$u20$as$u20$core..ops..drop..Drop$GT$..drop..DropGuard$LT$proc_macro2..TokenTree$C$alloc..alloc..Global$GT$$GT$17h6b6c1eb60d0b63b8E
	subq	$40, %rsp
	.seh_stackalloc 40
	.seh_endprologue
	callq	_ZN157_$LT$$LT$alloc..vec..into_iter..IntoIter$LT$T$C$A$GT$$u20$as$u20$core..ops..drop..Drop$GT$..drop..DropGuard$LT$T$C$A$GT$$u20$as$u20$core..ops..drop..Drop$GT$4drop17h9193e8eb4c0a44d4E
	nop
	addq	$40, %rsp
	retq
	.seh_endproc

	.def	_ZN4core3ptr179drop_in_place$LT$$u5b$proc_macro..bridge..TokenTree$LT$proc_macro..bridge..client..TokenStream$C$proc_macro..bridge..client..Span$C$proc_macro..bridge..symbol..Symbol$GT$$u5d$$GT$17h2283cf4409e2995cE;
	.scl	2;
	.type	32;
	.endef
	.section	.text,"xr",one_only,_ZN4core3ptr179drop_in_place$LT$$u5b$proc_macro..bridge..TokenTree$LT$proc_macro..bridge..client..TokenStream$C$proc_macro..bridge..client..Span$C$proc_macro..bridge..symbol..Symbol$GT$$u5d$$GT$17h2283cf4409e2995cE
	.globl	_ZN4core3ptr179drop_in_place$LT$$u5b$proc_macro..bridge..TokenTree$LT$proc_macro..bridge..client..TokenStream$C$proc_macro..bridge..client..Span$C$proc_macro..bridge..symbol..Symbol$GT$$u5d$$GT$17h2283cf4409e2995cE
	.p2align	4, 0x90
_ZN4core3ptr179drop_in_place$LT$$u5b$proc_macro..bridge..TokenTree$LT$proc_macro..bridge..client..TokenStream$C$proc_macro..bridge..client..Span$C$proc_macro..bridge..symbol..Symbol$GT$$u5d$$GT$17h2283cf4409e2995cE:
.Lfunc_begin35:
.seh_proc _ZN4core3ptr179drop_in_place$LT$$u5b$proc_macro..bridge..TokenTree$LT$proc_macro..bridge..client..TokenStream$C$proc_macro..bridge..client..Span$C$proc_macro..bridge..symbol..Symbol$GT$$u5d$$GT$17h2283cf4409e2995cE
	.seh_handler __CxxFrameHandler3, @unwind, @except
	pushq	%rbp
	.seh_pushreg %rbp
	subq	$64, %rsp
	.seh_stackalloc 64
	leaq	64(%rsp), %rbp
	.seh_setframe %rbp, 64
	.seh_endprologue
	movq	$-2, -8(%rbp)
	movq	%rdx, -32(%rbp)
	movq	%rcx, -24(%rbp)
	movq	$0, -16(%rbp)
.LBB128_1:
	movq	-32(%rbp), %rax
	cmpq	%rax, -16(%rbp)
	je	.LBB128_3
	movq	-24(%rbp), %rcx
	movq	-16(%rbp), %rax
	leaq	(%rax,%rax,4), %rdx
	leaq	(%rcx,%rdx,4), %rcx
	incq	%rax
	movq	%rax, -16(%rbp)
.Ltmp128:
	callq	_ZN4core3ptr169drop_in_place$LT$proc_macro..bridge..TokenTree$LT$proc_macro..bridge..client..TokenStream$C$proc_macro..bridge..client..Span$C$proc_macro..bridge..symbol..Symbol$GT$$GT$17ha11fd00e153aaa57E
.Ltmp129:
	jmp	.LBB128_1
.LBB128_3:
	addq	$64, %rsp
	popq	%rbp
	retq
.LBB128_4:
	movq	-32(%rbp), %rax
	cmpq	%rax, -16(%rbp)
	je	.LBB128_7
	jmp	.LBB128_6
	.seh_handlerdata
	.long	($cppxdata$_ZN4core3ptr179drop_in_place$LT$$u5b$proc_macro..bridge..TokenTree$LT$proc_macro..bridge..client..TokenStream$C$proc_macro..bridge..client..Span$C$proc_macro..bridge..symbol..Symbol$GT$$u5d$$GT$17h2283cf4409e2995cE)@IMGREL
	.section	.text,"xr",one_only,_ZN4core3ptr179drop_in_place$LT$$u5b$proc_macro..bridge..TokenTree$LT$proc_macro..bridge..client..TokenStream$C$proc_macro..bridge..client..Span$C$proc_macro..bridge..symbol..Symbol$GT$$u5d$$GT$17h2283cf4409e2995cE
	.seh_endproc
	.def	"?dtor$5@?0?_ZN4core3ptr179drop_in_place$LT$$u5b$proc_macro..bridge..TokenTree$LT$proc_macro..bridge..client..TokenStream$C$proc_macro..bridge..client..Span$C$proc_macro..bridge..symbol..Symbol$GT$$u5d$$GT$17h2283cf4409e2995cE@4HA";
	.scl	3;
	.type	32;
	.endef
	.p2align	4, 0x90
"?dtor$5@?0?_ZN4core3ptr179drop_in_place$LT$$u5b$proc_macro..bridge..TokenTree$LT$proc_macro..bridge..client..TokenStream$C$proc_macro..bridge..client..Span$C$proc_macro..bridge..symbol..Symbol$GT$$u5d$$GT$17h2283cf4409e2995cE@4HA":
.seh_proc "?dtor$5@?0?_ZN4core3ptr179drop_in_place$LT$$u5b$proc_macro..bridge..TokenTree$LT$proc_macro..bridge..client..TokenStream$C$proc_macro..bridge..client..Span$C$proc_macro..bridge..symbol..Symbol$GT$$u5d$$GT$17h2283cf4409e2995cE@4HA"
.LBB128_5:
	movq	%rdx, 16(%rsp)
	pushq	%rbp
	.seh_pushreg %rbp
	subq	$32, %rsp
	.seh_stackalloc 32
	leaq	64(%rdx), %rbp
	.seh_endprologue
	jmp	.LBB128_4
.LBB128_6:
	movq	-24(%rbp), %rcx
	imulq	$20, -16(%rbp), %rax
	addq	%rax, %rcx
	movq	-16(%rbp), %rax
	addq	$1, %rax
	movq	%rax, -16(%rbp)
	callq	_ZN4core3ptr169drop_in_place$LT$proc_macro..bridge..TokenTree$LT$proc_macro..bridge..client..TokenStream$C$proc_macro..bridge..client..Span$C$proc_macro..bridge..symbol..Symbol$GT$$GT$17ha11fd00e153aaa57E
	jmp	.LBB128_4
.LBB128_7:
	addq	$32, %rsp
	popq	%rbp
	retq
.Lfunc_end35:
	.seh_handlerdata
	.section	.text,"xr",one_only,_ZN4core3ptr179drop_in_place$LT$$u5b$proc_macro..bridge..TokenTree$LT$proc_macro..bridge..client..TokenStream$C$proc_macro..bridge..client..Span$C$proc_macro..bridge..symbol..Symbol$GT$$u5d$$GT$17h2283cf4409e2995cE
	.seh_endproc
	.section	.xdata,"dr",associative,_ZN4core3ptr179drop_in_place$LT$$u5b$proc_macro..bridge..TokenTree$LT$proc_macro..bridge..client..TokenStream$C$proc_macro..bridge..client..Span$C$proc_macro..bridge..symbol..Symbol$GT$$u5d$$GT$17h2283cf4409e2995cE
	.p2align	2, 0x0
$cppxdata$_ZN4core3ptr179drop_in_place$LT$$u5b$proc_macro..bridge..TokenTree$LT$proc_macro..bridge..client..TokenStream$C$proc_macro..bridge..client..Span$C$proc_macro..bridge..symbol..Symbol$GT$$u5d$$GT$17h2283cf4409e2995cE:
	.long	429065506
	.long	1
	.long	($stateUnwindMap$_ZN4core3ptr179drop_in_place$LT$$u5b$proc_macro..bridge..TokenTree$LT$proc_macro..bridge..client..TokenStream$C$proc_macro..bridge..client..Span$C$proc_macro..bridge..symbol..Symbol$GT$$u5d$$GT$17h2283cf4409e2995cE)@IMGREL
	.long	0
	.long	0
	.long	3
	.long	($ip2state$_ZN4core3ptr179drop_in_place$LT$$u5b$proc_macro..bridge..TokenTree$LT$proc_macro..bridge..client..TokenStream$C$proc_macro..bridge..client..Span$C$proc_macro..bridge..symbol..Symbol$GT$$u5d$$GT$17h2283cf4409e2995cE)@IMGREL
	.long	56
	.long	0
	.long	1
$stateUnwindMap$_ZN4core3ptr179drop_in_place$LT$$u5b$proc_macro..bridge..TokenTree$LT$proc_macro..bridge..client..TokenStream$C$proc_macro..bridge..client..Span$C$proc_macro..bridge..symbol..Symbol$GT$$u5d$$GT$17h2283cf4409e2995cE:
	.long	-1
	.long	"?dtor$5@?0?_ZN4core3ptr179drop_in_place$LT$$u5b$proc_macro..bridge..TokenTree$LT$proc_macro..bridge..client..TokenStream$C$proc_macro..bridge..client..Span$C$proc_macro..bridge..symbol..Symbol$GT$$u5d$$GT$17h2283cf4409e2995cE@4HA"@IMGREL
$ip2state$_ZN4core3ptr179drop_in_place$LT$$u5b$proc_macro..bridge..TokenTree$LT$proc_macro..bridge..client..TokenStream$C$proc_macro..bridge..client..Span$C$proc_macro..bridge..symbol..Symbol$GT$$u5d$$GT$17h2283cf4409e2995cE:
	.long	.Lfunc_begin35@IMGREL
	.long	-1
	.long	.Ltmp128@IMGREL+1
	.long	0
	.long	.Ltmp129@IMGREL+1
	.long	-1
	.section	.text,"xr",one_only,_ZN4core3ptr179drop_in_place$LT$$u5b$proc_macro..bridge..TokenTree$LT$proc_macro..bridge..client..TokenStream$C$proc_macro..bridge..client..Span$C$proc_macro..bridge..symbol..Symbol$GT$$u5d$$GT$17h2283cf4409e2995cE

	.def	_ZN4core3ptr192drop_in_place$LT$alloc..vec..Vec$LT$proc_macro..bridge..TokenTree$LT$proc_macro..bridge..client..TokenStream$C$proc_macro..bridge..client..Span$C$proc_macro..bridge..symbol..Symbol$GT$$GT$$GT$17he8cb4bf0a6d2726dE;
	.scl	2;
	.type	32;
	.endef
	.section	.text,"xr",one_only,_ZN4core3ptr192drop_in_place$LT$alloc..vec..Vec$LT$proc_macro..bridge..TokenTree$LT$proc_macro..bridge..client..TokenStream$C$proc_macro..bridge..client..Span$C$proc_macro..bridge..symbol..Symbol$GT$$GT$$GT$17he8cb4bf0a6d2726dE
	.globl	_ZN4core3ptr192drop_in_place$LT$alloc..vec..Vec$LT$proc_macro..bridge..TokenTree$LT$proc_macro..bridge..client..TokenStream$C$proc_macro..bridge..client..Span$C$proc_macro..bridge..symbol..Symbol$GT$$GT$$GT$17he8cb4bf0a6d2726dE
	.p2align	4, 0x90
_ZN4core3ptr192drop_in_place$LT$alloc..vec..Vec$LT$proc_macro..bridge..TokenTree$LT$proc_macro..bridge..client..TokenStream$C$proc_macro..bridge..client..Span$C$proc_macro..bridge..symbol..Symbol$GT$$GT$$GT$17he8cb4bf0a6d2726dE:
.Lfunc_begin36:
.seh_proc _ZN4core3ptr192drop_in_place$LT$alloc..vec..Vec$LT$proc_macro..bridge..TokenTree$LT$proc_macro..bridge..client..TokenStream$C$proc_macro..bridge..client..Span$C$proc_macro..bridge..symbol..Symbol$GT$$GT$$GT$17he8cb4bf0a6d2726dE
	.seh_handler __CxxFrameHandler3, @unwind, @except
	pushq	%rbp
	.seh_pushreg %rbp
	subq	$48, %rsp
	.seh_stackalloc 48
	leaq	48(%rsp), %rbp
	.seh_setframe %rbp, 48
	.seh_endprologue
	movq	$-2, -8(%rbp)
	movq	%rcx, -16(%rbp)
.Ltmp130:
	callq	_ZN70_$LT$alloc..vec..Vec$LT$T$C$A$GT$$u20$as$u20$core..ops..drop..Drop$GT$4drop17h64fd26e9381cf886E
.Ltmp131:
	jmp	.LBB129_2
.LBB129_2:
	movq	-16(%rbp), %rcx
	callq	_ZN4core3ptr199drop_in_place$LT$alloc..raw_vec..RawVec$LT$proc_macro..bridge..TokenTree$LT$proc_macro..bridge..client..TokenStream$C$proc_macro..bridge..client..Span$C$proc_macro..bridge..symbol..Symbol$GT$$GT$$GT$17h0937c59e0bb0c6aeE
	nop
	addq	$48, %rsp
	popq	%rbp
	retq
	.seh_handlerdata
	.long	($cppxdata$_ZN4core3ptr192drop_in_place$LT$alloc..vec..Vec$LT$proc_macro..bridge..TokenTree$LT$proc_macro..bridge..client..TokenStream$C$proc_macro..bridge..client..Span$C$proc_macro..bridge..symbol..Symbol$GT$$GT$$GT$17he8cb4bf0a6d2726dE)@IMGREL
