	.text
	.def	@feat.00;
	.scl	3;
	.type	0;
	.endef
	.globl	@feat.00
.set @feat.00, 0
	.file	"quote.ff207395-cgu.0"
	.def	_ZN100_$LT$alloc..string..String$u20$as$u20$core..ops..index..Index$LT$core..ops..range..RangeFull$GT$$GT$5index17h3793d182de67998aE;
	.scl	3;
	.type	32;
	.endef
	.section	.text,"xr",one_only,_ZN100_$LT$alloc..string..String$u20$as$u20$core..ops..index..Index$LT$core..ops..range..RangeFull$GT$$GT$5index17h3793d182de67998aE
	.p2align	4, 0x90
_ZN100_$LT$alloc..string..String$u20$as$u20$core..ops..index..Index$LT$core..ops..range..RangeFull$GT$$GT$5index17h3793d182de67998aE:
.Lfunc_begin0:
	.cv_func_id 0
	.cv_file	1 "/rustc/fe5b13d681f25ee6474be29d748c65adcd91f69e\\library\\alloc\\src\\string.rs" "BC8EEEDBA1437A61D18F34DE43207DA85C97F80A" 2
	.cv_loc	0 1 2257 0
.seh_proc _ZN100_$LT$alloc..string..String$u20$as$u20$core..ops..index..Index$LT$core..ops..range..RangeFull$GT$$GT$5index17h3793d182de67998aE
	subq	$88, %rsp
	.seh_stackalloc 88
	.seh_endprologue
	movq	%rcx, 72(%rsp)
.Ltmp0:
	.cv_loc	0 1 2258 0
	callq	_ZN72_$LT$alloc..vec..Vec$LT$T$C$A$GT$$u20$as$u20$core..ops..deref..Deref$GT$5deref17h70ded798f6181d59E
	movq	%rax, 56(%rsp)
	movq	%rdx, 64(%rsp)
	movq	64(%rsp), %rdx
	movq	56(%rsp), %rcx
	callq	_ZN4core3str8converts19from_utf8_unchecked17h85cb40103b33bc22E
	movq	%rax, 40(%rsp)
	movq	%rdx, 48(%rsp)
	.cv_loc	0 1 2259 0
	movq	48(%rsp), %rdx
	movq	40(%rsp), %rax
	addq	$88, %rsp
	retq
.Ltmp1:
.Lfunc_end0:
	.seh_endproc

	.def	_ZN100_$LT$core..iter..adapters..fuse..Fuse$LT$I$GT$$u20$as$u20$core..iter..traits..iterator..Iterator$GT$4next17hd2d39c219fffe2f8E;
	.scl	2;
	.type	32;
	.endef
	.section	.text,"xr",one_only,_ZN100_$LT$core..iter..adapters..fuse..Fuse$LT$I$GT$$u20$as$u20$core..iter..traits..iterator..Iterator$GT$4next17hd2d39c219fffe2f8E
	.globl	_ZN100_$LT$core..iter..adapters..fuse..Fuse$LT$I$GT$$u20$as$u20$core..iter..traits..iterator..Iterator$GT$4next17hd2d39c219fffe2f8E
	.p2align	4, 0x90
_ZN100_$LT$core..iter..adapters..fuse..Fuse$LT$I$GT$$u20$as$u20$core..iter..traits..iterator..Iterator$GT$4next17hd2d39c219fffe2f8E:
.Lfunc_begin1:
	.cv_func_id 1
	.cv_file	2 "/rustc/fe5b13d681f25ee6474be29d748c65adcd91f69e\\library\\core\\src\\iter\\adapters\\fuse.rs" "E82A84C3CA5778112C37ABD679E40AFB9C967ACE" 2
	.cv_loc	1 2 69 0
.seh_proc _ZN100_$LT$core..iter..adapters..fuse..Fuse$LT$I$GT$$u20$as$u20$core..iter..traits..iterator..Iterator$GT$4next17hd2d39c219fffe2f8E
	subq	$56, %rsp
	.seh_stackalloc 56
	.seh_endprologue
	movq	%rcx, 48(%rsp)
.Ltmp2:
	.cv_loc	1 2 70 0
	callq	_ZN107_$LT$core..iter..adapters..fuse..Fuse$LT$I$GT$$u20$as$u20$core..iter..adapters..fuse..FuseImpl$LT$I$GT$$GT$4next17h5cee0529bfda5aefE
	movq	%rax, 40(%rsp)
	.cv_loc	1 2 71 0
	movq	40(%rsp), %rax
	addq	$56, %rsp
	retq
.Ltmp3:
.Lfunc_end1:
	.seh_endproc

	.def	_ZN100_$LT$core..iter..adapters..fuse..Fuse$LT$I$GT$$u20$as$u20$core..iter..traits..iterator..Iterator$GT$9size_hint17hf812c436b1aae0bbE;
	.scl	2;
	.type	32;
	.endef
	.section	.text,"xr",one_only,_ZN100_$LT$core..iter..adapters..fuse..Fuse$LT$I$GT$$u20$as$u20$core..iter..traits..iterator..Iterator$GT$9size_hint17hf812c436b1aae0bbE
	.globl	_ZN100_$LT$core..iter..adapters..fuse..Fuse$LT$I$GT$$u20$as$u20$core..iter..traits..iterator..Iterator$GT$9size_hint17hf812c436b1aae0bbE
	.p2align	4, 0x90
_ZN100_$LT$core..iter..adapters..fuse..Fuse$LT$I$GT$$u20$as$u20$core..iter..traits..iterator..Iterator$GT$9size_hint17hf812c436b1aae0bbE:
.Lfunc_begin2:
	.cv_func_id 2
	.cv_loc	2 2 95 0
.seh_proc _ZN100_$LT$core..iter..adapters..fuse..Fuse$LT$I$GT$$u20$as$u20$core..iter..traits..iterator..Iterator$GT$9size_hint17hf812c436b1aae0bbE
	subq	$88, %rsp
	.seh_stackalloc 88
	.seh_endprologue
	movq	%rdx, 32(%rsp)
	movq	%rcx, 40(%rsp)
	movq	%rcx, 48(%rsp)
	movq	%rdx, 72(%rsp)
.Ltmp4:
	.cv_loc	2 2 96 0
	movq	(%rdx), %rax
	addq	$-3, %rax
	setne	%al
	movzbl	%al, %eax
	je	.LBB2_2
	jmp	.LBB2_6
.LBB2_6:
	jmp	.LBB2_3
	ud2
.LBB2_2:
	.cv_loc	2 2 98 0
	movq	40(%rsp), %rax
	movq	$0, 64(%rsp)
	movq	$1, 56(%rsp)
	movq	$0, (%rax)
	movq	56(%rsp), %rdx
	movq	64(%rsp), %rcx
	movq	%rdx, 8(%rax)
	movq	%rcx, 16(%rax)
	jmp	.LBB2_5
.LBB2_3:
	.cv_loc	2 2 97 0
	movq	40(%rsp), %rcx
	movq	32(%rsp), %rdx
	movq	%rdx, 80(%rsp)
.Ltmp5:
	.cv_loc	2 2 97 0
	callq	_ZN102_$LT$core..iter..adapters..map..Map$LT$I$C$F$GT$$u20$as$u20$core..iter..traits..iterator..Iterator$GT$9size_hint17hd80320cfc2bc6a75E
.Ltmp6:
	.cv_loc	2 2 97 0
	jmp	.LBB2_5
.LBB2_5:
	.cv_loc	2 2 100 0
	movq	48(%rsp), %rax
	addq	$88, %rsp
	retq
.Ltmp7:
.Lfunc_end2:
	.seh_endproc

	.def	_ZN102_$LT$core..iter..adapters..map..Map$LT$I$C$F$GT$$u20$as$u20$core..iter..traits..iterator..Iterator$GT$4fold17h30ccdb47a363e9f3E;
	.scl	2;
	.type	32;
	.endef
	.section	.text,"xr",one_only,_ZN102_$LT$core..iter..adapters..map..Map$LT$I$C$F$GT$$u20$as$u20$core..iter..traits..iterator..Iterator$GT$4fold17h30ccdb47a363e9f3E
	.globl	_ZN102_$LT$core..iter..adapters..map..Map$LT$I$C$F$GT$$u20$as$u20$core..iter..traits..iterator..Iterator$GT$4fold17h30ccdb47a363e9f3E
	.p2align	4, 0x90
_ZN102_$LT$core..iter..adapters..map..Map$LT$I$C$F$GT$$u20$as$u20$core..iter..traits..iterator..Iterator$GT$4fold17h30ccdb47a363e9f3E:
.Lfunc_begin3:
	.cv_func_id 3
	.cv_file	3 "/rustc/fe5b13d681f25ee6474be29d748c65adcd91f69e\\library\\core\\src\\iter\\adapters\\map.rs" "BC31A4F7DD3939F157F47AAF847E8257D273D311" 2
	.cv_loc	3 3 120 0
.seh_proc _ZN102_$LT$core..iter..adapters..map..Map$LT$I$C$F$GT$$u20$as$u20$core..iter..traits..iterator..Iterator$GT$4fold17h30ccdb47a363e9f3E
	.seh_handler __CxxFrameHandler3, @unwind, @except
	pushq	%rbp
	.seh_pushreg %rbp
	subq	$128, %rsp
	.seh_stackalloc 128
	leaq	128(%rsp), %rbp
	.seh_setframe %rbp, 128
	.seh_endprologue
	movq	$-2, -8(%rbp)
	movq	%rdx, -96(%rbp)
	movq	%rcx, %rax
	movq	-96(%rbp), %rcx
.Ltmp12:
	movq	%rcx, -16(%rbp)
.Ltmp13:
	.cv_loc	3 3 124 0
	movb	$0, -17(%rbp)
	movb	$0, -18(%rbp)
	movb	$1, -17(%rbp)
	vmovups	(%rax), %ymm0
	vmovups	16(%rax), %ymm1
	vmovups	%ymm1, -64(%rbp)
	vmovups	%ymm0, -80(%rbp)
	movb	$1, -18(%rbp)
.Ltmp8:
	vzeroupper
	callq	_ZN4core4iter8adapters3map8map_fold17h17d168861f86e483E
.Ltmp14:
.Ltmp9:
	movq	%rax, -88(%rbp)
	jmp	.LBB3_2
.LBB3_2:
	movq	-88(%rbp), %rdx
	movb	$0, -17(%rbp)
	movb	$0, -18(%rbp)
.Ltmp10:
	leaq	-80(%rbp), %rcx
	callq	_ZN102_$LT$core..iter..adapters..map..Map$LT$I$C$F$GT$$u20$as$u20$core..iter..traits..iterator..Iterator$GT$4fold17h74e2aa3098757ce1E
.Ltmp11:
	jmp	.LBB3_3
.LBB3_3:
	movb	$0, -18(%rbp)
	movb	$0, -17(%rbp)
	.cv_loc	3 3 125 0
	addq	$128, %rsp
	popq	%rbp
	retq
	.seh_handlerdata
	.long	($cppxdata$_ZN102_$LT$core..iter..adapters..map..Map$LT$I$C$F$GT$$u20$as$u20$core..iter..traits..iterator..Iterator$GT$4fold17h30ccdb47a363e9f3E)@IMGREL
	.section	.text,"xr",one_only,_ZN102_$LT$core..iter..adapters..map..Map$LT$I$C$F$GT$$u20$as$u20$core..iter..traits..iterator..Iterator$GT$4fold17h30ccdb47a363e9f3E
	.seh_endproc
	.def	"?dtor$1@?0?_ZN102_$LT$core..iter..adapters..map..Map$LT$I$C$F$GT$$u20$as$u20$core..iter..traits..iterator..Iterator$GT$4fold17h30ccdb47a363e9f3E@4HA";
	.scl	3;
	.type	32;
	.endef
	.p2align	4, 0x90
"?dtor$1@?0?_ZN102_$LT$core..iter..adapters..map..Map$LT$I$C$F$GT$$u20$as$u20$core..iter..traits..iterator..Iterator$GT$4fold17h30ccdb47a363e9f3E@4HA":
.seh_proc "?dtor$1@?0?_ZN102_$LT$core..iter..adapters..map..Map$LT$I$C$F$GT$$u20$as$u20$core..iter..traits..iterator..Iterator$GT$4fold17h30ccdb47a363e9f3E@4HA"
.LBB3_1:
	movq	%rdx, 16(%rsp)
	pushq	%rbp
	.seh_pushreg %rbp
	subq	$32, %rsp
	.seh_stackalloc 32
	leaq	128(%rdx), %rbp
	.seh_endprologue
	.cv_loc	3 3 124 0
	testb	$1, -18(%rbp)
	jne	.LBB3_5
	jmp	.LBB3_4
.LBB3_4:
	testb	$1, -17(%rbp)
	jne	.LBB3_7
	jmp	.LBB3_6
.LBB3_5:
	jmp	.LBB3_4
.LBB3_6:
	.cv_loc	3 3 120 0
	addq	$32, %rsp
	popq	%rbp
	retq
.LBB3_7:
	.cv_loc	3 3 124 0
	leaq	-80(%rbp), %rcx
	callq	_ZN4core3ptr239drop_in_place$LT$core..iter..adapters..map..Map$LT$core..iter..adapters..map..Map$LT$proc_macro2..token_stream..IntoIter$C$quote..__private..respan_token_tree..$u7b$$u7b$closure$u7d$$u7d$$GT$$C$proc_macro2..imp..into_compiler_token$GT$$GT$17hcffe9652ad4cf3a2E
	jmp	.LBB3_6
.Ltmp15:
.Lfunc_end3:
	.seh_handlerdata
	.section	.text,"xr",one_only,_ZN102_$LT$core..iter..adapters..map..Map$LT$I$C$F$GT$$u20$as$u20$core..iter..traits..iterator..Iterator$GT$4fold17h30ccdb47a363e9f3E
	.seh_endproc
	.section	.xdata,"dr",associative,_ZN102_$LT$core..iter..adapters..map..Map$LT$I$C$F$GT$$u20$as$u20$core..iter..traits..iterator..Iterator$GT$4fold17h30ccdb47a363e9f3E
	.p2align	2
$cppxdata$_ZN102_$LT$core..iter..adapters..map..Map$LT$I$C$F$GT$$u20$as$u20$core..iter..traits..iterator..Iterator$GT$4fold17h30ccdb47a363e9f3E:
	.long	429065506
	.long	1
	.long	($stateUnwindMap$_ZN102_$LT$core..iter..adapters..map..Map$LT$I$C$F$GT$$u20$as$u20$core..iter..traits..iterator..Iterator$GT$4fold17h30ccdb47a363e9f3E)@IMGREL
	.long	0
	.long	0
	.long	3
	.long	($ip2state$_ZN102_$LT$core..iter..adapters..map..Map$LT$I$C$F$GT$$u20$as$u20$core..iter..traits..iterator..Iterator$GT$4fold17h30ccdb47a363e9f3E)@IMGREL
	.long	120
	.long	0
	.long	1
$stateUnwindMap$_ZN102_$LT$core..iter..adapters..map..Map$LT$I$C$F$GT$$u20$as$u20$core..iter..traits..iterator..Iterator$GT$4fold17h30ccdb47a363e9f3E:
	.long	-1
	.long	"?dtor$1@?0?_ZN102_$LT$core..iter..adapters..map..Map$LT$I$C$F$GT$$u20$as$u20$core..iter..traits..iterator..Iterator$GT$4fold17h30ccdb47a363e9f3E@4HA"@IMGREL
$ip2state$_ZN102_$LT$core..iter..adapters..map..Map$LT$I$C$F$GT$$u20$as$u20$core..iter..traits..iterator..Iterator$GT$4fold17h30ccdb47a363e9f3E:
	.long	.Lfunc_begin3@IMGREL
	.long	-1
	.long	.Ltmp8@IMGREL+1
	.long	0
	.long	.Ltmp11@IMGREL+1
	.long	-1
	.section	.text,"xr",one_only,_ZN102_$LT$core..iter..adapters..map..Map$LT$I$C$F$GT$$u20$as$u20$core..iter..traits..iterator..Iterator$GT$4fold17h30ccdb47a363e9f3E

	.def	_ZN102_$LT$core..iter..adapters..map..Map$LT$I$C$F$GT$$u20$as$u20$core..iter..traits..iterator..Iterator$GT$4fold17h3f5fab4f08591d09E;
	.scl	2;
	.type	32;
	.endef
	.section	.text,"xr",one_only,_ZN102_$LT$core..iter..adapters..map..Map$LT$I$C$F$GT$$u20$as$u20$core..iter..traits..iterator..Iterator$GT$4fold17h3f5fab4f08591d09E
	.globl	_ZN102_$LT$core..iter..adapters..map..Map$LT$I$C$F$GT$$u20$as$u20$core..iter..traits..iterator..Iterator$GT$4fold17h3f5fab4f08591d09E
	.p2align	4, 0x90
_ZN102_$LT$core..iter..adapters..map..Map$LT$I$C$F$GT$$u20$as$u20$core..iter..traits..iterator..Iterator$GT$4fold17h3f5fab4f08591d09E:
.Lfunc_begin4:
	.cv_func_id 4
	.cv_loc	4 3 120 0
.seh_proc _ZN102_$LT$core..iter..adapters..map..Map$LT$I$C$F$GT$$u20$as$u20$core..iter..traits..iterator..Iterator$GT$4fold17h3f5fab4f08591d09E
	.seh_handler __CxxFrameHandler3, @unwind, @except
	pushq	%rbp
	.seh_pushreg %rbp
	subq	$112, %rsp
	.seh_stackalloc 112
	leaq	112(%rsp), %rbp
	.seh_setframe %rbp, 112
	.seh_endprologue
	movq	$-2, -8(%rbp)
	movq	%rdx, -80(%rbp)
	movq	%rcx, %rax
	movq	-80(%rbp), %rcx
.Ltmp20:
	movq	%rcx, -16(%rbp)
.Ltmp21:
	.cv_loc	4 3 124 0
	movb	$0, -17(%rbp)
	movb	$0, -18(%rbp)
	movb	$1, -17(%rbp)
	movq	32(%rax), %rdx
	movq	%rdx, -32(%rbp)
	vmovups	(%rax), %ymm0
	vmovups	%ymm0, -64(%rbp)
	movb	$1, -18(%rbp)
.Ltmp16:
	vzeroupper
	callq	_ZN4core4iter8adapters3map8map_fold17h9b578d9410dd7a39E
.Ltmp22:
.Ltmp17:
	movq	%rax, -72(%rbp)
	jmp	.LBB4_2
.LBB4_2:
	movq	-72(%rbp), %rdx
	movb	$0, -17(%rbp)
	movb	$0, -18(%rbp)
.Ltmp18:
	leaq	-64(%rbp), %rcx
	callq	_ZN102_$LT$core..iter..adapters..map..Map$LT$I$C$F$GT$$u20$as$u20$core..iter..traits..iterator..Iterator$GT$4fold17ha9dad94e9b1b6700E
.Ltmp19:
	jmp	.LBB4_3
.LBB4_3:
	movb	$0, -18(%rbp)
	movb	$0, -17(%rbp)
	.cv_loc	4 3 125 0
	addq	$112, %rsp
	popq	%rbp
	retq
	.seh_handlerdata
	.long	($cppxdata$_ZN102_$LT$core..iter..adapters..map..Map$LT$I$C$F$GT$$u20$as$u20$core..iter..traits..iterator..Iterator$GT$4fold17h3f5fab4f08591d09E)@IMGREL
	.section	.text,"xr",one_only,_ZN102_$LT$core..iter..adapters..map..Map$LT$I$C$F$GT$$u20$as$u20$core..iter..traits..iterator..Iterator$GT$4fold17h3f5fab4f08591d09E
	.seh_endproc
	.def	"?dtor$1@?0?_ZN102_$LT$core..iter..adapters..map..Map$LT$I$C$F$GT$$u20$as$u20$core..iter..traits..iterator..Iterator$GT$4fold17h3f5fab4f08591d09E@4HA";
	.scl	3;
	.type	32;
	.endef
	.p2align	4, 0x90
"?dtor$1@?0?_ZN102_$LT$core..iter..adapters..map..Map$LT$I$C$F$GT$$u20$as$u20$core..iter..traits..iterator..Iterator$GT$4fold17h3f5fab4f08591d09E@4HA":
.seh_proc "?dtor$1@?0?_ZN102_$LT$core..iter..adapters..map..Map$LT$I$C$F$GT$$u20$as$u20$core..iter..traits..iterator..Iterator$GT$4fold17h3f5fab4f08591d09E@4HA"
.LBB4_1:
	movq	%rdx, 16(%rsp)
	pushq	%rbp
	.seh_pushreg %rbp
	subq	$32, %rsp
	.seh_stackalloc 32
	leaq	112(%rdx), %rbp
	.seh_endprologue
	.cv_loc	4 3 124 0
	testb	$1, -18(%rbp)
	jne	.LBB4_5
	jmp	.LBB4_4
.LBB4_4:
	testb	$1, -17(%rbp)
	jne	.LBB4_7
	jmp	.LBB4_6
.LBB4_5:
	jmp	.LBB4_4
.LBB4_6:
	.cv_loc	4 3 120 0
	addq	$32, %rsp
	popq	%rbp
	retq
.LBB4_7:
	.cv_loc	4 3 124 0
	leaq	-64(%rbp), %rcx
	callq	_ZN4core3ptr344drop_in_place$LT$core..iter..adapters..map..Map$LT$core..iter..sources..once..Once$LT$proc_macro2..TokenStream$GT$$C$$LT$proc_macro2..TokenStream$u20$as$u20$core..iter..traits..collect..Extend$LT$proc_macro2..TokenStream$GT$$GT$..extend$LT$core..iter..sources..once..Once$LT$proc_macro2..TokenStream$GT$$GT$..$u7b$$u7b$closure$u7d$$u7d$$GT$$GT$17h79115626d510084aE
	jmp	.LBB4_6
.Ltmp23:
.Lfunc_end4:
	.seh_handlerdata
	.section	.text,"xr",one_only,_ZN102_$LT$core..iter..adapters..map..Map$LT$I$C$F$GT$$u20$as$u20$core..iter..traits..iterator..Iterator$GT$4fold17h3f5fab4f08591d09E
	.seh_endproc
	.section	.xdata,"dr",associative,_ZN102_$LT$core..iter..adapters..map..Map$LT$I$C$F$GT$$u20$as$u20$core..iter..traits..iterator..Iterator$GT$4fold17h3f5fab4f08591d09E
	.p2align	2
$cppxdata$_ZN102_$LT$core..iter..adapters..map..Map$LT$I$C$F$GT$$u20$as$u20$core..iter..traits..iterator..Iterator$GT$4fold17h3f5fab4f08591d09E:
	.long	429065506
	.long	1
	.long	($stateUnwindMap$_ZN102_$LT$core..iter..adapters..map..Map$LT$I$C$F$GT$$u20$as$u20$core..iter..traits..iterator..Iterator$GT$4fold17h3f5fab4f08591d09E)@IMGREL
	.long	0
	.long	0
	.long	3
	.long	($ip2state$_ZN102_$LT$core..iter..adapters..map..Map$LT$I$C$F$GT$$u20$as$u20$core..iter..traits..iterator..Iterator$GT$4fold17h3f5fab4f08591d09E)@IMGREL
	.long	104
	.long	0
	.long	1
$stateUnwindMap$_ZN102_$LT$core..iter..adapters..map..Map$LT$I$C$F$GT$$u20$as$u20$core..iter..traits..iterator..Iterator$GT$4fold17h3f5fab4f08591d09E:
	.long	-1
	.long	"?dtor$1@?0?_ZN102_$LT$core..iter..adapters..map..Map$LT$I$C$F$GT$$u20$as$u20$core..iter..traits..iterator..Iterator$GT$4fold17h3f5fab4f08591d09E@4HA"@IMGREL
$ip2state$_ZN102_$LT$core..iter..adapters..map..Map$LT$I$C$F$GT$$u20$as$u20$core..iter..traits..iterator..Iterator$GT$4fold17h3f5fab4f08591d09E:
	.long	.Lfunc_begin4@IMGREL
	.long	-1
	.long	.Ltmp16@IMGREL+1
	.long	0
	.long	.Ltmp19@IMGREL+1
	.long	-1
	.section	.text,"xr",one_only,_ZN102_$LT$core..iter..adapters..map..Map$LT$I$C$F$GT$$u20$as$u20$core..iter..traits..iterator..Iterator$GT$4fold17h3f5fab4f08591d09E

	.def	_ZN102_$LT$core..iter..adapters..map..Map$LT$I$C$F$GT$$u20$as$u20$core..iter..traits..iterator..Iterator$GT$4fold17h44a8b233a5819c12E;
	.scl	2;
	.type	32;
	.endef
	.section	.text,"xr",one_only,_ZN102_$LT$core..iter..adapters..map..Map$LT$I$C$F$GT$$u20$as$u20$core..iter..traits..iterator..Iterator$GT$4fold17h44a8b233a5819c12E
	.globl	_ZN102_$LT$core..iter..adapters..map..Map$LT$I$C$F$GT$$u20$as$u20$core..iter..traits..iterator..Iterator$GT$4fold17h44a8b233a5819c12E
	.p2align	4, 0x90
_ZN102_$LT$core..iter..adapters..map..Map$LT$I$C$F$GT$$u20$as$u20$core..iter..traits..iterator..Iterator$GT$4fold17h44a8b233a5819c12E:
.Lfunc_begin5:
	.cv_func_id 5
	.cv_loc	5 3 120 0
.seh_proc _ZN102_$LT$core..iter..adapters..map..Map$LT$I$C$F$GT$$u20$as$u20$core..iter..traits..iterator..Iterator$GT$4fold17h44a8b233a5819c12E
	.seh_handler __CxxFrameHandler3, @unwind, @except
	pushq	%rbp
	.seh_pushreg %rbp
	subq	$112, %rsp
	.seh_stackalloc 112
	leaq	112(%rsp), %rbp
	.seh_setframe %rbp, 112
	.seh_endprologue
	movq	$-2, -8(%rbp)
	movq	%rdx, -16(%rbp)
.Ltmp28:
	.cv_loc	5 3 124 0
	movb	$0, -17(%rbp)
	movb	$0, -18(%rbp)
	movb	$1, -17(%rbp)
	movq	32(%rcx), %rax
	movq	%rax, -32(%rbp)
	vmovups	(%rcx), %ymm0
	vmovups	%ymm0, -64(%rbp)
	movb	$1, -18(%rbp)
	movq	40(%rcx), %rcx
.Ltmp29:
.Ltmp24:
	vzeroupper
	callq	_ZN4core4iter8adapters3map8map_fold17h2ddd4401cff26b53E
.Ltmp25:
	movq	%rdx, -80(%rbp)
	movq	%rax, -72(%rbp)
	jmp	.LBB5_2
.Ltmp30:
.LBB5_2:
	movq	-80(%rbp), %r8
	movq	-72(%rbp), %rdx
	movb	$0, -17(%rbp)
	movb	$0, -18(%rbp)
.Ltmp26:
	leaq	-64(%rbp), %rcx
	callq	_ZN4core4iter6traits8iterator8Iterator4fold17h8c37c61e1ca3ea29E
.Ltmp27:
	jmp	.LBB5_3
.Ltmp31:
.LBB5_3:
	movb	$0, -18(%rbp)
	movb	$0, -17(%rbp)
	.cv_loc	5 3 125 0
	addq	$112, %rsp
	popq	%rbp
	retq
.Ltmp32:
	.seh_handlerdata
	.long	($cppxdata$_ZN102_$LT$core..iter..adapters..map..Map$LT$I$C$F$GT$$u20$as$u20$core..iter..traits..iterator..Iterator$GT$4fold17h44a8b233a5819c12E)@IMGREL
	.section	.text,"xr",one_only,_ZN102_$LT$core..iter..adapters..map..Map$LT$I$C$F$GT$$u20$as$u20$core..iter..traits..iterator..Iterator$GT$4fold17h44a8b233a5819c12E
	.seh_endproc
	.def	"?dtor$1@?0?_ZN102_$LT$core..iter..adapters..map..Map$LT$I$C$F$GT$$u20$as$u20$core..iter..traits..iterator..Iterator$GT$4fold17h44a8b233a5819c12E@4HA";
	.scl	3;
	.type	32;
	.endef
	.p2align	4, 0x90
"?dtor$1@?0?_ZN102_$LT$core..iter..adapters..map..Map$LT$I$C$F$GT$$u20$as$u20$core..iter..traits..iterator..Iterator$GT$4fold17h44a8b233a5819c12E@4HA":
.seh_proc "?dtor$1@?0?_ZN102_$LT$core..iter..adapters..map..Map$LT$I$C$F$GT$$u20$as$u20$core..iter..traits..iterator..Iterator$GT$4fold17h44a8b233a5819c12E@4HA"
.LBB5_1:
	movq	%rdx, 16(%rsp)
	pushq	%rbp
	.seh_pushreg %rbp
	subq	$32, %rsp
	.seh_stackalloc 32
	leaq	112(%rdx), %rbp
	.seh_endprologue
	.cv_loc	5 3 124 0
	testb	$1, -18(%rbp)
	jne	.LBB5_5
	jmp	.LBB5_4
.Ltmp33:
.LBB5_4:
	testb	$1, -17(%rbp)
	jne	.LBB5_7
	jmp	.LBB5_6
.Ltmp34:
.LBB5_5:
	jmp	.LBB5_4
.Ltmp35:
.LBB5_6:
	.cv_loc	5 3 120 0
	addq	$32, %rsp
	popq	%rbp
	retq
.Ltmp36:
.LBB5_7:
	.cv_loc	5 3 124 0
	leaq	-64(%rbp), %rcx
	callq	_ZN4core3ptr56drop_in_place$LT$proc_macro2..token_stream..IntoIter$GT$17h75371ac2591ec8c9E
	jmp	.LBB5_6
.Ltmp37:
.Lfunc_end5:
	.seh_handlerdata
	.section	.text,"xr",one_only,_ZN102_$LT$core..iter..adapters..map..Map$LT$I$C$F$GT$$u20$as$u20$core..iter..traits..iterator..Iterator$GT$4fold17h44a8b233a5819c12E
	.seh_endproc
	.section	.xdata,"dr",associative,_ZN102_$LT$core..iter..adapters..map..Map$LT$I$C$F$GT$$u20$as$u20$core..iter..traits..iterator..Iterator$GT$4fold17h44a8b233a5819c12E
	.p2align	2
$cppxdata$_ZN102_$LT$core..iter..adapters..map..Map$LT$I$C$F$GT$$u20$as$u20$core..iter..traits..iterator..Iterator$GT$4fold17h44a8b233a5819c12E:
	.long	429065506
	.long	1
	.long	($stateUnwindMap$_ZN102_$LT$core..iter..adapters..map..Map$LT$I$C$F$GT$$u20$as$u20$core..iter..traits..iterator..Iterator$GT$4fold17h44a8b233a5819c12E)@IMGREL
	.long	0
	.long	0
	.long	3
	.long	($ip2state$_ZN102_$LT$core..iter..adapters..map..Map$LT$I$C$F$GT$$u20$as$u20$core..iter..traits..iterator..Iterator$GT$4fold17h44a8b233a5819c12E)@IMGREL
	.long	104
	.long	0
	.long	1
$stateUnwindMap$_ZN102_$LT$core..iter..adapters..map..Map$LT$I$C$F$GT$$u20$as$u20$core..iter..traits..iterator..Iterator$GT$4fold17h44a8b233a5819c12E:
	.long	-1
	.long	"?dtor$1@?0?_ZN102_$LT$core..iter..adapters..map..Map$LT$I$C$F$GT$$u20$as$u20$core..iter..traits..iterator..Iterator$GT$4fold17h44a8b233a5819c12E@4HA"@IMGREL
$ip2state$_ZN102_$LT$core..iter..adapters..map..Map$LT$I$C$F$GT$$u20$as$u20$core..iter..traits..iterator..Iterator$GT$4fold17h44a8b233a5819c12E:
	.long	.Lfunc_begin5@IMGREL
	.long	-1
	.long	.Ltmp24@IMGREL+1
	.long	0
	.long	.Ltmp27@IMGREL+1
	.long	-1
	.section	.text,"xr",one_only,_ZN102_$LT$core..iter..adapters..map..Map$LT$I$C$F$GT$$u20$as$u20$core..iter..traits..iterator..Iterator$GT$4fold17h44a8b233a5819c12E

	.def	_ZN102_$LT$core..iter..adapters..map..Map$LT$I$C$F$GT$$u20$as$u20$core..iter..traits..iterator..Iterator$GT$4fold17h46588f3d120ef27bE;
	.scl	2;
	.type	32;
	.endef
	.section	.text,"xr",one_only,_ZN102_$LT$core..iter..adapters..map..Map$LT$I$C$F$GT$$u20$as$u20$core..iter..traits..iterator..Iterator$GT$4fold17h46588f3d120ef27bE
	.globl	_ZN102_$LT$core..iter..adapters..map..Map$LT$I$C$F$GT$$u20$as$u20$core..iter..traits..iterator..Iterator$GT$4fold17h46588f3d120ef27bE
	.p2align	4, 0x90
_ZN102_$LT$core..iter..adapters..map..Map$LT$I$C$F$GT$$u20$as$u20$core..iter..traits..iterator..Iterator$GT$4fold17h46588f3d120ef27bE:
.Lfunc_begin6:
	.cv_func_id 6
	.cv_loc	6 3 120 0
.seh_proc _ZN102_$LT$core..iter..adapters..map..Map$LT$I$C$F$GT$$u20$as$u20$core..iter..traits..iterator..Iterator$GT$4fold17h46588f3d120ef27bE
	.seh_handler __CxxFrameHandler3, @unwind, @except
	pushq	%rbp
	.seh_pushreg %rbp
	subq	$144, %rsp
	.seh_stackalloc 144
	leaq	128(%rsp), %rbp
	.seh_setframe %rbp, 128
	.seh_endprologue
	movq	$-2, 8(%rbp)
	movq	%rdx, -80(%rbp)
	movq	-80(%rbp), %rax
	movq	%rax, -88(%rbp)
.Ltmp42:
	.cv_loc	6 3 124 0
	movb	$0, -1(%rbp)
	movb	$0, -2(%rbp)
	movb	$1, -1(%rbp)
	movq	32(%rcx), %rax
	movq	%rax, -32(%rbp)
	vmovups	(%rcx), %ymm0
	vmovups	%ymm0, -64(%rbp)
	movb	$1, -2(%rbp)
	movq	-88(%rbp), %rax
	movq	%rax, -16(%rbp)
.Ltmp38:
	vzeroupper
	callq	_ZN4core4iter8adapters3map8map_fold17h2d8fe7c822d5c632E
.Ltmp43:
.Ltmp39:
	jmp	.LBB6_2
.Ltmp44:
.LBB6_2:
	movb	$0, -1(%rbp)
	movb	$0, -2(%rbp)
	movq	-16(%rbp), %rdx
.Ltmp40:
	leaq	-64(%rbp), %rcx
	callq	_ZN4core4iter6traits8iterator8Iterator4fold17h13e27d07bfda9c4dE
.Ltmp41:
	movq	%rax, -96(%rbp)
	jmp	.LBB6_3
.Ltmp45:
.LBB6_3:
	movq	-96(%rbp), %rax
	movq	%rax, (%rbp)
	movq	(%rbp), %rax
	movq	%rax, -72(%rbp)
	movb	$0, -2(%rbp)
	movb	$0, -1(%rbp)
	.cv_loc	6 3 125 0
	movq	-72(%rbp), %rax
	addq	$144, %rsp
	popq	%rbp
	retq
.Ltmp46:
	.seh_handlerdata
	.long	($cppxdata$_ZN102_$LT$core..iter..adapters..map..Map$LT$I$C$F$GT$$u20$as$u20$core..iter..traits..iterator..Iterator$GT$4fold17h46588f3d120ef27bE)@IMGREL
	.section	.text,"xr",one_only,_ZN102_$LT$core..iter..adapters..map..Map$LT$I$C$F$GT$$u20$as$u20$core..iter..traits..iterator..Iterator$GT$4fold17h46588f3d120ef27bE
	.seh_endproc
	.def	"?dtor$1@?0?_ZN102_$LT$core..iter..adapters..map..Map$LT$I$C$F$GT$$u20$as$u20$core..iter..traits..iterator..Iterator$GT$4fold17h46588f3d120ef27bE@4HA";
	.scl	3;
	.type	32;
	.endef
	.p2align	4, 0x90
"?dtor$1@?0?_ZN102_$LT$core..iter..adapters..map..Map$LT$I$C$F$GT$$u20$as$u20$core..iter..traits..iterator..Iterator$GT$4fold17h46588f3d120ef27bE@4HA":
.seh_proc "?dtor$1@?0?_ZN102_$LT$core..iter..adapters..map..Map$LT$I$C$F$GT$$u20$as$u20$core..iter..traits..iterator..Iterator$GT$4fold17h46588f3d120ef27bE@4HA"
.LBB6_1:
	movq	%rdx, 16(%rsp)
	pushq	%rbp
	.seh_pushreg %rbp
	subq	$32, %rsp
	.seh_stackalloc 32
	leaq	128(%rdx), %rbp
	.seh_endprologue
	.cv_loc	6 3 124 0
	testb	$1, -2(%rbp)
	jne	.LBB6_5
	jmp	.LBB6_4
.Ltmp47:
.LBB6_4:
	testb	$1, -1(%rbp)
	jne	.LBB6_7
	jmp	.LBB6_6
.Ltmp48:
.LBB6_5:
	jmp	.LBB6_4
.Ltmp49:
.LBB6_6:
	.cv_loc	6 3 120 0
	addq	$32, %rsp
	popq	%rbp
	retq
.Ltmp50:
.LBB6_7:
	.cv_loc	6 3 124 0
	leaq	-64(%rbp), %rcx
	callq	_ZN4core3ptr56drop_in_place$LT$proc_macro2..token_stream..IntoIter$GT$17h75371ac2591ec8c9E
	jmp	.LBB6_6
.Ltmp51:
.Lfunc_end6:
	.seh_handlerdata
	.section	.text,"xr",one_only,_ZN102_$LT$core..iter..adapters..map..Map$LT$I$C$F$GT$$u20$as$u20$core..iter..traits..iterator..Iterator$GT$4fold17h46588f3d120ef27bE
	.seh_endproc
	.section	.xdata,"dr",associative,_ZN102_$LT$core..iter..adapters..map..Map$LT$I$C$F$GT$$u20$as$u20$core..iter..traits..iterator..Iterator$GT$4fold17h46588f3d120ef27bE
	.p2align	2
$cppxdata$_ZN102_$LT$core..iter..adapters..map..Map$LT$I$C$F$GT$$u20$as$u20$core..iter..traits..iterator..Iterator$GT$4fold17h46588f3d120ef27bE:
	.long	429065506
	.long	1
	.long	($stateUnwindMap$_ZN102_$LT$core..iter..adapters..map..Map$LT$I$C$F$GT$$u20$as$u20$core..iter..traits..iterator..Iterator$GT$4fold17h46588f3d120ef27bE)@IMGREL
	.long	0
	.long	0
	.long	3
	.long	($ip2state$_ZN102_$LT$core..iter..adapters..map..Map$LT$I$C$F$GT$$u20$as$u20$core..iter..traits..iterator..Iterator$GT$4fold17h46588f3d120ef27bE)@IMGREL
	.long	136
	.long	0
	.long	1
$stateUnwindMap$_ZN102_$LT$core..iter..adapters..map..Map$LT$I$C$F$GT$$u20$as$u20$core..iter..traits..iterator..Iterator$GT$4fold17h46588f3d120ef27bE:
	.long	-1
	.long	"?dtor$1@?0?_ZN102_$LT$core..iter..adapters..map..Map$LT$I$C$F$GT$$u20$as$u20$core..iter..traits..iterator..Iterator$GT$4fold17h46588f3d120ef27bE@4HA"@IMGREL
$ip2state$_ZN102_$LT$core..iter..adapters..map..Map$LT$I$C$F$GT$$u20$as$u20$core..iter..traits..iterator..Iterator$GT$4fold17h46588f3d120ef27bE:
	.long	.Lfunc_begin6@IMGREL
	.long	-1
	.long	.Ltmp38@IMGREL+1
	.long	0
	.long	.Ltmp41@IMGREL+1
	.long	-1
	.section	.text,"xr",one_only,_ZN102_$LT$core..iter..adapters..map..Map$LT$I$C$F$GT$$u20$as$u20$core..iter..traits..iterator..Iterator$GT$4fold17h46588f3d120ef27bE

	.def	_ZN102_$LT$core..iter..adapters..map..Map$LT$I$C$F$GT$$u20$as$u20$core..iter..traits..iterator..Iterator$GT$4fold17h4ee80dbbf4f47308E;
	.scl	2;
	.type	32;
	.endef
	.section	.text,"xr",one_only,_ZN102_$LT$core..iter..adapters..map..Map$LT$I$C$F$GT$$u20$as$u20$core..iter..traits..iterator..Iterator$GT$4fold17h4ee80dbbf4f47308E
	.globl	_ZN102_$LT$core..iter..adapters..map..Map$LT$I$C$F$GT$$u20$as$u20$core..iter..traits..iterator..Iterator$GT$4fold17h4ee80dbbf4f47308E
	.p2align	4, 0x90
_ZN102_$LT$core..iter..adapters..map..Map$LT$I$C$F$GT$$u20$as$u20$core..iter..traits..iterator..Iterator$GT$4fold17h4ee80dbbf4f47308E:
.Lfunc_begin7:
	.cv_func_id 7
	.cv_loc	7 3 120 0
.seh_proc _ZN102_$LT$core..iter..adapters..map..Map$LT$I$C$F$GT$$u20$as$u20$core..iter..traits..iterator..Iterator$GT$4fold17h4ee80dbbf4f47308E
	.seh_handler __CxxFrameHandler3, @unwind, @except
	pushq	%rbp
	.seh_pushreg %rbp
	subq	$112, %rsp
	.seh_stackalloc 112
	leaq	112(%rsp), %rbp
	.seh_setframe %rbp, 112
	.seh_endprologue
	movq	$-2, -8(%rbp)
	movq	%rdx, -16(%rbp)
.Ltmp56:
	.cv_loc	7 3 124 0
	movb	$0, -17(%rbp)
	movb	$0, -18(%rbp)
	movb	$1, -17(%rbp)
	movq	32(%rcx), %rax
	movq	%rax, -32(%rbp)
	vmovups	(%rcx), %ymm0
	vmovups	%ymm0, -64(%rbp)
	movb	$1, -18(%rbp)
	movq	40(%rcx), %rcx
.Ltmp57:
.Ltmp52:
	vzeroupper
	callq	_ZN4core4iter8adapters3map8map_fold17hc9bfaea7ff847671E
.Ltmp53:
	movq	%rdx, -80(%rbp)
	movq	%rax, -72(%rbp)
	jmp	.LBB7_2
.Ltmp58:
.LBB7_2:
	movq	-80(%rbp), %r8
	movq	-72(%rbp), %rdx
	movb	$0, -17(%rbp)
	movb	$0, -18(%rbp)
.Ltmp54:
	leaq	-64(%rbp), %rcx
	callq	_ZN4core4iter6traits8iterator8Iterator4fold17hc0e167a2814c2d26E
.Ltmp55:
	jmp	.LBB7_3
.Ltmp59:
.LBB7_3:
	movb	$0, -18(%rbp)
	movb	$0, -17(%rbp)
	.cv_loc	7 3 125 0
	addq	$112, %rsp
	popq	%rbp
	retq
.Ltmp60:
	.seh_handlerdata
	.long	($cppxdata$_ZN102_$LT$core..iter..adapters..map..Map$LT$I$C$F$GT$$u20$as$u20$core..iter..traits..iterator..Iterator$GT$4fold17h4ee80dbbf4f47308E)@IMGREL
	.section	.text,"xr",one_only,_ZN102_$LT$core..iter..adapters..map..Map$LT$I$C$F$GT$$u20$as$u20$core..iter..traits..iterator..Iterator$GT$4fold17h4ee80dbbf4f47308E
	.seh_endproc
	.def	"?dtor$1@?0?_ZN102_$LT$core..iter..adapters..map..Map$LT$I$C$F$GT$$u20$as$u20$core..iter..traits..iterator..Iterator$GT$4fold17h4ee80dbbf4f47308E@4HA";
	.scl	3;
	.type	32;
	.endef
	.p2align	4, 0x90
"?dtor$1@?0?_ZN102_$LT$core..iter..adapters..map..Map$LT$I$C$F$GT$$u20$as$u20$core..iter..traits..iterator..Iterator$GT$4fold17h4ee80dbbf4f47308E@4HA":
.seh_proc "?dtor$1@?0?_ZN102_$LT$core..iter..adapters..map..Map$LT$I$C$F$GT$$u20$as$u20$core..iter..traits..iterator..Iterator$GT$4fold17h4ee80dbbf4f47308E@4HA"
.LBB7_1:
	movq	%rdx, 16(%rsp)
	pushq	%rbp
	.seh_pushreg %rbp
	subq	$32, %rsp
	.seh_stackalloc 32
	leaq	112(%rdx), %rbp
	.seh_endprologue
	.cv_loc	7 3 124 0
	testb	$1, -18(%rbp)
	jne	.LBB7_5
	jmp	.LBB7_4
.Ltmp61:
.LBB7_4:
	testb	$1, -17(%rbp)
	jne	.LBB7_7
	jmp	.LBB7_6
.Ltmp62:
.LBB7_5:
	jmp	.LBB7_4
.Ltmp63:
.LBB7_6:
	.cv_loc	7 3 120 0
	addq	$32, %rsp
	popq	%rbp
	retq
.Ltmp64:
.LBB7_7:
	.cv_loc	7 3 124 0
	leaq	-64(%rbp), %rcx
	callq	_ZN4core3ptr56drop_in_place$LT$proc_macro2..token_stream..IntoIter$GT$17h75371ac2591ec8c9E
	jmp	.LBB7_6
.Ltmp65:
.Lfunc_end7:
	.seh_handlerdata
	.section	.text,"xr",one_only,_ZN102_$LT$core..iter..adapters..map..Map$LT$I$C$F$GT$$u20$as$u20$core..iter..traits..iterator..Iterator$GT$4fold17h4ee80dbbf4f47308E
	.seh_endproc
	.section	.xdata,"dr",associative,_ZN102_$LT$core..iter..adapters..map..Map$LT$I$C$F$GT$$u20$as$u20$core..iter..traits..iterator..Iterator$GT$4fold17h4ee80dbbf4f47308E
	.p2align	2
$cppxdata$_ZN102_$LT$core..iter..adapters..map..Map$LT$I$C$F$GT$$u20$as$u20$core..iter..traits..iterator..Iterator$GT$4fold17h4ee80dbbf4f47308E:
	.long	429065506
	.long	1
	.long	($stateUnwindMap$_ZN102_$LT$core..iter..adapters..map..Map$LT$I$C$F$GT$$u20$as$u20$core..iter..traits..iterator..Iterator$GT$4fold17h4ee80dbbf4f47308E)@IMGREL
	.long	0
	.long	0
	.long	3
	.long	($ip2state$_ZN102_$LT$core..iter..adapters..map..Map$LT$I$C$F$GT$$u20$as$u20$core..iter..traits..iterator..Iterator$GT$4fold17h4ee80dbbf4f47308E)@IMGREL
	.long	104
	.long	0
	.long	1
$stateUnwindMap$_ZN102_$LT$core..iter..adapters..map..Map$LT$I$C$F$GT$$u20$as$u20$core..iter..traits..iterator..Iterator$GT$4fold17h4ee80dbbf4f47308E:
	.long	-1
	.long	"?dtor$1@?0?_ZN102_$LT$core..iter..adapters..map..Map$LT$I$C$F$GT$$u20$as$u20$core..iter..traits..iterator..Iterator$GT$4fold17h4ee80dbbf4f47308E@4HA"@IMGREL
$ip2state$_ZN102_$LT$core..iter..adapters..map..Map$LT$I$C$F$GT$$u20$as$u20$core..iter..traits..iterator..Iterator$GT$4fold17h4ee80dbbf4f47308E:
	.long	.Lfunc_begin7@IMGREL
	.long	-1
	.long	.Ltmp52@IMGREL+1
	.long	0
	.long	.Ltmp55@IMGREL+1
	.long	-1
	.section	.text,"xr",one_only,_ZN102_$LT$core..iter..adapters..map..Map$LT$I$C$F$GT$$u20$as$u20$core..iter..traits..iterator..Iterator$GT$4fold17h4ee80dbbf4f47308E

	.def	_ZN102_$LT$core..iter..adapters..map..Map$LT$I$C$F$GT$$u20$as$u20$core..iter..traits..iterator..Iterator$GT$4fold17h74e2aa3098757ce1E;
	.scl	2;
	.type	32;
	.endef
	.section	.text,"xr",one_only,_ZN102_$LT$core..iter..adapters..map..Map$LT$I$C$F$GT$$u20$as$u20$core..iter..traits..iterator..Iterator$GT$4fold17h74e2aa3098757ce1E
	.globl	_ZN102_$LT$core..iter..adapters..map..Map$LT$I$C$F$GT$$u20$as$u20$core..iter..traits..iterator..Iterator$GT$4fold17h74e2aa3098757ce1E
	.p2align	4, 0x90
_ZN102_$LT$core..iter..adapters..map..Map$LT$I$C$F$GT$$u20$as$u20$core..iter..traits..iterator..Iterator$GT$4fold17h74e2aa3098757ce1E:
.Lfunc_begin8:
	.cv_func_id 8
	.cv_loc	8 3 120 0
.seh_proc _ZN102_$LT$core..iter..adapters..map..Map$LT$I$C$F$GT$$u20$as$u20$core..iter..traits..iterator..Iterator$GT$4fold17h74e2aa3098757ce1E
	.seh_handler __CxxFrameHandler3, @unwind, @except
	pushq	%rbp
	.seh_pushreg %rbp
	subq	$128, %rsp
	.seh_stackalloc 128
	leaq	128(%rsp), %rbp
	.seh_setframe %rbp, 128
	.seh_endprologue
	movq	$-2, -8(%rbp)
	movq	%rdx, -96(%rbp)
	movq	%rcx, %rax
	movq	-96(%rbp), %rcx
.Ltmp70:
	movq	%rcx, -16(%rbp)
.Ltmp71:
	.cv_loc	8 3 124 0
	movb	$0, -17(%rbp)
	movb	$0, -18(%rbp)
	movb	$1, -17(%rbp)
	vmovups	(%rax), %ymm0
	vmovups	16(%rax), %ymm1
	vmovups	%ymm1, -64(%rbp)
	vmovups	%ymm0, -80(%rbp)
	movb	$1, -18(%rbp)
.Ltmp66:
	vzeroupper
	callq	_ZN4core4iter8adapters3map8map_fold17h49c0e5ad0bb38922E
.Ltmp72:
.Ltmp67:
	movq	%rax, -88(%rbp)
	jmp	.LBB8_2
.LBB8_2:
	movq	-88(%rbp), %rdx
	movb	$0, -17(%rbp)
	movb	$0, -18(%rbp)
.Ltmp68:
	leaq	-80(%rbp), %rcx
	callq	_ZN102_$LT$core..iter..adapters..map..Map$LT$I$C$F$GT$$u20$as$u20$core..iter..traits..iterator..Iterator$GT$4fold17h4ee80dbbf4f47308E
.Ltmp69:
	jmp	.LBB8_3
.LBB8_3:
	movb	$0, -18(%rbp)
	movb	$0, -17(%rbp)
	.cv_loc	8 3 125 0
	addq	$128, %rsp
	popq	%rbp
	retq
	.seh_handlerdata
	.long	($cppxdata$_ZN102_$LT$core..iter..adapters..map..Map$LT$I$C$F$GT$$u20$as$u20$core..iter..traits..iterator..Iterator$GT$4fold17h74e2aa3098757ce1E)@IMGREL
	.section	.text,"xr",one_only,_ZN102_$LT$core..iter..adapters..map..Map$LT$I$C$F$GT$$u20$as$u20$core..iter..traits..iterator..Iterator$GT$4fold17h74e2aa3098757ce1E
	.seh_endproc
	.def	"?dtor$1@?0?_ZN102_$LT$core..iter..adapters..map..Map$LT$I$C$F$GT$$u20$as$u20$core..iter..traits..iterator..Iterator$GT$4fold17h74e2aa3098757ce1E@4HA";
	.scl	3;
	.type	32;
	.endef
	.p2align	4, 0x90
"?dtor$1@?0?_ZN102_$LT$core..iter..adapters..map..Map$LT$I$C$F$GT$$u20$as$u20$core..iter..traits..iterator..Iterator$GT$4fold17h74e2aa3098757ce1E@4HA":
.seh_proc "?dtor$1@?0?_ZN102_$LT$core..iter..adapters..map..Map$LT$I$C$F$GT$$u20$as$u20$core..iter..traits..iterator..Iterator$GT$4fold17h74e2aa3098757ce1E@4HA"
.LBB8_1:
	movq	%rdx, 16(%rsp)
	pushq	%rbp
	.seh_pushreg %rbp
	subq	$32, %rsp
	.seh_stackalloc 32
	leaq	128(%rdx), %rbp
	.seh_endprologue
	.cv_loc	8 3 124 0
	testb	$1, -18(%rbp)
	jne	.LBB8_5
	jmp	.LBB8_4
.LBB8_4:
	testb	$1, -17(%rbp)
	jne	.LBB8_7
	jmp	.LBB8_6
.LBB8_5:
	jmp	.LBB8_4
.LBB8_6:
	.cv_loc	8 3 120 0
	addq	$32, %rsp
	popq	%rbp
	retq
.LBB8_7:
	.cv_loc	8 3 124 0
	leaq	-80(%rbp), %rcx
	callq	_ZN4core3ptr161drop_in_place$LT$core..iter..adapters..map..Map$LT$proc_macro2..token_stream..IntoIter$C$quote..__private..respan_token_tree..$u7b$$u7b$closure$u7d$$u7d$$GT$$GT$17h763b5ec527ee8accE
	jmp	.LBB8_6
.Ltmp73:
.Lfunc_end8:
	.seh_handlerdata
	.section	.text,"xr",one_only,_ZN102_$LT$core..iter..adapters..map..Map$LT$I$C$F$GT$$u20$as$u20$core..iter..traits..iterator..Iterator$GT$4fold17h74e2aa3098757ce1E
	.seh_endproc
	.section	.xdata,"dr",associative,_ZN102_$LT$core..iter..adapters..map..Map$LT$I$C$F$GT$$u20$as$u20$core..iter..traits..iterator..Iterator$GT$4fold17h74e2aa3098757ce1E
	.p2align	2
$cppxdata$_ZN102_$LT$core..iter..adapters..map..Map$LT$I$C$F$GT$$u20$as$u20$core..iter..traits..iterator..Iterator$GT$4fold17h74e2aa3098757ce1E:
	.long	429065506
	.long	1
	.long	($stateUnwindMap$_ZN102_$LT$core..iter..adapters..map..Map$LT$I$C$F$GT$$u20$as$u20$core..iter..traits..iterator..Iterator$GT$4fold17h74e2aa3098757ce1E)@IMGREL
	.long	0
	.long	0
	.long	3
	.long	($ip2state$_ZN102_$LT$core..iter..adapters..map..Map$LT$I$C$F$GT$$u20$as$u20$core..iter..traits..iterator..Iterator$GT$4fold17h74e2aa3098757ce1E)@IMGREL
	.long	120
	.long	0
	.long	1
$stateUnwindMap$_ZN102_$LT$core..iter..adapters..map..Map$LT$I$C$F$GT$$u20$as$u20$core..iter..traits..iterator..Iterator$GT$4fold17h74e2aa3098757ce1E:
	.long	-1
	.long	"?dtor$1@?0?_ZN102_$LT$core..iter..adapters..map..Map$LT$I$C$F$GT$$u20$as$u20$core..iter..traits..iterator..Iterator$GT$4fold17h74e2aa3098757ce1E@4HA"@IMGREL
$ip2state$_ZN102_$LT$core..iter..adapters..map..Map$LT$I$C$F$GT$$u20$as$u20$core..iter..traits..iterator..Iterator$GT$4fold17h74e2aa3098757ce1E:
	.long	.Lfunc_begin8@IMGREL
	.long	-1
	.long	.Ltmp66@IMGREL+1
	.long	0
	.long	.Ltmp69@IMGREL+1
	.long	-1
	.section	.text,"xr",one_only,_ZN102_$LT$core..iter..adapters..map..Map$LT$I$C$F$GT$$u20$as$u20$core..iter..traits..iterator..Iterator$GT$4fold17h74e2aa3098757ce1E

	.def	_ZN102_$LT$core..iter..adapters..map..Map$LT$I$C$F$GT$$u20$as$u20$core..iter..traits..iterator..Iterator$GT$4fold17ha9dad94e9b1b6700E;
	.scl	2;
	.type	32;
	.endef
	.section	.text,"xr",one_only,_ZN102_$LT$core..iter..adapters..map..Map$LT$I$C$F$GT$$u20$as$u20$core..iter..traits..iterator..Iterator$GT$4fold17ha9dad94e9b1b6700E
	.globl	_ZN102_$LT$core..iter..adapters..map..Map$LT$I$C$F$GT$$u20$as$u20$core..iter..traits..iterator..Iterator$GT$4fold17ha9dad94e9b1b6700E
	.p2align	4, 0x90
_ZN102_$LT$core..iter..adapters..map..Map$LT$I$C$F$GT$$u20$as$u20$core..iter..traits..iterator..Iterator$GT$4fold17ha9dad94e9b1b6700E:
.Lfunc_begin9:
	.cv_func_id 9
	.cv_loc	9 3 120 0
.seh_proc _ZN102_$LT$core..iter..adapters..map..Map$LT$I$C$F$GT$$u20$as$u20$core..iter..traits..iterator..Iterator$GT$4fold17ha9dad94e9b1b6700E
	.seh_handler __CxxFrameHandler3, @unwind, @except
	pushq	%rbp
	.seh_pushreg %rbp
	subq	$112, %rsp
	.seh_stackalloc 112
	leaq	112(%rsp), %rbp
	.seh_setframe %rbp, 112
	.seh_endprologue
	movq	$-2, -8(%rbp)
	movq	%rdx, -80(%rbp)
	movq	%rcx, %rax
	movq	-80(%rbp), %rcx
.Ltmp78:
	movq	%rcx, -16(%rbp)
.Ltmp79:
	.cv_loc	9 3 124 0
	movb	$0, -17(%rbp)
	movb	$0, -18(%rbp)
	movb	$1, -17(%rbp)
	movq	32(%rax), %rdx
	movq	%rdx, -32(%rbp)
	vmovups	(%rax), %ymm0
	vmovups	%ymm0, -64(%rbp)
	movb	$1, -18(%rbp)
.Ltmp74:
	vzeroupper
	callq	_ZN4core4iter8adapters3map8map_fold17h0dff862fedfbf921E
.Ltmp80:
.Ltmp75:
	movq	%rax, -72(%rbp)
	jmp	.LBB9_2
.LBB9_2:
	movq	-72(%rbp), %rdx
	movb	$0, -17(%rbp)
	movb	$0, -18(%rbp)
.Ltmp76:
	leaq	-64(%rbp), %rcx
	callq	_ZN4core4iter6traits8iterator8Iterator4fold17h4066c529c0286a0fE
.Ltmp77:
	jmp	.LBB9_3
.LBB9_3:
	movb	$0, -18(%rbp)
	movb	$0, -17(%rbp)
	.cv_loc	9 3 125 0
	addq	$112, %rsp
	popq	%rbp
	retq
	.seh_handlerdata
	.long	($cppxdata$_ZN102_$LT$core..iter..adapters..map..Map$LT$I$C$F$GT$$u20$as$u20$core..iter..traits..iterator..Iterator$GT$4fold17ha9dad94e9b1b6700E)@IMGREL
	.section	.text,"xr",one_only,_ZN102_$LT$core..iter..adapters..map..Map$LT$I$C$F$GT$$u20$as$u20$core..iter..traits..iterator..Iterator$GT$4fold17ha9dad94e9b1b6700E
	.seh_endproc
	.def	"?dtor$1@?0?_ZN102_$LT$core..iter..adapters..map..Map$LT$I$C$F$GT$$u20$as$u20$core..iter..traits..iterator..Iterator$GT$4fold17ha9dad94e9b1b6700E@4HA";
	.scl	3;
	.type	32;
	.endef
	.p2align	4, 0x90
"?dtor$1@?0?_ZN102_$LT$core..iter..adapters..map..Map$LT$I$C$F$GT$$u20$as$u20$core..iter..traits..iterator..Iterator$GT$4fold17ha9dad94e9b1b6700E@4HA":
.seh_proc "?dtor$1@?0?_ZN102_$LT$core..iter..adapters..map..Map$LT$I$C$F$GT$$u20$as$u20$core..iter..traits..iterator..Iterator$GT$4fold17ha9dad94e9b1b6700E@4HA"
.LBB9_1:
	movq	%rdx, 16(%rsp)
	pushq	%rbp
	.seh_pushreg %rbp
	subq	$32, %rsp
	.seh_stackalloc 32
	leaq	112(%rdx), %rbp
	.seh_endprologue
	.cv_loc	9 3 124 0
	testb	$1, -18(%rbp)
	jne	.LBB9_5
	jmp	.LBB9_4
.LBB9_4:
	testb	$1, -17(%rbp)
	jne	.LBB9_7
	jmp	.LBB9_6
.LBB9_5:
	jmp	.LBB9_4
.LBB9_6:
	.cv_loc	9 3 120 0
	addq	$32, %rsp
	popq	%rbp
	retq
.LBB9_7:
	.cv_loc	9 3 124 0
	leaq	-64(%rbp), %rcx
	callq	_ZN4core3ptr84drop_in_place$LT$core..iter..sources..once..Once$LT$proc_macro2..TokenStream$GT$$GT$17h3b9bf09fb2a12d11E
	jmp	.LBB9_6
.Ltmp81:
.Lfunc_end9:
	.seh_handlerdata
	.section	.text,"xr",one_only,_ZN102_$LT$core..iter..adapters..map..Map$LT$I$C$F$GT$$u20$as$u20$core..iter..traits..iterator..Iterator$GT$4fold17ha9dad94e9b1b6700E
	.seh_endproc
	.section	.xdata,"dr",associative,_ZN102_$LT$core..iter..adapters..map..Map$LT$I$C$F$GT$$u20$as$u20$core..iter..traits..iterator..Iterator$GT$4fold17ha9dad94e9b1b6700E
	.p2align	2
$cppxdata$_ZN102_$LT$core..iter..adapters..map..Map$LT$I$C$F$GT$$u20$as$u20$core..iter..traits..iterator..Iterator$GT$4fold17ha9dad94e9b1b6700E:
	.long	429065506
	.long	1
	.long	($stateUnwindMap$_ZN102_$LT$core..iter..adapters..map..Map$LT$I$C$F$GT$$u20$as$u20$core..iter..traits..iterator..Iterator$GT$4fold17ha9dad94e9b1b6700E)@IMGREL
	.long	0
	.long	0
	.long	3
	.long	($ip2state$_ZN102_$LT$core..iter..adapters..map..Map$LT$I$C$F$GT$$u20$as$u20$core..iter..traits..iterator..Iterator$GT$4fold17ha9dad94e9b1b6700E)@IMGREL
	.long	104
	.long	0
	.long	1
$stateUnwindMap$_ZN102_$LT$core..iter..adapters..map..Map$LT$I$C$F$GT$$u20$as$u20$core..iter..traits..iterator..Iterator$GT$4fold17ha9dad94e9b1b6700E:
	.long	-1
	.long	"?dtor$1@?0?_ZN102_$LT$core..iter..adapters..map..Map$LT$I$C$F$GT$$u20$as$u20$core..iter..traits..iterator..Iterator$GT$4fold17ha9dad94e9b1b6700E@4HA"@IMGREL
$ip2state$_ZN102_$LT$core..iter..adapters..map..Map$LT$I$C$F$GT$$u20$as$u20$core..iter..traits..iterator..Iterator$GT$4fold17ha9dad94e9b1b6700E:
	.long	.Lfunc_begin9@IMGREL
	.long	-1
	.long	.Ltmp74@IMGREL+1
	.long	0
	.long	.Ltmp77@IMGREL+1
	.long	-1
	.section	.text,"xr",one_only,_ZN102_$LT$core..iter..adapters..map..Map$LT$I$C$F$GT$$u20$as$u20$core..iter..traits..iterator..Iterator$GT$4fold17ha9dad94e9b1b6700E

	.def	_ZN102_$LT$core..iter..adapters..map..Map$LT$I$C$F$GT$$u20$as$u20$core..iter..traits..iterator..Iterator$GT$4fold17hacece5b05cafc3ccE;
	.scl	2;
	.type	32;
	.endef
	.section	.text,"xr",one_only,_ZN102_$LT$core..iter..adapters..map..Map$LT$I$C$F$GT$$u20$as$u20$core..iter..traits..iterator..Iterator$GT$4fold17hacece5b05cafc3ccE
	.globl	_ZN102_$LT$core..iter..adapters..map..Map$LT$I$C$F$GT$$u20$as$u20$core..iter..traits..iterator..Iterator$GT$4fold17hacece5b05cafc3ccE
	.p2align	4, 0x90
_ZN102_$LT$core..iter..adapters..map..Map$LT$I$C$F$GT$$u20$as$u20$core..iter..traits..iterator..Iterator$GT$4fold17hacece5b05cafc3ccE:
.Lfunc_begin10:
	.cv_func_id 10
	.cv_loc	10 3 120 0
.seh_proc _ZN102_$LT$core..iter..adapters..map..Map$LT$I$C$F$GT$$u20$as$u20$core..iter..traits..iterator..Iterator$GT$4fold17hacece5b05cafc3ccE
	.seh_handler __CxxFrameHandler3, @unwind, @except
	pushq	%rbp
	.seh_pushreg %rbp
	subq	$112, %rsp
	.seh_stackalloc 112
	leaq	112(%rsp), %rbp
	.seh_setframe %rbp, 112
	.seh_endprologue
	movq	$-2, -8(%rbp)
	movq	%rdx, -16(%rbp)
.Ltmp86:
	.cv_loc	10 3 124 0
	movb	$0, -17(%rbp)
	movb	$0, -18(%rbp)
	movb	$1, -17(%rbp)
	movq	32(%rcx), %rax
	movq	%rax, -32(%rbp)
	vmovups	(%rcx), %ymm0
	vmovups	%ymm0, -64(%rbp)
	movb	$1, -18(%rbp)
	movq	40(%rcx), %rcx
.Ltmp87:
.Ltmp82:
	vzeroupper
	callq	_ZN4core4iter8adapters3map8map_fold17h8979ff8bf910880fE
.Ltmp83:
	movq	%rdx, -80(%rbp)
	movq	%rax, -72(%rbp)
	jmp	.LBB10_2
.Ltmp88:
.LBB10_2:
	movq	-80(%rbp), %r8
	movq	-72(%rbp), %rdx
	movb	$0, -17(%rbp)
	movb	$0, -18(%rbp)
.Ltmp84:
	leaq	-64(%rbp), %rcx
	callq	_ZN4core4iter6traits8iterator8Iterator4fold17hf3e70835c18926bdE
.Ltmp85:
	jmp	.LBB10_3
.Ltmp89:
.LBB10_3:
	movb	$0, -18(%rbp)
	movb	$0, -17(%rbp)
	.cv_loc	10 3 125 0
	addq	$112, %rsp
	popq	%rbp
	retq
.Ltmp90:
	.seh_handlerdata
	.long	($cppxdata$_ZN102_$LT$core..iter..adapters..map..Map$LT$I$C$F$GT$$u20$as$u20$core..iter..traits..iterator..Iterator$GT$4fold17hacece5b05cafc3ccE)@IMGREL
	.section	.text,"xr",one_only,_ZN102_$LT$core..iter..adapters..map..Map$LT$I$C$F$GT$$u20$as$u20$core..iter..traits..iterator..Iterator$GT$4fold17hacece5b05cafc3ccE
	.seh_endproc
	.def	"?dtor$1@?0?_ZN102_$LT$core..iter..adapters..map..Map$LT$I$C$F$GT$$u20$as$u20$core..iter..traits..iterator..Iterator$GT$4fold17hacece5b05cafc3ccE@4HA";
	.scl	3;
	.type	32;
	.endef
	.p2align	4, 0x90
"?dtor$1@?0?_ZN102_$LT$core..iter..adapters..map..Map$LT$I$C$F$GT$$u20$as$u20$core..iter..traits..iterator..Iterator$GT$4fold17hacece5b05cafc3ccE@4HA":
.seh_proc "?dtor$1@?0?_ZN102_$LT$core..iter..adapters..map..Map$LT$I$C$F$GT$$u20$as$u20$core..iter..traits..iterator..Iterator$GT$4fold17hacece5b05cafc3ccE@4HA"
.LBB10_1:
	movq	%rdx, 16(%rsp)
	pushq	%rbp
	.seh_pushreg %rbp
	subq	$32, %rsp
	.seh_stackalloc 32
	leaq	112(%rdx), %rbp
	.seh_endprologue
	.cv_loc	10 3 124 0
	testb	$1, -18(%rbp)
	jne	.LBB10_5
	jmp	.LBB10_4
.Ltmp91:
.LBB10_4:
	testb	$1, -17(%rbp)
	jne	.LBB10_7
	jmp	.LBB10_6
.Ltmp92:
.LBB10_5:
	jmp	.LBB10_4
.Ltmp93:
.LBB10_6:
	.cv_loc	10 3 120 0
	addq	$32, %rsp
	popq	%rbp
	retq
.Ltmp94:
.LBB10_7:
	.cv_loc	10 3 124 0
	leaq	-64(%rbp), %rcx
	callq	_ZN4core3ptr56drop_in_place$LT$proc_macro2..token_stream..IntoIter$GT$17h75371ac2591ec8c9E
	jmp	.LBB10_6
.Ltmp95:
.Lfunc_end10:
	.seh_handlerdata
	.section	.text,"xr",one_only,_ZN102_$LT$core..iter..adapters..map..Map$LT$I$C$F$GT$$u20$as$u20$core..iter..traits..iterator..Iterator$GT$4fold17hacece5b05cafc3ccE
	.seh_endproc
	.section	.xdata,"dr",associative,_ZN102_$LT$core..iter..adapters..map..Map$LT$I$C$F$GT$$u20$as$u20$core..iter..traits..iterator..Iterator$GT$4fold17hacece5b05cafc3ccE
	.p2align	2
$cppxdata$_ZN102_$LT$core..iter..adapters..map..Map$LT$I$C$F$GT$$u20$as$u20$core..iter..traits..iterator..Iterator$GT$4fold17hacece5b05cafc3ccE:
	.long	429065506
	.long	1
	.long	($stateUnwindMap$_ZN102_$LT$core..iter..adapters..map..Map$LT$I$C$F$GT$$u20$as$u20$core..iter..traits..iterator..Iterator$GT$4fold17hacece5b05cafc3ccE)@IMGREL
	.long	0
	.long	0
	.long	3
	.long	($ip2state$_ZN102_$LT$core..iter..adapters..map..Map$LT$I$C$F$GT$$u20$as$u20$core..iter..traits..iterator..Iterator$GT$4fold17hacece5b05cafc3ccE)@IMGREL
	.long	104
	.long	0
	.long	1
$stateUnwindMap$_ZN102_$LT$core..iter..adapters..map..Map$LT$I$C$F$GT$$u20$as$u20$core..iter..traits..iterator..Iterator$GT$4fold17hacece5b05cafc3ccE:
	.long	-1
	.long	"?dtor$1@?0?_ZN102_$LT$core..iter..adapters..map..Map$LT$I$C$F$GT$$u20$as$u20$core..iter..traits..iterator..Iterator$GT$4fold17hacece5b05cafc3ccE@4HA"@IMGREL
$ip2state$_ZN102_$LT$core..iter..adapters..map..Map$LT$I$C$F$GT$$u20$as$u20$core..iter..traits..iterator..Iterator$GT$4fold17hacece5b05cafc3ccE:
	.long	.Lfunc_begin10@IMGREL
	.long	-1
	.long	.Ltmp82@IMGREL+1
	.long	0
	.long	.Ltmp85@IMGREL+1
	.long	-1
	.section	.text,"xr",one_only,_ZN102_$LT$core..iter..adapters..map..Map$LT$I$C$F$GT$$u20$as$u20$core..iter..traits..iterator..Iterator$GT$4fold17hacece5b05cafc3ccE

	.def	_ZN102_$LT$core..iter..adapters..map..Map$LT$I$C$F$GT$$u20$as$u20$core..iter..traits..iterator..Iterator$GT$4next17h207e764c518d249cE;
	.scl	2;
	.type	32;
	.endef
	.section	.text,"xr",one_only,_ZN102_$LT$core..iter..adapters..map..Map$LT$I$C$F$GT$$u20$as$u20$core..iter..traits..iterator..Iterator$GT$4next17h207e764c518d249cE
	.globl	_ZN102_$LT$core..iter..adapters..map..Map$LT$I$C$F$GT$$u20$as$u20$core..iter..traits..iterator..Iterator$GT$4next17h207e764c518d249cE
	.p2align	4, 0x90
_ZN102_$LT$core..iter..adapters..map..Map$LT$I$C$F$GT$$u20$as$u20$core..iter..traits..iterator..Iterator$GT$4next17h207e764c518d249cE:
.Lfunc_begin11:
	.cv_func_id 11
	.cv_loc	11 3 102 0
.seh_proc _ZN102_$LT$core..iter..adapters..map..Map$LT$I$C$F$GT$$u20$as$u20$core..iter..traits..iterator..Iterator$GT$4next17h207e764c518d249cE
	subq	$120, %rsp
	.seh_stackalloc 120
	.seh_endprologue
	movq	%rcx, %rdx
	movq	%rdx, 40(%rsp)
	movq	%rdx, 104(%rsp)
.Ltmp96:
	.cv_loc	11 3 103 0
	leaq	56(%rsp), %rcx
	callq	_ZN94_$LT$proc_macro2..token_stream..IntoIter$u20$as$u20$core..iter..traits..iterator..Iterator$GT$4next17h4c47cf32507b4e89E
	movq	40(%rsp), %rdx
	leaq	56(%rsp), %rcx
	callq	_ZN4core6option15Option$LT$T$GT$3map17hea8f9fb94ef1a86cE
	movq	%rax, 112(%rsp)
	movq	112(%rsp), %rax
	movq	%rax, 48(%rsp)
	.cv_loc	11 3 104 0
	movq	48(%rsp), %rax
	addq	$120, %rsp
	retq
.Ltmp97:
.Lfunc_end11:
	.seh_endproc

	.def	_ZN102_$LT$core..iter..adapters..map..Map$LT$I$C$F$GT$$u20$as$u20$core..iter..traits..iterator..Iterator$GT$4next17h7a73b180b60e9767E;
	.scl	2;
	.type	32;
	.endef
	.section	.text,"xr",one_only,_ZN102_$LT$core..iter..adapters..map..Map$LT$I$C$F$GT$$u20$as$u20$core..iter..traits..iterator..Iterator$GT$4next17h7a73b180b60e9767E
	.globl	_ZN102_$LT$core..iter..adapters..map..Map$LT$I$C$F$GT$$u20$as$u20$core..iter..traits..iterator..Iterator$GT$4next17h7a73b180b60e9767E
	.p2align	4, 0x90
_ZN102_$LT$core..iter..adapters..map..Map$LT$I$C$F$GT$$u20$as$u20$core..iter..traits..iterator..Iterator$GT$4next17h7a73b180b60e9767E:
.Lfunc_begin12:
	.cv_func_id 12
	.cv_loc	12 3 102 0
.seh_proc _ZN102_$LT$core..iter..adapters..map..Map$LT$I$C$F$GT$$u20$as$u20$core..iter..traits..iterator..Iterator$GT$4next17h7a73b180b60e9767E
	subq	$104, %rsp
	.seh_stackalloc 104
	.seh_endprologue
	movq	%rdx, 32(%rsp)
	movq	%rcx, 40(%rsp)
	movq	%rcx, 48(%rsp)
	movq	%rdx, 96(%rsp)
.Ltmp98:
	.cv_loc	12 3 103 0
	leaq	56(%rsp), %rcx
	callq	_ZN99_$LT$core..iter..sources..once..Once$LT$T$GT$$u20$as$u20$core..iter..traits..iterator..Iterator$GT$4next17hd34dbc7fc3ff0ac0E
	movq	40(%rsp), %rcx
	movq	32(%rsp), %r8
	leaq	56(%rsp), %rdx
	callq	_ZN4core6option15Option$LT$T$GT$3map17he3d5056d6c45af0aE
	.cv_loc	12 3 104 0
	movq	48(%rsp), %rax
	addq	$104, %rsp
	retq
.Ltmp99:
.Lfunc_end12:
	.seh_endproc

	.def	_ZN102_$LT$core..iter..adapters..map..Map$LT$I$C$F$GT$$u20$as$u20$core..iter..traits..iterator..Iterator$GT$4next17h953372cce72951b2E;
	.scl	2;
	.type	32;
	.endef
	.section	.text,"xr",one_only,_ZN102_$LT$core..iter..adapters..map..Map$LT$I$C$F$GT$$u20$as$u20$core..iter..traits..iterator..Iterator$GT$4next17h953372cce72951b2E
	.globl	_ZN102_$LT$core..iter..adapters..map..Map$LT$I$C$F$GT$$u20$as$u20$core..iter..traits..iterator..Iterator$GT$4next17h953372cce72951b2E
	.p2align	4, 0x90
_ZN102_$LT$core..iter..adapters..map..Map$LT$I$C$F$GT$$u20$as$u20$core..iter..traits..iterator..Iterator$GT$4next17h953372cce72951b2E:
.Lfunc_begin13:
	.cv_func_id 13
	.cv_loc	13 3 102 0
.seh_proc _ZN102_$LT$core..iter..adapters..map..Map$LT$I$C$F$GT$$u20$as$u20$core..iter..traits..iterator..Iterator$GT$4next17h953372cce72951b2E
	subq	$104, %rsp
	.seh_stackalloc 104
	.seh_endprologue
	movq	%rcx, %rdx
	movq	%rdx, 48(%rsp)
	movq	%rdx, 96(%rsp)
.Ltmp100:
	.cv_loc	13 3 103 0
	leaq	56(%rsp), %rcx
	callq	_ZN102_$LT$core..iter..adapters..map..Map$LT$I$C$F$GT$$u20$as$u20$core..iter..traits..iterator..Iterator$GT$4next17h7a73b180b60e9767E
	movq	48(%rsp), %rdx
	leaq	56(%rsp), %rcx
	callq	_ZN4core6option15Option$LT$T$GT$3map17h23d425a9a2bd2fb3E
	movq	%rax, 40(%rsp)
	.cv_loc	13 3 104 0
	movq	40(%rsp), %rax
	addq	$104, %rsp
	retq
.Ltmp101:
.Lfunc_end13:
	.seh_endproc

	.def	_ZN102_$LT$core..iter..adapters..map..Map$LT$I$C$F$GT$$u20$as$u20$core..iter..traits..iterator..Iterator$GT$4next17hf52981e44688447eE;
	.scl	2;
	.type	32;
	.endef
	.section	.text,"xr",one_only,_ZN102_$LT$core..iter..adapters..map..Map$LT$I$C$F$GT$$u20$as$u20$core..iter..traits..iterator..Iterator$GT$4next17hf52981e44688447eE
	.globl	_ZN102_$LT$core..iter..adapters..map..Map$LT$I$C$F$GT$$u20$as$u20$core..iter..traits..iterator..Iterator$GT$4next17hf52981e44688447eE
	.p2align	4, 0x90
_ZN102_$LT$core..iter..adapters..map..Map$LT$I$C$F$GT$$u20$as$u20$core..iter..traits..iterator..Iterator$GT$4next17hf52981e44688447eE:
.Lfunc_begin14:
	.cv_func_id 14
	.cv_loc	14 3 102 0
.seh_proc _ZN102_$LT$core..iter..adapters..map..Map$LT$I$C$F$GT$$u20$as$u20$core..iter..traits..iterator..Iterator$GT$4next17hf52981e44688447eE
	subq	$120, %rsp
	.seh_stackalloc 120
	.seh_endprologue
	movq	%rdx, 40(%rsp)
	movq	%rcx, 48(%rsp)
	movq	%rcx, 56(%rsp)
	movq	%rdx, 112(%rsp)
.Ltmp102:
	.cv_loc	14 3 103 0
	leaq	64(%rsp), %rcx
	callq	_ZN94_$LT$proc_macro2..token_stream..IntoIter$u20$as$u20$core..iter..traits..iterator..Iterator$GT$4next17h4c47cf32507b4e89E
	movq	48(%rsp), %rcx
	movq	40(%rsp), %r8
	addq	$40, %r8
	leaq	64(%rsp), %rdx
	callq	_ZN4core6option15Option$LT$T$GT$3map17ha3df1031500d43e3E
	.cv_loc	14 3 104 0
	movq	56(%rsp), %rax
	addq	$120, %rsp
	retq
.Ltmp103:
.Lfunc_end14:
	.seh_endproc

	.def	_ZN102_$LT$core..iter..adapters..map..Map$LT$I$C$F$GT$$u20$as$u20$core..iter..traits..iterator..Iterator$GT$9size_hint17h374d5eaa0fc5b402E;
	.scl	2;
	.type	32;
	.endef
	.section	.text,"xr",one_only,_ZN102_$LT$core..iter..adapters..map..Map$LT$I$C$F$GT$$u20$as$u20$core..iter..traits..iterator..Iterator$GT$9size_hint17h374d5eaa0fc5b402E
	.globl	_ZN102_$LT$core..iter..adapters..map..Map$LT$I$C$F$GT$$u20$as$u20$core..iter..traits..iterator..Iterator$GT$9size_hint17h374d5eaa0fc5b402E
	.p2align	4, 0x90
_ZN102_$LT$core..iter..adapters..map..Map$LT$I$C$F$GT$$u20$as$u20$core..iter..traits..iterator..Iterator$GT$9size_hint17h374d5eaa0fc5b402E:
.Lfunc_begin15:
	.cv_func_id 15
	.cv_loc	15 3 107 0
.seh_proc _ZN102_$LT$core..iter..adapters..map..Map$LT$I$C$F$GT$$u20$as$u20$core..iter..traits..iterator..Iterator$GT$9size_hint17h374d5eaa0fc5b402E
	subq	$56, %rsp
	.seh_stackalloc 56
	.seh_endprologue
	movq	%rcx, %rax
	movq	%rax, 40(%rsp)
	movq	%rdx, 48(%rsp)
.Ltmp104:
	.cv_loc	15 3 108 0
	callq	_ZN99_$LT$core..iter..sources..once..Once$LT$T$GT$$u20$as$u20$core..iter..traits..iterator..Iterator$GT$9size_hint17h5836f73ae3607225E
	.cv_loc	15 3 109 0
	movq	40(%rsp), %rax
	addq	$56, %rsp
	retq
.Ltmp105:
.Lfunc_end15:
	.seh_endproc

	.def	_ZN102_$LT$core..iter..adapters..map..Map$LT$I$C$F$GT$$u20$as$u20$core..iter..traits..iterator..Iterator$GT$9size_hint17hd80320cfc2bc6a75E;
	.scl	2;
	.type	32;
	.endef
	.section	.text,"xr",one_only,_ZN102_$LT$core..iter..adapters..map..Map$LT$I$C$F$GT$$u20$as$u20$core..iter..traits..iterator..Iterator$GT$9size_hint17hd80320cfc2bc6a75E
	.globl	_ZN102_$LT$core..iter..adapters..map..Map$LT$I$C$F$GT$$u20$as$u20$core..iter..traits..iterator..Iterator$GT$9size_hint17hd80320cfc2bc6a75E
	.p2align	4, 0x90
_ZN102_$LT$core..iter..adapters..map..Map$LT$I$C$F$GT$$u20$as$u20$core..iter..traits..iterator..Iterator$GT$9size_hint17hd80320cfc2bc6a75E:
.Lfunc_begin16:
	.cv_func_id 16
	.cv_loc	16 3 107 0
.seh_proc _ZN102_$LT$core..iter..adapters..map..Map$LT$I$C$F$GT$$u20$as$u20$core..iter..traits..iterator..Iterator$GT$9size_hint17hd80320cfc2bc6a75E
	subq	$56, %rsp
	.seh_stackalloc 56
	.seh_endprologue
	movq	%rcx, %rax
	movq	%rax, 40(%rsp)
	movq	%rdx, 48(%rsp)
.Ltmp106:
	.cv_loc	16 3 108 0
	callq	_ZN102_$LT$core..iter..adapters..map..Map$LT$I$C$F$GT$$u20$as$u20$core..iter..traits..iterator..Iterator$GT$9size_hint17h374d5eaa0fc5b402E
	.cv_loc	16 3 109 0
	movq	40(%rsp), %rax
	addq	$56, %rsp
	retq
.Ltmp107:
.Lfunc_end16:
	.seh_endproc

	.def	_ZN106_$LT$core..iter..adapters..chain..Chain$LT$A$C$B$GT$$u20$as$u20$core..iter..traits..iterator..Iterator$GT$4fold17h2fc87058678364fbE;
	.scl	2;
	.type	32;
	.endef
	.section	.text,"xr",one_only,_ZN106_$LT$core..iter..adapters..chain..Chain$LT$A$C$B$GT$$u20$as$u20$core..iter..traits..iterator..Iterator$GT$4fold17h2fc87058678364fbE
	.globl	_ZN106_$LT$core..iter..adapters..chain..Chain$LT$A$C$B$GT$$u20$as$u20$core..iter..traits..iterator..Iterator$GT$4fold17h2fc87058678364fbE
	.p2align	4, 0x90
_ZN106_$LT$core..iter..adapters..chain..Chain$LT$A$C$B$GT$$u20$as$u20$core..iter..traits..iterator..Iterator$GT$4fold17h2fc87058678364fbE:
.Lfunc_begin17:
	.cv_func_id 17
	.cv_file	4 "/rustc/fe5b13d681f25ee6474be29d748c65adcd91f69e\\library\\core\\src\\iter\\adapters\\chain.rs" "3E040CC8D925BED9919A4FD6C42F0F7E849E4ECF" 2
	.cv_loc	17 4 114 0
.seh_proc _ZN106_$LT$core..iter..adapters..chain..Chain$LT$A$C$B$GT$$u20$as$u20$core..iter..traits..iterator..Iterator$GT$4fold17h2fc87058678364fbE
	.seh_handler __CxxFrameHandler3, @unwind, @except
	pushq	%rbp
	.seh_pushreg %rbp
	subq	$176, %rsp
	.seh_stackalloc 176
	leaq	128(%rsp), %rbp
	.seh_setframe %rbp, 128
	.seh_endprologue
	movq	$-2, 40(%rbp)
	movq	%rcx, -96(%rbp)
.Ltmp114:
	movq	%rdx, -88(%rbp)
.Ltmp115:
	.cv_loc	17 4 118 0
	movb	$0, 38(%rbp)
	movb	$0, 39(%rbp)
	movb	$0, 37(%rbp)
	movb	$1, 38(%rbp)
	movb	$1, 39(%rbp)
	movb	$1, 37(%rbp)
	movl	40(%rcx), %eax
	cmpq	$1, %rax
.Ltmp116:
	jne	.LBB17_2
.Ltmp117:
	movq	-96(%rbp), %rax
	movb	$0, 39(%rbp)
	movl	44(%rax), %eax
	movl	%eax, -80(%rbp)
	.cv_loc	17 4 119 0
	movl	-80(%rbp), %eax
	movl	%eax, -72(%rbp)
	movl	-72(%rbp), %ecx
.Ltmp108:
	leaq	-88(%rbp), %rdx
	callq	_ZN4core4iter6traits8iterator8Iterator4fold17h432925a9403d2f63E
.Ltmp109:
	jmp	.LBB17_4
.Ltmp118:
.LBB17_2:
	.cv_loc	17 4 121 0
	movq	-96(%rbp), %rax
	movq	(%rax), %rdx
	subq	$3, %rdx
	movl	$1, %eax
	xorl	%ecx, %ecx
	cmpq	$0, %rdx
	cmoveq	%rcx, %rax
	cmpq	$1, %rax
	je	.LBB17_5
	jmp	.LBB17_6
.Ltmp119:
.LBB17_4:
	.cv_loc	17 4 118 0
	jmp	.LBB17_2
.Ltmp120:
.LBB17_5:
	.cv_loc	17 4 121 0
	movq	-96(%rbp), %rax
	movb	$0, 38(%rbp)
	movq	32(%rax), %rcx
	movq	%rcx, -32(%rbp)
	vmovups	(%rax), %ymm0
	vmovups	%ymm0, -64(%rbp)
	.cv_loc	17 4 122 0
	movq	-32(%rbp), %rax
	movq	%rax, 16(%rbp)
	vmovups	-64(%rbp), %ymm0
	vmovups	%ymm0, -16(%rbp)
	movb	$0, 37(%rbp)
	movq	-88(%rbp), %rdx
.Ltmp110:
	leaq	-16(%rbp), %rcx
	vzeroupper
	callq	_ZN102_$LT$core..iter..adapters..map..Map$LT$I$C$F$GT$$u20$as$u20$core..iter..traits..iterator..Iterator$GT$4fold17h3f5fab4f08591d09E
.Ltmp111:
	jmp	.LBB17_7
.Ltmp121:
.LBB17_6:
	.cv_loc	17 4 125 0
	testb	$1, 37(%rbp)
	jne	.LBB17_12
	jmp	.LBB17_11
.Ltmp122:
.LBB17_7:
	.cv_loc	17 4 121 0
	jmp	.LBB17_6
.Ltmp123:
.LBB17_11:
	.cv_loc	17 4 125 0
	movq	-96(%rbp), %rax
	movl	40(%rax), %eax
	cmpq	$1, %rax
	je	.LBB17_21
	jmp	.LBB17_22
.Ltmp124:
.LBB17_12:
	jmp	.LBB17_11
.Ltmp125:
.LBB17_21:
	testb	$1, 39(%rbp)
	jne	.LBB17_23
.Ltmp126:
.LBB17_22:
	movq	-96(%rbp), %rax
	movq	(%rax), %rdx
	subq	$3, %rdx
	movl	$1, %eax
	xorl	%ecx, %ecx
	cmpq	$0, %rdx
	cmoveq	%rcx, %rax
	cmpq	$1, %rax
	je	.LBB17_29
	jmp	.LBB17_30
.Ltmp127:
.LBB17_23:
	movq	-96(%rbp), %rcx
	addq	$44, %rcx
.Ltmp112:
	callq	_ZN4core3ptr83drop_in_place$LT$core..iter..sources..once..Once$LT$proc_macro..TokenStream$GT$$GT$17hcacfdc131e1dc6abE
.Ltmp113:
	jmp	.LBB17_22
.Ltmp128:
.LBB17_29:
	testb	$1, 38(%rbp)
	jne	.LBB17_31
.Ltmp129:
.LBB17_30:
	addq	$176, %rsp
	popq	%rbp
	retq
.Ltmp130:
.LBB17_31:
	movq	-96(%rbp), %rcx
	callq	_ZN4core3ptr430drop_in_place$LT$core..iter..adapters..map..Map$LT$core..iter..adapters..map..Map$LT$core..iter..sources..once..Once$LT$proc_macro2..TokenStream$GT$$C$$LT$proc_macro2..TokenStream$u20$as$u20$core..iter..traits..collect..Extend$LT$proc_macro2..TokenStream$GT$$GT$..extend$LT$core..iter..sources..once..Once$LT$proc_macro2..TokenStream$GT$$GT$..$u7b$$u7b$closure$u7d$$u7d$$GT$$C$proc_macro2..imp..TokenStream..unwrap_nightly$GT$$GT$17hedefc2a66e81a46bE
	jmp	.LBB17_30
.Ltmp131:
	.seh_handlerdata
	.long	($cppxdata$_ZN106_$LT$core..iter..adapters..chain..Chain$LT$A$C$B$GT$$u20$as$u20$core..iter..traits..iterator..Iterator$GT$4fold17h2fc87058678364fbE)@IMGREL
	.section	.text,"xr",one_only,_ZN106_$LT$core..iter..adapters..chain..Chain$LT$A$C$B$GT$$u20$as$u20$core..iter..traits..iterator..Iterator$GT$4fold17h2fc87058678364fbE
	.seh_endproc
	.def	"?dtor$3@?0?_ZN106_$LT$core..iter..adapters..chain..Chain$LT$A$C$B$GT$$u20$as$u20$core..iter..traits..iterator..Iterator$GT$4fold17h2fc87058678364fbE@4HA";
	.scl	3;
	.type	32;
	.endef
	.p2align	4, 0x90
"?dtor$3@?0?_ZN106_$LT$core..iter..adapters..chain..Chain$LT$A$C$B$GT$$u20$as$u20$core..iter..traits..iterator..Iterator$GT$4fold17h2fc87058678364fbE@4HA":
.seh_proc "?dtor$3@?0?_ZN106_$LT$core..iter..adapters..chain..Chain$LT$A$C$B$GT$$u20$as$u20$core..iter..traits..iterator..Iterator$GT$4fold17h2fc87058678364fbE@4HA"
.LBB17_3:
	movq	%rdx, 16(%rsp)
	pushq	%rbp
	.seh_pushreg %rbp
	subq	$32, %rsp
	.seh_stackalloc 32
	leaq	128(%rdx), %rbp
.Ltmp132:
	.seh_endprologue
	testb	$1, 37(%rbp)
	jne	.LBB17_10
	jmp	.LBB17_9
.LBB17_9:
	addq	$32, %rsp
	popq	%rbp
	retq
.LBB17_10:
	addq	$32, %rsp
	popq	%rbp
	retq
	.seh_handlerdata
	.section	.text,"xr",one_only,_ZN106_$LT$core..iter..adapters..chain..Chain$LT$A$C$B$GT$$u20$as$u20$core..iter..traits..iterator..Iterator$GT$4fold17h2fc87058678364fbE
	.seh_endproc
	.def	"?dtor$8@?0?_ZN106_$LT$core..iter..adapters..chain..Chain$LT$A$C$B$GT$$u20$as$u20$core..iter..traits..iterator..Iterator$GT$4fold17h2fc87058678364fbE@4HA";
	.scl	3;
	.type	32;
	.endef
	.p2align	4, 0x90
"?dtor$8@?0?_ZN106_$LT$core..iter..adapters..chain..Chain$LT$A$C$B$GT$$u20$as$u20$core..iter..traits..iterator..Iterator$GT$4fold17h2fc87058678364fbE@4HA":
.seh_proc "?dtor$8@?0?_ZN106_$LT$core..iter..adapters..chain..Chain$LT$A$C$B$GT$$u20$as$u20$core..iter..traits..iterator..Iterator$GT$4fold17h2fc87058678364fbE@4HA"
.LBB17_8:
	movq	%rdx, 16(%rsp)
	pushq	%rbp
	.seh_pushreg %rbp
	subq	$32, %rsp
	.seh_stackalloc 32
	leaq	128(%rdx), %rbp
	.seh_endprologue
	movq	-96(%rbp), %rax
	movl	40(%rax), %eax
	cmpq	$1, %rax
	je	.LBB17_13
	jmp	.LBB17_14
.LBB17_13:
	testb	$1, 39(%rbp)
	jne	.LBB17_15
.LBB17_14:
	movq	-96(%rbp), %rax
	movq	(%rax), %rdx
	subq	$3, %rdx
	movl	$1, %eax
	xorl	%ecx, %ecx
	cmpq	$0, %rdx
	cmoveq	%rcx, %rax
	cmpq	$1, %rax
	je	.LBB17_16
	jmp	.LBB17_18
.LBB17_15:
	movq	-96(%rbp), %rcx
	addq	$40, %rcx
	addq	$4, %rcx
	callq	_ZN4core3ptr83drop_in_place$LT$core..iter..sources..once..Once$LT$proc_macro..TokenStream$GT$$GT$17hcacfdc131e1dc6abE
	jmp	.LBB17_14
.LBB17_16:
	testb	$1, 38(%rbp)
	jne	.LBB17_20
	jmp	.LBB17_19
.LBB17_18:
	addq	$32, %rsp
	popq	%rbp
	retq
.LBB17_19:
	addq	$32, %rsp
	popq	%rbp
	retq
.LBB17_20:
	movq	-96(%rbp), %rcx
	callq	_ZN4core3ptr430drop_in_place$LT$core..iter..adapters..map..Map$LT$core..iter..adapters..map..Map$LT$core..iter..sources..once..Once$LT$proc_macro2..TokenStream$GT$$C$$LT$proc_macro2..TokenStream$u20$as$u20$core..iter..traits..collect..Extend$LT$proc_macro2..TokenStream$GT$$GT$..extend$LT$core..iter..sources..once..Once$LT$proc_macro2..TokenStream$GT$$GT$..$u7b$$u7b$closure$u7d$$u7d$$GT$$C$proc_macro2..imp..TokenStream..unwrap_nightly$GT$$GT$17hedefc2a66e81a46bE
	nop
	addq	$32, %rsp
	popq	%rbp
	retq
	.seh_handlerdata
	.section	.text,"xr",one_only,_ZN106_$LT$core..iter..adapters..chain..Chain$LT$A$C$B$GT$$u20$as$u20$core..iter..traits..iterator..Iterator$GT$4fold17h2fc87058678364fbE
	.seh_endproc
	.def	"?dtor$17@?0?_ZN106_$LT$core..iter..adapters..chain..Chain$LT$A$C$B$GT$$u20$as$u20$core..iter..traits..iterator..Iterator$GT$4fold17h2fc87058678364fbE@4HA";
	.scl	3;
	.type	32;
	.endef
	.p2align	4, 0x90
"?dtor$17@?0?_ZN106_$LT$core..iter..adapters..chain..Chain$LT$A$C$B$GT$$u20$as$u20$core..iter..traits..iterator..Iterator$GT$4fold17h2fc87058678364fbE@4HA":
.seh_proc "?dtor$17@?0?_ZN106_$LT$core..iter..adapters..chain..Chain$LT$A$C$B$GT$$u20$as$u20$core..iter..traits..iterator..Iterator$GT$4fold17h2fc87058678364fbE@4HA"
.LBB17_17:
	movq	%rdx, 16(%rsp)
	pushq	%rbp
	.seh_pushreg %rbp
	subq	$32, %rsp
	.seh_stackalloc 32
	leaq	128(%rdx), %rbp
	.seh_endprologue
	.cv_loc	17 4 114 0
	addq	$32, %rsp
	popq	%rbp
	retq
	.seh_handlerdata
	.section	.text,"xr",one_only,_ZN106_$LT$core..iter..adapters..chain..Chain$LT$A$C$B$GT$$u20$as$u20$core..iter..traits..iterator..Iterator$GT$4fold17h2fc87058678364fbE
	.seh_endproc
	.def	"?dtor$24@?0?_ZN106_$LT$core..iter..adapters..chain..Chain$LT$A$C$B$GT$$u20$as$u20$core..iter..traits..iterator..Iterator$GT$4fold17h2fc87058678364fbE@4HA";
	.scl	3;
	.type	32;
	.endef
	.p2align	4, 0x90
"?dtor$24@?0?_ZN106_$LT$core..iter..adapters..chain..Chain$LT$A$C$B$GT$$u20$as$u20$core..iter..traits..iterator..Iterator$GT$4fold17h2fc87058678364fbE@4HA":
.seh_proc "?dtor$24@?0?_ZN106_$LT$core..iter..adapters..chain..Chain$LT$A$C$B$GT$$u20$as$u20$core..iter..traits..iterator..Iterator$GT$4fold17h2fc87058678364fbE@4HA"
.LBB17_24:
.Ltmp133:
	movq	%rdx, 16(%rsp)
	pushq	%rbp
	.seh_pushreg %rbp
	subq	$32, %rsp
	.seh_stackalloc 32
	leaq	128(%rdx), %rbp
.Ltmp134:
	.seh_endprologue
	movq	-96(%rbp), %rax
	.cv_loc	17 4 125 0
	movq	(%rax), %rdx
	subq	$3, %rdx
	movl	$1, %eax
	xorl	%ecx, %ecx
	cmpq	$0, %rdx
	cmoveq	%rcx, %rax
	cmpq	$1, %rax
	jne	.LBB17_26
	testb	$1, 38(%rbp)
	jne	.LBB17_28
	jmp	.LBB17_27
.LBB17_26:
	addq	$32, %rsp
	popq	%rbp
	retq
.LBB17_27:
	addq	$32, %rsp
	popq	%rbp
	retq
.LBB17_28:
	movq	-96(%rbp), %rcx
	callq	_ZN4core3ptr430drop_in_place$LT$core..iter..adapters..map..Map$LT$core..iter..adapters..map..Map$LT$core..iter..sources..once..Once$LT$proc_macro2..TokenStream$GT$$C$$LT$proc_macro2..TokenStream$u20$as$u20$core..iter..traits..collect..Extend$LT$proc_macro2..TokenStream$GT$$GT$..extend$LT$core..iter..sources..once..Once$LT$proc_macro2..TokenStream$GT$$GT$..$u7b$$u7b$closure$u7d$$u7d$$GT$$C$proc_macro2..imp..TokenStream..unwrap_nightly$GT$$GT$17hedefc2a66e81a46bE
	nop
	addq	$32, %rsp
	popq	%rbp
	retq
.Ltmp135:
.Lfunc_end17:
	.seh_handlerdata
	.section	.text,"xr",one_only,_ZN106_$LT$core..iter..adapters..chain..Chain$LT$A$C$B$GT$$u20$as$u20$core..iter..traits..iterator..Iterator$GT$4fold17h2fc87058678364fbE
	.seh_endproc
	.section	.xdata,"dr",associative,_ZN106_$LT$core..iter..adapters..chain..Chain$LT$A$C$B$GT$$u20$as$u20$core..iter..traits..iterator..Iterator$GT$4fold17h2fc87058678364fbE
	.p2align	2
$cppxdata$_ZN106_$LT$core..iter..adapters..chain..Chain$LT$A$C$B$GT$$u20$as$u20$core..iter..traits..iterator..Iterator$GT$4fold17h2fc87058678364fbE:
	.long	429065506
	.long	4
	.long	($stateUnwindMap$_ZN106_$LT$core..iter..adapters..chain..Chain$LT$A$C$B$GT$$u20$as$u20$core..iter..traits..iterator..Iterator$GT$4fold17h2fc87058678364fbE)@IMGREL
	.long	0
	.long	0
	.long	4
	.long	($ip2state$_ZN106_$LT$core..iter..adapters..chain..Chain$LT$A$C$B$GT$$u20$as$u20$core..iter..traits..iterator..Iterator$GT$4fold17h2fc87058678364fbE)@IMGREL
	.long	168
	.long	0
	.long	1
$stateUnwindMap$_ZN106_$LT$core..iter..adapters..chain..Chain$LT$A$C$B$GT$$u20$as$u20$core..iter..traits..iterator..Iterator$GT$4fold17h2fc87058678364fbE:
	.long	-1
	.long	"?dtor$17@?0?_ZN106_$LT$core..iter..adapters..chain..Chain$LT$A$C$B$GT$$u20$as$u20$core..iter..traits..iterator..Iterator$GT$4fold17h2fc87058678364fbE@4HA"@IMGREL
	.long	0
	.long	"?dtor$24@?0?_ZN106_$LT$core..iter..adapters..chain..Chain$LT$A$C$B$GT$$u20$as$u20$core..iter..traits..iterator..Iterator$GT$4fold17h2fc87058678364fbE@4HA"@IMGREL
	.long	0
	.long	"?dtor$8@?0?_ZN106_$LT$core..iter..adapters..chain..Chain$LT$A$C$B$GT$$u20$as$u20$core..iter..traits..iterator..Iterator$GT$4fold17h2fc87058678364fbE@4HA"@IMGREL
	.long	2
	.long	"?dtor$3@?0?_ZN106_$LT$core..iter..adapters..chain..Chain$LT$A$C$B$GT$$u20$as$u20$core..iter..traits..iterator..Iterator$GT$4fold17h2fc87058678364fbE@4HA"@IMGREL
$ip2state$_ZN106_$LT$core..iter..adapters..chain..Chain$LT$A$C$B$GT$$u20$as$u20$core..iter..traits..iterator..Iterator$GT$4fold17h2fc87058678364fbE:
	.long	.Lfunc_begin17@IMGREL
	.long	-1
	.long	.Ltmp108@IMGREL+1
	.long	3
	.long	.Ltmp112@IMGREL+1
	.long	1
	.long	.Ltmp113@IMGREL+1
	.long	-1
	.section	.text,"xr",one_only,_ZN106_$LT$core..iter..adapters..chain..Chain$LT$A$C$B$GT$$u20$as$u20$core..iter..traits..iterator..Iterator$GT$4fold17h2fc87058678364fbE

	.def	_ZN106_$LT$core..iter..adapters..flatten..Flatten$LT$I$GT$$u20$as$u20$core..iter..traits..iterator..Iterator$GT$4next17h80df5d59342d250cE;
	.scl	2;
	.type	32;
	.endef
	.section	.text,"xr",one_only,_ZN106_$LT$core..iter..adapters..flatten..Flatten$LT$I$GT$$u20$as$u20$core..iter..traits..iterator..Iterator$GT$4next17h80df5d59342d250cE
	.globl	_ZN106_$LT$core..iter..adapters..flatten..Flatten$LT$I$GT$$u20$as$u20$core..iter..traits..iterator..Iterator$GT$4next17h80df5d59342d250cE
	.p2align	4, 0x90
_ZN106_$LT$core..iter..adapters..flatten..Flatten$LT$I$GT$$u20$as$u20$core..iter..traits..iterator..Iterator$GT$4next17h80df5d59342d250cE:
.Lfunc_begin18:
	.cv_func_id 18
	.cv_file	5 "/rustc/fe5b13d681f25ee6474be29d748c65adcd91f69e\\library\\core\\src\\iter\\adapters\\flatten.rs" "C56EB5490FCCF6AA07AE5205026CBF6A0D8552FC" 2
	.cv_loc	18 5 191 0
.seh_proc _ZN106_$LT$core..iter..adapters..flatten..Flatten$LT$I$GT$$u20$as$u20$core..iter..traits..iterator..Iterator$GT$4next17h80df5d59342d250cE
	subq	$56, %rsp
	.seh_stackalloc 56
	.seh_endprologue
	movq	%rcx, %rax
	movq	%rax, 40(%rsp)
	movq	%rdx, 48(%rsp)
.Ltmp136:
	.cv_loc	18 5 192 0
	callq	_ZN116_$LT$core..iter..adapters..flatten..FlattenCompat$LT$I$C$U$GT$$u20$as$u20$core..iter..traits..iterator..Iterator$GT$4next17h9beefbdd48a83f2bE
	.cv_loc	18 5 193 0
	movq	40(%rsp), %rax
	addq	$56, %rsp
	retq
.Ltmp137:
.Lfunc_end18:
	.seh_endproc

	.def	_ZN106_$LT$core..iter..adapters..flatten..Flatten$LT$I$GT$$u20$as$u20$core..iter..traits..iterator..Iterator$GT$9size_hint17h409d7a8b6a12ef9cE;
	.scl	2;
	.type	32;
	.endef
	.section	.text,"xr",one_only,_ZN106_$LT$core..iter..adapters..flatten..Flatten$LT$I$GT$$u20$as$u20$core..iter..traits..iterator..Iterator$GT$9size_hint17h409d7a8b6a12ef9cE
	.globl	_ZN106_$LT$core..iter..adapters..flatten..Flatten$LT$I$GT$$u20$as$u20$core..iter..traits..iterator..Iterator$GT$9size_hint17h409d7a8b6a12ef9cE
	.p2align	4, 0x90
_ZN106_$LT$core..iter..adapters..flatten..Flatten$LT$I$GT$$u20$as$u20$core..iter..traits..iterator..Iterator$GT$9size_hint17h409d7a8b6a12ef9cE:
.Lfunc_begin19:
	.cv_func_id 19
	.cv_loc	19 5 196 0
.seh_proc _ZN106_$LT$core..iter..adapters..flatten..Flatten$LT$I$GT$$u20$as$u20$core..iter..traits..iterator..Iterator$GT$9size_hint17h409d7a8b6a12ef9cE
	subq	$56, %rsp
	.seh_stackalloc 56
	.seh_endprologue
	movq	%rcx, %rax
	movq	%rax, 40(%rsp)
	movq	%rdx, 48(%rsp)
.Ltmp138:
	.cv_loc	19 5 197 0
	callq	_ZN116_$LT$core..iter..adapters..flatten..FlattenCompat$LT$I$C$U$GT$$u20$as$u20$core..iter..traits..iterator..Iterator$GT$9size_hint17hf464a40ad4dded58E
	.cv_loc	19 5 198 0
	movq	40(%rsp), %rax
	addq	$56, %rsp
	retq
.Ltmp139:
.Lfunc_end19:
	.seh_endproc

	.def	_ZN107_$LT$core..iter..adapters..fuse..Fuse$LT$I$GT$$u20$as$u20$core..iter..adapters..fuse..FuseImpl$LT$I$GT$$GT$4next17h5cee0529bfda5aefE;
	.scl	2;
	.type	32;
	.endef
	.section	.text,"xr",one_only,_ZN107_$LT$core..iter..adapters..fuse..Fuse$LT$I$GT$$u20$as$u20$core..iter..adapters..fuse..FuseImpl$LT$I$GT$$GT$4next17h5cee0529bfda5aefE
	.globl	_ZN107_$LT$core..iter..adapters..fuse..Fuse$LT$I$GT$$u20$as$u20$core..iter..adapters..fuse..FuseImpl$LT$I$GT$$GT$4next17h5cee0529bfda5aefE
	.p2align	4, 0x90
_ZN107_$LT$core..iter..adapters..fuse..Fuse$LT$I$GT$$u20$as$u20$core..iter..adapters..fuse..FuseImpl$LT$I$GT$$GT$4next17h5cee0529bfda5aefE:
.Lfunc_begin20:
	.cv_func_id 20
	.cv_loc	20 2 364 0
.seh_proc _ZN107_$LT$core..iter..adapters..fuse..Fuse$LT$I$GT$$u20$as$u20$core..iter..adapters..fuse..FuseImpl$LT$I$GT$$GT$4next17h5cee0529bfda5aefE
	subq	$72, %rsp
	.seh_stackalloc 72
	.seh_endprologue
	movq	%rcx, 40(%rsp)
	movq	%rcx, 56(%rsp)
.Ltmp140:
	.cv_loc	20 2 365 0
	movq	(%rcx), %rax
	addq	$-3, %rax
	setne	%al
	movzbl	%al, %eax
	je	.LBB20_2
	jmp	.LBB20_6
.LBB20_6:
	jmp	.LBB20_3
	ud2
.LBB20_2:
	movq	$0, 48(%rsp)
	jmp	.LBB20_5
.LBB20_3:
	movq	40(%rsp), %rcx
	movq	%rcx, 64(%rsp)
.Ltmp141:
	.cv_loc	20 2 365 0
	callq	_ZN102_$LT$core..iter..adapters..map..Map$LT$I$C$F$GT$$u20$as$u20$core..iter..traits..iterator..Iterator$GT$4next17h953372cce72951b2E
	movq	%rax, 48(%rsp)
.Ltmp142:
	.cv_loc	20 2 365 0
	jmp	.LBB20_5
.LBB20_5:
	.cv_loc	20 2 366 0
	movq	48(%rsp), %rax
	addq	$72, %rsp
	retq
.Ltmp143:
.Lfunc_end20:
	.seh_endproc

	.def	_ZN110_$LT$proc_macro..TokenStream$u20$as$u20$core..iter..traits..collect..Extend$LT$proc_macro..TokenStream$GT$$GT$6extend17hb6630a6cd8e7af72E;
	.scl	2;
	.type	32;
	.endef
	.section	.text,"xr",one_only,_ZN110_$LT$proc_macro..TokenStream$u20$as$u20$core..iter..traits..collect..Extend$LT$proc_macro..TokenStream$GT$$GT$6extend17hb6630a6cd8e7af72E
	.globl	_ZN110_$LT$proc_macro..TokenStream$u20$as$u20$core..iter..traits..collect..Extend$LT$proc_macro..TokenStream$GT$$GT$6extend17hb6630a6cd8e7af72E
	.p2align	4, 0x90
_ZN110_$LT$proc_macro..TokenStream$u20$as$u20$core..iter..traits..collect..Extend$LT$proc_macro..TokenStream$GT$$GT$6extend17hb6630a6cd8e7af72E:
.Lfunc_begin21:
	.cv_func_id 21
	.cv_file	6 "/rustc/fe5b13d681f25ee6474be29d748c65adcd91f69e\\library\\proc_macro\\src\\lib.rs" "49A05E4569F53E39AFF41D6DEEB0367742A30713" 2
	.cv_loc	21 6 255 0
.seh_proc _ZN110_$LT$proc_macro..TokenStream$u20$as$u20$core..iter..traits..collect..Extend$LT$proc_macro..TokenStream$GT$$GT$6extend17hb6630a6cd8e7af72E
	.seh_handler __CxxFrameHandler3, @unwind, @except
	pushq	%rbp
	.seh_pushreg %rbp
	subq	$240, %rsp
	.seh_stackalloc 240
	leaq	128(%rsp), %rbp
	.seh_setframe %rbp, 128
	.seh_endprologue
	movq	$-2, 104(%rbp)
	movq	%rdx, -72(%rbp)
.Ltmp156:
	movq	%rcx, -64(%rbp)
	movq	%rcx, 80(%rbp)
.Ltmp157:
	.cv_loc	21 6 257 0
	movb	$0, 79(%rbp)
	movb	$1, 79(%rbp)
.Ltmp144:
	callq	_ZN10proc_macro11TokenStream3new17ha8cff9fb3873a376E
.Ltmp158:
.Ltmp145:
	movl	%eax, -52(%rbp)
.Ltmp159:
	jmp	.LBB21_2
.Ltmp160:
.LBB21_2:
	movq	-64(%rbp), %rcx
	movl	-52(%rbp), %eax
	movl	%eax, 88(%rbp)
	movl	88(%rbp), %eax
	movl	%eax, 24(%rbp)
	movl	24(%rbp), %edx
.Ltmp146:
	callq	_ZN4core3mem7replace17h6d808f7d961aca0fE
.Ltmp147:
	movl	%eax, -76(%rbp)
	jmp	.LBB21_3
.Ltmp161:
.LBB21_3:
	movl	-76(%rbp), %eax
	movl	%eax, 92(%rbp)
	movl	92(%rbp), %eax
	movl	%eax, 16(%rbp)
	movl	16(%rbp), %ecx
.Ltmp148:
	callq	_ZN4core4iter7sources4once4once17h3643802ec8cb0ac8E
.Ltmp149:
	movl	%eax, -80(%rbp)
	jmp	.LBB21_4
.Ltmp162:
.LBB21_4:
	movq	-72(%rbp), %rax
	movl	-80(%rbp), %ecx
	movl	%ecx, 96(%rbp)
	movl	96(%rbp), %ecx
	movl	%ecx, 8(%rbp)
	movb	$0, 79(%rbp)
	movq	32(%rax), %rcx
	movq	%rcx, 64(%rbp)
	vmovups	(%rax), %ymm0
	vmovups	%ymm0, 32(%rbp)
	movl	8(%rbp), %edx
.Ltmp150:
	leaq	-40(%rbp), %rcx
	leaq	32(%rbp), %r8
	vzeroupper
	callq	_ZN4core4iter6traits8iterator8Iterator5chain17h853f28922e5f5828E
.Ltmp151:
	jmp	.LBB21_5
.Ltmp163:
.LBB21_5:
.Ltmp152:
	leaq	-40(%rbp), %rcx
	callq	_ZN4core4iter6traits8iterator8Iterator7collect17h5cb33dd5b4321809E
.Ltmp153:
	movl	%eax, -84(%rbp)
	jmp	.LBB21_6
.Ltmp164:
.LBB21_6:
	movq	-64(%rbp), %rcx
	movl	-84(%rbp), %eax
	movl	%eax, 100(%rbp)
	movl	100(%rbp), %eax
	movl	%eax, -48(%rbp)
.Ltmp154:
	callq	_ZN4core3ptr44drop_in_place$LT$proc_macro..TokenStream$GT$17h6023f366e8e31796E
.Ltmp155:
	jmp	.LBB21_8
.Ltmp165:
.LBB21_8:
	movq	-64(%rbp), %rax
	movl	-48(%rbp), %ecx
	movl	%ecx, (%rax)
	.cv_loc	21 6 258 0
	addq	$240, %rsp
	popq	%rbp
	retq
.Ltmp166:
	.seh_handlerdata
	.long	($cppxdata$_ZN110_$LT$proc_macro..TokenStream$u20$as$u20$core..iter..traits..collect..Extend$LT$proc_macro..TokenStream$GT$$GT$6extend17hb6630a6cd8e7af72E)@IMGREL
	.section	.text,"xr",one_only,_ZN110_$LT$proc_macro..TokenStream$u20$as$u20$core..iter..traits..collect..Extend$LT$proc_macro..TokenStream$GT$$GT$6extend17hb6630a6cd8e7af72E
	.seh_endproc
	.def	"?dtor$1@?0?_ZN110_$LT$proc_macro..TokenStream$u20$as$u20$core..iter..traits..collect..Extend$LT$proc_macro..TokenStream$GT$$GT$6extend17hb6630a6cd8e7af72E@4HA";
	.scl	3;
	.type	32;
	.endef
	.p2align	4, 0x90
"?dtor$1@?0?_ZN110_$LT$proc_macro..TokenStream$u20$as$u20$core..iter..traits..collect..Extend$LT$proc_macro..TokenStream$GT$$GT$6extend17hb6630a6cd8e7af72E@4HA":
.seh_proc "?dtor$1@?0?_ZN110_$LT$proc_macro..TokenStream$u20$as$u20$core..iter..traits..collect..Extend$LT$proc_macro..TokenStream$GT$$GT$6extend17hb6630a6cd8e7af72E@4HA"
.LBB21_1:
	movq	%rdx, 16(%rsp)
	pushq	%rbp
	.seh_pushreg %rbp
	subq	$32, %rsp
	.seh_stackalloc 32
	leaq	128(%rdx), %rbp
	.seh_endprologue
	testb	$1, 79(%rbp)
	jne	.LBB21_10
	jmp	.LBB21_9
.LBB21_9:
	.cv_loc	21 6 255 0
	addq	$32, %rsp
	popq	%rbp
	retq
.LBB21_10:
	.cv_loc	21 6 258 0
	movq	-72(%rbp), %rcx
	callq	_ZN4core3ptr430drop_in_place$LT$core..iter..adapters..map..Map$LT$core..iter..adapters..map..Map$LT$core..iter..sources..once..Once$LT$proc_macro2..TokenStream$GT$$C$$LT$proc_macro2..TokenStream$u20$as$u20$core..iter..traits..collect..Extend$LT$proc_macro2..TokenStream$GT$$GT$..extend$LT$core..iter..sources..once..Once$LT$proc_macro2..TokenStream$GT$$GT$..$u7b$$u7b$closure$u7d$$u7d$$GT$$C$proc_macro2..imp..TokenStream..unwrap_nightly$GT$$GT$17hedefc2a66e81a46bE
	jmp	.LBB21_9
	.seh_handlerdata
	.section	.text,"xr",one_only,_ZN110_$LT$proc_macro..TokenStream$u20$as$u20$core..iter..traits..collect..Extend$LT$proc_macro..TokenStream$GT$$GT$6extend17hb6630a6cd8e7af72E
	.seh_endproc
	.def	"?dtor$7@?0?_ZN110_$LT$proc_macro..TokenStream$u20$as$u20$core..iter..traits..collect..Extend$LT$proc_macro..TokenStream$GT$$GT$6extend17hb6630a6cd8e7af72E@4HA";
	.scl	3;
	.type	32;
	.endef
	.p2align	4, 0x90
"?dtor$7@?0?_ZN110_$LT$proc_macro..TokenStream$u20$as$u20$core..iter..traits..collect..Extend$LT$proc_macro..TokenStream$GT$$GT$6extend17hb6630a6cd8e7af72E@4HA":
.seh_proc "?dtor$7@?0?_ZN110_$LT$proc_macro..TokenStream$u20$as$u20$core..iter..traits..collect..Extend$LT$proc_macro..TokenStream$GT$$GT$6extend17hb6630a6cd8e7af72E@4HA"
.LBB21_7:
.Ltmp167:
	movq	%rdx, 16(%rsp)
	pushq	%rbp
	.seh_pushreg %rbp
	subq	$32, %rsp
	.seh_stackalloc 32
	leaq	128(%rdx), %rbp
.Ltmp168:
	.seh_endprologue
	movq	-64(%rbp), %rax
	.cv_loc	21 6 257 0
	movl	-48(%rbp), %ecx
	movl	%ecx, (%rax)
	addq	$32, %rsp
	popq	%rbp
	retq
.Ltmp169:
.Lfunc_end21:
	.seh_handlerdata
	.section	.text,"xr",one_only,_ZN110_$LT$proc_macro..TokenStream$u20$as$u20$core..iter..traits..collect..Extend$LT$proc_macro..TokenStream$GT$$GT$6extend17hb6630a6cd8e7af72E
	.seh_endproc
	.section	.xdata,"dr",associative,_ZN110_$LT$proc_macro..TokenStream$u20$as$u20$core..iter..traits..collect..Extend$LT$proc_macro..TokenStream$GT$$GT$6extend17hb6630a6cd8e7af72E
	.p2align	2
$cppxdata$_ZN110_$LT$proc_macro..TokenStream$u20$as$u20$core..iter..traits..collect..Extend$LT$proc_macro..TokenStream$GT$$GT$6extend17hb6630a6cd8e7af72E:
	.long	429065506
	.long	2
	.long	($stateUnwindMap$_ZN110_$LT$proc_macro..TokenStream$u20$as$u20$core..iter..traits..collect..Extend$LT$proc_macro..TokenStream$GT$$GT$6extend17hb6630a6cd8e7af72E)@IMGREL
	.long	0
	.long	0
	.long	4
	.long	($ip2state$_ZN110_$LT$proc_macro..TokenStream$u20$as$u20$core..iter..traits..collect..Extend$LT$proc_macro..TokenStream$GT$$GT$6extend17hb6630a6cd8e7af72E)@IMGREL
	.long	232
	.long	0
	.long	1
$stateUnwindMap$_ZN110_$LT$proc_macro..TokenStream$u20$as$u20$core..iter..traits..collect..Extend$LT$proc_macro..TokenStream$GT$$GT$6extend17hb6630a6cd8e7af72E:
	.long	-1
	.long	"?dtor$1@?0?_ZN110_$LT$proc_macro..TokenStream$u20$as$u20$core..iter..traits..collect..Extend$LT$proc_macro..TokenStream$GT$$GT$6extend17hb6630a6cd8e7af72E@4HA"@IMGREL
	.long	0
	.long	"?dtor$7@?0?_ZN110_$LT$proc_macro..TokenStream$u20$as$u20$core..iter..traits..collect..Extend$LT$proc_macro..TokenStream$GT$$GT$6extend17hb6630a6cd8e7af72E@4HA"@IMGREL
$ip2state$_ZN110_$LT$proc_macro..TokenStream$u20$as$u20$core..iter..traits..collect..Extend$LT$proc_macro..TokenStream$GT$$GT$6extend17hb6630a6cd8e7af72E:
	.long	.Lfunc_begin21@IMGREL
	.long	-1
	.long	.Ltmp144@IMGREL+1
	.long	0
	.long	.Ltmp154@IMGREL+1
	.long	1
	.long	.Ltmp155@IMGREL+1
	.long	-1
	.section	.text,"xr",one_only,_ZN110_$LT$proc_macro..TokenStream$u20$as$u20$core..iter..traits..collect..Extend$LT$proc_macro..TokenStream$GT$$GT$6extend17hb6630a6cd8e7af72E

	.def	_ZN110_$LT$proc_macro2..TokenStream$u20$as$u20$core..iter..traits..collect..Extend$LT$proc_macro2..TokenTree$GT$$GT$6extend17h16be1c972c08d26aE;
	.scl	2;
	.type	32;
	.endef
	.section	.text,"xr",one_only,_ZN110_$LT$proc_macro2..TokenStream$u20$as$u20$core..iter..traits..collect..Extend$LT$proc_macro2..TokenTree$GT$$GT$6extend17h16be1c972c08d26aE
	.globl	_ZN110_$LT$proc_macro2..TokenStream$u20$as$u20$core..iter..traits..collect..Extend$LT$proc_macro2..TokenTree$GT$$GT$6extend17h16be1c972c08d26aE
	.p2align	4, 0x90
_ZN110_$LT$proc_macro2..TokenStream$u20$as$u20$core..iter..traits..collect..Extend$LT$proc_macro2..TokenTree$GT$$GT$6extend17h16be1c972c08d26aE:
.Lfunc_begin22:
	.cv_func_id 22
	.cv_file	7 "C:\\Users\\cires\\.cargo\\registry\\src\\github.com-1ecc6299db9ec823\\proc-macro2-1.0.71\\src\\lib.rs" "36A42F1DFCB9C1204925EE93FC966D42F235B870" 2
	.cv_loc	22 7 263 0
.seh_proc _ZN110_$LT$proc_macro2..TokenStream$u20$as$u20$core..iter..traits..collect..Extend$LT$proc_macro2..TokenTree$GT$$GT$6extend17h16be1c972c08d26aE
	subq	$104, %rsp
	.seh_stackalloc 104
	.seh_endprologue
	movq	%rcx, 96(%rsp)
.Ltmp170:
	movq	%rcx, 40(%rsp)
.Ltmp171:
	.cv_loc	22 7 264 0
	leaq	48(%rsp), %rcx
	movl	$48, %r8d
	callq	memcpy
.Ltmp172:
	movq	40(%rsp), %rcx
	leaq	48(%rsp), %rdx
	callq	_ZN115_$LT$proc_macro2..imp..TokenStream$u20$as$u20$core..iter..traits..collect..Extend$LT$proc_macro2..TokenTree$GT$$GT$6extend17h184816dcf72b22eeE
.Ltmp173:
	.cv_loc	22 7 265 0
	nop
	addq	$104, %rsp
	retq
.Ltmp174:
.Lfunc_end22:
	.seh_endproc

	.def	_ZN110_$LT$proc_macro2..TokenStream$u20$as$u20$core..iter..traits..collect..Extend$LT$proc_macro2..TokenTree$GT$$GT$6extend17h391c4ac1c5b8c61aE;
	.scl	2;
	.type	32;
	.endef
	.section	.text,"xr",one_only,_ZN110_$LT$proc_macro2..TokenStream$u20$as$u20$core..iter..traits..collect..Extend$LT$proc_macro2..TokenTree$GT$$GT$6extend17h391c4ac1c5b8c61aE
	.globl	_ZN110_$LT$proc_macro2..TokenStream$u20$as$u20$core..iter..traits..collect..Extend$LT$proc_macro2..TokenTree$GT$$GT$6extend17h391c4ac1c5b8c61aE
	.p2align	4, 0x90
_ZN110_$LT$proc_macro2..TokenStream$u20$as$u20$core..iter..traits..collect..Extend$LT$proc_macro2..TokenTree$GT$$GT$6extend17h391c4ac1c5b8c61aE:
.Lfunc_begin23:
	.cv_func_id 23
	.cv_loc	23 7 263 0
.seh_proc _ZN110_$LT$proc_macro2..TokenStream$u20$as$u20$core..iter..traits..collect..Extend$LT$proc_macro2..TokenTree$GT$$GT$6extend17h391c4ac1c5b8c61aE
	subq	$72, %rsp
	.seh_stackalloc 72
	.seh_endprologue
	movq	%rcx, 64(%rsp)
.Ltmp175:
	.cv_loc	23 7 264 0
	movq	(%rdx), %rax
	movq	%rax, 40(%rsp)
	movq	8(%rdx), %rax
	movq	%rax, 48(%rsp)
	movq	16(%rdx), %rax
	movq	%rax, 56(%rsp)
	leaq	40(%rsp), %rdx
.Ltmp176:
	callq	_ZN115_$LT$proc_macro2..imp..TokenStream$u20$as$u20$core..iter..traits..collect..Extend$LT$proc_macro2..TokenTree$GT$$GT$6extend17ha61ecdb9ed9ce99bE
.Ltmp177:
	.cv_loc	23 7 265 0
	nop
	addq	$72, %rsp
	retq
.Ltmp178:
.Lfunc_end23:
	.seh_endproc

	.def	_ZN110_$LT$proc_macro2..TokenStream$u20$as$u20$core..iter..traits..collect..Extend$LT$proc_macro2..TokenTree$GT$$GT$6extend17h4e3dba9de243a507E;
	.scl	2;
	.type	32;
	.endef
	.section	.text,"xr",one_only,_ZN110_$LT$proc_macro2..TokenStream$u20$as$u20$core..iter..traits..collect..Extend$LT$proc_macro2..TokenTree$GT$$GT$6extend17h4e3dba9de243a507E
	.globl	_ZN110_$LT$proc_macro2..TokenStream$u20$as$u20$core..iter..traits..collect..Extend$LT$proc_macro2..TokenTree$GT$$GT$6extend17h4e3dba9de243a507E
	.p2align	4, 0x90
_ZN110_$LT$proc_macro2..TokenStream$u20$as$u20$core..iter..traits..collect..Extend$LT$proc_macro2..TokenTree$GT$$GT$6extend17h4e3dba9de243a507E:
.Lfunc_begin24:
	.cv_func_id 24
	.cv_loc	24 7 263 0
.seh_proc _ZN110_$LT$proc_macro2..TokenStream$u20$as$u20$core..iter..traits..collect..Extend$LT$proc_macro2..TokenTree$GT$$GT$6extend17h4e3dba9de243a507E
	subq	$72, %rsp
	.seh_stackalloc 72
	.seh_endprologue
	movq	%rcx, 64(%rsp)
.Ltmp179:
	.cv_loc	24 7 264 0
	movq	(%rdx), %rax
	movq	%rax, 40(%rsp)
	movq	8(%rdx), %rax
	movq	%rax, 48(%rsp)
	movq	16(%rdx), %rax
	movq	%rax, 56(%rsp)
	leaq	40(%rsp), %rdx
.Ltmp180:
	callq	_ZN115_$LT$proc_macro2..imp..TokenStream$u20$as$u20$core..iter..traits..collect..Extend$LT$proc_macro2..TokenTree$GT$$GT$6extend17hd294775550bc7815E
.Ltmp181:
	.cv_loc	24 7 265 0
	nop
	addq	$72, %rsp
	retq
.Ltmp182:
.Lfunc_end24:
	.seh_endproc

	.def	_ZN110_$LT$proc_macro2..TokenStream$u20$as$u20$core..iter..traits..collect..Extend$LT$proc_macro2..TokenTree$GT$$GT$6extend17hf5aab5761e4e2500E;
	.scl	2;
	.type	32;
	.endef
	.section	.text,"xr",one_only,_ZN110_$LT$proc_macro2..TokenStream$u20$as$u20$core..iter..traits..collect..Extend$LT$proc_macro2..TokenTree$GT$$GT$6extend17hf5aab5761e4e2500E
	.globl	_ZN110_$LT$proc_macro2..TokenStream$u20$as$u20$core..iter..traits..collect..Extend$LT$proc_macro2..TokenTree$GT$$GT$6extend17hf5aab5761e4e2500E
	.p2align	4, 0x90
_ZN110_$LT$proc_macro2..TokenStream$u20$as$u20$core..iter..traits..collect..Extend$LT$proc_macro2..TokenTree$GT$$GT$6extend17hf5aab5761e4e2500E:
.Lfunc_begin25:
	.cv_func_id 25
	.cv_loc	25 7 263 0
.seh_proc _ZN110_$LT$proc_macro2..TokenStream$u20$as$u20$core..iter..traits..collect..Extend$LT$proc_macro2..TokenTree$GT$$GT$6extend17hf5aab5761e4e2500E
	subq	$104, %rsp
	.seh_stackalloc 104
	.seh_endprologue
	movq	%rcx, 96(%rsp)
.Ltmp183:
	movq	%rcx, 40(%rsp)
.Ltmp184:
	.cv_loc	25 7 264 0
	leaq	48(%rsp), %rcx
	movl	$48, %r8d
	callq	memcpy
.Ltmp185:
	movq	40(%rsp), %rcx
	leaq	48(%rsp), %rdx
	callq	_ZN115_$LT$proc_macro2..imp..TokenStream$u20$as$u20$core..iter..traits..collect..Extend$LT$proc_macro2..TokenTree$GT$$GT$6extend17hc4d11a999ab1b1acE
.Ltmp186:
	.cv_loc	25 7 265 0
	nop
	addq	$104, %rsp
	retq
.Ltmp187:
.Lfunc_end25:
	.seh_endproc

	.def	_ZN112_$LT$proc_macro2..TokenStream$u20$as$u20$core..iter..traits..collect..Extend$LT$proc_macro2..TokenStream$GT$$GT$6extend17h8d544ba7c2b80ed8E;
	.scl	2;
	.type	32;
	.endef
	.section	.text,"xr",one_only,_ZN112_$LT$proc_macro2..TokenStream$u20$as$u20$core..iter..traits..collect..Extend$LT$proc_macro2..TokenStream$GT$$GT$6extend17h8d544ba7c2b80ed8E
	.globl	_ZN112_$LT$proc_macro2..TokenStream$u20$as$u20$core..iter..traits..collect..Extend$LT$proc_macro2..TokenStream$GT$$GT$6extend17h8d544ba7c2b80ed8E
	.p2align	4, 0x90
_ZN112_$LT$proc_macro2..TokenStream$u20$as$u20$core..iter..traits..collect..Extend$LT$proc_macro2..TokenStream$GT$$GT$6extend17h8d544ba7c2b80ed8E:
.Lfunc_begin26:
	.cv_func_id 26
	.cv_loc	26 7 269 0
.seh_proc _ZN112_$LT$proc_macro2..TokenStream$u20$as$u20$core..iter..traits..collect..Extend$LT$proc_macro2..TokenStream$GT$$GT$6extend17h8d544ba7c2b80ed8E
	subq	$168, %rsp
	.seh_stackalloc 168
	.seh_endprologue
	movq	%rcx, 160(%rsp)
.Ltmp188:
	movq	%rcx, 32(%rsp)
.Ltmp189:
	.cv_loc	26 7 271 0
	leaq	120(%rsp), %rcx
	movl	$40, %r8d
	callq	memcpy
.Ltmp190:
	leaq	80(%rsp), %rcx
	leaq	120(%rsp), %rdx
	callq	_ZN63_$LT$I$u20$as$u20$core..iter..traits..collect..IntoIterator$GT$9into_iter17hf5ada2b5a17cc6a0E
.Ltmp191:
	leaq	40(%rsp), %rcx
	leaq	80(%rsp), %rdx
	callq	_ZN4core4iter6traits8iterator8Iterator3map17hb9973ca75db97fafE
.Ltmp192:
	.cv_loc	26 7 270 0
	movq	32(%rsp), %rcx
	leaq	40(%rsp), %rdx
	callq	_ZN122_$LT$proc_macro2..imp..TokenStream$u20$as$u20$core..iter..traits..collect..Extend$LT$proc_macro2..imp..TokenStream$GT$$GT$6extend17h3a0c941c6a8f1c22E
.Ltmp193:
	.cv_loc	26 7 272 0
	nop
	addq	$168, %rsp
	retq
.Ltmp194:
.Lfunc_end26:
	.seh_endproc

	.def	_ZN112_$LT$proc_macro2..TokenStream$u20$as$u20$core..iter..traits..collect..Extend$LT$proc_macro2..TokenStream$GT$$GT$6extend28_$u7b$$u7b$closure$u7d$$u7d$17h0f8ace0d6683e47cE;
	.scl	2;
	.type	32;
	.endef
	.section	.text,"xr",one_only,_ZN112_$LT$proc_macro2..TokenStream$u20$as$u20$core..iter..traits..collect..Extend$LT$proc_macro2..TokenStream$GT$$GT$6extend28_$u7b$$u7b$closure$u7d$$u7d$17h0f8ace0d6683e47cE
	.globl	_ZN112_$LT$proc_macro2..TokenStream$u20$as$u20$core..iter..traits..collect..Extend$LT$proc_macro2..TokenStream$GT$$GT$6extend28_$u7b$$u7b$closure$u7d$$u7d$17h0f8ace0d6683e47cE
	.p2align	4, 0x90
_ZN112_$LT$proc_macro2..TokenStream$u20$as$u20$core..iter..traits..collect..Extend$LT$proc_macro2..TokenStream$GT$$GT$6extend28_$u7b$$u7b$closure$u7d$$u7d$17h0f8ace0d6683e47cE:
.Lfunc_begin27:
	.cv_func_id 27
	.cv_loc	27 7 271 0
.seh_proc _ZN112_$LT$proc_macro2..TokenStream$u20$as$u20$core..iter..traits..collect..Extend$LT$proc_macro2..TokenStream$GT$$GT$6extend28_$u7b$$u7b$closure$u7d$$u7d$17h0f8ace0d6683e47cE
	subq	$56, %rsp
	.seh_stackalloc 56
	.seh_endprologue
	movq	%r8, 32(%rsp)
.Ltmp195:
	movq	%rdx, %rax
	movq	32(%rsp), %rdx
	movq	%rcx, %r8
	movq	%r8, 40(%rsp)
	movq	%rax, 48(%rsp)
.Ltmp196:
	movl	$40, %r8d
	callq	memcpy
.Ltmp197:
	movq	40(%rsp), %rax
	addq	$56, %rsp
	retq
.Ltmp198:
.Lfunc_end27:
	.seh_endproc

	.def	_ZN114_$LT$proc_macro..TokenStream$u20$as$u20$core..iter..traits..collect..FromIterator$LT$proc_macro..TokenTree$GT$$GT$9from_iter17hd978dfd18b94d71dE;
	.scl	2;
	.type	32;
	.endef
	.section	.text,"xr",one_only,_ZN114_$LT$proc_macro..TokenStream$u20$as$u20$core..iter..traits..collect..FromIterator$LT$proc_macro..TokenTree$GT$$GT$9from_iter17hd978dfd18b94d71dE
	.globl	_ZN114_$LT$proc_macro..TokenStream$u20$as$u20$core..iter..traits..collect..FromIterator$LT$proc_macro..TokenTree$GT$$GT$9from_iter17hd978dfd18b94d71dE
	.p2align	4, 0x90
_ZN114_$LT$proc_macro..TokenStream$u20$as$u20$core..iter..traits..collect..FromIterator$LT$proc_macro..TokenTree$GT$$GT$9from_iter17hd978dfd18b94d71dE:
.Lfunc_begin28:
	.cv_func_id 28
	.cv_loc	28 6 230 0
.seh_proc _ZN114_$LT$proc_macro..TokenStream$u20$as$u20$core..iter..traits..collect..FromIterator$LT$proc_macro..TokenTree$GT$$GT$9from_iter17hd978dfd18b94d71dE
	subq	$200, %rsp
	.seh_stackalloc 200
	.seh_endprologue
	movq	%rcx, %rdx
.Ltmp199:
	.cv_loc	28 6 231 0
	leaq	144(%rsp), %rcx
	movl	$48, %r8d
	callq	memcpy
.Ltmp200:
	leaq	96(%rsp), %rcx
	leaq	144(%rsp), %rdx
	callq	_ZN63_$LT$I$u20$as$u20$core..iter..traits..collect..IntoIterator$GT$9into_iter17hc5b235534e8e41b5E
	leaq	48(%rsp), %rcx
	leaq	96(%rsp), %rdx
	callq	_ZN4core4iter6traits8iterator8Iterator3map17hffadc412663876bfE
	leaq	48(%rsp), %rcx
	callq	_ZN4core4iter6traits8iterator8Iterator7collect17ha841cef2d6f1a856E
	movl	%eax, 196(%rsp)
	movl	196(%rsp), %eax
	movl	%eax, 40(%rsp)
	.cv_loc	28 6 232 0
	movl	40(%rsp), %eax
	addq	$200, %rsp
	retq
.Ltmp201:
.Lfunc_end28:
	.seh_endproc

	.def	_ZN115_$LT$proc_macro2..imp..TokenStream$u20$as$u20$core..iter..traits..collect..Extend$LT$proc_macro2..TokenTree$GT$$GT$6extend17h184816dcf72b22eeE;
	.scl	2;
	.type	32;
	.endef
	.section	.text,"xr",one_only,_ZN115_$LT$proc_macro2..imp..TokenStream$u20$as$u20$core..iter..traits..collect..Extend$LT$proc_macro2..TokenTree$GT$$GT$6extend17h184816dcf72b22eeE
	.globl	_ZN115_$LT$proc_macro2..imp..TokenStream$u20$as$u20$core..iter..traits..collect..Extend$LT$proc_macro2..TokenTree$GT$$GT$6extend17h184816dcf72b22eeE
	.p2align	4, 0x90
_ZN115_$LT$proc_macro2..imp..TokenStream$u20$as$u20$core..iter..traits..collect..Extend$LT$proc_macro2..TokenTree$GT$$GT$6extend17h184816dcf72b22eeE:
.Lfunc_begin29:
	.cv_func_id 29
	.cv_file	8 "C:\\Users\\cires\\.cargo\\registry\\src\\github.com-1ecc6299db9ec823\\proc-macro2-1.0.71\\src\\wrapper.rs" "B5BE202D35595BC7E30549F85D1BABF6D026FE0B" 2
	.cv_loc	29 8 218 0
.seh_proc _ZN115_$LT$proc_macro2..imp..TokenStream$u20$as$u20$core..iter..traits..collect..Extend$LT$proc_macro2..TokenTree$GT$$GT$6extend17h184816dcf72b22eeE
	.seh_handler __CxxFrameHandler3, @unwind, @except
	pushq	%rbp
	.seh_pushreg %rbp
	subq	$480, %rsp
	.seh_stackalloc 480
	leaq	128(%rsp), %rbp
	.seh_setframe %rbp, 128
	.seh_endprologue
	movq	$-2, 344(%rbp)
	movq	%rdx, -64(%rbp)
.Ltmp208:
	movq	%rcx, -56(%rbp)
	movq	%rcx, 312(%rbp)
.Ltmp209:
	.cv_loc	29 8 219 0
	movq	(%rcx), %rax
	testq	%rax, %rax
.Ltmp210:
	je	.LBB29_2
	jmp	.LBB29_14
.Ltmp211:
.LBB29_14:
	jmp	.LBB29_3
.Ltmp212:
	ud2
.LBB29_2:
.Ltmp213:
	.cv_loc	29 8 220 0
	movq	-64(%rbp), %rdx
	movq	-56(%rbp), %rax
	addq	$8, %rax
	movq	%rax, -72(%rbp)
	movq	%rax, 328(%rbp)
.Ltmp214:
	.cv_loc	29 8 222 0
	movq	%rbp, %rcx
	movl	$48, %r8d
	callq	memcpy
	leaq	-48(%rbp), %rcx
	movq	%rbp, %rdx
	callq	_ZN63_$LT$I$u20$as$u20$core..iter..traits..collect..IntoIterator$GT$9into_iter17h2688be7258caf35fE
	leaq	48(%rbp), %rcx
	leaq	-48(%rbp), %rdx
	movl	$48, %r8d
	callq	memcpy
.Ltmp215:
	.cv_loc	29 8 222 0
	jmp	.LBB29_5
.Ltmp216:
.LBB29_3:
	.cv_loc	29 8 226 0
	movq	-64(%rbp), %rdx
	movq	-56(%rbp), %rax
	addq	$8, %rax
	movq	%rax, -80(%rbp)
	movq	%rax, 320(%rbp)
.Ltmp217:
	.cv_loc	29 8 226 0
	leaq	264(%rbp), %rcx
	movl	$48, %r8d
	callq	memcpy
	movq	-80(%rbp), %rcx
	leaq	264(%rbp), %rdx
	callq	_ZN120_$LT$proc_macro2..fallback..TokenStream$u20$as$u20$core..iter..traits..collect..Extend$LT$proc_macro2..TokenTree$GT$$GT$6extend17h79e67e13d74d9e96E
.Ltmp218:
.LBB29_4:
	.cv_loc	29 8 228 0
	nop
	addq	$480, %rsp
	popq	%rbp
	retq
.Ltmp219:
.LBB29_5:
	.cv_loc	29 8 222 0
.Ltmp202:
	leaq	96(%rbp), %rcx
	leaq	48(%rbp), %rdx
.Ltmp220:
	callq	_ZN102_$LT$core..iter..adapters..map..Map$LT$I$C$F$GT$$u20$as$u20$core..iter..traits..iterator..Iterator$GT$4next17hf52981e44688447eE
.Ltmp203:
	jmp	.LBB29_7
.Ltmp221:
.LBB29_7:
	movl	96(%rbp), %eax
	addl	$-4, %eax
	setne	%al
	movzbl	%al, %eax
	je	.LBB29_9
	jmp	.LBB29_15
.Ltmp222:
.LBB29_15:
	jmp	.LBB29_10
.Ltmp223:
	ud2
.Ltmp224:
.LBB29_9:
	.cv_loc	29 8 222 0
	leaq	48(%rbp), %rcx
	callq	_ZN4core3ptr157drop_in_place$LT$core..iter..adapters..map..Map$LT$proc_macro2..token_stream..IntoIter$C$quote..__private..parse_spanned..$u7b$$u7b$closure$u7d$$u7d$$GT$$GT$17h0511cc22e74552ebE
	jmp	.LBB29_4
.Ltmp225:
.LBB29_10:
	.cv_loc	29 8 222 0
	movq	-72(%rbp), %rax
.Ltmp226:
	vmovups	96(%rbp), %ymm0
	vmovups	112(%rbp), %ymm1
	vmovups	%ymm1, 160(%rbp)
	vmovups	%ymm0, 144(%rbp)
	movq	%rax, -96(%rbp)
.Ltmp227:
	.cv_loc	29 8 223 0
	vmovups	144(%rbp), %ymm0
	vmovups	160(%rbp), %ymm1
	vmovups	%ymm1, 224(%rbp)
	vmovups	%ymm0, 208(%rbp)
.Ltmp204:
	leaq	208(%rbp), %rcx
	vzeroupper
	callq	_ZN11proc_macro23imp19into_compiler_token17ha0b0fb76792f7c5fE
.Ltmp205:
	movq	%rax, -88(%rbp)
	jmp	.LBB29_12
.Ltmp228:
.LBB29_12:
	movq	-96(%rbp), %rcx
	movq	-88(%rbp), %rax
	movq	%rax, 336(%rbp)
	movq	336(%rbp), %rax
	movq	%rax, 200(%rbp)
	movq	200(%rbp), %rdx
.Ltmp206:
	callq	_ZN5alloc3vec16Vec$LT$T$C$A$GT$4push17h0a0007a524dac6a1E
.Ltmp207:
	jmp	.LBB29_13
.Ltmp229:
.LBB29_13:
	.cv_loc	29 8 222 0
	jmp	.LBB29_5
.Ltmp230:
	.seh_handlerdata
	.long	($cppxdata$_ZN115_$LT$proc_macro2..imp..TokenStream$u20$as$u20$core..iter..traits..collect..Extend$LT$proc_macro2..TokenTree$GT$$GT$6extend17h184816dcf72b22eeE)@IMGREL
	.section	.text,"xr",one_only,_ZN115_$LT$proc_macro2..imp..TokenStream$u20$as$u20$core..iter..traits..collect..Extend$LT$proc_macro2..TokenTree$GT$$GT$6extend17h184816dcf72b22eeE
	.seh_endproc
	.def	"?dtor$6@?0?_ZN115_$LT$proc_macro2..imp..TokenStream$u20$as$u20$core..iter..traits..collect..Extend$LT$proc_macro2..TokenTree$GT$$GT$6extend17h184816dcf72b22eeE@4HA";
	.scl	3;
	.type	32;
	.endef
	.p2align	4, 0x90
"?dtor$6@?0?_ZN115_$LT$proc_macro2..imp..TokenStream$u20$as$u20$core..iter..traits..collect..Extend$LT$proc_macro2..TokenTree$GT$$GT$6extend17h184816dcf72b22eeE@4HA":
.seh_proc "?dtor$6@?0?_ZN115_$LT$proc_macro2..imp..TokenStream$u20$as$u20$core..iter..traits..collect..Extend$LT$proc_macro2..TokenTree$GT$$GT$6extend17h184816dcf72b22eeE@4HA"
.LBB29_6:
	movq	%rdx, 16(%rsp)
	pushq	%rbp
	.seh_pushreg %rbp
	subq	$32, %rsp
	.seh_stackalloc 32
	leaq	128(%rdx), %rbp
	.seh_endprologue
	leaq	48(%rbp), %rcx
	.cv_loc	29 8 222 0
	callq	_ZN4core3ptr157drop_in_place$LT$core..iter..adapters..map..Map$LT$proc_macro2..token_stream..IntoIter$C$quote..__private..parse_spanned..$u7b$$u7b$closure$u7d$$u7d$$GT$$GT$17h0511cc22e74552ebE
.Ltmp231:
	.cv_loc	29 8 218 0
	nop
	addq	$32, %rsp
	popq	%rbp
	retq
	.seh_handlerdata
	.section	.text,"xr",one_only,_ZN115_$LT$proc_macro2..imp..TokenStream$u20$as$u20$core..iter..traits..collect..Extend$LT$proc_macro2..TokenTree$GT$$GT$6extend17h184816dcf72b22eeE
	.seh_endproc
	.def	"?dtor$11@?0?_ZN115_$LT$proc_macro2..imp..TokenStream$u20$as$u20$core..iter..traits..collect..Extend$LT$proc_macro2..TokenTree$GT$$GT$6extend17h184816dcf72b22eeE@4HA";
	.scl	3;
	.type	32;
	.endef
	.p2align	4, 0x90
"?dtor$11@?0?_ZN115_$LT$proc_macro2..imp..TokenStream$u20$as$u20$core..iter..traits..collect..Extend$LT$proc_macro2..TokenTree$GT$$GT$6extend17h184816dcf72b22eeE@4HA":
.seh_proc "?dtor$11@?0?_ZN115_$LT$proc_macro2..imp..TokenStream$u20$as$u20$core..iter..traits..collect..Extend$LT$proc_macro2..TokenTree$GT$$GT$6extend17h184816dcf72b22eeE@4HA"
.LBB29_11:
.Ltmp232:
	movq	%rdx, 16(%rsp)
	pushq	%rbp
	.seh_pushreg %rbp
	subq	$32, %rsp
	.seh_stackalloc 32
	leaq	128(%rdx), %rbp
.Ltmp233:
	.seh_endprologue
.Ltmp234:
	.cv_loc	29 8 222 0
	addq	$32, %rsp
	popq	%rbp
	retq
.Ltmp235:
.Lfunc_end29:
	.seh_handlerdata
	.section	.text,"xr",one_only,_ZN115_$LT$proc_macro2..imp..TokenStream$u20$as$u20$core..iter..traits..collect..Extend$LT$proc_macro2..TokenTree$GT$$GT$6extend17h184816dcf72b22eeE
	.seh_endproc
	.section	.xdata,"dr",associative,_ZN115_$LT$proc_macro2..imp..TokenStream$u20$as$u20$core..iter..traits..collect..Extend$LT$proc_macro2..TokenTree$GT$$GT$6extend17h184816dcf72b22eeE
	.p2align	2
$cppxdata$_ZN115_$LT$proc_macro2..imp..TokenStream$u20$as$u20$core..iter..traits..collect..Extend$LT$proc_macro2..TokenTree$GT$$GT$6extend17h184816dcf72b22eeE:
	.long	429065506
	.long	2
	.long	($stateUnwindMap$_ZN115_$LT$proc_macro2..imp..TokenStream$u20$as$u20$core..iter..traits..collect..Extend$LT$proc_macro2..TokenTree$GT$$GT$6extend17h184816dcf72b22eeE)@IMGREL
	.long	0
	.long	0
	.long	5
	.long	($ip2state$_ZN115_$LT$proc_macro2..imp..TokenStream$u20$as$u20$core..iter..traits..collect..Extend$LT$proc_macro2..TokenTree$GT$$GT$6extend17h184816dcf72b22eeE)@IMGREL
	.long	472
	.long	0
	.long	1
$stateUnwindMap$_ZN115_$LT$proc_macro2..imp..TokenStream$u20$as$u20$core..iter..traits..collect..Extend$LT$proc_macro2..TokenTree$GT$$GT$6extend17h184816dcf72b22eeE:
	.long	-1
	.long	"?dtor$6@?0?_ZN115_$LT$proc_macro2..imp..TokenStream$u20$as$u20$core..iter..traits..collect..Extend$LT$proc_macro2..TokenTree$GT$$GT$6extend17h184816dcf72b22eeE@4HA"@IMGREL
	.long	0
	.long	"?dtor$11@?0?_ZN115_$LT$proc_macro2..imp..TokenStream$u20$as$u20$core..iter..traits..collect..Extend$LT$proc_macro2..TokenTree$GT$$GT$6extend17h184816dcf72b22eeE@4HA"@IMGREL
$ip2state$_ZN115_$LT$proc_macro2..imp..TokenStream$u20$as$u20$core..iter..traits..collect..Extend$LT$proc_macro2..TokenTree$GT$$GT$6extend17h184816dcf72b22eeE:
	.long	.Lfunc_begin29@IMGREL
	.long	-1
	.long	.Ltmp202@IMGREL+1
	.long	0
	.long	.Ltmp203@IMGREL+1
	.long	-1
	.long	.Ltmp204@IMGREL+1
	.long	1
	.long	.Ltmp207@IMGREL+1
	.long	-1
	.section	.text,"xr",one_only,_ZN115_$LT$proc_macro2..imp..TokenStream$u20$as$u20$core..iter..traits..collect..Extend$LT$proc_macro2..TokenTree$GT$$GT$6extend17h184816dcf72b22eeE

	.def	_ZN115_$LT$proc_macro2..imp..TokenStream$u20$as$u20$core..iter..traits..collect..Extend$LT$proc_macro2..TokenTree$GT$$GT$6extend17ha61ecdb9ed9ce99bE;
	.scl	2;
	.type	32;
	.endef
	.section	.text,"xr",one_only,_ZN115_$LT$proc_macro2..imp..TokenStream$u20$as$u20$core..iter..traits..collect..Extend$LT$proc_macro2..TokenTree$GT$$GT$6extend17ha61ecdb9ed9ce99bE
	.globl	_ZN115_$LT$proc_macro2..imp..TokenStream$u20$as$u20$core..iter..traits..collect..Extend$LT$proc_macro2..TokenTree$GT$$GT$6extend17ha61ecdb9ed9ce99bE
	.p2align	4, 0x90
_ZN115_$LT$proc_macro2..imp..TokenStream$u20$as$u20$core..iter..traits..collect..Extend$LT$proc_macro2..TokenTree$GT$$GT$6extend17ha61ecdb9ed9ce99bE:
.Lfunc_begin30:
	.cv_func_id 30
	.cv_loc	30 8 218 0
.seh_proc _ZN115_$LT$proc_macro2..imp..TokenStream$u20$as$u20$core..iter..traits..collect..Extend$LT$proc_macro2..TokenTree$GT$$GT$6extend17ha61ecdb9ed9ce99bE
	.seh_handler __CxxFrameHandler3, @unwind, @except
	pushq	%rbp
	.seh_pushreg %rbp
	subq	$368, %rsp
	.seh_stackalloc 368
	leaq	128(%rsp), %rbp
	.seh_setframe %rbp, 128
	.seh_endprologue
	movq	$-2, 232(%rbp)
	movq	%rdx, -72(%rbp)
.Ltmp242:
	movq	%rcx, -64(%rbp)
	movq	%rcx, 200(%rbp)
.Ltmp243:
	.cv_loc	30 8 219 0
	movq	(%rcx), %rax
	testq	%rax, %rax
.Ltmp244:
	je	.LBB30_2
	jmp	.LBB30_14
.Ltmp245:
.LBB30_14:
	jmp	.LBB30_3
.Ltmp246:
	ud2
.LBB30_2:
.Ltmp247:
	.cv_loc	30 8 220 0
	movq	-72(%rbp), %rax
	movq	-64(%rbp), %rcx
	addq	$8, %rcx
	movq	%rcx, -80(%rbp)
	movq	%rcx, 216(%rbp)
.Ltmp248:
	.cv_loc	30 8 222 0
	movq	(%rax), %rcx
	movq	%rcx, -32(%rbp)
	movq	8(%rax), %rcx
	movq	%rcx, -24(%rbp)
	movq	16(%rax), %rax
	movq	%rax, -16(%rbp)
	leaq	-56(%rbp), %rcx
	leaq	-32(%rbp), %rdx
	callq	_ZN63_$LT$I$u20$as$u20$core..iter..traits..collect..IntoIterator$GT$9into_iter17h7d3224648951fc69E
	movq	-56(%rbp), %rax
	movq	%rax, -8(%rbp)
	movq	-48(%rbp), %rax
	movq	%rax, (%rbp)
	movq	-40(%rbp), %rax
	movq	%rax, 8(%rbp)
.Ltmp249:
	.cv_loc	30 8 222 0
	jmp	.LBB30_5
.Ltmp250:
.LBB30_3:
	.cv_loc	30 8 226 0
	movq	-72(%rbp), %rax
	movq	-64(%rbp), %rcx
	addq	$8, %rcx
	movq	%rcx, 208(%rbp)
.Ltmp251:
	.cv_loc	30 8 226 0
	movq	(%rax), %rdx
	movq	%rdx, 176(%rbp)
	movq	8(%rax), %rdx
	movq	%rdx, 184(%rbp)
	movq	16(%rax), %rax
	movq	%rax, 192(%rbp)
	leaq	176(%rbp), %rdx
	callq	_ZN120_$LT$proc_macro2..fallback..TokenStream$u20$as$u20$core..iter..traits..collect..Extend$LT$proc_macro2..TokenTree$GT$$GT$6extend17h686b1494ea2fcb78E
.Ltmp252:
.LBB30_4:
	.cv_loc	30 8 228 0
	nop
	addq	$368, %rsp
	popq	%rbp
	retq
.Ltmp253:
.LBB30_5:
	.cv_loc	30 8 222 0
.Ltmp236:
	leaq	16(%rbp), %rcx
	leaq	-8(%rbp), %rdx
.Ltmp254:
	callq	_ZN100_$LT$quote..__private..push_lifetime..Lifetime$u20$as$u20$core..iter..traits..iterator..Iterator$GT$4next17hf09a5b3cf8c48b2fE
.Ltmp237:
	jmp	.LBB30_7
.Ltmp255:
.LBB30_7:
	movl	16(%rbp), %eax
	addl	$-4, %eax
	setne	%al
	movzbl	%al, %eax
	je	.LBB30_9
	jmp	.LBB30_15
.Ltmp256:
.LBB30_15:
	jmp	.LBB30_10
.Ltmp257:
	ud2
.Ltmp258:
.LBB30_9:
	.cv_loc	30 8 222 0
	jmp	.LBB30_4
.Ltmp259:
.LBB30_10:
	.cv_loc	30 8 222 0
	movq	-80(%rbp), %rax
.Ltmp260:
	vmovups	16(%rbp), %ymm0
	vmovups	32(%rbp), %ymm1
	vmovups	%ymm1, 80(%rbp)
	vmovups	%ymm0, 64(%rbp)
	movq	%rax, -96(%rbp)
.Ltmp261:
	.cv_loc	30 8 223 0
	vmovups	64(%rbp), %ymm0
	vmovups	80(%rbp), %ymm1
	vmovups	%ymm1, 144(%rbp)
	vmovups	%ymm0, 128(%rbp)
.Ltmp238:
	leaq	128(%rbp), %rcx
	vzeroupper
	callq	_ZN11proc_macro23imp19into_compiler_token17ha0b0fb76792f7c5fE
.Ltmp239:
	movq	%rax, -88(%rbp)
	jmp	.LBB30_12
.Ltmp262:
.LBB30_12:
	movq	-96(%rbp), %rcx
	movq	-88(%rbp), %rax
	movq	%rax, 224(%rbp)
	movq	224(%rbp), %rax
	movq	%rax, 120(%rbp)
	movq	120(%rbp), %rdx
.Ltmp240:
	callq	_ZN5alloc3vec16Vec$LT$T$C$A$GT$4push17h0a0007a524dac6a1E
.Ltmp241:
	jmp	.LBB30_13
.Ltmp263:
.LBB30_13:
	.cv_loc	30 8 222 0
	jmp	.LBB30_5
.Ltmp264:
	.seh_handlerdata
	.long	($cppxdata$_ZN115_$LT$proc_macro2..imp..TokenStream$u20$as$u20$core..iter..traits..collect..Extend$LT$proc_macro2..TokenTree$GT$$GT$6extend17ha61ecdb9ed9ce99bE)@IMGREL
	.section	.text,"xr",one_only,_ZN115_$LT$proc_macro2..imp..TokenStream$u20$as$u20$core..iter..traits..collect..Extend$LT$proc_macro2..TokenTree$GT$$GT$6extend17ha61ecdb9ed9ce99bE
	.seh_endproc
	.def	"?dtor$6@?0?_ZN115_$LT$proc_macro2..imp..TokenStream$u20$as$u20$core..iter..traits..collect..Extend$LT$proc_macro2..TokenTree$GT$$GT$6extend17ha61ecdb9ed9ce99bE@4HA";
	.scl	3;
	.type	32;
	.endef
	.p2align	4, 0x90
"?dtor$6@?0?_ZN115_$LT$proc_macro2..imp..TokenStream$u20$as$u20$core..iter..traits..collect..Extend$LT$proc_macro2..TokenTree$GT$$GT$6extend17ha61ecdb9ed9ce99bE@4HA":
.seh_proc "?dtor$6@?0?_ZN115_$LT$proc_macro2..imp..TokenStream$u20$as$u20$core..iter..traits..collect..Extend$LT$proc_macro2..TokenTree$GT$$GT$6extend17ha61ecdb9ed9ce99bE@4HA"
.LBB30_6:
	movq	%rdx, 16(%rsp)
	pushq	%rbp
	.seh_pushreg %rbp
	subq	$32, %rsp
	.seh_stackalloc 32
	leaq	128(%rdx), %rbp
	.seh_endprologue
	.cv_loc	30 8 218 0
	addq	$32, %rsp
	popq	%rbp
	retq
	.seh_handlerdata
	.section	.text,"xr",one_only,_ZN115_$LT$proc_macro2..imp..TokenStream$u20$as$u20$core..iter..traits..collect..Extend$LT$proc_macro2..TokenTree$GT$$GT$6extend17ha61ecdb9ed9ce99bE
	.seh_endproc
	.def	"?dtor$11@?0?_ZN115_$LT$proc_macro2..imp..TokenStream$u20$as$u20$core..iter..traits..collect..Extend$LT$proc_macro2..TokenTree$GT$$GT$6extend17ha61ecdb9ed9ce99bE@4HA";
	.scl	3;
	.type	32;
	.endef
	.p2align	4, 0x90
"?dtor$11@?0?_ZN115_$LT$proc_macro2..imp..TokenStream$u20$as$u20$core..iter..traits..collect..Extend$LT$proc_macro2..TokenTree$GT$$GT$6extend17ha61ecdb9ed9ce99bE@4HA":
.seh_proc "?dtor$11@?0?_ZN115_$LT$proc_macro2..imp..TokenStream$u20$as$u20$core..iter..traits..collect..Extend$LT$proc_macro2..TokenTree$GT$$GT$6extend17ha61ecdb9ed9ce99bE@4HA"
.LBB30_11:
.Ltmp265:
	movq	%rdx, 16(%rsp)
	pushq	%rbp
	.seh_pushreg %rbp
	subq	$32, %rsp
	.seh_stackalloc 32
	leaq	128(%rdx), %rbp
.Ltmp266:
	.seh_endprologue
.Ltmp267:
	.cv_loc	30 8 222 0
	addq	$32, %rsp
	popq	%rbp
	retq
.Ltmp268:
.Lfunc_end30:
	.seh_handlerdata
	.section	.text,"xr",one_only,_ZN115_$LT$proc_macro2..imp..TokenStream$u20$as$u20$core..iter..traits..collect..Extend$LT$proc_macro2..TokenTree$GT$$GT$6extend17ha61ecdb9ed9ce99bE
	.seh_endproc
	.section	.xdata,"dr",associative,_ZN115_$LT$proc_macro2..imp..TokenStream$u20$as$u20$core..iter..traits..collect..Extend$LT$proc_macro2..TokenTree$GT$$GT$6extend17ha61ecdb9ed9ce99bE
	.p2align	2
$cppxdata$_ZN115_$LT$proc_macro2..imp..TokenStream$u20$as$u20$core..iter..traits..collect..Extend$LT$proc_macro2..TokenTree$GT$$GT$6extend17ha61ecdb9ed9ce99bE:
	.long	429065506
	.long	2
	.long	($stateUnwindMap$_ZN115_$LT$proc_macro2..imp..TokenStream$u20$as$u20$core..iter..traits..collect..Extend$LT$proc_macro2..TokenTree$GT$$GT$6extend17ha61ecdb9ed9ce99bE)@IMGREL
	.long	0
	.long	0
	.long	4
	.long	($ip2state$_ZN115_$LT$proc_macro2..imp..TokenStream$u20$as$u20$core..iter..traits..collect..Extend$LT$proc_macro2..TokenTree$GT$$GT$6extend17ha61ecdb9ed9ce99bE)@IMGREL
	.long	360
	.long	0
	.long	1
$stateUnwindMap$_ZN115_$LT$proc_macro2..imp..TokenStream$u20$as$u20$core..iter..traits..collect..Extend$LT$proc_macro2..TokenTree$GT$$GT$6extend17ha61ecdb9ed9ce99bE:
	.long	-1
	.long	"?dtor$6@?0?_ZN115_$LT$proc_macro2..imp..TokenStream$u20$as$u20$core..iter..traits..collect..Extend$LT$proc_macro2..TokenTree$GT$$GT$6extend17ha61ecdb9ed9ce99bE@4HA"@IMGREL
	.long	0
	.long	"?dtor$11@?0?_ZN115_$LT$proc_macro2..imp..TokenStream$u20$as$u20$core..iter..traits..collect..Extend$LT$proc_macro2..TokenTree$GT$$GT$6extend17ha61ecdb9ed9ce99bE@4HA"@IMGREL
$ip2state$_ZN115_$LT$proc_macro2..imp..TokenStream$u20$as$u20$core..iter..traits..collect..Extend$LT$proc_macro2..TokenTree$GT$$GT$6extend17ha61ecdb9ed9ce99bE:
	.long	.Lfunc_begin30@IMGREL
	.long	-1
	.long	.Ltmp236@IMGREL+1
	.long	0
	.long	.Ltmp238@IMGREL+1
	.long	1
	.long	.Ltmp241@IMGREL+1
	.long	-1
	.section	.text,"xr",one_only,_ZN115_$LT$proc_macro2..imp..TokenStream$u20$as$u20$core..iter..traits..collect..Extend$LT$proc_macro2..TokenTree$GT$$GT$6extend17ha61ecdb9ed9ce99bE

	.def	_ZN115_$LT$proc_macro2..imp..TokenStream$u20$as$u20$core..iter..traits..collect..Extend$LT$proc_macro2..TokenTree$GT$$GT$6extend17hc4d11a999ab1b1acE;
	.scl	2;
	.type	32;
	.endef
	.section	.text,"xr",one_only,_ZN115_$LT$proc_macro2..imp..TokenStream$u20$as$u20$core..iter..traits..collect..Extend$LT$proc_macro2..TokenTree$GT$$GT$6extend17hc4d11a999ab1b1acE
	.globl	_ZN115_$LT$proc_macro2..imp..TokenStream$u20$as$u20$core..iter..traits..collect..Extend$LT$proc_macro2..TokenTree$GT$$GT$6extend17hc4d11a999ab1b1acE
	.p2align	4, 0x90
_ZN115_$LT$proc_macro2..imp..TokenStream$u20$as$u20$core..iter..traits..collect..Extend$LT$proc_macro2..TokenTree$GT$$GT$6extend17hc4d11a999ab1b1acE:
.Lfunc_begin31:
	.cv_func_id 31
	.cv_loc	31 8 218 0
.seh_proc _ZN115_$LT$proc_macro2..imp..TokenStream$u20$as$u20$core..iter..traits..collect..Extend$LT$proc_macro2..TokenTree$GT$$GT$6extend17hc4d11a999ab1b1acE
	.seh_handler __CxxFrameHandler3, @unwind, @except
	pushq	%rbp
	.seh_pushreg %rbp
	subq	$480, %rsp
	.seh_stackalloc 480
	leaq	128(%rsp), %rbp
	.seh_setframe %rbp, 128
	.seh_endprologue
	movq	$-2, 344(%rbp)
	movq	%rdx, -64(%rbp)
.Ltmp275:
	movq	%rcx, -56(%rbp)
	movq	%rcx, 312(%rbp)
.Ltmp276:
	.cv_loc	31 8 219 0
	movq	(%rcx), %rax
	testq	%rax, %rax
.Ltmp277:
	je	.LBB31_2
	jmp	.LBB31_14
.Ltmp278:
.LBB31_14:
	jmp	.LBB31_3
.Ltmp279:
	ud2
.LBB31_2:
.Ltmp280:
	.cv_loc	31 8 220 0
	movq	-64(%rbp), %rdx
	movq	-56(%rbp), %rax
	addq	$8, %rax
	movq	%rax, -72(%rbp)
	movq	%rax, 328(%rbp)
.Ltmp281:
	.cv_loc	31 8 222 0
	movq	%rbp, %rcx
	movl	$48, %r8d
	callq	memcpy
	leaq	-48(%rbp), %rcx
	movq	%rbp, %rdx
	callq	_ZN63_$LT$I$u20$as$u20$core..iter..traits..collect..IntoIterator$GT$9into_iter17he4c73bcdce0fc954E
	leaq	48(%rbp), %rcx
	leaq	-48(%rbp), %rdx
	movl	$48, %r8d
	callq	memcpy
.Ltmp282:
	.cv_loc	31 8 222 0
	jmp	.LBB31_5
.Ltmp283:
.LBB31_3:
	.cv_loc	31 8 226 0
	movq	-64(%rbp), %rdx
	movq	-56(%rbp), %rax
	addq	$8, %rax
	movq	%rax, -80(%rbp)
	movq	%rax, 320(%rbp)
.Ltmp284:
	.cv_loc	31 8 226 0
	leaq	264(%rbp), %rcx
	movl	$48, %r8d
	callq	memcpy
	movq	-80(%rbp), %rcx
	leaq	264(%rbp), %rdx
	callq	_ZN120_$LT$proc_macro2..fallback..TokenStream$u20$as$u20$core..iter..traits..collect..Extend$LT$proc_macro2..TokenTree$GT$$GT$6extend17h0f4d41015c91eb33E
.Ltmp285:
.LBB31_4:
	.cv_loc	31 8 228 0
	nop
	addq	$480, %rsp
	popq	%rbp
	retq
.Ltmp286:
.LBB31_5:
	.cv_loc	31 8 222 0
.Ltmp269:
	leaq	96(%rbp), %rcx
	leaq	48(%rbp), %rdx
.Ltmp287:
	callq	_ZN99_$LT$core..iter..sources..once..Once$LT$T$GT$$u20$as$u20$core..iter..traits..iterator..Iterator$GT$4next17h613266a766649d3dE
.Ltmp270:
	jmp	.LBB31_7
.Ltmp288:
.LBB31_7:
	movl	96(%rbp), %eax
	addl	$-4, %eax
	setne	%al
	movzbl	%al, %eax
	je	.LBB31_9
	jmp	.LBB31_15
.Ltmp289:
.LBB31_15:
	jmp	.LBB31_10
.Ltmp290:
	ud2
.Ltmp291:
.LBB31_9:
	.cv_loc	31 8 222 0
	leaq	48(%rbp), %rcx
	callq	_ZN4core3ptr82drop_in_place$LT$core..iter..sources..once..Once$LT$proc_macro2..TokenTree$GT$$GT$17h39ed45f00043e52aE
	jmp	.LBB31_4
.Ltmp292:
.LBB31_10:
	.cv_loc	31 8 222 0
	movq	-72(%rbp), %rax
.Ltmp293:
	vmovups	96(%rbp), %ymm0
	vmovups	112(%rbp), %ymm1
	vmovups	%ymm1, 160(%rbp)
	vmovups	%ymm0, 144(%rbp)
	movq	%rax, -96(%rbp)
.Ltmp294:
	.cv_loc	31 8 223 0
	vmovups	144(%rbp), %ymm0
	vmovups	160(%rbp), %ymm1
	vmovups	%ymm1, 224(%rbp)
	vmovups	%ymm0, 208(%rbp)
.Ltmp271:
	leaq	208(%rbp), %rcx
	vzeroupper
	callq	_ZN11proc_macro23imp19into_compiler_token17ha0b0fb76792f7c5fE
.Ltmp272:
	movq	%rax, -88(%rbp)
	jmp	.LBB31_12
.Ltmp295:
.LBB31_12:
	movq	-96(%rbp), %rcx
	movq	-88(%rbp), %rax
	movq	%rax, 336(%rbp)
	movq	336(%rbp), %rax
	movq	%rax, 200(%rbp)
	movq	200(%rbp), %rdx
.Ltmp273:
	callq	_ZN5alloc3vec16Vec$LT$T$C$A$GT$4push17h0a0007a524dac6a1E
.Ltmp274:
	jmp	.LBB31_13
.Ltmp296:
.LBB31_13:
	.cv_loc	31 8 222 0
	jmp	.LBB31_5
.Ltmp297:
	.seh_handlerdata
	.long	($cppxdata$_ZN115_$LT$proc_macro2..imp..TokenStream$u20$as$u20$core..iter..traits..collect..Extend$LT$proc_macro2..TokenTree$GT$$GT$6extend17hc4d11a999ab1b1acE)@IMGREL
	.section	.text,"xr",one_only,_ZN115_$LT$proc_macro2..imp..TokenStream$u20$as$u20$core..iter..traits..collect..Extend$LT$proc_macro2..TokenTree$GT$$GT$6extend17hc4d11a999ab1b1acE
	.seh_endproc
	.def	"?dtor$6@?0?_ZN115_$LT$proc_macro2..imp..TokenStream$u20$as$u20$core..iter..traits..collect..Extend$LT$proc_macro2..TokenTree$GT$$GT$6extend17hc4d11a999ab1b1acE@4HA";
	.scl	3;
	.type	32;
	.endef
	.p2align	4, 0x90
"?dtor$6@?0?_ZN115_$LT$proc_macro2..imp..TokenStream$u20$as$u20$core..iter..traits..collect..Extend$LT$proc_macro2..TokenTree$GT$$GT$6extend17hc4d11a999ab1b1acE@4HA":
.seh_proc "?dtor$6@?0?_ZN115_$LT$proc_macro2..imp..TokenStream$u20$as$u20$core..iter..traits..collect..Extend$LT$proc_macro2..TokenTree$GT$$GT$6extend17hc4d11a999ab1b1acE@4HA"
.LBB31_6:
	movq	%rdx, 16(%rsp)
	pushq	%rbp
	.seh_pushreg %rbp
	subq	$32, %rsp
	.seh_stackalloc 32
	leaq	128(%rdx), %rbp
	.seh_endprologue
	leaq	48(%rbp), %rcx
	.cv_loc	31 8 222 0
	callq	_ZN4core3ptr82drop_in_place$LT$core..iter..sources..once..Once$LT$proc_macro2..TokenTree$GT$$GT$17h39ed45f00043e52aE
.Ltmp298:
	.cv_loc	31 8 218 0
	nop
	addq	$32, %rsp
	popq	%rbp
	retq
	.seh_handlerdata
	.section	.text,"xr",one_only,_ZN115_$LT$proc_macro2..imp..TokenStream$u20$as$u20$core..iter..traits..collect..Extend$LT$proc_macro2..TokenTree$GT$$GT$6extend17hc4d11a999ab1b1acE
	.seh_endproc
	.def	"?dtor$11@?0?_ZN115_$LT$proc_macro2..imp..TokenStream$u20$as$u20$core..iter..traits..collect..Extend$LT$proc_macro2..TokenTree$GT$$GT$6extend17hc4d11a999ab1b1acE@4HA";
	.scl	3;
	.type	32;
	.endef
	.p2align	4, 0x90
"?dtor$11@?0?_ZN115_$LT$proc_macro2..imp..TokenStream$u20$as$u20$core..iter..traits..collect..Extend$LT$proc_macro2..TokenTree$GT$$GT$6extend17hc4d11a999ab1b1acE@4HA":
.seh_proc "?dtor$11@?0?_ZN115_$LT$proc_macro2..imp..TokenStream$u20$as$u20$core..iter..traits..collect..Extend$LT$proc_macro2..TokenTree$GT$$GT$6extend17hc4d11a999ab1b1acE@4HA"
.LBB31_11:
.Ltmp299:
	movq	%rdx, 16(%rsp)
	pushq	%rbp
	.seh_pushreg %rbp
	subq	$32, %rsp
	.seh_stackalloc 32
	leaq	128(%rdx), %rbp
.Ltmp300:
	.seh_endprologue
.Ltmp301:
	.cv_loc	31 8 222 0
	addq	$32, %rsp
	popq	%rbp
	retq
.Ltmp302:
.Lfunc_end31:
	.seh_handlerdata
	.section	.text,"xr",one_only,_ZN115_$LT$proc_macro2..imp..TokenStream$u20$as$u20$core..iter..traits..collect..Extend$LT$proc_macro2..TokenTree$GT$$GT$6extend17hc4d11a999ab1b1acE
	.seh_endproc
	.section	.xdata,"dr",associative,_ZN115_$LT$proc_macro2..imp..TokenStream$u20$as$u20$core..iter..traits..collect..Extend$LT$proc_macro2..TokenTree$GT$$GT$6extend17hc4d11a999ab1b1acE
	.p2align	2
$cppxdata$_ZN115_$LT$proc_macro2..imp..TokenStream$u20$as$u20$core..iter..traits..collect..Extend$LT$proc_macro2..TokenTree$GT$$GT$6extend17hc4d11a999ab1b1acE:
	.long	429065506
	.long	2
	.long	($stateUnwindMap$_ZN115_$LT$proc_macro2..imp..TokenStream$u20$as$u20$core..iter..traits..collect..Extend$LT$proc_macro2..TokenTree$GT$$GT$6extend17hc4d11a999ab1b1acE)@IMGREL
	.long	0
	.long	0
	.long	5
	.long	($ip2state$_ZN115_$LT$proc_macro2..imp..TokenStream$u20$as$u20$core..iter..traits..collect..Extend$LT$proc_macro2..TokenTree$GT$$GT$6extend17hc4d11a999ab1b1acE)@IMGREL
	.long	472
	.long	0
	.long	1
$stateUnwindMap$_ZN115_$LT$proc_macro2..imp..TokenStream$u20$as$u20$core..iter..traits..collect..Extend$LT$proc_macro2..TokenTree$GT$$GT$6extend17hc4d11a999ab1b1acE:
	.long	-1
	.long	"?dtor$6@?0?_ZN115_$LT$proc_macro2..imp..TokenStream$u20$as$u20$core..iter..traits..collect..Extend$LT$proc_macro2..TokenTree$GT$$GT$6extend17hc4d11a999ab1b1acE@4HA"@IMGREL
	.long	0
	.long	"?dtor$11@?0?_ZN115_$LT$proc_macro2..imp..TokenStream$u20$as$u20$core..iter..traits..collect..Extend$LT$proc_macro2..TokenTree$GT$$GT$6extend17hc4d11a999ab1b1acE@4HA"@IMGREL
$ip2state$_ZN115_$LT$proc_macro2..imp..TokenStream$u20$as$u20$core..iter..traits..collect..Extend$LT$proc_macro2..TokenTree$GT$$GT$6extend17hc4d11a999ab1b1acE:
	.long	.Lfunc_begin31@IMGREL
	.long	-1
	.long	.Ltmp269@IMGREL+1
	.long	0
	.long	.Ltmp270@IMGREL+1
	.long	-1
	.long	.Ltmp271@IMGREL+1
	.long	1
	.long	.Ltmp274@IMGREL+1
	.long	-1
	.section	.text,"xr",one_only,_ZN115_$LT$proc_macro2..imp..TokenStream$u20$as$u20$core..iter..traits..collect..Extend$LT$proc_macro2..TokenTree$GT$$GT$6extend17hc4d11a999ab1b1acE

	.def	_ZN115_$LT$proc_macro2..imp..TokenStream$u20$as$u20$core..iter..traits..collect..Extend$LT$proc_macro2..TokenTree$GT$$GT$6extend17hd294775550bc7815E;
	.scl	2;
	.type	32;
	.endef
	.section	.text,"xr",one_only,_ZN115_$LT$proc_macro2..imp..TokenStream$u20$as$u20$core..iter..traits..collect..Extend$LT$proc_macro2..TokenTree$GT$$GT$6extend17hd294775550bc7815E
	.globl	_ZN115_$LT$proc_macro2..imp..TokenStream$u20$as$u20$core..iter..traits..collect..Extend$LT$proc_macro2..TokenTree$GT$$GT$6extend17hd294775550bc7815E
	.p2align	4, 0x90
_ZN115_$LT$proc_macro2..imp..TokenStream$u20$as$u20$core..iter..traits..collect..Extend$LT$proc_macro2..TokenTree$GT$$GT$6extend17hd294775550bc7815E:
.Lfunc_begin32:
	.cv_func_id 32
	.cv_loc	32 8 218 0
.seh_proc _ZN115_$LT$proc_macro2..imp..TokenStream$u20$as$u20$core..iter..traits..collect..Extend$LT$proc_macro2..TokenTree$GT$$GT$6extend17hd294775550bc7815E
	.seh_handler __CxxFrameHandler3, @unwind, @except
	pushq	%rbp
	.seh_pushreg %rbp
	subq	$368, %rsp
	.seh_stackalloc 368
	leaq	128(%rsp), %rbp
	.seh_setframe %rbp, 128
	.seh_endprologue
	movq	$-2, 232(%rbp)
	movq	%rdx, -72(%rbp)
.Ltmp309:
	movq	%rcx, -64(%rbp)
	movq	%rcx, 200(%rbp)
.Ltmp310:
	.cv_loc	32 8 219 0
	movq	(%rcx), %rax
	testq	%rax, %rax
.Ltmp311:
	je	.LBB32_2
	jmp	.LBB32_14
.Ltmp312:
.LBB32_14:
	jmp	.LBB32_3
.Ltmp313:
	ud2
.LBB32_2:
.Ltmp314:
	.cv_loc	32 8 220 0
	movq	-72(%rbp), %rax
	movq	-64(%rbp), %rcx
	addq	$8, %rcx
	movq	%rcx, -80(%rbp)
	movq	%rcx, 216(%rbp)
.Ltmp315:
	.cv_loc	32 8 222 0
	movq	(%rax), %rcx
	movq	%rcx, -32(%rbp)
	movq	8(%rax), %rcx
	movq	%rcx, -24(%rbp)
	movq	16(%rax), %rax
	movq	%rax, -16(%rbp)
	leaq	-56(%rbp), %rcx
	leaq	-32(%rbp), %rdx
	callq	_ZN63_$LT$I$u20$as$u20$core..iter..traits..collect..IntoIterator$GT$9into_iter17h0991dca2c10b1e37E
	movq	-56(%rbp), %rax
	movq	%rax, -8(%rbp)
	movq	-48(%rbp), %rax
	movq	%rax, (%rbp)
	movq	-40(%rbp), %rax
	movq	%rax, 8(%rbp)
.Ltmp316:
	.cv_loc	32 8 222 0
	jmp	.LBB32_5
.Ltmp317:
.LBB32_3:
	.cv_loc	32 8 226 0
	movq	-72(%rbp), %rax
	movq	-64(%rbp), %rcx
	addq	$8, %rcx
	movq	%rcx, 208(%rbp)
.Ltmp318:
	.cv_loc	32 8 226 0
	movq	(%rax), %rdx
	movq	%rdx, 176(%rbp)
	movq	8(%rax), %rdx
	movq	%rdx, 184(%rbp)
	movq	16(%rax), %rax
	movq	%rax, 192(%rbp)
	leaq	176(%rbp), %rdx
	callq	_ZN120_$LT$proc_macro2..fallback..TokenStream$u20$as$u20$core..iter..traits..collect..Extend$LT$proc_macro2..TokenTree$GT$$GT$6extend17h29426c7bd4829defE
.Ltmp319:
.LBB32_4:
	.cv_loc	32 8 228 0
	nop
	addq	$368, %rsp
	popq	%rbp
	retq
.Ltmp320:
.LBB32_5:
	.cv_loc	32 8 222 0
.Ltmp303:
	leaq	16(%rbp), %rcx
	leaq	-8(%rbp), %rdx
.Ltmp321:
	callq	_ZN108_$LT$quote..__private..push_lifetime_spanned..Lifetime$u20$as$u20$core..iter..traits..iterator..Iterator$GT$4next17ha3f2d11b08278d5eE
.Ltmp304:
	jmp	.LBB32_7
.Ltmp322:
.LBB32_7:
	movl	16(%rbp), %eax
	addl	$-4, %eax
	setne	%al
	movzbl	%al, %eax
	je	.LBB32_9
	jmp	.LBB32_15
.Ltmp323:
.LBB32_15:
	jmp	.LBB32_10
.Ltmp324:
	ud2
.Ltmp325:
.LBB32_9:
	.cv_loc	32 8 222 0
	jmp	.LBB32_4
.Ltmp326:
.LBB32_10:
	.cv_loc	32 8 222 0
	movq	-80(%rbp), %rax
.Ltmp327:
	vmovups	16(%rbp), %ymm0
	vmovups	32(%rbp), %ymm1
	vmovups	%ymm1, 80(%rbp)
	vmovups	%ymm0, 64(%rbp)
	movq	%rax, -96(%rbp)
.Ltmp328:
	.cv_loc	32 8 223 0
	vmovups	64(%rbp), %ymm0
	vmovups	80(%rbp), %ymm1
	vmovups	%ymm1, 144(%rbp)
	vmovups	%ymm0, 128(%rbp)
.Ltmp305:
	leaq	128(%rbp), %rcx
	vzeroupper
	callq	_ZN11proc_macro23imp19into_compiler_token17ha0b0fb76792f7c5fE
.Ltmp306:
	movq	%rax, -88(%rbp)
	jmp	.LBB32_12
.Ltmp329:
.LBB32_12:
	movq	-96(%rbp), %rcx
	movq	-88(%rbp), %rax
	movq	%rax, 224(%rbp)
	movq	224(%rbp), %rax
	movq	%rax, 120(%rbp)
	movq	120(%rbp), %rdx
.Ltmp307:
	callq	_ZN5alloc3vec16Vec$LT$T$C$A$GT$4push17h0a0007a524dac6a1E
.Ltmp308:
	jmp	.LBB32_13
.Ltmp330:
.LBB32_13:
	.cv_loc	32 8 222 0
	jmp	.LBB32_5
.Ltmp331:
	.seh_handlerdata
	.long	($cppxdata$_ZN115_$LT$proc_macro2..imp..TokenStream$u20$as$u20$core..iter..traits..collect..Extend$LT$proc_macro2..TokenTree$GT$$GT$6extend17hd294775550bc7815E)@IMGREL
	.section	.text,"xr",one_only,_ZN115_$LT$proc_macro2..imp..TokenStream$u20$as$u20$core..iter..traits..collect..Extend$LT$proc_macro2..TokenTree$GT$$GT$6extend17hd294775550bc7815E
	.seh_endproc
	.def	"?dtor$6@?0?_ZN115_$LT$proc_macro2..imp..TokenStream$u20$as$u20$core..iter..traits..collect..Extend$LT$proc_macro2..TokenTree$GT$$GT$6extend17hd294775550bc7815E@4HA";
	.scl	3;
	.type	32;
	.endef
	.p2align	4, 0x90
"?dtor$6@?0?_ZN115_$LT$proc_macro2..imp..TokenStream$u20$as$u20$core..iter..traits..collect..Extend$LT$proc_macro2..TokenTree$GT$$GT$6extend17hd294775550bc7815E@4HA":
.seh_proc "?dtor$6@?0?_ZN115_$LT$proc_macro2..imp..TokenStream$u20$as$u20$core..iter..traits..collect..Extend$LT$proc_macro2..TokenTree$GT$$GT$6extend17hd294775550bc7815E@4HA"
.LBB32_6:
	movq	%rdx, 16(%rsp)
	pushq	%rbp
	.seh_pushreg %rbp
	subq	$32, %rsp
	.seh_stackalloc 32
	leaq	128(%rdx), %rbp
	.seh_endprologue
	.cv_loc	32 8 218 0
	addq	$32, %rsp
	popq	%rbp
	retq
	.seh_handlerdata
	.section	.text,"xr",one_only,_ZN115_$LT$proc_macro2..imp..TokenStream$u20$as$u20$core..iter..traits..collect..Extend$LT$proc_macro2..TokenTree$GT$$GT$6extend17hd294775550bc7815E
	.seh_endproc
	.def	"?dtor$11@?0?_ZN115_$LT$proc_macro2..imp..TokenStream$u20$as$u20$core..iter..traits..collect..Extend$LT$proc_macro2..TokenTree$GT$$GT$6extend17hd294775550bc7815E@4HA";
	.scl	3;
	.type	32;
	.endef
	.p2align	4, 0x90
"?dtor$11@?0?_ZN115_$LT$proc_macro2..imp..TokenStream$u20$as$u20$core..iter..traits..collect..Extend$LT$proc_macro2..TokenTree$GT$$GT$6extend17hd294775550bc7815E@4HA":
.seh_proc "?dtor$11@?0?_ZN115_$LT$proc_macro2..imp..TokenStream$u20$as$u20$core..iter..traits..collect..Extend$LT$proc_macro2..TokenTree$GT$$GT$6extend17hd294775550bc7815E@4HA"
.LBB32_11:
.Ltmp332:
	movq	%rdx, 16(%rsp)
	pushq	%rbp
	.seh_pushreg %rbp
	subq	$32, %rsp
	.seh_stackalloc 32
	leaq	128(%rdx), %rbp
.Ltmp333:
	.seh_endprologue
.Ltmp334:
	.cv_loc	32 8 222 0
	addq	$32, %rsp
	popq	%rbp
	retq
.Ltmp335:
.Lfunc_end32:
	.seh_handlerdata
	.section	.text,"xr",one_only,_ZN115_$LT$proc_macro2..imp..TokenStream$u20$as$u20$core..iter..traits..collect..Extend$LT$proc_macro2..TokenTree$GT$$GT$6extend17hd294775550bc7815E
	.seh_endproc
	.section	.xdata,"dr",associative,_ZN115_$LT$proc_macro2..imp..TokenStream$u20$as$u20$core..iter..traits..collect..Extend$LT$proc_macro2..TokenTree$GT$$GT$6extend17hd294775550bc7815E
	.p2align	2
$cppxdata$_ZN115_$LT$proc_macro2..imp..TokenStream$u20$as$u20$core..iter..traits..collect..Extend$LT$proc_macro2..TokenTree$GT$$GT$6extend17hd294775550bc7815E:
	.long	429065506
	.long	2
	.long	($stateUnwindMap$_ZN115_$LT$proc_macro2..imp..TokenStream$u20$as$u20$core..iter..traits..collect..Extend$LT$proc_macro2..TokenTree$GT$$GT$6extend17hd294775550bc7815E)@IMGREL
	.long	0
	.long	0
	.long	4
	.long	($ip2state$_ZN115_$LT$proc_macro2..imp..TokenStream$u20$as$u20$core..iter..traits..collect..Extend$LT$proc_macro2..TokenTree$GT$$GT$6extend17hd294775550bc7815E)@IMGREL
	.long	360
	.long	0
	.long	1
$stateUnwindMap$_ZN115_$LT$proc_macro2..imp..TokenStream$u20$as$u20$core..iter..traits..collect..Extend$LT$proc_macro2..TokenTree$GT$$GT$6extend17hd294775550bc7815E:
	.long	-1
	.long	"?dtor$6@?0?_ZN115_$LT$proc_macro2..imp..TokenStream$u20$as$u20$core..iter..traits..collect..Extend$LT$proc_macro2..TokenTree$GT$$GT$6extend17hd294775550bc7815E@4HA"@IMGREL
	.long	0
	.long	"?dtor$11@?0?_ZN115_$LT$proc_macro2..imp..TokenStream$u20$as$u20$core..iter..traits..collect..Extend$LT$proc_macro2..TokenTree$GT$$GT$6extend17hd294775550bc7815E@4HA"@IMGREL
$ip2state$_ZN115_$LT$proc_macro2..imp..TokenStream$u20$as$u20$core..iter..traits..collect..Extend$LT$proc_macro2..TokenTree$GT$$GT$6extend17hd294775550bc7815E:
	.long	.Lfunc_begin32@IMGREL
	.long	-1
	.long	.Ltmp303@IMGREL+1
	.long	0
	.long	.Ltmp305@IMGREL+1
	.long	1
	.long	.Ltmp308@IMGREL+1
	.long	-1
	.section	.text,"xr",one_only,_ZN115_$LT$proc_macro2..imp..TokenStream$u20$as$u20$core..iter..traits..collect..Extend$LT$proc_macro2..TokenTree$GT$$GT$6extend17hd294775550bc7815E

	.def	_ZN116_$LT$core..iter..adapters..flatten..FlattenCompat$LT$I$C$U$GT$$u20$as$u20$core..iter..traits..iterator..Iterator$GT$4next17h9beefbdd48a83f2bE;
	.scl	2;
	.type	32;
	.endef
	.section	.text,"xr",one_only,_ZN116_$LT$core..iter..adapters..flatten..FlattenCompat$LT$I$C$U$GT$$u20$as$u20$core..iter..traits..iterator..Iterator$GT$4next17h9beefbdd48a83f2bE
	.globl	_ZN116_$LT$core..iter..adapters..flatten..FlattenCompat$LT$I$C$U$GT$$u20$as$u20$core..iter..traits..iterator..Iterator$GT$4next17h9beefbdd48a83f2bE
	.p2align	4, 0x90
_ZN116_$LT$core..iter..adapters..flatten..FlattenCompat$LT$I$C$U$GT$$u20$as$u20$core..iter..traits..iterator..Iterator$GT$4next17h9beefbdd48a83f2bE:
.Lfunc_begin33:
	.cv_func_id 33
	.cv_loc	33 5 291 0
.seh_proc _ZN116_$LT$core..iter..adapters..flatten..FlattenCompat$LT$I$C$U$GT$$u20$as$u20$core..iter..traits..iterator..Iterator$GT$4next17h9beefbdd48a83f2bE
	.seh_handler __CxxFrameHandler3, @unwind, @except
	pushq	%rbp
	.seh_pushreg %rbp
	subq	$448, %rsp
	.seh_stackalloc 448
	leaq	128(%rsp), %rbp
	.seh_setframe %rbp, 128
	.seh_endprologue
	movq	$-2, 312(%rbp)
	movq	%rdx, -88(%rbp)
	movq	%rcx, -80(%rbp)
	movq	%rcx, -72(%rbp)
	movq	%rdx, 280(%rbp)
.Ltmp342:
	.cv_loc	33 5 292 0
	movb	$0, 279(%rbp)
.LBB33_1:
	.cv_loc	33 5 293 0
	movq	-88(%rbp), %rdx
	movl	$1, %eax
	xorl	%ecx, %ecx
	cmpq	$0, 40(%rdx)
	cmoveq	%rcx, %rax
	cmpq	$1, %rax
	jne	.LBB33_3
	movq	-88(%rbp), %rdx
	addq	$40, %rdx
	movq	%rdx, 288(%rbp)
	leaq	-64(%rbp), %rcx
	.cv_loc	33 5 294 0
	callq	_ZN101_$LT$proc_macro2..rcvec..RcVecIntoIter$LT$T$GT$$u20$as$u20$core..iter..traits..iterator..Iterator$GT$4next17h191dba2c6f75fdacE
	movl	-64(%rbp), %eax
	addl	$-4, %eax
	setne	%al
	movzbl	%al, %eax
	je	.LBB33_5
	jmp	.LBB33_27
.LBB33_27:
	jmp	.LBB33_6
.LBB33_3:
	.cv_loc	33 5 299 0
	movq	-88(%rbp), %rcx
	callq	_ZN100_$LT$core..iter..adapters..fuse..Fuse$LT$I$GT$$u20$as$u20$core..iter..traits..iterator..Iterator$GT$4next17hd2d39c219fffe2f8E
	movq	%rax, 64(%rbp)
	movq	64(%rbp), %rax
	testq	%rax, %rax
	setne	%al
	movzbl	%al, %eax
	je	.LBB33_12
	jmp	.LBB33_28
.LBB33_28:
	jmp	.LBB33_13
	.cv_loc	33 5 294 0
	ud2
.LBB33_5:
	.cv_loc	33 5 295 0
	movq	-88(%rbp), %rcx
	movq	$0, -16(%rbp)
	addq	$40, %rcx
.Ltmp336:
	callq	_ZN4core3ptr112drop_in_place$LT$core..option..Option$LT$proc_macro2..rcvec..RcVecIntoIter$LT$proc_macro2..TokenTree$GT$$GT$$GT$17h2df31f8b670abbf3E
.Ltmp337:
	jmp	.LBB33_9
.LBB33_6:
	.cv_loc	33 5 296 0
	leaq	16(%rbp), %rcx
	leaq	-64(%rbp), %rdx
	movl	$48, %r8d
	callq	memcpy
	movq	-80(%rbp), %rcx
.Ltmp343:
	.cv_loc	33 5 296 0
	leaq	16(%rbp), %rdx
	movl	$48, %r8d
	callq	memcpy
.Ltmp344:
.LBB33_7:
	.cv_loc	33 5 310 0
	movq	-72(%rbp), %rax
	addq	$448, %rsp
	popq	%rbp
	retq
.LBB33_9:
	.cv_loc	33 5 295 0
	movq	-88(%rbp), %rax
	movq	-16(%rbp), %rcx
	movq	%rcx, 40(%rax)
	movq	-8(%rbp), %rcx
	movq	%rcx, 48(%rax)
	movq	(%rbp), %rcx
	movq	%rcx, 56(%rax)
	movq	8(%rbp), %rcx
	movq	%rcx, 64(%rax)
	.cv_loc	33 5 298 0
	leaq	-64(%rbp), %rcx
	callq	_ZN4core3ptr71drop_in_place$LT$core..option..Option$LT$proc_macro2..TokenTree$GT$$GT$17he71f882b0574b8e6E
	.cv_loc	33 5 293 0
	jmp	.LBB33_3
	.cv_loc	33 5 299 0
	ud2
.LBB33_12:
	.cv_loc	33 5 300 0
	movq	-88(%rbp), %rcx
	addq	$72, %rcx
	callq	_ZN4core6option15Option$LT$T$GT$6as_mut17h88f78f650daed249E
	movq	%rax, %rcx
	callq	_ZN75_$LT$core..option..Option$LT$T$GT$$u20$as$u20$core..ops..try_trait..Try$GT$6branch17h61ad1650f935663bE
	movq	%rax, 120(%rbp)
	movq	120(%rbp), %rax
	testq	%rax, %rax
	sete	%al
	movzbl	%al, %eax
	jne	.LBB33_17
	jmp	.LBB33_29
.LBB33_29:
	jmp	.LBB33_18
.LBB33_13:
	.cv_loc	33 5 307 0
	movq	64(%rbp), %rdx
	movq	%rdx, 296(%rbp)
	leaq	240(%rbp), %rcx
.Ltmp345:
	.cv_loc	33 5 307 0
	callq	_ZN96_$LT$proc_macro2..fallback..TokenStream$u20$as$u20$core..iter..traits..collect..IntoIterator$GT$9into_iter17hb03c6c1110b55445E
	movq	-88(%rbp), %rcx
	vmovups	240(%rbp), %ymm0
	vmovups	%ymm0, 208(%rbp)
	addq	$40, %rcx
.Ltmp338:
	vzeroupper
	callq	_ZN4core3ptr112drop_in_place$LT$core..option..Option$LT$proc_macro2..rcvec..RcVecIntoIter$LT$proc_macro2..TokenTree$GT$$GT$$GT$17h2df31f8b670abbf3E
.Ltmp339:
	jmp	.LBB33_15
.LBB33_15:
	movq	-88(%rbp), %rax
	movq	208(%rbp), %rcx
	movq	%rcx, 40(%rax)
	movq	216(%rbp), %rcx
	movq	%rcx, 48(%rax)
	movq	224(%rbp), %rcx
	movq	%rcx, 56(%rax)
	movq	232(%rbp), %rcx
	movq	%rcx, 64(%rax)
.Ltmp346:
	.cv_loc	33 5 292 0
	jmp	.LBB33_1
	.cv_loc	33 5 300 0
	ud2
.LBB33_17:
	movq	120(%rbp), %rdx
	movq	%rdx, 304(%rbp)
	movb	$1, 279(%rbp)
	leaq	72(%rbp), %rcx
	callq	_ZN101_$LT$proc_macro2..rcvec..RcVecIntoIter$LT$T$GT$$u20$as$u20$core..iter..traits..iterator..Iterator$GT$4next17h191dba2c6f75fdacE
	movl	72(%rbp), %eax
	addl	$-4, %eax
	setne	%al
	movzbl	%al, %eax
	je	.LBB33_21
	jmp	.LBB33_30
.LBB33_30:
	jmp	.LBB33_22
.LBB33_18:
	.cv_loc	33 5 300 0
	movq	-80(%rbp), %rcx
.Ltmp347:
	callq	_ZN84_$LT$core..option..Option$LT$T$GT$$u20$as$u20$core..ops..try_trait..FromResidual$GT$13from_residual17hdcdc45e30ef9be4aE
.Ltmp348:
.LBB33_19:
	.cv_loc	33 5 306 0
	movb	$0, 279(%rbp)
	.cv_file	9 "C:\\Users\\cires\\.cargo\\registry\\src\\github.com-1ecc6299db9ec823\\quote-1.0.33\\src\\lib.rs" "BCB0282B14B9B4C14A04F0B12D8D42A11FA3A65B" 2
	.cv_loc	33 9 1 0
	jmp	.LBB33_7
	.cv_loc	33 5 300 0
	ud2
.LBB33_21:
	.cv_loc	33 5 302 0
	movq	-88(%rbp), %rcx
	movq	$0, 128(%rbp)
	addq	$72, %rcx
.Ltmp340:
	callq	_ZN4core3ptr112drop_in_place$LT$core..option..Option$LT$proc_macro2..rcvec..RcVecIntoIter$LT$proc_macro2..TokenTree$GT$$GT$$GT$17h2df31f8b670abbf3E
.Ltmp341:
	jmp	.LBB33_25
.LBB33_22:
	.cv_loc	33 5 305 0
	movb	$0, 279(%rbp)
	leaq	160(%rbp), %rcx
	leaq	72(%rbp), %rdx
	movl	$48, %r8d
	callq	memcpy
	movq	-80(%rbp), %rcx
.Ltmp349:
	.cv_loc	33 5 305 0
	leaq	160(%rbp), %rdx
	movl	$48, %r8d
	callq	memcpy
.Ltmp350:
.LBB33_23:
	.cv_loc	33 5 306 0
	testb	$1, 279(%rbp)
	jne	.LBB33_26
	jmp	.LBB33_19
.LBB33_25:
	.cv_loc	33 5 302 0
	movq	-80(%rbp), %rax
	movq	-88(%rbp), %rcx
	movq	128(%rbp), %rdx
	movq	%rdx, 72(%rcx)
	movq	136(%rbp), %rdx
	movq	%rdx, 80(%rcx)
	movq	144(%rbp), %rdx
	movq	%rdx, 88(%rcx)
	movq	152(%rbp), %rdx
	movq	%rdx, 96(%rcx)
	.cv_loc	33 5 303 0
	movl	$4, (%rax)
	jmp	.LBB33_23
.LBB33_26:
	.cv_loc	33 5 306 0
	leaq	72(%rbp), %rcx
	callq	_ZN4core3ptr71drop_in_place$LT$core..option..Option$LT$proc_macro2..TokenTree$GT$$GT$17he71f882b0574b8e6E
	jmp	.LBB33_19
	.seh_handlerdata
	.long	($cppxdata$_ZN116_$LT$core..iter..adapters..flatten..FlattenCompat$LT$I$C$U$GT$$u20$as$u20$core..iter..traits..iterator..Iterator$GT$4next17h9beefbdd48a83f2bE)@IMGREL
	.section	.text,"xr",one_only,_ZN116_$LT$core..iter..adapters..flatten..FlattenCompat$LT$I$C$U$GT$$u20$as$u20$core..iter..traits..iterator..Iterator$GT$4next17h9beefbdd48a83f2bE
	.seh_endproc
	.def	"?dtor$8@?0?_ZN116_$LT$core..iter..adapters..flatten..FlattenCompat$LT$I$C$U$GT$$u20$as$u20$core..iter..traits..iterator..Iterator$GT$4next17h9beefbdd48a83f2bE@4HA";
	.scl	3;
	.type	32;
	.endef
	.p2align	4, 0x90
"?dtor$8@?0?_ZN116_$LT$core..iter..adapters..flatten..FlattenCompat$LT$I$C$U$GT$$u20$as$u20$core..iter..traits..iterator..Iterator$GT$4next17h9beefbdd48a83f2bE@4HA":
.seh_proc "?dtor$8@?0?_ZN116_$LT$core..iter..adapters..flatten..FlattenCompat$LT$I$C$U$GT$$u20$as$u20$core..iter..traits..iterator..Iterator$GT$4next17h9beefbdd48a83f2bE@4HA"
.LBB33_8:
	movq	%rdx, 16(%rsp)
	pushq	%rbp
	.seh_pushreg %rbp
	subq	$32, %rsp
	.seh_stackalloc 32
	leaq	128(%rdx), %rbp
	.seh_endprologue
	movq	-88(%rbp), %rax
	.cv_loc	33 5 295 0
	vmovups	-16(%rbp), %ymm0
	vmovups	%ymm0, 40(%rax)
	leaq	-64(%rbp), %rcx
	.cv_loc	33 5 298 0
	vzeroupper
	callq	_ZN4core3ptr71drop_in_place$LT$core..option..Option$LT$proc_macro2..TokenTree$GT$$GT$17he71f882b0574b8e6E
	nop
	addq	$32, %rsp
	popq	%rbp
	retq
	.seh_handlerdata
	.section	.text,"xr",one_only,_ZN116_$LT$core..iter..adapters..flatten..FlattenCompat$LT$I$C$U$GT$$u20$as$u20$core..iter..traits..iterator..Iterator$GT$4next17h9beefbdd48a83f2bE
	.seh_endproc
	.def	"?dtor$10@?0?_ZN116_$LT$core..iter..adapters..flatten..FlattenCompat$LT$I$C$U$GT$$u20$as$u20$core..iter..traits..iterator..Iterator$GT$4next17h9beefbdd48a83f2bE@4HA";
	.scl	3;
	.type	32;
	.endef
	.p2align	4, 0x90
"?dtor$10@?0?_ZN116_$LT$core..iter..adapters..flatten..FlattenCompat$LT$I$C$U$GT$$u20$as$u20$core..iter..traits..iterator..Iterator$GT$4next17h9beefbdd48a83f2bE@4HA":
.seh_proc "?dtor$10@?0?_ZN116_$LT$core..iter..adapters..flatten..FlattenCompat$LT$I$C$U$GT$$u20$as$u20$core..iter..traits..iterator..Iterator$GT$4next17h9beefbdd48a83f2bE@4HA"
.LBB33_10:
	movq	%rdx, 16(%rsp)
	pushq	%rbp
	.seh_pushreg %rbp
	subq	$32, %rsp
	.seh_stackalloc 32
	leaq	128(%rdx), %rbp
	.seh_endprologue
	.cv_loc	33 5 291 0
	addq	$32, %rsp
	popq	%rbp
	retq
	.seh_handlerdata
	.section	.text,"xr",one_only,_ZN116_$LT$core..iter..adapters..flatten..FlattenCompat$LT$I$C$U$GT$$u20$as$u20$core..iter..traits..iterator..Iterator$GT$4next17h9beefbdd48a83f2bE
	.seh_endproc
	.def	"?dtor$14@?0?_ZN116_$LT$core..iter..adapters..flatten..FlattenCompat$LT$I$C$U$GT$$u20$as$u20$core..iter..traits..iterator..Iterator$GT$4next17h9beefbdd48a83f2bE@4HA";
	.scl	3;
	.type	32;
	.endef
	.p2align	4, 0x90
"?dtor$14@?0?_ZN116_$LT$core..iter..adapters..flatten..FlattenCompat$LT$I$C$U$GT$$u20$as$u20$core..iter..traits..iterator..Iterator$GT$4next17h9beefbdd48a83f2bE@4HA":
.seh_proc "?dtor$14@?0?_ZN116_$LT$core..iter..adapters..flatten..FlattenCompat$LT$I$C$U$GT$$u20$as$u20$core..iter..traits..iterator..Iterator$GT$4next17h9beefbdd48a83f2bE@4HA"
.LBB33_14:
	movq	%rdx, 16(%rsp)
	pushq	%rbp
	.seh_pushreg %rbp
	subq	$32, %rsp
	.seh_stackalloc 32
	leaq	128(%rdx), %rbp
	.seh_endprologue
	movq	-88(%rbp), %rax
.Ltmp351:
	.cv_loc	33 5 307 0
	vmovups	208(%rbp), %ymm0
	vmovups	%ymm0, 40(%rax)
	addq	$32, %rsp
	popq	%rbp
	vzeroupper
	retq
.Ltmp352:
	.seh_handlerdata
	.section	.text,"xr",one_only,_ZN116_$LT$core..iter..adapters..flatten..FlattenCompat$LT$I$C$U$GT$$u20$as$u20$core..iter..traits..iterator..Iterator$GT$4next17h9beefbdd48a83f2bE
	.seh_endproc
	.def	"?dtor$24@?0?_ZN116_$LT$core..iter..adapters..flatten..FlattenCompat$LT$I$C$U$GT$$u20$as$u20$core..iter..traits..iterator..Iterator$GT$4next17h9beefbdd48a83f2bE@4HA";
	.scl	3;
	.type	32;
	.endef
	.p2align	4, 0x90
"?dtor$24@?0?_ZN116_$LT$core..iter..adapters..flatten..FlattenCompat$LT$I$C$U$GT$$u20$as$u20$core..iter..traits..iterator..Iterator$GT$4next17h9beefbdd48a83f2bE@4HA":
.seh_proc "?dtor$24@?0?_ZN116_$LT$core..iter..adapters..flatten..FlattenCompat$LT$I$C$U$GT$$u20$as$u20$core..iter..traits..iterator..Iterator$GT$4next17h9beefbdd48a83f2bE@4HA"
.LBB33_24:
	movq	%rdx, 16(%rsp)
	pushq	%rbp
	.seh_pushreg %rbp
	subq	$32, %rsp
	.seh_stackalloc 32
	leaq	128(%rdx), %rbp
	.seh_endprologue
	movq	-88(%rbp), %rax
	.cv_loc	33 5 302 0
	vmovups	128(%rbp), %ymm0
	vmovups	%ymm0, 72(%rax)
	leaq	72(%rbp), %rcx
	.cv_loc	33 5 306 0
	vzeroupper
	callq	_ZN4core3ptr71drop_in_place$LT$core..option..Option$LT$proc_macro2..TokenTree$GT$$GT$17he71f882b0574b8e6E
	nop
	addq	$32, %rsp
	popq	%rbp
	retq
.Ltmp353:
.Lfunc_end33:
	.seh_handlerdata
	.section	.text,"xr",one_only,_ZN116_$LT$core..iter..adapters..flatten..FlattenCompat$LT$I$C$U$GT$$u20$as$u20$core..iter..traits..iterator..Iterator$GT$4next17h9beefbdd48a83f2bE
	.seh_endproc
	.section	.xdata,"dr",associative,_ZN116_$LT$core..iter..adapters..flatten..FlattenCompat$LT$I$C$U$GT$$u20$as$u20$core..iter..traits..iterator..Iterator$GT$4next17h9beefbdd48a83f2bE
	.p2align	2
$cppxdata$_ZN116_$LT$core..iter..adapters..flatten..FlattenCompat$LT$I$C$U$GT$$u20$as$u20$core..iter..traits..iterator..Iterator$GT$4next17h9beefbdd48a83f2bE:
	.long	429065506
	.long	4
	.long	($stateUnwindMap$_ZN116_$LT$core..iter..adapters..flatten..FlattenCompat$LT$I$C$U$GT$$u20$as$u20$core..iter..traits..iterator..Iterator$GT$4next17h9beefbdd48a83f2bE)@IMGREL
	.long	0
	.long	0
	.long	7
	.long	($ip2state$_ZN116_$LT$core..iter..adapters..flatten..FlattenCompat$LT$I$C$U$GT$$u20$as$u20$core..iter..traits..iterator..Iterator$GT$4next17h9beefbdd48a83f2bE)@IMGREL
	.long	440
	.long	0
	.long	1
$stateUnwindMap$_ZN116_$LT$core..iter..adapters..flatten..FlattenCompat$LT$I$C$U$GT$$u20$as$u20$core..iter..traits..iterator..Iterator$GT$4next17h9beefbdd48a83f2bE:
	.long	-1
	.long	"?dtor$10@?0?_ZN116_$LT$core..iter..adapters..flatten..FlattenCompat$LT$I$C$U$GT$$u20$as$u20$core..iter..traits..iterator..Iterator$GT$4next17h9beefbdd48a83f2bE@4HA"@IMGREL
	.long	0
	.long	"?dtor$24@?0?_ZN116_$LT$core..iter..adapters..flatten..FlattenCompat$LT$I$C$U$GT$$u20$as$u20$core..iter..traits..iterator..Iterator$GT$4next17h9beefbdd48a83f2bE@4HA"@IMGREL
	.long	0
	.long	"?dtor$14@?0?_ZN116_$LT$core..iter..adapters..flatten..FlattenCompat$LT$I$C$U$GT$$u20$as$u20$core..iter..traits..iterator..Iterator$GT$4next17h9beefbdd48a83f2bE@4HA"@IMGREL
	.long	0
	.long	"?dtor$8@?0?_ZN116_$LT$core..iter..adapters..flatten..FlattenCompat$LT$I$C$U$GT$$u20$as$u20$core..iter..traits..iterator..Iterator$GT$4next17h9beefbdd48a83f2bE@4HA"@IMGREL
$ip2state$_ZN116_$LT$core..iter..adapters..flatten..FlattenCompat$LT$I$C$U$GT$$u20$as$u20$core..iter..traits..iterator..Iterator$GT$4next17h9beefbdd48a83f2bE:
	.long	.Lfunc_begin33@IMGREL
	.long	-1
	.long	.Ltmp336@IMGREL+1
	.long	3
	.long	.Ltmp337@IMGREL+1
	.long	-1
	.long	.Ltmp338@IMGREL+1
	.long	2
	.long	.Ltmp339@IMGREL+1
	.long	-1
	.long	.Ltmp340@IMGREL+1
	.long	1
	.long	.Ltmp341@IMGREL+1
	.long	-1
	.section	.text,"xr",one_only,_ZN116_$LT$core..iter..adapters..flatten..FlattenCompat$LT$I$C$U$GT$$u20$as$u20$core..iter..traits..iterator..Iterator$GT$4next17h9beefbdd48a83f2bE

	.def	_ZN116_$LT$core..iter..adapters..flatten..FlattenCompat$LT$I$C$U$GT$$u20$as$u20$core..iter..traits..iterator..Iterator$GT$9size_hint17hf464a40ad4dded58E;
	.scl	2;
	.type	32;
	.endef
	.section	.text,"xr",one_only,_ZN116_$LT$core..iter..adapters..flatten..FlattenCompat$LT$I$C$U$GT$$u20$as$u20$core..iter..traits..iterator..Iterator$GT$9size_hint17hf464a40ad4dded58E
	.globl	_ZN116_$LT$core..iter..adapters..flatten..FlattenCompat$LT$I$C$U$GT$$u20$as$u20$core..iter..traits..iterator..Iterator$GT$9size_hint17hf464a40ad4dded58E
	.p2align	4, 0x90
_ZN116_$LT$core..iter..adapters..flatten..FlattenCompat$LT$I$C$U$GT$$u20$as$u20$core..iter..traits..iterator..Iterator$GT$9size_hint17hf464a40ad4dded58E:
.Lfunc_begin34:
	.cv_func_id 34
	.cv_loc	34 5 313 0
.seh_proc _ZN116_$LT$core..iter..adapters..flatten..FlattenCompat$LT$I$C$U$GT$$u20$as$u20$core..iter..traits..iterator..Iterator$GT$9size_hint17hf464a40ad4dded58E
	subq	$888, %rsp
	.seh_stackalloc 888
	.seh_endprologue
	movq	%rdx, 216(%rsp)
	movq	%rcx, %rax
	movq	216(%rsp), %rcx
	movq	%rax, 224(%rsp)
	movq	%rax, 232(%rsp)
	movq	%rcx, 624(%rsp)
.Ltmp354:
	.cv_loc	34 5 314 0
	addq	$40, %rcx
	callq	_ZN4core6option15Option$LT$T$GT$6as_ref17h83a5c1471a78dafeE
	movq	%rax, 240(%rsp)
	movq	240(%rsp), %rdx
	movq	$0, 304(%rsp)
	movq	$1, 296(%rsp)
	movq	$0, 272(%rsp)
	movq	296(%rsp), %rcx
	movq	304(%rsp), %rax
	movq	%rcx, 280(%rsp)
	movq	%rax, 288(%rsp)
	leaq	248(%rsp), %rcx
	leaq	272(%rsp), %r8
	callq	_ZN4core6option15Option$LT$T$GT$6map_or17h5704e81260926d1fE
	movq	216(%rsp), %rcx
	movq	248(%rsp), %rax
	movq	%rax, 184(%rsp)
	movq	%rax, 680(%rsp)
	movq	256(%rsp), %rdx
	movq	%rdx, 192(%rsp)
	movq	264(%rsp), %rax
	movq	%rax, 200(%rsp)
	movq	%rdx, 688(%rsp)
	movq	%rax, 696(%rsp)
.Ltmp355:
	.cv_loc	34 5 315 0
	addq	$72, %rcx
	callq	_ZN4core6option15Option$LT$T$GT$6as_ref17h83a5c1471a78dafeE
	movq	%rax, 208(%rsp)
	movq	208(%rsp), %rdx
	movq	$0, 368(%rsp)
	movq	$1, 360(%rsp)
	movq	$0, 336(%rsp)
	movq	360(%rsp), %rcx
	movq	368(%rsp), %rax
	movq	%rcx, 344(%rsp)
	movq	%rax, 352(%rsp)
	leaq	312(%rsp), %rcx
	leaq	336(%rsp), %r8
	callq	_ZN4core6option15Option$LT$T$GT$6map_or17h5704e81260926d1fE
	movq	184(%rsp), %rax
	movq	312(%rsp), %rcx
	movq	%rcx, 704(%rsp)
	movq	320(%rsp), %r8
	movq	%r8, 160(%rsp)
	movq	328(%rsp), %rdx
	movq	%rdx, 168(%rsp)
	movq	%r8, 712(%rsp)
	movq	%rdx, 720(%rsp)
	movq	%rax, 864(%rsp)
	movq	%rcx, 872(%rsp)
.Ltmp356:
	.cv_file	10 "/rustc/fe5b13d681f25ee6474be29d748c65adcd91f69e\\library\\core\\src\\num\\uint_macros.rs" "54A3B3B9B51771E64DFE99ADCB0480BB77317ABF" 2
	.cv_inline_site_id 35 within 34 inlined_at 5 316 0
	.cv_loc	35 10 1043 0
	addq	%rcx, %rax
	movq	$-1, %rcx
	cmovbq	%rcx, %rax
	movq	%rax, 880(%rsp)
	movq	880(%rsp), %rax
	movq	%rax, 176(%rsp)
.Ltmp357:
	.cv_loc	34 5 316 0
	movq	%rax, 728(%rsp)
.Ltmp358:
	.cv_loc	34 5 318 0
	callq	_ZN74_$LT$T$u20$as$u20$core..iter..adapters..flatten..ConstSizeIntoIterator$GT$4size17h6dfc2eeef73d31feE
	movq	%rdx, 384(%rsp)
	movq	%rax, 376(%rsp)
	cmpq	$1, 376(%rsp)
	jne	.LBB34_8
	movq	216(%rsp), %rdx
	movq	384(%rsp), %rax
	movq	%rax, 152(%rsp)
	movq	%rax, 752(%rsp)
	.cv_loc	34 5 319 0
	leaq	392(%rsp), %rcx
	callq	_ZN100_$LT$core..iter..adapters..fuse..Fuse$LT$I$GT$$u20$as$u20$core..iter..traits..iterator..Iterator$GT$9size_hint17hf812c436b1aae0bbE
	jmp	.LBB34_19
.LBB34_8:
	.cv_loc	34 5 328 0
	movq	216(%rsp), %rdx
	leaq	584(%rsp), %rcx
	callq	_ZN100_$LT$core..iter..adapters..fuse..Fuse$LT$I$GT$$u20$as$u20$core..iter..traits..iterator..Iterator$GT$9size_hint17hf812c436b1aae0bbE
	movq	168(%rsp), %rax
	movq	160(%rsp), %rcx
	movq	200(%rsp), %rdx
	movq	192(%rsp), %r8
	movq	584(%rsp), %r9
	movq	%r9, 528(%rsp)
	movq	592(%rsp), %r9
	movq	%r9, 536(%rsp)
	movq	600(%rsp), %r9
	movq	%r9, 544(%rsp)
	movq	%r8, 552(%rsp)
	movq	%rdx, 560(%rsp)
	movq	%rcx, 568(%rsp)
	movq	%rax, 576(%rsp)
	cmpq	$0, 528(%rsp)
	jne	.LBB34_11
	cmpq	$1, 536(%rsp)
	je	.LBB34_12
.LBB34_11:
	.cv_loc	34 5 330 0
	movq	224(%rsp), %rax
	movq	176(%rsp), %rcx
	movq	$0, 608(%rsp)
	movq	%rcx, (%rax)
	movq	608(%rsp), %rdx
	movq	616(%rsp), %rcx
	movq	%rdx, 8(%rax)
	movq	%rcx, 16(%rax)
	jmp	.LBB34_16
.LBB34_12:
	.cv_loc	34 5 328 0
	cmpq	$1, 552(%rsp)
	jne	.LBB34_11
	cmpq	$1, 568(%rsp)
	jne	.LBB34_11
	cmpq	$0, 544(%rsp)
	jne	.LBB34_11
	.cv_loc	34 5 329 0
	movq	560(%rsp), %rcx
	movq	%rcx, 736(%rsp)
	movq	576(%rsp), %rdx
	movq	%rdx, 744(%rsp)
.Ltmp359:
	.cv_loc	34 5 329 0
	callq	_ZN4core3num23_$LT$impl$u20$usize$GT$11checked_add17haf6d7d89443c3512E
	movq	%rax, 136(%rsp)
	movq	%rdx, 144(%rsp)
	jmp	.LBB34_17
.Ltmp360:
.LBB34_16:
	.cv_loc	34 5 332 0
	jmp	.LBB34_18
.LBB34_17:
	.cv_loc	34 5 329 0
	movq	224(%rsp), %rax
	movq	144(%rsp), %rcx
	movq	136(%rsp), %rdx
	movq	176(%rsp), %r8
.Ltmp361:
	movq	%r8, (%rax)
	movq	%rdx, 8(%rax)
	movq	%rcx, 16(%rax)
.Ltmp362:
	.cv_loc	34 5 329 0
	jmp	.LBB34_16
.Ltmp363:
.LBB34_18:
	.cv_loc	34 5 332 0
	movq	232(%rsp), %rax
	addq	$888, %rsp
	retq
.LBB34_19:
	.cv_loc	34 5 319 0
	movq	152(%rsp), %rdx
.Ltmp364:
	movq	392(%rsp), %rcx
	movq	%rcx, 760(%rsp)
	movq	400(%rsp), %r8
	movq	%r8, 112(%rsp)
	movq	408(%rsp), %rax
	movq	%rax, 120(%rsp)
	movq	%r8, 768(%rsp)
	movq	%rax, 776(%rsp)
.Ltmp365:
	.cv_loc	34 5 321 0
	callq	_ZN4core3num23_$LT$impl$u20$usize$GT$14saturating_mul17he535389f7019cf78E
	movq	%rax, 128(%rsp)
	.cv_inline_site_id 36 within 34 inlined_at 5 321 0
	.cv_loc	36 10 1043 0
	movq	176(%rsp), %rcx
	movq	128(%rsp), %rax
	movq	%rax, 840(%rsp)
	movq	%rcx, 848(%rsp)
.Ltmp366:
	addq	%rcx, %rax
	movq	$-1, %rcx
	cmovbq	%rcx, %rax
	movq	%rax, 856(%rsp)
	movq	856(%rsp), %rax
	movq	%rax, 104(%rsp)
.Ltmp367:
	.cv_loc	34 5 321 0
	movq	%rax, 784(%rsp)
	.cv_loc	34 5 323 0
	movq	200(%rsp), %rdx
	movq	192(%rsp), %rcx
.Ltmp368:
	callq	_ZN75_$LT$core..option..Option$LT$T$GT$$u20$as$u20$core..ops..try_trait..Try$GT$6branch17h1702368405fa778dE
	movq	%rdx, 472(%rsp)
	movq	%rax, 464(%rsp)
	movq	464(%rsp), %rax
	testq	%rax, %rax
	je	.LBB34_24
	jmp	.LBB34_61
.LBB34_61:
	jmp	.LBB34_25
	ud2
.LBB34_24:
	movq	168(%rsp), %rdx
	movq	160(%rsp), %rcx
	movq	472(%rsp), %rax
	movq	%rax, 96(%rsp)
	movq	%rax, 792(%rsp)
	callq	_ZN75_$LT$core..option..Option$LT$T$GT$$u20$as$u20$core..ops..try_trait..Try$GT$6branch17h1702368405fa778dE
	movq	%rdx, 488(%rsp)
	movq	%rax, 480(%rsp)
	jmp	.LBB34_28
.LBB34_25:
.Ltmp369:
	.cv_loc	34 5 323 0
	callq	_ZN84_$LT$core..option..Option$LT$T$GT$$u20$as$u20$core..ops..try_trait..FromResidual$GT$13from_residual17hac42b53fd1cb1a38E
	movq	%rdx, 424(%rsp)
	movq	%rax, 416(%rsp)
.Ltmp370:
	.cv_loc	34 9 1 0
	jmp	.LBB34_27
.LBB34_27:
	jmp	.LBB34_33
.LBB34_28:
	.cv_loc	34 5 323 0
	movq	480(%rsp), %rax
	testq	%rax, %rax
	je	.LBB34_30
	jmp	.LBB34_62
.LBB34_62:
	jmp	.LBB34_31
	ud2
.LBB34_30:
	movq	96(%rsp), %rcx
	movq	488(%rsp), %rdx
	movq	%rdx, 800(%rsp)
	callq	_ZN4core3num23_$LT$impl$u20$usize$GT$11checked_add17haf6d7d89443c3512E
	movq	%rax, 80(%rsp)
	movq	%rdx, 88(%rsp)
	jmp	.LBB34_34
.LBB34_31:
.Ltmp371:
	.cv_loc	34 5 323 0
	callq	_ZN84_$LT$core..option..Option$LT$T$GT$$u20$as$u20$core..ops..try_trait..FromResidual$GT$13from_residual17hac42b53fd1cb1a38E
	movq	%rdx, 424(%rsp)
	movq	%rax, 416(%rsp)
.Ltmp372:
	.cv_loc	34 9 1 0
	jmp	.LBB34_27
.LBB34_33:
	jmp	.LBB34_52
.LBB34_34:
	.cv_loc	34 5 323 0
	movq	88(%rsp), %rdx
	movq	80(%rsp), %rcx
	callq	_ZN75_$LT$core..option..Option$LT$T$GT$$u20$as$u20$core..ops..try_trait..Try$GT$6branch17h1702368405fa778dE
	movq	%rdx, 456(%rsp)
	movq	%rax, 448(%rsp)
	movq	448(%rsp), %rax
	testq	%rax, %rax
	je	.LBB34_37
	jmp	.LBB34_63
.LBB34_63:
	jmp	.LBB34_38
	ud2
.LBB34_37:
	movq	120(%rsp), %rdx
	movq	112(%rsp), %rcx
	movq	456(%rsp), %rax
	movq	%rax, 72(%rsp)
	movq	%rax, 808(%rsp)
	callq	_ZN75_$LT$core..option..Option$LT$T$GT$$u20$as$u20$core..ops..try_trait..Try$GT$6branch17h1702368405fa778dE
	movq	%rdx, 520(%rsp)
	movq	%rax, 512(%rsp)
	jmp	.LBB34_40
.LBB34_38:
.Ltmp373:
	.cv_loc	34 5 323 0
	callq	_ZN84_$LT$core..option..Option$LT$T$GT$$u20$as$u20$core..ops..try_trait..FromResidual$GT$13from_residual17hac42b53fd1cb1a38E
	movq	%rdx, 424(%rsp)
	movq	%rax, 416(%rsp)
.Ltmp374:
	.cv_loc	34 9 1 0
	jmp	.LBB34_33
.LBB34_40:
	.cv_loc	34 5 323 0
	movq	512(%rsp), %rax
	testq	%rax, %rax
	je	.LBB34_42
	jmp	.LBB34_64
.LBB34_64:
	jmp	.LBB34_43
	ud2
.LBB34_42:
	movq	152(%rsp), %rcx
	movq	520(%rsp), %rdx
	movq	%rdx, 816(%rsp)
	callq	_ZN4core3num23_$LT$impl$u20$usize$GT$11checked_mul17h68fde7477b01cfc9E
	movq	%rax, 56(%rsp)
	movq	%rdx, 64(%rsp)
	jmp	.LBB34_46
.LBB34_43:
.Ltmp375:
	.cv_loc	34 5 323 0
	callq	_ZN84_$LT$core..option..Option$LT$T$GT$$u20$as$u20$core..ops..try_trait..FromResidual$GT$13from_residual17hac42b53fd1cb1a38E
	movq	%rdx, 424(%rsp)
	movq	%rax, 416(%rsp)
.Ltmp376:
	.cv_loc	34 9 1 0
	jmp	.LBB34_45
.LBB34_45:
	jmp	.LBB34_33
.LBB34_46:
	.cv_loc	34 5 323 0
	movq	64(%rsp), %rdx
	movq	56(%rsp), %rcx
	callq	_ZN75_$LT$core..option..Option$LT$T$GT$$u20$as$u20$core..ops..try_trait..Try$GT$6branch17h1702368405fa778dE
	movq	%rdx, 504(%rsp)
	movq	%rax, 496(%rsp)
	movq	496(%rsp), %rax
	testq	%rax, %rax
	je	.LBB34_49
	jmp	.LBB34_65
.LBB34_65:
	jmp	.LBB34_50
	ud2
.LBB34_49:
	movq	72(%rsp), %rcx
	movq	504(%rsp), %rdx
	movq	%rdx, 824(%rsp)
	callq	_ZN4core3num23_$LT$impl$u20$usize$GT$11checked_add17haf6d7d89443c3512E
	movq	%rax, 40(%rsp)
	movq	%rdx, 48(%rsp)
	jmp	.LBB34_53
.LBB34_50:
.Ltmp377:
	.cv_loc	34 5 323 0
	callq	_ZN84_$LT$core..option..Option$LT$T$GT$$u20$as$u20$core..ops..try_trait..FromResidual$GT$13from_residual17hac42b53fd1cb1a38E
	movq	%rdx, 424(%rsp)
	movq	%rax, 416(%rsp)
.Ltmp378:
	.cv_loc	34 9 1 0
	jmp	.LBB34_45
.LBB34_52:
	.cv_loc	34 5 323 0
	jmp	.LBB34_59
.LBB34_53:
	movq	48(%rsp), %rdx
	movq	40(%rsp), %rcx
	callq	_ZN75_$LT$core..option..Option$LT$T$GT$$u20$as$u20$core..ops..try_trait..Try$GT$6branch17h1702368405fa778dE
	movq	%rdx, 440(%rsp)
	movq	%rax, 432(%rsp)
	movq	432(%rsp), %rax
	testq	%rax, %rax
	je	.LBB34_56
	jmp	.LBB34_66
.LBB34_66:
	jmp	.LBB34_57
	ud2
.LBB34_56:
	movq	440(%rsp), %rcx
	movq	%rcx, 832(%rsp)
	callq	_ZN75_$LT$core..option..Option$LT$T$GT$$u20$as$u20$core..ops..try_trait..Try$GT$11from_output17h7b0285539892efa3E
	movq	%rdx, 424(%rsp)
	movq	%rax, 416(%rsp)
	jmp	.LBB34_60
.LBB34_57:
.Ltmp379:
	.cv_loc	34 5 323 0
	callq	_ZN84_$LT$core..option..Option$LT$T$GT$$u20$as$u20$core..ops..try_trait..FromResidual$GT$13from_residual17hac42b53fd1cb1a38E
	movq	%rdx, 424(%rsp)
	movq	%rax, 416(%rsp)
.Ltmp380:
	.cv_loc	34 9 1 0
	jmp	.LBB34_52
.LBB34_59:
	.cv_loc	34 5 325 0
	movq	224(%rsp), %rax
	movq	104(%rsp), %r8
.Ltmp381:
	movq	416(%rsp), %rdx
	movq	424(%rsp), %rcx
	movq	%r8, (%rax)
	movq	%rdx, 8(%rax)
	movq	%rcx, 16(%rax)
.Ltmp382:
	.cv_loc	34 5 332 0
	jmp	.LBB34_18
.LBB34_60:
.Ltmp383:
	.cv_loc	34 5 323 0
	jmp	.LBB34_59
.Ltmp384:
.Lfunc_end34:
	.seh_endproc

	.def	_ZN116_$LT$proc_macro..TokenStream$u20$as$u20$core..iter..traits..collect..FromIterator$LT$proc_macro..TokenStream$GT$$GT$9from_iter17h12d7153d52934f9dE;
	.scl	2;
	.type	32;
	.endef
	.section	.text,"xr",one_only,_ZN116_$LT$proc_macro..TokenStream$u20$as$u20$core..iter..traits..collect..FromIterator$LT$proc_macro..TokenStream$GT$$GT$9from_iter17h12d7153d52934f9dE
	.globl	_ZN116_$LT$proc_macro..TokenStream$u20$as$u20$core..iter..traits..collect..FromIterator$LT$proc_macro..TokenStream$GT$$GT$9from_iter17h12d7153d52934f9dE
	.p2align	4, 0x90
_ZN116_$LT$proc_macro..TokenStream$u20$as$u20$core..iter..traits..collect..FromIterator$LT$proc_macro..TokenStream$GT$$GT$9from_iter17h12d7153d52934f9dE:
.Lfunc_begin35:
	.cv_func_id 37
	.cv_loc	37 6 239 0
.seh_proc _ZN116_$LT$proc_macro..TokenStream$u20$as$u20$core..iter..traits..collect..FromIterator$LT$proc_macro..TokenStream$GT$$GT$9from_iter17h12d7153d52934f9dE
	.seh_handler __CxxFrameHandler3, @unwind, @except
	pushq	%rbp
	.seh_pushreg %rbp
	subq	$224, %rsp
	.seh_stackalloc 224
	leaq	128(%rsp), %rbp
	.seh_setframe %rbp, 128
	.seh_endprologue
	movq	$-2, 88(%rbp)
	movq	%rcx, -80(%rbp)
.Ltmp393:
	.cv_loc	37 6 240 0
	movb	$0, 79(%rbp)
	movb	$0, 78(%rbp)
	movb	$1, 79(%rbp)
.Ltmp385:
	callq	_ZN10proc_macro6bridge6client18TokenStreamBuilder3new17h6aad9e0bdbaaf4d0E
.Ltmp394:
.Ltmp386:
	movl	%eax, -68(%rbp)
.Ltmp395:
	jmp	.LBB35_2
.Ltmp396:
.LBB35_2:
	movq	-80(%rbp), %rax
	movl	-68(%rbp), %ecx
	movl	%ecx, 80(%rbp)
	movl	80(%rbp), %ecx
	movl	%ecx, -56(%rbp)
.Ltmp397:
	.cv_loc	37 6 241 0
	movb	$1, 78(%rbp)
	movb	$0, 79(%rbp)
	vmovups	(%rax), %ymm0
	vmovups	16(%rax), %ymm1
	vmovups	%ymm1, 16(%rbp)
	vmovups	%ymm0, (%rbp)
.Ltmp387:
	leaq	-48(%rbp), %rcx
	movq	%rbp, %rdx
	vzeroupper
	callq	_ZN63_$LT$I$u20$as$u20$core..iter..traits..collect..IntoIterator$GT$9into_iter17he530baa8ff250e29E
.Ltmp388:
	jmp	.LBB35_4
.Ltmp398:
.LBB35_4:
	leaq	-56(%rbp), %rax
	movq	%rax, 56(%rbp)
	movq	56(%rbp), %rdx
.Ltmp389:
	leaq	-48(%rbp), %rcx
	callq	_ZN4core4iter6traits8iterator8Iterator8for_each17hcf2755eaad84d6ebE
.Ltmp390:
	jmp	.LBB35_5
.Ltmp399:
.LBB35_5:
	.cv_loc	37 6 242 0
	movb	$0, 78(%rbp)
	movl	-56(%rbp), %eax
	movl	%eax, 72(%rbp)
	movl	72(%rbp), %ecx
.Ltmp391:
	callq	_ZN10proc_macro6bridge6client18TokenStreamBuilder5build17h50667d0354744831E
.Ltmp392:
	movl	%eax, -84(%rbp)
	jmp	.LBB35_6
.Ltmp400:
.LBB35_6:
	movl	-84(%rbp), %eax
	movl	%eax, 84(%rbp)
	movl	84(%rbp), %eax
	movl	%eax, 64(%rbp)
	movl	64(%rbp), %eax
	movl	%eax, -64(%rbp)
.Ltmp401:
	.cv_loc	37 6 243 0
	movb	$0, 78(%rbp)
	movl	-64(%rbp), %eax
	addq	$224, %rsp
	popq	%rbp
	retq
.Ltmp402:
	.seh_handlerdata
	.long	($cppxdata$_ZN116_$LT$proc_macro..TokenStream$u20$as$u20$core..iter..traits..collect..FromIterator$LT$proc_macro..TokenStream$GT$$GT$9from_iter17h12d7153d52934f9dE)@IMGREL
	.section	.text,"xr",one_only,_ZN116_$LT$proc_macro..TokenStream$u20$as$u20$core..iter..traits..collect..FromIterator$LT$proc_macro..TokenStream$GT$$GT$9from_iter17h12d7153d52934f9dE
	.seh_endproc
	.def	"?dtor$1@?0?_ZN116_$LT$proc_macro..TokenStream$u20$as$u20$core..iter..traits..collect..FromIterator$LT$proc_macro..TokenStream$GT$$GT$9from_iter17h12d7153d52934f9dE@4HA";
	.scl	3;
	.type	32;
	.endef
	.p2align	4, 0x90
"?dtor$1@?0?_ZN116_$LT$proc_macro..TokenStream$u20$as$u20$core..iter..traits..collect..FromIterator$LT$proc_macro..TokenStream$GT$$GT$9from_iter17h12d7153d52934f9dE@4HA":
.seh_proc "?dtor$1@?0?_ZN116_$LT$proc_macro..TokenStream$u20$as$u20$core..iter..traits..collect..FromIterator$LT$proc_macro..TokenStream$GT$$GT$9from_iter17h12d7153d52934f9dE@4HA"
.LBB35_1:
	movq	%rdx, 16(%rsp)
	pushq	%rbp
	.seh_pushreg %rbp
	subq	$32, %rsp
	.seh_stackalloc 32
	leaq	128(%rdx), %rbp
	.seh_endprologue
	testb	$1, 79(%rbp)
	jne	.LBB35_10
	jmp	.LBB35_9
.LBB35_9:
	.cv_loc	37 6 239 0
	addq	$32, %rsp
	popq	%rbp
	retq
.LBB35_10:
	.cv_loc	37 6 243 0
	movq	-80(%rbp), %rcx
	callq	_ZN4core3ptr537drop_in_place$LT$core..iter..adapters..chain..Chain$LT$core..iter..sources..once..Once$LT$proc_macro..TokenStream$GT$$C$core..iter..adapters..map..Map$LT$core..iter..adapters..map..Map$LT$core..iter..sources..once..Once$LT$proc_macro2..TokenStream$GT$$C$$LT$proc_macro2..TokenStream$u20$as$u20$core..iter..traits..collect..Extend$LT$proc_macro2..TokenStream$GT$$GT$..extend$LT$core..iter..sources..once..Once$LT$proc_macro2..TokenStream$GT$$GT$..$u7b$$u7b$closure$u7d$$u7d$$GT$$C$proc_macro2..imp..TokenStream..unwrap_nightly$GT$$GT$$GT$17hb7ff5060c935ec42E
	jmp	.LBB35_9
	.seh_handlerdata
	.section	.text,"xr",one_only,_ZN116_$LT$proc_macro..TokenStream$u20$as$u20$core..iter..traits..collect..FromIterator$LT$proc_macro..TokenStream$GT$$GT$9from_iter17h12d7153d52934f9dE
	.seh_endproc
	.def	"?dtor$3@?0?_ZN116_$LT$proc_macro..TokenStream$u20$as$u20$core..iter..traits..collect..FromIterator$LT$proc_macro..TokenStream$GT$$GT$9from_iter17h12d7153d52934f9dE@4HA";
	.scl	3;
	.type	32;
	.endef
	.p2align	4, 0x90
"?dtor$3@?0?_ZN116_$LT$proc_macro..TokenStream$u20$as$u20$core..iter..traits..collect..FromIterator$LT$proc_macro..TokenStream$GT$$GT$9from_iter17h12d7153d52934f9dE@4HA":
.seh_proc "?dtor$3@?0?_ZN116_$LT$proc_macro..TokenStream$u20$as$u20$core..iter..traits..collect..FromIterator$LT$proc_macro..TokenStream$GT$$GT$9from_iter17h12d7153d52934f9dE@4HA"
.LBB35_3:
.Ltmp403:
	movq	%rdx, 16(%rsp)
	pushq	%rbp
	.seh_pushreg %rbp
	subq	$32, %rsp
	.seh_stackalloc 32
	leaq	128(%rdx), %rbp
.Ltmp404:
	.seh_endprologue
	testb	$1, 78(%rbp)
	jne	.LBB35_8
	jmp	.LBB35_7
.LBB35_7:
	addq	$32, %rsp
	popq	%rbp
	retq
.LBB35_8:
	leaq	-56(%rbp), %rcx
	callq	_ZN4core3ptr67drop_in_place$LT$proc_macro..bridge..client..TokenStreamBuilder$GT$17h278f9bfa2276ae7dE
	nop
	addq	$32, %rsp
	popq	%rbp
	retq
.Ltmp405:
.Lfunc_end35:
	.seh_handlerdata
	.section	.text,"xr",one_only,_ZN116_$LT$proc_macro..TokenStream$u20$as$u20$core..iter..traits..collect..FromIterator$LT$proc_macro..TokenStream$GT$$GT$9from_iter17h12d7153d52934f9dE
	.seh_endproc
	.section	.xdata,"dr",associative,_ZN116_$LT$proc_macro..TokenStream$u20$as$u20$core..iter..traits..collect..FromIterator$LT$proc_macro..TokenStream$GT$$GT$9from_iter17h12d7153d52934f9dE
	.p2align	2
$cppxdata$_ZN116_$LT$proc_macro..TokenStream$u20$as$u20$core..iter..traits..collect..FromIterator$LT$proc_macro..TokenStream$GT$$GT$9from_iter17h12d7153d52934f9dE:
	.long	429065506
	.long	2
	.long	($stateUnwindMap$_ZN116_$LT$proc_macro..TokenStream$u20$as$u20$core..iter..traits..collect..FromIterator$LT$proc_macro..TokenStream$GT$$GT$9from_iter17h12d7153d52934f9dE)@IMGREL
	.long	0
	.long	0
	.long	4
	.long	($ip2state$_ZN116_$LT$proc_macro..TokenStream$u20$as$u20$core..iter..traits..collect..FromIterator$LT$proc_macro..TokenStream$GT$$GT$9from_iter17h12d7153d52934f9dE)@IMGREL
	.long	216
	.long	0
	.long	1
$stateUnwindMap$_ZN116_$LT$proc_macro..TokenStream$u20$as$u20$core..iter..traits..collect..FromIterator$LT$proc_macro..TokenStream$GT$$GT$9from_iter17h12d7153d52934f9dE:
	.long	-1
	.long	"?dtor$1@?0?_ZN116_$LT$proc_macro..TokenStream$u20$as$u20$core..iter..traits..collect..FromIterator$LT$proc_macro..TokenStream$GT$$GT$9from_iter17h12d7153d52934f9dE@4HA"@IMGREL
	.long	0
	.long	"?dtor$3@?0?_ZN116_$LT$proc_macro..TokenStream$u20$as$u20$core..iter..traits..collect..FromIterator$LT$proc_macro..TokenStream$GT$$GT$9from_iter17h12d7153d52934f9dE@4HA"@IMGREL
$ip2state$_ZN116_$LT$proc_macro..TokenStream$u20$as$u20$core..iter..traits..collect..FromIterator$LT$proc_macro..TokenStream$GT$$GT$9from_iter17h12d7153d52934f9dE:
	.long	.Lfunc_begin35@IMGREL
	.long	-1
	.long	.Ltmp385@IMGREL+1
	.long	0
	.long	.Ltmp387@IMGREL+1
	.long	1
	.long	.Ltmp392@IMGREL+1
	.long	-1
	.section	.text,"xr",one_only,_ZN116_$LT$proc_macro..TokenStream$u20$as$u20$core..iter..traits..collect..FromIterator$LT$proc_macro..TokenStream$GT$$GT$9from_iter17h12d7153d52934f9dE

	.def	_ZN116_$LT$proc_macro..TokenStream$u20$as$u20$core..iter..traits..collect..FromIterator$LT$proc_macro..TokenStream$GT$$GT$9from_iter17h77458505394e92b6E;
	.scl	2;
	.type	32;
	.endef
	.section	.text,"xr",one_only,_ZN116_$LT$proc_macro..TokenStream$u20$as$u20$core..iter..traits..collect..FromIterator$LT$proc_macro..TokenStream$GT$$GT$9from_iter17h77458505394e92b6E
	.globl	_ZN116_$LT$proc_macro..TokenStream$u20$as$u20$core..iter..traits..collect..FromIterator$LT$proc_macro..TokenStream$GT$$GT$9from_iter17h77458505394e92b6E
	.p2align	4, 0x90
_ZN116_$LT$proc_macro..TokenStream$u20$as$u20$core..iter..traits..collect..FromIterator$LT$proc_macro..TokenStream$GT$$GT$9from_iter17h77458505394e92b6E:
.Lfunc_begin36:
	.cv_func_id 38
	.cv_loc	38 6 239 0
.seh_proc _ZN116_$LT$proc_macro..TokenStream$u20$as$u20$core..iter..traits..collect..FromIterator$LT$proc_macro..TokenStream$GT$$GT$9from_iter17h77458505394e92b6E
	.seh_handler __CxxFrameHandler3, @unwind, @except
	pushq	%rbp
	.seh_pushreg %rbp
	subq	$224, %rsp
	.seh_stackalloc 224
	leaq	128(%rsp), %rbp
	.seh_setframe %rbp, 128
	.seh_endprologue
	movq	$-2, 88(%rbp)
	movq	%rcx, -80(%rbp)
.Ltmp414:
	.cv_loc	38 6 240 0
	movb	$0, 79(%rbp)
	movb	$0, 78(%rbp)
	movb	$1, 79(%rbp)
.Ltmp406:
	callq	_ZN10proc_macro6bridge6client18TokenStreamBuilder3new17h6aad9e0bdbaaf4d0E
.Ltmp415:
.Ltmp407:
	movl	%eax, -68(%rbp)
.Ltmp416:
	jmp	.LBB36_2
.Ltmp417:
.LBB36_2:
	movq	-80(%rbp), %rax
	movl	-68(%rbp), %ecx
	movl	%ecx, 80(%rbp)
	movl	80(%rbp), %ecx
	movl	%ecx, -56(%rbp)
.Ltmp418:
	.cv_loc	38 6 241 0
	movb	$1, 78(%rbp)
	movb	$0, 79(%rbp)
	vmovups	(%rax), %ymm0
	vmovups	16(%rax), %ymm1
	vmovups	%ymm1, 16(%rbp)
	vmovups	%ymm0, (%rbp)
.Ltmp408:
	leaq	-48(%rbp), %rcx
	movq	%rbp, %rdx
	vzeroupper
	callq	_ZN63_$LT$I$u20$as$u20$core..iter..traits..collect..IntoIterator$GT$9into_iter17hbbac095d8bbbe08aE
.Ltmp409:
	jmp	.LBB36_4
.Ltmp419:
.LBB36_4:
	leaq	-56(%rbp), %rax
	movq	%rax, 56(%rbp)
	movq	56(%rbp), %rdx
.Ltmp410:
	leaq	-48(%rbp), %rcx
	callq	_ZN4core4iter6traits8iterator8Iterator8for_each17hd47177b33b183933E
.Ltmp411:
	jmp	.LBB36_5
.Ltmp420:
.LBB36_5:
	.cv_loc	38 6 242 0
	movb	$0, 78(%rbp)
	movl	-56(%rbp), %eax
	movl	%eax, 72(%rbp)
	movl	72(%rbp), %ecx
.Ltmp412:
	callq	_ZN10proc_macro6bridge6client18TokenStreamBuilder5build17h50667d0354744831E
.Ltmp413:
	movl	%eax, -84(%rbp)
	jmp	.LBB36_6
.Ltmp421:
.LBB36_6:
	movl	-84(%rbp), %eax
	movl	%eax, 84(%rbp)
	movl	84(%rbp), %eax
	movl	%eax, 64(%rbp)
	movl	64(%rbp), %eax
	movl	%eax, -64(%rbp)
.Ltmp422:
	.cv_loc	38 6 243 0
	movb	$0, 78(%rbp)
	movl	-64(%rbp), %eax
	addq	$224, %rsp
	popq	%rbp
	retq
.Ltmp423:
	.seh_handlerdata
	.long	($cppxdata$_ZN116_$LT$proc_macro..TokenStream$u20$as$u20$core..iter..traits..collect..FromIterator$LT$proc_macro..TokenStream$GT$$GT$9from_iter17h77458505394e92b6E)@IMGREL
	.section	.text,"xr",one_only,_ZN116_$LT$proc_macro..TokenStream$u20$as$u20$core..iter..traits..collect..FromIterator$LT$proc_macro..TokenStream$GT$$GT$9from_iter17h77458505394e92b6E
	.seh_endproc
	.def	"?dtor$1@?0?_ZN116_$LT$proc_macro..TokenStream$u20$as$u20$core..iter..traits..collect..FromIterator$LT$proc_macro..TokenStream$GT$$GT$9from_iter17h77458505394e92b6E@4HA";
	.scl	3;
	.type	32;
	.endef
	.p2align	4, 0x90
"?dtor$1@?0?_ZN116_$LT$proc_macro..TokenStream$u20$as$u20$core..iter..traits..collect..FromIterator$LT$proc_macro..TokenStream$GT$$GT$9from_iter17h77458505394e92b6E@4HA":
.seh_proc "?dtor$1@?0?_ZN116_$LT$proc_macro..TokenStream$u20$as$u20$core..iter..traits..collect..FromIterator$LT$proc_macro..TokenStream$GT$$GT$9from_iter17h77458505394e92b6E@4HA"
.LBB36_1:
	movq	%rdx, 16(%rsp)
	pushq	%rbp
	.seh_pushreg %rbp
	subq	$32, %rsp
	.seh_stackalloc 32
	leaq	128(%rdx), %rbp
	.seh_endprologue
	testb	$1, 79(%rbp)
	jne	.LBB36_10
	jmp	.LBB36_9
.LBB36_9:
	.cv_loc	38 6 239 0
	addq	$32, %rsp
	popq	%rbp
	retq
.LBB36_10:
	.cv_loc	38 6 243 0
	movq	-80(%rbp), %rcx
	callq	_ZN4core3ptr377drop_in_place$LT$core..iter..adapters..map..Map$LT$core..iter..adapters..map..Map$LT$core..iter..adapters..map..Map$LT$proc_macro2..token_stream..IntoIter$C$quote..__private..respan_token_tree..$u7b$$u7b$closure$u7d$$u7d$$GT$$C$proc_macro2..imp..into_compiler_token$GT$$C$$LT$proc_macro..TokenStream$u20$as$u20$core..convert..From$LT$proc_macro..TokenTree$GT$$GT$..from$GT$$GT$17hf56142b2dba196a5E
	jmp	.LBB36_9
	.seh_handlerdata
	.section	.text,"xr",one_only,_ZN116_$LT$proc_macro..TokenStream$u20$as$u20$core..iter..traits..collect..FromIterator$LT$proc_macro..TokenStream$GT$$GT$9from_iter17h77458505394e92b6E
	.seh_endproc
	.def	"?dtor$3@?0?_ZN116_$LT$proc_macro..TokenStream$u20$as$u20$core..iter..traits..collect..FromIterator$LT$proc_macro..TokenStream$GT$$GT$9from_iter17h77458505394e92b6E@4HA";
	.scl	3;
	.type	32;
	.endef
	.p2align	4, 0x90
"?dtor$3@?0?_ZN116_$LT$proc_macro..TokenStream$u20$as$u20$core..iter..traits..collect..FromIterator$LT$proc_macro..TokenStream$GT$$GT$9from_iter17h77458505394e92b6E@4HA":
.seh_proc "?dtor$3@?0?_ZN116_$LT$proc_macro..TokenStream$u20$as$u20$core..iter..traits..collect..FromIterator$LT$proc_macro..TokenStream$GT$$GT$9from_iter17h77458505394e92b6E@4HA"
.LBB36_3:
.Ltmp424:
	movq	%rdx, 16(%rsp)
	pushq	%rbp
	.seh_pushreg %rbp
	subq	$32, %rsp
	.seh_stackalloc 32
	leaq	128(%rdx), %rbp
.Ltmp425:
	.seh_endprologue
	testb	$1, 78(%rbp)
	jne	.LBB36_8
	jmp	.LBB36_7
.LBB36_7:
	addq	$32, %rsp
	popq	%rbp
	retq
.LBB36_8:
	leaq	-56(%rbp), %rcx
	callq	_ZN4core3ptr67drop_in_place$LT$proc_macro..bridge..client..TokenStreamBuilder$GT$17h278f9bfa2276ae7dE
	nop
	addq	$32, %rsp
	popq	%rbp
	retq
.Ltmp426:
.Lfunc_end36:
	.seh_handlerdata
	.section	.text,"xr",one_only,_ZN116_$LT$proc_macro..TokenStream$u20$as$u20$core..iter..traits..collect..FromIterator$LT$proc_macro..TokenStream$GT$$GT$9from_iter17h77458505394e92b6E
	.seh_endproc
	.section	.xdata,"dr",associative,_ZN116_$LT$proc_macro..TokenStream$u20$as$u20$core..iter..traits..collect..FromIterator$LT$proc_macro..TokenStream$GT$$GT$9from_iter17h77458505394e92b6E
	.p2align	2
$cppxdata$_ZN116_$LT$proc_macro..TokenStream$u20$as$u20$core..iter..traits..collect..FromIterator$LT$proc_macro..TokenStream$GT$$GT$9from_iter17h77458505394e92b6E:
	.long	429065506
	.long	2
	.long	($stateUnwindMap$_ZN116_$LT$proc_macro..TokenStream$u20$as$u20$core..iter..traits..collect..FromIterator$LT$proc_macro..TokenStream$GT$$GT$9from_iter17h77458505394e92b6E)@IMGREL
	.long	0
	.long	0
	.long	4
	.long	($ip2state$_ZN116_$LT$proc_macro..TokenStream$u20$as$u20$core..iter..traits..collect..FromIterator$LT$proc_macro..TokenStream$GT$$GT$9from_iter17h77458505394e92b6E)@IMGREL
	.long	216
	.long	0
	.long	1
$stateUnwindMap$_ZN116_$LT$proc_macro..TokenStream$u20$as$u20$core..iter..traits..collect..FromIterator$LT$proc_macro..TokenStream$GT$$GT$9from_iter17h77458505394e92b6E:
	.long	-1
	.long	"?dtor$1@?0?_ZN116_$LT$proc_macro..TokenStream$u20$as$u20$core..iter..traits..collect..FromIterator$LT$proc_macro..TokenStream$GT$$GT$9from_iter17h77458505394e92b6E@4HA"@IMGREL
	.long	0
	.long	"?dtor$3@?0?_ZN116_$LT$proc_macro..TokenStream$u20$as$u20$core..iter..traits..collect..FromIterator$LT$proc_macro..TokenStream$GT$$GT$9from_iter17h77458505394e92b6E@4HA"@IMGREL
$ip2state$_ZN116_$LT$proc_macro..TokenStream$u20$as$u20$core..iter..traits..collect..FromIterator$LT$proc_macro..TokenStream$GT$$GT$9from_iter17h77458505394e92b6E:
	.long	.Lfunc_begin36@IMGREL
	.long	-1
	.long	.Ltmp406@IMGREL+1
	.long	0
	.long	.Ltmp408@IMGREL+1
	.long	1
	.long	.Ltmp413@IMGREL+1
	.long	-1
	.section	.text,"xr",one_only,_ZN116_$LT$proc_macro..TokenStream$u20$as$u20$core..iter..traits..collect..FromIterator$LT$proc_macro..TokenStream$GT$$GT$9from_iter17h77458505394e92b6E

	.def	_ZN116_$LT$proc_macro..TokenStream$u20$as$u20$core..iter..traits..collect..FromIterator$LT$proc_macro..TokenStream$GT$$GT$9from_iter28_$u7b$$u7b$closure$u7d$$u7d$17h101eb7d62831cf60E;
	.scl	2;
	.type	32;
	.endef
	.section	.text,"xr",one_only,_ZN116_$LT$proc_macro..TokenStream$u20$as$u20$core..iter..traits..collect..FromIterator$LT$proc_macro..TokenStream$GT$$GT$9from_iter28_$u7b$$u7b$closure$u7d$$u7d$17h101eb7d62831cf60E
	.globl	_ZN116_$LT$proc_macro..TokenStream$u20$as$u20$core..iter..traits..collect..FromIterator$LT$proc_macro..TokenStream$GT$$GT$9from_iter28_$u7b$$u7b$closure$u7d$$u7d$17h101eb7d62831cf60E
	.p2align	4, 0x90
_ZN116_$LT$proc_macro..TokenStream$u20$as$u20$core..iter..traits..collect..FromIterator$LT$proc_macro..TokenStream$GT$$GT$9from_iter28_$u7b$$u7b$closure$u7d$$u7d$17h101eb7d62831cf60E:
.Lfunc_begin37:
	.cv_func_id 39
	.cv_loc	39 6 241 0
.seh_proc _ZN116_$LT$proc_macro..TokenStream$u20$as$u20$core..iter..traits..collect..FromIterator$LT$proc_macro..TokenStream$GT$$GT$9from_iter28_$u7b$$u7b$closure$u7d$$u7d$17h101eb7d62831cf60E
	subq	$72, %rsp
	.seh_stackalloc 72
	.seh_endprologue
	movl	%edx, 44(%rsp)
	movl	44(%rsp), %eax
	movl	%eax, 40(%rsp)
	movq	%rcx, 56(%rsp)
	movq	56(%rsp), %rax
	movq	(%rax), %rax
	movq	%rax, 64(%rsp)
.Ltmp427:
	movq	(%rcx), %rcx
	movl	40(%rsp), %eax
	movl	%eax, 48(%rsp)
	movl	48(%rsp), %edx
	callq	_ZN10proc_macro6bridge6client18TokenStreamBuilder4push17h04ffd23f18ef12a9E
	nop
	addq	$72, %rsp
	retq
.Ltmp428:
.Lfunc_end37:
	.seh_endproc

	.def	_ZN116_$LT$proc_macro..TokenStream$u20$as$u20$core..iter..traits..collect..FromIterator$LT$proc_macro..TokenStream$GT$$GT$9from_iter28_$u7b$$u7b$closure$u7d$$u7d$17hae378e217aa02b88E;
	.scl	2;
	.type	32;
	.endef
	.section	.text,"xr",one_only,_ZN116_$LT$proc_macro..TokenStream$u20$as$u20$core..iter..traits..collect..FromIterator$LT$proc_macro..TokenStream$GT$$GT$9from_iter28_$u7b$$u7b$closure$u7d$$u7d$17hae378e217aa02b88E
	.globl	_ZN116_$LT$proc_macro..TokenStream$u20$as$u20$core..iter..traits..collect..FromIterator$LT$proc_macro..TokenStream$GT$$GT$9from_iter28_$u7b$$u7b$closure$u7d$$u7d$17hae378e217aa02b88E
	.p2align	4, 0x90
_ZN116_$LT$proc_macro..TokenStream$u20$as$u20$core..iter..traits..collect..FromIterator$LT$proc_macro..TokenStream$GT$$GT$9from_iter28_$u7b$$u7b$closure$u7d$$u7d$17hae378e217aa02b88E:
.Lfunc_begin38:
	.cv_func_id 40
	.cv_loc	40 6 241 0
.seh_proc _ZN116_$LT$proc_macro..TokenStream$u20$as$u20$core..iter..traits..collect..FromIterator$LT$proc_macro..TokenStream$GT$$GT$9from_iter28_$u7b$$u7b$closure$u7d$$u7d$17hae378e217aa02b88E
	subq	$72, %rsp
	.seh_stackalloc 72
	.seh_endprologue
	movl	%edx, 44(%rsp)
	movl	44(%rsp), %eax
	movl	%eax, 40(%rsp)
	movq	%rcx, 56(%rsp)
	movq	56(%rsp), %rax
	movq	(%rax), %rax
	movq	%rax, 64(%rsp)
.Ltmp429:
	movq	(%rcx), %rcx
	movl	40(%rsp), %eax
	movl	%eax, 48(%rsp)
	movl	48(%rsp), %edx
	callq	_ZN10proc_macro6bridge6client18TokenStreamBuilder4push17h04ffd23f18ef12a9E
	nop
	addq	$72, %rsp
	retq
.Ltmp430:
.Lfunc_end38:
	.seh_endproc

	.def	_ZN116_$LT$proc_macro2..TokenStream$u20$as$u20$core..iter..traits..collect..FromIterator$LT$proc_macro2..TokenTree$GT$$GT$9from_iter17h274b7f556f794776E;
	.scl	2;
	.type	32;
	.endef
	.section	.text,"xr",one_only,_ZN116_$LT$proc_macro2..TokenStream$u20$as$u20$core..iter..traits..collect..FromIterator$LT$proc_macro2..TokenTree$GT$$GT$9from_iter17h274b7f556f794776E
	.globl	_ZN116_$LT$proc_macro2..TokenStream$u20$as$u20$core..iter..traits..collect..FromIterator$LT$proc_macro2..TokenTree$GT$$GT$9from_iter17h274b7f556f794776E
	.p2align	4, 0x90
_ZN116_$LT$proc_macro2..TokenStream$u20$as$u20$core..iter..traits..collect..FromIterator$LT$proc_macro2..TokenTree$GT$$GT$9from_iter17h274b7f556f794776E:
.Lfunc_begin39:
	.cv_func_id 41
	.cv_loc	41 7 277 0
.seh_proc _ZN116_$LT$proc_macro2..TokenStream$u20$as$u20$core..iter..traits..collect..FromIterator$LT$proc_macro2..TokenTree$GT$$GT$9from_iter17h274b7f556f794776E
	subq	$184, %rsp
	.seh_stackalloc 184
	.seh_endprologue
	movq	%rcx, 32(%rsp)
	movq	%rcx, 40(%rsp)
.Ltmp431:
	.cv_loc	41 7 278 0
	leaq	136(%rsp), %rcx
	movl	$48, %r8d
	callq	memcpy
.Ltmp432:
	leaq	88(%rsp), %rcx
	leaq	136(%rsp), %rdx
	callq	_ZN63_$LT$I$u20$as$u20$core..iter..traits..collect..IntoIterator$GT$9into_iter17hd6e25384db3cf03bE
.Ltmp433:
	leaq	48(%rsp), %rcx
	leaq	88(%rsp), %rdx
	callq	_ZN4core4iter6traits8iterator8Iterator7collect17hf0b31833606a202fE
.Ltmp434:
	movq	32(%rsp), %rcx
	leaq	48(%rsp), %rdx
	callq	_ZN11proc_macro211TokenStream4_new17hf86709c3d602da80E
.Ltmp435:
	.cv_loc	41 7 279 0
	movq	40(%rsp), %rax
	addq	$184, %rsp
	retq
.Ltmp436:
.Lfunc_end39:
	.seh_endproc

	.def	_ZN11proc_macro25rcvec14RcVec$LT$T$GT$8make_mut17hd6a1d60fbf3e6d6dE;
	.scl	2;
	.type	32;
	.endef
	.section	.text,"xr",one_only,_ZN11proc_macro25rcvec14RcVec$LT$T$GT$8make_mut17hd6a1d60fbf3e6d6dE
	.globl	_ZN11proc_macro25rcvec14RcVec$LT$T$GT$8make_mut17hd6a1d60fbf3e6d6dE
	.p2align	4, 0x90
_ZN11proc_macro25rcvec14RcVec$LT$T$GT$8make_mut17hd6a1d60fbf3e6d6dE:
.Lfunc_begin40:
	.cv_func_id 42
	.cv_file	11 "C:\\Users\\cires\\.cargo\\registry\\src\\github.com-1ecc6299db9ec823\\proc-macro2-1.0.71\\src\\rcvec.rs" "9EF8E8D61D7EE05EC8553316EFDC3E51AA228D34" 2
	.cv_loc	42 11 37 0
.seh_proc _ZN11proc_macro25rcvec14RcVec$LT$T$GT$8make_mut17hd6a1d60fbf3e6d6dE
	subq	$56, %rsp
	.seh_stackalloc 56
	.seh_endprologue
	movq	%rcx, 48(%rsp)
.Ltmp437:
	.cv_loc	42 11 42 0
	callq	_ZN5alloc2rc11Rc$LT$T$GT$8make_mut17haa8c79cb0a7ff0caE
	movq	%rax, 32(%rsp)
	.cv_loc	42 11 41 0
	movq	32(%rsp), %rax
	movq	%rax, 40(%rsp)
	.cv_loc	42 11 44 0
	movq	40(%rsp), %rax
	addq	$56, %rsp
	retq
.Ltmp438:
.Lfunc_end40:
	.seh_endproc

	.def	_ZN11proc_macro25rcvec17RcVecMut$LT$T$GT$6as_mut17h8c9d7c657a3118f4E;
	.scl	2;
	.type	32;
	.endef
	.section	.text,"xr",one_only,_ZN11proc_macro25rcvec17RcVecMut$LT$T$GT$6as_mut17h8c9d7c657a3118f4E
	.globl	_ZN11proc_macro25rcvec17RcVecMut$LT$T$GT$6as_mut17h8c9d7c657a3118f4E
	.p2align	4, 0x90
_ZN11proc_macro25rcvec17RcVecMut$LT$T$GT$6as_mut17h8c9d7c657a3118f4E:
.Lfunc_begin41:
	.cv_func_id 43
	.cv_loc	43 11 109 0
.seh_proc _ZN11proc_macro25rcvec17RcVecMut$LT$T$GT$6as_mut17h8c9d7c657a3118f4E
	subq	$16, %rsp
	.seh_stackalloc 16
	.seh_endprologue
	movq	%rcx, 8(%rsp)
.Ltmp439:
	.cv_loc	43 11 110 0
	movq	(%rcx), %rax
	movq	%rax, (%rsp)
	.cv_loc	43 11 111 0
	movq	(%rsp), %rax
	addq	$16, %rsp
	retq
.Ltmp440:
.Lfunc_end41:
	.seh_endproc

	.def	_ZN11proc_macro25rcvec17RcVecMut$LT$T$GT$6extend17h4150c7fce49ccc57E;
	.scl	2;
	.type	32;
	.endef
	.section	.text,"xr",one_only,_ZN11proc_macro25rcvec17RcVecMut$LT$T$GT$6extend17h4150c7fce49ccc57E
	.globl	_ZN11proc_macro25rcvec17RcVecMut$LT$T$GT$6extend17h4150c7fce49ccc57E
	.p2align	4, 0x90
_ZN11proc_macro25rcvec17RcVecMut$LT$T$GT$6extend17h4150c7fce49ccc57E:
.Lfunc_begin42:
	.cv_func_id 44
	.cv_loc	44 11 101 0
.seh_proc _ZN11proc_macro25rcvec17RcVecMut$LT$T$GT$6extend17h4150c7fce49ccc57E
	subq	$152, %rsp
	.seh_stackalloc 152
	.seh_endprologue
	movq	%rcx, 144(%rsp)
.Ltmp441:
	.cv_loc	44 11 102 0
	movq	(%rcx), %rax
	movq	%rax, 32(%rsp)
	leaq	40(%rsp), %rcx
	movl	$104, %r8d
	callq	memcpy
.Ltmp442:
	movq	32(%rsp), %rcx
	leaq	40(%rsp), %rdx
	callq	_ZN93_$LT$alloc..vec..Vec$LT$T$C$A$GT$$u20$as$u20$core..iter..traits..collect..Extend$LT$T$GT$$GT$6extend17haf24ddce78f63f16E
.Ltmp443:
	.cv_loc	44 11 103 0
	nop
	addq	$152, %rsp
	retq
.Ltmp444:
.Lfunc_end42:
	.seh_endproc

	.def	_ZN120_$LT$proc_macro2..fallback..TokenStream$u20$as$u20$core..iter..traits..collect..Extend$LT$proc_macro2..TokenTree$GT$$GT$6extend17h0f4d41015c91eb33E;
	.scl	2;
	.type	32;
	.endef
	.section	.text,"xr",one_only,_ZN120_$LT$proc_macro2..fallback..TokenStream$u20$as$u20$core..iter..traits..collect..Extend$LT$proc_macro2..TokenTree$GT$$GT$6extend17h0f4d41015c91eb33E
	.globl	_ZN120_$LT$proc_macro2..fallback..TokenStream$u20$as$u20$core..iter..traits..collect..Extend$LT$proc_macro2..TokenTree$GT$$GT$6extend17h0f4d41015c91eb33E
	.p2align	4, 0x90
_ZN120_$LT$proc_macro2..fallback..TokenStream$u20$as$u20$core..iter..traits..collect..Extend$LT$proc_macro2..TokenTree$GT$$GT$6extend17h0f4d41015c91eb33E:
.Lfunc_begin43:
	.cv_func_id 45
	.cv_file	12 "C:\\Users\\cires\\.cargo\\registry\\src\\github.com-1ecc6299db9ec823\\proc-macro2-1.0.71\\src\\fallback.rs" "15B7559124CDF7CAF5D9EFC79CC237903DB5DE28" 2
	.cv_loc	45 12 273 0
.seh_proc _ZN120_$LT$proc_macro2..fallback..TokenStream$u20$as$u20$core..iter..traits..collect..Extend$LT$proc_macro2..TokenTree$GT$$GT$6extend17h0f4d41015c91eb33E
	.seh_handler __CxxFrameHandler3, @unwind, @except
	pushq	%rbp
	.seh_pushreg %rbp
	subq	$192, %rsp
	.seh_stackalloc 192
	leaq	128(%rsp), %rbp
	.seh_setframe %rbp, 128
	.seh_endprologue
	movq	$-2, 56(%rbp)
	movq	%rdx, -88(%rbp)
.Ltmp451:
	movq	%rcx, 48(%rbp)
.Ltmp452:
	.cv_loc	45 12 274 0
	movb	$0, 47(%rbp)
	movb	$1, 47(%rbp)
.Ltmp445:
	callq	_ZN11proc_macro25rcvec14RcVec$LT$T$GT$8make_mut17hd6a1d60fbf3e6d6dE
.Ltmp453:
.Ltmp446:
	movq	%rax, -80(%rbp)
.Ltmp454:
	jmp	.LBB43_2
.Ltmp455:
.LBB43_2:
	movq	-88(%rbp), %rax
	movq	-80(%rbp), %rcx
	movq	%rcx, -72(%rbp)
.Ltmp456:
	.cv_loc	45 12 275 0
	movb	$0, 47(%rbp)
	vmovups	(%rax), %ymm0
	vmovups	16(%rax), %ymm1
	vmovups	%ymm1, (%rbp)
	vmovups	%ymm0, -16(%rbp)
.Ltmp447:
	leaq	-64(%rbp), %rcx
	leaq	-16(%rbp), %rdx
	vzeroupper
	callq	_ZN63_$LT$I$u20$as$u20$core..iter..traits..collect..IntoIterator$GT$9into_iter17he4c73bcdce0fc954E
.Ltmp448:
	jmp	.LBB43_3
.Ltmp457:
.LBB43_3:
	.cv_loc	45 12 277 0
	leaq	-72(%rbp), %rax
	movq	%rax, 32(%rbp)
	.cv_loc	45 12 275 0
	movq	32(%rbp), %rdx
.Ltmp449:
	leaq	-64(%rbp), %rcx
	callq	_ZN4core4iter6traits8iterator8Iterator8for_each17h2d6af47b8dc2e431E
.Ltmp450:
	jmp	.LBB43_4
.Ltmp458:
.LBB43_4:
	.cv_loc	45 12 278 0
	addq	$192, %rsp
	popq	%rbp
	retq
.Ltmp459:
	.seh_handlerdata
	.long	($cppxdata$_ZN120_$LT$proc_macro2..fallback..TokenStream$u20$as$u20$core..iter..traits..collect..Extend$LT$proc_macro2..TokenTree$GT$$GT$6extend17h0f4d41015c91eb33E)@IMGREL
	.section	.text,"xr",one_only,_ZN120_$LT$proc_macro2..fallback..TokenStream$u20$as$u20$core..iter..traits..collect..Extend$LT$proc_macro2..TokenTree$GT$$GT$6extend17h0f4d41015c91eb33E
	.seh_endproc
	.def	"?dtor$1@?0?_ZN120_$LT$proc_macro2..fallback..TokenStream$u20$as$u20$core..iter..traits..collect..Extend$LT$proc_macro2..TokenTree$GT$$GT$6extend17h0f4d41015c91eb33E@4HA";
	.scl	3;
	.type	32;
	.endef
	.p2align	4, 0x90
"?dtor$1@?0?_ZN120_$LT$proc_macro2..fallback..TokenStream$u20$as$u20$core..iter..traits..collect..Extend$LT$proc_macro2..TokenTree$GT$$GT$6extend17h0f4d41015c91eb33E@4HA":
.seh_proc "?dtor$1@?0?_ZN120_$LT$proc_macro2..fallback..TokenStream$u20$as$u20$core..iter..traits..collect..Extend$LT$proc_macro2..TokenTree$GT$$GT$6extend17h0f4d41015c91eb33E@4HA"
.LBB43_1:
	movq	%rdx, 16(%rsp)
	pushq	%rbp
	.seh_pushreg %rbp
	subq	$32, %rsp
	.seh_stackalloc 32
	leaq	128(%rdx), %rbp
.Ltmp460:
	.seh_endprologue
	testb	$1, 47(%rbp)
	jne	.LBB43_6
	jmp	.LBB43_5
.LBB43_5:
	.cv_loc	45 12 273 0
	addq	$32, %rsp
	popq	%rbp
	retq
.LBB43_6:
	.cv_loc	45 12 278 0
	movq	-88(%rbp), %rcx
	callq	_ZN4core3ptr82drop_in_place$LT$core..iter..sources..once..Once$LT$proc_macro2..TokenTree$GT$$GT$17h39ed45f00043e52aE
	jmp	.LBB43_5
.Ltmp461:
.Lfunc_end43:
	.seh_handlerdata
	.section	.text,"xr",one_only,_ZN120_$LT$proc_macro2..fallback..TokenStream$u20$as$u20$core..iter..traits..collect..Extend$LT$proc_macro2..TokenTree$GT$$GT$6extend17h0f4d41015c91eb33E
	.seh_endproc
	.section	.xdata,"dr",associative,_ZN120_$LT$proc_macro2..fallback..TokenStream$u20$as$u20$core..iter..traits..collect..Extend$LT$proc_macro2..TokenTree$GT$$GT$6extend17h0f4d41015c91eb33E
	.p2align	2
$cppxdata$_ZN120_$LT$proc_macro2..fallback..TokenStream$u20$as$u20$core..iter..traits..collect..Extend$LT$proc_macro2..TokenTree$GT$$GT$6extend17h0f4d41015c91eb33E:
	.long	429065506
	.long	1
	.long	($stateUnwindMap$_ZN120_$LT$proc_macro2..fallback..TokenStream$u20$as$u20$core..iter..traits..collect..Extend$LT$proc_macro2..TokenTree$GT$$GT$6extend17h0f4d41015c91eb33E)@IMGREL
	.long	0
	.long	0
	.long	3
	.long	($ip2state$_ZN120_$LT$proc_macro2..fallback..TokenStream$u20$as$u20$core..iter..traits..collect..Extend$LT$proc_macro2..TokenTree$GT$$GT$6extend17h0f4d41015c91eb33E)@IMGREL
	.long	184
	.long	0
	.long	1
$stateUnwindMap$_ZN120_$LT$proc_macro2..fallback..TokenStream$u20$as$u20$core..iter..traits..collect..Extend$LT$proc_macro2..TokenTree$GT$$GT$6extend17h0f4d41015c91eb33E:
	.long	-1
	.long	"?dtor$1@?0?_ZN120_$LT$proc_macro2..fallback..TokenStream$u20$as$u20$core..iter..traits..collect..Extend$LT$proc_macro2..TokenTree$GT$$GT$6extend17h0f4d41015c91eb33E@4HA"@IMGREL
$ip2state$_ZN120_$LT$proc_macro2..fallback..TokenStream$u20$as$u20$core..iter..traits..collect..Extend$LT$proc_macro2..TokenTree$GT$$GT$6extend17h0f4d41015c91eb33E:
	.long	.Lfunc_begin43@IMGREL
	.long	-1
	.long	.Ltmp445@IMGREL+1
	.long	0
	.long	.Ltmp450@IMGREL+1
	.long	-1
	.section	.text,"xr",one_only,_ZN120_$LT$proc_macro2..fallback..TokenStream$u20$as$u20$core..iter..traits..collect..Extend$LT$proc_macro2..TokenTree$GT$$GT$6extend17h0f4d41015c91eb33E

	.def	_ZN120_$LT$proc_macro2..fallback..TokenStream$u20$as$u20$core..iter..traits..collect..Extend$LT$proc_macro2..TokenTree$GT$$GT$6extend17h29426c7bd4829defE;
	.scl	2;
	.type	32;
	.endef
	.section	.text,"xr",one_only,_ZN120_$LT$proc_macro2..fallback..TokenStream$u20$as$u20$core..iter..traits..collect..Extend$LT$proc_macro2..TokenTree$GT$$GT$6extend17h29426c7bd4829defE
	.globl	_ZN120_$LT$proc_macro2..fallback..TokenStream$u20$as$u20$core..iter..traits..collect..Extend$LT$proc_macro2..TokenTree$GT$$GT$6extend17h29426c7bd4829defE
	.p2align	4, 0x90
_ZN120_$LT$proc_macro2..fallback..TokenStream$u20$as$u20$core..iter..traits..collect..Extend$LT$proc_macro2..TokenTree$GT$$GT$6extend17h29426c7bd4829defE:
.Lfunc_begin44:
	.cv_func_id 46
	.cv_loc	46 12 273 0
.seh_proc _ZN120_$LT$proc_macro2..fallback..TokenStream$u20$as$u20$core..iter..traits..collect..Extend$LT$proc_macro2..TokenTree$GT$$GT$6extend17h29426c7bd4829defE
	.seh_handler __CxxFrameHandler3, @unwind, @except
	pushq	%rbp
	.seh_pushreg %rbp
	subq	$144, %rsp
	.seh_stackalloc 144
	leaq	128(%rsp), %rbp
	.seh_setframe %rbp, 128
	.seh_endprologue
	movq	$-2, 8(%rbp)
	movq	%rdx, -96(%rbp)
.Ltmp468:
	movq	%rcx, (%rbp)
.Ltmp469:
	.cv_loc	46 12 274 0
	movb	$0, -1(%rbp)
	movb	$1, -1(%rbp)
.Ltmp462:
	callq	_ZN11proc_macro25rcvec14RcVec$LT$T$GT$8make_mut17hd6a1d60fbf3e6d6dE
.Ltmp470:
.Ltmp463:
	movq	%rax, -88(%rbp)
.Ltmp471:
	jmp	.LBB44_2
.Ltmp472:
.LBB44_2:
	movq	-96(%rbp), %rax
	movq	-88(%rbp), %rcx
	movq	%rcx, -80(%rbp)
.Ltmp473:
	.cv_loc	46 12 275 0
	movb	$0, -1(%rbp)
	movq	16(%rax), %rcx
	movq	%rcx, -32(%rbp)
	vmovdqu	(%rax), %xmm0
	vmovdqa	%xmm0, -48(%rbp)
.Ltmp464:
	leaq	-72(%rbp), %rcx
	leaq	-48(%rbp), %rdx
	callq	_ZN63_$LT$I$u20$as$u20$core..iter..traits..collect..IntoIterator$GT$9into_iter17h0991dca2c10b1e37E
.Ltmp465:
	jmp	.LBB44_3
.Ltmp474:
.LBB44_3:
	.cv_loc	46 12 277 0
	leaq	-80(%rbp), %rax
	movq	%rax, -16(%rbp)
	.cv_loc	46 12 275 0
	movq	-16(%rbp), %rdx
.Ltmp466:
	leaq	-72(%rbp), %rcx
	callq	_ZN4core4iter6traits8iterator8Iterator8for_each17h1999802206ef72efE
.Ltmp467:
	jmp	.LBB44_4
.Ltmp475:
.LBB44_4:
	.cv_loc	46 12 278 0
	addq	$144, %rsp
	popq	%rbp
	retq
.Ltmp476:
	.seh_handlerdata
	.long	($cppxdata$_ZN120_$LT$proc_macro2..fallback..TokenStream$u20$as$u20$core..iter..traits..collect..Extend$LT$proc_macro2..TokenTree$GT$$GT$6extend17h29426c7bd4829defE)@IMGREL
	.section	.text,"xr",one_only,_ZN120_$LT$proc_macro2..fallback..TokenStream$u20$as$u20$core..iter..traits..collect..Extend$LT$proc_macro2..TokenTree$GT$$GT$6extend17h29426c7bd4829defE
	.seh_endproc
	.def	"?dtor$1@?0?_ZN120_$LT$proc_macro2..fallback..TokenStream$u20$as$u20$core..iter..traits..collect..Extend$LT$proc_macro2..TokenTree$GT$$GT$6extend17h29426c7bd4829defE@4HA";
	.scl	3;
	.type	32;
	.endef
	.p2align	4, 0x90
"?dtor$1@?0?_ZN120_$LT$proc_macro2..fallback..TokenStream$u20$as$u20$core..iter..traits..collect..Extend$LT$proc_macro2..TokenTree$GT$$GT$6extend17h29426c7bd4829defE@4HA":
.seh_proc "?dtor$1@?0?_ZN120_$LT$proc_macro2..fallback..TokenStream$u20$as$u20$core..iter..traits..collect..Extend$LT$proc_macro2..TokenTree$GT$$GT$6extend17h29426c7bd4829defE@4HA"
.LBB44_1:
	movq	%rdx, 16(%rsp)
	pushq	%rbp
	.seh_pushreg %rbp
	subq	$32, %rsp
	.seh_stackalloc 32
	leaq	128(%rdx), %rbp
.Ltmp477:
	.seh_endprologue
	testb	$1, -1(%rbp)
	jne	.LBB44_6
	jmp	.LBB44_5
.LBB44_5:
	.cv_loc	46 12 273 0
	addq	$32, %rsp
	popq	%rbp
	retq
.LBB44_6:
	.cv_loc	46 12 278 0
	jmp	.LBB44_5
.Ltmp478:
.Lfunc_end44:
	.seh_handlerdata
	.section	.text,"xr",one_only,_ZN120_$LT$proc_macro2..fallback..TokenStream$u20$as$u20$core..iter..traits..collect..Extend$LT$proc_macro2..TokenTree$GT$$GT$6extend17h29426c7bd4829defE
	.seh_endproc
	.section	.xdata,"dr",associative,_ZN120_$LT$proc_macro2..fallback..TokenStream$u20$as$u20$core..iter..traits..collect..Extend$LT$proc_macro2..TokenTree$GT$$GT$6extend17h29426c7bd4829defE
	.p2align	2
$cppxdata$_ZN120_$LT$proc_macro2..fallback..TokenStream$u20$as$u20$core..iter..traits..collect..Extend$LT$proc_macro2..TokenTree$GT$$GT$6extend17h29426c7bd4829defE:
	.long	429065506
	.long	1
	.long	($stateUnwindMap$_ZN120_$LT$proc_macro2..fallback..TokenStream$u20$as$u20$core..iter..traits..collect..Extend$LT$proc_macro2..TokenTree$GT$$GT$6extend17h29426c7bd4829defE)@IMGREL
	.long	0
	.long	0
	.long	3
	.long	($ip2state$_ZN120_$LT$proc_macro2..fallback..TokenStream$u20$as$u20$core..iter..traits..collect..Extend$LT$proc_macro2..TokenTree$GT$$GT$6extend17h29426c7bd4829defE)@IMGREL
	.long	136
	.long	0
	.long	1
$stateUnwindMap$_ZN120_$LT$proc_macro2..fallback..TokenStream$u20$as$u20$core..iter..traits..collect..Extend$LT$proc_macro2..TokenTree$GT$$GT$6extend17h29426c7bd4829defE:
	.long	-1
	.long	"?dtor$1@?0?_ZN120_$LT$proc_macro2..fallback..TokenStream$u20$as$u20$core..iter..traits..collect..Extend$LT$proc_macro2..TokenTree$GT$$GT$6extend17h29426c7bd4829defE@4HA"@IMGREL
$ip2state$_ZN120_$LT$proc_macro2..fallback..TokenStream$u20$as$u20$core..iter..traits..collect..Extend$LT$proc_macro2..TokenTree$GT$$GT$6extend17h29426c7bd4829defE:
	.long	.Lfunc_begin44@IMGREL
	.long	-1
	.long	.Ltmp462@IMGREL+1
	.long	0
	.long	.Ltmp467@IMGREL+1
	.long	-1
	.section	.text,"xr",one_only,_ZN120_$LT$proc_macro2..fallback..TokenStream$u20$as$u20$core..iter..traits..collect..Extend$LT$proc_macro2..TokenTree$GT$$GT$6extend17h29426c7bd4829defE

	.def	_ZN120_$LT$proc_macro2..fallback..TokenStream$u20$as$u20$core..iter..traits..collect..Extend$LT$proc_macro2..TokenTree$GT$$GT$6extend17h46688b4110121abdE;
	.scl	2;
	.type	32;
	.endef
	.section	.text,"xr",one_only,_ZN120_$LT$proc_macro2..fallback..TokenStream$u20$as$u20$core..iter..traits..collect..Extend$LT$proc_macro2..TokenTree$GT$$GT$6extend17h46688b4110121abdE
	.globl	_ZN120_$LT$proc_macro2..fallback..TokenStream$u20$as$u20$core..iter..traits..collect..Extend$LT$proc_macro2..TokenTree$GT$$GT$6extend17h46688b4110121abdE
	.p2align	4, 0x90
_ZN120_$LT$proc_macro2..fallback..TokenStream$u20$as$u20$core..iter..traits..collect..Extend$LT$proc_macro2..TokenTree$GT$$GT$6extend17h46688b4110121abdE:
.Lfunc_begin45:
	.cv_func_id 47
	.cv_loc	47 12 273 0
.seh_proc _ZN120_$LT$proc_macro2..fallback..TokenStream$u20$as$u20$core..iter..traits..collect..Extend$LT$proc_macro2..TokenTree$GT$$GT$6extend17h46688b4110121abdE
	.seh_handler __CxxFrameHandler3, @unwind, @except
	pushq	%rbp
	.seh_pushreg %rbp
	subq	$192, %rsp
	.seh_stackalloc 192
	leaq	128(%rsp), %rbp
	.seh_setframe %rbp, 128
	.seh_endprologue
	movq	$-2, 56(%rbp)
	movq	%rdx, -88(%rbp)
.Ltmp485:
	movq	%rcx, 48(%rbp)
.Ltmp486:
	.cv_loc	47 12 274 0
	movb	$0, 47(%rbp)
	movb	$1, 47(%rbp)
.Ltmp479:
	callq	_ZN11proc_macro25rcvec14RcVec$LT$T$GT$8make_mut17hd6a1d60fbf3e6d6dE
.Ltmp487:
.Ltmp480:
	movq	%rax, -80(%rbp)
.Ltmp488:
	jmp	.LBB45_2
.Ltmp489:
.LBB45_2:
	movq	-88(%rbp), %rax
	movq	-80(%rbp), %rcx
	movq	%rcx, -72(%rbp)
.Ltmp490:
	.cv_loc	47 12 275 0
	movb	$0, 47(%rbp)
	vmovups	(%rax), %ymm0
	vmovups	16(%rax), %ymm1
	vmovups	%ymm1, (%rbp)
	vmovups	%ymm0, -16(%rbp)
.Ltmp481:
	leaq	-64(%rbp), %rcx
	leaq	-16(%rbp), %rdx
	vzeroupper
	callq	_ZN63_$LT$I$u20$as$u20$core..iter..traits..collect..IntoIterator$GT$9into_iter17hd6e25384db3cf03bE
.Ltmp482:
	jmp	.LBB45_3
.Ltmp491:
.LBB45_3:
	.cv_loc	47 12 277 0
	leaq	-72(%rbp), %rax
	movq	%rax, 32(%rbp)
	.cv_loc	47 12 275 0
	movq	32(%rbp), %rdx
.Ltmp483:
	leaq	-64(%rbp), %rcx
	callq	_ZN4core4iter6traits8iterator8Iterator8for_each17hd5120a468d8044b6E
.Ltmp484:
	jmp	.LBB45_4
.Ltmp492:
.LBB45_4:
	.cv_loc	47 12 278 0
	addq	$192, %rsp
	popq	%rbp
	retq
.Ltmp493:
	.seh_handlerdata
	.long	($cppxdata$_ZN120_$LT$proc_macro2..fallback..TokenStream$u20$as$u20$core..iter..traits..collect..Extend$LT$proc_macro2..TokenTree$GT$$GT$6extend17h46688b4110121abdE)@IMGREL
	.section	.text,"xr",one_only,_ZN120_$LT$proc_macro2..fallback..TokenStream$u20$as$u20$core..iter..traits..collect..Extend$LT$proc_macro2..TokenTree$GT$$GT$6extend17h46688b4110121abdE
	.seh_endproc
	.def	"?dtor$1@?0?_ZN120_$LT$proc_macro2..fallback..TokenStream$u20$as$u20$core..iter..traits..collect..Extend$LT$proc_macro2..TokenTree$GT$$GT$6extend17h46688b4110121abdE@4HA";
	.scl	3;
	.type	32;
	.endef
	.p2align	4, 0x90
"?dtor$1@?0?_ZN120_$LT$proc_macro2..fallback..TokenStream$u20$as$u20$core..iter..traits..collect..Extend$LT$proc_macro2..TokenTree$GT$$GT$6extend17h46688b4110121abdE@4HA":
.seh_proc "?dtor$1@?0?_ZN120_$LT$proc_macro2..fallback..TokenStream$u20$as$u20$core..iter..traits..collect..Extend$LT$proc_macro2..TokenTree$GT$$GT$6extend17h46688b4110121abdE@4HA"
.LBB45_1:
	movq	%rdx, 16(%rsp)
	pushq	%rbp
	.seh_pushreg %rbp
	subq	$32, %rsp
	.seh_stackalloc 32
	leaq	128(%rdx), %rbp
.Ltmp494:
	.seh_endprologue
	testb	$1, 47(%rbp)
	jne	.LBB45_6
	jmp	.LBB45_5
.LBB45_5:
	.cv_loc	47 12 273 0
	addq	$32, %rsp
	popq	%rbp
	retq
.LBB45_6:
	.cv_loc	47 12 278 0
	movq	-88(%rbp), %rcx
	callq	_ZN4core3ptr161drop_in_place$LT$core..iter..adapters..map..Map$LT$proc_macro2..token_stream..IntoIter$C$quote..__private..respan_token_tree..$u7b$$u7b$closure$u7d$$u7d$$GT$$GT$17h763b5ec527ee8accE
	jmp	.LBB45_5
.Ltmp495:
.Lfunc_end45:
	.seh_handlerdata
	.section	.text,"xr",one_only,_ZN120_$LT$proc_macro2..fallback..TokenStream$u20$as$u20$core..iter..traits..collect..Extend$LT$proc_macro2..TokenTree$GT$$GT$6extend17h46688b4110121abdE
	.seh_endproc
	.section	.xdata,"dr",associative,_ZN120_$LT$proc_macro2..fallback..TokenStream$u20$as$u20$core..iter..traits..collect..Extend$LT$proc_macro2..TokenTree$GT$$GT$6extend17h46688b4110121abdE
	.p2align	2
$cppxdata$_ZN120_$LT$proc_macro2..fallback..TokenStream$u20$as$u20$core..iter..traits..collect..Extend$LT$proc_macro2..TokenTree$GT$$GT$6extend17h46688b4110121abdE:
	.long	429065506
	.long	1
	.long	($stateUnwindMap$_ZN120_$LT$proc_macro2..fallback..TokenStream$u20$as$u20$core..iter..traits..collect..Extend$LT$proc_macro2..TokenTree$GT$$GT$6extend17h46688b4110121abdE)@IMGREL
	.long	0
	.long	0
	.long	3
	.long	($ip2state$_ZN120_$LT$proc_macro2..fallback..TokenStream$u20$as$u20$core..iter..traits..collect..Extend$LT$proc_macro2..TokenTree$GT$$GT$6extend17h46688b4110121abdE)@IMGREL
	.long	184
	.long	0
	.long	1
$stateUnwindMap$_ZN120_$LT$proc_macro2..fallback..TokenStream$u20$as$u20$core..iter..traits..collect..Extend$LT$proc_macro2..TokenTree$GT$$GT$6extend17h46688b4110121abdE:
	.long	-1
	.long	"?dtor$1@?0?_ZN120_$LT$proc_macro2..fallback..TokenStream$u20$as$u20$core..iter..traits..collect..Extend$LT$proc_macro2..TokenTree$GT$$GT$6extend17h46688b4110121abdE@4HA"@IMGREL
$ip2state$_ZN120_$LT$proc_macro2..fallback..TokenStream$u20$as$u20$core..iter..traits..collect..Extend$LT$proc_macro2..TokenTree$GT$$GT$6extend17h46688b4110121abdE:
	.long	.Lfunc_begin45@IMGREL
	.long	-1
	.long	.Ltmp479@IMGREL+1
	.long	0
	.long	.Ltmp484@IMGREL+1
	.long	-1
	.section	.text,"xr",one_only,_ZN120_$LT$proc_macro2..fallback..TokenStream$u20$as$u20$core..iter..traits..collect..Extend$LT$proc_macro2..TokenTree$GT$$GT$6extend17h46688b4110121abdE

	.def	_ZN120_$LT$proc_macro2..fallback..TokenStream$u20$as$u20$core..iter..traits..collect..Extend$LT$proc_macro2..TokenTree$GT$$GT$6extend17h686b1494ea2fcb78E;
	.scl	2;
	.type	32;
	.endef
	.section	.text,"xr",one_only,_ZN120_$LT$proc_macro2..fallback..TokenStream$u20$as$u20$core..iter..traits..collect..Extend$LT$proc_macro2..TokenTree$GT$$GT$6extend17h686b1494ea2fcb78E
	.globl	_ZN120_$LT$proc_macro2..fallback..TokenStream$u20$as$u20$core..iter..traits..collect..Extend$LT$proc_macro2..TokenTree$GT$$GT$6extend17h686b1494ea2fcb78E
	.p2align	4, 0x90
_ZN120_$LT$proc_macro2..fallback..TokenStream$u20$as$u20$core..iter..traits..collect..Extend$LT$proc_macro2..TokenTree$GT$$GT$6extend17h686b1494ea2fcb78E:
.Lfunc_begin46:
	.cv_func_id 48
	.cv_loc	48 12 273 0
.seh_proc _ZN120_$LT$proc_macro2..fallback..TokenStream$u20$as$u20$core..iter..traits..collect..Extend$LT$proc_macro2..TokenTree$GT$$GT$6extend17h686b1494ea2fcb78E
	.seh_handler __CxxFrameHandler3, @unwind, @except
	pushq	%rbp
	.seh_pushreg %rbp
	subq	$144, %rsp
	.seh_stackalloc 144
	leaq	128(%rsp), %rbp
	.seh_setframe %rbp, 128
	.seh_endprologue
	movq	$-2, 8(%rbp)
	movq	%rdx, -96(%rbp)
.Ltmp502:
	movq	%rcx, (%rbp)
.Ltmp503:
	.cv_loc	48 12 274 0
	movb	$0, -1(%rbp)
	movb	$1, -1(%rbp)
.Ltmp496:
	callq	_ZN11proc_macro25rcvec14RcVec$LT$T$GT$8make_mut17hd6a1d60fbf3e6d6dE
.Ltmp504:
.Ltmp497:
	movq	%rax, -88(%rbp)
.Ltmp505:
	jmp	.LBB46_2
.Ltmp506:
.LBB46_2:
	movq	-96(%rbp), %rax
	movq	-88(%rbp), %rcx
	movq	%rcx, -80(%rbp)
.Ltmp507:
	.cv_loc	48 12 275 0
	movb	$0, -1(%rbp)
	movq	16(%rax), %rcx
	movq	%rcx, -32(%rbp)
	vmovdqu	(%rax), %xmm0
	vmovdqa	%xmm0, -48(%rbp)
.Ltmp498:
	leaq	-72(%rbp), %rcx
	leaq	-48(%rbp), %rdx
	callq	_ZN63_$LT$I$u20$as$u20$core..iter..traits..collect..IntoIterator$GT$9into_iter17h7d3224648951fc69E
.Ltmp499:
	jmp	.LBB46_3
.Ltmp508:
.LBB46_3:
	.cv_loc	48 12 277 0
	leaq	-80(%rbp), %rax
	movq	%rax, -16(%rbp)
	.cv_loc	48 12 275 0
	movq	-16(%rbp), %rdx
.Ltmp500:
	leaq	-72(%rbp), %rcx
	callq	_ZN4core4iter6traits8iterator8Iterator8for_each17hcc1064e242180a88E
.Ltmp501:
	jmp	.LBB46_4
.Ltmp509:
.LBB46_4:
	.cv_loc	48 12 278 0
	addq	$144, %rsp
	popq	%rbp
	retq
.Ltmp510:
	.seh_handlerdata
	.long	($cppxdata$_ZN120_$LT$proc_macro2..fallback..TokenStream$u20$as$u20$core..iter..traits..collect..Extend$LT$proc_macro2..TokenTree$GT$$GT$6extend17h686b1494ea2fcb78E)@IMGREL
	.section	.text,"xr",one_only,_ZN120_$LT$proc_macro2..fallback..TokenStream$u20$as$u20$core..iter..traits..collect..Extend$LT$proc_macro2..TokenTree$GT$$GT$6extend17h686b1494ea2fcb78E
	.seh_endproc
	.def	"?dtor$1@?0?_ZN120_$LT$proc_macro2..fallback..TokenStream$u20$as$u20$core..iter..traits..collect..Extend$LT$proc_macro2..TokenTree$GT$$GT$6extend17h686b1494ea2fcb78E@4HA";
	.scl	3;
	.type	32;
	.endef
	.p2align	4, 0x90
"?dtor$1@?0?_ZN120_$LT$proc_macro2..fallback..TokenStream$u20$as$u20$core..iter..traits..collect..Extend$LT$proc_macro2..TokenTree$GT$$GT$6extend17h686b1494ea2fcb78E@4HA":
.seh_proc "?dtor$1@?0?_ZN120_$LT$proc_macro2..fallback..TokenStream$u20$as$u20$core..iter..traits..collect..Extend$LT$proc_macro2..TokenTree$GT$$GT$6extend17h686b1494ea2fcb78E@4HA"
.LBB46_1:
	movq	%rdx, 16(%rsp)
	pushq	%rbp
	.seh_pushreg %rbp
	subq	$32, %rsp
	.seh_stackalloc 32
	leaq	128(%rdx), %rbp
.Ltmp511:
	.seh_endprologue
	testb	$1, -1(%rbp)
	jne	.LBB46_6
	jmp	.LBB46_5
.LBB46_5:
	.cv_loc	48 12 273 0
	addq	$32, %rsp
	popq	%rbp
	retq
.LBB46_6:
	.cv_loc	48 12 278 0
	jmp	.LBB46_5
.Ltmp512:
.Lfunc_end46:
	.seh_handlerdata
	.section	.text,"xr",one_only,_ZN120_$LT$proc_macro2..fallback..TokenStream$u20$as$u20$core..iter..traits..collect..Extend$LT$proc_macro2..TokenTree$GT$$GT$6extend17h686b1494ea2fcb78E
	.seh_endproc
	.section	.xdata,"dr",associative,_ZN120_$LT$proc_macro2..fallback..TokenStream$u20$as$u20$core..iter..traits..collect..Extend$LT$proc_macro2..TokenTree$GT$$GT$6extend17h686b1494ea2fcb78E
	.p2align	2
$cppxdata$_ZN120_$LT$proc_macro2..fallback..TokenStream$u20$as$u20$core..iter..traits..collect..Extend$LT$proc_macro2..TokenTree$GT$$GT$6extend17h686b1494ea2fcb78E:
	.long	429065506
	.long	1
	.long	($stateUnwindMap$_ZN120_$LT$proc_macro2..fallback..TokenStream$u20$as$u20$core..iter..traits..collect..Extend$LT$proc_macro2..TokenTree$GT$$GT$6extend17h686b1494ea2fcb78E)@IMGREL
	.long	0
	.long	0
	.long	3
	.long	($ip2state$_ZN120_$LT$proc_macro2..fallback..TokenStream$u20$as$u20$core..iter..traits..collect..Extend$LT$proc_macro2..TokenTree$GT$$GT$6extend17h686b1494ea2fcb78E)@IMGREL
	.long	136
	.long	0
	.long	1
$stateUnwindMap$_ZN120_$LT$proc_macro2..fallback..TokenStream$u20$as$u20$core..iter..traits..collect..Extend$LT$proc_macro2..TokenTree$GT$$GT$6extend17h686b1494ea2fcb78E:
	.long	-1
	.long	"?dtor$1@?0?_ZN120_$LT$proc_macro2..fallback..TokenStream$u20$as$u20$core..iter..traits..collect..Extend$LT$proc_macro2..TokenTree$GT$$GT$6extend17h686b1494ea2fcb78E@4HA"@IMGREL
$ip2state$_ZN120_$LT$proc_macro2..fallback..TokenStream$u20$as$u20$core..iter..traits..collect..Extend$LT$proc_macro2..TokenTree$GT$$GT$6extend17h686b1494ea2fcb78E:
	.long	.Lfunc_begin46@IMGREL
	.long	-1
	.long	.Ltmp496@IMGREL+1
	.long	0
	.long	.Ltmp501@IMGREL+1
	.long	-1
	.section	.text,"xr",one_only,_ZN120_$LT$proc_macro2..fallback..TokenStream$u20$as$u20$core..iter..traits..collect..Extend$LT$proc_macro2..TokenTree$GT$$GT$6extend17h686b1494ea2fcb78E

	.def	_ZN120_$LT$proc_macro2..fallback..TokenStream$u20$as$u20$core..iter..traits..collect..Extend$LT$proc_macro2..TokenTree$GT$$GT$6extend17h79e67e13d74d9e96E;
	.scl	2;
	.type	32;
	.endef
	.section	.text,"xr",one_only,_ZN120_$LT$proc_macro2..fallback..TokenStream$u20$as$u20$core..iter..traits..collect..Extend$LT$proc_macro2..TokenTree$GT$$GT$6extend17h79e67e13d74d9e96E
	.globl	_ZN120_$LT$proc_macro2..fallback..TokenStream$u20$as$u20$core..iter..traits..collect..Extend$LT$proc_macro2..TokenTree$GT$$GT$6extend17h79e67e13d74d9e96E
	.p2align	4, 0x90
_ZN120_$LT$proc_macro2..fallback..TokenStream$u20$as$u20$core..iter..traits..collect..Extend$LT$proc_macro2..TokenTree$GT$$GT$6extend17h79e67e13d74d9e96E:
.Lfunc_begin47:
	.cv_func_id 49
	.cv_loc	49 12 273 0
.seh_proc _ZN120_$LT$proc_macro2..fallback..TokenStream$u20$as$u20$core..iter..traits..collect..Extend$LT$proc_macro2..TokenTree$GT$$GT$6extend17h79e67e13d74d9e96E
	.seh_handler __CxxFrameHandler3, @unwind, @except
	pushq	%rbp
	.seh_pushreg %rbp
	subq	$192, %rsp
	.seh_stackalloc 192
	leaq	128(%rsp), %rbp
	.seh_setframe %rbp, 128
	.seh_endprologue
	movq	$-2, 56(%rbp)
	movq	%rdx, -88(%rbp)
.Ltmp519:
	movq	%rcx, 48(%rbp)
.Ltmp520:
	.cv_loc	49 12 274 0
	movb	$0, 47(%rbp)
	movb	$1, 47(%rbp)
.Ltmp513:
	callq	_ZN11proc_macro25rcvec14RcVec$LT$T$GT$8make_mut17hd6a1d60fbf3e6d6dE
.Ltmp521:
.Ltmp514:
	movq	%rax, -80(%rbp)
.Ltmp522:
	jmp	.LBB47_2
.Ltmp523:
.LBB47_2:
	movq	-88(%rbp), %rax
	movq	-80(%rbp), %rcx
	movq	%rcx, -72(%rbp)
.Ltmp524:
	.cv_loc	49 12 275 0
	movb	$0, 47(%rbp)
	vmovups	(%rax), %ymm0
	vmovups	16(%rax), %ymm1
	vmovups	%ymm1, (%rbp)
	vmovups	%ymm0, -16(%rbp)
.Ltmp515:
	leaq	-64(%rbp), %rcx
	leaq	-16(%rbp), %rdx
	vzeroupper
	callq	_ZN63_$LT$I$u20$as$u20$core..iter..traits..collect..IntoIterator$GT$9into_iter17h2688be7258caf35fE
.Ltmp516:
	jmp	.LBB47_3
.Ltmp525:
.LBB47_3:
	.cv_loc	49 12 277 0
	leaq	-72(%rbp), %rax
	movq	%rax, 32(%rbp)
	.cv_loc	49 12 275 0
	movq	32(%rbp), %rdx
.Ltmp517:
	leaq	-64(%rbp), %rcx
	callq	_ZN4core4iter6traits8iterator8Iterator8for_each17h726d9c571915c557E
.Ltmp518:
	jmp	.LBB47_4
.Ltmp526:
.LBB47_4:
	.cv_loc	49 12 278 0
	addq	$192, %rsp
	popq	%rbp
	retq
.Ltmp527:
	.seh_handlerdata
	.long	($cppxdata$_ZN120_$LT$proc_macro2..fallback..TokenStream$u20$as$u20$core..iter..traits..collect..Extend$LT$proc_macro2..TokenTree$GT$$GT$6extend17h79e67e13d74d9e96E)@IMGREL
	.section	.text,"xr",one_only,_ZN120_$LT$proc_macro2..fallback..TokenStream$u20$as$u20$core..iter..traits..collect..Extend$LT$proc_macro2..TokenTree$GT$$GT$6extend17h79e67e13d74d9e96E
	.seh_endproc
	.def	"?dtor$1@?0?_ZN120_$LT$proc_macro2..fallback..TokenStream$u20$as$u20$core..iter..traits..collect..Extend$LT$proc_macro2..TokenTree$GT$$GT$6extend17h79e67e13d74d9e96E@4HA";
	.scl	3;
	.type	32;
	.endef
	.p2align	4, 0x90
"?dtor$1@?0?_ZN120_$LT$proc_macro2..fallback..TokenStream$u20$as$u20$core..iter..traits..collect..Extend$LT$proc_macro2..TokenTree$GT$$GT$6extend17h79e67e13d74d9e96E@4HA":
.seh_proc "?dtor$1@?0?_ZN120_$LT$proc_macro2..fallback..TokenStream$u20$as$u20$core..iter..traits..collect..Extend$LT$proc_macro2..TokenTree$GT$$GT$6extend17h79e67e13d74d9e96E@4HA"
.LBB47_1:
	movq	%rdx, 16(%rsp)
	pushq	%rbp
	.seh_pushreg %rbp
	subq	$32, %rsp
	.seh_stackalloc 32
	leaq	128(%rdx), %rbp
.Ltmp528:
	.seh_endprologue
	testb	$1, 47(%rbp)
	jne	.LBB47_6
	jmp	.LBB47_5
.LBB47_5:
	.cv_loc	49 12 273 0
	addq	$32, %rsp
	popq	%rbp
	retq
.LBB47_6:
	.cv_loc	49 12 278 0
	movq	-88(%rbp), %rcx
	callq	_ZN4core3ptr157drop_in_place$LT$core..iter..adapters..map..Map$LT$proc_macro2..token_stream..IntoIter$C$quote..__private..parse_spanned..$u7b$$u7b$closure$u7d$$u7d$$GT$$GT$17h0511cc22e74552ebE
	jmp	.LBB47_5
.Ltmp529:
.Lfunc_end47:
	.seh_handlerdata
	.section	.text,"xr",one_only,_ZN120_$LT$proc_macro2..fallback..TokenStream$u20$as$u20$core..iter..traits..collect..Extend$LT$proc_macro2..TokenTree$GT$$GT$6extend17h79e67e13d74d9e96E
	.seh_endproc
	.section	.xdata,"dr",associative,_ZN120_$LT$proc_macro2..fallback..TokenStream$u20$as$u20$core..iter..traits..collect..Extend$LT$proc_macro2..TokenTree$GT$$GT$6extend17h79e67e13d74d9e96E
	.p2align	2
$cppxdata$_ZN120_$LT$proc_macro2..fallback..TokenStream$u20$as$u20$core..iter..traits..collect..Extend$LT$proc_macro2..TokenTree$GT$$GT$6extend17h79e67e13d74d9e96E:
	.long	429065506
	.long	1
	.long	($stateUnwindMap$_ZN120_$LT$proc_macro2..fallback..TokenStream$u20$as$u20$core..iter..traits..collect..Extend$LT$proc_macro2..TokenTree$GT$$GT$6extend17h79e67e13d74d9e96E)@IMGREL
	.long	0
	.long	0
	.long	3
	.long	($ip2state$_ZN120_$LT$proc_macro2..fallback..TokenStream$u20$as$u20$core..iter..traits..collect..Extend$LT$proc_macro2..TokenTree$GT$$GT$6extend17h79e67e13d74d9e96E)@IMGREL
	.long	184
	.long	0
	.long	1
$stateUnwindMap$_ZN120_$LT$proc_macro2..fallback..TokenStream$u20$as$u20$core..iter..traits..collect..Extend$LT$proc_macro2..TokenTree$GT$$GT$6extend17h79e67e13d74d9e96E:
	.long	-1
	.long	"?dtor$1@?0?_ZN120_$LT$proc_macro2..fallback..TokenStream$u20$as$u20$core..iter..traits..collect..Extend$LT$proc_macro2..TokenTree$GT$$GT$6extend17h79e67e13d74d9e96E@4HA"@IMGREL
$ip2state$_ZN120_$LT$proc_macro2..fallback..TokenStream$u20$as$u20$core..iter..traits..collect..Extend$LT$proc_macro2..TokenTree$GT$$GT$6extend17h79e67e13d74d9e96E:
	.long	.Lfunc_begin47@IMGREL
	.long	-1
	.long	.Ltmp513@IMGREL+1
	.long	0
	.long	.Ltmp518@IMGREL+1
	.long	-1
	.section	.text,"xr",one_only,_ZN120_$LT$proc_macro2..fallback..TokenStream$u20$as$u20$core..iter..traits..collect..Extend$LT$proc_macro2..TokenTree$GT$$GT$6extend17h79e67e13d74d9e96E

	.def	_ZN120_$LT$proc_macro2..fallback..TokenStream$u20$as$u20$core..iter..traits..collect..Extend$LT$proc_macro2..TokenTree$GT$$GT$6extend28_$u7b$$u7b$closure$u7d$$u7d$17h2463c89cc042e914E;
	.scl	2;
	.type	32;
	.endef
	.section	.text,"xr",one_only,_ZN120_$LT$proc_macro2..fallback..TokenStream$u20$as$u20$core..iter..traits..collect..Extend$LT$proc_macro2..TokenTree$GT$$GT$6extend28_$u7b$$u7b$closure$u7d$$u7d$17h2463c89cc042e914E
	.globl	_ZN120_$LT$proc_macro2..fallback..TokenStream$u20$as$u20$core..iter..traits..collect..Extend$LT$proc_macro2..TokenTree$GT$$GT$6extend28_$u7b$$u7b$closure$u7d$$u7d$17h2463c89cc042e914E
	.p2align	4, 0x90
_ZN120_$LT$proc_macro2..fallback..TokenStream$u20$as$u20$core..iter..traits..collect..Extend$LT$proc_macro2..TokenTree$GT$$GT$6extend28_$u7b$$u7b$closure$u7d$$u7d$17h2463c89cc042e914E:
.Lfunc_begin48:
	.cv_func_id 50
	.cv_loc	50 12 277 0
.seh_proc _ZN120_$LT$proc_macro2..fallback..TokenStream$u20$as$u20$core..iter..traits..collect..Extend$LT$proc_macro2..TokenTree$GT$$GT$6extend28_$u7b$$u7b$closure$u7d$$u7d$17h2463c89cc042e914E
	.seh_handler __CxxFrameHandler3, @unwind, @except
	pushq	%rbp
	.seh_pushreg %rbp
	subq	$128, %rsp
	.seh_stackalloc 128
	leaq	128(%rsp), %rbp
	.seh_setframe %rbp, 128
	.seh_endprologue
	movq	$-2, -8(%rbp)
	movq	%rdx, -96(%rbp)
.Ltmp534:
	movq	%rcx, -24(%rbp)
	movq	-24(%rbp), %rax
	movq	(%rax), %rax
	movq	%rax, -16(%rbp)
.Ltmp535:
	movb	$0, -25(%rbp)
	movb	$1, -25(%rbp)
	movq	(%rcx), %rcx
.Ltmp530:
	callq	_ZN11proc_macro25rcvec17RcVecMut$LT$T$GT$6as_mut17h8c9d7c657a3118f4E
.Ltmp536:
.Ltmp531:
	movq	%rax, -88(%rbp)
.Ltmp537:
	jmp	.LBB48_2
.Ltmp538:
.LBB48_2:
	movq	-88(%rbp), %rcx
	movq	-96(%rbp), %rax
	movb	$0, -25(%rbp)
	vmovups	(%rax), %ymm0
	vmovups	16(%rax), %ymm1
	vmovups	%ymm1, -64(%rbp)
	vmovups	%ymm0, -80(%rbp)
.Ltmp532:
	leaq	-80(%rbp), %rdx
	vzeroupper
	callq	_ZN11proc_macro28fallback26push_token_from_proc_macro17h7439ef1daa40430bE
.Ltmp533:
	jmp	.LBB48_3
.Ltmp539:
.LBB48_3:
	addq	$128, %rsp
	popq	%rbp
	retq
.Ltmp540:
	.seh_handlerdata
	.long	($cppxdata$_ZN120_$LT$proc_macro2..fallback..TokenStream$u20$as$u20$core..iter..traits..collect..Extend$LT$proc_macro2..TokenTree$GT$$GT$6extend28_$u7b$$u7b$closure$u7d$$u7d$17h2463c89cc042e914E)@IMGREL
	.section	.text,"xr",one_only,_ZN120_$LT$proc_macro2..fallback..TokenStream$u20$as$u20$core..iter..traits..collect..Extend$LT$proc_macro2..TokenTree$GT$$GT$6extend28_$u7b$$u7b$closure$u7d$$u7d$17h2463c89cc042e914E
	.seh_endproc
	.def	"?dtor$1@?0?_ZN120_$LT$proc_macro2..fallback..TokenStream$u20$as$u20$core..iter..traits..collect..Extend$LT$proc_macro2..TokenTree$GT$$GT$6extend28_$u7b$$u7b$closure$u7d$$u7d$17h2463c89cc042e914E@4HA";
	.scl	3;
	.type	32;
	.endef
	.p2align	4, 0x90
"?dtor$1@?0?_ZN120_$LT$proc_macro2..fallback..TokenStream$u20$as$u20$core..iter..traits..collect..Extend$LT$proc_macro2..TokenTree$GT$$GT$6extend28_$u7b$$u7b$closure$u7d$$u7d$17h2463c89cc042e914E@4HA":
.seh_proc "?dtor$1@?0?_ZN120_$LT$proc_macro2..fallback..TokenStream$u20$as$u20$core..iter..traits..collect..Extend$LT$proc_macro2..TokenTree$GT$$GT$6extend28_$u7b$$u7b$closure$u7d$$u7d$17h2463c89cc042e914E@4HA"
.LBB48_1:
	movq	%rdx, 16(%rsp)
	pushq	%rbp
	.seh_pushreg %rbp
	subq	$32, %rsp
	.seh_stackalloc 32
	leaq	128(%rdx), %rbp
.Ltmp541:
	.seh_endprologue
	testb	$1, -25(%rbp)
	jne	.LBB48_5
	jmp	.LBB48_4
.LBB48_4:
	addq	$32, %rsp
	popq	%rbp
	retq
.LBB48_5:
	movq	-96(%rbp), %rcx
	callq	_ZN4core3ptr43drop_in_place$LT$proc_macro2..TokenTree$GT$17hdccb7a84183fa940E
	jmp	.LBB48_4
.Ltmp542:
.Lfunc_end48:
	.seh_handlerdata
	.section	.text,"xr",one_only,_ZN120_$LT$proc_macro2..fallback..TokenStream$u20$as$u20$core..iter..traits..collect..Extend$LT$proc_macro2..TokenTree$GT$$GT$6extend28_$u7b$$u7b$closure$u7d$$u7d$17h2463c89cc042e914E
	.seh_endproc
	.section	.xdata,"dr",associative,_ZN120_$LT$proc_macro2..fallback..TokenStream$u20$as$u20$core..iter..traits..collect..Extend$LT$proc_macro2..TokenTree$GT$$GT$6extend28_$u7b$$u7b$closure$u7d$$u7d$17h2463c89cc042e914E
	.p2align	2
$cppxdata$_ZN120_$LT$proc_macro2..fallback..TokenStream$u20$as$u20$core..iter..traits..collect..Extend$LT$proc_macro2..TokenTree$GT$$GT$6extend28_$u7b$$u7b$closure$u7d$$u7d$17h2463c89cc042e914E:
	.long	429065506
	.long	1
	.long	($stateUnwindMap$_ZN120_$LT$proc_macro2..fallback..TokenStream$u20$as$u20$core..iter..traits..collect..Extend$LT$proc_macro2..TokenTree$GT$$GT$6extend28_$u7b$$u7b$closure$u7d$$u7d$17h2463c89cc042e914E)@IMGREL
	.long	0
	.long	0
	.long	3
	.long	($ip2state$_ZN120_$LT$proc_macro2..fallback..TokenStream$u20$as$u20$core..iter..traits..collect..Extend$LT$proc_macro2..TokenTree$GT$$GT$6extend28_$u7b$$u7b$closure$u7d$$u7d$17h2463c89cc042e914E)@IMGREL
	.long	120
	.long	0
	.long	1
$stateUnwindMap$_ZN120_$LT$proc_macro2..fallback..TokenStream$u20$as$u20$core..iter..traits..collect..Extend$LT$proc_macro2..TokenTree$GT$$GT$6extend28_$u7b$$u7b$closure$u7d$$u7d$17h2463c89cc042e914E:
	.long	-1
	.long	"?dtor$1@?0?_ZN120_$LT$proc_macro2..fallback..TokenStream$u20$as$u20$core..iter..traits..collect..Extend$LT$proc_macro2..TokenTree$GT$$GT$6extend28_$u7b$$u7b$closure$u7d$$u7d$17h2463c89cc042e914E@4HA"@IMGREL
$ip2state$_ZN120_$LT$proc_macro2..fallback..TokenStream$u20$as$u20$core..iter..traits..collect..Extend$LT$proc_macro2..TokenTree$GT$$GT$6extend28_$u7b$$u7b$closure$u7d$$u7d$17h2463c89cc042e914E:
	.long	.Lfunc_begin48@IMGREL
	.long	-1
	.long	.Ltmp530@IMGREL+1
	.long	0
	.long	.Ltmp533@IMGREL+1
	.long	-1
	.section	.text,"xr",one_only,_ZN120_$LT$proc_macro2..fallback..TokenStream$u20$as$u20$core..iter..traits..collect..Extend$LT$proc_macro2..TokenTree$GT$$GT$6extend28_$u7b$$u7b$closure$u7d$$u7d$17h2463c89cc042e914E

	.def	_ZN120_$LT$proc_macro2..fallback..TokenStream$u20$as$u20$core..iter..traits..collect..Extend$LT$proc_macro2..TokenTree$GT$$GT$6extend28_$u7b$$u7b$closure$u7d$$u7d$17h2c965c13bd096408E;
	.scl	2;
	.type	32;
	.endef
	.section	.text,"xr",one_only,_ZN120_$LT$proc_macro2..fallback..TokenStream$u20$as$u20$core..iter..traits..collect..Extend$LT$proc_macro2..TokenTree$GT$$GT$6extend28_$u7b$$u7b$closure$u7d$$u7d$17h2c965c13bd096408E
	.globl	_ZN120_$LT$proc_macro2..fallback..TokenStream$u20$as$u20$core..iter..traits..collect..Extend$LT$proc_macro2..TokenTree$GT$$GT$6extend28_$u7b$$u7b$closure$u7d$$u7d$17h2c965c13bd096408E
	.p2align	4, 0x90
_ZN120_$LT$proc_macro2..fallback..TokenStream$u20$as$u20$core..iter..traits..collect..Extend$LT$proc_macro2..TokenTree$GT$$GT$6extend28_$u7b$$u7b$closure$u7d$$u7d$17h2c965c13bd096408E:
.Lfunc_begin49:
	.cv_func_id 51
	.cv_loc	51 12 277 0
.seh_proc _ZN120_$LT$proc_macro2..fallback..TokenStream$u20$as$u20$core..iter..traits..collect..Extend$LT$proc_macro2..TokenTree$GT$$GT$6extend28_$u7b$$u7b$closure$u7d$$u7d$17h2c965c13bd096408E
	.seh_handler __CxxFrameHandler3, @unwind, @except
	pushq	%rbp
	.seh_pushreg %rbp
	subq	$128, %rsp
	.seh_stackalloc 128
	leaq	128(%rsp), %rbp
	.seh_setframe %rbp, 128
	.seh_endprologue
	movq	$-2, -8(%rbp)
	movq	%rdx, -96(%rbp)
.Ltmp547:
	movq	%rcx, -24(%rbp)
	movq	-24(%rbp), %rax
	movq	(%rax), %rax
	movq	%rax, -16(%rbp)
.Ltmp548:
	movb	$0, -25(%rbp)
	movb	$1, -25(%rbp)
	movq	(%rcx), %rcx
.Ltmp543:
	callq	_ZN11proc_macro25rcvec17RcVecMut$LT$T$GT$6as_mut17h8c9d7c657a3118f4E
.Ltmp549:
.Ltmp544:
	movq	%rax, -88(%rbp)
.Ltmp550:
	jmp	.LBB49_2
.Ltmp551:
.LBB49_2:
	movq	-88(%rbp), %rcx
	movq	-96(%rbp), %rax
	movb	$0, -25(%rbp)
	vmovups	(%rax), %ymm0
	vmovups	16(%rax), %ymm1
	vmovups	%ymm1, -64(%rbp)
	vmovups	%ymm0, -80(%rbp)
.Ltmp545:
	leaq	-80(%rbp), %rdx
	vzeroupper
	callq	_ZN11proc_macro28fallback26push_token_from_proc_macro17h7439ef1daa40430bE
.Ltmp546:
	jmp	.LBB49_3
.Ltmp552:
.LBB49_3:
	addq	$128, %rsp
	popq	%rbp
	retq
.Ltmp553:
	.seh_handlerdata
	.long	($cppxdata$_ZN120_$LT$proc_macro2..fallback..TokenStream$u20$as$u20$core..iter..traits..collect..Extend$LT$proc_macro2..TokenTree$GT$$GT$6extend28_$u7b$$u7b$closure$u7d$$u7d$17h2c965c13bd096408E)@IMGREL
	.section	.text,"xr",one_only,_ZN120_$LT$proc_macro2..fallback..TokenStream$u20$as$u20$core..iter..traits..collect..Extend$LT$proc_macro2..TokenTree$GT$$GT$6extend28_$u7b$$u7b$closure$u7d$$u7d$17h2c965c13bd096408E
	.seh_endproc
	.def	"?dtor$1@?0?_ZN120_$LT$proc_macro2..fallback..TokenStream$u20$as$u20$core..iter..traits..collect..Extend$LT$proc_macro2..TokenTree$GT$$GT$6extend28_$u7b$$u7b$closure$u7d$$u7d$17h2c965c13bd096408E@4HA";
	.scl	3;
	.type	32;
	.endef
	.p2align	4, 0x90
"?dtor$1@?0?_ZN120_$LT$proc_macro2..fallback..TokenStream$u20$as$u20$core..iter..traits..collect..Extend$LT$proc_macro2..TokenTree$GT$$GT$6extend28_$u7b$$u7b$closure$u7d$$u7d$17h2c965c13bd096408E@4HA":
.seh_proc "?dtor$1@?0?_ZN120_$LT$proc_macro2..fallback..TokenStream$u20$as$u20$core..iter..traits..collect..Extend$LT$proc_macro2..TokenTree$GT$$GT$6extend28_$u7b$$u7b$closure$u7d$$u7d$17h2c965c13bd096408E@4HA"
.LBB49_1:
	movq	%rdx, 16(%rsp)
	pushq	%rbp
	.seh_pushreg %rbp
	subq	$32, %rsp
	.seh_stackalloc 32
	leaq	128(%rdx), %rbp
.Ltmp554:
	.seh_endprologue
	testb	$1, -25(%rbp)
	jne	.LBB49_5
	jmp	.LBB49_4
.LBB49_4:
	addq	$32, %rsp
	popq	%rbp
	retq
.LBB49_5:
	movq	-96(%rbp), %rcx
	callq	_ZN4core3ptr43drop_in_place$LT$proc_macro2..TokenTree$GT$17hdccb7a84183fa940E
	jmp	.LBB49_4
.Ltmp555:
.Lfunc_end49:
	.seh_handlerdata
	.section	.text,"xr",one_only,_ZN120_$LT$proc_macro2..fallback..TokenStream$u20$as$u20$core..iter..traits..collect..Extend$LT$proc_macro2..TokenTree$GT$$GT$6extend28_$u7b$$u7b$closure$u7d$$u7d$17h2c965c13bd096408E
	.seh_endproc
	.section	.xdata,"dr",associative,_ZN120_$LT$proc_macro2..fallback..TokenStream$u20$as$u20$core..iter..traits..collect..Extend$LT$proc_macro2..TokenTree$GT$$GT$6extend28_$u7b$$u7b$closure$u7d$$u7d$17h2c965c13bd096408E
	.p2align	2
$cppxdata$_ZN120_$LT$proc_macro2..fallback..TokenStream$u20$as$u20$core..iter..traits..collect..Extend$LT$proc_macro2..TokenTree$GT$$GT$6extend28_$u7b$$u7b$closure$u7d$$u7d$17h2c965c13bd096408E:
	.long	429065506
	.long	1
	.long	($stateUnwindMap$_ZN120_$LT$proc_macro2..fallback..TokenStream$u20$as$u20$core..iter..traits..collect..Extend$LT$proc_macro2..TokenTree$GT$$GT$6extend28_$u7b$$u7b$closure$u7d$$u7d$17h2c965c13bd096408E)@IMGREL
	.long	0
	.long	0
	.long	3
	.long	($ip2state$_ZN120_$LT$proc_macro2..fallback..TokenStream$u20$as$u20$core..iter..traits..collect..Extend$LT$proc_macro2..TokenTree$GT$$GT$6extend28_$u7b$$u7b$closure$u7d$$u7d$17h2c965c13bd096408E)@IMGREL
	.long	120
	.long	0
	.long	1
$stateUnwindMap$_ZN120_$LT$proc_macro2..fallback..TokenStream$u20$as$u20$core..iter..traits..collect..Extend$LT$proc_macro2..TokenTree$GT$$GT$6extend28_$u7b$$u7b$closure$u7d$$u7d$17h2c965c13bd096408E:
	.long	-1
	.long	"?dtor$1@?0?_ZN120_$LT$proc_macro2..fallback..TokenStream$u20$as$u20$core..iter..traits..collect..Extend$LT$proc_macro2..TokenTree$GT$$GT$6extend28_$u7b$$u7b$closure$u7d$$u7d$17h2c965c13bd096408E@4HA"@IMGREL
$ip2state$_ZN120_$LT$proc_macro2..fallback..TokenStream$u20$as$u20$core..iter..traits..collect..Extend$LT$proc_macro2..TokenTree$GT$$GT$6extend28_$u7b$$u7b$closure$u7d$$u7d$17h2c965c13bd096408E:
	.long	.Lfunc_begin49@IMGREL
	.long	-1
	.long	.Ltmp543@IMGREL+1
	.long	0
	.long	.Ltmp546@IMGREL+1
	.long	-1
	.section	.text,"xr",one_only,_ZN120_$LT$proc_macro2..fallback..TokenStream$u20$as$u20$core..iter..traits..collect..Extend$LT$proc_macro2..TokenTree$GT$$GT$6extend28_$u7b$$u7b$closure$u7d$$u7d$17h2c965c13bd096408E

	.def	_ZN120_$LT$proc_macro2..fallback..TokenStream$u20$as$u20$core..iter..traits..collect..Extend$LT$proc_macro2..TokenTree$GT$$GT$6extend28_$u7b$$u7b$closure$u7d$$u7d$17h580d16d007ba4484E;
	.scl	2;
	.type	32;
	.endef
	.section	.text,"xr",one_only,_ZN120_$LT$proc_macro2..fallback..TokenStream$u20$as$u20$core..iter..traits..collect..Extend$LT$proc_macro2..TokenTree$GT$$GT$6extend28_$u7b$$u7b$closure$u7d$$u7d$17h580d16d007ba4484E
	.globl	_ZN120_$LT$proc_macro2..fallback..TokenStream$u20$as$u20$core..iter..traits..collect..Extend$LT$proc_macro2..TokenTree$GT$$GT$6extend28_$u7b$$u7b$closure$u7d$$u7d$17h580d16d007ba4484E
	.p2align	4, 0x90
_ZN120_$LT$proc_macro2..fallback..TokenStream$u20$as$u20$core..iter..traits..collect..Extend$LT$proc_macro2..TokenTree$GT$$GT$6extend28_$u7b$$u7b$closure$u7d$$u7d$17h580d16d007ba4484E:
.Lfunc_begin50:
	.cv_func_id 52
	.cv_loc	52 12 277 0
.seh_proc _ZN120_$LT$proc_macro2..fallback..TokenStream$u20$as$u20$core..iter..traits..collect..Extend$LT$proc_macro2..TokenTree$GT$$GT$6extend28_$u7b$$u7b$closure$u7d$$u7d$17h580d16d007ba4484E
	.seh_handler __CxxFrameHandler3, @unwind, @except
	pushq	%rbp
	.seh_pushreg %rbp
	subq	$128, %rsp
	.seh_stackalloc 128
	leaq	128(%rsp), %rbp
	.seh_setframe %rbp, 128
	.seh_endprologue
	movq	$-2, -8(%rbp)
	movq	%rdx, -96(%rbp)
.Ltmp560:
	movq	%rcx, -24(%rbp)
	movq	-24(%rbp), %rax
	movq	(%rax), %rax
	movq	%rax, -16(%rbp)
.Ltmp561:
	movb	$0, -25(%rbp)
	movb	$1, -25(%rbp)
	movq	(%rcx), %rcx
.Ltmp556:
	callq	_ZN11proc_macro25rcvec17RcVecMut$LT$T$GT$6as_mut17h8c9d7c657a3118f4E
.Ltmp562:
.Ltmp557:
	movq	%rax, -88(%rbp)
.Ltmp563:
	jmp	.LBB50_2
.Ltmp564:
.LBB50_2:
	movq	-88(%rbp), %rcx
	movq	-96(%rbp), %rax
	movb	$0, -25(%rbp)
	vmovups	(%rax), %ymm0
	vmovups	16(%rax), %ymm1
	vmovups	%ymm1, -64(%rbp)
	vmovups	%ymm0, -80(%rbp)
.Ltmp558:
	leaq	-80(%rbp), %rdx
	vzeroupper
	callq	_ZN11proc_macro28fallback26push_token_from_proc_macro17h7439ef1daa40430bE
.Ltmp559:
	jmp	.LBB50_3
.Ltmp565:
.LBB50_3:
	addq	$128, %rsp
	popq	%rbp
	retq
.Ltmp566:
	.seh_handlerdata
	.long	($cppxdata$_ZN120_$LT$proc_macro2..fallback..TokenStream$u20$as$u20$core..iter..traits..collect..Extend$LT$proc_macro2..TokenTree$GT$$GT$6extend28_$u7b$$u7b$closure$u7d$$u7d$17h580d16d007ba4484E)@IMGREL
	.section	.text,"xr",one_only,_ZN120_$LT$proc_macro2..fallback..TokenStream$u20$as$u20$core..iter..traits..collect..Extend$LT$proc_macro2..TokenTree$GT$$GT$6extend28_$u7b$$u7b$closure$u7d$$u7d$17h580d16d007ba4484E
	.seh_endproc
	.def	"?dtor$1@?0?_ZN120_$LT$proc_macro2..fallback..TokenStream$u20$as$u20$core..iter..traits..collect..Extend$LT$proc_macro2..TokenTree$GT$$GT$6extend28_$u7b$$u7b$closure$u7d$$u7d$17h580d16d007ba4484E@4HA";
	.scl	3;
	.type	32;
	.endef
	.p2align	4, 0x90
"?dtor$1@?0?_ZN120_$LT$proc_macro2..fallback..TokenStream$u20$as$u20$core..iter..traits..collect..Extend$LT$proc_macro2..TokenTree$GT$$GT$6extend28_$u7b$$u7b$closure$u7d$$u7d$17h580d16d007ba4484E@4HA":
.seh_proc "?dtor$1@?0?_ZN120_$LT$proc_macro2..fallback..TokenStream$u20$as$u20$core..iter..traits..collect..Extend$LT$proc_macro2..TokenTree$GT$$GT$6extend28_$u7b$$u7b$closure$u7d$$u7d$17h580d16d007ba4484E@4HA"
.LBB50_1:
	movq	%rdx, 16(%rsp)
	pushq	%rbp
	.seh_pushreg %rbp
	subq	$32, %rsp
	.seh_stackalloc 32
	leaq	128(%rdx), %rbp
.Ltmp567:
	.seh_endprologue
	testb	$1, -25(%rbp)
	jne	.LBB50_5
	jmp	.LBB50_4
.LBB50_4:
	addq	$32, %rsp
	popq	%rbp
	retq
.LBB50_5:
	movq	-96(%rbp), %rcx
	callq	_ZN4core3ptr43drop_in_place$LT$proc_macro2..TokenTree$GT$17hdccb7a84183fa940E
	jmp	.LBB50_4
.Ltmp568:
.Lfunc_end50:
	.seh_handlerdata
	.section	.text,"xr",one_only,_ZN120_$LT$proc_macro2..fallback..TokenStream$u20$as$u20$core..iter..traits..collect..Extend$LT$proc_macro2..TokenTree$GT$$GT$6extend28_$u7b$$u7b$closure$u7d$$u7d$17h580d16d007ba4484E
	.seh_endproc
	.section	.xdata,"dr",associative,_ZN120_$LT$proc_macro2..fallback..TokenStream$u20$as$u20$core..iter..traits..collect..Extend$LT$proc_macro2..TokenTree$GT$$GT$6extend28_$u7b$$u7b$closure$u7d$$u7d$17h580d16d007ba4484E
	.p2align	2
$cppxdata$_ZN120_$LT$proc_macro2..fallback..TokenStream$u20$as$u20$core..iter..traits..collect..Extend$LT$proc_macro2..TokenTree$GT$$GT$6extend28_$u7b$$u7b$closure$u7d$$u7d$17h580d16d007ba4484E:
	.long	429065506
	.long	1
	.long	($stateUnwindMap$_ZN120_$LT$proc_macro2..fallback..TokenStream$u20$as$u20$core..iter..traits..collect..Extend$LT$proc_macro2..TokenTree$GT$$GT$6extend28_$u7b$$u7b$closure$u7d$$u7d$17h580d16d007ba4484E)@IMGREL
	.long	0
	.long	0
	.long	3
	.long	($ip2state$_ZN120_$LT$proc_macro2..fallback..TokenStream$u20$as$u20$core..iter..traits..collect..Extend$LT$proc_macro2..TokenTree$GT$$GT$6extend28_$u7b$$u7b$closure$u7d$$u7d$17h580d16d007ba4484E)@IMGREL
	.long	120
	.long	0
	.long	1
$stateUnwindMap$_ZN120_$LT$proc_macro2..fallback..TokenStream$u20$as$u20$core..iter..traits..collect..Extend$LT$proc_macro2..TokenTree$GT$$GT$6extend28_$u7b$$u7b$closure$u7d$$u7d$17h580d16d007ba4484E:
	.long	-1
	.long	"?dtor$1@?0?_ZN120_$LT$proc_macro2..fallback..TokenStream$u20$as$u20$core..iter..traits..collect..Extend$LT$proc_macro2..TokenTree$GT$$GT$6extend28_$u7b$$u7b$closure$u7d$$u7d$17h580d16d007ba4484E@4HA"@IMGREL
$ip2state$_ZN120_$LT$proc_macro2..fallback..TokenStream$u20$as$u20$core..iter..traits..collect..Extend$LT$proc_macro2..TokenTree$GT$$GT$6extend28_$u7b$$u7b$closure$u7d$$u7d$17h580d16d007ba4484E:
	.long	.Lfunc_begin50@IMGREL
	.long	-1
	.long	.Ltmp556@IMGREL+1
	.long	0
	.long	.Ltmp559@IMGREL+1
	.long	-1
	.section	.text,"xr",one_only,_ZN120_$LT$proc_macro2..fallback..TokenStream$u20$as$u20$core..iter..traits..collect..Extend$LT$proc_macro2..TokenTree$GT$$GT$6extend28_$u7b$$u7b$closure$u7d$$u7d$17h580d16d007ba4484E

	.def	_ZN120_$LT$proc_macro2..fallback..TokenStream$u20$as$u20$core..iter..traits..collect..Extend$LT$proc_macro2..TokenTree$GT$$GT$6extend28_$u7b$$u7b$closure$u7d$$u7d$17hf700628c3726b0eaE;
	.scl	2;
	.type	32;
	.endef
	.section	.text,"xr",one_only,_ZN120_$LT$proc_macro2..fallback..TokenStream$u20$as$u20$core..iter..traits..collect..Extend$LT$proc_macro2..TokenTree$GT$$GT$6extend28_$u7b$$u7b$closure$u7d$$u7d$17hf700628c3726b0eaE
	.globl	_ZN120_$LT$proc_macro2..fallback..TokenStream$u20$as$u20$core..iter..traits..collect..Extend$LT$proc_macro2..TokenTree$GT$$GT$6extend28_$u7b$$u7b$closure$u7d$$u7d$17hf700628c3726b0eaE
	.p2align	4, 0x90
_ZN120_$LT$proc_macro2..fallback..TokenStream$u20$as$u20$core..iter..traits..collect..Extend$LT$proc_macro2..TokenTree$GT$$GT$6extend28_$u7b$$u7b$closure$u7d$$u7d$17hf700628c3726b0eaE:
.Lfunc_begin51:
	.cv_func_id 53
	.cv_loc	53 12 277 0
.seh_proc _ZN120_$LT$proc_macro2..fallback..TokenStream$u20$as$u20$core..iter..traits..collect..Extend$LT$proc_macro2..TokenTree$GT$$GT$6extend28_$u7b$$u7b$closure$u7d$$u7d$17hf700628c3726b0eaE
	.seh_handler __CxxFrameHandler3, @unwind, @except
	pushq	%rbp
	.seh_pushreg %rbp
	subq	$128, %rsp
	.seh_stackalloc 128
	leaq	128(%rsp), %rbp
	.seh_setframe %rbp, 128
	.seh_endprologue
	movq	$-2, -8(%rbp)
	movq	%rdx, -96(%rbp)
.Ltmp573:
	movq	%rcx, -24(%rbp)
	movq	-24(%rbp), %rax
	movq	(%rax), %rax
	movq	%rax, -16(%rbp)
.Ltmp574:
	movb	$0, -25(%rbp)
	movb	$1, -25(%rbp)
	movq	(%rcx), %rcx
.Ltmp569:
	callq	_ZN11proc_macro25rcvec17RcVecMut$LT$T$GT$6as_mut17h8c9d7c657a3118f4E
.Ltmp575:
.Ltmp570:
	movq	%rax, -88(%rbp)
.Ltmp576:
	jmp	.LBB51_2
.Ltmp577:
.LBB51_2:
	movq	-88(%rbp), %rcx
	movq	-96(%rbp), %rax
	movb	$0, -25(%rbp)
	vmovups	(%rax), %ymm0
	vmovups	16(%rax), %ymm1
	vmovups	%ymm1, -64(%rbp)
	vmovups	%ymm0, -80(%rbp)
.Ltmp571:
	leaq	-80(%rbp), %rdx
	vzeroupper
	callq	_ZN11proc_macro28fallback26push_token_from_proc_macro17h7439ef1daa40430bE
.Ltmp572:
	jmp	.LBB51_3
.Ltmp578:
.LBB51_3:
	addq	$128, %rsp
	popq	%rbp
	retq
.Ltmp579:
	.seh_handlerdata
	.long	($cppxdata$_ZN120_$LT$proc_macro2..fallback..TokenStream$u20$as$u20$core..iter..traits..collect..Extend$LT$proc_macro2..TokenTree$GT$$GT$6extend28_$u7b$$u7b$closure$u7d$$u7d$17hf700628c3726b0eaE)@IMGREL
	.section	.text,"xr",one_only,_ZN120_$LT$proc_macro2..fallback..TokenStream$u20$as$u20$core..iter..traits..collect..Extend$LT$proc_macro2..TokenTree$GT$$GT$6extend28_$u7b$$u7b$closure$u7d$$u7d$17hf700628c3726b0eaE
	.seh_endproc
	.def	"?dtor$1@?0?_ZN120_$LT$proc_macro2..fallback..TokenStream$u20$as$u20$core..iter..traits..collect..Extend$LT$proc_macro2..TokenTree$GT$$GT$6extend28_$u7b$$u7b$closure$u7d$$u7d$17hf700628c3726b0eaE@4HA";
	.scl	3;
	.type	32;
	.endef
	.p2align	4, 0x90
"?dtor$1@?0?_ZN120_$LT$proc_macro2..fallback..TokenStream$u20$as$u20$core..iter..traits..collect..Extend$LT$proc_macro2..TokenTree$GT$$GT$6extend28_$u7b$$u7b$closure$u7d$$u7d$17hf700628c3726b0eaE@4HA":
.seh_proc "?dtor$1@?0?_ZN120_$LT$proc_macro2..fallback..TokenStream$u20$as$u20$core..iter..traits..collect..Extend$LT$proc_macro2..TokenTree$GT$$GT$6extend28_$u7b$$u7b$closure$u7d$$u7d$17hf700628c3726b0eaE@4HA"
.LBB51_1:
	movq	%rdx, 16(%rsp)
	pushq	%rbp
	.seh_pushreg %rbp
	subq	$32, %rsp
	.seh_stackalloc 32
	leaq	128(%rdx), %rbp
.Ltmp580:
	.seh_endprologue
	testb	$1, -25(%rbp)
	jne	.LBB51_5
	jmp	.LBB51_4
.LBB51_4:
	addq	$32, %rsp
	popq	%rbp
	retq
.LBB51_5:
	movq	-96(%rbp), %rcx
	callq	_ZN4core3ptr43drop_in_place$LT$proc_macro2..TokenTree$GT$17hdccb7a84183fa940E
	jmp	.LBB51_4
.Ltmp581:
.Lfunc_end51:
	.seh_handlerdata
	.section	.text,"xr",one_only,_ZN120_$LT$proc_macro2..fallback..TokenStream$u20$as$u20$core..iter..traits..collect..Extend$LT$proc_macro2..TokenTree$GT$$GT$6extend28_$u7b$$u7b$closure$u7d$$u7d$17hf700628c3726b0eaE
	.seh_endproc
	.section	.xdata,"dr",associative,_ZN120_$LT$proc_macro2..fallback..TokenStream$u20$as$u20$core..iter..traits..collect..Extend$LT$proc_macro2..TokenTree$GT$$GT$6extend28_$u7b$$u7b$closure$u7d$$u7d$17hf700628c3726b0eaE
	.p2align	2
$cppxdata$_ZN120_$LT$proc_macro2..fallback..TokenStream$u20$as$u20$core..iter..traits..collect..Extend$LT$proc_macro2..TokenTree$GT$$GT$6extend28_$u7b$$u7b$closure$u7d$$u7d$17hf700628c3726b0eaE:
	.long	429065506
	.long	1
	.long	($stateUnwindMap$_ZN120_$LT$proc_macro2..fallback..TokenStream$u20$as$u20$core..iter..traits..collect..Extend$LT$proc_macro2..TokenTree$GT$$GT$6extend28_$u7b$$u7b$closure$u7d$$u7d$17hf700628c3726b0eaE)@IMGREL
	.long	0
	.long	0
	.long	3
	.long	($ip2state$_ZN120_$LT$proc_macro2..fallback..TokenStream$u20$as$u20$core..iter..traits..collect..Extend$LT$proc_macro2..TokenTree$GT$$GT$6extend28_$u7b$$u7b$closure$u7d$$u7d$17hf700628c3726b0eaE)@IMGREL
	.long	120
	.long	0
	.long	1
$stateUnwindMap$_ZN120_$LT$proc_macro2..fallback..TokenStream$u20$as$u20$core..iter..traits..collect..Extend$LT$proc_macro2..TokenTree$GT$$GT$6extend28_$u7b$$u7b$closure$u7d$$u7d$17hf700628c3726b0eaE:
	.long	-1
	.long	"?dtor$1@?0?_ZN120_$LT$proc_macro2..fallback..TokenStream$u20$as$u20$core..iter..traits..collect..Extend$LT$proc_macro2..TokenTree$GT$$GT$6extend28_$u7b$$u7b$closure$u7d$$u7d$17hf700628c3726b0eaE@4HA"@IMGREL
$ip2state$_ZN120_$LT$proc_macro2..fallback..TokenStream$u20$as$u20$core..iter..traits..collect..Extend$LT$proc_macro2..TokenTree$GT$$GT$6extend28_$u7b$$u7b$closure$u7d$$u7d$17hf700628c3726b0eaE:
	.long	.Lfunc_begin51@IMGREL
	.long	-1
	.long	.Ltmp569@IMGREL+1
	.long	0
	.long	.Ltmp572@IMGREL+1
	.long	-1
	.section	.text,"xr",one_only,_ZN120_$LT$proc_macro2..fallback..TokenStream$u20$as$u20$core..iter..traits..collect..Extend$LT$proc_macro2..TokenTree$GT$$GT$6extend28_$u7b$$u7b$closure$u7d$$u7d$17hf700628c3726b0eaE

	.def	_ZN120_$LT$proc_macro2..fallback..TokenStream$u20$as$u20$core..iter..traits..collect..Extend$LT$proc_macro2..TokenTree$GT$$GT$6extend28_$u7b$$u7b$closure$u7d$$u7d$17hf8d63429435034d5E;
	.scl	2;
	.type	32;
	.endef
	.section	.text,"xr",one_only,_ZN120_$LT$proc_macro2..fallback..TokenStream$u20$as$u20$core..iter..traits..collect..Extend$LT$proc_macro2..TokenTree$GT$$GT$6extend28_$u7b$$u7b$closure$u7d$$u7d$17hf8d63429435034d5E
	.globl	_ZN120_$LT$proc_macro2..fallback..TokenStream$u20$as$u20$core..iter..traits..collect..Extend$LT$proc_macro2..TokenTree$GT$$GT$6extend28_$u7b$$u7b$closure$u7d$$u7d$17hf8d63429435034d5E
	.p2align	4, 0x90
_ZN120_$LT$proc_macro2..fallback..TokenStream$u20$as$u20$core..iter..traits..collect..Extend$LT$proc_macro2..TokenTree$GT$$GT$6extend28_$u7b$$u7b$closure$u7d$$u7d$17hf8d63429435034d5E:
.Lfunc_begin52:
	.cv_func_id 54
	.cv_loc	54 12 277 0
.seh_proc _ZN120_$LT$proc_macro2..fallback..TokenStream$u20$as$u20$core..iter..traits..collect..Extend$LT$proc_macro2..TokenTree$GT$$GT$6extend28_$u7b$$u7b$closure$u7d$$u7d$17hf8d63429435034d5E
	.seh_handler __CxxFrameHandler3, @unwind, @except
	pushq	%rbp
	.seh_pushreg %rbp
	subq	$128, %rsp
	.seh_stackalloc 128
	leaq	128(%rsp), %rbp
	.seh_setframe %rbp, 128
	.seh_endprologue
	movq	$-2, -8(%rbp)
	movq	%rdx, -96(%rbp)
.Ltmp586:
	movq	%rcx, -24(%rbp)
	movq	-24(%rbp), %rax
	movq	(%rax), %rax
	movq	%rax, -16(%rbp)
.Ltmp587:
	movb	$0, -25(%rbp)
	movb	$1, -25(%rbp)
	movq	(%rcx), %rcx
.Ltmp582:
	callq	_ZN11proc_macro25rcvec17RcVecMut$LT$T$GT$6as_mut17h8c9d7c657a3118f4E
.Ltmp588:
.Ltmp583:
	movq	%rax, -88(%rbp)
.Ltmp589:
	jmp	.LBB52_2
.Ltmp590:
.LBB52_2:
	movq	-88(%rbp), %rcx
	movq	-96(%rbp), %rax
	movb	$0, -25(%rbp)
	vmovups	(%rax), %ymm0
	vmovups	16(%rax), %ymm1
	vmovups	%ymm1, -64(%rbp)
	vmovups	%ymm0, -80(%rbp)
.Ltmp584:
	leaq	-80(%rbp), %rdx
	vzeroupper
	callq	_ZN11proc_macro28fallback26push_token_from_proc_macro17h7439ef1daa40430bE
.Ltmp585:
	jmp	.LBB52_3
.Ltmp591:
.LBB52_3:
	addq	$128, %rsp
	popq	%rbp
	retq
.Ltmp592:
	.seh_handlerdata
	.long	($cppxdata$_ZN120_$LT$proc_macro2..fallback..TokenStream$u20$as$u20$core..iter..traits..collect..Extend$LT$proc_macro2..TokenTree$GT$$GT$6extend28_$u7b$$u7b$closure$u7d$$u7d$17hf8d63429435034d5E)@IMGREL
	.section	.text,"xr",one_only,_ZN120_$LT$proc_macro2..fallback..TokenStream$u20$as$u20$core..iter..traits..collect..Extend$LT$proc_macro2..TokenTree$GT$$GT$6extend28_$u7b$$u7b$closure$u7d$$u7d$17hf8d63429435034d5E
	.seh_endproc
	.def	"?dtor$1@?0?_ZN120_$LT$proc_macro2..fallback..TokenStream$u20$as$u20$core..iter..traits..collect..Extend$LT$proc_macro2..TokenTree$GT$$GT$6extend28_$u7b$$u7b$closure$u7d$$u7d$17hf8d63429435034d5E@4HA";
	.scl	3;
	.type	32;
	.endef
	.p2align	4, 0x90
"?dtor$1@?0?_ZN120_$LT$proc_macro2..fallback..TokenStream$u20$as$u20$core..iter..traits..collect..Extend$LT$proc_macro2..TokenTree$GT$$GT$6extend28_$u7b$$u7b$closure$u7d$$u7d$17hf8d63429435034d5E@4HA":
.seh_proc "?dtor$1@?0?_ZN120_$LT$proc_macro2..fallback..TokenStream$u20$as$u20$core..iter..traits..collect..Extend$LT$proc_macro2..TokenTree$GT$$GT$6extend28_$u7b$$u7b$closure$u7d$$u7d$17hf8d63429435034d5E@4HA"
.LBB52_1:
	movq	%rdx, 16(%rsp)
	pushq	%rbp
	.seh_pushreg %rbp
	subq	$32, %rsp
	.seh_stackalloc 32
	leaq	128(%rdx), %rbp
.Ltmp593:
	.seh_endprologue
	testb	$1, -25(%rbp)
	jne	.LBB52_5
	jmp	.LBB52_4
.LBB52_4:
	addq	$32, %rsp
	popq	%rbp
	retq
.LBB52_5:
	movq	-96(%rbp), %rcx
	callq	_ZN4core3ptr43drop_in_place$LT$proc_macro2..TokenTree$GT$17hdccb7a84183fa940E
	jmp	.LBB52_4
.Ltmp594:
.Lfunc_end52:
	.seh_handlerdata
	.section	.text,"xr",one_only,_ZN120_$LT$proc_macro2..fallback..TokenStream$u20$as$u20$core..iter..traits..collect..Extend$LT$proc_macro2..TokenTree$GT$$GT$6extend28_$u7b$$u7b$closure$u7d$$u7d$17hf8d63429435034d5E
	.seh_endproc
	.section	.xdata,"dr",associative,_ZN120_$LT$proc_macro2..fallback..TokenStream$u20$as$u20$core..iter..traits..collect..Extend$LT$proc_macro2..TokenTree$GT$$GT$6extend28_$u7b$$u7b$closure$u7d$$u7d$17hf8d63429435034d5E
	.p2align	2
$cppxdata$_ZN120_$LT$proc_macro2..fallback..TokenStream$u20$as$u20$core..iter..traits..collect..Extend$LT$proc_macro2..TokenTree$GT$$GT$6extend28_$u7b$$u7b$closure$u7d$$u7d$17hf8d63429435034d5E:
	.long	429065506
	.long	1
	.long	($stateUnwindMap$_ZN120_$LT$proc_macro2..fallback..TokenStream$u20$as$u20$core..iter..traits..collect..Extend$LT$proc_macro2..TokenTree$GT$$GT$6extend28_$u7b$$u7b$closure$u7d$$u7d$17hf8d63429435034d5E)@IMGREL
	.long	0
	.long	0
	.long	3
	.long	($ip2state$_ZN120_$LT$proc_macro2..fallback..TokenStream$u20$as$u20$core..iter..traits..collect..Extend$LT$proc_macro2..TokenTree$GT$$GT$6extend28_$u7b$$u7b$closure$u7d$$u7d$17hf8d63429435034d5E)@IMGREL
	.long	120
	.long	0
	.long	1
$stateUnwindMap$_ZN120_$LT$proc_macro2..fallback..TokenStream$u20$as$u20$core..iter..traits..collect..Extend$LT$proc_macro2..TokenTree$GT$$GT$6extend28_$u7b$$u7b$closure$u7d$$u7d$17hf8d63429435034d5E:
	.long	-1
	.long	"?dtor$1@?0?_ZN120_$LT$proc_macro2..fallback..TokenStream$u20$as$u20$core..iter..traits..collect..Extend$LT$proc_macro2..TokenTree$GT$$GT$6extend28_$u7b$$u7b$closure$u7d$$u7d$17hf8d63429435034d5E@4HA"@IMGREL
$ip2state$_ZN120_$LT$proc_macro2..fallback..TokenStream$u20$as$u20$core..iter..traits..collect..Extend$LT$proc_macro2..TokenTree$GT$$GT$6extend28_$u7b$$u7b$closure$u7d$$u7d$17hf8d63429435034d5E:
	.long	.Lfunc_begin52@IMGREL
	.long	-1
	.long	.Ltmp582@IMGREL+1
	.long	0
	.long	.Ltmp585@IMGREL+1
	.long	-1
	.section	.text,"xr",one_only,_ZN120_$LT$proc_macro2..fallback..TokenStream$u20$as$u20$core..iter..traits..collect..Extend$LT$proc_macro2..TokenTree$GT$$GT$6extend28_$u7b$$u7b$closure$u7d$$u7d$17hf8d63429435034d5E

	.def	_ZN121_$LT$proc_macro2..imp..TokenStream$u20$as$u20$core..iter..traits..collect..FromIterator$LT$proc_macro2..TokenTree$GT$$GT$9from_iter17hf065b660bd290dd3E;
	.scl	2;
	.type	32;
	.endef
	.section	.text,"xr",one_only,_ZN121_$LT$proc_macro2..imp..TokenStream$u20$as$u20$core..iter..traits..collect..FromIterator$LT$proc_macro2..TokenTree$GT$$GT$9from_iter17hf065b660bd290dd3E
	.globl	_ZN121_$LT$proc_macro2..imp..TokenStream$u20$as$u20$core..iter..traits..collect..FromIterator$LT$proc_macro2..TokenTree$GT$$GT$9from_iter17hf065b660bd290dd3E
	.p2align	4, 0x90
_ZN121_$LT$proc_macro2..imp..TokenStream$u20$as$u20$core..iter..traits..collect..FromIterator$LT$proc_macro2..TokenTree$GT$$GT$9from_iter17hf065b660bd290dd3E:
.Lfunc_begin53:
	.cv_func_id 55
	.cv_loc	55 8 182 0
.seh_proc _ZN121_$LT$proc_macro2..imp..TokenStream$u20$as$u20$core..iter..traits..collect..FromIterator$LT$proc_macro2..TokenTree$GT$$GT$9from_iter17hf065b660bd290dd3E
	.seh_handler __CxxFrameHandler3, @unwind, @except
	pushq	%rbp
	.seh_pushreg %rbp
	subq	$384, %rsp
	.seh_stackalloc 384
	leaq	128(%rsp), %rbp
	.seh_setframe %rbp, 128
	.seh_endprologue
	movq	$-2, 248(%rbp)
	movq	%rdx, -72(%rbp)
.Ltmp609:
	movq	%rcx, -64(%rbp)
	movq	%rcx, -56(%rbp)
.Ltmp610:
	.cv_loc	55 8 183 0
	movb	$0, 243(%rbp)
	movb	$1, 243(%rbp)
.Ltmp595:
	callq	_ZN11proc_macro29detection17inside_proc_macro17h39dc1f6d8d79d8c6E
.Ltmp611:
.Ltmp596:
	movb	%al, -41(%rbp)
.Ltmp612:
	jmp	.LBB53_2
.Ltmp613:
.LBB53_2:
	movb	-41(%rbp), %al
	testb	$1, %al
	jne	.LBB53_4
	jmp	.LBB53_3
.Ltmp614:
.LBB53_3:
	.cv_loc	55 8 188 0
	movq	-72(%rbp), %rax
	movb	$0, 243(%rbp)
	vmovups	(%rax), %ymm0
	vmovups	16(%rax), %ymm1
	vmovups	%ymm1, 208(%rbp)
	vmovups	%ymm0, 192(%rbp)
.Ltmp597:
	leaq	144(%rbp), %rcx
	leaq	192(%rbp), %rdx
	vzeroupper
	callq	_ZN63_$LT$I$u20$as$u20$core..iter..traits..collect..IntoIterator$GT$9into_iter17hd6e25384db3cf03bE
.Ltmp598:
	jmp	.LBB53_10
.Ltmp615:
.LBB53_4:
	.cv_loc	55 8 185 0
	movq	-72(%rbp), %rax
	movb	$0, 243(%rbp)
	vmovups	(%rax), %ymm0
	vmovups	16(%rax), %ymm1
	vmovups	%ymm1, 112(%rbp)
	vmovups	%ymm0, 96(%rbp)
.Ltmp601:
	leaq	48(%rbp), %rcx
	leaq	96(%rbp), %rdx
	vzeroupper
	callq	_ZN63_$LT$I$u20$as$u20$core..iter..traits..collect..IntoIterator$GT$9into_iter17hd6e25384db3cf03bE
.Ltmp602:
	jmp	.LBB53_5
.Ltmp616:
.LBB53_5:
.Ltmp603:
	movq	%rbp, %rcx
	leaq	48(%rbp), %rdx
	callq	_ZN4core4iter6traits8iterator8Iterator3map17h6fc27a03e99e24b6E
.Ltmp604:
	jmp	.LBB53_6
.Ltmp617:
.LBB53_6:
.Ltmp605:
	movq	%rbp, %rcx
	callq	_ZN4core4iter6traits8iterator8Iterator7collect17h20ade5361d5ffe0bE
.Ltmp606:
	movl	%eax, -76(%rbp)
	jmp	.LBB53_7
.Ltmp618:
.LBB53_7:
	movl	-76(%rbp), %eax
	movl	%eax, 244(%rbp)
	movl	244(%rbp), %eax
	movl	%eax, -8(%rbp)
	.cv_loc	55 8 184 0
	movl	-8(%rbp), %edx
.Ltmp607:
	leaq	-40(%rbp), %rcx
	callq	_ZN11proc_macro23imp19DeferredTokenStream3new17h930ef917c4f5b2cfE
.Ltmp608:
	jmp	.LBB53_8
.Ltmp619:
.LBB53_8:
	movq	-64(%rbp), %rax
	movq	-40(%rbp), %rcx
	movq	%rcx, 8(%rax)
	movq	-32(%rbp), %rcx
	movq	%rcx, 16(%rax)
	movq	-24(%rbp), %rcx
	movq	%rcx, 24(%rax)
	movq	-16(%rbp), %rcx
	movq	%rcx, 32(%rax)
	movq	$0, (%rax)
.Ltmp620:
.LBB53_9:
	.cv_loc	55 8 190 0
	movq	-56(%rbp), %rax
	addq	$384, %rsp
	popq	%rbp
	retq
.Ltmp621:
.LBB53_10:
	.cv_loc	55 8 188 0
.Ltmp599:
	leaq	144(%rbp), %rcx
	callq	_ZN4core4iter6traits8iterator8Iterator7collect17h7d57c6df837bed76E
.Ltmp600:
	movq	%rax, -88(%rbp)
	jmp	.LBB53_11
.Ltmp622:
.LBB53_11:
	movq	-64(%rbp), %rax
	movq	-88(%rbp), %rcx
	movq	%rcx, 8(%rax)
	movq	$1, (%rax)
	.cv_loc	55 8 183 0
	jmp	.LBB53_9
.Ltmp623:
	.seh_handlerdata
	.long	($cppxdata$_ZN121_$LT$proc_macro2..imp..TokenStream$u20$as$u20$core..iter..traits..collect..FromIterator$LT$proc_macro2..TokenTree$GT$$GT$9from_iter17hf065b660bd290dd3E)@IMGREL
	.section	.text,"xr",one_only,_ZN121_$LT$proc_macro2..imp..TokenStream$u20$as$u20$core..iter..traits..collect..FromIterator$LT$proc_macro2..TokenTree$GT$$GT$9from_iter17hf065b660bd290dd3E
	.seh_endproc
	.def	"?dtor$1@?0?_ZN121_$LT$proc_macro2..imp..TokenStream$u20$as$u20$core..iter..traits..collect..FromIterator$LT$proc_macro2..TokenTree$GT$$GT$9from_iter17hf065b660bd290dd3E@4HA";
	.scl	3;
	.type	32;
	.endef
	.p2align	4, 0x90
"?dtor$1@?0?_ZN121_$LT$proc_macro2..imp..TokenStream$u20$as$u20$core..iter..traits..collect..FromIterator$LT$proc_macro2..TokenTree$GT$$GT$9from_iter17hf065b660bd290dd3E@4HA":
.seh_proc "?dtor$1@?0?_ZN121_$LT$proc_macro2..imp..TokenStream$u20$as$u20$core..iter..traits..collect..FromIterator$LT$proc_macro2..TokenTree$GT$$GT$9from_iter17hf065b660bd290dd3E@4HA"
.LBB53_1:
	movq	%rdx, 16(%rsp)
	pushq	%rbp
	.seh_pushreg %rbp
	subq	$32, %rsp
	.seh_stackalloc 32
	leaq	128(%rdx), %rbp
.Ltmp624:
	.seh_endprologue
	.cv_loc	55 8 190 0
	testb	$1, 243(%rbp)
	jne	.LBB53_13
	jmp	.LBB53_12
.LBB53_12:
	.cv_loc	55 8 182 0
	addq	$32, %rsp
	popq	%rbp
	retq
.LBB53_13:
	.cv_loc	55 8 190 0
	movq	-72(%rbp), %rcx
	callq	_ZN4core3ptr161drop_in_place$LT$core..iter..adapters..map..Map$LT$proc_macro2..token_stream..IntoIter$C$quote..__private..respan_token_tree..$u7b$$u7b$closure$u7d$$u7d$$GT$$GT$17h763b5ec527ee8accE
	jmp	.LBB53_12
.Ltmp625:
.Lfunc_end53:
	.seh_handlerdata
	.section	.text,"xr",one_only,_ZN121_$LT$proc_macro2..imp..TokenStream$u20$as$u20$core..iter..traits..collect..FromIterator$LT$proc_macro2..TokenTree$GT$$GT$9from_iter17hf065b660bd290dd3E
	.seh_endproc
	.section	.xdata,"dr",associative,_ZN121_$LT$proc_macro2..imp..TokenStream$u20$as$u20$core..iter..traits..collect..FromIterator$LT$proc_macro2..TokenTree$GT$$GT$9from_iter17hf065b660bd290dd3E
	.p2align	2
$cppxdata$_ZN121_$LT$proc_macro2..imp..TokenStream$u20$as$u20$core..iter..traits..collect..FromIterator$LT$proc_macro2..TokenTree$GT$$GT$9from_iter17hf065b660bd290dd3E:
	.long	429065506
	.long	1
	.long	($stateUnwindMap$_ZN121_$LT$proc_macro2..imp..TokenStream$u20$as$u20$core..iter..traits..collect..FromIterator$LT$proc_macro2..TokenTree$GT$$GT$9from_iter17hf065b660bd290dd3E)@IMGREL
	.long	0
	.long	0
	.long	3
	.long	($ip2state$_ZN121_$LT$proc_macro2..imp..TokenStream$u20$as$u20$core..iter..traits..collect..FromIterator$LT$proc_macro2..TokenTree$GT$$GT$9from_iter17hf065b660bd290dd3E)@IMGREL
	.long	376
	.long	0
	.long	1
$stateUnwindMap$_ZN121_$LT$proc_macro2..imp..TokenStream$u20$as$u20$core..iter..traits..collect..FromIterator$LT$proc_macro2..TokenTree$GT$$GT$9from_iter17hf065b660bd290dd3E:
	.long	-1
	.long	"?dtor$1@?0?_ZN121_$LT$proc_macro2..imp..TokenStream$u20$as$u20$core..iter..traits..collect..FromIterator$LT$proc_macro2..TokenTree$GT$$GT$9from_iter17hf065b660bd290dd3E@4HA"@IMGREL
$ip2state$_ZN121_$LT$proc_macro2..imp..TokenStream$u20$as$u20$core..iter..traits..collect..FromIterator$LT$proc_macro2..TokenTree$GT$$GT$9from_iter17hf065b660bd290dd3E:
	.long	.Lfunc_begin53@IMGREL
	.long	-1
	.long	.Ltmp595@IMGREL+1
	.long	0
	.long	.Ltmp600@IMGREL+1
	.long	-1
	.section	.text,"xr",one_only,_ZN121_$LT$proc_macro2..imp..TokenStream$u20$as$u20$core..iter..traits..collect..FromIterator$LT$proc_macro2..TokenTree$GT$$GT$9from_iter17hf065b660bd290dd3E

	.def	_ZN122_$LT$proc_macro2..imp..TokenStream$u20$as$u20$core..iter..traits..collect..Extend$LT$proc_macro2..imp..TokenStream$GT$$GT$6extend17h3a0c941c6a8f1c22E;
	.scl	2;
	.type	32;
	.endef
	.section	.text,"xr",one_only,_ZN122_$LT$proc_macro2..imp..TokenStream$u20$as$u20$core..iter..traits..collect..Extend$LT$proc_macro2..imp..TokenStream$GT$$GT$6extend17h3a0c941c6a8f1c22E
	.globl	_ZN122_$LT$proc_macro2..imp..TokenStream$u20$as$u20$core..iter..traits..collect..Extend$LT$proc_macro2..imp..TokenStream$GT$$GT$6extend17h3a0c941c6a8f1c22E
	.p2align	4, 0x90
_ZN122_$LT$proc_macro2..imp..TokenStream$u20$as$u20$core..iter..traits..collect..Extend$LT$proc_macro2..imp..TokenStream$GT$$GT$6extend17h3a0c941c6a8f1c22E:
.Lfunc_begin54:
	.cv_func_id 56
	.cv_loc	56 8 232 0
.seh_proc _ZN122_$LT$proc_macro2..imp..TokenStream$u20$as$u20$core..iter..traits..collect..Extend$LT$proc_macro2..imp..TokenStream$GT$$GT$6extend17h3a0c941c6a8f1c22E
	.seh_handler __CxxFrameHandler3, @unwind, @except
	pushq	%rbp
	.seh_pushreg %rbp
	subq	$368, %rsp
	.seh_stackalloc 368
	leaq	128(%rsp), %rbp
	.seh_setframe %rbp, 128
	.seh_endprologue
	movq	$-2, 232(%rbp)
	movq	%rdx, -64(%rbp)
.Ltmp640:
	movq	%rcx, -56(%rbp)
	movq	%rcx, 208(%rbp)
.Ltmp641:
	.cv_loc	56 8 233 0
	movb	$0, 207(%rbp)
	movb	$1, 207(%rbp)
	movq	(%rcx), %rax
	testq	%rax, %rax
.Ltmp642:
	je	.LBB54_2
	jmp	.LBB54_15
.Ltmp643:
.LBB54_15:
	jmp	.LBB54_3
.Ltmp644:
	ud2
.LBB54_2:
.Ltmp645:
	.cv_loc	56 8 234 0
	movq	-56(%rbp), %rcx
	addq	$8, %rcx
	movq	%rcx, -72(%rbp)
	movq	%rcx, 224(%rbp)
	.cv_loc	56 8 235 0
.Ltmp632:
.Ltmp646:
	callq	_ZN11proc_macro23imp19DeferredTokenStream12evaluate_now17h064c20264c5bdf0aE
.Ltmp633:
	jmp	.LBB54_9
.Ltmp647:
.LBB54_3:
	.cv_loc	56 8 239 0
	movq	-64(%rbp), %rax
	movq	-56(%rbp), %rcx
	addq	$8, %rcx
	movq	%rcx, -80(%rbp)
	movq	%rcx, 216(%rbp)
.Ltmp648:
	.cv_loc	56 8 240 0
	movb	$0, 207(%rbp)
	movq	32(%rax), %rcx
	movq	%rcx, 192(%rbp)
	vmovups	(%rax), %ymm0
	vmovups	%ymm0, 160(%rbp)
.Ltmp626:
	leaq	120(%rbp), %rcx
	leaq	160(%rbp), %rdx
	vzeroupper
	callq	_ZN63_$LT$I$u20$as$u20$core..iter..traits..collect..IntoIterator$GT$9into_iter17heb81cce8cb502b41E
.Ltmp627:
	jmp	.LBB54_5
.Ltmp649:
.LBB54_5:
.Ltmp628:
	leaq	80(%rbp), %rcx
	leaq	120(%rbp), %rdx
	callq	_ZN4core4iter6traits8iterator8Iterator3map17h6c1a2d5786ee1624E
.Ltmp629:
	jmp	.LBB54_6
.Ltmp650:
.LBB54_6:
.Ltmp630:
	movq	-80(%rbp), %rcx
	leaq	80(%rbp), %rdx
	callq	_ZN132_$LT$proc_macro2..fallback..TokenStream$u20$as$u20$core..iter..traits..collect..Extend$LT$proc_macro2..fallback..TokenStream$GT$$GT$6extend17h01d2083e8a27d9ccE
.Ltmp631:
	jmp	.LBB54_7
.Ltmp651:
.LBB54_7:
	jmp	.LBB54_8
.Ltmp652:
.LBB54_8:
	.cv_loc	56 8 243 0
	addq	$368, %rsp
	popq	%rbp
	retq
.Ltmp653:
.LBB54_9:
	.cv_loc	56 8 236 0
	movq	-64(%rbp), %rax
	movq	-72(%rbp), %rcx
.Ltmp654:
	addq	$24, %rcx
	movq	%rcx, -88(%rbp)
	.cv_loc	56 8 237 0
	movb	$0, 207(%rbp)
	movq	32(%rax), %rcx
	movq	%rcx, 64(%rbp)
	vmovups	(%rax), %ymm0
	vmovups	%ymm0, 32(%rbp)
.Ltmp634:
	leaq	-8(%rbp), %rcx
	leaq	32(%rbp), %rdx
	vzeroupper
	callq	_ZN63_$LT$I$u20$as$u20$core..iter..traits..collect..IntoIterator$GT$9into_iter17heb81cce8cb502b41E
.Ltmp635:
	jmp	.LBB54_10
.Ltmp655:
.LBB54_10:
.Ltmp636:
	leaq	-48(%rbp), %rcx
	leaq	-8(%rbp), %rdx
	callq	_ZN4core4iter6traits8iterator8Iterator3map17hd10915122fb41449E
.Ltmp637:
	jmp	.LBB54_11
.Ltmp656:
.LBB54_11:
	.cv_loc	56 8 236 0
.Ltmp638:
	movq	-88(%rbp), %rcx
	leaq	-48(%rbp), %rdx
	callq	_ZN110_$LT$proc_macro..TokenStream$u20$as$u20$core..iter..traits..collect..Extend$LT$proc_macro..TokenStream$GT$$GT$6extend17hb6630a6cd8e7af72E
.Ltmp639:
	jmp	.LBB54_12
.Ltmp657:
.LBB54_12:
	jmp	.LBB54_8
.Ltmp658:
	.seh_handlerdata
	.long	($cppxdata$_ZN122_$LT$proc_macro2..imp..TokenStream$u20$as$u20$core..iter..traits..collect..Extend$LT$proc_macro2..imp..TokenStream$GT$$GT$6extend17h3a0c941c6a8f1c22E)@IMGREL
	.section	.text,"xr",one_only,_ZN122_$LT$proc_macro2..imp..TokenStream$u20$as$u20$core..iter..traits..collect..Extend$LT$proc_macro2..imp..TokenStream$GT$$GT$6extend17h3a0c941c6a8f1c22E
	.seh_endproc
	.def	"?dtor$4@?0?_ZN122_$LT$proc_macro2..imp..TokenStream$u20$as$u20$core..iter..traits..collect..Extend$LT$proc_macro2..imp..TokenStream$GT$$GT$6extend17h3a0c941c6a8f1c22E@4HA";
	.scl	3;
	.type	32;
	.endef
	.p2align	4, 0x90
"?dtor$4@?0?_ZN122_$LT$proc_macro2..imp..TokenStream$u20$as$u20$core..iter..traits..collect..Extend$LT$proc_macro2..imp..TokenStream$GT$$GT$6extend17h3a0c941c6a8f1c22E@4HA":
.seh_proc "?dtor$4@?0?_ZN122_$LT$proc_macro2..imp..TokenStream$u20$as$u20$core..iter..traits..collect..Extend$LT$proc_macro2..imp..TokenStream$GT$$GT$6extend17h3a0c941c6a8f1c22E@4HA"
.LBB54_4:
	movq	%rdx, 16(%rsp)
	pushq	%rbp
	.seh_pushreg %rbp
	subq	$32, %rsp
	.seh_stackalloc 32
	leaq	128(%rdx), %rbp
.Ltmp659:
	.seh_endprologue
	.cv_loc	56 8 243 0
	testb	$1, 207(%rbp)
	jne	.LBB54_14
	jmp	.LBB54_13
.LBB54_13:
	.cv_loc	56 8 232 0
	addq	$32, %rsp
	popq	%rbp
	retq
.LBB54_14:
	.cv_loc	56 8 243 0
	movq	-64(%rbp), %rcx
	callq	_ZN4core3ptr344drop_in_place$LT$core..iter..adapters..map..Map$LT$core..iter..sources..once..Once$LT$proc_macro2..TokenStream$GT$$C$$LT$proc_macro2..TokenStream$u20$as$u20$core..iter..traits..collect..Extend$LT$proc_macro2..TokenStream$GT$$GT$..extend$LT$core..iter..sources..once..Once$LT$proc_macro2..TokenStream$GT$$GT$..$u7b$$u7b$closure$u7d$$u7d$$GT$$GT$17h79115626d510084aE
	jmp	.LBB54_13
.Ltmp660:
.Lfunc_end54:
	.seh_handlerdata
	.section	.text,"xr",one_only,_ZN122_$LT$proc_macro2..imp..TokenStream$u20$as$u20$core..iter..traits..collect..Extend$LT$proc_macro2..imp..TokenStream$GT$$GT$6extend17h3a0c941c6a8f1c22E
	.seh_endproc
	.section	.xdata,"dr",associative,_ZN122_$LT$proc_macro2..imp..TokenStream$u20$as$u20$core..iter..traits..collect..Extend$LT$proc_macro2..imp..TokenStream$GT$$GT$6extend17h3a0c941c6a8f1c22E
	.p2align	2
$cppxdata$_ZN122_$LT$proc_macro2..imp..TokenStream$u20$as$u20$core..iter..traits..collect..Extend$LT$proc_macro2..imp..TokenStream$GT$$GT$6extend17h3a0c941c6a8f1c22E:
	.long	429065506
	.long	1
	.long	($stateUnwindMap$_ZN122_$LT$proc_macro2..imp..TokenStream$u20$as$u20$core..iter..traits..collect..Extend$LT$proc_macro2..imp..TokenStream$GT$$GT$6extend17h3a0c941c6a8f1c22E)@IMGREL
	.long	0
	.long	0
	.long	3
	.long	($ip2state$_ZN122_$LT$proc_macro2..imp..TokenStream$u20$as$u20$core..iter..traits..collect..Extend$LT$proc_macro2..imp..TokenStream$GT$$GT$6extend17h3a0c941c6a8f1c22E)@IMGREL
	.long	360
	.long	0
	.long	1
$stateUnwindMap$_ZN122_$LT$proc_macro2..imp..TokenStream$u20$as$u20$core..iter..traits..collect..Extend$LT$proc_macro2..imp..TokenStream$GT$$GT$6extend17h3a0c941c6a8f1c22E:
	.long	-1
	.long	"?dtor$4@?0?_ZN122_$LT$proc_macro2..imp..TokenStream$u20$as$u20$core..iter..traits..collect..Extend$LT$proc_macro2..imp..TokenStream$GT$$GT$6extend17h3a0c941c6a8f1c22E@4HA"@IMGREL
$ip2state$_ZN122_$LT$proc_macro2..imp..TokenStream$u20$as$u20$core..iter..traits..collect..Extend$LT$proc_macro2..imp..TokenStream$GT$$GT$6extend17h3a0c941c6a8f1c22E:
	.long	.Lfunc_begin54@IMGREL
	.long	-1
	.long	.Ltmp632@IMGREL+1
	.long	0
	.long	.Ltmp639@IMGREL+1
	.long	-1
	.section	.text,"xr",one_only,_ZN122_$LT$proc_macro2..imp..TokenStream$u20$as$u20$core..iter..traits..collect..Extend$LT$proc_macro2..imp..TokenStream$GT$$GT$6extend17h3a0c941c6a8f1c22E

	.def	_ZN126_$LT$proc_macro2..fallback..TokenStream$u20$as$u20$core..iter..traits..collect..FromIterator$LT$proc_macro2..TokenTree$GT$$GT$9from_iter17h61a06f1d6c919d46E;
	.scl	2;
	.type	32;
	.endef
	.section	.text,"xr",one_only,_ZN126_$LT$proc_macro2..fallback..TokenStream$u20$as$u20$core..iter..traits..collect..FromIterator$LT$proc_macro2..TokenTree$GT$$GT$9from_iter17h61a06f1d6c919d46E
	.globl	_ZN126_$LT$proc_macro2..fallback..TokenStream$u20$as$u20$core..iter..traits..collect..FromIterator$LT$proc_macro2..TokenTree$GT$$GT$9from_iter17h61a06f1d6c919d46E
	.p2align	4, 0x90
_ZN126_$LT$proc_macro2..fallback..TokenStream$u20$as$u20$core..iter..traits..collect..FromIterator$LT$proc_macro2..TokenTree$GT$$GT$9from_iter17h61a06f1d6c919d46E:
.Lfunc_begin55:
	.cv_func_id 57
	.cv_loc	57 12 253 0
.seh_proc _ZN126_$LT$proc_macro2..fallback..TokenStream$u20$as$u20$core..iter..traits..collect..FromIterator$LT$proc_macro2..TokenTree$GT$$GT$9from_iter17h61a06f1d6c919d46E
	.seh_handler __CxxFrameHandler3, @unwind, @except
	pushq	%rbp
	.seh_pushreg %rbp
	subq	$128, %rsp
	.seh_stackalloc 128
	leaq	128(%rsp), %rbp
	.seh_setframe %rbp, 128
	.seh_endprologue
	movq	$-2, -8(%rbp)
	movq	%rcx, -88(%rbp)
.Ltmp665:
	.cv_loc	57 12 254 0
	movb	$0, -9(%rbp)
	movb	$1, -9(%rbp)
.Ltmp661:
	callq	_ZN11proc_macro28fallback11TokenStream3new17h2e9292939708133aE
.Ltmp666:
.Ltmp662:
	movq	%rax, -80(%rbp)
.Ltmp667:
	jmp	.LBB55_2
.Ltmp668:
.LBB55_2:
	movq	-88(%rbp), %rax
	movq	-80(%rbp), %rcx
	movq	%rcx, -72(%rbp)
.Ltmp669:
	.cv_loc	57 12 255 0
	movb	$0, -9(%rbp)
	vmovups	(%rax), %ymm0
	vmovups	16(%rax), %ymm1
	vmovups	%ymm1, -48(%rbp)
	vmovups	%ymm0, -64(%rbp)
.Ltmp663:
	leaq	-72(%rbp), %rcx
	leaq	-64(%rbp), %rdx
	vzeroupper
	callq	_ZN120_$LT$proc_macro2..fallback..TokenStream$u20$as$u20$core..iter..traits..collect..Extend$LT$proc_macro2..TokenTree$GT$$GT$6extend17h46688b4110121abdE
.Ltmp664:
	jmp	.LBB55_4
.Ltmp670:
.LBB55_4:
	.cv_loc	57 12 257 0
	movq	-72(%rbp), %rax
	addq	$128, %rsp
	popq	%rbp
	retq
.Ltmp671:
	.seh_handlerdata
	.long	($cppxdata$_ZN126_$LT$proc_macro2..fallback..TokenStream$u20$as$u20$core..iter..traits..collect..FromIterator$LT$proc_macro2..TokenTree$GT$$GT$9from_iter17h61a06f1d6c919d46E)@IMGREL
	.section	.text,"xr",one_only,_ZN126_$LT$proc_macro2..fallback..TokenStream$u20$as$u20$core..iter..traits..collect..FromIterator$LT$proc_macro2..TokenTree$GT$$GT$9from_iter17h61a06f1d6c919d46E
	.seh_endproc
	.def	"?dtor$1@?0?_ZN126_$LT$proc_macro2..fallback..TokenStream$u20$as$u20$core..iter..traits..collect..FromIterator$LT$proc_macro2..TokenTree$GT$$GT$9from_iter17h61a06f1d6c919d46E@4HA";
	.scl	3;
	.type	32;
	.endef
	.p2align	4, 0x90
"?dtor$1@?0?_ZN126_$LT$proc_macro2..fallback..TokenStream$u20$as$u20$core..iter..traits..collect..FromIterator$LT$proc_macro2..TokenTree$GT$$GT$9from_iter17h61a06f1d6c919d46E@4HA":
.seh_proc "?dtor$1@?0?_ZN126_$LT$proc_macro2..fallback..TokenStream$u20$as$u20$core..iter..traits..collect..FromIterator$LT$proc_macro2..TokenTree$GT$$GT$9from_iter17h61a06f1d6c919d46E@4HA"
.LBB55_1:
	movq	%rdx, 16(%rsp)
	pushq	%rbp
	.seh_pushreg %rbp
	subq	$32, %rsp
	.seh_stackalloc 32
	leaq	128(%rdx), %rbp
	.seh_endprologue
	testb	$1, -9(%rbp)
	jne	.LBB55_6
	jmp	.LBB55_5
.LBB55_5:
	.cv_loc	57 12 253 0
	addq	$32, %rsp
	popq	%rbp
	retq
.LBB55_6:
	.cv_loc	57 12 257 0
	movq	-88(%rbp), %rcx
	callq	_ZN4core3ptr161drop_in_place$LT$core..iter..adapters..map..Map$LT$proc_macro2..token_stream..IntoIter$C$quote..__private..respan_token_tree..$u7b$$u7b$closure$u7d$$u7d$$GT$$GT$17h763b5ec527ee8accE
	jmp	.LBB55_5
	.seh_handlerdata
	.section	.text,"xr",one_only,_ZN126_$LT$proc_macro2..fallback..TokenStream$u20$as$u20$core..iter..traits..collect..FromIterator$LT$proc_macro2..TokenTree$GT$$GT$9from_iter17h61a06f1d6c919d46E
	.seh_endproc
	.def	"?dtor$3@?0?_ZN126_$LT$proc_macro2..fallback..TokenStream$u20$as$u20$core..iter..traits..collect..FromIterator$LT$proc_macro2..TokenTree$GT$$GT$9from_iter17h61a06f1d6c919d46E@4HA";
	.scl	3;
	.type	32;
	.endef
	.p2align	4, 0x90
"?dtor$3@?0?_ZN126_$LT$proc_macro2..fallback..TokenStream$u20$as$u20$core..iter..traits..collect..FromIterator$LT$proc_macro2..TokenTree$GT$$GT$9from_iter17h61a06f1d6c919d46E@4HA":
.seh_proc "?dtor$3@?0?_ZN126_$LT$proc_macro2..fallback..TokenStream$u20$as$u20$core..iter..traits..collect..FromIterator$LT$proc_macro2..TokenTree$GT$$GT$9from_iter17h61a06f1d6c919d46E@4HA"
.LBB55_3:
.Ltmp672:
	movq	%rdx, 16(%rsp)
	pushq	%rbp
	.seh_pushreg %rbp
	subq	$32, %rsp
	.seh_stackalloc 32
	leaq	128(%rdx), %rbp
.Ltmp673:
	.seh_endprologue
	leaq	-72(%rbp), %rcx
	callq	_ZN4core3ptr55drop_in_place$LT$proc_macro2..fallback..TokenStream$GT$17h69c4290aae3b86d2E
	nop
	addq	$32, %rsp
	popq	%rbp
	retq
.Ltmp674:
.Lfunc_end55:
	.seh_handlerdata
	.section	.text,"xr",one_only,_ZN126_$LT$proc_macro2..fallback..TokenStream$u20$as$u20$core..iter..traits..collect..FromIterator$LT$proc_macro2..TokenTree$GT$$GT$9from_iter17h61a06f1d6c919d46E
	.seh_endproc
	.section	.xdata,"dr",associative,_ZN126_$LT$proc_macro2..fallback..TokenStream$u20$as$u20$core..iter..traits..collect..FromIterator$LT$proc_macro2..TokenTree$GT$$GT$9from_iter17h61a06f1d6c919d46E
	.p2align	2
$cppxdata$_ZN126_$LT$proc_macro2..fallback..TokenStream$u20$as$u20$core..iter..traits..collect..FromIterator$LT$proc_macro2..TokenTree$GT$$GT$9from_iter17h61a06f1d6c919d46E:
	.long	429065506
	.long	2
	.long	($stateUnwindMap$_ZN126_$LT$proc_macro2..fallback..TokenStream$u20$as$u20$core..iter..traits..collect..FromIterator$LT$proc_macro2..TokenTree$GT$$GT$9from_iter17h61a06f1d6c919d46E)@IMGREL
	.long	0
	.long	0
	.long	4
	.long	($ip2state$_ZN126_$LT$proc_macro2..fallback..TokenStream$u20$as$u20$core..iter..traits..collect..FromIterator$LT$proc_macro2..TokenTree$GT$$GT$9from_iter17h61a06f1d6c919d46E)@IMGREL
	.long	120
	.long	0
	.long	1
$stateUnwindMap$_ZN126_$LT$proc_macro2..fallback..TokenStream$u20$as$u20$core..iter..traits..collect..FromIterator$LT$proc_macro2..TokenTree$GT$$GT$9from_iter17h61a06f1d6c919d46E:
	.long	-1
	.long	"?dtor$1@?0?_ZN126_$LT$proc_macro2..fallback..TokenStream$u20$as$u20$core..iter..traits..collect..FromIterator$LT$proc_macro2..TokenTree$GT$$GT$9from_iter17h61a06f1d6c919d46E@4HA"@IMGREL
	.long	0
	.long	"?dtor$3@?0?_ZN126_$LT$proc_macro2..fallback..TokenStream$u20$as$u20$core..iter..traits..collect..FromIterator$LT$proc_macro2..TokenTree$GT$$GT$9from_iter17h61a06f1d6c919d46E@4HA"@IMGREL
$ip2state$_ZN126_$LT$proc_macro2..fallback..TokenStream$u20$as$u20$core..iter..traits..collect..FromIterator$LT$proc_macro2..TokenTree$GT$$GT$9from_iter17h61a06f1d6c919d46E:
	.long	.Lfunc_begin55@IMGREL
	.long	-1
	.long	.Ltmp661@IMGREL+1
	.long	0
	.long	.Ltmp663@IMGREL+1
	.long	1
	.long	.Ltmp664@IMGREL+1
	.long	-1
	.section	.text,"xr",one_only,_ZN126_$LT$proc_macro2..fallback..TokenStream$u20$as$u20$core..iter..traits..collect..FromIterator$LT$proc_macro2..TokenTree$GT$$GT$9from_iter17h61a06f1d6c919d46E

	.def	_ZN132_$LT$proc_macro2..fallback..TokenStream$u20$as$u20$core..iter..traits..collect..Extend$LT$proc_macro2..fallback..TokenStream$GT$$GT$6extend17h01d2083e8a27d9ccE;
	.scl	2;
	.type	32;
	.endef
	.section	.text,"xr",one_only,_ZN132_$LT$proc_macro2..fallback..TokenStream$u20$as$u20$core..iter..traits..collect..Extend$LT$proc_macro2..fallback..TokenStream$GT$$GT$6extend17h01d2083e8a27d9ccE
	.globl	_ZN132_$LT$proc_macro2..fallback..TokenStream$u20$as$u20$core..iter..traits..collect..Extend$LT$proc_macro2..fallback..TokenStream$GT$$GT$6extend17h01d2083e8a27d9ccE
	.p2align	4, 0x90
_ZN132_$LT$proc_macro2..fallback..TokenStream$u20$as$u20$core..iter..traits..collect..Extend$LT$proc_macro2..fallback..TokenStream$GT$$GT$6extend17h01d2083e8a27d9ccE:
.Lfunc_begin56:
	.cv_func_id 58
	.cv_loc	58 12 282 0
.seh_proc _ZN132_$LT$proc_macro2..fallback..TokenStream$u20$as$u20$core..iter..traits..collect..Extend$LT$proc_macro2..fallback..TokenStream$GT$$GT$6extend17h01d2083e8a27d9ccE
	.seh_handler __CxxFrameHandler3, @unwind, @except
	pushq	%rbp
	.seh_pushreg %rbp
	subq	$272, %rsp
	.seh_stackalloc 272
	leaq	128(%rsp), %rbp
	.seh_setframe %rbp, 128
	.seh_endprologue
	movq	$-2, 136(%rbp)
	movq	%rdx, -88(%rbp)
.Ltmp683:
	movq	%rcx, 128(%rbp)
.Ltmp684:
	.cv_loc	58 12 283 0
	movb	$0, 127(%rbp)
	movb	$1, 127(%rbp)
.Ltmp675:
	callq	_ZN11proc_macro25rcvec14RcVec$LT$T$GT$8make_mut17hd6a1d60fbf3e6d6dE
.Ltmp685:
.Ltmp676:
	movq	%rax, -80(%rbp)
.Ltmp686:
	jmp	.LBB56_2
.Ltmp687:
.LBB56_2:
	movq	-88(%rbp), %rax
	movq	-80(%rbp), %rcx
	movq	%rcx, -72(%rbp)
	movb	$0, 127(%rbp)
	movq	32(%rax), %rcx
	movq	%rcx, 112(%rbp)
	vmovups	(%rax), %ymm0
	vmovups	%ymm0, 80(%rbp)
.Ltmp677:
	leaq	40(%rbp), %rcx
	leaq	80(%rbp), %rdx
	vzeroupper
	callq	_ZN63_$LT$I$u20$as$u20$core..iter..traits..collect..IntoIterator$GT$9into_iter17h225749633bf78223E
.Ltmp678:
	jmp	.LBB56_3
.Ltmp688:
.LBB56_3:
.Ltmp679:
	leaq	-64(%rbp), %rcx
	leaq	40(%rbp), %rdx
	callq	_ZN4core4iter6traits8iterator8Iterator7flatten17hb9609e13dfbb8c42E
.Ltmp680:
	jmp	.LBB56_4
.Ltmp689:
.LBB56_4:
.Ltmp681:
	leaq	-72(%rbp), %rcx
	leaq	-64(%rbp), %rdx
	callq	_ZN11proc_macro25rcvec17RcVecMut$LT$T$GT$6extend17h4150c7fce49ccc57E
.Ltmp682:
	jmp	.LBB56_5
.Ltmp690:
.LBB56_5:
	.cv_loc	58 12 284 0
	addq	$272, %rsp
	popq	%rbp
	retq
.Ltmp691:
	.seh_handlerdata
	.long	($cppxdata$_ZN132_$LT$proc_macro2..fallback..TokenStream$u20$as$u20$core..iter..traits..collect..Extend$LT$proc_macro2..fallback..TokenStream$GT$$GT$6extend17h01d2083e8a27d9ccE)@IMGREL
	.section	.text,"xr",one_only,_ZN132_$LT$proc_macro2..fallback..TokenStream$u20$as$u20$core..iter..traits..collect..Extend$LT$proc_macro2..fallback..TokenStream$GT$$GT$6extend17h01d2083e8a27d9ccE
	.seh_endproc
	.def	"?dtor$1@?0?_ZN132_$LT$proc_macro2..fallback..TokenStream$u20$as$u20$core..iter..traits..collect..Extend$LT$proc_macro2..fallback..TokenStream$GT$$GT$6extend17h01d2083e8a27d9ccE@4HA";
	.scl	3;
	.type	32;
	.endef
	.p2align	4, 0x90
"?dtor$1@?0?_ZN132_$LT$proc_macro2..fallback..TokenStream$u20$as$u20$core..iter..traits..collect..Extend$LT$proc_macro2..fallback..TokenStream$GT$$GT$6extend17h01d2083e8a27d9ccE@4HA":
.seh_proc "?dtor$1@?0?_ZN132_$LT$proc_macro2..fallback..TokenStream$u20$as$u20$core..iter..traits..collect..Extend$LT$proc_macro2..fallback..TokenStream$GT$$GT$6extend17h01d2083e8a27d9ccE@4HA"
.LBB56_1:
	movq	%rdx, 16(%rsp)
	pushq	%rbp
	.seh_pushreg %rbp
	subq	$32, %rsp
	.seh_stackalloc 32
	leaq	128(%rdx), %rbp
.Ltmp692:
	.seh_endprologue
	testb	$1, 127(%rbp)
	jne	.LBB56_7
	jmp	.LBB56_6
.LBB56_6:
	.cv_loc	58 12 282 0
	addq	$32, %rsp
	popq	%rbp
	retq
.LBB56_7:
	.cv_loc	58 12 284 0
	movq	-88(%rbp), %rcx
	callq	_ZN4core3ptr429drop_in_place$LT$core..iter..adapters..map..Map$LT$core..iter..adapters..map..Map$LT$core..iter..sources..once..Once$LT$proc_macro2..TokenStream$GT$$C$$LT$proc_macro2..TokenStream$u20$as$u20$core..iter..traits..collect..Extend$LT$proc_macro2..TokenStream$GT$$GT$..extend$LT$core..iter..sources..once..Once$LT$proc_macro2..TokenStream$GT$$GT$..$u7b$$u7b$closure$u7d$$u7d$$GT$$C$proc_macro2..imp..TokenStream..unwrap_stable$GT$$GT$17heeaf1d204f469720E
	jmp	.LBB56_6
.Ltmp693:
.Lfunc_end56:
	.seh_handlerdata
	.section	.text,"xr",one_only,_ZN132_$LT$proc_macro2..fallback..TokenStream$u20$as$u20$core..iter..traits..collect..Extend$LT$proc_macro2..fallback..TokenStream$GT$$GT$6extend17h01d2083e8a27d9ccE
	.seh_endproc
	.section	.xdata,"dr",associative,_ZN132_$LT$proc_macro2..fallback..TokenStream$u20$as$u20$core..iter..traits..collect..Extend$LT$proc_macro2..fallback..TokenStream$GT$$GT$6extend17h01d2083e8a27d9ccE
	.p2align	2
$cppxdata$_ZN132_$LT$proc_macro2..fallback..TokenStream$u20$as$u20$core..iter..traits..collect..Extend$LT$proc_macro2..fallback..TokenStream$GT$$GT$6extend17h01d2083e8a27d9ccE:
	.long	429065506
	.long	1
	.long	($stateUnwindMap$_ZN132_$LT$proc_macro2..fallback..TokenStream$u20$as$u20$core..iter..traits..collect..Extend$LT$proc_macro2..fallback..TokenStream$GT$$GT$6extend17h01d2083e8a27d9ccE)@IMGREL
	.long	0
	.long	0
	.long	3
	.long	($ip2state$_ZN132_$LT$proc_macro2..fallback..TokenStream$u20$as$u20$core..iter..traits..collect..Extend$LT$proc_macro2..fallback..TokenStream$GT$$GT$6extend17h01d2083e8a27d9ccE)@IMGREL
	.long	264
	.long	0
	.long	1
$stateUnwindMap$_ZN132_$LT$proc_macro2..fallback..TokenStream$u20$as$u20$core..iter..traits..collect..Extend$LT$proc_macro2..fallback..TokenStream$GT$$GT$6extend17h01d2083e8a27d9ccE:
	.long	-1
	.long	"?dtor$1@?0?_ZN132_$LT$proc_macro2..fallback..TokenStream$u20$as$u20$core..iter..traits..collect..Extend$LT$proc_macro2..fallback..TokenStream$GT$$GT$6extend17h01d2083e8a27d9ccE@4HA"@IMGREL
$ip2state$_ZN132_$LT$proc_macro2..fallback..TokenStream$u20$as$u20$core..iter..traits..collect..Extend$LT$proc_macro2..fallback..TokenStream$GT$$GT$6extend17h01d2083e8a27d9ccE:
	.long	.Lfunc_begin56@IMGREL
	.long	-1
	.long	.Ltmp675@IMGREL+1
	.long	0
	.long	.Ltmp682@IMGREL+1
	.long	-1
	.section	.text,"xr",one_only,_ZN132_$LT$proc_macro2..fallback..TokenStream$u20$as$u20$core..iter..traits..collect..Extend$LT$proc_macro2..fallback..TokenStream$GT$$GT$6extend17h01d2083e8a27d9ccE

	.def	_ZN153_$LT$core..result..Result$LT$T$C$F$GT$$u20$as$u20$core..ops..try_trait..FromResidual$LT$core..result..Result$LT$core..convert..Infallible$C$E$GT$$GT$$GT$13from_residual17h4116826de8e2c9c7E;
	.scl	2;
	.type	32;
	.endef
	.section	.text,"xr",one_only,_ZN153_$LT$core..result..Result$LT$T$C$F$GT$$u20$as$u20$core..ops..try_trait..FromResidual$LT$core..result..Result$LT$core..convert..Infallible$C$E$GT$$GT$$GT$13from_residual17h4116826de8e2c9c7E
	.globl	_ZN153_$LT$core..result..Result$LT$T$C$F$GT$$u20$as$u20$core..ops..try_trait..FromResidual$LT$core..result..Result$LT$core..convert..Infallible$C$E$GT$$GT$$GT$13from_residual17h4116826de8e2c9c7E
	.p2align	4, 0x90
