	.text
	.def	@feat.00;
	.scl	3;
	.type	0;
	.endef
	.globl	@feat.00
.set @feat.00, 0
	.file	"quote.d66cef06-cgu.0"
	.def	_ZN4core3ops8function5FnMut8call_mut17h4642eec528a1ef46E;
	.scl	3;
	.type	32;
	.endef
	.section	.text,"xr",one_only,_ZN4core3ops8function5FnMut8call_mut17h4642eec528a1ef46E
	.p2align	4, 0x90
_ZN4core3ops8function5FnMut8call_mut17h4642eec528a1ef46E:
.Lfunc_begin0:
	.cv_func_id 0
	.cv_file	1 "/rustc/7737e0b5c4103216d6fd8cf941b7ab9bdbaace7c\\library\\core\\src\\ops\\function.rs" "9BEA7362FFF50BBE301170918847D3CA3912A24A" 2
	.cv_loc	0 1 150 0
.seh_proc _ZN4core3ops8function5FnMut8call_mut17h4642eec528a1ef46E
	subq	$120, %rsp
	.seh_stackalloc 120
	.seh_endprologue
	movq	%rcx, 40(%rsp)
	leaq	48(%rsp), %rcx
	movl	$48, %r8d
	callq	memcpy
	movq	40(%rsp), %rcx
	movq	%rcx, 104(%rsp)
.Ltmp0:
	leaq	48(%rsp), %rcx
	callq	_ZN11proc_macro23imp19into_compiler_token17h9ef0d83ccc0e70f8E
	movq	%rax, 112(%rsp)
	movq	112(%rsp), %rax
	movq	%rax, 96(%rsp)
	movq	96(%rsp), %rax
	addq	$120, %rsp
	retq
.Ltmp1:
.Lfunc_end0:
	.seh_endproc

	.def	_ZN4core3ops8function5FnMut8call_mut17h9d205ac82802bf31E;
	.scl	3;
	.type	32;
	.endef
	.section	.text,"xr",one_only,_ZN4core3ops8function5FnMut8call_mut17h9d205ac82802bf31E
	.p2align	4, 0x90
_ZN4core3ops8function5FnMut8call_mut17h9d205ac82802bf31E:
.Lfunc_begin1:
	.cv_func_id 1
	.cv_loc	1 1 150 0
.seh_proc _ZN4core3ops8function5FnMut8call_mut17h9d205ac82802bf31E
	subq	$72, %rsp
	.seh_stackalloc 72
	.seh_endprologue
	movq	%rdx, 40(%rsp)
	movq	40(%rsp), %rax
	movq	%rax, 32(%rsp)
	movq	%rcx, 56(%rsp)
.Ltmp2:
	movq	32(%rsp), %rcx
	callq	_ZN92_$LT$proc_macro..TokenStream$u20$as$u20$core..convert..From$LT$proc_macro..TokenTree$GT$$GT$4from17hfe1fbfcae3e2cb76E
	movl	%eax, 68(%rsp)
	movl	68(%rsp), %eax
	movl	%eax, 48(%rsp)
	movl	48(%rsp), %eax
	addq	$72, %rsp
	retq
.Ltmp3:
.Lfunc_end1:
	.seh_endproc

	.def	_ZN4core3ops8function5FnMut8call_mut17hf00787a0a48c3c5aE;
	.scl	3;
	.type	32;
	.endef
	.section	.text,"xr",one_only,_ZN4core3ops8function5FnMut8call_mut17hf00787a0a48c3c5aE
	.p2align	4, 0x90
_ZN4core3ops8function5FnMut8call_mut17hf00787a0a48c3c5aE:
.Lfunc_begin2:
	.cv_func_id 2
	.cv_loc	2 1 150 0
.seh_proc _ZN4core3ops8function5FnMut8call_mut17hf00787a0a48c3c5aE
	subq	$104, %rsp
	.seh_stackalloc 104
	.seh_endprologue
	movq	%rcx, 40(%rsp)
	leaq	56(%rsp), %rcx
	movl	$40, %r8d
	callq	memcpy
	movq	40(%rsp), %rcx
	movq	%rcx, 96(%rsp)
.Ltmp4:
	leaq	56(%rsp), %rcx
	callq	_ZN11proc_macro23imp11TokenStream13unwrap_stable17h80b4977d6049a967E
	movq	%rax, 48(%rsp)
	movq	48(%rsp), %rax
	addq	$104, %rsp
	retq
.Ltmp5:
.Lfunc_end2:
	.seh_endproc

	.def	_ZN4core3ops8function5FnMut8call_mut17hf6b0e7428b5fc102E;
	.scl	3;
	.type	32;
	.endef
	.section	.text,"xr",one_only,_ZN4core3ops8function5FnMut8call_mut17hf6b0e7428b5fc102E
	.p2align	4, 0x90
_ZN4core3ops8function5FnMut8call_mut17hf6b0e7428b5fc102E:
.Lfunc_begin3:
	.cv_func_id 3
	.cv_loc	3 1 150 0
.seh_proc _ZN4core3ops8function5FnMut8call_mut17hf6b0e7428b5fc102E
	subq	$104, %rsp
	.seh_stackalloc 104
	.seh_endprologue
	movq	%rcx, 32(%rsp)
	leaq	40(%rsp), %rcx
	movl	$40, %r8d
	callq	memcpy
	movq	32(%rsp), %rcx
	movq	%rcx, 88(%rsp)
.Ltmp6:
	leaq	40(%rsp), %rcx
	callq	_ZN11proc_macro23imp11TokenStream14unwrap_nightly17hb25d6123c1120aafE
	movl	%eax, 100(%rsp)
	movl	100(%rsp), %eax
	movl	%eax, 80(%rsp)
	movl	80(%rsp), %eax
	addq	$104, %rsp
	retq
.Ltmp7:
.Lfunc_end3:
	.seh_endproc

	.def	_ZN4core3ops8function6FnOnce9call_once17h7e29cc1010625d78E;
	.scl	3;
	.type	32;
	.endef
	.section	.text,"xr",one_only,_ZN4core3ops8function6FnOnce9call_once17h7e29cc1010625d78E
	.p2align	4, 0x90
_ZN4core3ops8function6FnOnce9call_once17h7e29cc1010625d78E:
.Lfunc_begin4:
	.cv_func_id 4
	.cv_loc	4 1 227 0
.seh_proc _ZN4core3ops8function6FnOnce9call_once17h7e29cc1010625d78E
	subq	$56, %rsp
	.seh_stackalloc 56
	.seh_endprologue
.Ltmp8:
	callq	_ZN11proc_macro24Span9call_site17he457d245e969b90cE
	movl	%eax, 52(%rsp)
	movl	52(%rsp), %eax
	movl	%eax, 40(%rsp)
	movl	40(%rsp), %eax
	addq	$56, %rsp
	retq
.Ltmp9:
.Lfunc_end4:
	.seh_endproc

	.def	_ZN4core3ops8function6FnOnce9call_once17he62ee38568f57e31E;
	.scl	3;
	.type	32;
	.endef
	.section	.text,"xr",one_only,_ZN4core3ops8function6FnOnce9call_once17he62ee38568f57e31E
	.p2align	4, 0x90
_ZN4core3ops8function6FnOnce9call_once17he62ee38568f57e31E:
.Lfunc_begin5:
	.cv_func_id 5
	.cv_loc	5 1 227 0
.seh_proc _ZN4core3ops8function6FnOnce9call_once17he62ee38568f57e31E
	subq	$56, %rsp
	.seh_stackalloc 56
	.seh_endprologue
	movq	%rcx, %rax
	movq	%rax, 32(%rsp)
	movq	%rdx, 40(%rsp)
.Ltmp10:
	movq	40(%rsp), %rdx
	callq	_ZN101_$LT$proc_macro2..rcvec..RcVecIntoIter$LT$T$GT$$u20$as$u20$core..iter..traits..iterator..Iterator$GT$9size_hint17h03e44a5be3a2cbc1E
	movq	32(%rsp), %rax
	addq	$56, %rsp
	retq
.Ltmp11:
.Lfunc_end5:
	.seh_endproc

	.def	_ZN4core3ptr112drop_in_place$LT$core..option..Option$LT$proc_macro2..rcvec..RcVecIntoIter$LT$proc_macro2..TokenTree$GT$$GT$$GT$17h0d13828c2fa6db1aE;
	.scl	2;
	.type	32;
	.endef
	.section	.text,"xr",one_only,_ZN4core3ptr112drop_in_place$LT$core..option..Option$LT$proc_macro2..rcvec..RcVecIntoIter$LT$proc_macro2..TokenTree$GT$$GT$$GT$17h0d13828c2fa6db1aE
	.globl	_ZN4core3ptr112drop_in_place$LT$core..option..Option$LT$proc_macro2..rcvec..RcVecIntoIter$LT$proc_macro2..TokenTree$GT$$GT$$GT$17h0d13828c2fa6db1aE
	.p2align	4, 0x90
_ZN4core3ptr112drop_in_place$LT$core..option..Option$LT$proc_macro2..rcvec..RcVecIntoIter$LT$proc_macro2..TokenTree$GT$$GT$$GT$17h0d13828c2fa6db1aE:
.Lfunc_begin6:
	.cv_func_id 6
	.cv_file	2 "/rustc/7737e0b5c4103216d6fd8cf941b7ab9bdbaace7c\\library\\core\\src\\ptr\\mod.rs" "F72F4549B954F891AA6C07064A899D3B597DE310" 2
	.cv_loc	6 2 188 0
.seh_proc _ZN4core3ptr112drop_in_place$LT$core..option..Option$LT$proc_macro2..rcvec..RcVecIntoIter$LT$proc_macro2..TokenTree$GT$$GT$$GT$17h0d13828c2fa6db1aE
	subq	$56, %rsp
	.seh_stackalloc 56
	.seh_endprologue
	movq	%rcx, %rdx
	movq	%rdx, 40(%rsp)
	movq	%rdx, 48(%rsp)
.Ltmp12:
	movl	$1, %eax
	xorl	%ecx, %ecx
	cmpq	$0, (%rdx)
	cmoveq	%rcx, %rax
	cmpq	$0, %rax
	jne	.LBB6_2
.LBB6_1:
	addq	$56, %rsp
	retq
.LBB6_2:
	movq	40(%rsp), %rcx
	callq	_ZN4core3ptr84drop_in_place$LT$proc_macro2..rcvec..RcVecIntoIter$LT$proc_macro2..TokenTree$GT$$GT$17ha4826c99401ca63cE
	jmp	.LBB6_1
.Ltmp13:
.Lfunc_end6:
	.seh_endproc

	.def	_ZN4core3ptr131drop_in_place$LT$alloc..rc..Rc$LT$core..mem..maybe_uninit..MaybeUninit$LT$alloc..vec..Vec$LT$proc_macro2..TokenTree$GT$$GT$$GT$$GT$17ha33ce68a6cf71530E;
	.scl	2;
	.type	32;
	.endef
	.section	.text,"xr",one_only,_ZN4core3ptr131drop_in_place$LT$alloc..rc..Rc$LT$core..mem..maybe_uninit..MaybeUninit$LT$alloc..vec..Vec$LT$proc_macro2..TokenTree$GT$$GT$$GT$$GT$17ha33ce68a6cf71530E
	.globl	_ZN4core3ptr131drop_in_place$LT$alloc..rc..Rc$LT$core..mem..maybe_uninit..MaybeUninit$LT$alloc..vec..Vec$LT$proc_macro2..TokenTree$GT$$GT$$GT$$GT$17ha33ce68a6cf71530E
	.p2align	4, 0x90
_ZN4core3ptr131drop_in_place$LT$alloc..rc..Rc$LT$core..mem..maybe_uninit..MaybeUninit$LT$alloc..vec..Vec$LT$proc_macro2..TokenTree$GT$$GT$$GT$$GT$17ha33ce68a6cf71530E:
.Lfunc_begin7:
	.cv_func_id 7
	.cv_loc	7 2 188 0
.seh_proc _ZN4core3ptr131drop_in_place$LT$alloc..rc..Rc$LT$core..mem..maybe_uninit..MaybeUninit$LT$alloc..vec..Vec$LT$proc_macro2..TokenTree$GT$$GT$$GT$$GT$17ha33ce68a6cf71530E
	subq	$40, %rsp
	.seh_stackalloc 40
	.seh_endprologue
	movq	%rcx, 32(%rsp)
.Ltmp14:
	callq	_ZN64_$LT$alloc..rc..Rc$LT$T$GT$$u20$as$u20$core..ops..drop..Drop$GT$4drop17hfdd90de86ab24352E
	nop
	addq	$40, %rsp
	retq
.Ltmp15:
.Lfunc_end7:
	.seh_endproc

	.def	_ZN4core3ptr152drop_in_place$LT$core..iter..adapters..map..Map$LT$proc_macro2..token_stream..IntoIter$C$quote..spanned..join_spans..$u7b$$u7b$closure$u7d$$u7d$$GT$$GT$17h673abc71a30106bdE;
	.scl	2;
	.type	32;
	.endef
	.section	.text,"xr",one_only,_ZN4core3ptr152drop_in_place$LT$core..iter..adapters..map..Map$LT$proc_macro2..token_stream..IntoIter$C$quote..spanned..join_spans..$u7b$$u7b$closure$u7d$$u7d$$GT$$GT$17h673abc71a30106bdE
	.globl	_ZN4core3ptr152drop_in_place$LT$core..iter..adapters..map..Map$LT$proc_macro2..token_stream..IntoIter$C$quote..spanned..join_spans..$u7b$$u7b$closure$u7d$$u7d$$GT$$GT$17h673abc71a30106bdE
	.p2align	4, 0x90
_ZN4core3ptr152drop_in_place$LT$core..iter..adapters..map..Map$LT$proc_macro2..token_stream..IntoIter$C$quote..spanned..join_spans..$u7b$$u7b$closure$u7d$$u7d$$GT$$GT$17h673abc71a30106bdE:
.Lfunc_begin8:
	.cv_func_id 8
	.cv_loc	8 2 188 0
.seh_proc _ZN4core3ptr152drop_in_place$LT$core..iter..adapters..map..Map$LT$proc_macro2..token_stream..IntoIter$C$quote..spanned..join_spans..$u7b$$u7b$closure$u7d$$u7d$$GT$$GT$17h673abc71a30106bdE
	subq	$40, %rsp
	.seh_stackalloc 40
	.seh_endprologue
	movq	%rcx, 32(%rsp)
.Ltmp16:
	callq	_ZN4core3ptr56drop_in_place$LT$proc_macro2..token_stream..IntoIter$GT$17h0d74faed163efc75E
	nop
	addq	$40, %rsp
	retq
.Ltmp17:
.Lfunc_end8:
	.seh_endproc

	.def	_ZN4core3ptr157drop_in_place$LT$core..iter..adapters..map..Map$LT$proc_macro2..token_stream..IntoIter$C$quote..__private..parse_spanned..$u7b$$u7b$closure$u7d$$u7d$$GT$$GT$17h8f38dcc230dee164E;
	.scl	2;
	.type	32;
	.endef
	.section	.text,"xr",one_only,_ZN4core3ptr157drop_in_place$LT$core..iter..adapters..map..Map$LT$proc_macro2..token_stream..IntoIter$C$quote..__private..parse_spanned..$u7b$$u7b$closure$u7d$$u7d$$GT$$GT$17h8f38dcc230dee164E
	.globl	_ZN4core3ptr157drop_in_place$LT$core..iter..adapters..map..Map$LT$proc_macro2..token_stream..IntoIter$C$quote..__private..parse_spanned..$u7b$$u7b$closure$u7d$$u7d$$GT$$GT$17h8f38dcc230dee164E
	.p2align	4, 0x90
_ZN4core3ptr157drop_in_place$LT$core..iter..adapters..map..Map$LT$proc_macro2..token_stream..IntoIter$C$quote..__private..parse_spanned..$u7b$$u7b$closure$u7d$$u7d$$GT$$GT$17h8f38dcc230dee164E:
.Lfunc_begin9:
	.cv_func_id 9
	.cv_loc	9 2 188 0
.seh_proc _ZN4core3ptr157drop_in_place$LT$core..iter..adapters..map..Map$LT$proc_macro2..token_stream..IntoIter$C$quote..__private..parse_spanned..$u7b$$u7b$closure$u7d$$u7d$$GT$$GT$17h8f38dcc230dee164E
	subq	$40, %rsp
	.seh_stackalloc 40
	.seh_endprologue
	movq	%rcx, 32(%rsp)
.Ltmp18:
	callq	_ZN4core3ptr56drop_in_place$LT$proc_macro2..token_stream..IntoIter$GT$17h0d74faed163efc75E
	nop
	addq	$40, %rsp
	retq
.Ltmp19:
.Lfunc_end9:
	.seh_endproc

	.def	_ZN4core3ptr161drop_in_place$LT$core..iter..adapters..map..Map$LT$proc_macro2..token_stream..IntoIter$C$quote..__private..respan_token_tree..$u7b$$u7b$closure$u7d$$u7d$$GT$$GT$17he64d81e54d80be38E;
	.scl	2;
	.type	32;
	.endef
	.section	.text,"xr",one_only,_ZN4core3ptr161drop_in_place$LT$core..iter..adapters..map..Map$LT$proc_macro2..token_stream..IntoIter$C$quote..__private..respan_token_tree..$u7b$$u7b$closure$u7d$$u7d$$GT$$GT$17he64d81e54d80be38E
	.globl	_ZN4core3ptr161drop_in_place$LT$core..iter..adapters..map..Map$LT$proc_macro2..token_stream..IntoIter$C$quote..__private..respan_token_tree..$u7b$$u7b$closure$u7d$$u7d$$GT$$GT$17he64d81e54d80be38E
	.p2align	4, 0x90
_ZN4core3ptr161drop_in_place$LT$core..iter..adapters..map..Map$LT$proc_macro2..token_stream..IntoIter$C$quote..__private..respan_token_tree..$u7b$$u7b$closure$u7d$$u7d$$GT$$GT$17he64d81e54d80be38E:
.Lfunc_begin10:
	.cv_func_id 10
	.cv_loc	10 2 188 0
.seh_proc _ZN4core3ptr161drop_in_place$LT$core..iter..adapters..map..Map$LT$proc_macro2..token_stream..IntoIter$C$quote..__private..respan_token_tree..$u7b$$u7b$closure$u7d$$u7d$$GT$$GT$17he64d81e54d80be38E
	subq	$40, %rsp
	.seh_stackalloc 40
	.seh_endprologue
	movq	%rcx, 32(%rsp)
.Ltmp20:
	callq	_ZN4core3ptr56drop_in_place$LT$proc_macro2..token_stream..IntoIter$GT$17h0d74faed163efc75E
	nop
	addq	$40, %rsp
	retq
.Ltmp21:
.Lfunc_end10:
	.seh_endproc

	.def	_ZN4core3ptr239drop_in_place$LT$core..iter..adapters..map..Map$LT$core..iter..adapters..map..Map$LT$proc_macro2..token_stream..IntoIter$C$quote..__private..respan_token_tree..$u7b$$u7b$closure$u7d$$u7d$$GT$$C$proc_macro2..imp..into_compiler_token$GT$$GT$17h6d6a18350e521600E;
	.scl	2;
	.type	32;
	.endef
	.section	.text,"xr",one_only,_ZN4core3ptr239drop_in_place$LT$core..iter..adapters..map..Map$LT$core..iter..adapters..map..Map$LT$proc_macro2..token_stream..IntoIter$C$quote..__private..respan_token_tree..$u7b$$u7b$closure$u7d$$u7d$$GT$$C$proc_macro2..imp..into_compiler_token$GT$$GT$17h6d6a18350e521600E
	.globl	_ZN4core3ptr239drop_in_place$LT$core..iter..adapters..map..Map$LT$core..iter..adapters..map..Map$LT$proc_macro2..token_stream..IntoIter$C$quote..__private..respan_token_tree..$u7b$$u7b$closure$u7d$$u7d$$GT$$C$proc_macro2..imp..into_compiler_token$GT$$GT$17h6d6a18350e521600E
	.p2align	4, 0x90
_ZN4core3ptr239drop_in_place$LT$core..iter..adapters..map..Map$LT$core..iter..adapters..map..Map$LT$proc_macro2..token_stream..IntoIter$C$quote..__private..respan_token_tree..$u7b$$u7b$closure$u7d$$u7d$$GT$$C$proc_macro2..imp..into_compiler_token$GT$$GT$17h6d6a18350e521600E:
.Lfunc_begin11:
	.cv_func_id 11
	.cv_loc	11 2 188 0
.seh_proc _ZN4core3ptr239drop_in_place$LT$core..iter..adapters..map..Map$LT$core..iter..adapters..map..Map$LT$proc_macro2..token_stream..IntoIter$C$quote..__private..respan_token_tree..$u7b$$u7b$closure$u7d$$u7d$$GT$$C$proc_macro2..imp..into_compiler_token$GT$$GT$17h6d6a18350e521600E
	subq	$40, %rsp
	.seh_stackalloc 40
	.seh_endprologue
	movq	%rcx, 32(%rsp)
.Ltmp22:
	callq	_ZN4core3ptr161drop_in_place$LT$core..iter..adapters..map..Map$LT$proc_macro2..token_stream..IntoIter$C$quote..__private..respan_token_tree..$u7b$$u7b$closure$u7d$$u7d$$GT$$GT$17he64d81e54d80be38E
	nop
	addq	$40, %rsp
	retq
.Ltmp23:
.Lfunc_end11:
	.seh_endproc

	.def	_ZN4core3ptr344drop_in_place$LT$core..iter..adapters..map..Map$LT$core..iter..sources..once..Once$LT$proc_macro2..TokenStream$GT$$C$$LT$proc_macro2..TokenStream$u20$as$u20$core..iter..traits..collect..Extend$LT$proc_macro2..TokenStream$GT$$GT$..extend$LT$core..iter..sources..once..Once$LT$proc_macro2..TokenStream$GT$$GT$..$u7b$$u7b$closure$u7d$$u7d$$GT$$GT$17hac6b3d56ff2c9363E;
	.scl	2;
	.type	32;
	.endef
	.section	.text,"xr",one_only,_ZN4core3ptr344drop_in_place$LT$core..iter..adapters..map..Map$LT$core..iter..sources..once..Once$LT$proc_macro2..TokenStream$GT$$C$$LT$proc_macro2..TokenStream$u20$as$u20$core..iter..traits..collect..Extend$LT$proc_macro2..TokenStream$GT$$GT$..extend$LT$core..iter..sources..once..Once$LT$proc_macro2..TokenStream$GT$$GT$..$u7b$$u7b$closure$u7d$$u7d$$GT$$GT$17hac6b3d56ff2c9363E
	.globl	_ZN4core3ptr344drop_in_place$LT$core..iter..adapters..map..Map$LT$core..iter..sources..once..Once$LT$proc_macro2..TokenStream$GT$$C$$LT$proc_macro2..TokenStream$u20$as$u20$core..iter..traits..collect..Extend$LT$proc_macro2..TokenStream$GT$$GT$..extend$LT$core..iter..sources..once..Once$LT$proc_macro2..TokenStream$GT$$GT$..$u7b$$u7b$closure$u7d$$u7d$$GT$$GT$17hac6b3d56ff2c9363E
	.p2align	4, 0x90
_ZN4core3ptr344drop_in_place$LT$core..iter..adapters..map..Map$LT$core..iter..sources..once..Once$LT$proc_macro2..TokenStream$GT$$C$$LT$proc_macro2..TokenStream$u20$as$u20$core..iter..traits..collect..Extend$LT$proc_macro2..TokenStream$GT$$GT$..extend$LT$core..iter..sources..once..Once$LT$proc_macro2..TokenStream$GT$$GT$..$u7b$$u7b$closure$u7d$$u7d$$GT$$GT$17hac6b3d56ff2c9363E:
.Lfunc_begin12:
	.cv_func_id 12
	.cv_loc	12 2 188 0
.seh_proc _ZN4core3ptr344drop_in_place$LT$core..iter..adapters..map..Map$LT$core..iter..sources..once..Once$LT$proc_macro2..TokenStream$GT$$C$$LT$proc_macro2..TokenStream$u20$as$u20$core..iter..traits..collect..Extend$LT$proc_macro2..TokenStream$GT$$GT$..extend$LT$core..iter..sources..once..Once$LT$proc_macro2..TokenStream$GT$$GT$..$u7b$$u7b$closure$u7d$$u7d$$GT$$GT$17hac6b3d56ff2c9363E
	subq	$40, %rsp
	.seh_stackalloc 40
	.seh_endprologue
	movq	%rcx, 32(%rsp)
.Ltmp24:
	callq	_ZN4core3ptr84drop_in_place$LT$core..iter..sources..once..Once$LT$proc_macro2..TokenStream$GT$$GT$17h458876d61191c98eE
	nop
	addq	$40, %rsp
	retq
.Ltmp25:
.Lfunc_end12:
	.seh_endproc

	.def	_ZN4core3ptr377drop_in_place$LT$core..iter..adapters..map..Map$LT$core..iter..adapters..map..Map$LT$core..iter..adapters..map..Map$LT$proc_macro2..token_stream..IntoIter$C$quote..__private..respan_token_tree..$u7b$$u7b$closure$u7d$$u7d$$GT$$C$proc_macro2..imp..into_compiler_token$GT$$C$$LT$proc_macro..TokenStream$u20$as$u20$core..convert..From$LT$proc_macro..TokenTree$GT$$GT$..from$GT$$GT$17h2d50a43ddc49658aE;
	.scl	2;
	.type	32;
	.endef
	.section	.text,"xr",one_only,_ZN4core3ptr377drop_in_place$LT$core..iter..adapters..map..Map$LT$core..iter..adapters..map..Map$LT$core..iter..adapters..map..Map$LT$proc_macro2..token_stream..IntoIter$C$quote..__private..respan_token_tree..$u7b$$u7b$closure$u7d$$u7d$$GT$$C$proc_macro2..imp..into_compiler_token$GT$$C$$LT$proc_macro..TokenStream$u20$as$u20$core..convert..From$LT$proc_macro..TokenTree$GT$$GT$..from$GT$$GT$17h2d50a43ddc49658aE
	.globl	_ZN4core3ptr377drop_in_place$LT$core..iter..adapters..map..Map$LT$core..iter..adapters..map..Map$LT$core..iter..adapters..map..Map$LT$proc_macro2..token_stream..IntoIter$C$quote..__private..respan_token_tree..$u7b$$u7b$closure$u7d$$u7d$$GT$$C$proc_macro2..imp..into_compiler_token$GT$$C$$LT$proc_macro..TokenStream$u20$as$u20$core..convert..From$LT$proc_macro..TokenTree$GT$$GT$..from$GT$$GT$17h2d50a43ddc49658aE
	.p2align	4, 0x90
_ZN4core3ptr377drop_in_place$LT$core..iter..adapters..map..Map$LT$core..iter..adapters..map..Map$LT$core..iter..adapters..map..Map$LT$proc_macro2..token_stream..IntoIter$C$quote..__private..respan_token_tree..$u7b$$u7b$closure$u7d$$u7d$$GT$$C$proc_macro2..imp..into_compiler_token$GT$$C$$LT$proc_macro..TokenStream$u20$as$u20$core..convert..From$LT$proc_macro..TokenTree$GT$$GT$..from$GT$$GT$17h2d50a43ddc49658aE:
.Lfunc_begin13:
	.cv_func_id 13
	.cv_loc	13 2 188 0
.seh_proc _ZN4core3ptr377drop_in_place$LT$core..iter..adapters..map..Map$LT$core..iter..adapters..map..Map$LT$core..iter..adapters..map..Map$LT$proc_macro2..token_stream..IntoIter$C$quote..__private..respan_token_tree..$u7b$$u7b$closure$u7d$$u7d$$GT$$C$proc_macro2..imp..into_compiler_token$GT$$C$$LT$proc_macro..TokenStream$u20$as$u20$core..convert..From$LT$proc_macro..TokenTree$GT$$GT$..from$GT$$GT$17h2d50a43ddc49658aE
	subq	$40, %rsp
	.seh_stackalloc 40
	.seh_endprologue
	movq	%rcx, 32(%rsp)
.Ltmp26:
	callq	_ZN4core3ptr239drop_in_place$LT$core..iter..adapters..map..Map$LT$core..iter..adapters..map..Map$LT$proc_macro2..token_stream..IntoIter$C$quote..__private..respan_token_tree..$u7b$$u7b$closure$u7d$$u7d$$GT$$C$proc_macro2..imp..into_compiler_token$GT$$GT$17h6d6a18350e521600E
	nop
	addq	$40, %rsp
	retq
.Ltmp27:
.Lfunc_end13:
	.seh_endproc

	.def	_ZN4core3ptr429drop_in_place$LT$core..iter..adapters..map..Map$LT$core..iter..adapters..map..Map$LT$core..iter..sources..once..Once$LT$proc_macro2..TokenStream$GT$$C$$LT$proc_macro2..TokenStream$u20$as$u20$core..iter..traits..collect..Extend$LT$proc_macro2..TokenStream$GT$$GT$..extend$LT$core..iter..sources..once..Once$LT$proc_macro2..TokenStream$GT$$GT$..$u7b$$u7b$closure$u7d$$u7d$$GT$$C$proc_macro2..imp..TokenStream..unwrap_stable$GT$$GT$17heb15910a940e3de7E;
	.scl	2;
	.type	32;
	.endef
	.section	.text,"xr",one_only,_ZN4core3ptr429drop_in_place$LT$core..iter..adapters..map..Map$LT$core..iter..adapters..map..Map$LT$core..iter..sources..once..Once$LT$proc_macro2..TokenStream$GT$$C$$LT$proc_macro2..TokenStream$u20$as$u20$core..iter..traits..collect..Extend$LT$proc_macro2..TokenStream$GT$$GT$..extend$LT$core..iter..sources..once..Once$LT$proc_macro2..TokenStream$GT$$GT$..$u7b$$u7b$closure$u7d$$u7d$$GT$$C$proc_macro2..imp..TokenStream..unwrap_stable$GT$$GT$17heb15910a940e3de7E
	.globl	_ZN4core3ptr429drop_in_place$LT$core..iter..adapters..map..Map$LT$core..iter..adapters..map..Map$LT$core..iter..sources..once..Once$LT$proc_macro2..TokenStream$GT$$C$$LT$proc_macro2..TokenStream$u20$as$u20$core..iter..traits..collect..Extend$LT$proc_macro2..TokenStream$GT$$GT$..extend$LT$core..iter..sources..once..Once$LT$proc_macro2..TokenStream$GT$$GT$..$u7b$$u7b$closure$u7d$$u7d$$GT$$C$proc_macro2..imp..TokenStream..unwrap_stable$GT$$GT$17heb15910a940e3de7E
	.p2align	4, 0x90
_ZN4core3ptr429drop_in_place$LT$core..iter..adapters..map..Map$LT$core..iter..adapters..map..Map$LT$core..iter..sources..once..Once$LT$proc_macro2..TokenStream$GT$$C$$LT$proc_macro2..TokenStream$u20$as$u20$core..iter..traits..collect..Extend$LT$proc_macro2..TokenStream$GT$$GT$..extend$LT$core..iter..sources..once..Once$LT$proc_macro2..TokenStream$GT$$GT$..$u7b$$u7b$closure$u7d$$u7d$$GT$$C$proc_macro2..imp..TokenStream..unwrap_stable$GT$$GT$17heb15910a940e3de7E:
.Lfunc_begin14:
	.cv_func_id 14
	.cv_loc	14 2 188 0
.seh_proc _ZN4core3ptr429drop_in_place$LT$core..iter..adapters..map..Map$LT$core..iter..adapters..map..Map$LT$core..iter..sources..once..Once$LT$proc_macro2..TokenStream$GT$$C$$LT$proc_macro2..TokenStream$u20$as$u20$core..iter..traits..collect..Extend$LT$proc_macro2..TokenStream$GT$$GT$..extend$LT$core..iter..sources..once..Once$LT$proc_macro2..TokenStream$GT$$GT$..$u7b$$u7b$closure$u7d$$u7d$$GT$$C$proc_macro2..imp..TokenStream..unwrap_stable$GT$$GT$17heb15910a940e3de7E
	subq	$40, %rsp
	.seh_stackalloc 40
	.seh_endprologue
	movq	%rcx, 32(%rsp)
.Ltmp28:
	callq	_ZN4core3ptr344drop_in_place$LT$core..iter..adapters..map..Map$LT$core..iter..sources..once..Once$LT$proc_macro2..TokenStream$GT$$C$$LT$proc_macro2..TokenStream$u20$as$u20$core..iter..traits..collect..Extend$LT$proc_macro2..TokenStream$GT$$GT$..extend$LT$core..iter..sources..once..Once$LT$proc_macro2..TokenStream$GT$$GT$..$u7b$$u7b$closure$u7d$$u7d$$GT$$GT$17hac6b3d56ff2c9363E
	nop
	addq	$40, %rsp
	retq
.Ltmp29:
.Lfunc_end14:
	.seh_endproc

	.def	_ZN4core3ptr42drop_in_place$LT$proc_macro2..LexError$GT$17hf3be096f9678ca54E;
	.scl	3;
	.type	32;
	.endef
	.section	.text,"xr",one_only,_ZN4core3ptr42drop_in_place$LT$proc_macro2..LexError$GT$17hf3be096f9678ca54E
	.p2align	4, 0x90
_ZN4core3ptr42drop_in_place$LT$proc_macro2..LexError$GT$17hf3be096f9678ca54E:
.Lfunc_begin15:
	.cv_func_id 15
	.cv_loc	15 2 188 0
.seh_proc _ZN4core3ptr42drop_in_place$LT$proc_macro2..LexError$GT$17hf3be096f9678ca54E
	pushq	%rax
	.seh_stackalloc 8
	.seh_endprologue
	movq	%rcx, (%rsp)
.Ltmp30:
	popq	%rax
	retq
.Ltmp31:
.Lfunc_end15:
	.seh_endproc

	.def	_ZN4core3ptr430drop_in_place$LT$core..iter..adapters..map..Map$LT$core..iter..adapters..map..Map$LT$core..iter..sources..once..Once$LT$proc_macro2..TokenStream$GT$$C$$LT$proc_macro2..TokenStream$u20$as$u20$core..iter..traits..collect..Extend$LT$proc_macro2..TokenStream$GT$$GT$..extend$LT$core..iter..sources..once..Once$LT$proc_macro2..TokenStream$GT$$GT$..$u7b$$u7b$closure$u7d$$u7d$$GT$$C$proc_macro2..imp..TokenStream..unwrap_nightly$GT$$GT$17h604f4f76797b09a2E;
	.scl	2;
	.type	32;
	.endef
	.section	.text,"xr",one_only,_ZN4core3ptr430drop_in_place$LT$core..iter..adapters..map..Map$LT$core..iter..adapters..map..Map$LT$core..iter..sources..once..Once$LT$proc_macro2..TokenStream$GT$$C$$LT$proc_macro2..TokenStream$u20$as$u20$core..iter..traits..collect..Extend$LT$proc_macro2..TokenStream$GT$$GT$..extend$LT$core..iter..sources..once..Once$LT$proc_macro2..TokenStream$GT$$GT$..$u7b$$u7b$closure$u7d$$u7d$$GT$$C$proc_macro2..imp..TokenStream..unwrap_nightly$GT$$GT$17h604f4f76797b09a2E
	.globl	_ZN4core3ptr430drop_in_place$LT$core..iter..adapters..map..Map$LT$core..iter..adapters..map..Map$LT$core..iter..sources..once..Once$LT$proc_macro2..TokenStream$GT$$C$$LT$proc_macro2..TokenStream$u20$as$u20$core..iter..traits..collect..Extend$LT$proc_macro2..TokenStream$GT$$GT$..extend$LT$core..iter..sources..once..Once$LT$proc_macro2..TokenStream$GT$$GT$..$u7b$$u7b$closure$u7d$$u7d$$GT$$C$proc_macro2..imp..TokenStream..unwrap_nightly$GT$$GT$17h604f4f76797b09a2E
	.p2align	4, 0x90
_ZN4core3ptr430drop_in_place$LT$core..iter..adapters..map..Map$LT$core..iter..adapters..map..Map$LT$core..iter..sources..once..Once$LT$proc_macro2..TokenStream$GT$$C$$LT$proc_macro2..TokenStream$u20$as$u20$core..iter..traits..collect..Extend$LT$proc_macro2..TokenStream$GT$$GT$..extend$LT$core..iter..sources..once..Once$LT$proc_macro2..TokenStream$GT$$GT$..$u7b$$u7b$closure$u7d$$u7d$$GT$$C$proc_macro2..imp..TokenStream..unwrap_nightly$GT$$GT$17h604f4f76797b09a2E:
.Lfunc_begin16:
	.cv_func_id 16
	.cv_loc	16 2 188 0
.seh_proc _ZN4core3ptr430drop_in_place$LT$core..iter..adapters..map..Map$LT$core..iter..adapters..map..Map$LT$core..iter..sources..once..Once$LT$proc_macro2..TokenStream$GT$$C$$LT$proc_macro2..TokenStream$u20$as$u20$core..iter..traits..collect..Extend$LT$proc_macro2..TokenStream$GT$$GT$..extend$LT$core..iter..sources..once..Once$LT$proc_macro2..TokenStream$GT$$GT$..$u7b$$u7b$closure$u7d$$u7d$$GT$$C$proc_macro2..imp..TokenStream..unwrap_nightly$GT$$GT$17h604f4f76797b09a2E
	subq	$40, %rsp
	.seh_stackalloc 40
	.seh_endprologue
	movq	%rcx, 32(%rsp)
.Ltmp32:
	callq	_ZN4core3ptr344drop_in_place$LT$core..iter..adapters..map..Map$LT$core..iter..sources..once..Once$LT$proc_macro2..TokenStream$GT$$C$$LT$proc_macro2..TokenStream$u20$as$u20$core..iter..traits..collect..Extend$LT$proc_macro2..TokenStream$GT$$GT$..extend$LT$core..iter..sources..once..Once$LT$proc_macro2..TokenStream$GT$$GT$..$u7b$$u7b$closure$u7d$$u7d$$GT$$GT$17hac6b3d56ff2c9363E
	nop
	addq	$40, %rsp
	retq
.Ltmp33:
.Lfunc_end16:
	.seh_endproc

	.def	_ZN4core3ptr457drop_in_place$LT$core..option..Option$LT$core..iter..adapters..map..Map$LT$core..iter..adapters..map..Map$LT$core..iter..sources..once..Once$LT$proc_macro2..TokenStream$GT$$C$$LT$proc_macro2..TokenStream$u20$as$u20$core..iter..traits..collect..Extend$LT$proc_macro2..TokenStream$GT$$GT$..extend$LT$core..iter..sources..once..Once$LT$proc_macro2..TokenStream$GT$$GT$..$u7b$$u7b$closure$u7d$$u7d$$GT$$C$proc_macro2..imp..TokenStream..unwrap_stable$GT$$GT$$GT$17h744e7cd4ef5b28feE;
	.scl	2;
	.type	32;
	.endef
	.section	.text,"xr",one_only,_ZN4core3ptr457drop_in_place$LT$core..option..Option$LT$core..iter..adapters..map..Map$LT$core..iter..adapters..map..Map$LT$core..iter..sources..once..Once$LT$proc_macro2..TokenStream$GT$$C$$LT$proc_macro2..TokenStream$u20$as$u20$core..iter..traits..collect..Extend$LT$proc_macro2..TokenStream$GT$$GT$..extend$LT$core..iter..sources..once..Once$LT$proc_macro2..TokenStream$GT$$GT$..$u7b$$u7b$closure$u7d$$u7d$$GT$$C$proc_macro2..imp..TokenStream..unwrap_stable$GT$$GT$$GT$17h744e7cd4ef5b28feE
	.globl	_ZN4core3ptr457drop_in_place$LT$core..option..Option$LT$core..iter..adapters..map..Map$LT$core..iter..adapters..map..Map$LT$core..iter..sources..once..Once$LT$proc_macro2..TokenStream$GT$$C$$LT$proc_macro2..TokenStream$u20$as$u20$core..iter..traits..collect..Extend$LT$proc_macro2..TokenStream$GT$$GT$..extend$LT$core..iter..sources..once..Once$LT$proc_macro2..TokenStream$GT$$GT$..$u7b$$u7b$closure$u7d$$u7d$$GT$$C$proc_macro2..imp..TokenStream..unwrap_stable$GT$$GT$$GT$17h744e7cd4ef5b28feE
	.p2align	4, 0x90
_ZN4core3ptr457drop_in_place$LT$core..option..Option$LT$core..iter..adapters..map..Map$LT$core..iter..adapters..map..Map$LT$core..iter..sources..once..Once$LT$proc_macro2..TokenStream$GT$$C$$LT$proc_macro2..TokenStream$u20$as$u20$core..iter..traits..collect..Extend$LT$proc_macro2..TokenStream$GT$$GT$..extend$LT$core..iter..sources..once..Once$LT$proc_macro2..TokenStream$GT$$GT$..$u7b$$u7b$closure$u7d$$u7d$$GT$$C$proc_macro2..imp..TokenStream..unwrap_stable$GT$$GT$$GT$17h744e7cd4ef5b28feE:
.Lfunc_begin17:
	.cv_func_id 17
	.cv_loc	17 2 188 0
.seh_proc _ZN4core3ptr457drop_in_place$LT$core..option..Option$LT$core..iter..adapters..map..Map$LT$core..iter..adapters..map..Map$LT$core..iter..sources..once..Once$LT$proc_macro2..TokenStream$GT$$C$$LT$proc_macro2..TokenStream$u20$as$u20$core..iter..traits..collect..Extend$LT$proc_macro2..TokenStream$GT$$GT$..extend$LT$core..iter..sources..once..Once$LT$proc_macro2..TokenStream$GT$$GT$..$u7b$$u7b$closure$u7d$$u7d$$GT$$C$proc_macro2..imp..TokenStream..unwrap_stable$GT$$GT$$GT$17h744e7cd4ef5b28feE
	subq	$56, %rsp
	.seh_stackalloc 56
	.seh_endprologue
	movq	%rcx, 40(%rsp)
	movq	%rcx, 48(%rsp)
.Ltmp34:
	movq	(%rcx), %rdx
	subq	$3, %rdx
	movl	$1, %eax
	xorl	%ecx, %ecx
	cmpq	$0, %rdx
	cmoveq	%rcx, %rax
	cmpq	$0, %rax
	jne	.LBB17_2
.LBB17_1:
	addq	$56, %rsp
	retq
.LBB17_2:
	movq	40(%rsp), %rcx
	callq	_ZN4core3ptr429drop_in_place$LT$core..iter..adapters..map..Map$LT$core..iter..adapters..map..Map$LT$core..iter..sources..once..Once$LT$proc_macro2..TokenStream$GT$$C$$LT$proc_macro2..TokenStream$u20$as$u20$core..iter..traits..collect..Extend$LT$proc_macro2..TokenStream$GT$$GT$..extend$LT$core..iter..sources..once..Once$LT$proc_macro2..TokenStream$GT$$GT$..$u7b$$u7b$closure$u7d$$u7d$$GT$$C$proc_macro2..imp..TokenStream..unwrap_stable$GT$$GT$17heb15910a940e3de7E
	jmp	.LBB17_1
.Ltmp35:
.Lfunc_end17:
	.seh_endproc

	.def	_ZN4core3ptr458drop_in_place$LT$core..option..Option$LT$core..iter..adapters..map..Map$LT$core..iter..adapters..map..Map$LT$core..iter..sources..once..Once$LT$proc_macro2..TokenStream$GT$$C$$LT$proc_macro2..TokenStream$u20$as$u20$core..iter..traits..collect..Extend$LT$proc_macro2..TokenStream$GT$$GT$..extend$LT$core..iter..sources..once..Once$LT$proc_macro2..TokenStream$GT$$GT$..$u7b$$u7b$closure$u7d$$u7d$$GT$$C$proc_macro2..imp..TokenStream..unwrap_nightly$GT$$GT$$GT$17h7f832ae019489e1eE;
	.scl	2;
	.type	32;
	.endef
	.section	.text,"xr",one_only,_ZN4core3ptr458drop_in_place$LT$core..option..Option$LT$core..iter..adapters..map..Map$LT$core..iter..adapters..map..Map$LT$core..iter..sources..once..Once$LT$proc_macro2..TokenStream$GT$$C$$LT$proc_macro2..TokenStream$u20$as$u20$core..iter..traits..collect..Extend$LT$proc_macro2..TokenStream$GT$$GT$..extend$LT$core..iter..sources..once..Once$LT$proc_macro2..TokenStream$GT$$GT$..$u7b$$u7b$closure$u7d$$u7d$$GT$$C$proc_macro2..imp..TokenStream..unwrap_nightly$GT$$GT$$GT$17h7f832ae019489e1eE
	.globl	_ZN4core3ptr458drop_in_place$LT$core..option..Option$LT$core..iter..adapters..map..Map$LT$core..iter..adapters..map..Map$LT$core..iter..sources..once..Once$LT$proc_macro2..TokenStream$GT$$C$$LT$proc_macro2..TokenStream$u20$as$u20$core..iter..traits..collect..Extend$LT$proc_macro2..TokenStream$GT$$GT$..extend$LT$core..iter..sources..once..Once$LT$proc_macro2..TokenStream$GT$$GT$..$u7b$$u7b$closure$u7d$$u7d$$GT$$C$proc_macro2..imp..TokenStream..unwrap_nightly$GT$$GT$$GT$17h7f832ae019489e1eE
	.p2align	4, 0x90
_ZN4core3ptr458drop_in_place$LT$core..option..Option$LT$core..iter..adapters..map..Map$LT$core..iter..adapters..map..Map$LT$core..iter..sources..once..Once$LT$proc_macro2..TokenStream$GT$$C$$LT$proc_macro2..TokenStream$u20$as$u20$core..iter..traits..collect..Extend$LT$proc_macro2..TokenStream$GT$$GT$..extend$LT$core..iter..sources..once..Once$LT$proc_macro2..TokenStream$GT$$GT$..$u7b$$u7b$closure$u7d$$u7d$$GT$$C$proc_macro2..imp..TokenStream..unwrap_nightly$GT$$GT$$GT$17h7f832ae019489e1eE:
.Lfunc_begin18:
	.cv_func_id 18
	.cv_loc	18 2 188 0
.seh_proc _ZN4core3ptr458drop_in_place$LT$core..option..Option$LT$core..iter..adapters..map..Map$LT$core..iter..adapters..map..Map$LT$core..iter..sources..once..Once$LT$proc_macro2..TokenStream$GT$$C$$LT$proc_macro2..TokenStream$u20$as$u20$core..iter..traits..collect..Extend$LT$proc_macro2..TokenStream$GT$$GT$..extend$LT$core..iter..sources..once..Once$LT$proc_macro2..TokenStream$GT$$GT$..$u7b$$u7b$closure$u7d$$u7d$$GT$$C$proc_macro2..imp..TokenStream..unwrap_nightly$GT$$GT$$GT$17h7f832ae019489e1eE
	subq	$56, %rsp
	.seh_stackalloc 56
	.seh_endprologue
	movq	%rcx, 40(%rsp)
	movq	%rcx, 48(%rsp)
.Ltmp36:
	movq	(%rcx), %rdx
	subq	$3, %rdx
	movl	$1, %eax
	xorl	%ecx, %ecx
	cmpq	$0, %rdx
	cmoveq	%rcx, %rax
	cmpq	$0, %rax
	jne	.LBB18_2
.LBB18_1:
	addq	$56, %rsp
	retq
.LBB18_2:
	movq	40(%rsp), %rcx
	callq	_ZN4core3ptr430drop_in_place$LT$core..iter..adapters..map..Map$LT$core..iter..adapters..map..Map$LT$core..iter..sources..once..Once$LT$proc_macro2..TokenStream$GT$$C$$LT$proc_macro2..TokenStream$u20$as$u20$core..iter..traits..collect..Extend$LT$proc_macro2..TokenStream$GT$$GT$..extend$LT$core..iter..sources..once..Once$LT$proc_macro2..TokenStream$GT$$GT$..$u7b$$u7b$closure$u7d$$u7d$$GT$$C$proc_macro2..imp..TokenStream..unwrap_nightly$GT$$GT$17h604f4f76797b09a2E
	jmp	.LBB18_1
.Ltmp37:
.Lfunc_end18:
	.seh_endproc

	.def	_ZN4core3ptr45drop_in_place$LT$proc_macro2..TokenStream$GT$17he46d24a92abeec2fE;
	.scl	2;
	.type	32;
	.endef
	.section	.text,"xr",one_only,_ZN4core3ptr45drop_in_place$LT$proc_macro2..TokenStream$GT$17he46d24a92abeec2fE
	.globl	_ZN4core3ptr45drop_in_place$LT$proc_macro2..TokenStream$GT$17he46d24a92abeec2fE
	.p2align	4, 0x90
_ZN4core3ptr45drop_in_place$LT$proc_macro2..TokenStream$GT$17he46d24a92abeec2fE:
.Lfunc_begin19:
	.cv_func_id 19
	.cv_loc	19 2 188 0
.seh_proc _ZN4core3ptr45drop_in_place$LT$proc_macro2..TokenStream$GT$17he46d24a92abeec2fE
	subq	$40, %rsp
	.seh_stackalloc 40
	.seh_endprologue
	movq	%rcx, 32(%rsp)
.Ltmp38:
	callq	_ZN4core3ptr50drop_in_place$LT$proc_macro2..imp..TokenStream$GT$17h75ddca6ad9958c14E
	nop
	addq	$40, %rsp
	retq
.Ltmp39:
.Lfunc_end19:
	.seh_endproc

	.def	_ZN4core3ptr469drop_in_place$LT$core..iter..adapters..fuse..Fuse$LT$core..iter..adapters..map..Map$LT$core..iter..adapters..map..Map$LT$core..iter..sources..once..Once$LT$proc_macro2..TokenStream$GT$$C$$LT$proc_macro2..TokenStream$u20$as$u20$core..iter..traits..collect..Extend$LT$proc_macro2..TokenStream$GT$$GT$..extend$LT$core..iter..sources..once..Once$LT$proc_macro2..TokenStream$GT$$GT$..$u7b$$u7b$closure$u7d$$u7d$$GT$$C$proc_macro2..imp..TokenStream..unwrap_stable$GT$$GT$$GT$17h70454de807c40686E;
	.scl	2;
	.type	32;
	.endef
	.section	.text,"xr",one_only,_ZN4core3ptr469drop_in_place$LT$core..iter..adapters..fuse..Fuse$LT$core..iter..adapters..map..Map$LT$core..iter..adapters..map..Map$LT$core..iter..sources..once..Once$LT$proc_macro2..TokenStream$GT$$C$$LT$proc_macro2..TokenStream$u20$as$u20$core..iter..traits..collect..Extend$LT$proc_macro2..TokenStream$GT$$GT$..extend$LT$core..iter..sources..once..Once$LT$proc_macro2..TokenStream$GT$$GT$..$u7b$$u7b$closure$u7d$$u7d$$GT$$C$proc_macro2..imp..TokenStream..unwrap_stable$GT$$GT$$GT$17h70454de807c40686E
	.globl	_ZN4core3ptr469drop_in_place$LT$core..iter..adapters..fuse..Fuse$LT$core..iter..adapters..map..Map$LT$core..iter..adapters..map..Map$LT$core..iter..sources..once..Once$LT$proc_macro2..TokenStream$GT$$C$$LT$proc_macro2..TokenStream$u20$as$u20$core..iter..traits..collect..Extend$LT$proc_macro2..TokenStream$GT$$GT$..extend$LT$core..iter..sources..once..Once$LT$proc_macro2..TokenStream$GT$$GT$..$u7b$$u7b$closure$u7d$$u7d$$GT$$C$proc_macro2..imp..TokenStream..unwrap_stable$GT$$GT$$GT$17h70454de807c40686E
	.p2align	4, 0x90
_ZN4core3ptr469drop_in_place$LT$core..iter..adapters..fuse..Fuse$LT$core..iter..adapters..map..Map$LT$core..iter..adapters..map..Map$LT$core..iter..sources..once..Once$LT$proc_macro2..TokenStream$GT$$C$$LT$proc_macro2..TokenStream$u20$as$u20$core..iter..traits..collect..Extend$LT$proc_macro2..TokenStream$GT$$GT$..extend$LT$core..iter..sources..once..Once$LT$proc_macro2..TokenStream$GT$$GT$..$u7b$$u7b$closure$u7d$$u7d$$GT$$C$proc_macro2..imp..TokenStream..unwrap_stable$GT$$GT$$GT$17h70454de807c40686E:
.Lfunc_begin20:
	.cv_func_id 20
	.cv_loc	20 2 188 0
.seh_proc _ZN4core3ptr469drop_in_place$LT$core..iter..adapters..fuse..Fuse$LT$core..iter..adapters..map..Map$LT$core..iter..adapters..map..Map$LT$core..iter..sources..once..Once$LT$proc_macro2..TokenStream$GT$$C$$LT$proc_macro2..TokenStream$u20$as$u20$core..iter..traits..collect..Extend$LT$proc_macro2..TokenStream$GT$$GT$..extend$LT$core..iter..sources..once..Once$LT$proc_macro2..TokenStream$GT$$GT$..$u7b$$u7b$closure$u7d$$u7d$$GT$$C$proc_macro2..imp..TokenStream..unwrap_stable$GT$$GT$$GT$17h70454de807c40686E
	subq	$40, %rsp
	.seh_stackalloc 40
	.seh_endprologue
	movq	%rcx, 32(%rsp)
.Ltmp40:
	callq	_ZN4core3ptr457drop_in_place$LT$core..option..Option$LT$core..iter..adapters..map..Map$LT$core..iter..adapters..map..Map$LT$core..iter..sources..once..Once$LT$proc_macro2..TokenStream$GT$$C$$LT$proc_macro2..TokenStream$u20$as$u20$core..iter..traits..collect..Extend$LT$proc_macro2..TokenStream$GT$$GT$..extend$LT$core..iter..sources..once..Once$LT$proc_macro2..TokenStream$GT$$GT$..$u7b$$u7b$closure$u7d$$u7d$$GT$$C$proc_macro2..imp..TokenStream..unwrap_stable$GT$$GT$$GT$17h744e7cd4ef5b28feE
	nop
	addq	$40, %rsp
	retq
.Ltmp41:
.Lfunc_end20:
	.seh_endproc

	.def	_ZN4core3ptr475drop_in_place$LT$core..iter..adapters..flatten..Flatten$LT$core..iter..adapters..map..Map$LT$core..iter..adapters..map..Map$LT$core..iter..sources..once..Once$LT$proc_macro2..TokenStream$GT$$C$$LT$proc_macro2..TokenStream$u20$as$u20$core..iter..traits..collect..Extend$LT$proc_macro2..TokenStream$GT$$GT$..extend$LT$core..iter..sources..once..Once$LT$proc_macro2..TokenStream$GT$$GT$..$u7b$$u7b$closure$u7d$$u7d$$GT$$C$proc_macro2..imp..TokenStream..unwrap_stable$GT$$GT$$GT$17h4329e04aeb066a45E;
	.scl	2;
	.type	32;
	.endef
	.section	.text,"xr",one_only,_ZN4core3ptr475drop_in_place$LT$core..iter..adapters..flatten..Flatten$LT$core..iter..adapters..map..Map$LT$core..iter..adapters..map..Map$LT$core..iter..sources..once..Once$LT$proc_macro2..TokenStream$GT$$C$$LT$proc_macro2..TokenStream$u20$as$u20$core..iter..traits..collect..Extend$LT$proc_macro2..TokenStream$GT$$GT$..extend$LT$core..iter..sources..once..Once$LT$proc_macro2..TokenStream$GT$$GT$..$u7b$$u7b$closure$u7d$$u7d$$GT$$C$proc_macro2..imp..TokenStream..unwrap_stable$GT$$GT$$GT$17h4329e04aeb066a45E
	.globl	_ZN4core3ptr475drop_in_place$LT$core..iter..adapters..flatten..Flatten$LT$core..iter..adapters..map..Map$LT$core..iter..adapters..map..Map$LT$core..iter..sources..once..Once$LT$proc_macro2..TokenStream$GT$$C$$LT$proc_macro2..TokenStream$u20$as$u20$core..iter..traits..collect..Extend$LT$proc_macro2..TokenStream$GT$$GT$..extend$LT$core..iter..sources..once..Once$LT$proc_macro2..TokenStream$GT$$GT$..$u7b$$u7b$closure$u7d$$u7d$$GT$$C$proc_macro2..imp..TokenStream..unwrap_stable$GT$$GT$$GT$17h4329e04aeb066a45E
	.p2align	4, 0x90
_ZN4core3ptr475drop_in_place$LT$core..iter..adapters..flatten..Flatten$LT$core..iter..adapters..map..Map$LT$core..iter..adapters..map..Map$LT$core..iter..sources..once..Once$LT$proc_macro2..TokenStream$GT$$C$$LT$proc_macro2..TokenStream$u20$as$u20$core..iter..traits..collect..Extend$LT$proc_macro2..TokenStream$GT$$GT$..extend$LT$core..iter..sources..once..Once$LT$proc_macro2..TokenStream$GT$$GT$..$u7b$$u7b$closure$u7d$$u7d$$GT$$C$proc_macro2..imp..TokenStream..unwrap_stable$GT$$GT$$GT$17h4329e04aeb066a45E:
.Lfunc_begin21:
	.cv_func_id 21
	.cv_loc	21 2 188 0
.seh_proc _ZN4core3ptr475drop_in_place$LT$core..iter..adapters..flatten..Flatten$LT$core..iter..adapters..map..Map$LT$core..iter..adapters..map..Map$LT$core..iter..sources..once..Once$LT$proc_macro2..TokenStream$GT$$C$$LT$proc_macro2..TokenStream$u20$as$u20$core..iter..traits..collect..Extend$LT$proc_macro2..TokenStream$GT$$GT$..extend$LT$core..iter..sources..once..Once$LT$proc_macro2..TokenStream$GT$$GT$..$u7b$$u7b$closure$u7d$$u7d$$GT$$C$proc_macro2..imp..TokenStream..unwrap_stable$GT$$GT$$GT$17h4329e04aeb066a45E
	subq	$40, %rsp
	.seh_stackalloc 40
	.seh_endprologue
	movq	%rcx, 32(%rsp)
.Ltmp42:
	callq	_ZN4core3ptr547drop_in_place$LT$core..iter..adapters..flatten..FlattenCompat$LT$core..iter..adapters..map..Map$LT$core..iter..adapters..map..Map$LT$core..iter..sources..once..Once$LT$proc_macro2..TokenStream$GT$$C$$LT$proc_macro2..TokenStream$u20$as$u20$core..iter..traits..collect..Extend$LT$proc_macro2..TokenStream$GT$$GT$..extend$LT$core..iter..sources..once..Once$LT$proc_macro2..TokenStream$GT$$GT$..$u7b$$u7b$closure$u7d$$u7d$$GT$$C$proc_macro2..imp..TokenStream..unwrap_stable$GT$$C$proc_macro2..rcvec..RcVecIntoIter$LT$proc_macro2..TokenTree$GT$$GT$$GT$17h5f1c546fe30576f9E
	nop
	addq	$40, %rsp
	retq
.Ltmp43:
.Lfunc_end21:
	.seh_endproc

	.def	_ZN4core3ptr537drop_in_place$LT$core..iter..adapters..chain..Chain$LT$core..iter..sources..once..Once$LT$proc_macro..TokenStream$GT$$C$core..iter..adapters..map..Map$LT$core..iter..adapters..map..Map$LT$core..iter..sources..once..Once$LT$proc_macro2..TokenStream$GT$$C$$LT$proc_macro2..TokenStream$u20$as$u20$core..iter..traits..collect..Extend$LT$proc_macro2..TokenStream$GT$$GT$..extend$LT$core..iter..sources..once..Once$LT$proc_macro2..TokenStream$GT$$GT$..$u7b$$u7b$closure$u7d$$u7d$$GT$$C$proc_macro2..imp..TokenStream..unwrap_nightly$GT$$GT$$GT$17hc0ee6e9652d52953E;
	.scl	2;
	.type	32;
	.endef
	.section	.text,"xr",one_only,_ZN4core3ptr537drop_in_place$LT$core..iter..adapters..chain..Chain$LT$core..iter..sources..once..Once$LT$proc_macro..TokenStream$GT$$C$core..iter..adapters..map..Map$LT$core..iter..adapters..map..Map$LT$core..iter..sources..once..Once$LT$proc_macro2..TokenStream$GT$$C$$LT$proc_macro2..TokenStream$u20$as$u20$core..iter..traits..collect..Extend$LT$proc_macro2..TokenStream$GT$$GT$..extend$LT$core..iter..sources..once..Once$LT$proc_macro2..TokenStream$GT$$GT$..$u7b$$u7b$closure$u7d$$u7d$$GT$$C$proc_macro2..imp..TokenStream..unwrap_nightly$GT$$GT$$GT$17hc0ee6e9652d52953E
	.globl	_ZN4core3ptr537drop_in_place$LT$core..iter..adapters..chain..Chain$LT$core..iter..sources..once..Once$LT$proc_macro..TokenStream$GT$$C$core..iter..adapters..map..Map$LT$core..iter..adapters..map..Map$LT$core..iter..sources..once..Once$LT$proc_macro2..TokenStream$GT$$C$$LT$proc_macro2..TokenStream$u20$as$u20$core..iter..traits..collect..Extend$LT$proc_macro2..TokenStream$GT$$GT$..extend$LT$core..iter..sources..once..Once$LT$proc_macro2..TokenStream$GT$$GT$..$u7b$$u7b$closure$u7d$$u7d$$GT$$C$proc_macro2..imp..TokenStream..unwrap_nightly$GT$$GT$$GT$17hc0ee6e9652d52953E
	.p2align	4, 0x90
_ZN4core3ptr537drop_in_place$LT$core..iter..adapters..chain..Chain$LT$core..iter..sources..once..Once$LT$proc_macro..TokenStream$GT$$C$core..iter..adapters..map..Map$LT$core..iter..adapters..map..Map$LT$core..iter..sources..once..Once$LT$proc_macro2..TokenStream$GT$$C$$LT$proc_macro2..TokenStream$u20$as$u20$core..iter..traits..collect..Extend$LT$proc_macro2..TokenStream$GT$$GT$..extend$LT$core..iter..sources..once..Once$LT$proc_macro2..TokenStream$GT$$GT$..$u7b$$u7b$closure$u7d$$u7d$$GT$$C$proc_macro2..imp..TokenStream..unwrap_nightly$GT$$GT$$GT$17hc0ee6e9652d52953E:
.Lfunc_begin22:
	.cv_func_id 22
	.cv_loc	22 2 188 0
.seh_proc _ZN4core3ptr537drop_in_place$LT$core..iter..adapters..chain..Chain$LT$core..iter..sources..once..Once$LT$proc_macro..TokenStream$GT$$C$core..iter..adapters..map..Map$LT$core..iter..adapters..map..Map$LT$core..iter..sources..once..Once$LT$proc_macro2..TokenStream$GT$$C$$LT$proc_macro2..TokenStream$u20$as$u20$core..iter..traits..collect..Extend$LT$proc_macro2..TokenStream$GT$$GT$..extend$LT$core..iter..sources..once..Once$LT$proc_macro2..TokenStream$GT$$GT$..$u7b$$u7b$closure$u7d$$u7d$$GT$$C$proc_macro2..imp..TokenStream..unwrap_nightly$GT$$GT$$GT$17hc0ee6e9652d52953E
	.seh_handler __CxxFrameHandler3, @unwind, @except
	pushq	%rbp
	.seh_pushreg %rbp
	subq	$64, %rsp
	.seh_stackalloc 64
	leaq	64(%rsp), %rbp
	.seh_setframe %rbp, 64
	.seh_endprologue
	movq	$-2, -8(%rbp)
	movq	%rcx, -24(%rbp)
	movq	%rcx, -16(%rbp)
.Ltmp46:
	addq	$40, %rcx
.Ltmp44:
	callq	_ZN4core3ptr111drop_in_place$LT$core..option..Option$LT$core..iter..sources..once..Once$LT$proc_macro..TokenStream$GT$$GT$$GT$17h370e0ba52c17fd4cE
.Ltmp45:
	jmp	.LBB22_1
.LBB22_1:
	movq	-24(%rbp), %rcx
	callq	_ZN4core3ptr458drop_in_place$LT$core..option..Option$LT$core..iter..adapters..map..Map$LT$core..iter..adapters..map..Map$LT$core..iter..sources..once..Once$LT$proc_macro2..TokenStream$GT$$C$$LT$proc_macro2..TokenStream$u20$as$u20$core..iter..traits..collect..Extend$LT$proc_macro2..TokenStream$GT$$GT$..extend$LT$core..iter..sources..once..Once$LT$proc_macro2..TokenStream$GT$$GT$..$u7b$$u7b$closure$u7d$$u7d$$GT$$C$proc_macro2..imp..TokenStream..unwrap_nightly$GT$$GT$$GT$17h7f832ae019489e1eE
	nop
	addq	$64, %rsp
	popq	%rbp
	retq
	.seh_handlerdata
	.long	($cppxdata$_ZN4core3ptr537drop_in_place$LT$core..iter..adapters..chain..Chain$LT$core..iter..sources..once..Once$LT$proc_macro..TokenStream$GT$$C$core..iter..adapters..map..Map$LT$core..iter..adapters..map..Map$LT$core..iter..sources..once..Once$LT$proc_macro2..TokenStream$GT$$C$$LT$proc_macro2..TokenStream$u20$as$u20$core..iter..traits..collect..Extend$LT$proc_macro2..TokenStream$GT$$GT$..extend$LT$core..iter..sources..once..Once$LT$proc_macro2..TokenStream$GT$$GT$..$u7b$$u7b$closure$u7d$$u7d$$GT$$C$proc_macro2..imp..TokenStream..unwrap_nightly$GT$$GT$$GT$17hc0ee6e9652d52953E)@IMGREL
	.section	.text,"xr",one_only,_ZN4core3ptr537drop_in_place$LT$core..iter..adapters..chain..Chain$LT$core..iter..sources..once..Once$LT$proc_macro..TokenStream$GT$$C$core..iter..adapters..map..Map$LT$core..iter..adapters..map..Map$LT$core..iter..sources..once..Once$LT$proc_macro2..TokenStream$GT$$C$$LT$proc_macro2..TokenStream$u20$as$u20$core..iter..traits..collect..Extend$LT$proc_macro2..TokenStream$GT$$GT$..extend$LT$core..iter..sources..once..Once$LT$proc_macro2..TokenStream$GT$$GT$..$u7b$$u7b$closure$u7d$$u7d$$GT$$C$proc_macro2..imp..TokenStream..unwrap_nightly$GT$$GT$$GT$17hc0ee6e9652d52953E
	.seh_endproc
	.def	"?dtor$2@?0?_ZN4core3ptr537drop_in_place$LT$core..iter..adapters..chain..Chain$LT$core..iter..sources..once..Once$LT$proc_macro..TokenStream$GT$$C$core..iter..adapters..map..Map$LT$core..iter..adapters..map..Map$LT$core..iter..sources..once..Once$LT$proc_macro2..TokenStream$GT$$C$$LT$proc_macro2..TokenStream$u20$as$u20$core..iter..traits..collect..Extend$LT$proc_macro2..TokenStream$GT$$GT$..extend$LT$core..iter..sources..once..Once$LT$proc_macro2..TokenStream$GT$$GT$..$u7b$$u7b$closure$u7d$$u7d$$GT$$C$proc_macro2..imp..TokenStream..unwrap_nightly$GT$$GT$$GT$17hc0ee6e9652d52953E@4HA";
	.scl	3;
	.type	32;
	.endef
	.p2align	4, 0x90
"?dtor$2@?0?_ZN4core3ptr537drop_in_place$LT$core..iter..adapters..chain..Chain$LT$core..iter..sources..once..Once$LT$proc_macro..TokenStream$GT$$C$core..iter..adapters..map..Map$LT$core..iter..adapters..map..Map$LT$core..iter..sources..once..Once$LT$proc_macro2..TokenStream$GT$$C$$LT$proc_macro2..TokenStream$u20$as$u20$core..iter..traits..collect..Extend$LT$proc_macro2..TokenStream$GT$$GT$..extend$LT$core..iter..sources..once..Once$LT$proc_macro2..TokenStream$GT$$GT$..$u7b$$u7b$closure$u7d$$u7d$$GT$$C$proc_macro2..imp..TokenStream..unwrap_nightly$GT$$GT$$GT$17hc0ee6e9652d52953E@4HA":
.seh_proc "?dtor$2@?0?_ZN4core3ptr537drop_in_place$LT$core..iter..adapters..chain..Chain$LT$core..iter..sources..once..Once$LT$proc_macro..TokenStream$GT$$C$core..iter..adapters..map..Map$LT$core..iter..adapters..map..Map$LT$core..iter..sources..once..Once$LT$proc_macro2..TokenStream$GT$$C$$LT$proc_macro2..TokenStream$u20$as$u20$core..iter..traits..collect..Extend$LT$proc_macro2..TokenStream$GT$$GT$..extend$LT$core..iter..sources..once..Once$LT$proc_macro2..TokenStream$GT$$GT$..$u7b$$u7b$closure$u7d$$u7d$$GT$$C$proc_macro2..imp..TokenStream..unwrap_nightly$GT$$GT$$GT$17hc0ee6e9652d52953E@4HA"
.LBB22_2:
	movq	%rdx, 16(%rsp)
	pushq	%rbp
	.seh_pushreg %rbp
	subq	$32, %rsp
	.seh_stackalloc 32
	leaq	64(%rdx), %rbp
	.seh_endprologue
	movq	-24(%rbp), %rcx
	callq	_ZN4core3ptr458drop_in_place$LT$core..option..Option$LT$core..iter..adapters..map..Map$LT$core..iter..adapters..map..Map$LT$core..iter..sources..once..Once$LT$proc_macro2..TokenStream$GT$$C$$LT$proc_macro2..TokenStream$u20$as$u20$core..iter..traits..collect..Extend$LT$proc_macro2..TokenStream$GT$$GT$..extend$LT$core..iter..sources..once..Once$LT$proc_macro2..TokenStream$GT$$GT$..$u7b$$u7b$closure$u7d$$u7d$$GT$$C$proc_macro2..imp..TokenStream..unwrap_nightly$GT$$GT$$GT$17h7f832ae019489e1eE
	nop
	addq	$32, %rsp
	popq	%rbp
	retq
.Ltmp47:
.Lfunc_end22:
	.seh_handlerdata
	.section	.text,"xr",one_only,_ZN4core3ptr537drop_in_place$LT$core..iter..adapters..chain..Chain$LT$core..iter..sources..once..Once$LT$proc_macro..TokenStream$GT$$C$core..iter..adapters..map..Map$LT$core..iter..adapters..map..Map$LT$core..iter..sources..once..Once$LT$proc_macro2..TokenStream$GT$$C$$LT$proc_macro2..TokenStream$u20$as$u20$core..iter..traits..collect..Extend$LT$proc_macro2..TokenStream$GT$$GT$..extend$LT$core..iter..sources..once..Once$LT$proc_macro2..TokenStream$GT$$GT$..$u7b$$u7b$closure$u7d$$u7d$$GT$$C$proc_macro2..imp..TokenStream..unwrap_nightly$GT$$GT$$GT$17hc0ee6e9652d52953E
	.seh_endproc
	.section	.xdata,"dr",associative,_ZN4core3ptr537drop_in_place$LT$core..iter..adapters..chain..Chain$LT$core..iter..sources..once..Once$LT$proc_macro..TokenStream$GT$$C$core..iter..adapters..map..Map$LT$core..iter..adapters..map..Map$LT$core..iter..sources..once..Once$LT$proc_macro2..TokenStream$GT$$C$$LT$proc_macro2..TokenStream$u20$as$u20$core..iter..traits..collect..Extend$LT$proc_macro2..TokenStream$GT$$GT$..extend$LT$core..iter..sources..once..Once$LT$proc_macro2..TokenStream$GT$$GT$..$u7b$$u7b$closure$u7d$$u7d$$GT$$C$proc_macro2..imp..TokenStream..unwrap_nightly$GT$$GT$$GT$17hc0ee6e9652d52953E
	.p2align	2
$cppxdata$_ZN4core3ptr537drop_in_place$LT$core..iter..adapters..chain..Chain$LT$core..iter..sources..once..Once$LT$proc_macro..TokenStream$GT$$C$core..iter..adapters..map..Map$LT$core..iter..adapters..map..Map$LT$core..iter..sources..once..Once$LT$proc_macro2..TokenStream$GT$$C$$LT$proc_macro2..TokenStream$u20$as$u20$core..iter..traits..collect..Extend$LT$proc_macro2..TokenStream$GT$$GT$..extend$LT$core..iter..sources..once..Once$LT$proc_macro2..TokenStream$GT$$GT$..$u7b$$u7b$closure$u7d$$u7d$$GT$$C$proc_macro2..imp..TokenStream..unwrap_nightly$GT$$GT$$GT$17hc0ee6e9652d52953E:
	.long	429065506
	.long	1
	.long	($stateUnwindMap$_ZN4core3ptr537drop_in_place$LT$core..iter..adapters..chain..Chain$LT$core..iter..sources..once..Once$LT$proc_macro..TokenStream$GT$$C$core..iter..adapters..map..Map$LT$core..iter..adapters..map..Map$LT$core..iter..sources..once..Once$LT$proc_macro2..TokenStream$GT$$C$$LT$proc_macro2..TokenStream$u20$as$u20$core..iter..traits..collect..Extend$LT$proc_macro2..TokenStream$GT$$GT$..extend$LT$core..iter..sources..once..Once$LT$proc_macro2..TokenStream$GT$$GT$..$u7b$$u7b$closure$u7d$$u7d$$GT$$C$proc_macro2..imp..TokenStream..unwrap_nightly$GT$$GT$$GT$17hc0ee6e9652d52953E)@IMGREL
	.long	0
	.long	0
	.long	3
	.long	($ip2state$_ZN4core3ptr537drop_in_place$LT$core..iter..adapters..chain..Chain$LT$core..iter..sources..once..Once$LT$proc_macro..TokenStream$GT$$C$core..iter..adapters..map..Map$LT$core..iter..adapters..map..Map$LT$core..iter..sources..once..Once$LT$proc_macro2..TokenStream$GT$$C$$LT$proc_macro2..TokenStream$u20$as$u20$core..iter..traits..collect..Extend$LT$proc_macro2..TokenStream$GT$$GT$..extend$LT$core..iter..sources..once..Once$LT$proc_macro2..TokenStream$GT$$GT$..$u7b$$u7b$closure$u7d$$u7d$$GT$$C$proc_macro2..imp..TokenStream..unwrap_nightly$GT$$GT$$GT$17hc0ee6e9652d52953E)@IMGREL
	.long	56
	.long	0
	.long	1
$stateUnwindMap$_ZN4core3ptr537drop_in_place$LT$core..iter..adapters..chain..Chain$LT$core..iter..sources..once..Once$LT$proc_macro..TokenStream$GT$$C$core..iter..adapters..map..Map$LT$core..iter..adapters..map..Map$LT$core..iter..sources..once..Once$LT$proc_macro2..TokenStream$GT$$C$$LT$proc_macro2..TokenStream$u20$as$u20$core..iter..traits..collect..Extend$LT$proc_macro2..TokenStream$GT$$GT$..extend$LT$core..iter..sources..once..Once$LT$proc_macro2..TokenStream$GT$$GT$..$u7b$$u7b$closure$u7d$$u7d$$GT$$C$proc_macro2..imp..TokenStream..unwrap_nightly$GT$$GT$$GT$17hc0ee6e9652d52953E:
	.long	-1
	.long	"?dtor$2@?0?_ZN4core3ptr537drop_in_place$LT$core..iter..adapters..chain..Chain$LT$core..iter..sources..once..Once$LT$proc_macro..TokenStream$GT$$C$core..iter..adapters..map..Map$LT$core..iter..adapters..map..Map$LT$core..iter..sources..once..Once$LT$proc_macro2..TokenStream$GT$$C$$LT$proc_macro2..TokenStream$u20$as$u20$core..iter..traits..collect..Extend$LT$proc_macro2..TokenStream$GT$$GT$..extend$LT$core..iter..sources..once..Once$LT$proc_macro2..TokenStream$GT$$GT$..$u7b$$u7b$closure$u7d$$u7d$$GT$$C$proc_macro2..imp..TokenStream..unwrap_nightly$GT$$GT$$GT$17hc0ee6e9652d52953E@4HA"@IMGREL
$ip2state$_ZN4core3ptr537drop_in_place$LT$core..iter..adapters..chain..Chain$LT$core..iter..sources..once..Once$LT$proc_macro..TokenStream$GT$$C$core..iter..adapters..map..Map$LT$core..iter..adapters..map..Map$LT$core..iter..sources..once..Once$LT$proc_macro2..TokenStream$GT$$C$$LT$proc_macro2..TokenStream$u20$as$u20$core..iter..traits..collect..Extend$LT$proc_macro2..TokenStream$GT$$GT$..extend$LT$core..iter..sources..once..Once$LT$proc_macro2..TokenStream$GT$$GT$..$u7b$$u7b$closure$u7d$$u7d$$GT$$C$proc_macro2..imp..TokenStream..unwrap_nightly$GT$$GT$$GT$17hc0ee6e9652d52953E:
	.long	.Lfunc_begin22@IMGREL
	.long	-1
	.long	.Ltmp44@IMGREL+1
	.long	0
	.long	.Ltmp45@IMGREL+1
	.long	-1
	.section	.text,"xr",one_only,_ZN4core3ptr537drop_in_place$LT$core..iter..adapters..chain..Chain$LT$core..iter..sources..once..Once$LT$proc_macro..TokenStream$GT$$C$core..iter..adapters..map..Map$LT$core..iter..adapters..map..Map$LT$core..iter..sources..once..Once$LT$proc_macro2..TokenStream$GT$$C$$LT$proc_macro2..TokenStream$u20$as$u20$core..iter..traits..collect..Extend$LT$proc_macro2..TokenStream$GT$$GT$..extend$LT$core..iter..sources..once..Once$LT$proc_macro2..TokenStream$GT$$GT$..$u7b$$u7b$closure$u7d$$u7d$$GT$$C$proc_macro2..imp..TokenStream..unwrap_nightly$GT$$GT$$GT$17hc0ee6e9652d52953E

	.def	_ZN4core3ptr53drop_in_place$LT$core..alloc..layout..LayoutError$GT$17h0beea7e2e7c9de5cE;
	.scl	3;
	.type	32;
	.endef
	.section	.text,"xr",one_only,_ZN4core3ptr53drop_in_place$LT$core..alloc..layout..LayoutError$GT$17h0beea7e2e7c9de5cE
	.p2align	4, 0x90
_ZN4core3ptr53drop_in_place$LT$core..alloc..layout..LayoutError$GT$17h0beea7e2e7c9de5cE:
.Lfunc_begin23:
	.cv_func_id 23
	.cv_loc	23 2 188 0
.seh_proc _ZN4core3ptr53drop_in_place$LT$core..alloc..layout..LayoutError$GT$17h0beea7e2e7c9de5cE
	pushq	%rax
	.seh_stackalloc 8
	.seh_endprologue
	movq	%rcx, (%rsp)
.Ltmp48:
	popq	%rax
	retq
.Ltmp49:
.Lfunc_end23:
	.seh_endproc

	.def	_ZN4core3ptr547drop_in_place$LT$core..iter..adapters..flatten..FlattenCompat$LT$core..iter..adapters..map..Map$LT$core..iter..adapters..map..Map$LT$core..iter..sources..once..Once$LT$proc_macro2..TokenStream$GT$$C$$LT$proc_macro2..TokenStream$u20$as$u20$core..iter..traits..collect..Extend$LT$proc_macro2..TokenStream$GT$$GT$..extend$LT$core..iter..sources..once..Once$LT$proc_macro2..TokenStream$GT$$GT$..$u7b$$u7b$closure$u7d$$u7d$$GT$$C$proc_macro2..imp..TokenStream..unwrap_stable$GT$$C$proc_macro2..rcvec..RcVecIntoIter$LT$proc_macro2..TokenTree$GT$$GT$$GT$17h5f1c546fe30576f9E;
	.scl	2;
	.type	32;
	.endef
	.section	.text,"xr",one_only,_ZN4core3ptr547drop_in_place$LT$core..iter..adapters..flatten..FlattenCompat$LT$core..iter..adapters..map..Map$LT$core..iter..adapters..map..Map$LT$core..iter..sources..once..Once$LT$proc_macro2..TokenStream$GT$$C$$LT$proc_macro2..TokenStream$u20$as$u20$core..iter..traits..collect..Extend$LT$proc_macro2..TokenStream$GT$$GT$..extend$LT$core..iter..sources..once..Once$LT$proc_macro2..TokenStream$GT$$GT$..$u7b$$u7b$closure$u7d$$u7d$$GT$$C$proc_macro2..imp..TokenStream..unwrap_stable$GT$$C$proc_macro2..rcvec..RcVecIntoIter$LT$proc_macro2..TokenTree$GT$$GT$$GT$17h5f1c546fe30576f9E
	.globl	_ZN4core3ptr547drop_in_place$LT$core..iter..adapters..flatten..FlattenCompat$LT$core..iter..adapters..map..Map$LT$core..iter..adapters..map..Map$LT$core..iter..sources..once..Once$LT$proc_macro2..TokenStream$GT$$C$$LT$proc_macro2..TokenStream$u20$as$u20$core..iter..traits..collect..Extend$LT$proc_macro2..TokenStream$GT$$GT$..extend$LT$core..iter..sources..once..Once$LT$proc_macro2..TokenStream$GT$$GT$..$u7b$$u7b$closure$u7d$$u7d$$GT$$C$proc_macro2..imp..TokenStream..unwrap_stable$GT$$C$proc_macro2..rcvec..RcVecIntoIter$LT$proc_macro2..TokenTree$GT$$GT$$GT$17h5f1c546fe30576f9E
	.p2align	4, 0x90
_ZN4core3ptr547drop_in_place$LT$core..iter..adapters..flatten..FlattenCompat$LT$core..iter..adapters..map..Map$LT$core..iter..adapters..map..Map$LT$core..iter..sources..once..Once$LT$proc_macro2..TokenStream$GT$$C$$LT$proc_macro2..TokenStream$u20$as$u20$core..iter..traits..collect..Extend$LT$proc_macro2..TokenStream$GT$$GT$..extend$LT$core..iter..sources..once..Once$LT$proc_macro2..TokenStream$GT$$GT$..$u7b$$u7b$closure$u7d$$u7d$$GT$$C$proc_macro2..imp..TokenStream..unwrap_stable$GT$$C$proc_macro2..rcvec..RcVecIntoIter$LT$proc_macro2..TokenTree$GT$$GT$$GT$17h5f1c546fe30576f9E:
.Lfunc_begin24:
	.cv_func_id 24
	.cv_loc	24 2 188 0
.seh_proc _ZN4core3ptr547drop_in_place$LT$core..iter..adapters..flatten..FlattenCompat$LT$core..iter..adapters..map..Map$LT$core..iter..adapters..map..Map$LT$core..iter..sources..once..Once$LT$proc_macro2..TokenStream$GT$$C$$LT$proc_macro2..TokenStream$u20$as$u20$core..iter..traits..collect..Extend$LT$proc_macro2..TokenStream$GT$$GT$..extend$LT$core..iter..sources..once..Once$LT$proc_macro2..TokenStream$GT$$GT$..$u7b$$u7b$closure$u7d$$u7d$$GT$$C$proc_macro2..imp..TokenStream..unwrap_stable$GT$$C$proc_macro2..rcvec..RcVecIntoIter$LT$proc_macro2..TokenTree$GT$$GT$$GT$17h5f1c546fe30576f9E
	.seh_handler __CxxFrameHandler3, @unwind, @except
	pushq	%rbp
	.seh_pushreg %rbp
	subq	$64, %rsp
	.seh_stackalloc 64
	leaq	64(%rsp), %rbp
	.seh_setframe %rbp, 64
	.seh_endprologue
	movq	$-2, -8(%rbp)
	movq	%rcx, -24(%rbp)
	movq	%rcx, -16(%rbp)
.Ltmp50:
.Ltmp54:
	callq	_ZN4core3ptr469drop_in_place$LT$core..iter..adapters..fuse..Fuse$LT$core..iter..adapters..map..Map$LT$core..iter..adapters..map..Map$LT$core..iter..sources..once..Once$LT$proc_macro2..TokenStream$GT$$C$$LT$proc_macro2..TokenStream$u20$as$u20$core..iter..traits..collect..Extend$LT$proc_macro2..TokenStream$GT$$GT$..extend$LT$core..iter..sources..once..Once$LT$proc_macro2..TokenStream$GT$$GT$..$u7b$$u7b$closure$u7d$$u7d$$GT$$C$proc_macro2..imp..TokenStream..unwrap_stable$GT$$GT$$GT$17h70454de807c40686E
.Ltmp51:
	jmp	.LBB24_1
.LBB24_1:
	movq	-24(%rbp), %rcx
	addq	$40, %rcx
.Ltmp52:
	callq	_ZN4core3ptr112drop_in_place$LT$core..option..Option$LT$proc_macro2..rcvec..RcVecIntoIter$LT$proc_macro2..TokenTree$GT$$GT$$GT$17h0d13828c2fa6db1aE
.Ltmp53:
	jmp	.LBB24_4
.LBB24_4:
	movq	-24(%rbp), %rcx
	addq	$72, %rcx
	callq	_ZN4core3ptr112drop_in_place$LT$core..option..Option$LT$proc_macro2..rcvec..RcVecIntoIter$LT$proc_macro2..TokenTree$GT$$GT$$GT$17h0d13828c2fa6db1aE
	nop
	addq	$64, %rsp
	popq	%rbp
	retq
	.seh_handlerdata
	.long	($cppxdata$_ZN4core3ptr547drop_in_place$LT$core..iter..adapters..flatten..FlattenCompat$LT$core..iter..adapters..map..Map$LT$core..iter..adapters..map..Map$LT$core..iter..sources..once..Once$LT$proc_macro2..TokenStream$GT$$C$$LT$proc_macro2..TokenStream$u20$as$u20$core..iter..traits..collect..Extend$LT$proc_macro2..TokenStream$GT$$GT$..extend$LT$core..iter..sources..once..Once$LT$proc_macro2..TokenStream$GT$$GT$..$u7b$$u7b$closure$u7d$$u7d$$GT$$C$proc_macro2..imp..TokenStream..unwrap_stable$GT$$C$proc_macro2..rcvec..RcVecIntoIter$LT$proc_macro2..TokenTree$GT$$GT$$GT$17h5f1c546fe30576f9E)@IMGREL
	.section	.text,"xr",one_only,_ZN4core3ptr547drop_in_place$LT$core..iter..adapters..flatten..FlattenCompat$LT$core..iter..adapters..map..Map$LT$core..iter..adapters..map..Map$LT$core..iter..sources..once..Once$LT$proc_macro2..TokenStream$GT$$C$$LT$proc_macro2..TokenStream$u20$as$u20$core..iter..traits..collect..Extend$LT$proc_macro2..TokenStream$GT$$GT$..extend$LT$core..iter..sources..once..Once$LT$proc_macro2..TokenStream$GT$$GT$..$u7b$$u7b$closure$u7d$$u7d$$GT$$C$proc_macro2..imp..TokenStream..unwrap_stable$GT$$C$proc_macro2..rcvec..RcVecIntoIter$LT$proc_macro2..TokenTree$GT$$GT$$GT$17h5f1c546fe30576f9E
	.seh_endproc
	.def	"?dtor$2@?0?_ZN4core3ptr547drop_in_place$LT$core..iter..adapters..flatten..FlattenCompat$LT$core..iter..adapters..map..Map$LT$core..iter..adapters..map..Map$LT$core..iter..sources..once..Once$LT$proc_macro2..TokenStream$GT$$C$$LT$proc_macro2..TokenStream$u20$as$u20$core..iter..traits..collect..Extend$LT$proc_macro2..TokenStream$GT$$GT$..extend$LT$core..iter..sources..once..Once$LT$proc_macro2..TokenStream$GT$$GT$..$u7b$$u7b$closure$u7d$$u7d$$GT$$C$proc_macro2..imp..TokenStream..unwrap_stable$GT$$C$proc_macro2..rcvec..RcVecIntoIter$LT$proc_macro2..TokenTree$GT$$GT$$GT$17h5f1c546fe30576f9E@4HA";
	.scl	3;
	.type	32;
	.endef
	.p2align	4, 0x90
"?dtor$2@?0?_ZN4core3ptr547drop_in_place$LT$core..iter..adapters..flatten..FlattenCompat$LT$core..iter..adapters..map..Map$LT$core..iter..adapters..map..Map$LT$core..iter..sources..once..Once$LT$proc_macro2..TokenStream$GT$$C$$LT$proc_macro2..TokenStream$u20$as$u20$core..iter..traits..collect..Extend$LT$proc_macro2..TokenStream$GT$$GT$..extend$LT$core..iter..sources..once..Once$LT$proc_macro2..TokenStream$GT$$GT$..$u7b$$u7b$closure$u7d$$u7d$$GT$$C$proc_macro2..imp..TokenStream..unwrap_stable$GT$$C$proc_macro2..rcvec..RcVecIntoIter$LT$proc_macro2..TokenTree$GT$$GT$$GT$17h5f1c546fe30576f9E@4HA":
.seh_proc "?dtor$2@?0?_ZN4core3ptr547drop_in_place$LT$core..iter..adapters..flatten..FlattenCompat$LT$core..iter..adapters..map..Map$LT$core..iter..adapters..map..Map$LT$core..iter..sources..once..Once$LT$proc_macro2..TokenStream$GT$$C$$LT$proc_macro2..TokenStream$u20$as$u20$core..iter..traits..collect..Extend$LT$proc_macro2..TokenStream$GT$$GT$..extend$LT$core..iter..sources..once..Once$LT$proc_macro2..TokenStream$GT$$GT$..$u7b$$u7b$closure$u7d$$u7d$$GT$$C$proc_macro2..imp..TokenStream..unwrap_stable$GT$$C$proc_macro2..rcvec..RcVecIntoIter$LT$proc_macro2..TokenTree$GT$$GT$$GT$17h5f1c546fe30576f9E@4HA"
.LBB24_2:
	movq	%rdx, 16(%rsp)
	pushq	%rbp
	.seh_pushreg %rbp
	subq	$32, %rsp
	.seh_stackalloc 32
	leaq	64(%rdx), %rbp
	.seh_endprologue
	movq	-24(%rbp), %rcx
	addq	$40, %rcx
	callq	_ZN4core3ptr112drop_in_place$LT$core..option..Option$LT$proc_macro2..rcvec..RcVecIntoIter$LT$proc_macro2..TokenTree$GT$$GT$$GT$17h0d13828c2fa6db1aE
	nop
	addq	$32, %rsp
	popq	%rbp
	retq
	.seh_handlerdata
	.section	.text,"xr",one_only,_ZN4core3ptr547drop_in_place$LT$core..iter..adapters..flatten..FlattenCompat$LT$core..iter..adapters..map..Map$LT$core..iter..adapters..map..Map$LT$core..iter..sources..once..Once$LT$proc_macro2..TokenStream$GT$$C$$LT$proc_macro2..TokenStream$u20$as$u20$core..iter..traits..collect..Extend$LT$proc_macro2..TokenStream$GT$$GT$..extend$LT$core..iter..sources..once..Once$LT$proc_macro2..TokenStream$GT$$GT$..$u7b$$u7b$closure$u7d$$u7d$$GT$$C$proc_macro2..imp..TokenStream..unwrap_stable$GT$$C$proc_macro2..rcvec..RcVecIntoIter$LT$proc_macro2..TokenTree$GT$$GT$$GT$17h5f1c546fe30576f9E
	.seh_endproc
	.def	"?dtor$3@?0?_ZN4core3ptr547drop_in_place$LT$core..iter..adapters..flatten..FlattenCompat$LT$core..iter..adapters..map..Map$LT$core..iter..adapters..map..Map$LT$core..iter..sources..once..Once$LT$proc_macro2..TokenStream$GT$$C$$LT$proc_macro2..TokenStream$u20$as$u20$core..iter..traits..collect..Extend$LT$proc_macro2..TokenStream$GT$$GT$..extend$LT$core..iter..sources..once..Once$LT$proc_macro2..TokenStream$GT$$GT$..$u7b$$u7b$closure$u7d$$u7d$$GT$$C$proc_macro2..imp..TokenStream..unwrap_stable$GT$$C$proc_macro2..rcvec..RcVecIntoIter$LT$proc_macro2..TokenTree$GT$$GT$$GT$17h5f1c546fe30576f9E@4HA";
	.scl	3;
	.type	32;
	.endef
	.p2align	4, 0x90
"?dtor$3@?0?_ZN4core3ptr547drop_in_place$LT$core..iter..adapters..flatten..FlattenCompat$LT$core..iter..adapters..map..Map$LT$core..iter..adapters..map..Map$LT$core..iter..sources..once..Once$LT$proc_macro2..TokenStream$GT$$C$$LT$proc_macro2..TokenStream$u20$as$u20$core..iter..traits..collect..Extend$LT$proc_macro2..TokenStream$GT$$GT$..extend$LT$core..iter..sources..once..Once$LT$proc_macro2..TokenStream$GT$$GT$..$u7b$$u7b$closure$u7d$$u7d$$GT$$C$proc_macro2..imp..TokenStream..unwrap_stable$GT$$C$proc_macro2..rcvec..RcVecIntoIter$LT$proc_macro2..TokenTree$GT$$GT$$GT$17h5f1c546fe30576f9E@4HA":
.seh_proc "?dtor$3@?0?_ZN4core3ptr547drop_in_place$LT$core..iter..adapters..flatten..FlattenCompat$LT$core..iter..adapters..map..Map$LT$core..iter..adapters..map..Map$LT$core..iter..sources..once..Once$LT$proc_macro2..TokenStream$GT$$C$$LT$proc_macro2..TokenStream$u20$as$u20$core..iter..traits..collect..Extend$LT$proc_macro2..TokenStream$GT$$GT$..extend$LT$core..iter..sources..once..Once$LT$proc_macro2..TokenStream$GT$$GT$..$u7b$$u7b$closure$u7d$$u7d$$GT$$C$proc_macro2..imp..TokenStream..unwrap_stable$GT$$C$proc_macro2..rcvec..RcVecIntoIter$LT$proc_macro2..TokenTree$GT$$GT$$GT$17h5f1c546fe30576f9E@4HA"
.LBB24_3:
	movq	%rdx, 16(%rsp)
	pushq	%rbp
	.seh_pushreg %rbp
	subq	$32, %rsp
	.seh_stackalloc 32
	leaq	64(%rdx), %rbp
	.seh_endprologue
	movq	-24(%rbp), %rcx
	addq	$72, %rcx
	callq	_ZN4core3ptr112drop_in_place$LT$core..option..Option$LT$proc_macro2..rcvec..RcVecIntoIter$LT$proc_macro2..TokenTree$GT$$GT$$GT$17h0d13828c2fa6db1aE
	nop
	addq	$32, %rsp
	popq	%rbp
	retq
.Ltmp55:
.Lfunc_end24:
	.seh_handlerdata
	.section	.text,"xr",one_only,_ZN4core3ptr547drop_in_place$LT$core..iter..adapters..flatten..FlattenCompat$LT$core..iter..adapters..map..Map$LT$core..iter..adapters..map..Map$LT$core..iter..sources..once..Once$LT$proc_macro2..TokenStream$GT$$C$$LT$proc_macro2..TokenStream$u20$as$u20$core..iter..traits..collect..Extend$LT$proc_macro2..TokenStream$GT$$GT$..extend$LT$core..iter..sources..once..Once$LT$proc_macro2..TokenStream$GT$$GT$..$u7b$$u7b$closure$u7d$$u7d$$GT$$C$proc_macro2..imp..TokenStream..unwrap_stable$GT$$C$proc_macro2..rcvec..RcVecIntoIter$LT$proc_macro2..TokenTree$GT$$GT$$GT$17h5f1c546fe30576f9E
	.seh_endproc
	.section	.xdata,"dr",associative,_ZN4core3ptr547drop_in_place$LT$core..iter..adapters..flatten..FlattenCompat$LT$core..iter..adapters..map..Map$LT$core..iter..adapters..map..Map$LT$core..iter..sources..once..Once$LT$proc_macro2..TokenStream$GT$$C$$LT$proc_macro2..TokenStream$u20$as$u20$core..iter..traits..collect..Extend$LT$proc_macro2..TokenStream$GT$$GT$..extend$LT$core..iter..sources..once..Once$LT$proc_macro2..TokenStream$GT$$GT$..$u7b$$u7b$closure$u7d$$u7d$$GT$$C$proc_macro2..imp..TokenStream..unwrap_stable$GT$$C$proc_macro2..rcvec..RcVecIntoIter$LT$proc_macro2..TokenTree$GT$$GT$$GT$17h5f1c546fe30576f9E
	.p2align	2
$cppxdata$_ZN4core3ptr547drop_in_place$LT$core..iter..adapters..flatten..FlattenCompat$LT$core..iter..adapters..map..Map$LT$core..iter..adapters..map..Map$LT$core..iter..sources..once..Once$LT$proc_macro2..TokenStream$GT$$C$$LT$proc_macro2..TokenStream$u20$as$u20$core..iter..traits..collect..Extend$LT$proc_macro2..TokenStream$GT$$GT$..extend$LT$core..iter..sources..once..Once$LT$proc_macro2..TokenStream$GT$$GT$..$u7b$$u7b$closure$u7d$$u7d$$GT$$C$proc_macro2..imp..TokenStream..unwrap_stable$GT$$C$proc_macro2..rcvec..RcVecIntoIter$LT$proc_macro2..TokenTree$GT$$GT$$GT$17h5f1c546fe30576f9E:
	.long	429065506
	.long	2
	.long	($stateUnwindMap$_ZN4core3ptr547drop_in_place$LT$core..iter..adapters..flatten..FlattenCompat$LT$core..iter..adapters..map..Map$LT$core..iter..adapters..map..Map$LT$core..iter..sources..once..Once$LT$proc_macro2..TokenStream$GT$$C$$LT$proc_macro2..TokenStream$u20$as$u20$core..iter..traits..collect..Extend$LT$proc_macro2..TokenStream$GT$$GT$..extend$LT$core..iter..sources..once..Once$LT$proc_macro2..TokenStream$GT$$GT$..$u7b$$u7b$closure$u7d$$u7d$$GT$$C$proc_macro2..imp..TokenStream..unwrap_stable$GT$$C$proc_macro2..rcvec..RcVecIntoIter$LT$proc_macro2..TokenTree$GT$$GT$$GT$17h5f1c546fe30576f9E)@IMGREL
	.long	0
	.long	0
	.long	4
	.long	($ip2state$_ZN4core3ptr547drop_in_place$LT$core..iter..adapters..flatten..FlattenCompat$LT$core..iter..adapters..map..Map$LT$core..iter..adapters..map..Map$LT$core..iter..sources..once..Once$LT$proc_macro2..TokenStream$GT$$C$$LT$proc_macro2..TokenStream$u20$as$u20$core..iter..traits..collect..Extend$LT$proc_macro2..TokenStream$GT$$GT$..extend$LT$core..iter..sources..once..Once$LT$proc_macro2..TokenStream$GT$$GT$..$u7b$$u7b$closure$u7d$$u7d$$GT$$C$proc_macro2..imp..TokenStream..unwrap_stable$GT$$C$proc_macro2..rcvec..RcVecIntoIter$LT$proc_macro2..TokenTree$GT$$GT$$GT$17h5f1c546fe30576f9E)@IMGREL
	.long	56
	.long	0
	.long	1
$stateUnwindMap$_ZN4core3ptr547drop_in_place$LT$core..iter..adapters..flatten..FlattenCompat$LT$core..iter..adapters..map..Map$LT$core..iter..adapters..map..Map$LT$core..iter..sources..once..Once$LT$proc_macro2..TokenStream$GT$$C$$LT$proc_macro2..TokenStream$u20$as$u20$core..iter..traits..collect..Extend$LT$proc_macro2..TokenStream$GT$$GT$..extend$LT$core..iter..sources..once..Once$LT$proc_macro2..TokenStream$GT$$GT$..$u7b$$u7b$closure$u7d$$u7d$$GT$$C$proc_macro2..imp..TokenStream..unwrap_stable$GT$$C$proc_macro2..rcvec..RcVecIntoIter$LT$proc_macro2..TokenTree$GT$$GT$$GT$17h5f1c546fe30576f9E:
	.long	-1
	.long	"?dtor$3@?0?_ZN4core3ptr547drop_in_place$LT$core..iter..adapters..flatten..FlattenCompat$LT$core..iter..adapters..map..Map$LT$core..iter..adapters..map..Map$LT$core..iter..sources..once..Once$LT$proc_macro2..TokenStream$GT$$C$$LT$proc_macro2..TokenStream$u20$as$u20$core..iter..traits..collect..Extend$LT$proc_macro2..TokenStream$GT$$GT$..extend$LT$core..iter..sources..once..Once$LT$proc_macro2..TokenStream$GT$$GT$..$u7b$$u7b$closure$u7d$$u7d$$GT$$C$proc_macro2..imp..TokenStream..unwrap_stable$GT$$C$proc_macro2..rcvec..RcVecIntoIter$LT$proc_macro2..TokenTree$GT$$GT$$GT$17h5f1c546fe30576f9E@4HA"@IMGREL
	.long	0
	.long	"?dtor$2@?0?_ZN4core3ptr547drop_in_place$LT$core..iter..adapters..flatten..FlattenCompat$LT$core..iter..adapters..map..Map$LT$core..iter..adapters..map..Map$LT$core..iter..sources..once..Once$LT$proc_macro2..TokenStream$GT$$C$$LT$proc_macro2..TokenStream$u20$as$u20$core..iter..traits..collect..Extend$LT$proc_macro2..TokenStream$GT$$GT$..extend$LT$core..iter..sources..once..Once$LT$proc_macro2..TokenStream$GT$$GT$..$u7b$$u7b$closure$u7d$$u7d$$GT$$C$proc_macro2..imp..TokenStream..unwrap_stable$GT$$C$proc_macro2..rcvec..RcVecIntoIter$LT$proc_macro2..TokenTree$GT$$GT$$GT$17h5f1c546fe30576f9E@4HA"@IMGREL
$ip2state$_ZN4core3ptr547drop_in_place$LT$core..iter..adapters..flatten..FlattenCompat$LT$core..iter..adapters..map..Map$LT$core..iter..adapters..map..Map$LT$core..iter..sources..once..Once$LT$proc_macro2..TokenStream$GT$$C$$LT$proc_macro2..TokenStream$u20$as$u20$core..iter..traits..collect..Extend$LT$proc_macro2..TokenStream$GT$$GT$..extend$LT$core..iter..sources..once..Once$LT$proc_macro2..TokenStream$GT$$GT$..$u7b$$u7b$closure$u7d$$u7d$$GT$$C$proc_macro2..imp..TokenStream..unwrap_stable$GT$$C$proc_macro2..rcvec..RcVecIntoIter$LT$proc_macro2..TokenTree$GT$$GT$$GT$17h5f1c546fe30576f9E:
	.long	.Lfunc_begin24@IMGREL
	.long	-1
	.long	.Ltmp50@IMGREL+1
	.long	1
	.long	.Ltmp52@IMGREL+1
	.long	0
	.long	.Ltmp53@IMGREL+1
	.long	-1
	.section	.text,"xr",one_only,_ZN4core3ptr547drop_in_place$LT$core..iter..adapters..flatten..FlattenCompat$LT$core..iter..adapters..map..Map$LT$core..iter..adapters..map..Map$LT$core..iter..sources..once..Once$LT$proc_macro2..TokenStream$GT$$C$$LT$proc_macro2..TokenStream$u20$as$u20$core..iter..traits..collect..Extend$LT$proc_macro2..TokenStream$GT$$GT$..extend$LT$core..iter..sources..once..Once$LT$proc_macro2..TokenStream$GT$$GT$..$u7b$$u7b$closure$u7d$$u7d$$GT$$C$proc_macro2..imp..TokenStream..unwrap_stable$GT$$C$proc_macro2..rcvec..RcVecIntoIter$LT$proc_macro2..TokenTree$GT$$GT$$GT$17h5f1c546fe30576f9E

	.def	_ZN4core3ptr69drop_in_place$LT$core..option..Item$LT$proc_macro2..TokenTree$GT$$GT$17h02b65ba0e2729156E;
	.scl	2;
	.type	32;
	.endef
	.section	.text,"xr",one_only,_ZN4core3ptr69drop_in_place$LT$core..option..Item$LT$proc_macro2..TokenTree$GT$$GT$17h02b65ba0e2729156E
	.globl	_ZN4core3ptr69drop_in_place$LT$core..option..Item$LT$proc_macro2..TokenTree$GT$$GT$17h02b65ba0e2729156E
	.p2align	4, 0x90
_ZN4core3ptr69drop_in_place$LT$core..option..Item$LT$proc_macro2..TokenTree$GT$$GT$17h02b65ba0e2729156E:
.Lfunc_begin25:
	.cv_func_id 25
	.cv_loc	25 2 188 0
.seh_proc _ZN4core3ptr69drop_in_place$LT$core..option..Item$LT$proc_macro2..TokenTree$GT$$GT$17h02b65ba0e2729156E
	subq	$40, %rsp
	.seh_stackalloc 40
	.seh_endprologue
	movq	%rcx, 32(%rsp)
.Ltmp56:
	callq	_ZN4core3ptr71drop_in_place$LT$core..option..Option$LT$proc_macro2..TokenTree$GT$$GT$17h5a59a07eb03064d6E
	nop
	addq	$40, %rsp
	retq
.Ltmp57:
.Lfunc_end25:
	.seh_endproc

	.def	_ZN4core3ptr71drop_in_place$LT$core..option..Item$LT$proc_macro2..TokenStream$GT$$GT$17ha8742f85f8351d25E;
	.scl	2;
	.type	32;
	.endef
	.section	.text,"xr",one_only,_ZN4core3ptr71drop_in_place$LT$core..option..Item$LT$proc_macro2..TokenStream$GT$$GT$17ha8742f85f8351d25E
	.globl	_ZN4core3ptr71drop_in_place$LT$core..option..Item$LT$proc_macro2..TokenStream$GT$$GT$17ha8742f85f8351d25E
	.p2align	4, 0x90
_ZN4core3ptr71drop_in_place$LT$core..option..Item$LT$proc_macro2..TokenStream$GT$$GT$17ha8742f85f8351d25E:
.Lfunc_begin26:
	.cv_func_id 26
	.cv_loc	26 2 188 0
.seh_proc _ZN4core3ptr71drop_in_place$LT$core..option..Item$LT$proc_macro2..TokenStream$GT$$GT$17ha8742f85f8351d25E
	subq	$40, %rsp
	.seh_stackalloc 40
	.seh_endprologue
	movq	%rcx, 32(%rsp)
.Ltmp58:
	callq	_ZN4core3ptr73drop_in_place$LT$core..option..Option$LT$proc_macro2..TokenStream$GT$$GT$17h17da48506068e027E
	nop
	addq	$40, %rsp
	retq
.Ltmp59:
.Lfunc_end26:
	.seh_endproc

	.def	_ZN4core3ptr73drop_in_place$LT$core..option..IntoIter$LT$proc_macro2..TokenTree$GT$$GT$17h23e2145e4bf42127E;
	.scl	2;
	.type	32;
	.endef
	.section	.text,"xr",one_only,_ZN4core3ptr73drop_in_place$LT$core..option..IntoIter$LT$proc_macro2..TokenTree$GT$$GT$17h23e2145e4bf42127E
	.globl	_ZN4core3ptr73drop_in_place$LT$core..option..IntoIter$LT$proc_macro2..TokenTree$GT$$GT$17h23e2145e4bf42127E
	.p2align	4, 0x90
_ZN4core3ptr73drop_in_place$LT$core..option..IntoIter$LT$proc_macro2..TokenTree$GT$$GT$17h23e2145e4bf42127E:
.Lfunc_begin27:
	.cv_func_id 27
	.cv_loc	27 2 188 0
.seh_proc _ZN4core3ptr73drop_in_place$LT$core..option..IntoIter$LT$proc_macro2..TokenTree$GT$$GT$17h23e2145e4bf42127E
	subq	$40, %rsp
	.seh_stackalloc 40
	.seh_endprologue
	movq	%rcx, 32(%rsp)
.Ltmp60:
	callq	_ZN4core3ptr69drop_in_place$LT$core..option..Item$LT$proc_macro2..TokenTree$GT$$GT$17h02b65ba0e2729156E
	nop
	addq	$40, %rsp
	retq
.Ltmp61:
.Lfunc_end27:
	.seh_endproc

	.def	_ZN4core3ptr73drop_in_place$LT$core..option..Option$LT$proc_macro2..TokenStream$GT$$GT$17h17da48506068e027E;
	.scl	2;
	.type	32;
	.endef
	.section	.text,"xr",one_only,_ZN4core3ptr73drop_in_place$LT$core..option..Option$LT$proc_macro2..TokenStream$GT$$GT$17h17da48506068e027E
	.globl	_ZN4core3ptr73drop_in_place$LT$core..option..Option$LT$proc_macro2..TokenStream$GT$$GT$17h17da48506068e027E
	.p2align	4, 0x90
_ZN4core3ptr73drop_in_place$LT$core..option..Option$LT$proc_macro2..TokenStream$GT$$GT$17h17da48506068e027E:
.Lfunc_begin28:
	.cv_func_id 28
	.cv_loc	28 2 188 0
.seh_proc _ZN4core3ptr73drop_in_place$LT$core..option..Option$LT$proc_macro2..TokenStream$GT$$GT$17h17da48506068e027E
	subq	$56, %rsp
	.seh_stackalloc 56
	.seh_endprologue
	movq	%rcx, 40(%rsp)
	movq	%rcx, 48(%rsp)
.Ltmp62:
	movq	(%rcx), %rdx
	subq	$2, %rdx
	movl	$1, %eax
	xorl	%ecx, %ecx
	cmpq	$0, %rdx
	cmoveq	%rcx, %rax
	cmpq	$0, %rax
	jne	.LBB28_2
.LBB28_1:
	addq	$56, %rsp
	retq
.LBB28_2:
	movq	40(%rsp), %rcx
	callq	_ZN4core3ptr45drop_in_place$LT$proc_macro2..TokenStream$GT$17he46d24a92abeec2fE
	jmp	.LBB28_1
.Ltmp63:
.Lfunc_end28:
	.seh_endproc

	.def	_ZN4core3ptr75drop_in_place$LT$core..option..IntoIter$LT$proc_macro2..TokenStream$GT$$GT$17h57e864a45d75a930E;
	.scl	2;
	.type	32;
	.endef
	.section	.text,"xr",one_only,_ZN4core3ptr75drop_in_place$LT$core..option..IntoIter$LT$proc_macro2..TokenStream$GT$$GT$17h57e864a45d75a930E
	.globl	_ZN4core3ptr75drop_in_place$LT$core..option..IntoIter$LT$proc_macro2..TokenStream$GT$$GT$17h57e864a45d75a930E
	.p2align	4, 0x90
_ZN4core3ptr75drop_in_place$LT$core..option..IntoIter$LT$proc_macro2..TokenStream$GT$$GT$17h57e864a45d75a930E:
.Lfunc_begin29:
	.cv_func_id 29
	.cv_loc	29 2 188 0
.seh_proc _ZN4core3ptr75drop_in_place$LT$core..option..IntoIter$LT$proc_macro2..TokenStream$GT$$GT$17h57e864a45d75a930E
	subq	$40, %rsp
	.seh_stackalloc 40
	.seh_endprologue
	movq	%rcx, 32(%rsp)
.Ltmp64:
	callq	_ZN4core3ptr71drop_in_place$LT$core..option..Item$LT$proc_macro2..TokenStream$GT$$GT$17ha8742f85f8351d25E
	nop
	addq	$40, %rsp
	retq
.Ltmp65:
.Lfunc_end29:
	.seh_endproc

	.def	_ZN4core3ptr82drop_in_place$LT$core..iter..sources..once..Once$LT$proc_macro2..TokenTree$GT$$GT$17h5ab5e1b443d2291dE;
	.scl	2;
	.type	32;
	.endef
	.section	.text,"xr",one_only,_ZN4core3ptr82drop_in_place$LT$core..iter..sources..once..Once$LT$proc_macro2..TokenTree$GT$$GT$17h5ab5e1b443d2291dE
	.globl	_ZN4core3ptr82drop_in_place$LT$core..iter..sources..once..Once$LT$proc_macro2..TokenTree$GT$$GT$17h5ab5e1b443d2291dE
	.p2align	4, 0x90
_ZN4core3ptr82drop_in_place$LT$core..iter..sources..once..Once$LT$proc_macro2..TokenTree$GT$$GT$17h5ab5e1b443d2291dE:
.Lfunc_begin30:
	.cv_func_id 30
	.cv_loc	30 2 188 0
.seh_proc _ZN4core3ptr82drop_in_place$LT$core..iter..sources..once..Once$LT$proc_macro2..TokenTree$GT$$GT$17h5ab5e1b443d2291dE
	subq	$40, %rsp
	.seh_stackalloc 40
	.seh_endprologue
	movq	%rcx, 32(%rsp)
.Ltmp66:
	callq	_ZN4core3ptr73drop_in_place$LT$core..option..IntoIter$LT$proc_macro2..TokenTree$GT$$GT$17h23e2145e4bf42127E
	nop
	addq	$40, %rsp
	retq
.Ltmp67:
.Lfunc_end30:
	.seh_endproc

	.def	_ZN4core3ptr84drop_in_place$LT$core..iter..sources..once..Once$LT$proc_macro2..TokenStream$GT$$GT$17h458876d61191c98eE;
	.scl	2;
	.type	32;
	.endef
	.section	.text,"xr",one_only,_ZN4core3ptr84drop_in_place$LT$core..iter..sources..once..Once$LT$proc_macro2..TokenStream$GT$$GT$17h458876d61191c98eE
	.globl	_ZN4core3ptr84drop_in_place$LT$core..iter..sources..once..Once$LT$proc_macro2..TokenStream$GT$$GT$17h458876d61191c98eE
	.p2align	4, 0x90
_ZN4core3ptr84drop_in_place$LT$core..iter..sources..once..Once$LT$proc_macro2..TokenStream$GT$$GT$17h458876d61191c98eE:
.Lfunc_begin31:
	.cv_func_id 31
	.cv_loc	31 2 188 0
.seh_proc _ZN4core3ptr84drop_in_place$LT$core..iter..sources..once..Once$LT$proc_macro2..TokenStream$GT$$GT$17h458876d61191c98eE
	subq	$40, %rsp
	.seh_stackalloc 40
	.seh_endprologue
	movq	%rcx, 32(%rsp)
.Ltmp68:
	callq	_ZN4core3ptr75drop_in_place$LT$core..option..IntoIter$LT$proc_macro2..TokenStream$GT$$GT$17h57e864a45d75a930E
	nop
	addq	$40, %rsp
	retq
.Ltmp69:
.Lfunc_end31:
	.seh_endproc

	.def	_ZN71_$LT$proc_macro2..TokenStream$u20$as$u20$quote..ext..TokenStreamExt$GT$6append17h3f6179bbcde990eeE;
	.scl	2;
	.type	32;
	.endef
	.section	.text,"xr",one_only,_ZN71_$LT$proc_macro2..TokenStream$u20$as$u20$quote..ext..TokenStreamExt$GT$6append17h3f6179bbcde990eeE
	.globl	_ZN71_$LT$proc_macro2..TokenStream$u20$as$u20$quote..ext..TokenStreamExt$GT$6append17h3f6179bbcde990eeE
	.p2align	4, 0x90
_ZN71_$LT$proc_macro2..TokenStream$u20$as$u20$quote..ext..TokenStreamExt$GT$6append17h3f6179bbcde990eeE:
.Lfunc_begin32:
	.cv_func_id 32
	.cv_file	3 "C:\\Users\\cires\\.cargo\\registry\\src\\github.com-1ecc6299db9ec823\\quote-1.0.33\\src\\ext.rs" "0F3C6A5DEF1869595528B9CFCDC56FBE38F51514" 2
	.cv_loc	32 3 60 0
.seh_proc _ZN71_$LT$proc_macro2..TokenStream$u20$as$u20$quote..ext..TokenStreamExt$GT$6append17h3f6179bbcde990eeE
	subq	$200, %rsp
	.seh_stackalloc 200
	.seh_endprologue
	movq	%rcx, 40(%rsp)
	movq	%rdx, 64(%rsp)
	movl	%r8d, %eax
	movl	%eax, 72(%rsp)
	movl	72(%rsp), %eax
	movl	%eax, 56(%rsp)
	movq	64(%rsp), %rax
	movq	%rax, 48(%rsp)
	movq	%rcx, 192(%rsp)
.Ltmp70:
	.cv_loc	32 3 64 0
	movl	56(%rsp), %eax
	movl	%eax, 184(%rsp)
	movq	48(%rsp), %rax
	movq	%rax, 176(%rsp)
	movl	184(%rsp), %eax
	movl	%eax, %r8d
	movq	176(%rsp), %rdx
	leaq	128(%rsp), %rcx
	callq	_ZN50_$LT$T$u20$as$u20$core..convert..Into$LT$U$GT$$GT$4into17hd39ce414628c864aE
	leaq	80(%rsp), %rcx
	leaq	128(%rsp), %rdx
	callq	_ZN4core4iter7sources4once4once17hf760f6786a19ec90E
	movq	40(%rsp), %rcx
	leaq	80(%rsp), %rdx
	callq	_ZN110_$LT$proc_macro2..TokenStream$u20$as$u20$core..iter..traits..collect..Extend$LT$proc_macro2..TokenTree$GT$$GT$6extend17hbd7973c6db148715E
	.cv_loc	32 3 65 0
	nop
	addq	$200, %rsp
	retq
.Ltmp71:
.Lfunc_end32:
	.seh_endproc

	.def	_ZN71_$LT$proc_macro2..TokenStream$u20$as$u20$quote..ext..TokenStreamExt$GT$6append17h426d3714184cd281E;
	.scl	2;
	.type	32;
	.endef
	.section	.text,"xr",one_only,_ZN71_$LT$proc_macro2..TokenStream$u20$as$u20$quote..ext..TokenStreamExt$GT$6append17h426d3714184cd281E
	.globl	_ZN71_$LT$proc_macro2..TokenStream$u20$as$u20$quote..ext..TokenStreamExt$GT$6append17h426d3714184cd281E
	.p2align	4, 0x90
_ZN71_$LT$proc_macro2..TokenStream$u20$as$u20$quote..ext..TokenStreamExt$GT$6append17h426d3714184cd281E:
.Lfunc_begin33:
	.cv_func_id 33
	.cv_loc	33 3 60 0
.seh_proc _ZN71_$LT$proc_macro2..TokenStream$u20$as$u20$quote..ext..TokenStreamExt$GT$6append17h426d3714184cd281E
	subq	$184, %rsp
	.seh_stackalloc 184
	.seh_endprologue
	movq	%rcx, 32(%rsp)
	movq	%rcx, 176(%rsp)
.Ltmp72:
	.cv_loc	33 3 64 0
	leaq	136(%rsp), %rcx
	movl	$40, %r8d
	callq	memcpy
.Ltmp73:
	leaq	88(%rsp), %rcx
	leaq	136(%rsp), %rdx
	callq	_ZN50_$LT$T$u20$as$u20$core..convert..Into$LT$U$GT$$GT$4into17ha90426af41ca1935E
.Ltmp74:
	leaq	40(%rsp), %rcx
	leaq	88(%rsp), %rdx
	callq	_ZN4core4iter7sources4once4once17hf760f6786a19ec90E
.Ltmp75:
	movq	32(%rsp), %rcx
	leaq	40(%rsp), %rdx
	callq	_ZN110_$LT$proc_macro2..TokenStream$u20$as$u20$core..iter..traits..collect..Extend$LT$proc_macro2..TokenTree$GT$$GT$6extend17hbd7973c6db148715E
.Ltmp76:
	.cv_loc	33 3 65 0
	nop
	addq	$184, %rsp
	retq
.Ltmp77:
.Lfunc_end33:
	.seh_endproc

	.def	_ZN71_$LT$proc_macro2..TokenStream$u20$as$u20$quote..ext..TokenStreamExt$GT$6append17h5292ad6d18cbd3d3E;
	.scl	2;
	.type	32;
	.endef
	.section	.text,"xr",one_only,_ZN71_$LT$proc_macro2..TokenStream$u20$as$u20$quote..ext..TokenStreamExt$GT$6append17h5292ad6d18cbd3d3E
	.globl	_ZN71_$LT$proc_macro2..TokenStream$u20$as$u20$quote..ext..TokenStreamExt$GT$6append17h5292ad6d18cbd3d3E
	.p2align	4, 0x90
_ZN71_$LT$proc_macro2..TokenStream$u20$as$u20$quote..ext..TokenStreamExt$GT$6append17h5292ad6d18cbd3d3E:
.Lfunc_begin34:
	.cv_func_id 34
	.cv_loc	34 3 60 0
.seh_proc _ZN71_$LT$proc_macro2..TokenStream$u20$as$u20$quote..ext..TokenStreamExt$GT$6append17h5292ad6d18cbd3d3E
	subq	$200, %rsp
	.seh_stackalloc 200
	.seh_endprologue
	movq	%rcx, 40(%rsp)
	movq	%rcx, 192(%rsp)
.Ltmp78:
	.cv_loc	34 3 64 0
	leaq	144(%rsp), %rcx
	movl	$48, %r8d
	callq	memcpy
.Ltmp79:
	leaq	96(%rsp), %rcx
	leaq	144(%rsp), %rdx
	callq	_ZN50_$LT$T$u20$as$u20$core..convert..Into$LT$U$GT$$GT$4into17h2149446c81df9acbE
.Ltmp80:
	leaq	48(%rsp), %rcx
	leaq	96(%rsp), %rdx
	callq	_ZN4core4iter7sources4once4once17hf760f6786a19ec90E
.Ltmp81:
	movq	40(%rsp), %rcx
	leaq	48(%rsp), %rdx
	callq	_ZN110_$LT$proc_macro2..TokenStream$u20$as$u20$core..iter..traits..collect..Extend$LT$proc_macro2..TokenTree$GT$$GT$6extend17hbd7973c6db148715E
.Ltmp82:
	.cv_loc	34 3 65 0
	nop
	addq	$200, %rsp
	retq
.Ltmp83:
.Lfunc_end34:
	.seh_endproc

	.def	_ZN71_$LT$proc_macro2..TokenStream$u20$as$u20$quote..ext..TokenStreamExt$GT$6append17ha6115d24951a5ebdE;
	.scl	2;
	.type	32;
	.endef
	.section	.text,"xr",one_only,_ZN71_$LT$proc_macro2..TokenStream$u20$as$u20$quote..ext..TokenStreamExt$GT$6append17ha6115d24951a5ebdE
	.globl	_ZN71_$LT$proc_macro2..TokenStream$u20$as$u20$quote..ext..TokenStreamExt$GT$6append17ha6115d24951a5ebdE
	.p2align	4, 0x90
_ZN71_$LT$proc_macro2..TokenStream$u20$as$u20$quote..ext..TokenStreamExt$GT$6append17ha6115d24951a5ebdE:
.Lfunc_begin35:
	.cv_func_id 35
	.cv_loc	35 3 60 0
.seh_proc _ZN71_$LT$proc_macro2..TokenStream$u20$as$u20$quote..ext..TokenStreamExt$GT$6append17ha6115d24951a5ebdE
	subq	$168, %rsp
	.seh_stackalloc 168
	.seh_endprologue
	movq	%rcx, 32(%rsp)
	movq	%rcx, 160(%rsp)
.Ltmp84:
	.cv_loc	35 3 64 0
	movq	(%rdx), %rax
	movq	%rax, 136(%rsp)
	movq	8(%rdx), %rax
	movq	%rax, 144(%rsp)
	movq	16(%rdx), %rax
	movq	%rax, 152(%rsp)
	leaq	88(%rsp), %rcx
	leaq	136(%rsp), %rdx
.Ltmp85:
	callq	_ZN50_$LT$T$u20$as$u20$core..convert..Into$LT$U$GT$$GT$4into17ha9e6cdc38d36e9a9E
.Ltmp86:
	leaq	40(%rsp), %rcx
	leaq	88(%rsp), %rdx
	callq	_ZN4core4iter7sources4once4once17hf760f6786a19ec90E
.Ltmp87:
	movq	32(%rsp), %rcx
	leaq	40(%rsp), %rdx
	callq	_ZN110_$LT$proc_macro2..TokenStream$u20$as$u20$core..iter..traits..collect..Extend$LT$proc_macro2..TokenTree$GT$$GT$6extend17hbd7973c6db148715E
.Ltmp88:
	.cv_loc	35 3 65 0
	nop
	addq	$168, %rsp
	retq
.Ltmp89:
.Lfunc_end35:
	.seh_endproc

	.def	_ZN71_$LT$proc_macro2..TokenStream$u20$as$u20$quote..ext..TokenStreamExt$GT$6append17hf855274c854e8325E;
	.scl	2;
	.type	32;
	.endef
	.section	.text,"xr",one_only,_ZN71_$LT$proc_macro2..TokenStream$u20$as$u20$quote..ext..TokenStreamExt$GT$6append17hf855274c854e8325E
	.globl	_ZN71_$LT$proc_macro2..TokenStream$u20$as$u20$quote..ext..TokenStreamExt$GT$6append17hf855274c854e8325E
	.p2align	4, 0x90
_ZN71_$LT$proc_macro2..TokenStream$u20$as$u20$quote..ext..TokenStreamExt$GT$6append17hf855274c854e8325E:
.Lfunc_begin36:
	.cv_func_id 36
	.cv_loc	36 3 60 0
.seh_proc _ZN71_$LT$proc_macro2..TokenStream$u20$as$u20$quote..ext..TokenStreamExt$GT$6append17hf855274c854e8325E
	subq	$184, %rsp
	.seh_stackalloc 184
	.seh_endprologue
	movq	%rcx, 40(%rsp)
	movq	%rcx, 176(%rsp)
.Ltmp90:
	.cv_loc	36 3 64 0
	movq	(%rdx), %rax
	movq	%rax, 144(%rsp)
	movq	8(%rdx), %rax
	movq	%rax, 152(%rsp)
	movq	16(%rdx), %rax
	movq	%rax, 160(%rsp)
	movq	24(%rdx), %rax
	movq	%rax, 168(%rsp)
	leaq	96(%rsp), %rcx
	leaq	144(%rsp), %rdx
.Ltmp91:
	callq	_ZN50_$LT$T$u20$as$u20$core..convert..Into$LT$U$GT$$GT$4into17h2055dd72c59d5aa2E
.Ltmp92:
	leaq	48(%rsp), %rcx
	leaq	96(%rsp), %rdx
	callq	_ZN4core4iter7sources4once4once17hf760f6786a19ec90E
.Ltmp93:
	movq	40(%rsp), %rcx
	leaq	48(%rsp), %rdx
	callq	_ZN110_$LT$proc_macro2..TokenStream$u20$as$u20$core..iter..traits..collect..Extend$LT$proc_macro2..TokenTree$GT$$GT$6extend17hbd7973c6db148715E
.Ltmp94:
	.cv_loc	36 3 65 0
	nop
	addq	$184, %rsp
	retq
.Ltmp95:
.Lfunc_end36:
	.seh_endproc

	.def	_ZN75_$LT$proc_macro2..Ident$u20$as$u20$quote..ident_fragment..IdentFragment$GT$4span17h3ea9b91019b2a6fbE;
	.scl	2;
	.type	32;
	.endef
	.section	.text,"xr",one_only,_ZN75_$LT$proc_macro2..Ident$u20$as$u20$quote..ident_fragment..IdentFragment$GT$4span17h3ea9b91019b2a6fbE
	.globl	_ZN75_$LT$proc_macro2..Ident$u20$as$u20$quote..ident_fragment..IdentFragment$GT$4span17h3ea9b91019b2a6fbE
	.p2align	4, 0x90
_ZN75_$LT$proc_macro2..Ident$u20$as$u20$quote..ident_fragment..IdentFragment$GT$4span17h3ea9b91019b2a6fbE:
.Lfunc_begin37:
	.cv_func_id 37
	.cv_file	4 "C:\\Users\\cires\\.cargo\\registry\\src\\github.com-1ecc6299db9ec823\\quote-1.0.33\\src\\ident_fragment.rs" "EC4ACDD7C216FC2FCCD54780474332811FB65774" 2
	.cv_loc	37 4 46 0
.seh_proc _ZN75_$LT$proc_macro2..Ident$u20$as$u20$quote..ident_fragment..IdentFragment$GT$4span17h3ea9b91019b2a6fbE
	subq	$72, %rsp
	.seh_stackalloc 72
	.seh_endprologue
	movq	%rcx, 56(%rsp)
.Ltmp96:
	.cv_loc	37 4 47 0
	callq	_ZN11proc_macro25Ident4span17hfe23ac79983c3d73E
	movl	%eax, 68(%rsp)
	movl	68(%rsp), %eax
	movl	%eax, 48(%rsp)
	movl	48(%rsp), %eax
	movl	%eax, 44(%rsp)
	movl	$1, 40(%rsp)
	.cv_loc	37 4 48 0
	movq	40(%rsp), %rax
	addq	$72, %rsp
	retq
.Ltmp97:
.Lfunc_end37:
	.seh_endproc

	.def	_ZN75_$LT$proc_macro2..Ident$u20$as$u20$quote..ident_fragment..IdentFragment$GT$3fmt17h79acafbe3585a47fE;
	.scl	2;
	.type	32;
	.endef
	.section	.text,"xr",one_only,_ZN75_$LT$proc_macro2..Ident$u20$as$u20$quote..ident_fragment..IdentFragment$GT$3fmt17h79acafbe3585a47fE
	.globl	_ZN75_$LT$proc_macro2..Ident$u20$as$u20$quote..ident_fragment..IdentFragment$GT$3fmt17h79acafbe3585a47fE
	.p2align	4, 0x90
_ZN75_$LT$proc_macro2..Ident$u20$as$u20$quote..ident_fragment..IdentFragment$GT$3fmt17h79acafbe3585a47fE:
.Lfunc_begin38:
	.cv_func_id 38
	.cv_loc	38 4 50 0
.seh_proc _ZN75_$LT$proc_macro2..Ident$u20$as$u20$quote..ident_fragment..IdentFragment$GT$3fmt17h79acafbe3585a47fE
	.seh_handler __CxxFrameHandler3, @unwind, @except
	pushq	%rbp
	.seh_pushreg %rbp
	subq	$208, %rsp
	.seh_stackalloc 208
	leaq	128(%rsp), %rbp
	.seh_setframe %rbp, 128
	.seh_endprologue
	movq	$-2, 72(%rbp)
	movq	%rdx, %rax
	movq	%rax, -40(%rbp)
	movq	%rcx, %rdx
	movq	%rdx, 40(%rbp)
	movq	%rax, 48(%rbp)
	movq	%rbp, %rcx
	movq	%rcx, -32(%rbp)
.Ltmp108:
	.cv_loc	38 4 51 0
	callq	_ZN45_$LT$T$u20$as$u20$alloc..string..ToString$GT$9to_string17hda78eef9690122bbE
	movq	-32(%rbp), %rcx
	.cv_loc	38 4 52 0
.Ltmp98:
.Ltmp109:
	callq	_ZN65_$LT$alloc..string..String$u20$as$u20$core..ops..deref..Deref$GT$5deref17h650ceebeca9cdd25E
.Ltmp99:
	movq	%rdx, -24(%rbp)
	movq	%rax, -16(%rbp)
	jmp	.LBB38_1
.LBB38_1:
.Ltmp100:
	movq	-24(%rbp), %rdx
	movq	-16(%rbp), %rcx
	leaq	__unnamed_1(%rip), %r8
	movl	$2, %r9d
	callq	_ZN4core3str21_$LT$impl$u20$str$GT$12strip_prefix17h33d471115b02f60bE
.Ltmp101:
	movq	%rdx, -56(%rbp)
	movq	%rax, -48(%rbp)
	jmp	.LBB38_3
.LBB38_3:
	movq	-56(%rbp), %rax
	movq	-48(%rbp), %rcx
	movq	%rcx, 24(%rbp)
	movq	%rax, 32(%rbp)
	movl	$1, %eax
	xorl	%ecx, %ecx
	cmpq	$0, 24(%rbp)
	cmoveq	%rcx, %rax
	cmpq	$1, %rax
	jne	.LBB38_5
	movq	-40(%rbp), %r8
	movq	24(%rbp), %rcx
	movq	32(%rbp), %rdx
	movq	%rcx, 56(%rbp)
	movq	%rdx, 64(%rbp)
	.cv_loc	38 4 53 0
.Ltmp106:
	callq	_ZN42_$LT$str$u20$as$u20$core..fmt..Display$GT$3fmt17hd878a59bdc0589eeE
.Ltmp107:
	movb	%al, -57(%rbp)
	jmp	.LBB38_9
.LBB38_5:
	.cv_loc	38 4 55 0
.Ltmp102:
	leaq	__unnamed_2(%rip), %rdx
	movq	%rbp, %rcx
	callq	_ZN100_$LT$alloc..string..String$u20$as$u20$core..ops..index..Index$LT$core..ops..range..RangeFull$GT$$GT$5index17h113e3352f2213da0E
.Ltmp103:
	movq	%rdx, -80(%rbp)
	movq	%rax, -72(%rbp)
	jmp	.LBB38_6
.LBB38_6:
.Ltmp104:
	movq	-40(%rbp), %r8
	movq	-80(%rbp), %rdx
	movq	-72(%rbp), %rcx
	callq	_ZN42_$LT$str$u20$as$u20$core..fmt..Display$GT$3fmt17hd878a59bdc0589eeE
.Ltmp105:
	movb	%al, -81(%rbp)
	jmp	.LBB38_7
.LBB38_7:
	movb	-81(%rbp), %al
	andb	$1, %al
	movb	%al, -1(%rbp)
.Ltmp110:
.LBB38_8:
	.cv_loc	38 4 57 0
	movq	%rbp, %rcx
	callq	_ZN4core3ptr42drop_in_place$LT$alloc..string..String$GT$17h0b08e2be0911ca99E
	movb	-1(%rbp), %al
	andb	$1, %al
	movzbl	%al, %eax
	addq	$208, %rsp
	popq	%rbp
	retq
.LBB38_9:
	.cv_loc	38 4 53 0
	movb	-57(%rbp), %al
.Ltmp111:
	andb	$1, %al
	movb	%al, -1(%rbp)
	jmp	.LBB38_8
.Ltmp112:
	.seh_handlerdata
	.long	($cppxdata$_ZN75_$LT$proc_macro2..Ident$u20$as$u20$quote..ident_fragment..IdentFragment$GT$3fmt17h79acafbe3585a47fE)@IMGREL
	.section	.text,"xr",one_only,_ZN75_$LT$proc_macro2..Ident$u20$as$u20$quote..ident_fragment..IdentFragment$GT$3fmt17h79acafbe3585a47fE
	.seh_endproc
	.def	"?dtor$2@?0?_ZN75_$LT$proc_macro2..Ident$u20$as$u20$quote..ident_fragment..IdentFragment$GT$3fmt17h79acafbe3585a47fE@4HA";
	.scl	3;
	.type	32;
	.endef
	.p2align	4, 0x90
"?dtor$2@?0?_ZN75_$LT$proc_macro2..Ident$u20$as$u20$quote..ident_fragment..IdentFragment$GT$3fmt17h79acafbe3585a47fE@4HA":
.seh_proc "?dtor$2@?0?_ZN75_$LT$proc_macro2..Ident$u20$as$u20$quote..ident_fragment..IdentFragment$GT$3fmt17h79acafbe3585a47fE@4HA"
.LBB38_2:
	movq	%rdx, 16(%rsp)
	pushq	%rbp
	.seh_pushreg %rbp
	subq	$32, %rsp
	.seh_stackalloc 32
	leaq	128(%rdx), %rbp
	.seh_endprologue
	movq	%rbp, %rcx
	.cv_loc	38 4 57 0
	callq	_ZN4core3ptr42drop_in_place$LT$alloc..string..String$GT$17h0b08e2be0911ca99E
	.cv_loc	38 4 50 0
	nop
	addq	$32, %rsp
	popq	%rbp
	retq
.Ltmp113:
.Lfunc_end38:
	.seh_handlerdata
	.section	.text,"xr",one_only,_ZN75_$LT$proc_macro2..Ident$u20$as$u20$quote..ident_fragment..IdentFragment$GT$3fmt17h79acafbe3585a47fE
	.seh_endproc
	.section	.xdata,"dr",associative,_ZN75_$LT$proc_macro2..Ident$u20$as$u20$quote..ident_fragment..IdentFragment$GT$3fmt17h79acafbe3585a47fE
	.p2align	2
$cppxdata$_ZN75_$LT$proc_macro2..Ident$u20$as$u20$quote..ident_fragment..IdentFragment$GT$3fmt17h79acafbe3585a47fE:
	.long	429065506
	.long	1
	.long	($stateUnwindMap$_ZN75_$LT$proc_macro2..Ident$u20$as$u20$quote..ident_fragment..IdentFragment$GT$3fmt17h79acafbe3585a47fE)@IMGREL
	.long	0
	.long	0
	.long	3
	.long	($ip2state$_ZN75_$LT$proc_macro2..Ident$u20$as$u20$quote..ident_fragment..IdentFragment$GT$3fmt17h79acafbe3585a47fE)@IMGREL
	.long	200
	.long	0
	.long	1
$stateUnwindMap$_ZN75_$LT$proc_macro2..Ident$u20$as$u20$quote..ident_fragment..IdentFragment$GT$3fmt17h79acafbe3585a47fE:
	.long	-1
	.long	"?dtor$2@?0?_ZN75_$LT$proc_macro2..Ident$u20$as$u20$quote..ident_fragment..IdentFragment$GT$3fmt17h79acafbe3585a47fE@4HA"@IMGREL
$ip2state$_ZN75_$LT$proc_macro2..Ident$u20$as$u20$quote..ident_fragment..IdentFragment$GT$3fmt17h79acafbe3585a47fE:
	.long	.Lfunc_begin38@IMGREL
	.long	-1
	.long	.Ltmp98@IMGREL+1
	.long	0
	.long	.Ltmp105@IMGREL+1
	.long	-1
	.section	.text,"xr",one_only,_ZN75_$LT$proc_macro2..Ident$u20$as$u20$quote..ident_fragment..IdentFragment$GT$3fmt17h79acafbe3585a47fE

	.def	_ZN5alloc7raw_vec19RawVec$LT$T$C$A$GT$16reserve_for_push17h453b6ea45e72bc28E;
	.scl	2;
	.type	32;
	.endef
	.section	.text,"xr",one_only,_ZN5alloc7raw_vec19RawVec$LT$T$C$A$GT$16reserve_for_push17h453b6ea45e72bc28E
	.globl	_ZN5alloc7raw_vec19RawVec$LT$T$C$A$GT$16reserve_for_push17h453b6ea45e72bc28E
	.p2align	4, 0x90
_ZN5alloc7raw_vec19RawVec$LT$T$C$A$GT$16reserve_for_push17h453b6ea45e72bc28E:
.Lfunc_begin39:
	.cv_func_id 39
	.cv_file	5 "/rustc/7737e0b5c4103216d6fd8cf941b7ab9bdbaace7c\\library\\alloc\\src\\raw_vec.rs" "90CE6258014E6E9B1005FEA6BBD4BC6D24605AB9" 2
	.cv_loc	39 5 299 0
.seh_proc _ZN5alloc7raw_vec19RawVec$LT$T$C$A$GT$16reserve_for_push17h453b6ea45e72bc28E
	subq	$72, %rsp
	.seh_stackalloc 72
	.seh_endprologue
	movq	%rdx, %r8
	movq	%rcx, %rdx
	movq	%rdx, 56(%rsp)
	movq	%r8, 64(%rsp)
.Ltmp114:
	.cv_loc	39 5 300 0
	leaq	32(%rsp), %rcx
	movl	$1, %r9d
	callq	_ZN5alloc7raw_vec19RawVec$LT$T$C$A$GT$14grow_amortized17hce6839aa3d673879E
	leaq	32(%rsp), %rcx
	callq	_ZN5alloc7raw_vec14handle_reserve17h6bfd18b1b8f8e687E
	.cv_loc	39 5 301 0
	nop
	addq	$72, %rsp
	retq
.Ltmp115:
.Lfunc_end39:
	.seh_endproc

	.def	_ZN5alloc7raw_vec19RawVec$LT$T$C$A$GT$15set_ptr_and_cap17h2cbccbb2b245d8f8E;
	.scl	2;
	.type	32;
	.endef
	.section	.text,"xr",one_only,_ZN5alloc7raw_vec19RawVec$LT$T$C$A$GT$15set_ptr_and_cap17h2cbccbb2b245d8f8E
	.globl	_ZN5alloc7raw_vec19RawVec$LT$T$C$A$GT$15set_ptr_and_cap17h2cbccbb2b245d8f8E
	.p2align	4, 0x90
_ZN5alloc7raw_vec19RawVec$LT$T$C$A$GT$15set_ptr_and_cap17h2cbccbb2b245d8f8E:
.Lfunc_begin40:
	.cv_func_id 40
	.cv_loc	40 5 366 0
.seh_proc _ZN5alloc7raw_vec19RawVec$LT$T$C$A$GT$15set_ptr_and_cap17h2cbccbb2b245d8f8E
	subq	$120, %rsp
	.seh_stackalloc 120
	.seh_endprologue
	movq	%r9, 48(%rsp)
	movq	%r8, 56(%rsp)
	movq	%rdx, %rax
	movq	56(%rsp), %rdx
	movq	%rax, 64(%rsp)
	movq	%rcx, %rax
	movq	64(%rsp), %rcx
	movq	%rax, 72(%rsp)
	movq	%rax, 88(%rsp)
	movq	%rcx, 96(%rsp)
	movq	%rdx, 104(%rsp)
	movq	%r9, 112(%rsp)
.Ltmp116:
	.cv_loc	40 5 370 0
	callq	_ZN4core3ptr8non_null16NonNull$LT$T$GT$4cast17h2156ced0fef5501dE
	movq	%rax, 80(%rsp)
	movq	80(%rsp), %rcx
	callq	_ZN4core3ptr8non_null16NonNull$LT$T$GT$6as_ptr17hbdbb1d3c82fc59d2E
	movq	%rax, 40(%rsp)
	movq	40(%rsp), %rcx
	callq	_ZN4core3ptr6unique15Unique$LT$T$GT$13new_unchecked17hcd21144ddaabe8bdE
	movq	%rax, 32(%rsp)
	movq	72(%rsp), %rax
	movq	48(%rsp), %rcx
	movq	32(%rsp), %rdx
	movq	%rdx, (%rax)
	.cv_loc	40 5 371 0
	movq	%rcx, 8(%rax)
	.cv_loc	40 5 372 0
	addq	$120, %rsp
	retq
.Ltmp117:
.Lfunc_end40:
	.seh_endproc

	.def	_ZN5alloc7raw_vec19RawVec$LT$T$C$A$GT$14grow_amortized17hce6839aa3d673879E;
	.scl	2;
	.type	32;
	.endef
	.section	.text,"xr",one_only,_ZN5alloc7raw_vec19RawVec$LT$T$C$A$GT$14grow_amortized17hce6839aa3d673879E
	.globl	_ZN5alloc7raw_vec19RawVec$LT$T$C$A$GT$14grow_amortized17hce6839aa3d673879E
	.p2align	4, 0x90
_ZN5alloc7raw_vec19RawVec$LT$T$C$A$GT$14grow_amortized17hce6839aa3d673879E:
.Lfunc_begin41:
	.cv_func_id 41
	.cv_loc	41 5 381 0
.seh_proc _ZN5alloc7raw_vec19RawVec$LT$T$C$A$GT$14grow_amortized17hce6839aa3d673879E
	subq	$440, %rsp
	.seh_stackalloc 440
	.seh_endprologue
	movq	%r9, 112(%rsp)
	movq	%r8, 120(%rsp)
	movq	%rdx, 128(%rsp)
	movq	%rcx, 136(%rsp)
	movq	%rcx, 144(%rsp)
	movq	%rdx, 304(%rsp)
	movq	%r8, 312(%rsp)
	movq	%r9, 320(%rsp)
.Ltmp118:
	.cv_loc	41 5 385 0
	movl	$8, %eax
	cmpq	$0, %rax
	jne	.LBB41_3
	.cv_loc	41 5 388 0
	movq	$0, 160(%rsp)
	movq	152(%rsp), %rcx
	movq	160(%rsp), %rdx
	callq	_ZN50_$LT$T$u20$as$u20$core..convert..Into$LT$U$GT$$GT$4into17hc9f2366eb7112b8fE
	movq	%rax, 96(%rsp)
	movq	%rdx, 104(%rsp)
	jmp	.LBB41_24
.LBB41_3:
	.cv_loc	41 5 392 0
	movq	112(%rsp), %rdx
	movq	120(%rsp), %rcx
	callq	_ZN4core3num23_$LT$impl$u20$usize$GT$11checked_add17h6320f78b71979ddbE
	movq	%rax, 80(%rsp)
	movq	%rdx, 88(%rsp)
	movq	88(%rsp), %r8
	movq	80(%rsp), %rdx
	movq	$0, 224(%rsp)
	movq	216(%rsp), %r9
	movq	224(%rsp), %rax
	leaq	192(%rsp), %rcx
	movq	%rax, 32(%rsp)
	callq	_ZN4core6option15Option$LT$T$GT$5ok_or17h6147e8003770efe2E
	leaq	168(%rsp), %rcx
	leaq	192(%rsp), %rdx
	callq	_ZN79_$LT$core..result..Result$LT$T$C$E$GT$$u20$as$u20$core..ops..try_trait..Try$GT$6branch17hb2799534fc23d718E
	movq	168(%rsp), %rax
	testq	%rax, %rax
	je	.LBB41_8
	jmp	.LBB41_25
.LBB41_25:
	jmp	.LBB41_9
	ud2
.LBB41_8:
	movq	128(%rsp), %rax
	movq	176(%rsp), %rdx
	movq	%rdx, 344(%rsp)
.Ltmp119:
	.cv_loc	41 5 392 0
	movq	%rdx, 352(%rsp)
.Ltmp120:
	.cv_loc	41 5 396 0
	movq	8(%rax), %rcx
	shlq	$1, %rcx
	callq	_ZN4core3cmp3max17hbacb92271446e605E
	movq	%rax, 72(%rsp)
	movq	%rax, 360(%rsp)
	jmp	.LBB41_12
.Ltmp121:
.LBB41_9:
	.cv_loc	41 5 392 0
	movq	136(%rsp), %rcx
	movq	176(%rsp), %rdx
	movq	184(%rsp), %r8
	movq	%rdx, 328(%rsp)
	movq	%r8, 336(%rsp)
.Ltmp122:
	.cv_loc	41 5 392 0
	leaq	__unnamed_3(%rip), %r9
	callq	_ZN153_$LT$core..result..Result$LT$T$C$F$GT$$u20$as$u20$core..ops..try_trait..FromResidual$LT$core..result..Result$LT$core..convert..Infallible$C$E$GT$$GT$$GT$13from_residual17h20869cdbd7c6fd29E
.Ltmp123:
	.cv_file	6 "C:\\Users\\cires\\.cargo\\registry\\src\\github.com-1ecc6299db9ec823\\quote-1.0.33\\src\\lib.rs" "BCB0282B14B9B4C14A04F0B12D8D42A11FA3A65B" 2
	.cv_loc	41 6 1 0
	jmp	.LBB41_11
.LBB41_11:
	jmp	.LBB41_22
.LBB41_12:
	.cv_loc	41 5 397 0
	movq	72(%rsp), %rdx
.Ltmp124:
	movl	$4, %ecx
	callq	_ZN4core3cmp3max17hbacb92271446e605E
	movq	%rax, 64(%rsp)
	movq	%rax, 368(%rsp)
	.cv_loc	41 5 399 0
	movq	64(%rsp), %rcx
.Ltmp125:
	callq	_ZN4core5alloc6layout6Layout5array17he127bbbf0c9f597cE
	movq	%rax, 48(%rsp)
	movq	%rdx, 56(%rsp)
	movq	%rax, 376(%rsp)
	movq	%rdx, 384(%rsp)
	.cv_loc	41 5 402 0
	movq	128(%rsp), %rdx
.Ltmp126:
	leaq	280(%rsp), %rcx
	callq	_ZN5alloc7raw_vec19RawVec$LT$T$C$A$GT$14current_memory17hfee2df3d3e7a203aE
	movq	56(%rsp), %r8
	movq	48(%rsp), %rdx
	movq	128(%rsp), %rax
	leaq	256(%rsp), %rcx
	leaq	280(%rsp), %r9
	movq	%rax, 32(%rsp)
	callq	_ZN5alloc7raw_vec11finish_grow17ha22d8a8df40c4386E
	leaq	232(%rsp), %rcx
	leaq	256(%rsp), %rdx
	callq	_ZN79_$LT$core..result..Result$LT$T$C$E$GT$$u20$as$u20$core..ops..try_trait..Try$GT$6branch17h71a80620dffb9689E
	movq	232(%rsp), %rax
	testq	%rax, %rax
	je	.LBB41_19
	jmp	.LBB41_26
.LBB41_26:
	jmp	.LBB41_20
	ud2
.LBB41_19:
	movq	64(%rsp), %r9
	movq	128(%rsp), %rcx
	movq	240(%rsp), %rdx
	movq	248(%rsp), %r8
	movq	%rdx, 408(%rsp)
	movq	%r8, 416(%rsp)
.Ltmp127:
	.cv_loc	41 5 402 0
	movq	%rdx, 424(%rsp)
	movq	%r8, 432(%rsp)
.Ltmp128:
	.cv_loc	41 5 403 0
	callq	_ZN5alloc7raw_vec19RawVec$LT$T$C$A$GT$15set_ptr_and_cap17h2cbccbb2b245d8f8E
	jmp	.LBB41_23
.Ltmp129:
.LBB41_20:
	.cv_loc	41 5 402 0
	movq	136(%rsp), %rcx
	movq	240(%rsp), %rdx
	movq	248(%rsp), %r8
	movq	%rdx, 392(%rsp)
	movq	%r8, 400(%rsp)
.Ltmp130:
	.cv_loc	41 5 402 0
	leaq	__unnamed_4(%rip), %r9
	callq	_ZN153_$LT$core..result..Result$LT$T$C$F$GT$$u20$as$u20$core..ops..try_trait..FromResidual$LT$core..result..Result$LT$core..convert..Infallible$C$E$GT$$GT$$GT$13from_residual17h322f6fc366c32d3dE
.Ltmp131:
	.cv_loc	41 6 1 0
	jmp	.LBB41_11
.Ltmp132:
.LBB41_22:
	.cv_loc	41 5 405 0
	movq	144(%rsp), %rax
	addq	$440, %rsp
	retq
.LBB41_23:
	.cv_loc	41 5 404 0
	movq	136(%rsp), %rax
.Ltmp133:
	movq	$0, (%rax)
.Ltmp134:
	.cv_loc	41 5 405 0
	jmp	.LBB41_22
.LBB41_24:
	.cv_loc	41 5 388 0
	movq	136(%rsp), %rax
	movq	104(%rsp), %rcx
	movq	96(%rsp), %rdx
	movq	%rdx, 8(%rax)
	movq	%rcx, 16(%rax)
	movq	$1, (%rax)
	.cv_loc	41 6 1 0
	jmp	.LBB41_22
.Ltmp135:
.Lfunc_end41:
	.seh_endproc

	.def	_ZN5alloc7raw_vec14handle_reserve17h6bfd18b1b8f8e687E;
	.scl	3;
	.type	32;
	.endef
	.section	.text,"xr",one_only,_ZN5alloc7raw_vec14handle_reserve17h6bfd18b1b8f8e687E
	.p2align	4, 0x90
_ZN5alloc7raw_vec14handle_reserve17h6bfd18b1b8f8e687E:
.Lfunc_begin42:
	.cv_func_id 42
	.cv_loc	42 5 487 0
.seh_proc _ZN5alloc7raw_vec14handle_reserve17h6bfd18b1b8f8e687E
	subq	$104, %rsp
	.seh_stackalloc 104
	.seh_endprologue
.Ltmp136:
	.cv_loc	42 5 488 0
	movq	(%rcx), %rax
	movq	%rax, 64(%rsp)
	movq	8(%rcx), %rax
	movq	%rax, 72(%rsp)
	movq	16(%rcx), %rax
	movq	%rax, 80(%rsp)
	leaq	40(%rsp), %rcx
.Ltmp137:
	leaq	64(%rsp), %rdx
	callq	_ZN4core6result19Result$LT$T$C$E$GT$7map_err17h717c2c1ca73699d5E
.Ltmp138:
	movq	40(%rsp), %rax
	testq	%rax, %rax
	je	.LBB42_3
	jmp	.LBB42_7
.Ltmp139:
.LBB42_7:
	jmp	.LBB42_4
.Ltmp140:
	ud2
.LBB42_3:
.Ltmp141:
	.cv_loc	42 5 493 0
	addq	$104, %rsp
	retq
.Ltmp142:
.LBB42_4:
	.cv_loc	42 5 488 0
	movq	56(%rsp), %rax
	testq	%rax, %rax
	setne	%al
	movzbl	%al, %eax
	je	.LBB42_5
	jmp	.LBB42_8
.Ltmp143:
.LBB42_8:
	jmp	.LBB42_6
.Ltmp144:
.LBB42_5:
	.cv_loc	42 5 489 0
	callq	_ZN5alloc7raw_vec17capacity_overflow17h89c9d90da9ffd227E
	ud2
.Ltmp145:
.LBB42_6:
	.cv_loc	42 5 490 0
	movq	48(%rsp), %rcx
	movq	56(%rsp), %rdx
	movq	%rcx, 88(%rsp)
	movq	%rdx, 96(%rsp)
.Ltmp146:
	.cv_loc	42 5 490 0
	callq	_ZN5alloc5alloc18handle_alloc_error17h036ca7f0d333c816E
	ud2
.Ltmp147:
.Lfunc_end42:
	.seh_endproc

	.def	_ZN50_$LT$str$u20$as$u20$quote..to_tokens..ToTokens$GT$9to_tokens17hab5b8b69d4c9fa2cE;
	.scl	2;
	.type	32;
	.endef
	.section	.text,"xr",one_only,_ZN50_$LT$str$u20$as$u20$quote..to_tokens..ToTokens$GT$9to_tokens17hab5b8b69d4c9fa2cE
	.globl	_ZN50_$LT$str$u20$as$u20$quote..to_tokens..ToTokens$GT$9to_tokens17hab5b8b69d4c9fa2cE
	.p2align	4, 0x90
_ZN50_$LT$str$u20$as$u20$quote..to_tokens..ToTokens$GT$9to_tokens17hab5b8b69d4c9fa2cE:
.Lfunc_begin43:
	.cv_func_id 43
	.cv_file	7 "C:\\Users\\cires\\.cargo\\registry\\src\\github.com-1ecc6299db9ec823\\quote-1.0.33\\src\\to_tokens.rs" "BC33072A8969BE623E790008999188A65423E756" 2
	.cv_loc	43 7 116 0
.seh_proc _ZN50_$LT$str$u20$as$u20$quote..to_tokens..ToTokens$GT$9to_tokens17hab5b8b69d4c9fa2cE
	subq	$104, %rsp
	.seh_stackalloc 104
	.seh_endprologue
	movq	%r8, %rax
	movq	%rax, 40(%rsp)
	movq	%rdx, %r8
	movq	%rcx, %rdx
	movq	%rdx, 80(%rsp)
	movq	%r8, 88(%rsp)
	movq	%rax, 96(%rsp)
.Ltmp148:
	.cv_loc	43 7 117 0
	leaq	48(%rsp), %rcx
	callq	_ZN11proc_macro27Literal6string17h995d4ab254d37a13E
	movq	40(%rsp), %rcx
	leaq	48(%rsp), %rdx
	callq	_ZN71_$LT$proc_macro2..TokenStream$u20$as$u20$quote..ext..TokenStreamExt$GT$6append17hf855274c854e8325E
	.cv_loc	43 7 118 0
	nop
	addq	$104, %rsp
	retq
.Ltmp149:
.Lfunc_end43:
	.seh_endproc

	.def	_ZN68_$LT$alloc..string..String$u20$as$u20$quote..to_tokens..ToTokens$GT$9to_tokens17hde5714a3a62ba01eE;
	.scl	2;
	.type	32;
	.endef
	.section	.text,"xr",one_only,_ZN68_$LT$alloc..string..String$u20$as$u20$quote..to_tokens..ToTokens$GT$9to_tokens17hde5714a3a62ba01eE
	.globl	_ZN68_$LT$alloc..string..String$u20$as$u20$quote..to_tokens..ToTokens$GT$9to_tokens17hde5714a3a62ba01eE
	.p2align	4, 0x90
_ZN68_$LT$alloc..string..String$u20$as$u20$quote..to_tokens..ToTokens$GT$9to_tokens17hde5714a3a62ba01eE:
.Lfunc_begin44:
	.cv_func_id 44
	.cv_loc	44 7 122 0
.seh_proc _ZN68_$LT$alloc..string..String$u20$as$u20$quote..to_tokens..ToTokens$GT$9to_tokens17hde5714a3a62ba01eE
	subq	$72, %rsp
	.seh_stackalloc 72
	.seh_endprologue
	movq	%rdx, 32(%rsp)
	movq	%rcx, 56(%rsp)
	movq	%rdx, 64(%rsp)
.Ltmp150:
	.cv_loc	44 7 123 0
	callq	_ZN5alloc6string6String6as_str17hcb13b3e911a70a4cE
	movq	%rax, 40(%rsp)
	movq	%rdx, 48(%rsp)
	movq	32(%rsp), %r8
	movq	48(%rsp), %rdx
	movq	40(%rsp), %rcx
	callq	_ZN50_$LT$str$u20$as$u20$quote..to_tokens..ToTokens$GT$9to_tokens17hab5b8b69d4c9fa2cE
	.cv_loc	44 7 124 0
	nop
	addq	$72, %rsp
	retq
.Ltmp151:
.Lfunc_end44:
	.seh_endproc

	.def	_ZN51_$LT$char$u20$as$u20$quote..to_tokens..ToTokens$GT$9to_tokens17hd3c402c2c4b934a8E;
	.scl	2;
	.type	32;
	.endef
	.section	.text,"xr",one_only,_ZN51_$LT$char$u20$as$u20$quote..to_tokens..ToTokens$GT$9to_tokens17hd3c402c2c4b934a8E
	.globl	_ZN51_$LT$char$u20$as$u20$quote..to_tokens..ToTokens$GT$9to_tokens17hd3c402c2c4b934a8E
	.p2align	4, 0x90
_ZN51_$LT$char$u20$as$u20$quote..to_tokens..ToTokens$GT$9to_tokens17hd3c402c2c4b934a8E:
.Lfunc_begin45:
	.cv_func_id 45
	.cv_loc	45 7 159 0
.seh_proc _ZN51_$LT$char$u20$as$u20$quote..to_tokens..ToTokens$GT$9to_tokens17hd3c402c2c4b934a8E
	subq	$88, %rsp
	.seh_stackalloc 88
	.seh_endprologue
	movq	%rdx, 32(%rsp)
	movq	%rcx, 72(%rsp)
	movq	%rdx, 80(%rsp)
.Ltmp152:
	.cv_loc	45 7 160 0
	movl	(%rcx), %edx
	leaq	40(%rsp), %rcx
	callq	_ZN11proc_macro27Literal9character17h6f673eeb1a03b30fE
	movq	32(%rsp), %rcx
	leaq	40(%rsp), %rdx
	callq	_ZN71_$LT$proc_macro2..TokenStream$u20$as$u20$quote..ext..TokenStreamExt$GT$6append17hf855274c854e8325E
	.cv_loc	45 7 161 0
	nop
	addq	$88, %rsp
	retq
.Ltmp153:
.Lfunc_end45:
	.seh_endproc

	.def	_ZN51_$LT$bool$u20$as$u20$quote..to_tokens..ToTokens$GT$9to_tokens17hade0da23621bd5a0E;
	.scl	2;
	.type	32;
	.endef
	.section	.text,"xr",one_only,_ZN51_$LT$bool$u20$as$u20$quote..to_tokens..ToTokens$GT$9to_tokens17hade0da23621bd5a0E
	.globl	_ZN51_$LT$bool$u20$as$u20$quote..to_tokens..ToTokens$GT$9to_tokens17hade0da23621bd5a0E
	.p2align	4, 0x90
_ZN51_$LT$bool$u20$as$u20$quote..to_tokens..ToTokens$GT$9to_tokens17hade0da23621bd5a0E:
.Lfunc_begin46:
	.cv_func_id 46
	.cv_loc	46 7 165 0
.seh_proc _ZN51_$LT$bool$u20$as$u20$quote..to_tokens..ToTokens$GT$9to_tokens17hade0da23621bd5a0E
	subq	$152, %rsp
	.seh_stackalloc 152
	.seh_endprologue
	movq	%rdx, 56(%rsp)
	movq	%rcx, 128(%rsp)
	movq	%rdx, 136(%rsp)
.Ltmp154:
	.cv_loc	46 7 166 0
	testb	$1, (%rcx)
	jne	.LBB46_2
	leaq	__unnamed_5(%rip), %rax
	movq	%rax, 64(%rsp)
	movq	$5, 72(%rsp)
	jmp	.LBB46_3
.LBB46_2:
	leaq	__unnamed_6(%rip), %rax
	movq	%rax, 64(%rsp)
	movq	$4, 72(%rsp)
.LBB46_3:
.Ltmp155:
	.cv_loc	46 7 167 0
	movq	64(%rsp), %rax
	movq	%rax, 40(%rsp)
	movq	72(%rsp), %rax
	movq	%rax, 48(%rsp)
	callq	_ZN11proc_macro24Span9call_site17he457d245e969b90cE
	movl	%eax, 148(%rsp)
	movl	148(%rsp), %eax
	movl	%eax, 120(%rsp)
	movq	48(%rsp), %r8
	movq	40(%rsp), %rdx
	movl	120(%rsp), %r9d
	leaq	80(%rsp), %rcx
	leaq	__unnamed_7(%rip), %rax
	movq	%rax, 32(%rsp)
	callq	_ZN11proc_macro25Ident3new17h87ab7a25bade3417E
	movq	56(%rsp), %rcx
	leaq	80(%rsp), %rdx
	callq	_ZN71_$LT$proc_macro2..TokenStream$u20$as$u20$quote..ext..TokenStreamExt$GT$6append17h426d3714184cd281E
.Ltmp156:
	.cv_loc	46 7 168 0
	nop
	addq	$152, %rsp
	retq
.Ltmp157:
.Lfunc_end46:
	.seh_endproc

	.def	_ZN5alloc5alloc5alloc17h43f8188b7bab880fE;
	.scl	3;
	.type	32;
	.endef
	.section	.text,"xr",one_only,_ZN5alloc5alloc5alloc17h43f8188b7bab880fE
	.p2align	4, 0x90
_ZN5alloc5alloc5alloc17h43f8188b7bab880fE:
.Lfunc_begin47:
	.cv_func_id 47
	.cv_file	8 "/rustc/7737e0b5c4103216d6fd8cf941b7ab9bdbaace7c\\library\\alloc\\src\\alloc.rs" "B7157806B533F68E3BD3407E0C9EF648E1799A6E" 2
	.cv_loc	47 8 86 0
.seh_proc _ZN5alloc5alloc5alloc17h43f8188b7bab880fE
	subq	$72, %rsp
	.seh_stackalloc 72
	.seh_endprologue
	movq	%rcx, 56(%rsp)
	movq	%rdx, 64(%rsp)
.Ltmp158:
	.cv_loc	47 8 87 0
	leaq	56(%rsp), %rcx
	callq	_ZN4core5alloc6layout6Layout4size17h6ecda62d884ecf9bE
	movq	%rax, 48(%rsp)
	leaq	56(%rsp), %rcx
	callq	_ZN4core5alloc6layout6Layout5align17h83753c38b840174aE
	movq	%rax, 40(%rsp)
	movq	40(%rsp), %rdx
	movq	48(%rsp), %rcx
	callq	__rust_alloc
	movq	%rax, 32(%rsp)
	.cv_loc	47 8 88 0
	movq	32(%rsp), %rax
	addq	$72, %rsp
	retq
.Ltmp159:
.Lfunc_end47:
	.seh_endproc

	.def	_ZN5alloc5alloc7dealloc17hbcfa85dba4232bf7E;
	.scl	3;
	.type	32;
	.endef
	.section	.text,"xr",one_only,_ZN5alloc5alloc7dealloc17hbcfa85dba4232bf7E
	.p2align	4, 0x90
_ZN5alloc5alloc7dealloc17hbcfa85dba4232bf7E:
.Lfunc_begin48:
	.cv_func_id 48
	.cv_loc	48 8 104 0
.seh_proc _ZN5alloc5alloc7dealloc17hbcfa85dba4232bf7E
	subq	$88, %rsp
	.seh_stackalloc 88
	.seh_endprologue
	movq	%rcx, 48(%rsp)
	movq	%rdx, 64(%rsp)
	movq	%r8, 72(%rsp)
	movq	%rcx, 80(%rsp)
.Ltmp160:
	.cv_loc	48 8 105 0
	leaq	64(%rsp), %rcx
	callq	_ZN4core5alloc6layout6Layout4size17h6ecda62d884ecf9bE
	movq	%rax, 56(%rsp)
	leaq	64(%rsp), %rcx
	callq	_ZN4core5alloc6layout6Layout5align17h83753c38b840174aE
	movq	%rax, 40(%rsp)
	movq	40(%rsp), %r8
	movq	56(%rsp), %rdx
	movq	48(%rsp), %rcx
	callq	__rust_dealloc
	.cv_loc	48 8 106 0
	nop
	addq	$88, %rsp
	retq
.Ltmp161:
.Lfunc_end48:
	.seh_endproc

	.def	_ZN65_$LT$proc_macro2..Group$u20$as$u20$quote..to_tokens..ToTokens$GT$9to_tokens17h0037e1adb888b07aE;
	.scl	2;
	.type	32;
	.endef
	.section	.text,"xr",one_only,_ZN65_$LT$proc_macro2..Group$u20$as$u20$quote..to_tokens..ToTokens$GT$9to_tokens17h0037e1adb888b07aE
	.globl	_ZN65_$LT$proc_macro2..Group$u20$as$u20$quote..to_tokens..ToTokens$GT$9to_tokens17h0037e1adb888b07aE
	.p2align	4, 0x90
_ZN65_$LT$proc_macro2..Group$u20$as$u20$quote..to_tokens..ToTokens$GT$9to_tokens17h0037e1adb888b07aE:
.Lfunc_begin49:
	.cv_func_id 49
	.cv_loc	49 7 172 0
.seh_proc _ZN65_$LT$proc_macro2..Group$u20$as$u20$quote..to_tokens..ToTokens$GT$9to_tokens17h0037e1adb888b07aE
	subq	$88, %rsp
	.seh_stackalloc 88
	.seh_endprologue
	movq	%rdx, %rax
	movq	%rax, 40(%rsp)
	movq	%rcx, %rdx
	movq	%rdx, 72(%rsp)
	movq	%rax, 80(%rsp)
.Ltmp162:
	.cv_loc	49 7 173 0
	leaq	48(%rsp), %rcx
	callq	_ZN57_$LT$proc_macro2..Group$u20$as$u20$core..clone..Clone$GT$5clone17h2d9172193b5c24bdE
	movq	40(%rsp), %rcx
	leaq	48(%rsp), %rdx
	callq	_ZN71_$LT$proc_macro2..TokenStream$u20$as$u20$quote..ext..TokenStreamExt$GT$6append17ha6115d24951a5ebdE
	.cv_loc	49 7 174 0
	nop
	addq	$88, %rsp
	retq
.Ltmp163:
.Lfunc_end49:
	.seh_endproc

	.def	_ZN5alloc5alloc12alloc_zeroed17h9992c9ed7d7f19e7E;
	.scl	3;
	.type	32;
	.endef
	.section	.text,"xr",one_only,_ZN5alloc5alloc12alloc_zeroed17h9992c9ed7d7f19e7E
	.p2align	4, 0x90
_ZN5alloc5alloc12alloc_zeroed17h9992c9ed7d7f19e7E:
.Lfunc_begin50:
	.cv_func_id 50
	.cv_loc	50 8 157 0
.seh_proc _ZN5alloc5alloc12alloc_zeroed17h9992c9ed7d7f19e7E
	subq	$72, %rsp
	.seh_stackalloc 72
	.seh_endprologue
	movq	%rcx, 56(%rsp)
	movq	%rdx, 64(%rsp)
.Ltmp164:
	.cv_loc	50 8 158 0
	leaq	56(%rsp), %rcx
	callq	_ZN4core5alloc6layout6Layout4size17h6ecda62d884ecf9bE
	movq	%rax, 48(%rsp)
	leaq	56(%rsp), %rcx
	callq	_ZN4core5alloc6layout6Layout5align17h83753c38b840174aE
	movq	%rax, 40(%rsp)
	movq	40(%rsp), %rdx
	movq	48(%rsp), %rcx
	callq	__rust_alloc_zeroed
	movq	%rax, 32(%rsp)
	.cv_loc	50 8 159 0
	movq	32(%rsp), %rax
	addq	$72, %rsp
	retq
.Ltmp165:
.Lfunc_end50:
	.seh_endproc

	.def	_ZN65_$LT$proc_macro2..Ident$u20$as$u20$quote..to_tokens..ToTokens$GT$9to_tokens17h0ad4c82a51bb78dfE;
	.scl	2;
	.type	32;
	.endef
	.section	.text,"xr",one_only,_ZN65_$LT$proc_macro2..Ident$u20$as$u20$quote..to_tokens..ToTokens$GT$9to_tokens17h0ad4c82a51bb78dfE
	.globl	_ZN65_$LT$proc_macro2..Ident$u20$as$u20$quote..to_tokens..ToTokens$GT$9to_tokens17h0ad4c82a51bb78dfE
	.p2align	4, 0x90
_ZN65_$LT$proc_macro2..Ident$u20$as$u20$quote..to_tokens..ToTokens$GT$9to_tokens17h0ad4c82a51bb78dfE:
.Lfunc_begin51:
	.cv_func_id 51
	.cv_loc	51 7 178 0
.seh_proc _ZN65_$LT$proc_macro2..Ident$u20$as$u20$quote..to_tokens..ToTokens$GT$9to_tokens17h0ad4c82a51bb78dfE
	subq	$104, %rsp
	.seh_stackalloc 104
	.seh_endprologue
	movq	%rdx, %rax
	movq	%rax, 40(%rsp)
	movq	%rcx, %rdx
	movq	%rdx, 88(%rsp)
	movq	%rax, 96(%rsp)
.Ltmp166:
	.cv_loc	51 7 179 0
	leaq	48(%rsp), %rcx
	callq	_ZN57_$LT$proc_macro2..Ident$u20$as$u20$core..clone..Clone$GT$5clone17hfe5ec195e6240e62E
	movq	40(%rsp), %rcx
	leaq	48(%rsp), %rdx
	callq	_ZN71_$LT$proc_macro2..TokenStream$u20$as$u20$quote..ext..TokenStreamExt$GT$6append17h426d3714184cd281E
	.cv_loc	51 7 180 0
	nop
	addq	$104, %rsp
	retq
.Ltmp167:
.Lfunc_end51:
	.seh_endproc

	.def	_ZN5alloc5alloc6Global10alloc_impl17h4275f862571470ecE;
	.scl	3;
	.type	32;
	.endef
	.section	.text,"xr",one_only,_ZN5alloc5alloc6Global10alloc_impl17h4275f862571470ecE
	.p2align	4, 0x90
_ZN5alloc5alloc6Global10alloc_impl17h4275f862571470ecE:
.Lfunc_begin52:
	.cv_func_id 52
	.cv_loc	52 8 164 0
.seh_proc _ZN5alloc5alloc6Global10alloc_impl17h4275f862571470ecE
	subq	$200, %rsp
	.seh_stackalloc 200
	.seh_endprologue
	movb	%r9b, 95(%rsp)
	movq	%rdx, 104(%rsp)
	movq	%r8, 112(%rsp)
	movq	%rcx, 152(%rsp)
	andb	$1, %r9b
	movb	%r9b, 167(%rsp)
.Ltmp168:
	.cv_loc	52 8 165 0
	leaq	104(%rsp), %rcx
	callq	_ZN4core5alloc6layout6Layout4size17h6ecda62d884ecf9bE
	movq	%rax, 96(%rsp)
	movq	96(%rsp), %rax
	cmpq	$0, %rax
	jne	.LBB52_3
	.cv_loc	52 8 166 0
	leaq	104(%rsp), %rcx
	callq	_ZN4core5alloc6layout6Layout8dangling17he64b52c5c30df742E
	movq	%rax, 80(%rsp)
	jmp	.LBB52_19
.LBB52_3:
	.cv_loc	52 8 168 0
	movb	95(%rsp), %al
	movq	96(%rsp), %rcx
	movq	%rcx, 176(%rsp)
.Ltmp169:
	.cv_loc	52 8 169 0
	testb	$1, %al
	jne	.LBB52_5
	movq	104(%rsp), %rcx
	movq	112(%rsp), %rdx
	callq	_ZN5alloc5alloc5alloc17h43f8188b7bab880fE
	movq	%rax, 136(%rsp)
	jmp	.LBB52_8
.LBB52_5:
	movq	104(%rsp), %rcx
	movq	112(%rsp), %rdx
	callq	_ZN5alloc5alloc12alloc_zeroed17h9992c9ed7d7f19e7E
	movq	%rax, 136(%rsp)
	jmp	.LBB52_7
.LBB52_7:
.Ltmp170:
	.cv_loc	52 8 170 0
	movq	136(%rsp), %rcx
	callq	_ZN4core3ptr8non_null16NonNull$LT$T$GT$3new17h62c0325cb90624f5E
	movq	%rax, 72(%rsp)
	jmp	.LBB52_9
.Ltmp171:
.LBB52_8:
	.cv_loc	52 8 169 0
	jmp	.LBB52_7
.LBB52_9:
	.cv_loc	52 8 170 0
	movq	72(%rsp), %rcx
.Ltmp172:
	callq	_ZN4core6option15Option$LT$T$GT$5ok_or17h4257e2142d13fed6E
	movq	%rax, 64(%rsp)
	movq	64(%rsp), %rcx
	callq	_ZN79_$LT$core..result..Result$LT$T$C$E$GT$$u20$as$u20$core..ops..try_trait..Try$GT$6branch17h74c210934757562dE
	movq	%rax, 144(%rsp)
	movq	144(%rsp), %rax
	testq	%rax, %rax
	sete	%al
	movzbl	%al, %eax
	jne	.LBB52_13
	jmp	.LBB52_21
.LBB52_21:
	jmp	.LBB52_14
	ud2
.LBB52_13:
	movq	96(%rsp), %rdx
	movq	144(%rsp), %rcx
	movq	%rcx, 184(%rsp)
.Ltmp173:
	.cv_loc	52 8 170 0
	movq	%rcx, 192(%rsp)
.Ltmp174:
	.cv_loc	52 8 171 0
	callq	_ZN4core3ptr8non_null26NonNull$LT$$u5b$T$u5d$$GT$20slice_from_raw_parts17h95bdd1bbc7d71a0dE
	movq	%rax, 48(%rsp)
	movq	%rdx, 56(%rsp)
	jmp	.LBB52_17
.Ltmp175:
.LBB52_14:
	.cv_loc	52 8 170 0
	leaq	__unnamed_8(%rip), %rcx
	callq	_ZN153_$LT$core..result..Result$LT$T$C$F$GT$$u20$as$u20$core..ops..try_trait..FromResidual$LT$core..result..Result$LT$core..convert..Infallible$C$E$GT$$GT$$GT$13from_residual17he85a5c28a7c5d881E
	movq	%rdx, 128(%rsp)
	movq	%rax, 120(%rsp)
.Ltmp176:
	.cv_loc	52 8 174 0
	jmp	.LBB52_16
.LBB52_16:
	movq	120(%rsp), %rax
	movq	128(%rsp), %rdx
	addq	$200, %rsp
	retq
.LBB52_17:
	.cv_loc	52 8 171 0
	movq	56(%rsp), %rax
	movq	48(%rsp), %rcx
.Ltmp177:
	movq	%rcx, 120(%rsp)
	movq	%rax, 128(%rsp)
.Ltmp178:
.LBB52_18:
	.cv_loc	52 8 174 0
	jmp	.LBB52_16
.LBB52_19:
	.cv_loc	52 8 166 0
	movq	80(%rsp), %rcx
	xorl	%eax, %eax
	movl	%eax, %edx
	callq	_ZN4core3ptr8non_null26NonNull$LT$$u5b$T$u5d$$GT$20slice_from_raw_parts17h95bdd1bbc7d71a0dE
	movq	%rax, 32(%rsp)
	movq	%rdx, 40(%rsp)
	movq	40(%rsp), %rax
	movq	32(%rsp), %rcx
	movq	%rcx, 120(%rsp)
	movq	%rax, 128(%rsp)
	jmp	.LBB52_18
.Ltmp179:
.Lfunc_end52:
	.seh_endproc

	.def	_ZN65_$LT$proc_macro2..Punct$u20$as$u20$quote..to_tokens..ToTokens$GT$9to_tokens17h12168b5fec8d3e09E;
	.scl	2;
	.type	32;
	.endef
	.section	.text,"xr",one_only,_ZN65_$LT$proc_macro2..Punct$u20$as$u20$quote..to_tokens..ToTokens$GT$9to_tokens17h12168b5fec8d3e09E
	.globl	_ZN65_$LT$proc_macro2..Punct$u20$as$u20$quote..to_tokens..ToTokens$GT$9to_tokens17h12168b5fec8d3e09E
	.p2align	4, 0x90
_ZN65_$LT$proc_macro2..Punct$u20$as$u20$quote..to_tokens..ToTokens$GT$9to_tokens17h12168b5fec8d3e09E:
.Lfunc_begin53:
	.cv_func_id 53
	.cv_loc	53 7 184 0
.seh_proc _ZN65_$LT$proc_macro2..Punct$u20$as$u20$quote..to_tokens..ToTokens$GT$9to_tokens17h12168b5fec8d3e09E
	subq	$88, %rsp
	.seh_stackalloc 88
	.seh_endprologue
	movq	%rdx, 32(%rsp)
	movq	%rcx, 56(%rsp)
	movq	%rdx, 64(%rsp)
.Ltmp180:
	.cv_loc	53 7 185 0
	callq	_ZN57_$LT$proc_macro2..Punct$u20$as$u20$core..clone..Clone$GT$5clone17hc128204f40f1a3f4E
	movq	%rax, 72(%rsp)
	movl	%edx, %eax
	movl	%eax, 80(%rsp)
	movq	72(%rsp), %rax
	movq	%rax, 40(%rsp)
	movl	80(%rsp), %eax
	movl	%eax, 48(%rsp)
	movq	32(%rsp), %rcx
	movl	48(%rsp), %eax
	movl	%eax, %r8d
	movq	40(%rsp), %rdx
	callq	_ZN71_$LT$proc_macro2..TokenStream$u20$as$u20$quote..ext..TokenStreamExt$GT$6append17h3f6179bbcde990eeE
	.cv_loc	53 7 186 0
	nop
	addq	$88, %rsp
	retq
.Ltmp181:
.Lfunc_end53:
	.seh_endproc

	.def	_ZN67_$LT$proc_macro2..Literal$u20$as$u20$quote..to_tokens..ToTokens$GT$9to_tokens17h2972d83a408f6bbcE;
	.scl	2;
	.type	32;
	.endef
	.section	.text,"xr",one_only,_ZN67_$LT$proc_macro2..Literal$u20$as$u20$quote..to_tokens..ToTokens$GT$9to_tokens17h2972d83a408f6bbcE
	.globl	_ZN67_$LT$proc_macro2..Literal$u20$as$u20$quote..to_tokens..ToTokens$GT$9to_tokens17h2972d83a408f6bbcE
	.p2align	4, 0x90
_ZN67_$LT$proc_macro2..Literal$u20$as$u20$quote..to_tokens..ToTokens$GT$9to_tokens17h2972d83a408f6bbcE:
.Lfunc_begin54:
	.cv_func_id 54
	.cv_loc	54 7 190 0
.seh_proc _ZN67_$LT$proc_macro2..Literal$u20$as$u20$quote..to_tokens..ToTokens$GT$9to_tokens17h2972d83a408f6bbcE
	subq	$88, %rsp
	.seh_stackalloc 88
	.seh_endprologue
	movq	%rdx, %rax
	movq	%rax, 32(%rsp)
	movq	%rcx, %rdx
	movq	%rdx, 72(%rsp)
	movq	%rax, 80(%rsp)
.Ltmp182:
	.cv_loc	54 7 191 0
	leaq	40(%rsp), %rcx
	callq	_ZN59_$LT$proc_macro2..Literal$u20$as$u20$core..clone..Clone$GT$5clone17h42991b512f069c5dE
	movq	32(%rsp), %rcx
	leaq	40(%rsp), %rdx
	callq	_ZN71_$LT$proc_macro2..TokenStream$u20$as$u20$quote..ext..TokenStreamExt$GT$6append17hf855274c854e8325E
	.cv_loc	54 7 192 0
	nop
	addq	$88, %rsp
	retq
.Ltmp183:
.Lfunc_end54:
	.seh_endproc

	.def	_ZN63_$LT$alloc..alloc..Global$u20$as$u20$core..alloc..Allocator$GT$8allocate17h311f65b3a8366fc4E;
	.scl	3;
	.type	32;
	.endef
	.section	.text,"xr",one_only,_ZN63_$LT$alloc..alloc..Global$u20$as$u20$core..alloc..Allocator$GT$8allocate17h311f65b3a8366fc4E
	.p2align	4, 0x90
_ZN63_$LT$alloc..alloc..Global$u20$as$u20$core..alloc..Allocator$GT$8allocate17h311f65b3a8366fc4E:
.Lfunc_begin55:
	.cv_func_id 55
	.cv_loc	55 8 228 0
.seh_proc _ZN63_$LT$alloc..alloc..Global$u20$as$u20$core..alloc..Allocator$GT$8allocate17h311f65b3a8366fc4E
	subq	$72, %rsp
	.seh_stackalloc 72
	.seh_endprologue
	movq	%rcx, 48(%rsp)
	movq	%rdx, 56(%rsp)
	movq	%r8, 64(%rsp)
.Ltmp184:
	.cv_loc	55 8 229 0
	xorl	%r9d, %r9d
	callq	_ZN5alloc5alloc6Global10alloc_impl17h4275f862571470ecE
	movq	%rax, 32(%rsp)
	movq	%rdx, 40(%rsp)
	.cv_loc	55 8 230 0
	movq	40(%rsp), %rdx
	movq	32(%rsp), %rax
	addq	$72, %rsp
	retq
.Ltmp185:
.Lfunc_end55:
	.seh_endproc

	.def	_ZN69_$LT$proc_macro2..TokenTree$u20$as$u20$quote..to_tokens..ToTokens$GT$9to_tokens17h477dcddef9ee0cf4E;
	.scl	2;
	.type	32;
	.endef
	.section	.text,"xr",one_only,_ZN69_$LT$proc_macro2..TokenTree$u20$as$u20$quote..to_tokens..ToTokens$GT$9to_tokens17h477dcddef9ee0cf4E
	.globl	_ZN69_$LT$proc_macro2..TokenTree$u20$as$u20$quote..to_tokens..ToTokens$GT$9to_tokens17h477dcddef9ee0cf4E
	.p2align	4, 0x90
_ZN69_$LT$proc_macro2..TokenTree$u20$as$u20$quote..to_tokens..ToTokens$GT$9to_tokens17h477dcddef9ee0cf4E:
.Lfunc_begin56:
	.cv_func_id 56
	.cv_loc	56 7 196 0
.seh_proc _ZN69_$LT$proc_macro2..TokenTree$u20$as$u20$quote..to_tokens..ToTokens$GT$9to_tokens17h477dcddef9ee0cf4E
	subq	$104, %rsp
	.seh_stackalloc 104
	.seh_endprologue
	movq	%rdx, %rax
	movq	%rax, 32(%rsp)
	movq	%rcx, %rdx
	movq	%rdx, 88(%rsp)
	movq	%rax, 96(%rsp)
.Ltmp186:
	.cv_loc	56 7 197 0
	leaq	40(%rsp), %rcx
	callq	_ZN61_$LT$proc_macro2..TokenTree$u20$as$u20$core..clone..Clone$GT$5clone17h8f67daa3f35a0067E
	movq	32(%rsp), %rcx
	leaq	40(%rsp), %rdx
	callq	_ZN71_$LT$proc_macro2..TokenStream$u20$as$u20$quote..ext..TokenStreamExt$GT$6append17h5292ad6d18cbd3d3E
	.cv_loc	56 7 198 0
	nop
	addq	$104, %rsp
	retq
.Ltmp187:
.Lfunc_end56:
	.seh_endproc

	.def	_ZN63_$LT$alloc..alloc..Global$u20$as$u20$core..alloc..Allocator$GT$10deallocate17ha82cc31e92b72b72E;
	.scl	3;
	.type	32;
	.endef
	.section	.text,"xr",one_only,_ZN63_$LT$alloc..alloc..Global$u20$as$u20$core..alloc..Allocator$GT$10deallocate17ha82cc31e92b72b72E
	.p2align	4, 0x90
_ZN63_$LT$alloc..alloc..Global$u20$as$u20$core..alloc..Allocator$GT$10deallocate17ha82cc31e92b72b72E:
.Lfunc_begin57:
	.cv_func_id 57
	.cv_loc	57 8 238 0
.seh_proc _ZN63_$LT$alloc..alloc..Global$u20$as$u20$core..alloc..Allocator$GT$10deallocate17ha82cc31e92b72b72E
	subq	$88, %rsp
	.seh_stackalloc 88
	.seh_endprologue
	movq	%rdx, 40(%rsp)
	movq	%r8, 56(%rsp)
	movq	%r9, 64(%rsp)
	movq	%rcx, 72(%rsp)
	movq	%rdx, 80(%rsp)
.Ltmp188:
	.cv_loc	57 8 239 0
	leaq	56(%rsp), %rcx
	callq	_ZN4core5alloc6layout6Layout4size17h6ecda62d884ecf9bE
	movq	%rax, 48(%rsp)
	movq	48(%rsp), %rax
	cmpq	$0, %rax
	jne	.LBB57_3
	jmp	.LBB57_6
.LBB57_3:
	.cv_loc	57 8 242 0
	movq	40(%rsp), %rcx
	callq	_ZN4core3ptr8non_null16NonNull$LT$T$GT$6as_ptr17h8ad32c3f6f5076d0E
	movq	%rax, 32(%rsp)
	movq	32(%rsp), %rcx
	movq	56(%rsp), %rdx
	movq	64(%rsp), %r8
	callq	_ZN5alloc5alloc7dealloc17hbcfa85dba4232bf7E
	.cv_loc	57 8 239 0
	jmp	.LBB57_6
.LBB57_6:
	.cv_loc	57 8 244 0
	addq	$88, %rsp
	retq
.Ltmp189:
.Lfunc_end57:
	.seh_endproc

	.def	_ZN71_$LT$proc_macro2..TokenStream$u20$as$u20$quote..to_tokens..ToTokens$GT$9to_tokens17h3283b1a445ae6941E;
	.scl	2;
	.type	32;
	.endef
	.section	.text,"xr",one_only,_ZN71_$LT$proc_macro2..TokenStream$u20$as$u20$quote..to_tokens..ToTokens$GT$9to_tokens17h3283b1a445ae6941E
	.globl	_ZN71_$LT$proc_macro2..TokenStream$u20$as$u20$quote..to_tokens..ToTokens$GT$9to_tokens17h3283b1a445ae6941E
	.p2align	4, 0x90
_ZN71_$LT$proc_macro2..TokenStream$u20$as$u20$quote..to_tokens..ToTokens$GT$9to_tokens17h3283b1a445ae6941E:
.Lfunc_begin58:
	.cv_func_id 58
	.cv_loc	58 7 202 0
.seh_proc _ZN71_$LT$proc_macro2..TokenStream$u20$as$u20$quote..to_tokens..ToTokens$GT$9to_tokens17h3283b1a445ae6941E
	subq	$136, %rsp
	.seh_stackalloc 136
	.seh_endprologue
	movq	%rdx, %rax
	movq	%rax, 32(%rsp)
	movq	%rcx, %rdx
	movq	%rdx, 120(%rsp)
	movq	%rax, 128(%rsp)
.Ltmp190:
	.cv_loc	58 7 203 0
	leaq	80(%rsp), %rcx
	callq	_ZN63_$LT$proc_macro2..TokenStream$u20$as$u20$core..clone..Clone$GT$5clone17h1bf0ffb06ab75332E
	leaq	40(%rsp), %rcx
	leaq	80(%rsp), %rdx
	callq	_ZN4core4iter7sources4once4once17hf6834c4dcf36c63eE
	movq	32(%rsp), %rcx
	leaq	40(%rsp), %rdx
	callq	_ZN112_$LT$proc_macro2..TokenStream$u20$as$u20$core..iter..traits..collect..Extend$LT$proc_macro2..TokenStream$GT$$GT$6extend17h87ebc49a6895e033E
	.cv_loc	58 7 204 0
	nop
	addq	$136, %rsp
	retq
.Ltmp191:
.Lfunc_end58:
	.seh_endproc

	.def	_ZN71_$LT$proc_macro2..TokenStream$u20$as$u20$quote..to_tokens..ToTokens$GT$17into_token_stream17h603b39a1e2de8795E;
	.scl	2;
	.type	32;
	.endef
	.section	.text,"xr",one_only,_ZN71_$LT$proc_macro2..TokenStream$u20$as$u20$quote..to_tokens..ToTokens$GT$17into_token_stream17h603b39a1e2de8795E
	.globl	_ZN71_$LT$proc_macro2..TokenStream$u20$as$u20$quote..to_tokens..ToTokens$GT$17into_token_stream17h603b39a1e2de8795E
	.p2align	4, 0x90
_ZN71_$LT$proc_macro2..TokenStream$u20$as$u20$quote..to_tokens..ToTokens$GT$17into_token_stream17h603b39a1e2de8795E:
.Lfunc_begin59:
	.cv_func_id 59
	.cv_loc	59 7 206 0
.seh_proc _ZN71_$LT$proc_macro2..TokenStream$u20$as$u20$quote..to_tokens..ToTokens$GT$17into_token_stream17h603b39a1e2de8795E
	subq	$40, %rsp
	.seh_stackalloc 40
	.seh_endprologue
	movq	%rcx, %rax
	movq	%rax, 32(%rsp)
.Ltmp192:
	.cv_loc	59 7 207 0
	movl	$40, %r8d
	callq	memcpy
.Ltmp193:
	movq	32(%rsp), %rax
	.cv_loc	59 7 208 0
	addq	$40, %rsp
	retq
.Ltmp194:
.Lfunc_end59:
	.seh_endproc

	.def	_ZN53_$LT$T$u20$as$u20$alloc..alloc..WriteCloneIntoRaw$GT$20write_clone_into_raw17hb5696a137542ba97E;
	.scl	2;
	.type	32;
	.endef
	.section	.text,"xr",one_only,_ZN53_$LT$T$u20$as$u20$alloc..alloc..WriteCloneIntoRaw$GT$20write_clone_into_raw17hb5696a137542ba97E
	.globl	_ZN53_$LT$T$u20$as$u20$alloc..alloc..WriteCloneIntoRaw$GT$20write_clone_into_raw17hb5696a137542ba97E
	.p2align	4, 0x90
_ZN53_$LT$T$u20$as$u20$alloc..alloc..WriteCloneIntoRaw$GT$20write_clone_into_raw17hb5696a137542ba97E:
.Lfunc_begin60:
	.cv_func_id 60
	.cv_loc	60 8 423 0
.seh_proc _ZN53_$LT$T$u20$as$u20$alloc..alloc..WriteCloneIntoRaw$GT$20write_clone_into_raw17hb5696a137542ba97E
	subq	$120, %rsp
	.seh_stackalloc 120
	.seh_endprologue
	movq	%rdx, %rax
	movq	%rax, 40(%rsp)
	movq	%rcx, %rdx
	movq	%rdx, 72(%rsp)
	movq	%rax, 80(%rsp)
.Ltmp195:
	.cv_loc	60 8 426 0
	leaq	48(%rsp), %rcx
	callq	_ZN67_$LT$alloc..vec..Vec$LT$T$C$A$GT$$u20$as$u20$core..clone..Clone$GT$5clone17h996da13f22b8bdf1E
	.cv_file	9 "/rustc/7737e0b5c4103216d6fd8cf941b7ab9bdbaace7c\\library\\core\\src\\ptr\\mut_ptr.rs" "9C0276CA40F9C26122B44547786A83B5B3539AD0" 2
	.cv_inline_site_id 61 within 60 inlined_at 8 426 0
	.cv_loc	61 9 1080 0
	movq	40(%rsp), %rcx
	movq	%rcx, 112(%rsp)
.Ltmp196:
	movq	48(%rsp), %rax
	movq	%rax, 88(%rsp)
	movq	56(%rsp), %rax
	movq	%rax, 96(%rsp)
	movq	64(%rsp), %rax
	movq	%rax, 104(%rsp)
	leaq	88(%rsp), %rdx
	callq	_ZN4core3ptr5write17h380a3fa303e76499E
.Ltmp197:
	.cv_loc	60 8 427 0
	nop
	addq	$120, %rsp
	retq
.Ltmp198:
.Lfunc_end60:
	.seh_endproc

	.def	_ZN11proc_macro25rcvec14RcVec$LT$T$GT$8make_mut17hd8b2b4dc50ffadeaE;
	.scl	2;
	.type	32;
	.endef
	.section	.text,"xr",one_only,_ZN11proc_macro25rcvec14RcVec$LT$T$GT$8make_mut17hd8b2b4dc50ffadeaE
	.globl	_ZN11proc_macro25rcvec14RcVec$LT$T$GT$8make_mut17hd8b2b4dc50ffadeaE
	.p2align	4, 0x90
_ZN11proc_macro25rcvec14RcVec$LT$T$GT$8make_mut17hd8b2b4dc50ffadeaE:
.Lfunc_begin61:
	.cv_func_id 62
	.cv_file	10 "C:\\Users\\cires\\.cargo\\registry\\src\\github.com-1ecc6299db9ec823\\proc-macro2-1.0.71\\src\\rcvec.rs" "9EF8E8D61D7EE05EC8553316EFDC3E51AA228D34" 2
	.cv_loc	62 10 37 0
.seh_proc _ZN11proc_macro25rcvec14RcVec$LT$T$GT$8make_mut17hd8b2b4dc50ffadeaE
	subq	$56, %rsp
	.seh_stackalloc 56
	.seh_endprologue
	movq	%rcx, 48(%rsp)
.Ltmp199:
	.cv_loc	62 10 42 0
	callq	_ZN5alloc2rc11Rc$LT$T$GT$8make_mut17h29ffaa739c236bfeE
	movq	%rax, 32(%rsp)
	.cv_loc	62 10 41 0
	movq	32(%rsp), %rax
	movq	%rax, 40(%rsp)
	.cv_loc	62 10 44 0
	movq	40(%rsp), %rax
	addq	$56, %rsp
	retq
.Ltmp200:
.Lfunc_end61:
	.seh_endproc

	.def	_ZN11proc_macro25rcvec17RcVecMut$LT$T$GT$6extend17hb3e969b2e73cb67aE;
	.scl	2;
	.type	32;
	.endef
	.section	.text,"xr",one_only,_ZN11proc_macro25rcvec17RcVecMut$LT$T$GT$6extend17hb3e969b2e73cb67aE
	.globl	_ZN11proc_macro25rcvec17RcVecMut$LT$T$GT$6extend17hb3e969b2e73cb67aE
	.p2align	4, 0x90
_ZN11proc_macro25rcvec17RcVecMut$LT$T$GT$6extend17hb3e969b2e73cb67aE:
.Lfunc_begin62:
	.cv_func_id 63
	.cv_loc	63 10 101 0
.seh_proc _ZN11proc_macro25rcvec17RcVecMut$LT$T$GT$6extend17hb3e969b2e73cb67aE
	subq	$152, %rsp
	.seh_stackalloc 152
	.seh_endprologue
	movq	%rcx, 144(%rsp)
.Ltmp201:
	.cv_loc	63 10 102 0
	movq	(%rcx), %rax
	movq	%rax, 32(%rsp)
	leaq	40(%rsp), %rcx
	movl	$104, %r8d
	callq	memcpy
.Ltmp202:
	movq	32(%rsp), %rcx
	leaq	40(%rsp), %rdx
	callq	_ZN93_$LT$alloc..vec..Vec$LT$T$C$A$GT$$u20$as$u20$core..iter..traits..collect..Extend$LT$T$GT$$GT$6extend17h44c4f162e1a57dc2E
.Ltmp203:
	.cv_loc	63 10 103 0
	nop
	addq	$152, %rsp
	retq
.Ltmp204:
.Lfunc_end62:
	.seh_endproc

	.def	_ZN11proc_macro25rcvec17RcVecMut$LT$T$GT$6as_mut17hb39b9d6d922e5df5E;
	.scl	2;
	.type	32;
	.endef
	.section	.text,"xr",one_only,_ZN11proc_macro25rcvec17RcVecMut$LT$T$GT$6as_mut17hb39b9d6d922e5df5E
	.globl	_ZN11proc_macro25rcvec17RcVecMut$LT$T$GT$6as_mut17hb39b9d6d922e5df5E
	.p2align	4, 0x90
_ZN11proc_macro25rcvec17RcVecMut$LT$T$GT$6as_mut17hb39b9d6d922e5df5E:
.Lfunc_begin63:
	.cv_func_id 64
	.cv_loc	64 10 109 0
.seh_proc _ZN11proc_macro25rcvec17RcVecMut$LT$T$GT$6as_mut17hb39b9d6d922e5df5E
	subq	$16, %rsp
	.seh_stackalloc 16
	.seh_endprologue
	movq	%rcx, 8(%rsp)
.Ltmp205:
	.cv_loc	64 10 110 0
	movq	(%rcx), %rax
	movq	%rax, (%rsp)
	.cv_loc	64 10 111 0
	movq	(%rsp), %rax
	addq	$16, %rsp
	retq
.Ltmp206:
.Lfunc_end63:
	.seh_endproc

	.def	_ZN89_$LT$quote..__private..ThereIsNoIteratorInRepetition$u20$as$u20$core..ops..bit..BitOr$GT$5bitor17ha28518495c7184d2E;
	.scl	2;
	.type	32;
	.endef
	.section	.text,"xr",one_only,_ZN89_$LT$quote..__private..ThereIsNoIteratorInRepetition$u20$as$u20$core..ops..bit..BitOr$GT$5bitor17ha28518495c7184d2E
	.globl	_ZN89_$LT$quote..__private..ThereIsNoIteratorInRepetition$u20$as$u20$core..ops..bit..BitOr$GT$5bitor17ha28518495c7184d2E
	.p2align	4, 0x90
_ZN89_$LT$quote..__private..ThereIsNoIteratorInRepetition$u20$as$u20$core..ops..bit..BitOr$GT$5bitor17ha28518495c7184d2E:
.Lfunc_begin64:
	.cv_func_id 65
	.cv_file	11 "C:\\Users\\cires\\.cargo\\registry\\src\\github.com-1ecc6299db9ec823\\quote-1.0.33\\src\\runtime.rs" "089D9B80C8B09702C4CE71A23B188FAB9BBB0028" 2
	.cv_loc	65 11 27 0
.seh_proc _ZN89_$LT$quote..__private..ThereIsNoIteratorInRepetition$u20$as$u20$core..ops..bit..BitOr$GT$5bitor17ha28518495c7184d2E
	subq	$16, %rsp
	.seh_stackalloc 16
	.seh_endprologue
.Ltmp207:
	.cv_loc	65 11 29 0
	addq	$16, %rsp
	retq
.Ltmp208:
.Lfunc_end64:
	.seh_endproc

	.def	_ZN126_$LT$quote..__private..HasIterator$u20$as$u20$core..ops..bit..BitOr$LT$quote..__private..ThereIsNoIteratorInRepetition$GT$$GT$5bitor17h5601b06fef025209E;
	.scl	2;
	.type	32;
	.endef
	.section	.text,"xr",one_only,_ZN126_$LT$quote..__private..HasIterator$u20$as$u20$core..ops..bit..BitOr$LT$quote..__private..ThereIsNoIteratorInRepetition$GT$$GT$5bitor17h5601b06fef025209E
	.globl	_ZN126_$LT$quote..__private..HasIterator$u20$as$u20$core..ops..bit..BitOr$LT$quote..__private..ThereIsNoIteratorInRepetition$GT$$GT$5bitor17h5601b06fef025209E
	.p2align	4, 0x90
_ZN126_$LT$quote..__private..HasIterator$u20$as$u20$core..ops..bit..BitOr$LT$quote..__private..ThereIsNoIteratorInRepetition$GT$$GT$5bitor17h5601b06fef025209E:
.Lfunc_begin65:
	.cv_func_id 66
	.cv_loc	66 11 34 0
.seh_proc _ZN126_$LT$quote..__private..HasIterator$u20$as$u20$core..ops..bit..BitOr$LT$quote..__private..ThereIsNoIteratorInRepetition$GT$$GT$5bitor17h5601b06fef025209E
	subq	$16, %rsp
	.seh_stackalloc 16
	.seh_endprologue
.Ltmp209:
	.cv_loc	66 11 36 0
	addq	$16, %rsp
	retq
.Ltmp210:
.Lfunc_end65:
	.seh_endproc

	.def	_ZN126_$LT$quote..__private..ThereIsNoIteratorInRepetition$u20$as$u20$core..ops..bit..BitOr$LT$quote..__private..HasIterator$GT$$GT$5bitor17h65098b738773fd54E;
	.scl	2;
	.type	32;
	.endef
	.section	.text,"xr",one_only,_ZN126_$LT$quote..__private..ThereIsNoIteratorInRepetition$u20$as$u20$core..ops..bit..BitOr$LT$quote..__private..HasIterator$GT$$GT$5bitor17h65098b738773fd54E
	.globl	_ZN126_$LT$quote..__private..ThereIsNoIteratorInRepetition$u20$as$u20$core..ops..bit..BitOr$LT$quote..__private..HasIterator$GT$$GT$5bitor17h65098b738773fd54E
	.p2align	4, 0x90
_ZN126_$LT$quote..__private..ThereIsNoIteratorInRepetition$u20$as$u20$core..ops..bit..BitOr$LT$quote..__private..HasIterator$GT$$GT$5bitor17h65098b738773fd54E:
.Lfunc_begin66:
	.cv_func_id 67
	.cv_loc	67 11 41 0
.seh_proc _ZN126_$LT$quote..__private..ThereIsNoIteratorInRepetition$u20$as$u20$core..ops..bit..BitOr$LT$quote..__private..HasIterator$GT$$GT$5bitor17h65098b738773fd54E
	subq	$16, %rsp
	.seh_stackalloc 16
	.seh_endprologue
.Ltmp211:
	.cv_loc	67 11 43 0
	addq	$16, %rsp
	retq
.Ltmp212:
.Lfunc_end66:
	.seh_endproc

	.def	_ZN71_$LT$quote..__private..HasIterator$u20$as$u20$core..ops..bit..BitOr$GT$5bitor17hc6bff06aa2924b7dE;
	.scl	2;
	.type	32;
	.endef
	.section	.text,"xr",one_only,_ZN71_$LT$quote..__private..HasIterator$u20$as$u20$core..ops..bit..BitOr$GT$5bitor17hc6bff06aa2924b7dE
	.globl	_ZN71_$LT$quote..__private..HasIterator$u20$as$u20$core..ops..bit..BitOr$GT$5bitor17hc6bff06aa2924b7dE
	.p2align	4, 0x90
_ZN71_$LT$quote..__private..HasIterator$u20$as$u20$core..ops..bit..BitOr$GT$5bitor17hc6bff06aa2924b7dE:
.Lfunc_begin67:
	.cv_func_id 68
	.cv_loc	68 11 48 0
.seh_proc _ZN71_$LT$quote..__private..HasIterator$u20$as$u20$core..ops..bit..BitOr$GT$5bitor17hc6bff06aa2924b7dE
	subq	$16, %rsp
	.seh_stackalloc 16
	.seh_endprologue
.Ltmp213:
	.cv_loc	68 11 50 0
	addq	$16, %rsp
	retq
.Ltmp214:
.Lfunc_end67:
	.seh_endproc

	.def	_ZN126_$LT$proc_macro2..fallback..TokenStream$u20$as$u20$core..iter..traits..collect..FromIterator$LT$proc_macro2..TokenTree$GT$$GT$9from_iter17h14310e33f87c2f76E;
	.scl	2;
	.type	32;
	.endef
	.section	.text,"xr",one_only,_ZN126_$LT$proc_macro2..fallback..TokenStream$u20$as$u20$core..iter..traits..collect..FromIterator$LT$proc_macro2..TokenTree$GT$$GT$9from_iter17h14310e33f87c2f76E
	.globl	_ZN126_$LT$proc_macro2..fallback..TokenStream$u20$as$u20$core..iter..traits..collect..FromIterator$LT$proc_macro2..TokenTree$GT$$GT$9from_iter17h14310e33f87c2f76E
	.p2align	4, 0x90
_ZN126_$LT$proc_macro2..fallback..TokenStream$u20$as$u20$core..iter..traits..collect..FromIterator$LT$proc_macro2..TokenTree$GT$$GT$9from_iter17h14310e33f87c2f76E:
.Lfunc_begin68:
	.cv_func_id 69
	.cv_file	12 "C:\\Users\\cires\\.cargo\\registry\\src\\github.com-1ecc6299db9ec823\\proc-macro2-1.0.71\\src\\fallback.rs" "15B7559124CDF7CAF5D9EFC79CC237903DB5DE28" 2
	.cv_loc	69 12 253 0
.seh_proc _ZN126_$LT$proc_macro2..fallback..TokenStream$u20$as$u20$core..iter..traits..collect..FromIterator$LT$proc_macro2..TokenTree$GT$$GT$9from_iter17h14310e33f87c2f76E
	.seh_handler __CxxFrameHandler3, @unwind, @except
	pushq	%rbp
	.seh_pushreg %rbp
	subq	$128, %rsp
	.seh_stackalloc 128
	leaq	128(%rsp), %rbp
	.seh_setframe %rbp, 128
	.seh_endprologue
	movq	$-2, -8(%rbp)
	movq	%rcx, -88(%rbp)
.Ltmp219:
	.cv_loc	69 12 254 0
	movb	$0, -9(%rbp)
	movb	$1, -9(%rbp)
.Ltmp215:
	callq	_ZN11proc_macro28fallback11TokenStream3new17h46824ebe1ee25f63E
.Ltmp220:
.Ltmp216:
	movq	%rax, -80(%rbp)
.Ltmp221:
	jmp	.LBB68_1
.Ltmp222:
.LBB68_1:
	movq	-88(%rbp), %rax
	movq	-80(%rbp), %rcx
	movq	%rcx, -72(%rbp)
.Ltmp223:
	.cv_loc	69 12 255 0
	movb	$0, -9(%rbp)
	vmovups	(%rax), %ymm0
	vmovups	16(%rax), %ymm1
	vmovups	%ymm1, -48(%rbp)
	vmovups	%ymm0, -64(%rbp)
.Ltmp217:
	leaq	-72(%rbp), %rcx
	leaq	-64(%rbp), %rdx
	vzeroupper
	callq	_ZN120_$LT$proc_macro2..fallback..TokenStream$u20$as$u20$core..iter..traits..collect..Extend$LT$proc_macro2..TokenTree$GT$$GT$6extend17h0f787bfef2026714E
.Ltmp218:
	jmp	.LBB68_3
.Ltmp224:
.LBB68_3:
	.cv_loc	69 12 257 0
	movq	-72(%rbp), %rax
	addq	$128, %rsp
	popq	%rbp
	retq
.Ltmp225:
	.seh_handlerdata
	.long	($cppxdata$_ZN126_$LT$proc_macro2..fallback..TokenStream$u20$as$u20$core..iter..traits..collect..FromIterator$LT$proc_macro2..TokenTree$GT$$GT$9from_iter17h14310e33f87c2f76E)@IMGREL
	.section	.text,"xr",one_only,_ZN126_$LT$proc_macro2..fallback..TokenStream$u20$as$u20$core..iter..traits..collect..FromIterator$LT$proc_macro2..TokenTree$GT$$GT$9from_iter17h14310e33f87c2f76E
	.seh_endproc
	.def	"?dtor$2@?0?_ZN126_$LT$proc_macro2..fallback..TokenStream$u20$as$u20$core..iter..traits..collect..FromIterator$LT$proc_macro2..TokenTree$GT$$GT$9from_iter17h14310e33f87c2f76E@4HA";
	.scl	3;
	.type	32;
	.endef
	.p2align	4, 0x90
"?dtor$2@?0?_ZN126_$LT$proc_macro2..fallback..TokenStream$u20$as$u20$core..iter..traits..collect..FromIterator$LT$proc_macro2..TokenTree$GT$$GT$9from_iter17h14310e33f87c2f76E@4HA":
.seh_proc "?dtor$2@?0?_ZN126_$LT$proc_macro2..fallback..TokenStream$u20$as$u20$core..iter..traits..collect..FromIterator$LT$proc_macro2..TokenTree$GT$$GT$9from_iter17h14310e33f87c2f76E@4HA"
.LBB68_2:
	movq	%rdx, 16(%rsp)
	pushq	%rbp
	.seh_pushreg %rbp
	subq	$32, %rsp
	.seh_stackalloc 32
	leaq	128(%rdx), %rbp
	.seh_endprologue
	testb	$1, -9(%rbp)
	jne	.LBB68_6
	jmp	.LBB68_5
.LBB68_5:
	.cv_loc	69 12 253 0
	addq	$32, %rsp
	popq	%rbp
	retq
.LBB68_6:
	.cv_loc	69 12 257 0
	movq	-88(%rbp), %rcx
	callq	_ZN4core3ptr161drop_in_place$LT$core..iter..adapters..map..Map$LT$proc_macro2..token_stream..IntoIter$C$quote..__private..respan_token_tree..$u7b$$u7b$closure$u7d$$u7d$$GT$$GT$17he64d81e54d80be38E
	jmp	.LBB68_5
	.seh_handlerdata
	.section	.text,"xr",one_only,_ZN126_$LT$proc_macro2..fallback..TokenStream$u20$as$u20$core..iter..traits..collect..FromIterator$LT$proc_macro2..TokenTree$GT$$GT$9from_iter17h14310e33f87c2f76E
	.seh_endproc
	.def	"?dtor$4@?0?_ZN126_$LT$proc_macro2..fallback..TokenStream$u20$as$u20$core..iter..traits..collect..FromIterator$LT$proc_macro2..TokenTree$GT$$GT$9from_iter17h14310e33f87c2f76E@4HA";
	.scl	3;
	.type	32;
	.endef
	.p2align	4, 0x90
"?dtor$4@?0?_ZN126_$LT$proc_macro2..fallback..TokenStream$u20$as$u20$core..iter..traits..collect..FromIterator$LT$proc_macro2..TokenTree$GT$$GT$9from_iter17h14310e33f87c2f76E@4HA":
.seh_proc "?dtor$4@?0?_ZN126_$LT$proc_macro2..fallback..TokenStream$u20$as$u20$core..iter..traits..collect..FromIterator$LT$proc_macro2..TokenTree$GT$$GT$9from_iter17h14310e33f87c2f76E@4HA"
.LBB68_4:
.Ltmp226:
	movq	%rdx, 16(%rsp)
	pushq	%rbp
	.seh_pushreg %rbp
	subq	$32, %rsp
	.seh_stackalloc 32
	leaq	128(%rdx), %rbp
.Ltmp227:
	.seh_endprologue
	leaq	-72(%rbp), %rcx
	callq	_ZN4core3ptr55drop_in_place$LT$proc_macro2..fallback..TokenStream$GT$17hc170f71a3606147bE
	nop
	addq	$32, %rsp
	popq	%rbp
	retq
.Ltmp228:
.Lfunc_end68:
	.seh_handlerdata
	.section	.text,"xr",one_only,_ZN126_$LT$proc_macro2..fallback..TokenStream$u20$as$u20$core..iter..traits..collect..FromIterator$LT$proc_macro2..TokenTree$GT$$GT$9from_iter17h14310e33f87c2f76E
	.seh_endproc
	.section	.xdata,"dr",associative,_ZN126_$LT$proc_macro2..fallback..TokenStream$u20$as$u20$core..iter..traits..collect..FromIterator$LT$proc_macro2..TokenTree$GT$$GT$9from_iter17h14310e33f87c2f76E
	.p2align	2
$cppxdata$_ZN126_$LT$proc_macro2..fallback..TokenStream$u20$as$u20$core..iter..traits..collect..FromIterator$LT$proc_macro2..TokenTree$GT$$GT$9from_iter17h14310e33f87c2f76E:
	.long	429065506
	.long	2
	.long	($stateUnwindMap$_ZN126_$LT$proc_macro2..fallback..TokenStream$u20$as$u20$core..iter..traits..collect..FromIterator$LT$proc_macro2..TokenTree$GT$$GT$9from_iter17h14310e33f87c2f76E)@IMGREL
	.long	0
	.long	0
	.long	4
	.long	($ip2state$_ZN126_$LT$proc_macro2..fallback..TokenStream$u20$as$u20$core..iter..traits..collect..FromIterator$LT$proc_macro2..TokenTree$GT$$GT$9from_iter17h14310e33f87c2f76E)@IMGREL
	.long	120
	.long	0
	.long	1
$stateUnwindMap$_ZN126_$LT$proc_macro2..fallback..TokenStream$u20$as$u20$core..iter..traits..collect..FromIterator$LT$proc_macro2..TokenTree$GT$$GT$9from_iter17h14310e33f87c2f76E:
	.long	-1
	.long	"?dtor$2@?0?_ZN126_$LT$proc_macro2..fallback..TokenStream$u20$as$u20$core..iter..traits..collect..FromIterator$LT$proc_macro2..TokenTree$GT$$GT$9from_iter17h14310e33f87c2f76E@4HA"@IMGREL
	.long	0
	.long	"?dtor$4@?0?_ZN126_$LT$proc_macro2..fallback..TokenStream$u20$as$u20$core..iter..traits..collect..FromIterator$LT$proc_macro2..TokenTree$GT$$GT$9from_iter17h14310e33f87c2f76E@4HA"@IMGREL
$ip2state$_ZN126_$LT$proc_macro2..fallback..TokenStream$u20$as$u20$core..iter..traits..collect..FromIterator$LT$proc_macro2..TokenTree$GT$$GT$9from_iter17h14310e33f87c2f76E:
	.long	.Lfunc_begin68@IMGREL
	.long	-1
	.long	.Ltmp215@IMGREL+1
	.long	0
	.long	.Ltmp217@IMGREL+1
	.long	1
	.long	.Ltmp218@IMGREL+1
	.long	-1
	.section	.text,"xr",one_only,_ZN126_$LT$proc_macro2..fallback..TokenStream$u20$as$u20$core..iter..traits..collect..FromIterator$LT$proc_macro2..TokenTree$GT$$GT$9from_iter17h14310e33f87c2f76E

	.def	_ZN120_$LT$proc_macro2..fallback..TokenStream$u20$as$u20$core..iter..traits..collect..Extend$LT$proc_macro2..TokenTree$GT$$GT$6extend17h043843a0dce277ebE;
	.scl	2;
	.type	32;
	.endef
	.section	.text,"xr",one_only,_ZN120_$LT$proc_macro2..fallback..TokenStream$u20$as$u20$core..iter..traits..collect..Extend$LT$proc_macro2..TokenTree$GT$$GT$6extend17h043843a0dce277ebE
	.globl	_ZN120_$LT$proc_macro2..fallback..TokenStream$u20$as$u20$core..iter..traits..collect..Extend$LT$proc_macro2..TokenTree$GT$$GT$6extend17h043843a0dce277ebE
	.p2align	4, 0x90
_ZN120_$LT$proc_macro2..fallback..TokenStream$u20$as$u20$core..iter..traits..collect..Extend$LT$proc_macro2..TokenTree$GT$$GT$6extend17h043843a0dce277ebE:
.Lfunc_begin69:
	.cv_func_id 70
	.cv_loc	70 12 273 0
.seh_proc _ZN120_$LT$proc_macro2..fallback..TokenStream$u20$as$u20$core..iter..traits..collect..Extend$LT$proc_macro2..TokenTree$GT$$GT$6extend17h043843a0dce277ebE
	.seh_handler __CxxFrameHandler3, @unwind, @except
	pushq	%rbp
	.seh_pushreg %rbp
	subq	$192, %rsp
	.seh_stackalloc 192
	leaq	128(%rsp), %rbp
	.seh_setframe %rbp, 128
	.seh_endprologue
	movq	$-2, 56(%rbp)
	movq	%rdx, -88(%rbp)
.Ltmp235:
	movq	%rcx, 48(%rbp)
.Ltmp236:
	.cv_loc	70 12 274 0
	movb	$0, 47(%rbp)
	movb	$1, 47(%rbp)
.Ltmp229:
	callq	_ZN11proc_macro25rcvec14RcVec$LT$T$GT$8make_mut17hd8b2b4dc50ffadeaE
.Ltmp237:
.Ltmp230:
	movq	%rax, -80(%rbp)
.Ltmp238:
	jmp	.LBB69_1
.Ltmp239:
.LBB69_1:
	movq	-88(%rbp), %rax
	movq	-80(%rbp), %rcx
	movq	%rcx, -72(%rbp)
.Ltmp240:
	.cv_loc	70 12 275 0
	movb	$0, 47(%rbp)
	vmovups	(%rax), %ymm0
	vmovups	16(%rax), %ymm1
	vmovups	%ymm1, (%rbp)
	vmovups	%ymm0, -16(%rbp)
.Ltmp231:
	leaq	-64(%rbp), %rcx
	leaq	-16(%rbp), %rdx
	vzeroupper
	callq	_ZN63_$LT$I$u20$as$u20$core..iter..traits..collect..IntoIterator$GT$9into_iter17h704158ee66939f88E
.Ltmp232:
	jmp	.LBB69_3
.Ltmp241:
.LBB69_3:
	.cv_loc	70 12 277 0
	leaq	-72(%rbp), %rax
	movq	%rax, 32(%rbp)
	.cv_loc	70 12 275 0
	movq	32(%rbp), %rdx
.Ltmp233:
	leaq	-64(%rbp), %rcx
	callq	_ZN4core4iter6traits8iterator8Iterator8for_each17h574144f8d6a6b9f9E
.Ltmp234:
	jmp	.LBB69_4
.Ltmp242:
.LBB69_4:
	.cv_loc	70 12 278 0
	addq	$192, %rsp
	popq	%rbp
	retq
.Ltmp243:
	.seh_handlerdata
	.long	($cppxdata$_ZN120_$LT$proc_macro2..fallback..TokenStream$u20$as$u20$core..iter..traits..collect..Extend$LT$proc_macro2..TokenTree$GT$$GT$6extend17h043843a0dce277ebE)@IMGREL
	.section	.text,"xr",one_only,_ZN120_$LT$proc_macro2..fallback..TokenStream$u20$as$u20$core..iter..traits..collect..Extend$LT$proc_macro2..TokenTree$GT$$GT$6extend17h043843a0dce277ebE
	.seh_endproc
	.def	"?dtor$2@?0?_ZN120_$LT$proc_macro2..fallback..TokenStream$u20$as$u20$core..iter..traits..collect..Extend$LT$proc_macro2..TokenTree$GT$$GT$6extend17h043843a0dce277ebE@4HA";
	.scl	3;
	.type	32;
	.endef
	.p2align	4, 0x90
"?dtor$2@?0?_ZN120_$LT$proc_macro2..fallback..TokenStream$u20$as$u20$core..iter..traits..collect..Extend$LT$proc_macro2..TokenTree$GT$$GT$6extend17h043843a0dce277ebE@4HA":
.seh_proc "?dtor$2@?0?_ZN120_$LT$proc_macro2..fallback..TokenStream$u20$as$u20$core..iter..traits..collect..Extend$LT$proc_macro2..TokenTree$GT$$GT$6extend17h043843a0dce277ebE@4HA"
.LBB69_2:
	movq	%rdx, 16(%rsp)
	pushq	%rbp
	.seh_pushreg %rbp
	subq	$32, %rsp
	.seh_stackalloc 32
	leaq	128(%rdx), %rbp
.Ltmp244:
	.seh_endprologue
	testb	$1, 47(%rbp)
	jne	.LBB69_6
	jmp	.LBB69_5
.LBB69_5:
	.cv_loc	70 12 273 0
	addq	$32, %rsp
	popq	%rbp
	retq
.LBB69_6:
	.cv_loc	70 12 278 0
	movq	-88(%rbp), %rcx
	callq	_ZN4core3ptr82drop_in_place$LT$core..iter..sources..once..Once$LT$proc_macro2..TokenTree$GT$$GT$17h5ab5e1b443d2291dE
	jmp	.LBB69_5
.Ltmp245:
.Lfunc_end69:
	.seh_handlerdata
	.section	.text,"xr",one_only,_ZN120_$LT$proc_macro2..fallback..TokenStream$u20$as$u20$core..iter..traits..collect..Extend$LT$proc_macro2..TokenTree$GT$$GT$6extend17h043843a0dce277ebE
	.seh_endproc
	.section	.xdata,"dr",associative,_ZN120_$LT$proc_macro2..fallback..TokenStream$u20$as$u20$core..iter..traits..collect..Extend$LT$proc_macro2..TokenTree$GT$$GT$6extend17h043843a0dce277ebE
	.p2align	2
$cppxdata$_ZN120_$LT$proc_macro2..fallback..TokenStream$u20$as$u20$core..iter..traits..collect..Extend$LT$proc_macro2..TokenTree$GT$$GT$6extend17h043843a0dce277ebE:
	.long	429065506
	.long	1
	.long	($stateUnwindMap$_ZN120_$LT$proc_macro2..fallback..TokenStream$u20$as$u20$core..iter..traits..collect..Extend$LT$proc_macro2..TokenTree$GT$$GT$6extend17h043843a0dce277ebE)@IMGREL
	.long	0
	.long	0
	.long	3
	.long	($ip2state$_ZN120_$LT$proc_macro2..fallback..TokenStream$u20$as$u20$core..iter..traits..collect..Extend$LT$proc_macro2..TokenTree$GT$$GT$6extend17h043843a0dce277ebE)@IMGREL
	.long	184
	.long	0
	.long	1
$stateUnwindMap$_ZN120_$LT$proc_macro2..fallback..TokenStream$u20$as$u20$core..iter..traits..collect..Extend$LT$proc_macro2..TokenTree$GT$$GT$6extend17h043843a0dce277ebE:
	.long	-1
	.long	"?dtor$2@?0?_ZN120_$LT$proc_macro2..fallback..TokenStream$u20$as$u20$core..iter..traits..collect..Extend$LT$proc_macro2..TokenTree$GT$$GT$6extend17h043843a0dce277ebE@4HA"@IMGREL
$ip2state$_ZN120_$LT$proc_macro2..fallback..TokenStream$u20$as$u20$core..iter..traits..collect..Extend$LT$proc_macro2..TokenTree$GT$$GT$6extend17h043843a0dce277ebE:
	.long	.Lfunc_begin69@IMGREL
	.long	-1
	.long	.Ltmp229@IMGREL+1
	.long	0
	.long	.Ltmp234@IMGREL+1
	.long	-1
	.section	.text,"xr",one_only,_ZN120_$LT$proc_macro2..fallback..TokenStream$u20$as$u20$core..iter..traits..collect..Extend$LT$proc_macro2..TokenTree$GT$$GT$6extend17h043843a0dce277ebE

	.def	_ZN120_$LT$proc_macro2..fallback..TokenStream$u20$as$u20$core..iter..traits..collect..Extend$LT$proc_macro2..TokenTree$GT$$GT$6extend17h0f787bfef2026714E;
	.scl	2;
	.type	32;
	.endef
	.section	.text,"xr",one_only,_ZN120_$LT$proc_macro2..fallback..TokenStream$u20$as$u20$core..iter..traits..collect..Extend$LT$proc_macro2..TokenTree$GT$$GT$6extend17h0f787bfef2026714E
	.globl	_ZN120_$LT$proc_macro2..fallback..TokenStream$u20$as$u20$core..iter..traits..collect..Extend$LT$proc_macro2..TokenTree$GT$$GT$6extend17h0f787bfef2026714E
	.p2align	4, 0x90
_ZN120_$LT$proc_macro2..fallback..TokenStream$u20$as$u20$core..iter..traits..collect..Extend$LT$proc_macro2..TokenTree$GT$$GT$6extend17h0f787bfef2026714E:
.Lfunc_begin70:
	.cv_func_id 71
	.cv_loc	71 12 273 0
.seh_proc _ZN120_$LT$proc_macro2..fallback..TokenStream$u20$as$u20$core..iter..traits..collect..Extend$LT$proc_macro2..TokenTree$GT$$GT$6extend17h0f787bfef2026714E
	.seh_handler __CxxFrameHandler3, @unwind, @except
	pushq	%rbp
	.seh_pushreg %rbp
	subq	$192, %rsp
	.seh_stackalloc 192
	leaq	128(%rsp), %rbp
	.seh_setframe %rbp, 128
	.seh_endprologue
	movq	$-2, 56(%rbp)
	movq	%rdx, -88(%rbp)
.Ltmp252:
	movq	%rcx, 48(%rbp)
.Ltmp253:
	.cv_loc	71 12 274 0
	movb	$0, 47(%rbp)
	movb	$1, 47(%rbp)
.Ltmp246:
	callq	_ZN11proc_macro25rcvec14RcVec$LT$T$GT$8make_mut17hd8b2b4dc50ffadeaE
.Ltmp254:
.Ltmp247:
	movq	%rax, -80(%rbp)
.Ltmp255:
	jmp	.LBB70_1
.Ltmp256:
.LBB70_1:
	movq	-88(%rbp), %rax
	movq	-80(%rbp), %rcx
	movq	%rcx, -72(%rbp)
.Ltmp257:
	.cv_loc	71 12 275 0
	movb	$0, 47(%rbp)
	vmovups	(%rax), %ymm0
	vmovups	16(%rax), %ymm1
	vmovups	%ymm1, (%rbp)
	vmovups	%ymm0, -16(%rbp)
.Ltmp248:
	leaq	-64(%rbp), %rcx
	leaq	-16(%rbp), %rdx
	vzeroupper
	callq	_ZN63_$LT$I$u20$as$u20$core..iter..traits..collect..IntoIterator$GT$9into_iter17h367f70ef0fdf7054E
.Ltmp249:
	jmp	.LBB70_3
.Ltmp258:
.LBB70_3:
	.cv_loc	71 12 277 0
	leaq	-72(%rbp), %rax
	movq	%rax, 32(%rbp)
	.cv_loc	71 12 275 0
	movq	32(%rbp), %rdx
.Ltmp250:
	leaq	-64(%rbp), %rcx
	callq	_ZN4core4iter6traits8iterator8Iterator8for_each17h1c599f5a9db08ff6E
.Ltmp251:
	jmp	.LBB70_4
.Ltmp259:
.LBB70_4:
	.cv_loc	71 12 278 0
	addq	$192, %rsp
	popq	%rbp
	retq
.Ltmp260:
	.seh_handlerdata
	.long	($cppxdata$_ZN120_$LT$proc_macro2..fallback..TokenStream$u20$as$u20$core..iter..traits..collect..Extend$LT$proc_macro2..TokenTree$GT$$GT$6extend17h0f787bfef2026714E)@IMGREL
	.section	.text,"xr",one_only,_ZN120_$LT$proc_macro2..fallback..TokenStream$u20$as$u20$core..iter..traits..collect..Extend$LT$proc_macro2..TokenTree$GT$$GT$6extend17h0f787bfef2026714E
	.seh_endproc
	.def	"?dtor$2@?0?_ZN120_$LT$proc_macro2..fallback..TokenStream$u20$as$u20$core..iter..traits..collect..Extend$LT$proc_macro2..TokenTree$GT$$GT$6extend17h0f787bfef2026714E@4HA";
	.scl	3;
	.type	32;
	.endef
	.p2align	4, 0x90
"?dtor$2@?0?_ZN120_$LT$proc_macro2..fallback..TokenStream$u20$as$u20$core..iter..traits..collect..Extend$LT$proc_macro2..TokenTree$GT$$GT$6extend17h0f787bfef2026714E@4HA":
.seh_proc "?dtor$2@?0?_ZN120_$LT$proc_macro2..fallback..TokenStream$u20$as$u20$core..iter..traits..collect..Extend$LT$proc_macro2..TokenTree$GT$$GT$6extend17h0f787bfef2026714E@4HA"
.LBB70_2:
	movq	%rdx, 16(%rsp)
	pushq	%rbp
	.seh_pushreg %rbp
	subq	$32, %rsp
	.seh_stackalloc 32
	leaq	128(%rdx), %rbp
.Ltmp261:
	.seh_endprologue
	testb	$1, 47(%rbp)
	jne	.LBB70_6
	jmp	.LBB70_5
.LBB70_5:
	.cv_loc	71 12 273 0
	addq	$32, %rsp
	popq	%rbp
	retq
.LBB70_6:
	.cv_loc	71 12 278 0
	movq	-88(%rbp), %rcx
	callq	_ZN4core3ptr161drop_in_place$LT$core..iter..adapters..map..Map$LT$proc_macro2..token_stream..IntoIter$C$quote..__private..respan_token_tree..$u7b$$u7b$closure$u7d$$u7d$$GT$$GT$17he64d81e54d80be38E
	jmp	.LBB70_5
.Ltmp262:
.Lfunc_end70:
	.seh_handlerdata
	.section	.text,"xr",one_only,_ZN120_$LT$proc_macro2..fallback..TokenStream$u20$as$u20$core..iter..traits..collect..Extend$LT$proc_macro2..TokenTree$GT$$GT$6extend17h0f787bfef2026714E
	.seh_endproc
	.section	.xdata,"dr",associative,_ZN120_$LT$proc_macro2..fallback..TokenStream$u20$as$u20$core..iter..traits..collect..Extend$LT$proc_macro2..TokenTree$GT$$GT$6extend17h0f787bfef2026714E
	.p2align	2
$cppxdata$_ZN120_$LT$proc_macro2..fallback..TokenStream$u20$as$u20$core..iter..traits..collect..Extend$LT$proc_macro2..TokenTree$GT$$GT$6extend17h0f787bfef2026714E:
	.long	429065506
	.long	1
	.long	($stateUnwindMap$_ZN120_$LT$proc_macro2..fallback..TokenStream$u20$as$u20$core..iter..traits..collect..Extend$LT$proc_macro2..TokenTree$GT$$GT$6extend17h0f787bfef2026714E)@IMGREL
	.long	0
	.long	0
	.long	3
	.long	($ip2state$_ZN120_$LT$proc_macro2..fallback..TokenStream$u20$as$u20$core..iter..traits..collect..Extend$LT$proc_macro2..TokenTree$GT$$GT$6extend17h0f787bfef2026714E)@IMGREL
	.long	184
	.long	0
	.long	1
$stateUnwindMap$_ZN120_$LT$proc_macro2..fallback..TokenStream$u20$as$u20$core..iter..traits..collect..Extend$LT$proc_macro2..TokenTree$GT$$GT$6extend17h0f787bfef2026714E:
	.long	-1
	.long	"?dtor$2@?0?_ZN120_$LT$proc_macro2..fallback..TokenStream$u20$as$u20$core..iter..traits..collect..Extend$LT$proc_macro2..TokenTree$GT$$GT$6extend17h0f787bfef2026714E@4HA"@IMGREL
$ip2state$_ZN120_$LT$proc_macro2..fallback..TokenStream$u20$as$u20$core..iter..traits..collect..Extend$LT$proc_macro2..TokenTree$GT$$GT$6extend17h0f787bfef2026714E:
	.long	.Lfunc_begin70@IMGREL
	.long	-1
	.long	.Ltmp246@IMGREL+1
	.long	0
	.long	.Ltmp251@IMGREL+1
	.long	-1
	.section	.text,"xr",one_only,_ZN120_$LT$proc_macro2..fallback..TokenStream$u20$as$u20$core..iter..traits..collect..Extend$LT$proc_macro2..TokenTree$GT$$GT$6extend17h0f787bfef2026714E

	.def	_ZN120_$LT$proc_macro2..fallback..TokenStream$u20$as$u20$core..iter..traits..collect..Extend$LT$proc_macro2..TokenTree$GT$$GT$6extend17h78b5b5fb7c57b0f2E;
	.scl	2;
	.type	32;
	.endef
	.section	.text,"xr",one_only,_ZN120_$LT$proc_macro2..fallback..TokenStream$u20$as$u20$core..iter..traits..collect..Extend$LT$proc_macro2..TokenTree$GT$$GT$6extend17h78b5b5fb7c57b0f2E
	.globl	_ZN120_$LT$proc_macro2..fallback..TokenStream$u20$as$u20$core..iter..traits..collect..Extend$LT$proc_macro2..TokenTree$GT$$GT$6extend17h78b5b5fb7c57b0f2E
	.p2align	4, 0x90
_ZN120_$LT$proc_macro2..fallback..TokenStream$u20$as$u20$core..iter..traits..collect..Extend$LT$proc_macro2..TokenTree$GT$$GT$6extend17h78b5b5fb7c57b0f2E:
.Lfunc_begin71:
	.cv_func_id 72
	.cv_loc	72 12 273 0
.seh_proc _ZN120_$LT$proc_macro2..fallback..TokenStream$u20$as$u20$core..iter..traits..collect..Extend$LT$proc_macro2..TokenTree$GT$$GT$6extend17h78b5b5fb7c57b0f2E
	.seh_handler __CxxFrameHandler3, @unwind, @except
	pushq	%rbp
	.seh_pushreg %rbp
	subq	$144, %rsp
	.seh_stackalloc 144
	leaq	128(%rsp), %rbp
	.seh_setframe %rbp, 128
	.seh_endprologue
	movq	$-2, 8(%rbp)
	movq	%rdx, -96(%rbp)
.Ltmp269:
	movq	%rcx, (%rbp)
.Ltmp270:
	.cv_loc	72 12 274 0
	movb	$0, -1(%rbp)
	movb	$1, -1(%rbp)
.Ltmp263:
	callq	_ZN11proc_macro25rcvec14RcVec$LT$T$GT$8make_mut17hd8b2b4dc50ffadeaE
.Ltmp271:
.Ltmp264:
	movq	%rax, -88(%rbp)
.Ltmp272:
	jmp	.LBB71_1
.Ltmp273:
.LBB71_1:
	movq	-96(%rbp), %rax
	movq	-88(%rbp), %rcx
	movq	%rcx, -80(%rbp)
.Ltmp274:
	.cv_loc	72 12 275 0
	movb	$0, -1(%rbp)
	movq	16(%rax), %rcx
	movq	%rcx, -32(%rbp)
	vmovdqu	(%rax), %xmm0
	vmovdqa	%xmm0, -48(%rbp)
.Ltmp265:
	leaq	-72(%rbp), %rcx
	leaq	-48(%rbp), %rdx
	callq	_ZN63_$LT$I$u20$as$u20$core..iter..traits..collect..IntoIterator$GT$9into_iter17hef6c48f5090fc39fE
.Ltmp266:
	jmp	.LBB71_3
.Ltmp275:
.LBB71_3:
	.cv_loc	72 12 277 0
	leaq	-80(%rbp), %rax
	movq	%rax, -16(%rbp)
	.cv_loc	72 12 275 0
	movq	-16(%rbp), %rdx
.Ltmp267:
	leaq	-72(%rbp), %rcx
	callq	_ZN4core4iter6traits8iterator8Iterator8for_each17ha7d56054da7115fbE
.Ltmp268:
	jmp	.LBB71_4
.Ltmp276:
.LBB71_4:
	.cv_loc	72 12 278 0
	addq	$144, %rsp
	popq	%rbp
	retq
.Ltmp277:
	.seh_handlerdata
	.long	($cppxdata$_ZN120_$LT$proc_macro2..fallback..TokenStream$u20$as$u20$core..iter..traits..collect..Extend$LT$proc_macro2..TokenTree$GT$$GT$6extend17h78b5b5fb7c57b0f2E)@IMGREL
	.section	.text,"xr",one_only,_ZN120_$LT$proc_macro2..fallback..TokenStream$u20$as$u20$core..iter..traits..collect..Extend$LT$proc_macro2..TokenTree$GT$$GT$6extend17h78b5b5fb7c57b0f2E
	.seh_endproc
	.def	"?dtor$2@?0?_ZN120_$LT$proc_macro2..fallback..TokenStream$u20$as$u20$core..iter..traits..collect..Extend$LT$proc_macro2..TokenTree$GT$$GT$6extend17h78b5b5fb7c57b0f2E@4HA";
	.scl	3;
	.type	32;
	.endef
	.p2align	4, 0x90
"?dtor$2@?0?_ZN120_$LT$proc_macro2..fallback..TokenStream$u20$as$u20$core..iter..traits..collect..Extend$LT$proc_macro2..TokenTree$GT$$GT$6extend17h78b5b5fb7c57b0f2E@4HA":
.seh_proc "?dtor$2@?0?_ZN120_$LT$proc_macro2..fallback..TokenStream$u20$as$u20$core..iter..traits..collect..Extend$LT$proc_macro2..TokenTree$GT$$GT$6extend17h78b5b5fb7c57b0f2E@4HA"
.LBB71_2:
	movq	%rdx, 16(%rsp)
	pushq	%rbp
	.seh_pushreg %rbp
	subq	$32, %rsp
	.seh_stackalloc 32
	leaq	128(%rdx), %rbp
.Ltmp278:
	.seh_endprologue
	testb	$1, -1(%rbp)
	jne	.LBB71_6
	jmp	.LBB71_5
.LBB71_5:
	.cv_loc	72 12 273 0
	addq	$32, %rsp
	popq	%rbp
	retq
.LBB71_6:
	.cv_loc	72 12 278 0
	jmp	.LBB71_5
.Ltmp279:
.Lfunc_end71:
	.seh_handlerdata
	.section	.text,"xr",one_only,_ZN120_$LT$proc_macro2..fallback..TokenStream$u20$as$u20$core..iter..traits..collect..Extend$LT$proc_macro2..TokenTree$GT$$GT$6extend17h78b5b5fb7c57b0f2E
	.seh_endproc
	.section	.xdata,"dr",associative,_ZN120_$LT$proc_macro2..fallback..TokenStream$u20$as$u20$core..iter..traits..collect..Extend$LT$proc_macro2..TokenTree$GT$$GT$6extend17h78b5b5fb7c57b0f2E
	.p2align	2
$cppxdata$_ZN120_$LT$proc_macro2..fallback..TokenStream$u20$as$u20$core..iter..traits..collect..Extend$LT$proc_macro2..TokenTree$GT$$GT$6extend17h78b5b5fb7c57b0f2E:
	.long	429065506
	.long	1
	.long	($stateUnwindMap$_ZN120_$LT$proc_macro2..fallback..TokenStream$u20$as$u20$core..iter..traits..collect..Extend$LT$proc_macro2..TokenTree$GT$$GT$6extend17h78b5b5fb7c57b0f2E)@IMGREL
	.long	0
	.long	0
	.long	3
	.long	($ip2state$_ZN120_$LT$proc_macro2..fallback..TokenStream$u20$as$u20$core..iter..traits..collect..Extend$LT$proc_macro2..TokenTree$GT$$GT$6extend17h78b5b5fb7c57b0f2E)@IMGREL
	.long	136
	.long	0
	.long	1
$stateUnwindMap$_ZN120_$LT$proc_macro2..fallback..TokenStream$u20$as$u20$core..iter..traits..collect..Extend$LT$proc_macro2..TokenTree$GT$$GT$6extend17h78b5b5fb7c57b0f2E:
	.long	-1
	.long	"?dtor$2@?0?_ZN120_$LT$proc_macro2..fallback..TokenStream$u20$as$u20$core..iter..traits..collect..Extend$LT$proc_macro2..TokenTree$GT$$GT$6extend17h78b5b5fb7c57b0f2E@4HA"@IMGREL
$ip2state$_ZN120_$LT$proc_macro2..fallback..TokenStream$u20$as$u20$core..iter..traits..collect..Extend$LT$proc_macro2..TokenTree$GT$$GT$6extend17h78b5b5fb7c57b0f2E:
	.long	.Lfunc_begin71@IMGREL
	.long	-1
	.long	.Ltmp263@IMGREL+1
	.long	0
	.long	.Ltmp268@IMGREL+1
	.long	-1
	.section	.text,"xr",one_only,_ZN120_$LT$proc_macro2..fallback..TokenStream$u20$as$u20$core..iter..traits..collect..Extend$LT$proc_macro2..TokenTree$GT$$GT$6extend17h78b5b5fb7c57b0f2E

	.def	_ZN120_$LT$proc_macro2..fallback..TokenStream$u20$as$u20$core..iter..traits..collect..Extend$LT$proc_macro2..TokenTree$GT$$GT$6extend17hb140154f5e44d466E;
	.scl	2;
	.type	32;
	.endef
	.section	.text,"xr",one_only,_ZN120_$LT$proc_macro2..fallback..TokenStream$u20$as$u20$core..iter..traits..collect..Extend$LT$proc_macro2..TokenTree$GT$$GT$6extend17hb140154f5e44d466E
	.globl	_ZN120_$LT$proc_macro2..fallback..TokenStream$u20$as$u20$core..iter..traits..collect..Extend$LT$proc_macro2..TokenTree$GT$$GT$6extend17hb140154f5e44d466E
	.p2align	4, 0x90
_ZN120_$LT$proc_macro2..fallback..TokenStream$u20$as$u20$core..iter..traits..collect..Extend$LT$proc_macro2..TokenTree$GT$$GT$6extend17hb140154f5e44d466E:
.Lfunc_begin72:
	.cv_func_id 73
	.cv_loc	73 12 273 0
.seh_proc _ZN120_$LT$proc_macro2..fallback..TokenStream$u20$as$u20$core..iter..traits..collect..Extend$LT$proc_macro2..TokenTree$GT$$GT$6extend17hb140154f5e44d466E
	.seh_handler __CxxFrameHandler3, @unwind, @except
	pushq	%rbp
	.seh_pushreg %rbp
	subq	$192, %rsp
	.seh_stackalloc 192
	leaq	128(%rsp), %rbp
	.seh_setframe %rbp, 128
	.seh_endprologue
	movq	$-2, 56(%rbp)
	movq	%rdx, -88(%rbp)
.Ltmp286:
	movq	%rcx, 48(%rbp)
.Ltmp287:
	.cv_loc	73 12 274 0
	movb	$0, 47(%rbp)
	movb	$1, 47(%rbp)
.Ltmp280:
	callq	_ZN11proc_macro25rcvec14RcVec$LT$T$GT$8make_mut17hd8b2b4dc50ffadeaE
.Ltmp288:
.Ltmp281:
	movq	%rax, -80(%rbp)
.Ltmp289:
	jmp	.LBB72_1
.Ltmp290:
.LBB72_1:
	movq	-88(%rbp), %rax
	movq	-80(%rbp), %rcx
	movq	%rcx, -72(%rbp)
.Ltmp291:
	.cv_loc	73 12 275 0
	movb	$0, 47(%rbp)
	vmovups	(%rax), %ymm0
	vmovups	16(%rax), %ymm1
	vmovups	%ymm1, (%rbp)
	vmovups	%ymm0, -16(%rbp)
.Ltmp282:
	leaq	-64(%rbp), %rcx
	leaq	-16(%rbp), %rdx
	vzeroupper
	callq	_ZN63_$LT$I$u20$as$u20$core..iter..traits..collect..IntoIterator$GT$9into_iter17hf1bebaaf3b941826E
.Ltmp283:
	jmp	.LBB72_3
.Ltmp292:
.LBB72_3:
	.cv_loc	73 12 277 0
	leaq	-72(%rbp), %rax
	movq	%rax, 32(%rbp)
	.cv_loc	73 12 275 0
	movq	32(%rbp), %rdx
.Ltmp284:
	leaq	-64(%rbp), %rcx
	callq	_ZN4core4iter6traits8iterator8Iterator8for_each17hc2e0483f5bbc32feE
.Ltmp285:
	jmp	.LBB72_4
.Ltmp293:
.LBB72_4:
	.cv_loc	73 12 278 0
	addq	$192, %rsp
	popq	%rbp
	retq
.Ltmp294:
	.seh_handlerdata
	.long	($cppxdata$_ZN120_$LT$proc_macro2..fallback..TokenStream$u20$as$u20$core..iter..traits..collect..Extend$LT$proc_macro2..TokenTree$GT$$GT$6extend17hb140154f5e44d466E)@IMGREL
	.section	.text,"xr",one_only,_ZN120_$LT$proc_macro2..fallback..TokenStream$u20$as$u20$core..iter..traits..collect..Extend$LT$proc_macro2..TokenTree$GT$$GT$6extend17hb140154f5e44d466E
	.seh_endproc
	.def	"?dtor$2@?0?_ZN120_$LT$proc_macro2..fallback..TokenStream$u20$as$u20$core..iter..traits..collect..Extend$LT$proc_macro2..TokenTree$GT$$GT$6extend17hb140154f5e44d466E@4HA";
	.scl	3;
	.type	32;
	.endef
	.p2align	4, 0x90
"?dtor$2@?0?_ZN120_$LT$proc_macro2..fallback..TokenStream$u20$as$u20$core..iter..traits..collect..Extend$LT$proc_macro2..TokenTree$GT$$GT$6extend17hb140154f5e44d466E@4HA":
.seh_proc "?dtor$2@?0?_ZN120_$LT$proc_macro2..fallback..TokenStream$u20$as$u20$core..iter..traits..collect..Extend$LT$proc_macro2..TokenTree$GT$$GT$6extend17hb140154f5e44d466E@4HA"
.LBB72_2:
	movq	%rdx, 16(%rsp)
	pushq	%rbp
	.seh_pushreg %rbp
	subq	$32, %rsp
	.seh_stackalloc 32
	leaq	128(%rdx), %rbp
.Ltmp295:
	.seh_endprologue
	testb	$1, 47(%rbp)
	jne	.LBB72_6
	jmp	.LBB72_5
.LBB72_5:
	.cv_loc	73 12 273 0
	addq	$32, %rsp
	popq	%rbp
	retq
.LBB72_6:
	.cv_loc	73 12 278 0
	movq	-88(%rbp), %rcx
	callq	_ZN4core3ptr157drop_in_place$LT$core..iter..adapters..map..Map$LT$proc_macro2..token_stream..IntoIter$C$quote..__private..parse_spanned..$u7b$$u7b$closure$u7d$$u7d$$GT$$GT$17h8f38dcc230dee164E
	jmp	.LBB72_5
.Ltmp296:
.Lfunc_end72:
	.seh_handlerdata
	.section	.text,"xr",one_only,_ZN120_$LT$proc_macro2..fallback..TokenStream$u20$as$u20$core..iter..traits..collect..Extend$LT$proc_macro2..TokenTree$GT$$GT$6extend17hb140154f5e44d466E
	.seh_endproc
	.section	.xdata,"dr",associative,_ZN120_$LT$proc_macro2..fallback..TokenStream$u20$as$u20$core..iter..traits..collect..Extend$LT$proc_macro2..TokenTree$GT$$GT$6extend17hb140154f5e44d466E
	.p2align	2
$cppxdata$_ZN120_$LT$proc_macro2..fallback..TokenStream$u20$as$u20$core..iter..traits..collect..Extend$LT$proc_macro2..TokenTree$GT$$GT$6extend17hb140154f5e44d466E:
	.long	429065506
	.long	1
	.long	($stateUnwindMap$_ZN120_$LT$proc_macro2..fallback..TokenStream$u20$as$u20$core..iter..traits..collect..Extend$LT$proc_macro2..TokenTree$GT$$GT$6extend17hb140154f5e44d466E)@IMGREL
	.long	0
	.long	0
	.long	3
	.long	($ip2state$_ZN120_$LT$proc_macro2..fallback..TokenStream$u20$as$u20$core..iter..traits..collect..Extend$LT$proc_macro2..TokenTree$GT$$GT$6extend17hb140154f5e44d466E)@IMGREL
	.long	184
	.long	0
	.long	1
$stateUnwindMap$_ZN120_$LT$proc_macro2..fallback..TokenStream$u20$as$u20$core..iter..traits..collect..Extend$LT$proc_macro2..TokenTree$GT$$GT$6extend17hb140154f5e44d466E:
	.long	-1
	.long	"?dtor$2@?0?_ZN120_$LT$proc_macro2..fallback..TokenStream$u20$as$u20$core..iter..traits..collect..Extend$LT$proc_macro2..TokenTree$GT$$GT$6extend17hb140154f5e44d466E@4HA"@IMGREL
$ip2state$_ZN120_$LT$proc_macro2..fallback..TokenStream$u20$as$u20$core..iter..traits..collect..Extend$LT$proc_macro2..TokenTree$GT$$GT$6extend17hb140154f5e44d466E:
	.long	.Lfunc_begin72@IMGREL
	.long	-1
	.long	.Ltmp280@IMGREL+1
	.long	0
	.long	.Ltmp285@IMGREL+1
	.long	-1
	.section	.text,"xr",one_only,_ZN120_$LT$proc_macro2..fallback..TokenStream$u20$as$u20$core..iter..traits..collect..Extend$LT$proc_macro2..TokenTree$GT$$GT$6extend17hb140154f5e44d466E

	.def	_ZN120_$LT$proc_macro2..fallback..TokenStream$u20$as$u20$core..iter..traits..collect..Extend$LT$proc_macro2..TokenTree$GT$$GT$6extend17hc6bb46a6e32dc2b7E;
	.scl	2;
	.type	32;
	.endef
	.section	.text,"xr",one_only,_ZN120_$LT$proc_macro2..fallback..TokenStream$u20$as$u20$core..iter..traits..collect..Extend$LT$proc_macro2..TokenTree$GT$$GT$6extend17hc6bb46a6e32dc2b7E
	.globl	_ZN120_$LT$proc_macro2..fallback..TokenStream$u20$as$u20$core..iter..traits..collect..Extend$LT$proc_macro2..TokenTree$GT$$GT$6extend17hc6bb46a6e32dc2b7E
	.p2align	4, 0x90
_ZN120_$LT$proc_macro2..fallback..TokenStream$u20$as$u20$core..iter..traits..collect..Extend$LT$proc_macro2..TokenTree$GT$$GT$6extend17hc6bb46a6e32dc2b7E:
.Lfunc_begin73:
	.cv_func_id 74
	.cv_loc	74 12 273 0
.seh_proc _ZN120_$LT$proc_macro2..fallback..TokenStream$u20$as$u20$core..iter..traits..collect..Extend$LT$proc_macro2..TokenTree$GT$$GT$6extend17hc6bb46a6e32dc2b7E
	.seh_handler __CxxFrameHandler3, @unwind, @except
	pushq	%rbp
	.seh_pushreg %rbp
	subq	$144, %rsp
	.seh_stackalloc 144
	leaq	128(%rsp), %rbp
	.seh_setframe %rbp, 128
	.seh_endprologue
	movq	$-2, 8(%rbp)
	movq	%rdx, -96(%rbp)
.Ltmp303:
	movq	%rcx, (%rbp)
.Ltmp304:
	.cv_loc	74 12 274 0
	movb	$0, -1(%rbp)
	movb	$1, -1(%rbp)
.Ltmp297:
	callq	_ZN11proc_macro25rcvec14RcVec$LT$T$GT$8make_mut17hd8b2b4dc50ffadeaE
.Ltmp305:
.Ltmp298:
	movq	%rax, -88(%rbp)
.Ltmp306:
	jmp	.LBB73_1
.Ltmp307:
.LBB73_1:
	movq	-96(%rbp), %rax
	movq	-88(%rbp), %rcx
	movq	%rcx, -80(%rbp)
.Ltmp308:
	.cv_loc	74 12 275 0
	movb	$0, -1(%rbp)
	movq	16(%rax), %rcx
	movq	%rcx, -32(%rbp)
	vmovdqu	(%rax), %xmm0
	vmovdqa	%xmm0, -48(%rbp)
.Ltmp299:
	leaq	-72(%rbp), %rcx
	leaq	-48(%rbp), %rdx
	callq	_ZN63_$LT$I$u20$as$u20$core..iter..traits..collect..IntoIterator$GT$9into_iter17h7b30efe849df1bffE
.Ltmp300:
	jmp	.LBB73_3
.Ltmp309:
.LBB73_3:
	.cv_loc	74 12 277 0
	leaq	-80(%rbp), %rax
	movq	%rax, -16(%rbp)
	.cv_loc	74 12 275 0
	movq	-16(%rbp), %rdx
.Ltmp301:
	leaq	-72(%rbp), %rcx
	callq	_ZN4core4iter6traits8iterator8Iterator8for_each17h2afa2f020c236a29E
.Ltmp302:
	jmp	.LBB73_4
.Ltmp310:
.LBB73_4:
	.cv_loc	74 12 278 0
	addq	$144, %rsp
	popq	%rbp
	retq
.Ltmp311:
	.seh_handlerdata
	.long	($cppxdata$_ZN120_$LT$proc_macro2..fallback..TokenStream$u20$as$u20$core..iter..traits..collect..Extend$LT$proc_macro2..TokenTree$GT$$GT$6extend17hc6bb46a6e32dc2b7E)@IMGREL
	.section	.text,"xr",one_only,_ZN120_$LT$proc_macro2..fallback..TokenStream$u20$as$u20$core..iter..traits..collect..Extend$LT$proc_macro2..TokenTree$GT$$GT$6extend17hc6bb46a6e32dc2b7E
	.seh_endproc
	.def	"?dtor$2@?0?_ZN120_$LT$proc_macro2..fallback..TokenStream$u20$as$u20$core..iter..traits..collect..Extend$LT$proc_macro2..TokenTree$GT$$GT$6extend17hc6bb46a6e32dc2b7E@4HA";
	.scl	3;
	.type	32;
	.endef
	.p2align	4, 0x90
"?dtor$2@?0?_ZN120_$LT$proc_macro2..fallback..TokenStream$u20$as$u20$core..iter..traits..collect..Extend$LT$proc_macro2..TokenTree$GT$$GT$6extend17hc6bb46a6e32dc2b7E@4HA":
.seh_proc "?dtor$2@?0?_ZN120_$LT$proc_macro2..fallback..TokenStream$u20$as$u20$core..iter..traits..collect..Extend$LT$proc_macro2..TokenTree$GT$$GT$6extend17hc6bb46a6e32dc2b7E@4HA"
.LBB73_2:
	movq	%rdx, 16(%rsp)
	pushq	%rbp
	.seh_pushreg %rbp
	subq	$32, %rsp
	.seh_stackalloc 32
	leaq	128(%rdx), %rbp
.Ltmp312:
	.seh_endprologue
	testb	$1, -1(%rbp)
	jne	.LBB73_6
	jmp	.LBB73_5
.LBB73_5:
	.cv_loc	74 12 273 0
	addq	$32, %rsp
	popq	%rbp
	retq
.LBB73_6:
	.cv_loc	74 12 278 0
	jmp	.LBB73_5
.Ltmp313:
.Lfunc_end73:
	.seh_handlerdata
	.section	.text,"xr",one_only,_ZN120_$LT$proc_macro2..fallback..TokenStream$u20$as$u20$core..iter..traits..collect..Extend$LT$proc_macro2..TokenTree$GT$$GT$6extend17hc6bb46a6e32dc2b7E
	.seh_endproc
	.section	.xdata,"dr",associative,_ZN120_$LT$proc_macro2..fallback..TokenStream$u20$as$u20$core..iter..traits..collect..Extend$LT$proc_macro2..TokenTree$GT$$GT$6extend17hc6bb46a6e32dc2b7E
	.p2align	2
$cppxdata$_ZN120_$LT$proc_macro2..fallback..TokenStream$u20$as$u20$core..iter..traits..collect..Extend$LT$proc_macro2..TokenTree$GT$$GT$6extend17hc6bb46a6e32dc2b7E:
	.long	429065506
	.long	1
	.long	($stateUnwindMap$_ZN120_$LT$proc_macro2..fallback..TokenStream$u20$as$u20$core..iter..traits..collect..Extend$LT$proc_macro2..TokenTree$GT$$GT$6extend17hc6bb46a6e32dc2b7E)@IMGREL
	.long	0
	.long	0
	.long	3
	.long	($ip2state$_ZN120_$LT$proc_macro2..fallback..TokenStream$u20$as$u20$core..iter..traits..collect..Extend$LT$proc_macro2..TokenTree$GT$$GT$6extend17hc6bb46a6e32dc2b7E)@IMGREL
	.long	136
	.long	0
	.long	1
$stateUnwindMap$_ZN120_$LT$proc_macro2..fallback..TokenStream$u20$as$u20$core..iter..traits..collect..Extend$LT$proc_macro2..TokenTree$GT$$GT$6extend17hc6bb46a6e32dc2b7E:
	.long	-1
	.long	"?dtor$2@?0?_ZN120_$LT$proc_macro2..fallback..TokenStream$u20$as$u20$core..iter..traits..collect..Extend$LT$proc_macro2..TokenTree$GT$$GT$6extend17hc6bb46a6e32dc2b7E@4HA"@IMGREL
$ip2state$_ZN120_$LT$proc_macro2..fallback..TokenStream$u20$as$u20$core..iter..traits..collect..Extend$LT$proc_macro2..TokenTree$GT$$GT$6extend17hc6bb46a6e32dc2b7E:
	.long	.Lfunc_begin73@IMGREL
	.long	-1
	.long	.Ltmp297@IMGREL+1
	.long	0
	.long	.Ltmp302@IMGREL+1
	.long	-1
	.section	.text,"xr",one_only,_ZN120_$LT$proc_macro2..fallback..TokenStream$u20$as$u20$core..iter..traits..collect..Extend$LT$proc_macro2..TokenTree$GT$$GT$6extend17hc6bb46a6e32dc2b7E

	.def	_ZN120_$LT$proc_macro2..fallback..TokenStream$u20$as$u20$core..iter..traits..collect..Extend$LT$proc_macro2..TokenTree$GT$$GT$6extend28_$u7b$$u7b$closure$u7d$$u7d$17h525123e10a90c1a7E;
	.scl	2;
	.type	32;
	.endef
	.section	.text,"xr",one_only,_ZN120_$LT$proc_macro2..fallback..TokenStream$u20$as$u20$core..iter..traits..collect..Extend$LT$proc_macro2..TokenTree$GT$$GT$6extend28_$u7b$$u7b$closure$u7d$$u7d$17h525123e10a90c1a7E
	.globl	_ZN120_$LT$proc_macro2..fallback..TokenStream$u20$as$u20$core..iter..traits..collect..Extend$LT$proc_macro2..TokenTree$GT$$GT$6extend28_$u7b$$u7b$closure$u7d$$u7d$17h525123e10a90c1a7E
	.p2align	4, 0x90
_ZN120_$LT$proc_macro2..fallback..TokenStream$u20$as$u20$core..iter..traits..collect..Extend$LT$proc_macro2..TokenTree$GT$$GT$6extend28_$u7b$$u7b$closure$u7d$$u7d$17h525123e10a90c1a7E:
.Lfunc_begin74:
	.cv_func_id 75
	.cv_loc	75 12 277 0
.seh_proc _ZN120_$LT$proc_macro2..fallback..TokenStream$u20$as$u20$core..iter..traits..collect..Extend$LT$proc_macro2..TokenTree$GT$$GT$6extend28_$u7b$$u7b$closure$u7d$$u7d$17h525123e10a90c1a7E
	.seh_handler __CxxFrameHandler3, @unwind, @except
	pushq	%rbp
	.seh_pushreg %rbp
	subq	$128, %rsp
	.seh_stackalloc 128
	leaq	128(%rsp), %rbp
	.seh_setframe %rbp, 128
	.seh_endprologue
	movq	$-2, -8(%rbp)
	movq	%rdx, -96(%rbp)
.Ltmp318:
	movq	%rcx, -24(%rbp)
	movq	-24(%rbp), %rax
	movq	(%rax), %rax
	movq	%rax, -16(%rbp)
.Ltmp319:
	movb	$0, -25(%rbp)
	movb	$1, -25(%rbp)
	movq	(%rcx), %rcx
.Ltmp314:
	callq	_ZN11proc_macro25rcvec17RcVecMut$LT$T$GT$6as_mut17hb39b9d6d922e5df5E
.Ltmp320:
.Ltmp315:
	movq	%rax, -88(%rbp)
.Ltmp321:
	jmp	.LBB74_1
.Ltmp322:
.LBB74_1:
	movq	-88(%rbp), %rcx
	movq	-96(%rbp), %rax
	movb	$0, -25(%rbp)
	vmovups	(%rax), %ymm0
	vmovups	16(%rax), %ymm1
	vmovups	%ymm1, -64(%rbp)
	vmovups	%ymm0, -80(%rbp)
.Ltmp316:
	leaq	-80(%rbp), %rdx
	vzeroupper
	callq	_ZN11proc_macro28fallback26push_token_from_proc_macro17h342d836d7d4a8110E
.Ltmp317:
	jmp	.LBB74_3
.Ltmp323:
.LBB74_3:
	addq	$128, %rsp
	popq	%rbp
	retq
.Ltmp324:
	.seh_handlerdata
	.long	($cppxdata$_ZN120_$LT$proc_macro2..fallback..TokenStream$u20$as$u20$core..iter..traits..collect..Extend$LT$proc_macro2..TokenTree$GT$$GT$6extend28_$u7b$$u7b$closure$u7d$$u7d$17h525123e10a90c1a7E)@IMGREL
	.section	.text,"xr",one_only,_ZN120_$LT$proc_macro2..fallback..TokenStream$u20$as$u20$core..iter..traits..collect..Extend$LT$proc_macro2..TokenTree$GT$$GT$6extend28_$u7b$$u7b$closure$u7d$$u7d$17h525123e10a90c1a7E
	.seh_endproc
	.def	"?dtor$2@?0?_ZN120_$LT$proc_macro2..fallback..TokenStream$u20$as$u20$core..iter..traits..collect..Extend$LT$proc_macro2..TokenTree$GT$$GT$6extend28_$u7b$$u7b$closure$u7d$$u7d$17h525123e10a90c1a7E@4HA";
	.scl	3;
	.type	32;
	.endef
	.p2align	4, 0x90
"?dtor$2@?0?_ZN120_$LT$proc_macro2..fallback..TokenStream$u20$as$u20$core..iter..traits..collect..Extend$LT$proc_macro2..TokenTree$GT$$GT$6extend28_$u7b$$u7b$closure$u7d$$u7d$17h525123e10a90c1a7E@4HA":
.seh_proc "?dtor$2@?0?_ZN120_$LT$proc_macro2..fallback..TokenStream$u20$as$u20$core..iter..traits..collect..Extend$LT$proc_macro2..TokenTree$GT$$GT$6extend28_$u7b$$u7b$closure$u7d$$u7d$17h525123e10a90c1a7E@4HA"
.LBB74_2:
	movq	%rdx, 16(%rsp)
	pushq	%rbp
	.seh_pushreg %rbp
	subq	$32, %rsp
	.seh_stackalloc 32
	leaq	128(%rdx), %rbp
.Ltmp325:
	.seh_endprologue
	testb	$1, -25(%rbp)
	jne	.LBB74_5
	jmp	.LBB74_4
.LBB74_4:
	addq	$32, %rsp
	popq	%rbp
	retq
.LBB74_5:
	movq	-96(%rbp), %rcx
	callq	_ZN4core3ptr43drop_in_place$LT$proc_macro2..TokenTree$GT$17h57ccd2f8f7c93c0bE
	jmp	.LBB74_4
.Ltmp326:
.Lfunc_end74:
	.seh_handlerdata
	.section	.text,"xr",one_only,_ZN120_$LT$proc_macro2..fallback..TokenStream$u20$as$u20$core..iter..traits..collect..Extend$LT$proc_macro2..TokenTree$GT$$GT$6extend28_$u7b$$u7b$closure$u7d$$u7d$17h525123e10a90c1a7E
	.seh_endproc
	.section	.xdata,"dr",associative,_ZN120_$LT$proc_macro2..fallback..TokenStream$u20$as$u20$core..iter..traits..collect..Extend$LT$proc_macro2..TokenTree$GT$$GT$6extend28_$u7b$$u7b$closure$u7d$$u7d$17h525123e10a90c1a7E
	.p2align	2
$cppxdata$_ZN120_$LT$proc_macro2..fallback..TokenStream$u20$as$u20$core..iter..traits..collect..Extend$LT$proc_macro2..TokenTree$GT$$GT$6extend28_$u7b$$u7b$closure$u7d$$u7d$17h525123e10a90c1a7E:
	.long	429065506
	.long	1
	.long	($stateUnwindMap$_ZN120_$LT$proc_macro2..fallback..TokenStream$u20$as$u20$core..iter..traits..collect..Extend$LT$proc_macro2..TokenTree$GT$$GT$6extend28_$u7b$$u7b$closure$u7d$$u7d$17h525123e10a90c1a7E)@IMGREL
	.long	0
	.long	0
	.long	3
	.long	($ip2state$_ZN120_$LT$proc_macro2..fallback..TokenStream$u20$as$u20$core..iter..traits..collect..Extend$LT$proc_macro2..TokenTree$GT$$GT$6extend28_$u7b$$u7b$closure$u7d$$u7d$17h525123e10a90c1a7E)@IMGREL
	.long	120
	.long	0
	.long	1
$stateUnwindMap$_ZN120_$LT$proc_macro2..fallback..TokenStream$u20$as$u20$core..iter..traits..collect..Extend$LT$proc_macro2..TokenTree$GT$$GT$6extend28_$u7b$$u7b$closure$u7d$$u7d$17h525123e10a90c1a7E:
	.long	-1
	.long	"?dtor$2@?0?_ZN120_$LT$proc_macro2..fallback..TokenStream$u20$as$u20$core..iter..traits..collect..Extend$LT$proc_macro2..TokenTree$GT$$GT$6extend28_$u7b$$u7b$closure$u7d$$u7d$17h525123e10a90c1a7E@4HA"@IMGREL
$ip2state$_ZN120_$LT$proc_macro2..fallback..TokenStream$u20$as$u20$core..iter..traits..collect..Extend$LT$proc_macro2..TokenTree$GT$$GT$6extend28_$u7b$$u7b$closure$u7d$$u7d$17h525123e10a90c1a7E:
	.long	.Lfunc_begin74@IMGREL
	.long	-1
	.long	.Ltmp314@IMGREL+1
	.long	0
	.long	.Ltmp317@IMGREL+1
	.long	-1
	.section	.text,"xr",one_only,_ZN120_$LT$proc_macro2..fallback..TokenStream$u20$as$u20$core..iter..traits..collect..Extend$LT$proc_macro2..TokenTree$GT$$GT$6extend28_$u7b$$u7b$closure$u7d$$u7d$17h525123e10a90c1a7E

	.def	_ZN120_$LT$proc_macro2..fallback..TokenStream$u20$as$u20$core..iter..traits..collect..Extend$LT$proc_macro2..TokenTree$GT$$GT$6extend28_$u7b$$u7b$closure$u7d$$u7d$17h5a6434162e78a4cdE;
	.scl	2;
	.type	32;
	.endef
	.section	.text,"xr",one_only,_ZN120_$LT$proc_macro2..fallback..TokenStream$u20$as$u20$core..iter..traits..collect..Extend$LT$proc_macro2..TokenTree$GT$$GT$6extend28_$u7b$$u7b$closure$u7d$$u7d$17h5a6434162e78a4cdE
	.globl	_ZN120_$LT$proc_macro2..fallback..TokenStream$u20$as$u20$core..iter..traits..collect..Extend$LT$proc_macro2..TokenTree$GT$$GT$6extend28_$u7b$$u7b$closure$u7d$$u7d$17h5a6434162e78a4cdE
	.p2align	4, 0x90
_ZN120_$LT$proc_macro2..fallback..TokenStream$u20$as$u20$core..iter..traits..collect..Extend$LT$proc_macro2..TokenTree$GT$$GT$6extend28_$u7b$$u7b$closure$u7d$$u7d$17h5a6434162e78a4cdE:
.Lfunc_begin75:
	.cv_func_id 76
	.cv_loc	76 12 277 0
.seh_proc _ZN120_$LT$proc_macro2..fallback..TokenStream$u20$as$u20$core..iter..traits..collect..Extend$LT$proc_macro2..TokenTree$GT$$GT$6extend28_$u7b$$u7b$closure$u7d$$u7d$17h5a6434162e78a4cdE
	.seh_handler __CxxFrameHandler3, @unwind, @except
	pushq	%rbp
	.seh_pushreg %rbp
	subq	$128, %rsp
	.seh_stackalloc 128
	leaq	128(%rsp), %rbp
	.seh_setframe %rbp, 128
	.seh_endprologue
	movq	$-2, -8(%rbp)
	movq	%rdx, -96(%rbp)
.Ltmp331:
	movq	%rcx, -24(%rbp)
	movq	-24(%rbp), %rax
	movq	(%rax), %rax
	movq	%rax, -16(%rbp)
.Ltmp332:
	movb	$0, -25(%rbp)
	movb	$1, -25(%rbp)
	movq	(%rcx), %rcx
.Ltmp327:
	callq	_ZN11proc_macro25rcvec17RcVecMut$LT$T$GT$6as_mut17hb39b9d6d922e5df5E
.Ltmp333:
.Ltmp328:
	movq	%rax, -88(%rbp)
.Ltmp334:
	jmp	.LBB75_1
.Ltmp335:
.LBB75_1:
	movq	-88(%rbp), %rcx
	movq	-96(%rbp), %rax
	movb	$0, -25(%rbp)
	vmovups	(%rax), %ymm0
	vmovups	16(%rax), %ymm1
	vmovups	%ymm1, -64(%rbp)
	vmovups	%ymm0, -80(%rbp)
.Ltmp329:
	leaq	-80(%rbp), %rdx
	vzeroupper
	callq	_ZN11proc_macro28fallback26push_token_from_proc_macro17h342d836d7d4a8110E
.Ltmp330:
	jmp	.LBB75_3
.Ltmp336:
.LBB75_3:
	addq	$128, %rsp
	popq	%rbp
	retq
.Ltmp337:
	.seh_handlerdata
	.long	($cppxdata$_ZN120_$LT$proc_macro2..fallback..TokenStream$u20$as$u20$core..iter..traits..collect..Extend$LT$proc_macro2..TokenTree$GT$$GT$6extend28_$u7b$$u7b$closure$u7d$$u7d$17h5a6434162e78a4cdE)@IMGREL
	.section	.text,"xr",one_only,_ZN120_$LT$proc_macro2..fallback..TokenStream$u20$as$u20$core..iter..traits..collect..Extend$LT$proc_macro2..TokenTree$GT$$GT$6extend28_$u7b$$u7b$closure$u7d$$u7d$17h5a6434162e78a4cdE
	.seh_endproc
	.def	"?dtor$2@?0?_ZN120_$LT$proc_macro2..fallback..TokenStream$u20$as$u20$core..iter..traits..collect..Extend$LT$proc_macro2..TokenTree$GT$$GT$6extend28_$u7b$$u7b$closure$u7d$$u7d$17h5a6434162e78a4cdE@4HA";
	.scl	3;
	.type	32;
	.endef
	.p2align	4, 0x90
"?dtor$2@?0?_ZN120_$LT$proc_macro2..fallback..TokenStream$u20$as$u20$core..iter..traits..collect..Extend$LT$proc_macro2..TokenTree$GT$$GT$6extend28_$u7b$$u7b$closure$u7d$$u7d$17h5a6434162e78a4cdE@4HA":
.seh_proc "?dtor$2@?0?_ZN120_$LT$proc_macro2..fallback..TokenStream$u20$as$u20$core..iter..traits..collect..Extend$LT$proc_macro2..TokenTree$GT$$GT$6extend28_$u7b$$u7b$closure$u7d$$u7d$17h5a6434162e78a4cdE@4HA"
.LBB75_2:
	movq	%rdx, 16(%rsp)
	pushq	%rbp
	.seh_pushreg %rbp
	subq	$32, %rsp
	.seh_stackalloc 32
	leaq	128(%rdx), %rbp
.Ltmp338:
	.seh_endprologue
	testb	$1, -25(%rbp)
	jne	.LBB75_5
	jmp	.LBB75_4
.LBB75_4:
	addq	$32, %rsp
	popq	%rbp
	retq
.LBB75_5:
	movq	-96(%rbp), %rcx
	callq	_ZN4core3ptr43drop_in_place$LT$proc_macro2..TokenTree$GT$17h57ccd2f8f7c93c0bE
	jmp	.LBB75_4
.Ltmp339:
.Lfunc_end75:
	.seh_handlerdata
	.section	.text,"xr",one_only,_ZN120_$LT$proc_macro2..fallback..TokenStream$u20$as$u20$core..iter..traits..collect..Extend$LT$proc_macro2..TokenTree$GT$$GT$6extend28_$u7b$$u7b$closure$u7d$$u7d$17h5a6434162e78a4cdE
	.seh_endproc
	.section	.xdata,"dr",associative,_ZN120_$LT$proc_macro2..fallback..TokenStream$u20$as$u20$core..iter..traits..collect..Extend$LT$proc_macro2..TokenTree$GT$$GT$6extend28_$u7b$$u7b$closure$u7d$$u7d$17h5a6434162e78a4cdE
	.p2align	2
$cppxdata$_ZN120_$LT$proc_macro2..fallback..TokenStream$u20$as$u20$core..iter..traits..collect..Extend$LT$proc_macro2..TokenTree$GT$$GT$6extend28_$u7b$$u7b$closure$u7d$$u7d$17h5a6434162e78a4cdE:
	.long	429065506
	.long	1
	.long	($stateUnwindMap$_ZN120_$LT$proc_macro2..fallback..TokenStream$u20$as$u20$core..iter..traits..collect..Extend$LT$proc_macro2..TokenTree$GT$$GT$6extend28_$u7b$$u7b$closure$u7d$$u7d$17h5a6434162e78a4cdE)@IMGREL
	.long	0
	.long	0
	.long	3
	.long	($ip2state$_ZN120_$LT$proc_macro2..fallback..TokenStream$u20$as$u20$core..iter..traits..collect..Extend$LT$proc_macro2..TokenTree$GT$$GT$6extend28_$u7b$$u7b$closure$u7d$$u7d$17h5a6434162e78a4cdE)@IMGREL
	.long	120
	.long	0
	.long	1
$stateUnwindMap$_ZN120_$LT$proc_macro2..fallback..TokenStream$u20$as$u20$core..iter..traits..collect..Extend$LT$proc_macro2..TokenTree$GT$$GT$6extend28_$u7b$$u7b$closure$u7d$$u7d$17h5a6434162e78a4cdE:
	.long	-1
	.long	"?dtor$2@?0?_ZN120_$LT$proc_macro2..fallback..TokenStream$u20$as$u20$core..iter..traits..collect..Extend$LT$proc_macro2..TokenTree$GT$$GT$6extend28_$u7b$$u7b$closure$u7d$$u7d$17h5a6434162e78a4cdE@4HA"@IMGREL
$ip2state$_ZN120_$LT$proc_macro2..fallback..TokenStream$u20$as$u20$core..iter..traits..collect..Extend$LT$proc_macro2..TokenTree$GT$$GT$6extend28_$u7b$$u7b$closure$u7d$$u7d$17h5a6434162e78a4cdE:
	.long	.Lfunc_begin75@IMGREL
	.long	-1
	.long	.Ltmp327@IMGREL+1
	.long	0
	.long	.Ltmp330@IMGREL+1
	.long	-1
	.section	.text,"xr",one_only,_ZN120_$LT$proc_macro2..fallback..TokenStream$u20$as$u20$core..iter..traits..collect..Extend$LT$proc_macro2..TokenTree$GT$$GT$6extend28_$u7b$$u7b$closure$u7d$$u7d$17h5a6434162e78a4cdE

	.def	_ZN120_$LT$proc_macro2..fallback..TokenStream$u20$as$u20$core..iter..traits..collect..Extend$LT$proc_macro2..TokenTree$GT$$GT$6extend28_$u7b$$u7b$closure$u7d$$u7d$17h69bce38b7f291cadE;
	.scl	2;
	.type	32;
	.endef
	.section	.text,"xr",one_only,_ZN120_$LT$proc_macro2..fallback..TokenStream$u20$as$u20$core..iter..traits..collect..Extend$LT$proc_macro2..TokenTree$GT$$GT$6extend28_$u7b$$u7b$closure$u7d$$u7d$17h69bce38b7f291cadE
	.globl	_ZN120_$LT$proc_macro2..fallback..TokenStream$u20$as$u20$core..iter..traits..collect..Extend$LT$proc_macro2..TokenTree$GT$$GT$6extend28_$u7b$$u7b$closure$u7d$$u7d$17h69bce38b7f291cadE
	.p2align	4, 0x90
_ZN120_$LT$proc_macro2..fallback..TokenStream$u20$as$u20$core..iter..traits..collect..Extend$LT$proc_macro2..TokenTree$GT$$GT$6extend28_$u7b$$u7b$closure$u7d$$u7d$17h69bce38b7f291cadE:
.Lfunc_begin76:
	.cv_func_id 77
	.cv_loc	77 12 277 0
.seh_proc _ZN120_$LT$proc_macro2..fallback..TokenStream$u20$as$u20$core..iter..traits..collect..Extend$LT$proc_macro2..TokenTree$GT$$GT$6extend28_$u7b$$u7b$closure$u7d$$u7d$17h69bce38b7f291cadE
	.seh_handler __CxxFrameHandler3, @unwind, @except
	pushq	%rbp
	.seh_pushreg %rbp
	subq	$128, %rsp
	.seh_stackalloc 128
	leaq	128(%rsp), %rbp
	.seh_setframe %rbp, 128
	.seh_endprologue
	movq	$-2, -8(%rbp)
	movq	%rdx, -96(%rbp)
.Ltmp344:
	movq	%rcx, -24(%rbp)
	movq	-24(%rbp), %rax
	movq	(%rax), %rax
	movq	%rax, -16(%rbp)
.Ltmp345:
	movb	$0, -25(%rbp)
	movb	$1, -25(%rbp)
	movq	(%rcx), %rcx
.Ltmp340:
	callq	_ZN11proc_macro25rcvec17RcVecMut$LT$T$GT$6as_mut17hb39b9d6d922e5df5E
.Ltmp346:
.Ltmp341:
	movq	%rax, -88(%rbp)
.Ltmp347:
	jmp	.LBB76_1
.Ltmp348:
.LBB76_1:
	movq	-88(%rbp), %rcx
	movq	-96(%rbp), %rax
	movb	$0, -25(%rbp)
	vmovups	(%rax), %ymm0
	vmovups	16(%rax), %ymm1
	vmovups	%ymm1, -64(%rbp)
	vmovups	%ymm0, -80(%rbp)
.Ltmp342:
	leaq	-80(%rbp), %rdx
	vzeroupper
	callq	_ZN11proc_macro28fallback26push_token_from_proc_macro17h342d836d7d4a8110E
.Ltmp343:
	jmp	.LBB76_3
.Ltmp349:
.LBB76_3:
	addq	$128, %rsp
	popq	%rbp
	retq
.Ltmp350:
	.seh_handlerdata
	.long	($cppxdata$_ZN120_$LT$proc_macro2..fallback..TokenStream$u20$as$u20$core..iter..traits..collect..Extend$LT$proc_macro2..TokenTree$GT$$GT$6extend28_$u7b$$u7b$closure$u7d$$u7d$17h69bce38b7f291cadE)@IMGREL
	.section	.text,"xr",one_only,_ZN120_$LT$proc_macro2..fallback..TokenStream$u20$as$u20$core..iter..traits..collect..Extend$LT$proc_macro2..TokenTree$GT$$GT$6extend28_$u7b$$u7b$closure$u7d$$u7d$17h69bce38b7f291cadE
	.seh_endproc
	.def	"?dtor$2@?0?_ZN120_$LT$proc_macro2..fallback..TokenStream$u20$as$u20$core..iter..traits..collect..Extend$LT$proc_macro2..TokenTree$GT$$GT$6extend28_$u7b$$u7b$closure$u7d$$u7d$17h69bce38b7f291cadE@4HA";
	.scl	3;
	.type	32;
	.endef
	.p2align	4, 0x90
"?dtor$2@?0?_ZN120_$LT$proc_macro2..fallback..TokenStream$u20$as$u20$core..iter..traits..collect..Extend$LT$proc_macro2..TokenTree$GT$$GT$6extend28_$u7b$$u7b$closure$u7d$$u7d$17h69bce38b7f291cadE@4HA":
.seh_proc "?dtor$2@?0?_ZN120_$LT$proc_macro2..fallback..TokenStream$u20$as$u20$core..iter..traits..collect..Extend$LT$proc_macro2..TokenTree$GT$$GT$6extend28_$u7b$$u7b$closure$u7d$$u7d$17h69bce38b7f291cadE@4HA"
.LBB76_2:
	movq	%rdx, 16(%rsp)
	pushq	%rbp
	.seh_pushreg %rbp
	subq	$32, %rsp
	.seh_stackalloc 32
	leaq	128(%rdx), %rbp
.Ltmp351:
	.seh_endprologue
	testb	$1, -25(%rbp)
	jne	.LBB76_5
	jmp	.LBB76_4
.LBB76_4:
	addq	$32, %rsp
	popq	%rbp
	retq
.LBB76_5:
	movq	-96(%rbp), %rcx
	callq	_ZN4core3ptr43drop_in_place$LT$proc_macro2..TokenTree$GT$17h57ccd2f8f7c93c0bE
	jmp	.LBB76_4
.Ltmp352:
.Lfunc_end76:
	.seh_handlerdata
	.section	.text,"xr",one_only,_ZN120_$LT$proc_macro2..fallback..TokenStream$u20$as$u20$core..iter..traits..collect..Extend$LT$proc_macro2..TokenTree$GT$$GT$6extend28_$u7b$$u7b$closure$u7d$$u7d$17h69bce38b7f291cadE
	.seh_endproc
	.section	.xdata,"dr",associative,_ZN120_$LT$proc_macro2..fallback..TokenStream$u20$as$u20$core..iter..traits..collect..Extend$LT$proc_macro2..TokenTree$GT$$GT$6extend28_$u7b$$u7b$closure$u7d$$u7d$17h69bce38b7f291cadE
	.p2align	2
$cppxdata$_ZN120_$LT$proc_macro2..fallback..TokenStream$u20$as$u20$core..iter..traits..collect..Extend$LT$proc_macro2..TokenTree$GT$$GT$6extend28_$u7b$$u7b$closure$u7d$$u7d$17h69bce38b7f291cadE:
	.long	429065506
	.long	1
	.long	($stateUnwindMap$_ZN120_$LT$proc_macro2..fallback..TokenStream$u20$as$u20$core..iter..traits..collect..Extend$LT$proc_macro2..TokenTree$GT$$GT$6extend28_$u7b$$u7b$closure$u7d$$u7d$17h69bce38b7f291cadE)@IMGREL
	.long	0
	.long	0
	.long	3
	.long	($ip2state$_ZN120_$LT$proc_macro2..fallback..TokenStream$u20$as$u20$core..iter..traits..collect..Extend$LT$proc_macro2..TokenTree$GT$$GT$6extend28_$u7b$$u7b$closure$u7d$$u7d$17h69bce38b7f291cadE)@IMGREL
	.long	120
	.long	0
	.long	1
$stateUnwindMap$_ZN120_$LT$proc_macro2..fallback..TokenStream$u20$as$u20$core..iter..traits..collect..Extend$LT$proc_macro2..TokenTree$GT$$GT$6extend28_$u7b$$u7b$closure$u7d$$u7d$17h69bce38b7f291cadE:
	.long	-1
	.long	"?dtor$2@?0?_ZN120_$LT$proc_macro2..fallback..TokenStream$u20$as$u20$core..iter..traits..collect..Extend$LT$proc_macro2..TokenTree$GT$$GT$6extend28_$u7b$$u7b$closure$u7d$$u7d$17h69bce38b7f291cadE@4HA"@IMGREL
$ip2state$_ZN120_$LT$proc_macro2..fallback..TokenStream$u20$as$u20$core..iter..traits..collect..Extend$LT$proc_macro2..TokenTree$GT$$GT$6extend28_$u7b$$u7b$closure$u7d$$u7d$17h69bce38b7f291cadE:
	.long	.Lfunc_begin76@IMGREL
	.long	-1
	.long	.Ltmp340@IMGREL+1
	.long	0
	.long	.Ltmp343@IMGREL+1
	.long	-1
	.section	.text,"xr",one_only,_ZN120_$LT$proc_macro2..fallback..TokenStream$u20$as$u20$core..iter..traits..collect..Extend$LT$proc_macro2..TokenTree$GT$$GT$6extend28_$u7b$$u7b$closure$u7d$$u7d$17h69bce38b7f291cadE

	.def	_ZN120_$LT$proc_macro2..fallback..TokenStream$u20$as$u20$core..iter..traits..collect..Extend$LT$proc_macro2..TokenTree$GT$$GT$6extend28_$u7b$$u7b$closure$u7d$$u7d$17hb14ff14966e625d4E;
	.scl	2;
	.type	32;
	.endef
	.section	.text,"xr",one_only,_ZN120_$LT$proc_macro2..fallback..TokenStream$u20$as$u20$core..iter..traits..collect..Extend$LT$proc_macro2..TokenTree$GT$$GT$6extend28_$u7b$$u7b$closure$u7d$$u7d$17hb14ff14966e625d4E
	.globl	_ZN120_$LT$proc_macro2..fallback..TokenStream$u20$as$u20$core..iter..traits..collect..Extend$LT$proc_macro2..TokenTree$GT$$GT$6extend28_$u7b$$u7b$closure$u7d$$u7d$17hb14ff14966e625d4E
	.p2align	4, 0x90
_ZN120_$LT$proc_macro2..fallback..TokenStream$u20$as$u20$core..iter..traits..collect..Extend$LT$proc_macro2..TokenTree$GT$$GT$6extend28_$u7b$$u7b$closure$u7d$$u7d$17hb14ff14966e625d4E:
.Lfunc_begin77:
	.cv_func_id 78
	.cv_loc	78 12 277 0
.seh_proc _ZN120_$LT$proc_macro2..fallback..TokenStream$u20$as$u20$core..iter..traits..collect..Extend$LT$proc_macro2..TokenTree$GT$$GT$6extend28_$u7b$$u7b$closure$u7d$$u7d$17hb14ff14966e625d4E
	.seh_handler __CxxFrameHandler3, @unwind, @except
	pushq	%rbp
	.seh_pushreg %rbp
	subq	$128, %rsp
	.seh_stackalloc 128
	leaq	128(%rsp), %rbp
	.seh_setframe %rbp, 128
	.seh_endprologue
	movq	$-2, -8(%rbp)
	movq	%rdx, -96(%rbp)
.Ltmp357:
	movq	%rcx, -24(%rbp)
	movq	-24(%rbp), %rax
	movq	(%rax), %rax
	movq	%rax, -16(%rbp)
.Ltmp358:
	movb	$0, -25(%rbp)
	movb	$1, -25(%rbp)
	movq	(%rcx), %rcx
.Ltmp353:
	callq	_ZN11proc_macro25rcvec17RcVecMut$LT$T$GT$6as_mut17hb39b9d6d922e5df5E
.Ltmp359:
.Ltmp354:
	movq	%rax, -88(%rbp)
.Ltmp360:
	jmp	.LBB77_1
.Ltmp361:
.LBB77_1:
	movq	-88(%rbp), %rcx
	movq	-96(%rbp), %rax
	movb	$0, -25(%rbp)
	vmovups	(%rax), %ymm0
	vmovups	16(%rax), %ymm1
	vmovups	%ymm1, -64(%rbp)
	vmovups	%ymm0, -80(%rbp)
.Ltmp355:
	leaq	-80(%rbp), %rdx
	vzeroupper
	callq	_ZN11proc_macro28fallback26push_token_from_proc_macro17h342d836d7d4a8110E
.Ltmp356:
	jmp	.LBB77_3
.Ltmp362:
.LBB77_3:
	addq	$128, %rsp
	popq	%rbp
	retq
.Ltmp363:
	.seh_handlerdata
	.long	($cppxdata$_ZN120_$LT$proc_macro2..fallback..TokenStream$u20$as$u20$core..iter..traits..collect..Extend$LT$proc_macro2..TokenTree$GT$$GT$6extend28_$u7b$$u7b$closure$u7d$$u7d$17hb14ff14966e625d4E)@IMGREL
	.section	.text,"xr",one_only,_ZN120_$LT$proc_macro2..fallback..TokenStream$u20$as$u20$core..iter..traits..collect..Extend$LT$proc_macro2..TokenTree$GT$$GT$6extend28_$u7b$$u7b$closure$u7d$$u7d$17hb14ff14966e625d4E
	.seh_endproc
	.def	"?dtor$2@?0?_ZN120_$LT$proc_macro2..fallback..TokenStream$u20$as$u20$core..iter..traits..collect..Extend$LT$proc_macro2..TokenTree$GT$$GT$6extend28_$u7b$$u7b$closure$u7d$$u7d$17hb14ff14966e625d4E@4HA";
	.scl	3;
	.type	32;
	.endef
	.p2align	4, 0x90
"?dtor$2@?0?_ZN120_$LT$proc_macro2..fallback..TokenStream$u20$as$u20$core..iter..traits..collect..Extend$LT$proc_macro2..TokenTree$GT$$GT$6extend28_$u7b$$u7b$closure$u7d$$u7d$17hb14ff14966e625d4E@4HA":
.seh_proc "?dtor$2@?0?_ZN120_$LT$proc_macro2..fallback..TokenStream$u20$as$u20$core..iter..traits..collect..Extend$LT$proc_macro2..TokenTree$GT$$GT$6extend28_$u7b$$u7b$closure$u7d$$u7d$17hb14ff14966e625d4E@4HA"
.LBB77_2:
	movq	%rdx, 16(%rsp)
	pushq	%rbp
	.seh_pushreg %rbp
	subq	$32, %rsp
	.seh_stackalloc 32
	leaq	128(%rdx), %rbp
.Ltmp364:
	.seh_endprologue
	testb	$1, -25(%rbp)
	jne	.LBB77_5
	jmp	.LBB77_4
.LBB77_4:
	addq	$32, %rsp
	popq	%rbp
	retq
.LBB77_5:
	movq	-96(%rbp), %rcx
	callq	_ZN4core3ptr43drop_in_place$LT$proc_macro2..TokenTree$GT$17h57ccd2f8f7c93c0bE
	jmp	.LBB77_4
.Ltmp365:
.Lfunc_end77:
	.seh_handlerdata
	.section	.text,"xr",one_only,_ZN120_$LT$proc_macro2..fallback..TokenStream$u20$as$u20$core..iter..traits..collect..Extend$LT$proc_macro2..TokenTree$GT$$GT$6extend28_$u7b$$u7b$closure$u7d$$u7d$17hb14ff14966e625d4E
	.seh_endproc
	.section	.xdata,"dr",associative,_ZN120_$LT$proc_macro2..fallback..TokenStream$u20$as$u20$core..iter..traits..collect..Extend$LT$proc_macro2..TokenTree$GT$$GT$6extend28_$u7b$$u7b$closure$u7d$$u7d$17hb14ff14966e625d4E
	.p2align	2
$cppxdata$_ZN120_$LT$proc_macro2..fallback..TokenStream$u20$as$u20$core..iter..traits..collect..Extend$LT$proc_macro2..TokenTree$GT$$GT$6extend28_$u7b$$u7b$closure$u7d$$u7d$17hb14ff14966e625d4E:
	.long	429065506
	.long	1
	.long	($stateUnwindMap$_ZN120_$LT$proc_macro2..fallback..TokenStream$u20$as$u20$core..iter..traits..collect..Extend$LT$proc_macro2..TokenTree$GT$$GT$6extend28_$u7b$$u7b$closure$u7d$$u7d$17hb14ff14966e625d4E)@IMGREL
	.long	0
	.long	0
	.long	3
	.long	($ip2state$_ZN120_$LT$proc_macro2..fallback..TokenStream$u20$as$u20$core..iter..traits..collect..Extend$LT$proc_macro2..TokenTree$GT$$GT$6extend28_$u7b$$u7b$closure$u7d$$u7d$17hb14ff14966e625d4E)@IMGREL
	.long	120
	.long	0
	.long	1
$stateUnwindMap$_ZN120_$LT$proc_macro2..fallback..TokenStream$u20$as$u20$core..iter..traits..collect..Extend$LT$proc_macro2..TokenTree$GT$$GT$6extend28_$u7b$$u7b$closure$u7d$$u7d$17hb14ff14966e625d4E:
	.long	-1
	.long	"?dtor$2@?0?_ZN120_$LT$proc_macro2..fallback..TokenStream$u20$as$u20$core..iter..traits..collect..Extend$LT$proc_macro2..TokenTree$GT$$GT$6extend28_$u7b$$u7b$closure$u7d$$u7d$17hb14ff14966e625d4E@4HA"@IMGREL
$ip2state$_ZN120_$LT$proc_macro2..fallback..TokenStream$u20$as$u20$core..iter..traits..collect..Extend$LT$proc_macro2..TokenTree$GT$$GT$6extend28_$u7b$$u7b$closure$u7d$$u7d$17hb14ff14966e625d4E:
	.long	.Lfunc_begin77@IMGREL
	.long	-1
	.long	.Ltmp353@IMGREL+1
	.long	0
	.long	.Ltmp356@IMGREL+1
	.long	-1
	.section	.text,"xr",one_only,_ZN120_$LT$proc_macro2..fallback..TokenStream$u20$as$u20$core..iter..traits..collect..Extend$LT$proc_macro2..TokenTree$GT$$GT$6extend28_$u7b$$u7b$closure$u7d$$u7d$17hb14ff14966e625d4E

	.def	_ZN120_$LT$proc_macro2..fallback..TokenStream$u20$as$u20$core..iter..traits..collect..Extend$LT$proc_macro2..TokenTree$GT$$GT$6extend28_$u7b$$u7b$closure$u7d$$u7d$17hd162eca765188693E;
	.scl	2;
	.type	32;
	.endef
	.section	.text,"xr",one_only,_ZN120_$LT$proc_macro2..fallback..TokenStream$u20$as$u20$core..iter..traits..collect..Extend$LT$proc_macro2..TokenTree$GT$$GT$6extend28_$u7b$$u7b$closure$u7d$$u7d$17hd162eca765188693E
	.globl	_ZN120_$LT$proc_macro2..fallback..TokenStream$u20$as$u20$core..iter..traits..collect..Extend$LT$proc_macro2..TokenTree$GT$$GT$6extend28_$u7b$$u7b$closure$u7d$$u7d$17hd162eca765188693E
	.p2align	4, 0x90
_ZN120_$LT$proc_macro2..fallback..TokenStream$u20$as$u20$core..iter..traits..collect..Extend$LT$proc_macro2..TokenTree$GT$$GT$6extend28_$u7b$$u7b$closure$u7d$$u7d$17hd162eca765188693E:
.Lfunc_begin78:
	.cv_func_id 79
	.cv_loc	79 12 277 0
.seh_proc _ZN120_$LT$proc_macro2..fallback..TokenStream$u20$as$u20$core..iter..traits..collect..Extend$LT$proc_macro2..TokenTree$GT$$GT$6extend28_$u7b$$u7b$closure$u7d$$u7d$17hd162eca765188693E
	.seh_handler __CxxFrameHandler3, @unwind, @except
	pushq	%rbp
	.seh_pushreg %rbp
	subq	$128, %rsp
	.seh_stackalloc 128
	leaq	128(%rsp), %rbp
	.seh_setframe %rbp, 128
	.seh_endprologue
	movq	$-2, -8(%rbp)
	movq	%rdx, -96(%rbp)
.Ltmp370:
	movq	%rcx, -24(%rbp)
	movq	-24(%rbp), %rax
	movq	(%rax), %rax
	movq	%rax, -16(%rbp)
.Ltmp371:
	movb	$0, -25(%rbp)
	movb	$1, -25(%rbp)
	movq	(%rcx), %rcx
.Ltmp366:
	callq	_ZN11proc_macro25rcvec17RcVecMut$LT$T$GT$6as_mut17hb39b9d6d922e5df5E
.Ltmp372:
.Ltmp367:
	movq	%rax, -88(%rbp)
.Ltmp373:
	jmp	.LBB78_1
.Ltmp374:
.LBB78_1:
	movq	-88(%rbp), %rcx
	movq	-96(%rbp), %rax
	movb	$0, -25(%rbp)
	vmovups	(%rax), %ymm0
	vmovups	16(%rax), %ymm1
	vmovups	%ymm1, -64(%rbp)
	vmovups	%ymm0, -80(%rbp)
.Ltmp368:
	leaq	-80(%rbp), %rdx
	vzeroupper
	callq	_ZN11proc_macro28fallback26push_token_from_proc_macro17h342d836d7d4a8110E
.Ltmp369:
	jmp	.LBB78_3
.Ltmp375:
.LBB78_3:
	addq	$128, %rsp
	popq	%rbp
	retq
.Ltmp376:
	.seh_handlerdata
	.long	($cppxdata$_ZN120_$LT$proc_macro2..fallback..TokenStream$u20$as$u20$core..iter..traits..collect..Extend$LT$proc_macro2..TokenTree$GT$$GT$6extend28_$u7b$$u7b$closure$u7d$$u7d$17hd162eca765188693E)@IMGREL
	.section	.text,"xr",one_only,_ZN120_$LT$proc_macro2..fallback..TokenStream$u20$as$u20$core..iter..traits..collect..Extend$LT$proc_macro2..TokenTree$GT$$GT$6extend28_$u7b$$u7b$closure$u7d$$u7d$17hd162eca765188693E
	.seh_endproc
	.def	"?dtor$2@?0?_ZN120_$LT$proc_macro2..fallback..TokenStream$u20$as$u20$core..iter..traits..collect..Extend$LT$proc_macro2..TokenTree$GT$$GT$6extend28_$u7b$$u7b$closure$u7d$$u7d$17hd162eca765188693E@4HA";
	.scl	3;
	.type	32;
	.endef
	.p2align	4, 0x90
"?dtor$2@?0?_ZN120_$LT$proc_macro2..fallback..TokenStream$u20$as$u20$core..iter..traits..collect..Extend$LT$proc_macro2..TokenTree$GT$$GT$6extend28_$u7b$$u7b$closure$u7d$$u7d$17hd162eca765188693E@4HA":
.seh_proc "?dtor$2@?0?_ZN120_$LT$proc_macro2..fallback..TokenStream$u20$as$u20$core..iter..traits..collect..Extend$LT$proc_macro2..TokenTree$GT$$GT$6extend28_$u7b$$u7b$closure$u7d$$u7d$17hd162eca765188693E@4HA"
.LBB78_2:
	movq	%rdx, 16(%rsp)
	pushq	%rbp
	.seh_pushreg %rbp
	subq	$32, %rsp
	.seh_stackalloc 32
	leaq	128(%rdx), %rbp
.Ltmp377:
	.seh_endprologue
	testb	$1, -25(%rbp)
	jne	.LBB78_5
	jmp	.LBB78_4
.LBB78_4:
	addq	$32, %rsp
	popq	%rbp
	retq
.LBB78_5:
	movq	-96(%rbp), %rcx
	callq	_ZN4core3ptr43drop_in_place$LT$proc_macro2..TokenTree$GT$17h57ccd2f8f7c93c0bE
	jmp	.LBB78_4
.Ltmp378:
.Lfunc_end78:
	.seh_handlerdata
	.section	.text,"xr",one_only,_ZN120_$LT$proc_macro2..fallback..TokenStream$u20$as$u20$core..iter..traits..collect..Extend$LT$proc_macro2..TokenTree$GT$$GT$6extend28_$u7b$$u7b$closure$u7d$$u7d$17hd162eca765188693E
	.seh_endproc
	.section	.xdata,"dr",associative,_ZN120_$LT$proc_macro2..fallback..TokenStream$u20$as$u20$core..iter..traits..collect..Extend$LT$proc_macro2..TokenTree$GT$$GT$6extend28_$u7b$$u7b$closure$u7d$$u7d$17hd162eca765188693E
	.p2align	2
$cppxdata$_ZN120_$LT$proc_macro2..fallback..TokenStream$u20$as$u20$core..iter..traits..collect..Extend$LT$proc_macro2..TokenTree$GT$$GT$6extend28_$u7b$$u7b$closure$u7d$$u7d$17hd162eca765188693E:
	.long	429065506
	.long	1
	.long	($stateUnwindMap$_ZN120_$LT$proc_macro2..fallback..TokenStream$u20$as$u20$core..iter..traits..collect..Extend$LT$proc_macro2..TokenTree$GT$$GT$6extend28_$u7b$$u7b$closure$u7d$$u7d$17hd162eca765188693E)@IMGREL
	.long	0
	.long	0
	.long	3
	.long	($ip2state$_ZN120_$LT$proc_macro2..fallback..TokenStream$u20$as$u20$core..iter..traits..collect..Extend$LT$proc_macro2..TokenTree$GT$$GT$6extend28_$u7b$$u7b$closure$u7d$$u7d$17hd162eca765188693E)@IMGREL
	.long	120
	.long	0
	.long	1
$stateUnwindMap$_ZN120_$LT$proc_macro2..fallback..TokenStream$u20$as$u20$core..iter..traits..collect..Extend$LT$proc_macro2..TokenTree$GT$$GT$6extend28_$u7b$$u7b$closure$u7d$$u7d$17hd162eca765188693E:
	.long	-1
	.long	"?dtor$2@?0?_ZN120_$LT$proc_macro2..fallback..TokenStream$u20$as$u20$core..iter..traits..collect..Extend$LT$proc_macro2..TokenTree$GT$$GT$6extend28_$u7b$$u7b$closure$u7d$$u7d$17hd162eca765188693E@4HA"@IMGREL
$ip2state$_ZN120_$LT$proc_macro2..fallback..TokenStream$u20$as$u20$core..iter..traits..collect..Extend$LT$proc_macro2..TokenTree$GT$$GT$6extend28_$u7b$$u7b$closure$u7d$$u7d$17hd162eca765188693E:
	.long	.Lfunc_begin78@IMGREL
	.long	-1
	.long	.Ltmp366@IMGREL+1
	.long	0
	.long	.Ltmp369@IMGREL+1
	.long	-1
	.section	.text,"xr",one_only,_ZN120_$LT$proc_macro2..fallback..TokenStream$u20$as$u20$core..iter..traits..collect..Extend$LT$proc_macro2..TokenTree$GT$$GT$6extend28_$u7b$$u7b$closure$u7d$$u7d$17hd162eca765188693E

	.def	_ZN132_$LT$proc_macro2..fallback..TokenStream$u20$as$u20$core..iter..traits..collect..Extend$LT$proc_macro2..fallback..TokenStream$GT$$GT$6extend17h1040b354f64666a3E;
	.scl	2;
	.type	32;
	.endef
	.section	.text,"xr",one_only,_ZN132_$LT$proc_macro2..fallback..TokenStream$u20$as$u20$core..iter..traits..collect..Extend$LT$proc_macro2..fallback..TokenStream$GT$$GT$6extend17h1040b354f64666a3E
	.globl	_ZN132_$LT$proc_macro2..fallback..TokenStream$u20$as$u20$core..iter..traits..collect..Extend$LT$proc_macro2..fallback..TokenStream$GT$$GT$6extend17h1040b354f64666a3E
	.p2align	4, 0x90
_ZN132_$LT$proc_macro2..fallback..TokenStream$u20$as$u20$core..iter..traits..collect..Extend$LT$proc_macro2..fallback..TokenStream$GT$$GT$6extend17h1040b354f64666a3E:
.Lfunc_begin79:
	.cv_func_id 80
	.cv_loc	80 12 282 0
.seh_proc _ZN132_$LT$proc_macro2..fallback..TokenStream$u20$as$u20$core..iter..traits..collect..Extend$LT$proc_macro2..fallback..TokenStream$GT$$GT$6extend17h1040b354f64666a3E
	.seh_handler __CxxFrameHandler3, @unwind, @except
	pushq	%rbp
	.seh_pushreg %rbp
	subq	$272, %rsp
	.seh_stackalloc 272
	leaq	128(%rsp), %rbp
	.seh_setframe %rbp, 128
	.seh_endprologue
	movq	$-2, 136(%rbp)
	movq	%rdx, -88(%rbp)
.Ltmp387:
	movq	%rcx, 128(%rbp)
.Ltmp388:
	.cv_loc	80 12 283 0
	movb	$0, 127(%rbp)
	movb	$1, 127(%rbp)
.Ltmp379:
	callq	_ZN11proc_macro25rcvec14RcVec$LT$T$GT$8make_mut17hd8b2b4dc50ffadeaE
.Ltmp389:
.Ltmp380:
	movq	%rax, -80(%rbp)
.Ltmp390:
	jmp	.LBB79_1
.Ltmp391:
.LBB79_1:
	movq	-88(%rbp), %rax
	movq	-80(%rbp), %rcx
	movq	%rcx, -72(%rbp)
	movb	$0, 127(%rbp)
	movq	32(%rax), %rcx
	movq	%rcx, 112(%rbp)
	vmovups	(%rax), %ymm0
	vmovups	%ymm0, 80(%rbp)
.Ltmp381:
	leaq	40(%rbp), %rcx
	leaq	80(%rbp), %rdx
	vzeroupper
	callq	_ZN63_$LT$I$u20$as$u20$core..iter..traits..collect..IntoIterator$GT$9into_iter17h898c356f4c279105E
.Ltmp382:
	jmp	.LBB79_3
.Ltmp392:
.LBB79_3:
.Ltmp383:
	leaq	-64(%rbp), %rcx
	leaq	40(%rbp), %rdx
	callq	_ZN4core4iter6traits8iterator8Iterator7flatten17heed257e37a2dfd90E
.Ltmp384:
	jmp	.LBB79_4
.Ltmp393:
.LBB79_4:
.Ltmp385:
	leaq	-72(%rbp), %rcx
	leaq	-64(%rbp), %rdx
	callq	_ZN11proc_macro25rcvec17RcVecMut$LT$T$GT$6extend17hb3e969b2e73cb67aE
.Ltmp386:
	jmp	.LBB79_5
.Ltmp394:
.LBB79_5:
	.cv_loc	80 12 284 0
	addq	$272, %rsp
	popq	%rbp
	retq
.Ltmp395:
	.seh_handlerdata
	.long	($cppxdata$_ZN132_$LT$proc_macro2..fallback..TokenStream$u20$as$u20$core..iter..traits..collect..Extend$LT$proc_macro2..fallback..TokenStream$GT$$GT$6extend17h1040b354f64666a3E)@IMGREL
	.section	.text,"xr",one_only,_ZN132_$LT$proc_macro2..fallback..TokenStream$u20$as$u20$core..iter..traits..collect..Extend$LT$proc_macro2..fallback..TokenStream$GT$$GT$6extend17h1040b354f64666a3E
	.seh_endproc
	.def	"?dtor$2@?0?_ZN132_$LT$proc_macro2..fallback..TokenStream$u20$as$u20$core..iter..traits..collect..Extend$LT$proc_macro2..fallback..TokenStream$GT$$GT$6extend17h1040b354f64666a3E@4HA";
	.scl	3;
	.type	32;
	.endef
	.p2align	4, 0x90
"?dtor$2@?0?_ZN132_$LT$proc_macro2..fallback..TokenStream$u20$as$u20$core..iter..traits..collect..Extend$LT$proc_macro2..fallback..TokenStream$GT$$GT$6extend17h1040b354f64666a3E@4HA":
.seh_proc "?dtor$2@?0?_ZN132_$LT$proc_macro2..fallback..TokenStream$u20$as$u20$core..iter..traits..collect..Extend$LT$proc_macro2..fallback..TokenStream$GT$$GT$6extend17h1040b354f64666a3E@4HA"
.LBB79_2:
	movq	%rdx, 16(%rsp)
	pushq	%rbp
	.seh_pushreg %rbp
	subq	$32, %rsp
	.seh_stackalloc 32
	leaq	128(%rdx), %rbp
.Ltmp396:
	.seh_endprologue
	testb	$1, 127(%rbp)
	jne	.LBB79_7
	jmp	.LBB79_6
.LBB79_6:
	.cv_loc	80 12 282 0
	addq	$32, %rsp
	popq	%rbp
	retq
.LBB79_7:
	.cv_loc	80 12 284 0
	movq	-88(%rbp), %rcx
	callq	_ZN4core3ptr429drop_in_place$LT$core..iter..adapters..map..Map$LT$core..iter..adapters..map..Map$LT$core..iter..sources..once..Once$LT$proc_macro2..TokenStream$GT$$C$$LT$proc_macro2..TokenStream$u20$as$u20$core..iter..traits..collect..Extend$LT$proc_macro2..TokenStream$GT$$GT$..extend$LT$core..iter..sources..once..Once$LT$proc_macro2..TokenStream$GT$$GT$..$u7b$$u7b$closure$u7d$$u7d$$GT$$C$proc_macro2..imp..TokenStream..unwrap_stable$GT$$GT$17heb15910a940e3de7E
	jmp	.LBB79_6
.Ltmp397:
.Lfunc_end79:
	.seh_handlerdata
	.section	.text,"xr",one_only,_ZN132_$LT$proc_macro2..fallback..TokenStream$u20$as$u20$core..iter..traits..collect..Extend$LT$proc_macro2..fallback..TokenStream$GT$$GT$6extend17h1040b354f64666a3E
	.seh_endproc
	.section	.xdata,"dr",associative,_ZN132_$LT$proc_macro2..fallback..TokenStream$u20$as$u20$core..iter..traits..collect..Extend$LT$proc_macro2..fallback..TokenStream$GT$$GT$6extend17h1040b354f64666a3E
	.p2align	2
$cppxdata$_ZN132_$LT$proc_macro2..fallback..TokenStream$u20$as$u20$core..iter..traits..collect..Extend$LT$proc_macro2..fallback..TokenStream$GT$$GT$6extend17h1040b354f64666a3E:
	.long	429065506
	.long	1
	.long	($stateUnwindMap$_ZN132_$LT$proc_macro2..fallback..TokenStream$u20$as$u20$core..iter..traits..collect..Extend$LT$proc_macro2..fallback..TokenStream$GT$$GT$6extend17h1040b354f64666a3E)@IMGREL
	.long	0
	.long	0
	.long	3
	.long	($ip2state$_ZN132_$LT$proc_macro2..fallback..TokenStream$u20$as$u20$core..iter..traits..collect..Extend$LT$proc_macro2..fallback..TokenStream$GT$$GT$6extend17h1040b354f64666a3E)@IMGREL
	.long	264
	.long	0
	.long	1
$stateUnwindMap$_ZN132_$LT$proc_macro2..fallback..TokenStream$u20$as$u20$core..iter..traits..collect..Extend$LT$proc_macro2..fallback..TokenStream$GT$$GT$6extend17h1040b354f64666a3E:
	.long	-1
	.long	"?dtor$2@?0?_ZN132_$LT$proc_macro2..fallback..TokenStream$u20$as$u20$core..iter..traits..collect..Extend$LT$proc_macro2..fallback..TokenStream$GT$$GT$6extend17h1040b354f64666a3E@4HA"@IMGREL
$ip2state$_ZN132_$LT$proc_macro2..fallback..TokenStream$u20$as$u20$core..iter..traits..collect..Extend$LT$proc_macro2..fallback..TokenStream$GT$$GT$6extend17h1040b354f64666a3E:
	.long	.Lfunc_begin79@IMGREL
	.long	-1
	.long	.Ltmp379@IMGREL+1
	.long	0
	.long	.Ltmp386@IMGREL+1
	.long	-1
	.section	.text,"xr",one_only,_ZN132_$LT$proc_macro2..fallback..TokenStream$u20$as$u20$core..iter..traits..collect..Extend$LT$proc_macro2..fallback..TokenStream$GT$$GT$6extend17h1040b354f64666a3E

	.def	_ZN5quote9__private10push_group17h89c6864214246f01E;
	.scl	2;
	.type	32;
	.endef
	.section	.text,"xr",one_only,_ZN5quote9__private10push_group17h89c6864214246f01E
	.globl	_ZN5quote9__private10push_group17h89c6864214246f01E
	.p2align	4, 0x90
_ZN5quote9__private10push_group17h89c6864214246f01E:
.Lfunc_begin80:
	.cv_func_id 81
	.cv_loc	81 11 242 0
.seh_proc _ZN5quote9__private10push_group17h89c6864214246f01E
	subq	$136, %rsp
	.seh_stackalloc 136
	.seh_endprologue
	movq	%r8, 32(%rsp)
.Ltmp398:
	movb	%dl, %al
	movq	32(%rsp), %rdx
	movb	%al, 55(%rsp)
	movq	%rcx, 40(%rsp)
	movq	%rcx, 120(%rsp)
	movb	%al, 135(%rsp)
.Ltmp399:
	.cv_loc	81 11 243 0
	leaq	80(%rsp), %rcx
	movl	$40, %r8d
	callq	memcpy
.Ltmp400:
	movb	55(%rsp), %dl
	leaq	56(%rsp), %rcx
	leaq	80(%rsp), %r8
	callq	_ZN11proc_macro25Group3new17h9bbb6ee0152f269bE
	movq	40(%rsp), %rcx
	leaq	56(%rsp), %rdx
	callq	_ZN71_$LT$proc_macro2..TokenStream$u20$as$u20$quote..ext..TokenStreamExt$GT$6append17ha6115d24951a5ebdE
	.cv_loc	81 11 244 0
	nop
	addq	$136, %rsp
	retq
.Ltmp401:
.Lfunc_end80:
	.seh_endproc

	.def	_ZN5quote9__private18push_group_spanned17hfce8102df10ec13eE;
	.scl	2;
	.type	32;
	.endef
	.section	.text,"xr",one_only,_ZN5quote9__private18push_group_spanned17hfce8102df10ec13eE
	.globl	_ZN5quote9__private18push_group_spanned17hfce8102df10ec13eE
	.p2align	4, 0x90
_ZN5quote9__private18push_group_spanned17hfce8102df10ec13eE:
.Lfunc_begin81:
	.cv_func_id 82
	.cv_loc	82 11 247 0
.seh_proc _ZN5quote9__private18push_group_spanned17hfce8102df10ec13eE
	.seh_handler __CxxFrameHandler3, @unwind, @except
	pushq	%rbp
	.seh_pushreg %rbp
	subq	$208, %rsp
	.seh_stackalloc 208
	leaq	128(%rsp), %rbp
	.seh_setframe %rbp, 128
	.seh_endprologue
	movq	$-2, 72(%rbp)
	movb	%r8b, -81(%rbp)
	movl	%edx, %eax
	movb	-81(%rbp), %dl
	movq	%rcx, -80(%rbp)
	movl	%eax, -60(%rbp)
	movl	-60(%rbp), %eax
	movl	%eax, -64(%rbp)
	movq	%rcx, 56(%rbp)
	movb	%dl, 71(%rbp)
.Ltmp406:
	.cv_loc	82 11 253 0
	movb	$0, 55(%rbp)
	movq	32(%r9), %rax
	movq	%rax, (%rbp)
	vmovups	(%r9), %ymm0
	vmovups	%ymm0, -32(%rbp)
	leaq	-56(%rbp), %rcx
	movq	%rcx, -72(%rbp)
	leaq	-32(%rbp), %r8
	vzeroupper
	callq	_ZN11proc_macro25Group3new17h9bbb6ee0152f269bE
.Ltmp407:
	movq	-72(%rbp), %rcx
	movb	$1, 55(%rbp)
.Ltmp408:
	.cv_loc	82 11 254 0
	movl	-64(%rbp), %eax
	movl	%eax, 8(%rbp)
	movl	8(%rbp), %edx
.Ltmp402:
	callq	_ZN11proc_macro25Group8set_span17h6e9421f174e1173cE
.Ltmp403:
	jmp	.LBB81_1
.Ltmp409:
.LBB81_1:
	.cv_loc	82 11 255 0
	movq	-80(%rbp), %rcx
	movb	$0, 55(%rbp)
	movq	-40(%rbp), %rax
	movq	%rax, 32(%rbp)
	vmovdqu	-56(%rbp), %xmm0
	vmovdqa	%xmm0, 16(%rbp)
.Ltmp404:
	leaq	16(%rbp), %rdx
	callq	_ZN71_$LT$proc_macro2..TokenStream$u20$as$u20$quote..ext..TokenStreamExt$GT$6append17ha6115d24951a5ebdE
.Ltmp405:
	jmp	.LBB81_3
.Ltmp410:
.LBB81_3:
	.cv_loc	82 11 256 0
	movb	$0, 55(%rbp)
	addq	$208, %rsp
	popq	%rbp
	retq
.Ltmp411:
	.seh_handlerdata
	.long	($cppxdata$_ZN5quote9__private18push_group_spanned17hfce8102df10ec13eE)@IMGREL
	.section	.text,"xr",one_only,_ZN5quote9__private18push_group_spanned17hfce8102df10ec13eE
	.seh_endproc
	.def	"?dtor$2@?0?_ZN5quote9__private18push_group_spanned17hfce8102df10ec13eE@4HA";
	.scl	3;
	.type	32;
	.endef
	.p2align	4, 0x90
"?dtor$2@?0?_ZN5quote9__private18push_group_spanned17hfce8102df10ec13eE@4HA":
.seh_proc "?dtor$2@?0?_ZN5quote9__private18push_group_spanned17hfce8102df10ec13eE@4HA"
.LBB81_2:
	movq	%rdx, 16(%rsp)
	pushq	%rbp
	.seh_pushreg %rbp
	subq	$32, %rsp
	.seh_stackalloc 32
	leaq	128(%rdx), %rbp
	.seh_endprologue
	testb	$1, 55(%rbp)
	jne	.LBB81_5
	jmp	.LBB81_4
.Ltmp412:
.LBB81_4:
	.cv_loc	82 11 247 0
	addq	$32, %rsp
	popq	%rbp
	retq
.Ltmp413:
.LBB81_5:
	.cv_loc	82 11 256 0
	leaq	-56(%rbp), %rcx
	callq	_ZN4core3ptr39drop_in_place$LT$proc_macro2..Group$GT$17h5eff84b2d4bec309E
	jmp	.LBB81_4
.Ltmp414:
.Lfunc_end81:
	.seh_handlerdata
	.section	.text,"xr",one_only,_ZN5quote9__private18push_group_spanned17hfce8102df10ec13eE
	.seh_endproc
	.section	.xdata,"dr",associative,_ZN5quote9__private18push_group_spanned17hfce8102df10ec13eE
	.p2align	2
$cppxdata$_ZN5quote9__private18push_group_spanned17hfce8102df10ec13eE:
	.long	429065506
	.long	1
	.long	($stateUnwindMap$_ZN5quote9__private18push_group_spanned17hfce8102df10ec13eE)@IMGREL
	.long	0
	.long	0
	.long	3
	.long	($ip2state$_ZN5quote9__private18push_group_spanned17hfce8102df10ec13eE)@IMGREL
	.long	200
	.long	0
	.long	1
$stateUnwindMap$_ZN5quote9__private18push_group_spanned17hfce8102df10ec13eE:
	.long	-1
	.long	"?dtor$2@?0?_ZN5quote9__private18push_group_spanned17hfce8102df10ec13eE@4HA"@IMGREL
$ip2state$_ZN5quote9__private18push_group_spanned17hfce8102df10ec13eE:
	.long	.Lfunc_begin81@IMGREL
	.long	-1
	.long	.Ltmp402@IMGREL+1
	.long	0
	.long	.Ltmp405@IMGREL+1
	.long	-1
	.section	.text,"xr",one_only,_ZN5quote9__private18push_group_spanned17hfce8102df10ec13eE

	.def	_ZN5quote9__private5parse17h2b86e36fa14a0057E;
	.scl	2;
	.type	32;
	.endef
	.section	.text,"xr",one_only,_ZN5quote9__private5parse17h2b86e36fa14a0057E
	.globl	_ZN5quote9__private5parse17h2b86e36fa14a0057E
	.p2align	4, 0x90
_ZN5quote9__private5parse17h2b86e36fa14a0057E:
.Lfunc_begin82:
	.cv_func_id 83
	.cv_loc	83 11 259 0
.seh_proc _ZN5quote9__private5parse17h2b86e36fa14a0057E
	subq	$248, %rsp
	.seh_stackalloc 248
	.seh_endprologue
	movq	%rcx, 48(%rsp)
	movq	%rcx, 224(%rsp)
	movq	%rdx, 232(%rsp)
	movq	%r8, 240(%rsp)
.Ltmp415:
	.cv_loc	83 11 260 0
	leaq	96(%rsp), %rcx
	callq	_ZN4core3str21_$LT$impl$u20$str$GT$5parse17hda6fddab733c0ab4E
	leaq	56(%rsp), %rcx
	leaq	96(%rsp), %rdx
	leaq	__unnamed_9(%rip), %r8
	movl	$20, %r9d
	leaq	__unnamed_10(%rip), %rax
	movq	%rax, 32(%rsp)
	callq	_ZN4core6result19Result$LT$T$C$E$GT$6expect17h306d634b5635e27cE
.Ltmp416:
	.cv_loc	83 11 261 0
	leaq	184(%rsp), %rcx
	leaq	56(%rsp), %rdx
	movl	$40, %r8d
	callq	memcpy
	leaq	144(%rsp), %rcx
	leaq	184(%rsp), %rdx
	callq	_ZN4core4iter7sources4once4once17hf6834c4dcf36c63eE
	movq	48(%rsp), %rcx
	leaq	144(%rsp), %rdx
	callq	_ZN112_$LT$proc_macro2..TokenStream$u20$as$u20$core..iter..traits..collect..Extend$LT$proc_macro2..TokenStream$GT$$GT$6extend17h87ebc49a6895e033E
.Ltmp417:
	.cv_loc	83 11 262 0
	nop
	addq	$248, %rsp
	retq
.Ltmp418:
.Lfunc_end82:
	.seh_endproc

	.def	_ZN5quote9__private13parse_spanned17hdee40828b33432cbE;
	.scl	2;
	.type	32;
	.endef
	.section	.text,"xr",one_only,_ZN5quote9__private13parse_spanned17hdee40828b33432cbE
	.globl	_ZN5quote9__private13parse_spanned17hdee40828b33432cbE
	.p2align	4, 0x90
_ZN5quote9__private13parse_spanned17hdee40828b33432cbE:
.Lfunc_begin83:
	.cv_func_id 84
	.cv_loc	84 11 265 0
.seh_proc _ZN5quote9__private13parse_spanned17hdee40828b33432cbE
	subq	$328, %rsp
	.seh_stackalloc 328
	.seh_endprologue
	movq	%r9, 48(%rsp)
	movq	%r8, %rax
	movq	48(%rsp), %r8
	movq	%rax, 56(%rsp)
	movl	%edx, %eax
	movq	56(%rsp), %rdx
	movq	%rcx, 64(%rsp)
	movl	%eax, 76(%rsp)
	movl	76(%rsp), %eax
	movl	%eax, 72(%rsp)
	movq	%rcx, 304(%rsp)
	movq	%rdx, 312(%rsp)
	movq	%r8, 320(%rsp)
.Ltmp419:
	.cv_loc	84 11 266 0
	leaq	120(%rsp), %rcx
	callq	_ZN4core3str21_$LT$impl$u20$str$GT$5parse17hda6fddab733c0ab4E
	leaq	80(%rsp), %rcx
	leaq	120(%rsp), %rdx
	leaq	__unnamed_9(%rip), %r8
	movl	$20, %r9d
	leaq	__unnamed_11(%rip), %rax
	movq	%rax, 32(%rsp)
	callq	_ZN4core6result19Result$LT$T$C$E$GT$6expect17h306d634b5635e27cE
.Ltmp420:
	.cv_loc	84 11 267 0
	leaq	256(%rsp), %rcx
	leaq	80(%rsp), %rdx
	movl	$40, %r8d
	callq	memcpy
	leaq	216(%rsp), %rcx
	leaq	256(%rsp), %rdx
	callq	_ZN11proc_macro212token_stream96_$LT$impl$u20$core..iter..traits..collect..IntoIterator$u20$for$u20$proc_macro2..TokenStream$GT$9into_iter17h9b1914af9bf2b2ecE
	leaq	72(%rsp), %rax
	movq	%rax, 296(%rsp)
	movq	296(%rsp), %r8
	leaq	168(%rsp), %rcx
	leaq	216(%rsp), %rdx
	callq	_ZN4core4iter6traits8iterator8Iterator3map17hc4dfd8338c470df8E
	movq	64(%rsp), %rcx
	leaq	168(%rsp), %rdx
	callq	_ZN110_$LT$proc_macro2..TokenStream$u20$as$u20$core..iter..traits..collect..Extend$LT$proc_macro2..TokenTree$GT$$GT$6extend17h8b26e7f341797e39E
.Ltmp421:
	.cv_loc	84 11 268 0
	nop
	addq	$328, %rsp
	retq
.Ltmp422:
.Lfunc_end83:
	.seh_endproc

	.def	_ZN5quote9__private13parse_spanned28_$u7b$$u7b$closure$u7d$$u7d$17hb7512312c1588fe8E;
	.scl	3;
	.type	32;
	.endef
	.section	.text,"xr",one_only,_ZN5quote9__private13parse_spanned28_$u7b$$u7b$closure$u7d$$u7d$17hb7512312c1588fe8E
	.p2align	4, 0x90
_ZN5quote9__private13parse_spanned28_$u7b$$u7b$closure$u7d$$u7d$17hb7512312c1588fe8E:
.Lfunc_begin84:
	.cv_func_id 85
	.cv_loc	85 11 267 0
.seh_proc _ZN5quote9__private13parse_spanned28_$u7b$$u7b$closure$u7d$$u7d$17hb7512312c1588fe8E
	subq	$136, %rsp
	.seh_stackalloc 136
	.seh_endprologue
	movq	%r8, 32(%rsp)
.Ltmp423:
	movq	%rdx, %rax
	movq	32(%rsp), %rdx
	movq	%rax, 48(%rsp)
	movq	%rcx, 56(%rsp)
	movq	%rcx, 40(%rsp)
	movq	%rax, 120(%rsp)
	movq	120(%rsp), %rax
	movq	(%rax), %rax
	movq	%rax, 128(%rsp)
.Ltmp424:
	leaq	64(%rsp), %rcx
	movl	$48, %r8d
	callq	memcpy
.Ltmp425:
	movq	48(%rsp), %rdx
	movq	56(%rsp), %rcx
	movq	(%rdx), %rax
	movl	(%rax), %eax
	movl	%eax, 112(%rsp)
	movl	112(%rsp), %r8d
	leaq	64(%rsp), %rdx
	callq	_ZN5quote9__private17respan_token_tree17ha0f5be3c81c9577aE
	movq	40(%rsp), %rax
	addq	$136, %rsp
	retq
.Ltmp426:
.Lfunc_end84:
	.seh_endproc

	.def	_ZN5quote9__private17respan_token_tree17ha0f5be3c81c9577aE;
	.scl	3;
	.type	32;
	.endef
	.section	.text,"xr",one_only,_ZN5quote9__private17respan_token_tree17ha0f5be3c81c9577aE
	.p2align	4, 0x90
_ZN5quote9__private17respan_token_tree17ha0f5be3c81c9577aE:
.Lfunc_begin85:
	.cv_func_id 86
	.cv_loc	86 11 271 0
.seh_proc _ZN5quote9__private17respan_token_tree17ha0f5be3c81c9577aE
	.seh_handler __CxxFrameHandler3, @unwind, @except
	pushq	%rbp
	.seh_pushreg %rbp
	subq	$368, %rsp
	.seh_stackalloc 368
	leaq	128(%rsp), %rbp
	.seh_setframe %rbp, 128
	.seh_endprologue
	movq	$-2, 232(%rbp)
	movq	%rdx, -72(%rbp)
.Ltmp445:
	movq	%rcx, -64(%rbp)
	movq	%rcx, -56(%rbp)
	movl	%r8d, -44(%rbp)
	movl	-44(%rbp), %eax
	movl	%eax, -48(%rbp)
.Ltmp446:
	.cv_loc	86 11 272 0
	movb	$0, 215(%rbp)
	movl	(%rdx), %eax
	cmpq	$0, %rax
.Ltmp447:
	jne	.LBB85_2
.Ltmp448:
	.cv_loc	86 11 273 0
	movq	-72(%rbp), %rdx
	addq	$8, %rdx
	movq	%rdx, -80(%rbp)
	movq	%rdx, 224(%rbp)
	.cv_loc	86 11 274 0
.Ltmp429:
	leaq	88(%rbp), %rcx
.Ltmp449:
	callq	_ZN11proc_macro25Group6stream17hd9d622b5fb356615E
.Ltmp430:
	jmp	.LBB85_6
.Ltmp450:
.LBB85_2:
	.cv_loc	86 11 282 0
	movq	-72(%rbp), %rcx
	movq	%rcx, 216(%rbp)
.Ltmp451:
	.cv_loc	86 11 282 0
	movl	-48(%rbp), %eax
	movl	%eax, 208(%rbp)
	movl	208(%rbp), %edx
.Ltmp427:
	callq	_ZN11proc_macro29TokenTree8set_span17hd130fa4dd4fb5554E
.Ltmp428:
	jmp	.LBB85_3
.Ltmp452:
.LBB85_3:
	jmp	.LBB85_5
.Ltmp453:
.LBB85_5:
	.cv_loc	86 11 284 0
	movq	-72(%rbp), %rdx
	movq	-64(%rbp), %rcx
	movl	$48, %r8d
	callq	memcpy
	movq	-56(%rbp), %rax
	.cv_loc	86 11 285 0
	addq	$368, %rsp
	popq	%rbp
	retq
.Ltmp454:
.LBB85_6:
	.cv_loc	86 11 274 0
.Ltmp431:
	leaq	48(%rbp), %rcx
	leaq	88(%rbp), %rdx
.Ltmp455:
	callq	_ZN11proc_macro212token_stream96_$LT$impl$u20$core..iter..traits..collect..IntoIterator$u20$for$u20$proc_macro2..TokenStream$GT$9into_iter17h9b1914af9bf2b2ecE
.Ltmp432:
	jmp	.LBB85_7
.Ltmp456:
.LBB85_7:
	.cv_loc	86 11 277 0
	leaq	-48(%rbp), %rax
	movq	%rax, 128(%rbp)
	.cv_loc	86 11 274 0
	movq	128(%rbp), %r8
.Ltmp433:
	movq	%rbp, %rcx
	leaq	48(%rbp), %rdx
	callq	_ZN4core4iter6traits8iterator8Iterator3map17hbf54d9e967f230c5E
.Ltmp434:
	jmp	.LBB85_8
.Ltmp457:
.LBB85_8:
.Ltmp435:
	leaq	-40(%rbp), %rcx
	movq	%rbp, %rdx
	callq	_ZN4core4iter6traits8iterator8Iterator7collect17hefb5a2a48282a753E
.Ltmp436:
	jmp	.LBB85_9
.Ltmp458:
.LBB85_9:
	.cv_loc	86 11 278 0
	movq	-80(%rbp), %rcx
	movb	$1, 215(%rbp)
	.cv_loc	86 11 279 0
.Ltmp437:
.Ltmp459:
	callq	_ZN11proc_macro25Group9delimiter17h7553e418cf5e47c8E
.Ltmp438:
	movb	%al, -81(%rbp)
	jmp	.LBB85_10
.Ltmp460:
.LBB85_10:
	movb	-81(%rbp), %dl
	movb	$0, 215(%rbp)
	movq	-8(%rbp), %rax
	movq	%rax, 192(%rbp)
	vmovups	-40(%rbp), %ymm0
	vmovups	%ymm0, 160(%rbp)
.Ltmp439:
	leaq	136(%rbp), %rcx
	leaq	160(%rbp), %r8
	vzeroupper
	callq	_ZN11proc_macro25Group3new17h9bbb6ee0152f269bE
.Ltmp440:
	jmp	.LBB85_12
.Ltmp461:
.LBB85_12:
.Ltmp441:
	movq	-80(%rbp), %rcx
	callq	_ZN4core3ptr39drop_in_place$LT$proc_macro2..Group$GT$17h5eff84b2d4bec309E
.Ltmp442:
	jmp	.LBB85_13
.Ltmp462:
.LBB85_13:
	movq	-80(%rbp), %rcx
	movq	152(%rbp), %rax
	movq	%rax, 16(%rcx)
	vmovdqu	136(%rbp), %xmm0
	vmovdqu	%xmm0, (%rcx)
	.cv_loc	86 11 280 0
	movl	-48(%rbp), %eax
	movl	%eax, 200(%rbp)
	movl	200(%rbp), %edx
.Ltmp443:
	callq	_ZN11proc_macro25Group8set_span17h6e9421f174e1173cE
.Ltmp444:
	jmp	.LBB85_15
.Ltmp463:
.LBB85_15:
	.cv_loc	86 11 281 0
	movb	$0, 215(%rbp)
.Ltmp464:
	.cv_loc	86 11 281 0
	jmp	.LBB85_5
.Ltmp465:
	.seh_handlerdata
	.long	($cppxdata$_ZN5quote9__private17respan_token_tree17ha0f5be3c81c9577aE)@IMGREL
	.section	.text,"xr",one_only,_ZN5quote9__private17respan_token_tree17ha0f5be3c81c9577aE
	.seh_endproc
	.def	"?dtor$4@?0?_ZN5quote9__private17respan_token_tree17ha0f5be3c81c9577aE@4HA";
	.scl	3;
	.type	32;
	.endef
	.p2align	4, 0x90
"?dtor$4@?0?_ZN5quote9__private17respan_token_tree17ha0f5be3c81c9577aE@4HA":
.seh_proc "?dtor$4@?0?_ZN5quote9__private17respan_token_tree17ha0f5be3c81c9577aE@4HA"
.LBB85_4:
	movq	%rdx, 16(%rsp)
	pushq	%rbp
	.seh_pushreg %rbp
	subq	$32, %rsp
	.seh_stackalloc 32
	leaq	128(%rdx), %rbp
	.seh_endprologue
	movq	-72(%rbp), %rcx
	.cv_loc	86 11 285 0
	callq	_ZN4core3ptr43drop_in_place$LT$proc_macro2..TokenTree$GT$17h57ccd2f8f7c93c0bE
	.cv_loc	86 11 271 0
	nop
	addq	$32, %rsp
	popq	%rbp
	retq
	.seh_handlerdata
	.section	.text,"xr",one_only,_ZN5quote9__private17respan_token_tree17ha0f5be3c81c9577aE
	.seh_endproc
	.def	"?dtor$11@?0?_ZN5quote9__private17respan_token_tree17ha0f5be3c81c9577aE@4HA";
	.scl	3;
	.type	32;
	.endef
	.p2align	4, 0x90
"?dtor$11@?0?_ZN5quote9__private17respan_token_tree17ha0f5be3c81c9577aE@4HA":
.seh_proc "?dtor$11@?0?_ZN5quote9__private17respan_token_tree17ha0f5be3c81c9577aE@4HA"
.LBB85_11:
	movq	%rdx, 16(%rsp)
	pushq	%rbp
	.seh_pushreg %rbp
	subq	$32, %rsp
	.seh_stackalloc 32
	leaq	128(%rdx), %rbp
	.seh_endprologue
.Ltmp466:
	.cv_loc	86 11 281 0
	testb	$1, 215(%rbp)
	jne	.LBB85_17
	jmp	.LBB85_16
.LBB85_16:
	addq	$32, %rsp
	popq	%rbp
	retq
.LBB85_17:
	leaq	-40(%rbp), %rcx
	callq	_ZN4core3ptr45drop_in_place$LT$proc_macro2..TokenStream$GT$17he46d24a92abeec2fE
	nop
	addq	$32, %rsp
	popq	%rbp
	retq
	.seh_handlerdata
	.section	.text,"xr",one_only,_ZN5quote9__private17respan_token_tree17ha0f5be3c81c9577aE
	.seh_endproc
	.def	"?dtor$14@?0?_ZN5quote9__private17respan_token_tree17ha0f5be3c81c9577aE@4HA";
	.scl	3;
	.type	32;
	.endef
	.p2align	4, 0x90
"?dtor$14@?0?_ZN5quote9__private17respan_token_tree17ha0f5be3c81c9577aE@4HA":
.seh_proc "?dtor$14@?0?_ZN5quote9__private17respan_token_tree17ha0f5be3c81c9577aE@4HA"
.LBB85_14:
.Ltmp467:
	movq	%rdx, 16(%rsp)
	pushq	%rbp
	.seh_pushreg %rbp
	subq	$32, %rsp
	.seh_stackalloc 32
	leaq	128(%rdx), %rbp
.Ltmp468:
	.seh_endprologue
	movq	-80(%rbp), %rax
.Ltmp469:
	.cv_loc	86 11 279 0
	movq	152(%rbp), %rcx
	movq	%rcx, 16(%rax)
	vmovdqu	136(%rbp), %xmm0
	vmovdqu	%xmm0, (%rax)
	addq	$32, %rsp
	popq	%rbp
	retq
.Ltmp470:
.Lfunc_end85:
	.seh_handlerdata
	.section	.text,"xr",one_only,_ZN5quote9__private17respan_token_tree17ha0f5be3c81c9577aE
	.seh_endproc
	.section	.xdata,"dr",associative,_ZN5quote9__private17respan_token_tree17ha0f5be3c81c9577aE
	.p2align	2
$cppxdata$_ZN5quote9__private17respan_token_tree17ha0f5be3c81c9577aE:
	.long	429065506
	.long	3
	.long	($stateUnwindMap$_ZN5quote9__private17respan_token_tree17ha0f5be3c81c9577aE)@IMGREL
	.long	0
	.long	0
	.long	8
	.long	($ip2state$_ZN5quote9__private17respan_token_tree17ha0f5be3c81c9577aE)@IMGREL
	.long	360
	.long	0
	.long	1
$stateUnwindMap$_ZN5quote9__private17respan_token_tree17ha0f5be3c81c9577aE:
	.long	-1
	.long	"?dtor$4@?0?_ZN5quote9__private17respan_token_tree17ha0f5be3c81c9577aE@4HA"@IMGREL
	.long	0
	.long	"?dtor$11@?0?_ZN5quote9__private17respan_token_tree17ha0f5be3c81c9577aE@4HA"@IMGREL
	.long	1
	.long	"?dtor$14@?0?_ZN5quote9__private17respan_token_tree17ha0f5be3c81c9577aE@4HA"@IMGREL
$ip2state$_ZN5quote9__private17respan_token_tree17ha0f5be3c81c9577aE:
	.long	.Lfunc_begin85@IMGREL
	.long	-1
	.long	.Ltmp429@IMGREL+1
	.long	0
	.long	.Ltmp428@IMGREL+1
	.long	-1
	.long	.Ltmp431@IMGREL+1
	.long	0
	.long	.Ltmp437@IMGREL+1
	.long	1
	.long	.Ltmp441@IMGREL+1
	.long	2
	.long	.Ltmp443@IMGREL+1
	.long	1
	.long	.Ltmp444@IMGREL+1
	.long	-1
	.section	.text,"xr",one_only,_ZN5quote9__private17respan_token_tree17ha0f5be3c81c9577aE

	.def	_ZN5quote9__private17respan_token_tree28_$u7b$$u7b$closure$u7d$$u7d$17h84828ecfb013d95dE;
	.scl	3;
	.type	32;
	.endef
	.section	.text,"xr",one_only,_ZN5quote9__private17respan_token_tree28_$u7b$$u7b$closure$u7d$$u7d$17h84828ecfb013d95dE
	.p2align	4, 0x90
_ZN5quote9__private17respan_token_tree28_$u7b$$u7b$closure$u7d$$u7d$17h84828ecfb013d95dE:
.Lfunc_begin86:
	.cv_func_id 87
	.cv_loc	87 11 277 0
.seh_proc _ZN5quote9__private17respan_token_tree28_$u7b$$u7b$closure$u7d$$u7d$17h84828ecfb013d95dE
	subq	$136, %rsp
	.seh_stackalloc 136
	.seh_endprologue
	movq	%r8, 32(%rsp)
.Ltmp471:
	movq	%rdx, %rax
	movq	32(%rsp), %rdx
	movq	%rax, 48(%rsp)
	movq	%rcx, 56(%rsp)
	movq	%rcx, 40(%rsp)
	movq	%rax, 120(%rsp)
	movq	120(%rsp), %rax
	movq	(%rax), %rax
	movq	%rax, 128(%rsp)
.Ltmp472:
	leaq	64(%rsp), %rcx
	movl	$48, %r8d
	callq	memcpy
.Ltmp473:
	movq	48(%rsp), %rdx
	movq	56(%rsp), %rcx
	movq	(%rdx), %rax
	movl	(%rax), %eax
	movl	%eax, 112(%rsp)
	movl	112(%rsp), %r8d
	leaq	64(%rsp), %rdx
	callq	_ZN5quote9__private17respan_token_tree17ha0f5be3c81c9577aE
	movq	40(%rsp), %rax
	addq	$136, %rsp
	retq
.Ltmp474:
.Lfunc_end86:
	.seh_endproc

	.def	_ZN5quote9__private10push_ident17h46bd112023b1eb0fE;
	.scl	2;
	.type	32;
	.endef
	.section	.text,"xr",one_only,_ZN5quote9__private10push_ident17h46bd112023b1eb0fE
	.globl	_ZN5quote9__private10push_ident17h46bd112023b1eb0fE
	.p2align	4, 0x90
_ZN5quote9__private10push_ident17h46bd112023b1eb0fE:
.Lfunc_begin87:
	.cv_func_id 88
	.cv_loc	88 11 288 0
.seh_proc _ZN5quote9__private10push_ident17h46bd112023b1eb0fE
	subq	$104, %rsp
	.seh_stackalloc 104
	.seh_endprologue
	movq	%r8, 32(%rsp)
	movq	%rdx, 40(%rsp)
	movq	%rcx, 48(%rsp)
	movq	%rcx, 72(%rsp)
	movq	%rdx, 80(%rsp)
	movq	%r8, 88(%rsp)
.Ltmp475:
	.cv_loc	88 11 289 0
	callq	_ZN11proc_macro24Span9call_site17he457d245e969b90cE
	movl	%eax, 100(%rsp)
	movl	100(%rsp), %eax
	movl	%eax, 56(%rsp)
	.cv_loc	88 11 290 0
	movq	32(%rsp), %r9
	movq	40(%rsp), %r8
	movq	48(%rsp), %rcx
.Ltmp476:
	movl	56(%rsp), %eax
	movl	%eax, 64(%rsp)
	movl	64(%rsp), %edx
	callq	_ZN5quote9__private18push_ident_spanned17h9548063a55c8c80eE
.Ltmp477:
	.cv_loc	88 11 291 0
	nop
	addq	$104, %rsp
	retq
.Ltmp478:
.Lfunc_end87:
	.seh_endproc

	.def	_ZN5quote9__private18push_ident_spanned17h9548063a55c8c80eE;
	.scl	2;
	.type	32;
	.endef
	.section	.text,"xr",one_only,_ZN5quote9__private18push_ident_spanned17h9548063a55c8c80eE
	.globl	_ZN5quote9__private18push_ident_spanned17h9548063a55c8c80eE
	.p2align	4, 0x90
_ZN5quote9__private18push_ident_spanned17h9548063a55c8c80eE:
.Lfunc_begin88:
	.cv_func_id 89
	.cv_loc	89 11 294 0
.seh_proc _ZN5quote9__private18push_ident_spanned17h9548063a55c8c80eE
	subq	$136, %rsp
	.seh_stackalloc 136
	.seh_endprologue
	movq	%r9, 32(%rsp)
	movq	%r8, %rax
	movq	32(%rsp), %r8
	movq	%rax, 40(%rsp)
	movl	%edx, %eax
	movq	40(%rsp), %rdx
	movq	%rcx, 48(%rsp)
	movl	%eax, 60(%rsp)
	movl	60(%rsp), %eax
	movl	%eax, 56(%rsp)
	movq	%rcx, 112(%rsp)
	movq	%rdx, 120(%rsp)
	movq	%r8, 128(%rsp)
.Ltmp479:
	.cv_loc	89 11 295 0
	movl	56(%rsp), %eax
	movl	%eax, 104(%rsp)
	movl	104(%rsp), %r9d
	leaq	64(%rsp), %rcx
	callq	_ZN5quote9__private15ident_maybe_raw17h49dff035d81c85d7E
	movq	48(%rsp), %rcx
	leaq	64(%rsp), %rdx
	callq	_ZN71_$LT$proc_macro2..TokenStream$u20$as$u20$quote..ext..TokenStreamExt$GT$6append17h426d3714184cd281E
	.cv_loc	89 11 296 0
	nop
	addq	$136, %rsp
	retq
.Ltmp480:
.Lfunc_end88:
	.seh_endproc

	.def	_ZN5quote9__private13push_lifetime17h46a7a4332ed7e2a1E;
	.scl	2;
	.type	32;
	.endef
	.section	.text,"xr",one_only,_ZN5quote9__private13push_lifetime17h46a7a4332ed7e2a1E
	.globl	_ZN5quote9__private13push_lifetime17h46a7a4332ed7e2a1E
	.p2align	4, 0x90
_ZN5quote9__private13push_lifetime17h46a7a4332ed7e2a1E:
.Lfunc_begin89:
	.cv_func_id 90
	.cv_loc	90 11 299 0
.seh_proc _ZN5quote9__private13push_lifetime17h46a7a4332ed7e2a1E
	subq	$136, %rsp
	.seh_stackalloc 136
	.seh_endprologue
	movq	%r8, 40(%rsp)
	movq	%rdx, %rax
	movq	40(%rsp), %rdx
	movq	%rax, 48(%rsp)
	movq	%rcx, %rax
	movq	48(%rsp), %rcx
	movq	%rax, 56(%rsp)
	movq	%rax, 112(%rsp)
	movq	%rcx, 120(%rsp)
	movq	%rdx, 128(%rsp)
.Ltmp481:
	.cv_loc	90 11 324 0
	movq	$1, 104(%rsp)
	movq	104(%rsp), %r8
	leaq	__unnamed_12(%rip), %r9
	callq	_ZN4core3str6traits66_$LT$impl$u20$core..ops..index..Index$LT$I$GT$$u20$for$u20$str$GT$5index17h8b657c7594b5025cE
	movq	%rax, 64(%rsp)
	movq	%rdx, 72(%rsp)
	.cv_loc	90 11 323 0
	movq	56(%rsp), %rcx
	movq	72(%rsp), %rax
	movq	64(%rsp), %rdx
	movq	%rdx, 80(%rsp)
	movq	%rax, 88(%rsp)
	movb	$0, 96(%rsp)
	leaq	80(%rsp), %rdx
	callq	_ZN110_$LT$proc_macro2..TokenStream$u20$as$u20$core..iter..traits..collect..Extend$LT$proc_macro2..TokenTree$GT$$GT$6extend17hc219bfc6c24718c6E
	.cv_loc	90 11 327 0
	nop
	addq	$136, %rsp
	retq
.Ltmp482:
.Lfunc_end89:
	.seh_endproc

	.def	_ZN100_$LT$quote..__private..push_lifetime..Lifetime$u20$as$u20$core..iter..traits..iterator..Iterator$GT$4next17hb625adf0c829dd32E;
	.scl	2;
	.type	32;
	.endef
	.section	.text,"xr",one_only,_ZN100_$LT$quote..__private..push_lifetime..Lifetime$u20$as$u20$core..iter..traits..iterator..Iterator$GT$4next17hb625adf0c829dd32E
	.globl	_ZN100_$LT$quote..__private..push_lifetime..Lifetime$u20$as$u20$core..iter..traits..iterator..Iterator$GT$4next17hb625adf0c829dd32E
	.p2align	4, 0x90
_ZN100_$LT$quote..__private..push_lifetime..Lifetime$u20$as$u20$core..iter..traits..iterator..Iterator$GT$4next17hb625adf0c829dd32E:
.Lfunc_begin90:
	.cv_func_id 91
	.cv_loc	91 11 308 0
.seh_proc _ZN100_$LT$quote..__private..push_lifetime..Lifetime$u20$as$u20$core..iter..traits..iterator..Iterator$GT$4next17hb625adf0c829dd32E
	subq	$280, %rsp
	.seh_stackalloc 280
	.seh_endprologue
	movq	%rdx, 56(%rsp)
	movq	%rcx, 64(%rsp)
	movq	%rcx, 72(%rsp)
	movq	%rdx, 248(%rsp)
.Ltmp483:
	.cv_loc	91 11 309 0
	movb	16(%rdx), %al
	movb	%al, 87(%rsp)
	testb	%al, %al
	je	.LBB90_2
	jmp	.LBB90_8
.LBB90_8:
	movb	87(%rsp), %al
	subb	$1, %al
	je	.LBB90_3
	jmp	.LBB90_1
.LBB90_1:
	.cv_loc	91 11 318 0
	movq	64(%rsp), %rax
	movl	$4, (%rax)
	jmp	.LBB90_4
.LBB90_2:
	.cv_loc	91 11 311 0
	movq	56(%rsp), %rax
	movb	$1, 16(%rax)
	.cv_loc	91 11 312 0
	movb	$1, 151(%rsp)
	movb	151(%rsp), %dl
	movl	$39, %ecx
	callq	_ZN11proc_macro25Punct3new17h9ff6306a5435ae6fE
	movq	%rax, 264(%rsp)
	movl	%edx, %eax
	movl	%eax, 272(%rsp)
	movq	264(%rsp), %rax
	movq	%rax, 136(%rsp)
	movl	272(%rsp), %eax
	movl	%eax, 144(%rsp)
	jmp	.LBB90_7
.LBB90_3:
	.cv_loc	91 11 315 0
	movq	56(%rsp), %rax
	movb	$2, 16(%rax)
	.cv_loc	91 11 316 0
	movq	(%rax), %rcx
	movq	%rcx, 40(%rsp)
	movq	8(%rax), %rax
	movq	%rax, 48(%rsp)
	callq	_ZN11proc_macro24Span9call_site17he457d245e969b90cE
	movl	%eax, 260(%rsp)
	movl	260(%rsp), %eax
	movl	%eax, 240(%rsp)
	jmp	.LBB90_5
.LBB90_4:
	.cv_loc	91 11 320 0
	movq	72(%rsp), %rax
	addq	$280, %rsp
	retq
.LBB90_5:
	.cv_loc	91 11 316 0
	movq	48(%rsp), %r8
	movq	40(%rsp), %rdx
	movl	240(%rsp), %r9d
	leaq	200(%rsp), %rcx
	leaq	__unnamed_13(%rip), %rax
	movq	%rax, 32(%rsp)
	callq	_ZN11proc_macro25Ident3new17h87ab7a25bade3417E
	leaq	152(%rsp), %rcx
	addq	$8, %rcx
	leaq	200(%rsp), %rdx
	movl	$40, %r8d
	callq	memcpy
	movq	64(%rsp), %rcx
	movl	$1, 152(%rsp)
	leaq	152(%rsp), %rdx
	movl	$48, %r8d
	callq	memcpy
	jmp	.LBB90_4
.LBB90_7:
	.cv_loc	91 11 312 0
	movq	64(%rsp), %rcx
	movq	136(%rsp), %rax
	movq	%rax, 92(%rsp)
	movl	144(%rsp), %eax
	movl	%eax, 100(%rsp)
	movl	$2, 88(%rsp)
	leaq	88(%rsp), %rdx
	movl	$48, %r8d
	callq	memcpy
	jmp	.LBB90_4
.Ltmp484:
.Lfunc_end90:
	.seh_endproc

	.def	_ZN5quote9__private21push_lifetime_spanned17h57711fcf8ba41bb7E;
	.scl	2;
	.type	32;
	.endef
	.section	.text,"xr",one_only,_ZN5quote9__private21push_lifetime_spanned17h57711fcf8ba41bb7E
	.globl	_ZN5quote9__private21push_lifetime_spanned17h57711fcf8ba41bb7E
	.p2align	4, 0x90
_ZN5quote9__private21push_lifetime_spanned17h57711fcf8ba41bb7E:
.Lfunc_begin91:
	.cv_func_id 92
	.cv_loc	92 11 330 0
.seh_proc _ZN5quote9__private21push_lifetime_spanned17h57711fcf8ba41bb7E
	subq	$152, %rsp
	.seh_stackalloc 152
	.seh_endprologue
	movq	%r9, 40(%rsp)
	movq	%r8, 48(%rsp)
	movl	%edx, %r8d
	movq	40(%rsp), %rdx
	movq	%rcx, %rax
	movq	48(%rsp), %rcx
	movq	%rax, 56(%rsp)
	movl	%r8d, 84(%rsp)
	movl	84(%rsp), %r8d
	movl	%r8d, 80(%rsp)
	movq	%rax, 128(%rsp)
	movq	%rcx, 136(%rsp)
	movq	%rdx, 144(%rsp)
.Ltmp485:
	.cv_loc	92 11 358 0
	movq	$1, 112(%rsp)
	movq	112(%rsp), %r8
	leaq	__unnamed_14(%rip), %r9
	callq	_ZN4core3str6traits66_$LT$impl$u20$core..ops..index..Index$LT$I$GT$$u20$for$u20$str$GT$5index17h8b657c7594b5025cE
	movq	%rax, 64(%rsp)
	movq	%rdx, 72(%rsp)
	.cv_loc	92 11 359 0
	movq	56(%rsp), %rcx
	movq	72(%rsp), %rax
	movq	64(%rsp), %rdx
	movl	80(%rsp), %r8d
	movl	%r8d, 120(%rsp)
	.cv_loc	92 11 357 0
	movq	%rdx, 88(%rsp)
	movq	%rax, 96(%rsp)
	movl	120(%rsp), %eax
	movl	%eax, 104(%rsp)
	movb	$0, 108(%rsp)
	leaq	88(%rsp), %rdx
	callq	_ZN110_$LT$proc_macro2..TokenStream$u20$as$u20$core..iter..traits..collect..Extend$LT$proc_macro2..TokenTree$GT$$GT$6extend17ha442fe84a2c07654E
	.cv_loc	92 11 362 0
	nop
	addq	$152, %rsp
	retq
.Ltmp486:
.Lfunc_end91:
	.seh_endproc

	.def	_ZN108_$LT$quote..__private..push_lifetime_spanned..Lifetime$u20$as$u20$core..iter..traits..iterator..Iterator$GT$4next17hfb2a48e865f39fbeE;
	.scl	2;
	.type	32;
	.endef
	.section	.text,"xr",one_only,_ZN108_$LT$quote..__private..push_lifetime_spanned..Lifetime$u20$as$u20$core..iter..traits..iterator..Iterator$GT$4next17hfb2a48e865f39fbeE
	.globl	_ZN108_$LT$quote..__private..push_lifetime_spanned..Lifetime$u20$as$u20$core..iter..traits..iterator..Iterator$GT$4next17hfb2a48e865f39fbeE
	.p2align	4, 0x90
_ZN108_$LT$quote..__private..push_lifetime_spanned..Lifetime$u20$as$u20$core..iter..traits..iterator..Iterator$GT$4next17hfb2a48e865f39fbeE:
.Lfunc_begin92:
	.cv_func_id 93
	.cv_loc	93 11 340 0
.seh_proc _ZN108_$LT$quote..__private..push_lifetime_spanned..Lifetime$u20$as$u20$core..iter..traits..iterator..Iterator$GT$4next17hfb2a48e865f39fbeE
	subq	$280, %rsp
	.seh_stackalloc 280
	.seh_endprologue
	movq	%rdx, 40(%rsp)
	movq	%rcx, 48(%rsp)
	movq	%rcx, 56(%rsp)
	movq	%rdx, 256(%rsp)
.Ltmp487:
	.cv_loc	93 11 341 0
	movb	20(%rdx), %al
	movb	%al, 71(%rsp)
	testb	%al, %al
	je	.LBB92_2
	jmp	.LBB92_8
.LBB92_8:
	movb	71(%rsp), %al
	subb	$1, %al
	je	.LBB92_3
	jmp	.LBB92_1
.LBB92_1:
	.cv_loc	93 11 352 0
	movq	48(%rsp), %rax
	movl	$4, (%rax)
	jmp	.LBB92_4
.LBB92_2:
	.cv_loc	93 11 343 0
	movq	40(%rsp), %rax
	movb	$1, 20(%rax)
	.cv_loc	93 11 344 0
	movb	$1, 87(%rsp)
	movb	87(%rsp), %dl
	movl	$39, %ecx
	callq	_ZN11proc_macro25Punct3new17h9ff6306a5435ae6fE
	movq	%rax, 264(%rsp)
	movl	%edx, %eax
	movl	%eax, 272(%rsp)
	movq	264(%rsp), %rax
	movq	%rax, 72(%rsp)
	movl	272(%rsp), %eax
	movl	%eax, 80(%rsp)
	jmp	.LBB92_6
.LBB92_3:
	.cv_loc	93 11 349 0
	movq	40(%rsp), %rax
	movb	$2, 20(%rax)
	.cv_loc	93 11 350 0
	movq	(%rax), %rdx
	movq	8(%rax), %r8
	movl	16(%rax), %eax
	movl	%eax, 248(%rsp)
	movl	248(%rsp), %r9d
	leaq	208(%rsp), %rcx
	leaq	__unnamed_15(%rip), %rax
	movq	%rax, 32(%rsp)
	callq	_ZN11proc_macro25Ident3new17h87ab7a25bade3417E
	jmp	.LBB92_5
.LBB92_4:
	.cv_loc	93 11 354 0
	movq	56(%rsp), %rax
	addq	$280, %rsp
	retq
.LBB92_5:
	.cv_loc	93 11 350 0
	leaq	160(%rsp), %rcx
	addq	$8, %rcx
	leaq	208(%rsp), %rdx
	movl	$40, %r8d
	callq	memcpy
	movq	48(%rsp), %rcx
	movl	$1, 160(%rsp)
	leaq	160(%rsp), %rdx
	movl	$48, %r8d
	callq	memcpy
	jmp	.LBB92_4
.LBB92_6:
	.cv_loc	93 11 345 0
	movq	40(%rsp), %rax
.Ltmp488:
	movl	16(%rax), %eax
	movl	%eax, 88(%rsp)
	movl	88(%rsp), %edx
	leaq	72(%rsp), %rcx
	callq	_ZN11proc_macro25Punct8set_span17ha135f630423a5a5eE
	.cv_loc	93 11 346 0
	movq	48(%rsp), %rcx
	movq	72(%rsp), %rax
	movq	%rax, 144(%rsp)
	movl	80(%rsp), %eax
	movl	%eax, 152(%rsp)
	movq	144(%rsp), %rax
	movq	%rax, 100(%rsp)
	movl	152(%rsp), %eax
	movl	%eax, 108(%rsp)
	movl	$2, 96(%rsp)
	leaq	96(%rsp), %rdx
	movl	$48, %r8d
	callq	memcpy
.Ltmp489:
	.cv_loc	93 11 347 0
	jmp	.LBB92_4
.Ltmp490:
.Lfunc_end92:
	.seh_endproc

	.def	_ZN5quote9__private15push_underscore17hb1d003aba71194fdE;
	.scl	2;
	.type	32;
	.endef
	.section	.text,"xr",one_only,_ZN5quote9__private15push_underscore17hb1d003aba71194fdE
	.globl	_ZN5quote9__private15push_underscore17hb1d003aba71194fdE
	.p2align	4, 0x90
_ZN5quote9__private15push_underscore17hb1d003aba71194fdE:
.Lfunc_begin93:
	.cv_func_id 94
	.cv_loc	94 11 461 0
.seh_proc _ZN5quote9__private15push_underscore17hb1d003aba71194fdE
	subq	$72, %rsp
	.seh_stackalloc 72
	.seh_endprologue
	movq	%rcx, 40(%rsp)
	movq	%rcx, 56(%rsp)
.Ltmp491:
	.cv_loc	94 11 462 0
	callq	_ZN11proc_macro24Span9call_site17he457d245e969b90cE
	movl	%eax, 68(%rsp)
	movl	68(%rsp), %eax
	movl	%eax, 48(%rsp)
	movq	40(%rsp), %rcx
	movl	48(%rsp), %edx
	callq	_ZN5quote9__private23push_underscore_spanned17hd10b434c70e7c926E
	.cv_loc	94 11 463 0
	nop
	addq	$72, %rsp
	retq
.Ltmp492:
.Lfunc_end93:
	.seh_endproc

	.def	_ZN5quote9__private23push_underscore_spanned17hd10b434c70e7c926E;
	.scl	2;
	.type	32;
	.endef
	.section	.text,"xr",one_only,_ZN5quote9__private23push_underscore_spanned17hd10b434c70e7c926E
	.globl	_ZN5quote9__private23push_underscore_spanned17hd10b434c70e7c926E
	.p2align	4, 0x90
_ZN5quote9__private23push_underscore_spanned17hd10b434c70e7c926E:
.Lfunc_begin94:
	.cv_func_id 95
	.cv_loc	95 11 466 0
.seh_proc _ZN5quote9__private23push_underscore_spanned17hd10b434c70e7c926E
	subq	$120, %rsp
	.seh_stackalloc 120
	.seh_endprologue
	movq	%rcx, 48(%rsp)
	movl	%edx, 60(%rsp)
	movl	60(%rsp), %eax
	movl	%eax, 56(%rsp)
	movq	%rcx, 112(%rsp)
.Ltmp493:
	.cv_loc	95 11 467 0
	movl	56(%rsp), %eax
	movl	%eax, 104(%rsp)
	movl	104(%rsp), %r9d
	leaq	64(%rsp), %rcx
	leaq	__unnamed_16(%rip), %rdx
	movl	$1, %r8d
	leaq	__unnamed_17(%rip), %rax
	movq	%rax, 32(%rsp)
	callq	_ZN11proc_macro25Ident3new17h87ab7a25bade3417E
	movq	48(%rsp), %rcx
	leaq	64(%rsp), %rdx
	callq	_ZN71_$LT$proc_macro2..TokenStream$u20$as$u20$quote..ext..TokenStreamExt$GT$6append17h426d3714184cd281E
	.cv_loc	95 11 468 0
	nop
	addq	$120, %rsp
	retq
.Ltmp494:
.Lfunc_end94:
	.seh_endproc

	.def	_ZN5quote9__private8mk_ident17h328089487124b1ffE;
	.scl	2;
	.type	32;
	.endef
	.section	.text,"xr",one_only,_ZN5quote9__private8mk_ident17h328089487124b1ffE
	.globl	_ZN5quote9__private8mk_ident17h328089487124b1ffE
	.p2align	4, 0x90
_ZN5quote9__private8mk_ident17h328089487124b1ffE:
.Lfunc_begin95:
	.cv_func_id 96
	.cv_loc	96 11 473 0
.seh_proc _ZN5quote9__private8mk_ident17h328089487124b1ffE
	subq	$136, %rsp
	.seh_stackalloc 136
	.seh_endprologue
	movq	%r8, 40(%rsp)
	movq	%rdx, 48(%rsp)
	movq	%rcx, 56(%rsp)
	movq	%rcx, 64(%rsp)
	movq	%r9, 80(%rsp)
	movq	80(%rsp), %rax
	movq	%rax, 72(%rsp)
	movq	%rdx, 112(%rsp)
	movq	%r8, 120(%rsp)
.Ltmp495:
	.cv_loc	96 11 474 0
	movq	72(%rsp), %rax
	movq	%rax, 96(%rsp)
	movq	96(%rsp), %rcx
	callq	_ZN4core6option15Option$LT$T$GT$14unwrap_or_else17h8b138bfb5ddf709aE
	movl	%eax, 132(%rsp)
	movl	132(%rsp), %eax
	movl	%eax, 88(%rsp)
	.cv_loc	96 11 475 0
	movq	40(%rsp), %r8
	movq	48(%rsp), %rdx
	movq	56(%rsp), %rcx
.Ltmp496:
	movl	88(%rsp), %eax
	movl	%eax, 104(%rsp)
	movl	104(%rsp), %r9d
	callq	_ZN5quote9__private15ident_maybe_raw17h49dff035d81c85d7E
.Ltmp497:
	.cv_loc	96 11 476 0
	movq	64(%rsp), %rax
	addq	$136, %rsp
	retq
.Ltmp498:
.Lfunc_end95:
	.seh_endproc

	.def	_ZN5quote9__private15ident_maybe_raw17h49dff035d81c85d7E;
	.scl	3;
	.type	32;
	.endef
	.section	.text,"xr",one_only,_ZN5quote9__private15ident_maybe_raw17h49dff035d81c85d7E
	.p2align	4, 0x90
_ZN5quote9__private15ident_maybe_raw17h49dff035d81c85d7E:
.Lfunc_begin96:
	.cv_func_id 97
	.cv_loc	97 11 478 0
.seh_proc _ZN5quote9__private15ident_maybe_raw17h49dff035d81c85d7E
	subq	$152, %rsp
	.seh_stackalloc 152
	.seh_endprologue
	movq	%r8, 48(%rsp)
	movq	%rdx, %rax
	movq	48(%rsp), %rdx
	movq	%rax, 56(%rsp)
	movq	%rcx, %rax
	movq	56(%rsp), %rcx
	movq	%rax, 64(%rsp)
	movq	%rax, 72(%rsp)
	movl	%r9d, 84(%rsp)
	movl	84(%rsp), %eax
	movl	%eax, 80(%rsp)
	movq	%rcx, 120(%rsp)
	movq	%rdx, 128(%rsp)
.Ltmp499:
	.cv_loc	97 11 479 0
	leaq	__unnamed_1(%rip), %r8
	movl	$2, %r9d
	callq	_ZN4core3str21_$LT$impl$u20$str$GT$12strip_prefix17h33d471115b02f60bE
	movq	%rdx, 96(%rsp)
	movq	%rax, 88(%rsp)
	movl	$1, %eax
	xorl	%ecx, %ecx
	cmpq	$0, 88(%rsp)
	cmoveq	%rcx, %rax
	cmpq	$1, %rax
	jne	.LBB96_3
	movq	64(%rsp), %rcx
	movq	88(%rsp), %rdx
	movq	96(%rsp), %r8
	movq	%rdx, 136(%rsp)
	movq	%r8, 144(%rsp)
	.cv_loc	97 11 480 0
	movl	80(%rsp), %eax
	movl	%eax, 104(%rsp)
	movl	104(%rsp), %r9d
	leaq	__unnamed_18(%rip), %rax
	movq	%rax, 32(%rsp)
	callq	_ZN11proc_macro25Ident7new_raw17h918a3b6cef5340d2E
	jmp	.LBB96_4
.LBB96_3:
	.cv_loc	97 11 482 0
	movq	48(%rsp), %r8
	movq	56(%rsp), %rdx
	movq	64(%rsp), %rcx
	movl	80(%rsp), %eax
	movl	%eax, 112(%rsp)
	movl	112(%rsp), %r9d
	leaq	__unnamed_19(%rip), %rax
	movq	%rax, 32(%rsp)
	callq	_ZN11proc_macro25Ident3new17h87ab7a25bade3417E
.LBB96_4:
	.cv_loc	97 11 484 0
	movq	72(%rsp), %rax
	addq	$152, %rsp
	retq
.Ltmp500:
.Lfunc_end96:
	.seh_endproc

	.def	_ZN61_$LT$proc_macro2..Span$u20$as$u20$quote..spanned..Spanned$GT$6__span17h2aeb2d00fe5bd4e1E;
	.scl	2;
	.type	32;
	.endef
	.section	.text,"xr",one_only,_ZN61_$LT$proc_macro2..Span$u20$as$u20$quote..spanned..Spanned$GT$6__span17h2aeb2d00fe5bd4e1E
	.globl	_ZN61_$LT$proc_macro2..Span$u20$as$u20$quote..spanned..Spanned$GT$6__span17h2aeb2d00fe5bd4e1E
	.p2align	4, 0x90
_ZN61_$LT$proc_macro2..Span$u20$as$u20$quote..spanned..Spanned$GT$6__span17h2aeb2d00fe5bd4e1E:
.Lfunc_begin97:
	.cv_func_id 98
	.cv_file	13 "C:\\Users\\cires\\.cargo\\registry\\src\\github.com-1ecc6299db9ec823\\quote-1.0.33\\src\\spanned.rs" "4D28F676DA6C0D6BE9D7F4BCE56ACF91C7C6C836" 2
	.cv_loc	98 13 11 0
.seh_proc _ZN61_$LT$proc_macro2..Span$u20$as$u20$quote..spanned..Spanned$GT$6__span17h2aeb2d00fe5bd4e1E
	subq	$16, %rsp
	.seh_stackalloc 16
	.seh_endprologue
	movq	%rcx, 8(%rsp)
.Ltmp501:
	.cv_loc	98 13 12 0
	movl	(%rcx), %eax
	movl	%eax, (%rsp)
	.cv_loc	98 13 13 0
	movl	(%rsp), %eax
	addq	$16, %rsp
	retq
.Ltmp502:
.Lfunc_end97:
	.seh_endproc

	.def	_ZN73_$LT$proc_macro2..extra..DelimSpan$u20$as$u20$quote..spanned..Spanned$GT$6__span17h283afe7882377af1E;
	.scl	2;
	.type	32;
	.endef
	.section	.text,"xr",one_only,_ZN73_$LT$proc_macro2..extra..DelimSpan$u20$as$u20$quote..spanned..Spanned$GT$6__span17h283afe7882377af1E
	.globl	_ZN73_$LT$proc_macro2..extra..DelimSpan$u20$as$u20$quote..spanned..Spanned$GT$6__span17h283afe7882377af1E
	.p2align	4, 0x90
_ZN73_$LT$proc_macro2..extra..DelimSpan$u20$as$u20$quote..spanned..Spanned$GT$6__span17h283afe7882377af1E:
.Lfunc_begin98:
	.cv_func_id 99
	.cv_loc	99 13 17 0
.seh_proc _ZN73_$LT$proc_macro2..extra..DelimSpan$u20$as$u20$quote..spanned..Spanned$GT$6__span17h283afe7882377af1E
	subq	$56, %rsp
	.seh_stackalloc 56
	.seh_endprologue
	movq	%rcx, 40(%rsp)
.Ltmp503:
	.cv_loc	99 13 18 0
	callq	_ZN11proc_macro25extra9DelimSpan4join17hff99f4355b7fb941E
	movl	%eax, 52(%rsp)
	movl	52(%rsp), %eax
	movl	%eax, 32(%rsp)
	.cv_loc	99 13 19 0
	movl	32(%rsp), %eax
	addq	$56, %rsp
	retq
.Ltmp504:
.Lfunc_end98:
	.seh_endproc

	.def	_ZN5quote7spanned10join_spans17ha3e0515643f254f3E;
	.scl	2;
	.type	32;
	.endef
	.section	.text,"xr",one_only,_ZN5quote7spanned10join_spans17ha3e0515643f254f3E
	.globl	_ZN5quote7spanned10join_spans17ha3e0515643f254f3E
	.p2align	4, 0x90
_ZN5quote7spanned10join_spans17ha3e0515643f254f3E:
.Lfunc_begin99:
	.cv_func_id 100
	.cv_loc	100 13 28 0
.seh_proc _ZN5quote7spanned10join_spans17ha3e0515643f254f3E
	.seh_handler __CxxFrameHandler3, @unwind, @except
	pushq	%rbp
	.seh_pushreg %rbp
	subq	$368, %rsp
	.seh_stackalloc 368
	leaq	128(%rsp), %rbp
	.seh_setframe %rbp, 128
	.seh_endprologue
.Ltmp515:
	.cv_loc	100 13 29 0
	movq	$-2, 232(%rbp)
	movb	$0, 199(%rbp)
	movq	32(%rcx), %rax
	movq	%rax, 80(%rbp)
	vmovups	(%rcx), %ymm0
	vmovups	%ymm0, 48(%rbp)
	leaq	8(%rbp), %rcx
.Ltmp516:
	movq	%rcx, -64(%rbp)
	leaq	48(%rbp), %rdx
	vzeroupper
	callq	_ZN11proc_macro212token_stream96_$LT$impl$u20$core..iter..traits..collect..IntoIterator$u20$for$u20$proc_macro2..TokenStream$GT$9into_iter17h9b1914af9bf2b2ecE
	movq	-64(%rbp), %rdx
	leaq	-32(%rbp), %rcx
	movq	%rcx, -56(%rbp)
	callq	_ZN4core4iter6traits8iterator8Iterator3map17hb3a890576d2353c9E
	movq	-56(%rbp), %rcx
	movb	$1, 199(%rbp)
	.cv_loc	100 13 31 0
.Ltmp505:
.Ltmp517:
	callq	_ZN102_$LT$core..iter..adapters..map..Map$LT$I$C$F$GT$$u20$as$u20$core..iter..traits..iterator..Iterator$GT$4next17hc8a776c8db45e587E
.Ltmp506:
	movq	%rax, -48(%rbp)
	jmp	.LBB99_1
.Ltmp518:
.LBB99_1:
	movq	-48(%rbp), %rax
	movq	%rax, 200(%rbp)
	movq	200(%rbp), %rax
	movq	%rax, 96(%rbp)
	movl	96(%rbp), %eax
	testq	%rax, %rax
	je	.LBB99_4
	jmp	.LBB99_13
.Ltmp519:
.LBB99_13:
	jmp	.LBB99_5
.Ltmp520:
	ud2
.LBB99_4:
.Ltmp521:
	.cv_loc	100 13 33 0
.Ltmp513:
	callq	_ZN11proc_macro24Span9call_site17he457d245e969b90cE
.Ltmp514:
	movl	%eax, -68(%rbp)
	jmp	.LBB99_10
.Ltmp522:
.LBB99_5:
	.cv_loc	100 13 32 0
	movl	100(%rbp), %eax
	movl	%eax, 104(%rbp)
.Ltmp523:
	.cv_loc	100 13 32 0
	movl	104(%rbp), %eax
	movl	%eax, 88(%rbp)
.Ltmp524:
	.cv_loc	100 13 36 0
	movb	$0, 199(%rbp)
	movq	(%rbp), %rax
	movq	%rax, 160(%rbp)
	vmovups	-32(%rbp), %ymm0
	vmovups	%ymm0, 128(%rbp)
	movl	$0, 176(%rbp)
	movq	176(%rbp), %rdx
.Ltmp507:
	leaq	128(%rbp), %rcx
	vzeroupper
	callq	_ZN102_$LT$core..iter..adapters..map..Map$LT$I$C$F$GT$$u20$as$u20$core..iter..traits..iterator..Iterator$GT$4fold17h37b8b3178362a477E
.Ltmp508:
	movq	%rax, -80(%rbp)
	jmp	.LBB99_6
.Ltmp525:
.LBB99_6:
	movq	-80(%rbp), %rax
	movq	%rax, 208(%rbp)
	movq	208(%rbp), %rax
	movq	%rax, 120(%rbp)
	leaq	88(%rbp), %rax
	.cv_loc	100 13 37 0
	movq	%rax, 184(%rbp)
	.cv_loc	100 13 36 0
	movq	120(%rbp), %rcx
	movq	184(%rbp), %rdx
.Ltmp509:
	callq	_ZN4core6option15Option$LT$T$GT$8and_then17h222b0698e7961cfcE
.Ltmp510:
	movq	%rax, -88(%rbp)
	jmp	.LBB99_7
.Ltmp526:
.LBB99_7:
	movq	-88(%rbp), %rax
	movq	%rax, 216(%rbp)
	movq	216(%rbp), %rax
	movq	%rax, 112(%rbp)
	.cv_loc	100 13 38 0
	movl	88(%rbp), %eax
	movl	%eax, 192(%rbp)
	.cv_loc	100 13 36 0
	movq	112(%rbp), %rcx
	movl	192(%rbp), %edx
.Ltmp511:
	callq	_ZN4core6option15Option$LT$T$GT$9unwrap_or17h3f7bbab1807186faE
.Ltmp512:
	movl	%eax, -92(%rbp)
	jmp	.LBB99_8
.Ltmp527:
.LBB99_8:
	movl	-92(%rbp), %eax
	movl	%eax, 224(%rbp)
	movl	224(%rbp), %eax
	movl	%eax, -40(%rbp)
.Ltmp528:
	.cv_loc	100 13 39 0
	movb	$0, 199(%rbp)
.Ltmp529:
.LBB99_9:
	movl	-40(%rbp), %eax
	addq	$368, %rsp
	popq	%rbp
	retq
.Ltmp530:
.LBB99_10:
	.cv_loc	100 13 33 0
	movl	-68(%rbp), %eax
.Ltmp531:
	movl	%eax, 228(%rbp)
	movl	228(%rbp), %eax
	movl	%eax, -40(%rbp)
.Ltmp532:
	.cv_loc	100 13 39 0
	leaq	-32(%rbp), %rcx
	callq	_ZN4core3ptr152drop_in_place$LT$core..iter..adapters..map..Map$LT$proc_macro2..token_stream..IntoIter$C$quote..spanned..join_spans..$u7b$$u7b$closure$u7d$$u7d$$GT$$GT$17h673abc71a30106bdE
	movb	$0, 199(%rbp)
	jmp	.LBB99_9
.Ltmp533:
	.seh_handlerdata
	.long	($cppxdata$_ZN5quote7spanned10join_spans17ha3e0515643f254f3E)@IMGREL
	.section	.text,"xr",one_only,_ZN5quote7spanned10join_spans17ha3e0515643f254f3E
	.seh_endproc
	.def	"?dtor$2@?0?_ZN5quote7spanned10join_spans17ha3e0515643f254f3E@4HA";
	.scl	3;
	.type	32;
	.endef
	.p2align	4, 0x90
"?dtor$2@?0?_ZN5quote7spanned10join_spans17ha3e0515643f254f3E@4HA":
.seh_proc "?dtor$2@?0?_ZN5quote7spanned10join_spans17ha3e0515643f254f3E@4HA"
.LBB99_2:
	movq	%rdx, 16(%rsp)
	pushq	%rbp
	.seh_pushreg %rbp
	subq	$32, %rsp
	.seh_stackalloc 32
	leaq	128(%rdx), %rbp
	.seh_endprologue
	testb	$1, 199(%rbp)
	jne	.LBB99_12
	jmp	.LBB99_11
.Ltmp534:
.LBB99_11:
	.cv_loc	100 13 28 0
	addq	$32, %rsp
	popq	%rbp
	retq
.Ltmp535:
.LBB99_12:
	.cv_loc	100 13 39 0
	leaq	-32(%rbp), %rcx
	callq	_ZN4core3ptr152drop_in_place$LT$core..iter..adapters..map..Map$LT$proc_macro2..token_stream..IntoIter$C$quote..spanned..join_spans..$u7b$$u7b$closure$u7d$$u7d$$GT$$GT$17h673abc71a30106bdE
	jmp	.LBB99_11
.Ltmp536:
.Lfunc_end99:
	.seh_handlerdata
	.section	.text,"xr",one_only,_ZN5quote7spanned10join_spans17ha3e0515643f254f3E
	.seh_endproc
	.section	.xdata,"dr",associative,_ZN5quote7spanned10join_spans17ha3e0515643f254f3E
	.p2align	2
$cppxdata$_ZN5quote7spanned10join_spans17ha3e0515643f254f3E:
	.long	429065506
	.long	1
	.long	($stateUnwindMap$_ZN5quote7spanned10join_spans17ha3e0515643f254f3E)@IMGREL
	.long	0
	.long	0
	.long	3
	.long	($ip2state$_ZN5quote7spanned10join_spans17ha3e0515643f254f3E)@IMGREL
	.long	360
	.long	0
	.long	1
$stateUnwindMap$_ZN5quote7spanned10join_spans17ha3e0515643f254f3E:
	.long	-1
	.long	"?dtor$2@?0?_ZN5quote7spanned10join_spans17ha3e0515643f254f3E@4HA"@IMGREL
$ip2state$_ZN5quote7spanned10join_spans17ha3e0515643f254f3E:
	.long	.Lfunc_begin99@IMGREL
	.long	-1
	.long	.Ltmp505@IMGREL+1
	.long	0
	.long	.Ltmp512@IMGREL+1
	.long	-1
	.section	.text,"xr",one_only,_ZN5quote7spanned10join_spans17ha3e0515643f254f3E

	.def	_ZN5quote7spanned10join_spans28_$u7b$$u7b$closure$u7d$$u7d$17hf6f26556db3c128fE;
	.scl	3;
	.type	32;
	.endef
	.section	.text,"xr",one_only,_ZN5quote7spanned10join_spans28_$u7b$$u7b$closure$u7d$$u7d$17hf6f26556db3c128fE
	.p2align	4, 0x90
_ZN5quote7spanned10join_spans28_$u7b$$u7b$closure$u7d$$u7d$17hf6f26556db3c128fE:
.Lfunc_begin100:
	.cv_func_id 101
	.cv_loc	101 13 29 0
.seh_proc _ZN5quote7spanned10join_spans28_$u7b$$u7b$closure$u7d$$u7d$17hf6f26556db3c128fE
	.seh_handler __CxxFrameHandler3, @unwind, @except
	pushq	%rbp
	.seh_pushreg %rbp
	subq	$80, %rsp
	.seh_stackalloc 80
	leaq	80(%rsp), %rbp
	.seh_setframe %rbp, 80
	.seh_endprologue
	movq	$-2, -8(%rbp)
	movq	%rdx, -48(%rbp)
.Ltmp539:
	movq	%rcx, %rax
	movq	-48(%rbp), %rcx
	movq	%rax, -24(%rbp)
.Ltmp537:
.Ltmp540:
	callq	_ZN11proc_macro29TokenTree4span17hd7494823df54f537E
.Ltmp538:
	movl	%eax, -36(%rbp)
	jmp	.LBB100_1
.Ltmp541:
.LBB100_1:
	movq	-48(%rbp), %rcx
	movl	-36(%rbp), %eax
	movl	%eax, -12(%rbp)
	movl	-12(%rbp), %eax
	movl	%eax, -32(%rbp)
	callq	_ZN4core3ptr43drop_in_place$LT$proc_macro2..TokenTree$GT$17h57ccd2f8f7c93c0bE
	movl	-32(%rbp), %eax
	addq	$80, %rsp
	popq	%rbp
	retq
.Ltmp542:
	.seh_handlerdata
	.long	($cppxdata$_ZN5quote7spanned10join_spans28_$u7b$$u7b$closure$u7d$$u7d$17hf6f26556db3c128fE)@IMGREL
	.section	.text,"xr",one_only,_ZN5quote7spanned10join_spans28_$u7b$$u7b$closure$u7d$$u7d$17hf6f26556db3c128fE
	.seh_endproc
	.def	"?dtor$2@?0?_ZN5quote7spanned10join_spans28_$u7b$$u7b$closure$u7d$$u7d$17hf6f26556db3c128fE@4HA";
	.scl	3;
	.type	32;
	.endef
	.p2align	4, 0x90
"?dtor$2@?0?_ZN5quote7spanned10join_spans28_$u7b$$u7b$closure$u7d$$u7d$17hf6f26556db3c128fE@4HA":
.seh_proc "?dtor$2@?0?_ZN5quote7spanned10join_spans28_$u7b$$u7b$closure$u7d$$u7d$17hf6f26556db3c128fE@4HA"
.LBB100_2:
	movq	%rdx, 16(%rsp)
	pushq	%rbp
	.seh_pushreg %rbp
	subq	$32, %rsp
	.seh_stackalloc 32
	leaq	80(%rdx), %rbp
.Ltmp543:
	.seh_endprologue
	movq	-48(%rbp), %rcx
	callq	_ZN4core3ptr43drop_in_place$LT$proc_macro2..TokenTree$GT$17h57ccd2f8f7c93c0bE
	nop
	addq	$32, %rsp
	popq	%rbp
	retq
.Ltmp544:
.Lfunc_end100:
	.seh_handlerdata
	.section	.text,"xr",one_only,_ZN5quote7spanned10join_spans28_$u7b$$u7b$closure$u7d$$u7d$17hf6f26556db3c128fE
	.seh_endproc
	.section	.xdata,"dr",associative,_ZN5quote7spanned10join_spans28_$u7b$$u7b$closure$u7d$$u7d$17hf6f26556db3c128fE
	.p2align	2
$cppxdata$_ZN5quote7spanned10join_spans28_$u7b$$u7b$closure$u7d$$u7d$17hf6f26556db3c128fE:
	.long	429065506
	.long	1
	.long	($stateUnwindMap$_ZN5quote7spanned10join_spans28_$u7b$$u7b$closure$u7d$$u7d$17hf6f26556db3c128fE)@IMGREL
	.long	0
	.long	0
	.long	3
	.long	($ip2state$_ZN5quote7spanned10join_spans28_$u7b$$u7b$closure$u7d$$u7d$17hf6f26556db3c128fE)@IMGREL
	.long	72
	.long	0
	.long	1
$stateUnwindMap$_ZN5quote7spanned10join_spans28_$u7b$$u7b$closure$u7d$$u7d$17hf6f26556db3c128fE:
	.long	-1
	.long	"?dtor$2@?0?_ZN5quote7spanned10join_spans28_$u7b$$u7b$closure$u7d$$u7d$17hf6f26556db3c128fE@4HA"@IMGREL
$ip2state$_ZN5quote7spanned10join_spans28_$u7b$$u7b$closure$u7d$$u7d$17hf6f26556db3c128fE:
	.long	.Lfunc_begin100@IMGREL
	.long	-1
	.long	.Ltmp537@IMGREL+1
	.long	0
	.long	.Ltmp538@IMGREL+1
	.long	-1
	.section	.text,"xr",one_only,_ZN5quote7spanned10join_spans28_$u7b$$u7b$closure$u7d$$u7d$17hf6f26556db3c128fE

	.def	_ZN5quote7spanned10join_spans28_$u7b$$u7b$closure$u7d$$u7d$17hcf090db290bcdb34E;
	.scl	3;
	.type	32;
	.endef
	.section	.text,"xr",one_only,_ZN5quote7spanned10join_spans28_$u7b$$u7b$closure$u7d$$u7d$17hcf090db290bcdb34E
	.p2align	4, 0x90
_ZN5quote7spanned10join_spans28_$u7b$$u7b$closure$u7d$$u7d$17hcf090db290bcdb34E:
.Lfunc_begin101:
	.cv_func_id 102
	.cv_loc	102 13 36 0
.seh_proc _ZN5quote7spanned10join_spans28_$u7b$$u7b$closure$u7d$$u7d$17hcf090db290bcdb34E
	subq	$48, %rsp
	.seh_stackalloc 48
	.seh_endprologue
	movq	%rdx, 8(%rsp)
	movq	8(%rsp), %rax
	movq	%rax, (%rsp)
	movl	%r8d, 20(%rsp)
	movl	20(%rsp), %eax
	movl	%eax, 16(%rsp)
	movq	%rcx, 40(%rsp)
.Ltmp545:
	movl	16(%rsp), %eax
	movl	%eax, 32(%rsp)
	movl	32(%rsp), %eax
	movl	%eax, 28(%rsp)
	movl	$1, 24(%rsp)
	movq	24(%rsp), %rax
	addq	$48, %rsp
	retq
.Ltmp546:
.Lfunc_end101:
	.seh_endproc

	.def	_ZN5quote7spanned10join_spans28_$u7b$$u7b$closure$u7d$$u7d$17hc7a2d8fb2b2a814eE;
	.scl	3;
	.type	32;
	.endef
	.section	.text,"xr",one_only,_ZN5quote7spanned10join_spans28_$u7b$$u7b$closure$u7d$$u7d$17hc7a2d8fb2b2a814eE
	.p2align	4, 0x90
_ZN5quote7spanned10join_spans28_$u7b$$u7b$closure$u7d$$u7d$17hc7a2d8fb2b2a814eE:
.Lfunc_begin102:
	.cv_func_id 103
	.cv_loc	103 13 37 0
.seh_proc _ZN5quote7spanned10join_spans28_$u7b$$u7b$closure$u7d$$u7d$17hc7a2d8fb2b2a814eE
	subq	$72, %rsp
	.seh_stackalloc 72
	.seh_endprologue
	movl	%edx, 36(%rsp)
	movl	36(%rsp), %eax
	movl	%eax, 32(%rsp)
	movq	%rcx, 56(%rsp)
.Ltmp547:
	movl	32(%rsp), %eax
	movl	%eax, 48(%rsp)
	movl	48(%rsp), %edx
	callq	_ZN11proc_macro24Span4join17h31f119bedebafed7E
	movq	%rax, 64(%rsp)
	movq	64(%rsp), %rax
	movq	%rax, 40(%rsp)
	movq	40(%rsp), %rax
	addq	$72, %rsp
	retq
.Ltmp548:
.Lfunc_end102:
	.seh_endproc

	.def	_ZN61_$LT$bool$u20$as$u20$quote..ident_fragment..IdentFragment$GT$3fmt17hc93c112d3a8cc676E;
	.scl	2;
	.type	32;
	.endef
	.section	.text,"xr",one_only,_ZN61_$LT$bool$u20$as$u20$quote..ident_fragment..IdentFragment$GT$3fmt17hc93c112d3a8cc676E
	.globl	_ZN61_$LT$bool$u20$as$u20$quote..ident_fragment..IdentFragment$GT$3fmt17hc93c112d3a8cc676E
	.p2align	4, 0x90
_ZN61_$LT$bool$u20$as$u20$quote..ident_fragment..IdentFragment$GT$3fmt17hc93c112d3a8cc676E:
.Lfunc_begin103:
	.cv_func_id 104
	.cv_loc	104 4 79 0
.seh_proc _ZN61_$LT$bool$u20$as$u20$quote..ident_fragment..IdentFragment$GT$3fmt17hc93c112d3a8cc676E
	subq	$56, %rsp
	.seh_stackalloc 56
	.seh_endprologue
	movq	%rcx, 40(%rsp)
	movq	%rdx, 48(%rsp)
.Ltmp549:
	.cv_loc	104 4 80 0
	callq	_ZN43_$LT$bool$u20$as$u20$core..fmt..Display$GT$3fmt17h474288718909c0dcE
	movb	%al, 39(%rsp)
	.cv_loc	104 4 81 0
	movb	39(%rsp), %al
	andb	$1, %al
	movzbl	%al, %eax
	addq	$56, %rsp
	retq
.Ltmp550:
.Lfunc_end103:
	.seh_endproc

	.def	_ZN60_$LT$str$u20$as$u20$quote..ident_fragment..IdentFragment$GT$3fmt17h733581a031ab3f10E;
	.scl	2;
	.type	32;
	.endef
	.section	.text,"xr",one_only,_ZN60_$LT$str$u20$as$u20$quote..ident_fragment..IdentFragment$GT$3fmt17h733581a031ab3f10E
	.globl	_ZN60_$LT$str$u20$as$u20$quote..ident_fragment..IdentFragment$GT$3fmt17h733581a031ab3f10E
	.p2align	4, 0x90
_ZN60_$LT$str$u20$as$u20$quote..ident_fragment..IdentFragment$GT$3fmt17h733581a031ab3f10E:
.Lfunc_begin104:
	.cv_func_id 105
	.cv_loc	105 4 79 0
.seh_proc _ZN60_$LT$str$u20$as$u20$quote..ident_fragment..IdentFragment$GT$3fmt17h733581a031ab3f10E
	subq	$72, %rsp
	.seh_stackalloc 72
	.seh_endprologue
	movq	%rcx, 48(%rsp)
	movq	%rdx, 56(%rsp)
	movq	%r8, 64(%rsp)
.Ltmp551:
	.cv_loc	105 4 80 0
	callq	_ZN42_$LT$str$u20$as$u20$core..fmt..Display$GT$3fmt17hd878a59bdc0589eeE
	movb	%al, 47(%rsp)
	.cv_loc	105 4 81 0
	movb	47(%rsp), %al
	andb	$1, %al
	movzbl	%al, %eax
	addq	$72, %rsp
	retq
.Ltmp552:
.Lfunc_end104:
	.seh_endproc

	.def	_ZN78_$LT$alloc..string..String$u20$as$u20$quote..ident_fragment..IdentFragment$GT$3fmt17hcb200357d588d7cfE;
	.scl	2;
	.type	32;
	.endef
	.section	.text,"xr",one_only,_ZN78_$LT$alloc..string..String$u20$as$u20$quote..ident_fragment..IdentFragment$GT$3fmt17hcb200357d588d7cfE
	.globl	_ZN78_$LT$alloc..string..String$u20$as$u20$quote..ident_fragment..IdentFragment$GT$3fmt17hcb200357d588d7cfE
	.p2align	4, 0x90
_ZN78_$LT$alloc..string..String$u20$as$u20$quote..ident_fragment..IdentFragment$GT$3fmt17hcb200357d588d7cfE:
.Lfunc_begin105:
	.cv_func_id 106
	.cv_loc	106 4 79 0
.seh_proc _ZN78_$LT$alloc..string..String$u20$as$u20$quote..ident_fragment..IdentFragment$GT$3fmt17hcb200357d588d7cfE
	subq	$56, %rsp
	.seh_stackalloc 56
	.seh_endprologue
	movq	%rcx, 40(%rsp)
	movq	%rdx, 48(%rsp)
.Ltmp553:
	.cv_loc	106 4 80 0
	callq	_ZN60_$LT$alloc..string..String$u20$as$u20$core..fmt..Display$GT$3fmt17h961554523363761cE
	movb	%al, 39(%rsp)
	.cv_loc	106 4 81 0
	movb	39(%rsp), %al
	andb	$1, %al
	movzbl	%al, %eax
	addq	$56, %rsp
	retq
.Ltmp554:
.Lfunc_end105:
	.seh_endproc

	.def	_ZN61_$LT$char$u20$as$u20$quote..ident_fragment..IdentFragment$GT$3fmt17hf5171025ee0d5aacE;
	.scl	2;
	.type	32;
	.endef
	.section	.text,"xr",one_only,_ZN61_$LT$char$u20$as$u20$quote..ident_fragment..IdentFragment$GT$3fmt17hf5171025ee0d5aacE
	.globl	_ZN61_$LT$char$u20$as$u20$quote..ident_fragment..IdentFragment$GT$3fmt17hf5171025ee0d5aacE
	.p2align	4, 0x90
_ZN61_$LT$char$u20$as$u20$quote..ident_fragment..IdentFragment$GT$3fmt17hf5171025ee0d5aacE:
.Lfunc_begin106:
	.cv_func_id 107
	.cv_loc	107 4 79 0
.seh_proc _ZN61_$LT$char$u20$as$u20$quote..ident_fragment..IdentFragment$GT$3fmt17hf5171025ee0d5aacE
	subq	$56, %rsp
	.seh_stackalloc 56
	.seh_endprologue
	movq	%rcx, 40(%rsp)
	movq	%rdx, 48(%rsp)
.Ltmp555:
	.cv_loc	107 4 80 0
	callq	_ZN43_$LT$char$u20$as$u20$core..fmt..Display$GT$3fmt17he97bff91f97a36bbE
	movb	%al, 39(%rsp)
	.cv_loc	107 4 81 0
	movb	39(%rsp), %al
	andb	$1, %al
	movzbl	%al, %eax
	addq	$56, %rsp
	retq
.Ltmp556:
.Lfunc_end106:
	.seh_endproc

	.def	_ZN59_$LT$u8$u20$as$u20$quote..ident_fragment..IdentFragment$GT$3fmt17h13dd3ffa2169ae73E;
	.scl	2;
	.type	32;
	.endef
	.section	.text,"xr",one_only,_ZN59_$LT$u8$u20$as$u20$quote..ident_fragment..IdentFragment$GT$3fmt17h13dd3ffa2169ae73E
	.globl	_ZN59_$LT$u8$u20$as$u20$quote..ident_fragment..IdentFragment$GT$3fmt17h13dd3ffa2169ae73E
	.p2align	4, 0x90
_ZN59_$LT$u8$u20$as$u20$quote..ident_fragment..IdentFragment$GT$3fmt17h13dd3ffa2169ae73E:
.Lfunc_begin107:
	.cv_func_id 108
	.cv_loc	108 4 79 0
