	.text
	.def	@feat.00;
	.scl	3;
	.type	0;
	.endef
	.globl	@feat.00
.set @feat.00, 0
	.file	"quote.5a687fc6-cgu.0"
	.def	_ZN100_$LT$alloc..string..String$u20$as$u20$core..ops..index..Index$LT$core..ops..range..RangeFull$GT$$GT$5index17h07e75f4b00d1cd96E;
	.scl	3;
	.type	32;
	.endef
	.section	.text,"xr",one_only,_ZN100_$LT$alloc..string..String$u20$as$u20$core..ops..index..Index$LT$core..ops..range..RangeFull$GT$$GT$5index17h07e75f4b00d1cd96E
	.p2align	4, 0x90
_ZN100_$LT$alloc..string..String$u20$as$u20$core..ops..index..Index$LT$core..ops..range..RangeFull$GT$$GT$5index17h07e75f4b00d1cd96E:
.Lfunc_begin0:
	.cv_func_id 0
	.cv_file	1 "/rustc/90743e7298aca107ddaa0c202a4d3604e29bfeb6\\library\\alloc\\src\\string.rs" "8BE94AA191D22E1A474326FE9CD13132B02F4EE3" 2
	.cv_loc	0 1 2388 0
.seh_proc _ZN100_$LT$alloc..string..String$u20$as$u20$core..ops..index..Index$LT$core..ops..range..RangeFull$GT$$GT$5index17h07e75f4b00d1cd96E
	subq	$120, %rsp
	.seh_stackalloc 120
	.seh_endprologue
	movq	%rcx, 72(%rsp)
.Ltmp0:
	.cv_loc	0 1 2389 0
	callq	_ZN72_$LT$alloc..vec..Vec$LT$T$C$A$GT$$u20$as$u20$core..ops..deref..Deref$GT$5deref17haaf63c2509909ae7E
	movq	%rax, 56(%rsp)
	movq	%rdx, 64(%rsp)
	movq	64(%rsp), %rax
	movq	56(%rsp), %rcx
	movq	%rcx, 88(%rsp)
	movq	%rax, 96(%rsp)
.Ltmp1:
	.cv_file	2 "/rustc/90743e7298aca107ddaa0c202a4d3604e29bfeb6\\library\\core\\src\\str\\converts.rs" "C9DB5177FAB1B6855769DC314DB2C46E36643642" 2
	.cv_inline_site_id 1 within 0 inlined_at 1 2389 0
	.cv_loc	1 2 173 0
	movq	%rcx, 104(%rsp)
	movq	%rax, 112(%rsp)
	movq	104(%rsp), %rax
	movq	%rax, 40(%rsp)
	movq	112(%rsp), %rax
	movq	%rax, 48(%rsp)
.Ltmp2:
	.cv_loc	0 1 2390 0
	movq	48(%rsp), %rdx
	movq	40(%rsp), %rax
	addq	$120, %rsp
	retq
.Ltmp3:
.Lfunc_end0:
	.seh_endproc

	.def	_ZN102_$LT$core..iter..adapters..map..Map$LT$I$C$F$GT$$u20$as$u20$core..iter..traits..iterator..Iterator$GT$4fold17h03baf5fb8cecaf18E;
	.scl	2;
	.type	32;
	.endef
	.section	.text,"xr",one_only,_ZN102_$LT$core..iter..adapters..map..Map$LT$I$C$F$GT$$u20$as$u20$core..iter..traits..iterator..Iterator$GT$4fold17h03baf5fb8cecaf18E
	.globl	_ZN102_$LT$core..iter..adapters..map..Map$LT$I$C$F$GT$$u20$as$u20$core..iter..traits..iterator..Iterator$GT$4fold17h03baf5fb8cecaf18E
	.p2align	4, 0x90
_ZN102_$LT$core..iter..adapters..map..Map$LT$I$C$F$GT$$u20$as$u20$core..iter..traits..iterator..Iterator$GT$4fold17h03baf5fb8cecaf18E:
.Lfunc_begin1:
	.cv_func_id 2
	.cv_file	3 "/rustc/90743e7298aca107ddaa0c202a4d3604e29bfeb6\\library\\core\\src\\iter\\adapters\\map.rs" "A92E7094A2008E1F92B3DF48A08FD9FB8959B57C" 2
	.cv_loc	2 3 120 0
.seh_proc _ZN102_$LT$core..iter..adapters..map..Map$LT$I$C$F$GT$$u20$as$u20$core..iter..traits..iterator..Iterator$GT$4fold17h03baf5fb8cecaf18E
	.seh_handler __CxxFrameHandler3, @unwind, @except
	pushq	%rbp
	.seh_pushreg %rbp
	subq	$112, %rsp
	.seh_stackalloc 112
	leaq	112(%rsp), %rbp
	.seh_setframe %rbp, 112
	.seh_endprologue
	movq	$-2, -8(%rbp)
	movl	%r8d, -72(%rbp)
	movl	%edx, -68(%rbp)
.Ltmp8:
	movl	%edx, -16(%rbp)
	movl	%r8d, -12(%rbp)
.Ltmp9:
	.cv_loc	2 3 124 0
	movb	$1, -17(%rbp)
	movq	32(%rcx), %rax
	movq	%rax, -32(%rbp)
	vmovups	(%rcx), %ymm0
	vmovups	%ymm0, -64(%rbp)
	movb	$1, -18(%rbp)
.Ltmp4:
	vzeroupper
	callq	_ZN4core4iter8adapters3map8map_fold17hc4764dc34a41f52cE
.Ltmp10:
.Ltmp5:
	jmp	.LBB1_2
.Ltmp11:
.LBB1_2:
	movl	-72(%rbp), %r8d
	movl	-68(%rbp), %edx
	movb	$0, -17(%rbp)
	movb	$0, -18(%rbp)
.Ltmp6:
	leaq	-64(%rbp), %rcx
	callq	_ZN4core4iter6traits8iterator8Iterator4fold17h3e1d20834a43f422E
.Ltmp7:
	movl	%edx, -80(%rbp)
	movl	%eax, -76(%rbp)
	jmp	.LBB1_3
.Ltmp12:
.LBB1_3:
	.cv_loc	2 3 125 0
	movl	-80(%rbp), %edx
	movl	-76(%rbp), %eax
	addq	$112, %rsp
	popq	%rbp
	retq
.Ltmp13:
	.seh_handlerdata
	.long	($cppxdata$_ZN102_$LT$core..iter..adapters..map..Map$LT$I$C$F$GT$$u20$as$u20$core..iter..traits..iterator..Iterator$GT$4fold17h03baf5fb8cecaf18E)@IMGREL
	.section	.text,"xr",one_only,_ZN102_$LT$core..iter..adapters..map..Map$LT$I$C$F$GT$$u20$as$u20$core..iter..traits..iterator..Iterator$GT$4fold17h03baf5fb8cecaf18E
	.seh_endproc
	.def	"?dtor$1@?0?_ZN102_$LT$core..iter..adapters..map..Map$LT$I$C$F$GT$$u20$as$u20$core..iter..traits..iterator..Iterator$GT$4fold17h03baf5fb8cecaf18E@4HA";
	.scl	3;
	.type	32;
	.endef
	.p2align	4, 0x90
"?dtor$1@?0?_ZN102_$LT$core..iter..adapters..map..Map$LT$I$C$F$GT$$u20$as$u20$core..iter..traits..iterator..Iterator$GT$4fold17h03baf5fb8cecaf18E@4HA":
.seh_proc "?dtor$1@?0?_ZN102_$LT$core..iter..adapters..map..Map$LT$I$C$F$GT$$u20$as$u20$core..iter..traits..iterator..Iterator$GT$4fold17h03baf5fb8cecaf18E@4HA"
.LBB1_1:
	movq	%rdx, 16(%rsp)
	pushq	%rbp
	.seh_pushreg %rbp
	subq	$32, %rsp
	.seh_stackalloc 32
	leaq	112(%rdx), %rbp
	.seh_endprologue
	.cv_loc	2 3 124 0
	testb	$1, -18(%rbp)
	jne	.LBB1_5
	jmp	.LBB1_4
.Ltmp14:
.LBB1_4:
	testb	$1, -17(%rbp)
	jne	.LBB1_7
	jmp	.LBB1_6
.Ltmp15:
.LBB1_5:
	jmp	.LBB1_4
.Ltmp16:
.LBB1_6:
	.cv_loc	2 3 120 0
	addq	$32, %rsp
	popq	%rbp
	retq
.Ltmp17:
.LBB1_7:
	.cv_loc	2 3 124 0
	leaq	-64(%rbp), %rcx
	callq	_ZN4core3ptr56drop_in_place$LT$proc_macro2..token_stream..IntoIter$GT$17h31690c0a48060d07E
	jmp	.LBB1_6
.Ltmp18:
.Lfunc_end1:
	.seh_handlerdata
	.section	.text,"xr",one_only,_ZN102_$LT$core..iter..adapters..map..Map$LT$I$C$F$GT$$u20$as$u20$core..iter..traits..iterator..Iterator$GT$4fold17h03baf5fb8cecaf18E
	.seh_endproc
	.section	.xdata,"dr",associative,_ZN102_$LT$core..iter..adapters..map..Map$LT$I$C$F$GT$$u20$as$u20$core..iter..traits..iterator..Iterator$GT$4fold17h03baf5fb8cecaf18E
	.p2align	2
$cppxdata$_ZN102_$LT$core..iter..adapters..map..Map$LT$I$C$F$GT$$u20$as$u20$core..iter..traits..iterator..Iterator$GT$4fold17h03baf5fb8cecaf18E:
	.long	429065506
	.long	1
	.long	($stateUnwindMap$_ZN102_$LT$core..iter..adapters..map..Map$LT$I$C$F$GT$$u20$as$u20$core..iter..traits..iterator..Iterator$GT$4fold17h03baf5fb8cecaf18E)@IMGREL
	.long	0
	.long	0
	.long	3
	.long	($ip2state$_ZN102_$LT$core..iter..adapters..map..Map$LT$I$C$F$GT$$u20$as$u20$core..iter..traits..iterator..Iterator$GT$4fold17h03baf5fb8cecaf18E)@IMGREL
	.long	104
	.long	0
	.long	1
$stateUnwindMap$_ZN102_$LT$core..iter..adapters..map..Map$LT$I$C$F$GT$$u20$as$u20$core..iter..traits..iterator..Iterator$GT$4fold17h03baf5fb8cecaf18E:
	.long	-1
	.long	"?dtor$1@?0?_ZN102_$LT$core..iter..adapters..map..Map$LT$I$C$F$GT$$u20$as$u20$core..iter..traits..iterator..Iterator$GT$4fold17h03baf5fb8cecaf18E@4HA"@IMGREL
$ip2state$_ZN102_$LT$core..iter..adapters..map..Map$LT$I$C$F$GT$$u20$as$u20$core..iter..traits..iterator..Iterator$GT$4fold17h03baf5fb8cecaf18E:
	.long	.Lfunc_begin1@IMGREL
	.long	-1
	.long	.Ltmp4@IMGREL+1
	.long	0
	.long	.Ltmp7@IMGREL+1
	.long	-1
	.section	.text,"xr",one_only,_ZN102_$LT$core..iter..adapters..map..Map$LT$I$C$F$GT$$u20$as$u20$core..iter..traits..iterator..Iterator$GT$4fold17h03baf5fb8cecaf18E

	.def	_ZN102_$LT$core..iter..adapters..map..Map$LT$I$C$F$GT$$u20$as$u20$core..iter..traits..iterator..Iterator$GT$4fold17h0a1c6094c7a9a02fE;
	.scl	2;
	.type	32;
	.endef
	.section	.text,"xr",one_only,_ZN102_$LT$core..iter..adapters..map..Map$LT$I$C$F$GT$$u20$as$u20$core..iter..traits..iterator..Iterator$GT$4fold17h0a1c6094c7a9a02fE
	.globl	_ZN102_$LT$core..iter..adapters..map..Map$LT$I$C$F$GT$$u20$as$u20$core..iter..traits..iterator..Iterator$GT$4fold17h0a1c6094c7a9a02fE
	.p2align	4, 0x90
_ZN102_$LT$core..iter..adapters..map..Map$LT$I$C$F$GT$$u20$as$u20$core..iter..traits..iterator..Iterator$GT$4fold17h0a1c6094c7a9a02fE:
.Lfunc_begin2:
	.cv_func_id 3
	.cv_loc	3 3 120 0
.seh_proc _ZN102_$LT$core..iter..adapters..map..Map$LT$I$C$F$GT$$u20$as$u20$core..iter..traits..iterator..Iterator$GT$4fold17h0a1c6094c7a9a02fE
	.seh_handler __CxxFrameHandler3, @unwind, @except
	pushq	%rbp
	.seh_pushreg %rbp
	subq	$128, %rsp
	.seh_stackalloc 128
	leaq	128(%rsp), %rbp
	.seh_setframe %rbp, 128
	.seh_endprologue
	movq	$-2, -8(%rbp)
	movq	%rdx, -96(%rbp)
	movq	%rcx, %rax
	movq	-96(%rbp), %rcx
.Ltmp23:
	movq	%rcx, -16(%rbp)
.Ltmp24:
	.cv_loc	3 3 124 0
	movb	$1, -17(%rbp)
	vmovups	(%rax), %ymm0
	vmovups	16(%rax), %ymm1
	vmovups	%ymm1, -64(%rbp)
	vmovups	%ymm0, -80(%rbp)
	movb	$1, -18(%rbp)
.Ltmp19:
	vzeroupper
	callq	_ZN4core4iter8adapters3map8map_fold17h4ddbecd1c7a5c405E
.Ltmp25:
.Ltmp20:
	movq	%rax, -88(%rbp)
	jmp	.LBB2_2
.LBB2_2:
	movq	-88(%rbp), %rdx
	movb	$0, -17(%rbp)
	movb	$0, -18(%rbp)
.Ltmp21:
	leaq	-80(%rbp), %rcx
	callq	_ZN102_$LT$core..iter..adapters..map..Map$LT$I$C$F$GT$$u20$as$u20$core..iter..traits..iterator..Iterator$GT$4fold17ha5e026283c694d54E
.Ltmp22:
	jmp	.LBB2_3
.LBB2_3:
	.cv_loc	3 3 125 0
	addq	$128, %rsp
	popq	%rbp
	retq
	.seh_handlerdata
	.long	($cppxdata$_ZN102_$LT$core..iter..adapters..map..Map$LT$I$C$F$GT$$u20$as$u20$core..iter..traits..iterator..Iterator$GT$4fold17h0a1c6094c7a9a02fE)@IMGREL
	.section	.text,"xr",one_only,_ZN102_$LT$core..iter..adapters..map..Map$LT$I$C$F$GT$$u20$as$u20$core..iter..traits..iterator..Iterator$GT$4fold17h0a1c6094c7a9a02fE
	.seh_endproc
	.def	"?dtor$1@?0?_ZN102_$LT$core..iter..adapters..map..Map$LT$I$C$F$GT$$u20$as$u20$core..iter..traits..iterator..Iterator$GT$4fold17h0a1c6094c7a9a02fE@4HA";
	.scl	3;
	.type	32;
	.endef
	.p2align	4, 0x90
"?dtor$1@?0?_ZN102_$LT$core..iter..adapters..map..Map$LT$I$C$F$GT$$u20$as$u20$core..iter..traits..iterator..Iterator$GT$4fold17h0a1c6094c7a9a02fE@4HA":
.seh_proc "?dtor$1@?0?_ZN102_$LT$core..iter..adapters..map..Map$LT$I$C$F$GT$$u20$as$u20$core..iter..traits..iterator..Iterator$GT$4fold17h0a1c6094c7a9a02fE@4HA"
.LBB2_1:
	movq	%rdx, 16(%rsp)
	pushq	%rbp
	.seh_pushreg %rbp
	subq	$32, %rsp
	.seh_stackalloc 32
	leaq	128(%rdx), %rbp
	.seh_endprologue
	.cv_loc	3 3 124 0
	testb	$1, -18(%rbp)
	jne	.LBB2_5
	jmp	.LBB2_4
.LBB2_4:
	testb	$1, -17(%rbp)
	jne	.LBB2_7
	jmp	.LBB2_6
.LBB2_5:
	jmp	.LBB2_4
.LBB2_6:
	.cv_loc	3 3 120 0
	addq	$32, %rsp
	popq	%rbp
	retq
.LBB2_7:
	.cv_loc	3 3 124 0
	leaq	-80(%rbp), %rcx
	callq	_ZN4core3ptr161drop_in_place$LT$core..iter..adapters..map..Map$LT$proc_macro2..token_stream..IntoIter$C$quote..__private..respan_token_tree..$u7b$$u7b$closure$u7d$$u7d$$GT$$GT$17hef05679331b998cfE
	jmp	.LBB2_6
.Ltmp26:
.Lfunc_end2:
	.seh_handlerdata
	.section	.text,"xr",one_only,_ZN102_$LT$core..iter..adapters..map..Map$LT$I$C$F$GT$$u20$as$u20$core..iter..traits..iterator..Iterator$GT$4fold17h0a1c6094c7a9a02fE
	.seh_endproc
	.section	.xdata,"dr",associative,_ZN102_$LT$core..iter..adapters..map..Map$LT$I$C$F$GT$$u20$as$u20$core..iter..traits..iterator..Iterator$GT$4fold17h0a1c6094c7a9a02fE
	.p2align	2
$cppxdata$_ZN102_$LT$core..iter..adapters..map..Map$LT$I$C$F$GT$$u20$as$u20$core..iter..traits..iterator..Iterator$GT$4fold17h0a1c6094c7a9a02fE:
	.long	429065506
	.long	1
	.long	($stateUnwindMap$_ZN102_$LT$core..iter..adapters..map..Map$LT$I$C$F$GT$$u20$as$u20$core..iter..traits..iterator..Iterator$GT$4fold17h0a1c6094c7a9a02fE)@IMGREL
	.long	0
	.long	0
	.long	3
	.long	($ip2state$_ZN102_$LT$core..iter..adapters..map..Map$LT$I$C$F$GT$$u20$as$u20$core..iter..traits..iterator..Iterator$GT$4fold17h0a1c6094c7a9a02fE)@IMGREL
	.long	120
	.long	0
	.long	1
$stateUnwindMap$_ZN102_$LT$core..iter..adapters..map..Map$LT$I$C$F$GT$$u20$as$u20$core..iter..traits..iterator..Iterator$GT$4fold17h0a1c6094c7a9a02fE:
	.long	-1
	.long	"?dtor$1@?0?_ZN102_$LT$core..iter..adapters..map..Map$LT$I$C$F$GT$$u20$as$u20$core..iter..traits..iterator..Iterator$GT$4fold17h0a1c6094c7a9a02fE@4HA"@IMGREL
$ip2state$_ZN102_$LT$core..iter..adapters..map..Map$LT$I$C$F$GT$$u20$as$u20$core..iter..traits..iterator..Iterator$GT$4fold17h0a1c6094c7a9a02fE:
	.long	.Lfunc_begin2@IMGREL
	.long	-1
	.long	.Ltmp19@IMGREL+1
	.long	0
	.long	.Ltmp22@IMGREL+1
	.long	-1
	.section	.text,"xr",one_only,_ZN102_$LT$core..iter..adapters..map..Map$LT$I$C$F$GT$$u20$as$u20$core..iter..traits..iterator..Iterator$GT$4fold17h0a1c6094c7a9a02fE

	.def	_ZN102_$LT$core..iter..adapters..map..Map$LT$I$C$F$GT$$u20$as$u20$core..iter..traits..iterator..Iterator$GT$4fold17h2c1c02ababb98d57E;
	.scl	2;
	.type	32;
	.endef
	.section	.text,"xr",one_only,_ZN102_$LT$core..iter..adapters..map..Map$LT$I$C$F$GT$$u20$as$u20$core..iter..traits..iterator..Iterator$GT$4fold17h2c1c02ababb98d57E
	.globl	_ZN102_$LT$core..iter..adapters..map..Map$LT$I$C$F$GT$$u20$as$u20$core..iter..traits..iterator..Iterator$GT$4fold17h2c1c02ababb98d57E
	.p2align	4, 0x90
_ZN102_$LT$core..iter..adapters..map..Map$LT$I$C$F$GT$$u20$as$u20$core..iter..traits..iterator..Iterator$GT$4fold17h2c1c02ababb98d57E:
.Lfunc_begin3:
	.cv_func_id 4
	.cv_loc	4 3 120 0
.seh_proc _ZN102_$LT$core..iter..adapters..map..Map$LT$I$C$F$GT$$u20$as$u20$core..iter..traits..iterator..Iterator$GT$4fold17h2c1c02ababb98d57E
	.seh_handler __CxxFrameHandler3, @unwind, @except
	pushq	%rbp
	.seh_pushreg %rbp
	subq	$112, %rsp
	.seh_stackalloc 112
	leaq	112(%rsp), %rbp
	.seh_setframe %rbp, 112
	.seh_endprologue
	movq	$-2, -8(%rbp)
	movq	%rdx, -80(%rbp)
	movq	%rcx, %rax
	movq	-80(%rbp), %rcx
.Ltmp31:
	movq	%rcx, -16(%rbp)
.Ltmp32:
	.cv_loc	4 3 124 0
	movb	$1, -17(%rbp)
	movq	32(%rax), %rdx
	movq	%rdx, -32(%rbp)
	vmovups	(%rax), %ymm0
	vmovups	%ymm0, -64(%rbp)
	movb	$1, -18(%rbp)
.Ltmp27:
	vzeroupper
	callq	_ZN4core4iter8adapters3map8map_fold17h1078b4e1b26b56aaE
.Ltmp33:
.Ltmp28:
	movq	%rax, -72(%rbp)
	jmp	.LBB3_2
.LBB3_2:
	movq	-72(%rbp), %rdx
	movb	$0, -17(%rbp)
	movb	$0, -18(%rbp)
.Ltmp29:
	leaq	-64(%rbp), %rcx
	callq	_ZN4core4iter6traits8iterator8Iterator4fold17h1961e353208df690E
.Ltmp30:
	jmp	.LBB3_3
.LBB3_3:
	.cv_loc	4 3 125 0
	addq	$112, %rsp
	popq	%rbp
	retq
	.seh_handlerdata
	.long	($cppxdata$_ZN102_$LT$core..iter..adapters..map..Map$LT$I$C$F$GT$$u20$as$u20$core..iter..traits..iterator..Iterator$GT$4fold17h2c1c02ababb98d57E)@IMGREL
	.section	.text,"xr",one_only,_ZN102_$LT$core..iter..adapters..map..Map$LT$I$C$F$GT$$u20$as$u20$core..iter..traits..iterator..Iterator$GT$4fold17h2c1c02ababb98d57E
	.seh_endproc
	.def	"?dtor$1@?0?_ZN102_$LT$core..iter..adapters..map..Map$LT$I$C$F$GT$$u20$as$u20$core..iter..traits..iterator..Iterator$GT$4fold17h2c1c02ababb98d57E@4HA";
	.scl	3;
	.type	32;
	.endef
	.p2align	4, 0x90
"?dtor$1@?0?_ZN102_$LT$core..iter..adapters..map..Map$LT$I$C$F$GT$$u20$as$u20$core..iter..traits..iterator..Iterator$GT$4fold17h2c1c02ababb98d57E@4HA":
.seh_proc "?dtor$1@?0?_ZN102_$LT$core..iter..adapters..map..Map$LT$I$C$F$GT$$u20$as$u20$core..iter..traits..iterator..Iterator$GT$4fold17h2c1c02ababb98d57E@4HA"
.LBB3_1:
	movq	%rdx, 16(%rsp)
	pushq	%rbp
	.seh_pushreg %rbp
	subq	$32, %rsp
	.seh_stackalloc 32
	leaq	112(%rdx), %rbp
	.seh_endprologue
	.cv_loc	4 3 124 0
	testb	$1, -18(%rbp)
	jne	.LBB3_5
	jmp	.LBB3_4
.LBB3_4:
	testb	$1, -17(%rbp)
	jne	.LBB3_7
	jmp	.LBB3_6
.LBB3_5:
	jmp	.LBB3_4
.LBB3_6:
	.cv_loc	4 3 120 0
	addq	$32, %rsp
	popq	%rbp
	retq
.LBB3_7:
	.cv_loc	4 3 124 0
	leaq	-64(%rbp), %rcx
	callq	_ZN4core3ptr84drop_in_place$LT$core..iter..sources..once..Once$LT$proc_macro2..TokenStream$GT$$GT$17h3a36c78852e9df59E
	jmp	.LBB3_6
.Ltmp34:
.Lfunc_end3:
	.seh_handlerdata
	.section	.text,"xr",one_only,_ZN102_$LT$core..iter..adapters..map..Map$LT$I$C$F$GT$$u20$as$u20$core..iter..traits..iterator..Iterator$GT$4fold17h2c1c02ababb98d57E
	.seh_endproc
	.section	.xdata,"dr",associative,_ZN102_$LT$core..iter..adapters..map..Map$LT$I$C$F$GT$$u20$as$u20$core..iter..traits..iterator..Iterator$GT$4fold17h2c1c02ababb98d57E
	.p2align	2
$cppxdata$_ZN102_$LT$core..iter..adapters..map..Map$LT$I$C$F$GT$$u20$as$u20$core..iter..traits..iterator..Iterator$GT$4fold17h2c1c02ababb98d57E:
	.long	429065506
	.long	1
	.long	($stateUnwindMap$_ZN102_$LT$core..iter..adapters..map..Map$LT$I$C$F$GT$$u20$as$u20$core..iter..traits..iterator..Iterator$GT$4fold17h2c1c02ababb98d57E)@IMGREL
	.long	0
	.long	0
	.long	3
	.long	($ip2state$_ZN102_$LT$core..iter..adapters..map..Map$LT$I$C$F$GT$$u20$as$u20$core..iter..traits..iterator..Iterator$GT$4fold17h2c1c02ababb98d57E)@IMGREL
	.long	104
	.long	0
	.long	1
$stateUnwindMap$_ZN102_$LT$core..iter..adapters..map..Map$LT$I$C$F$GT$$u20$as$u20$core..iter..traits..iterator..Iterator$GT$4fold17h2c1c02ababb98d57E:
	.long	-1
	.long	"?dtor$1@?0?_ZN102_$LT$core..iter..adapters..map..Map$LT$I$C$F$GT$$u20$as$u20$core..iter..traits..iterator..Iterator$GT$4fold17h2c1c02ababb98d57E@4HA"@IMGREL
$ip2state$_ZN102_$LT$core..iter..adapters..map..Map$LT$I$C$F$GT$$u20$as$u20$core..iter..traits..iterator..Iterator$GT$4fold17h2c1c02ababb98d57E:
	.long	.Lfunc_begin3@IMGREL
	.long	-1
	.long	.Ltmp27@IMGREL+1
	.long	0
	.long	.Ltmp30@IMGREL+1
	.long	-1
	.section	.text,"xr",one_only,_ZN102_$LT$core..iter..adapters..map..Map$LT$I$C$F$GT$$u20$as$u20$core..iter..traits..iterator..Iterator$GT$4fold17h2c1c02ababb98d57E

	.def	_ZN102_$LT$core..iter..adapters..map..Map$LT$I$C$F$GT$$u20$as$u20$core..iter..traits..iterator..Iterator$GT$4fold17h30dfbe01b3c86f37E;
	.scl	2;
	.type	32;
	.endef
	.section	.text,"xr",one_only,_ZN102_$LT$core..iter..adapters..map..Map$LT$I$C$F$GT$$u20$as$u20$core..iter..traits..iterator..Iterator$GT$4fold17h30dfbe01b3c86f37E
	.globl	_ZN102_$LT$core..iter..adapters..map..Map$LT$I$C$F$GT$$u20$as$u20$core..iter..traits..iterator..Iterator$GT$4fold17h30dfbe01b3c86f37E
	.p2align	4, 0x90
_ZN102_$LT$core..iter..adapters..map..Map$LT$I$C$F$GT$$u20$as$u20$core..iter..traits..iterator..Iterator$GT$4fold17h30dfbe01b3c86f37E:
.Lfunc_begin4:
	.cv_func_id 5
	.cv_loc	5 3 120 0
.seh_proc _ZN102_$LT$core..iter..adapters..map..Map$LT$I$C$F$GT$$u20$as$u20$core..iter..traits..iterator..Iterator$GT$4fold17h30dfbe01b3c86f37E
	.seh_handler __CxxFrameHandler3, @unwind, @except
	pushq	%rbp
	.seh_pushreg %rbp
	subq	$112, %rsp
	.seh_stackalloc 112
	leaq	112(%rsp), %rbp
	.seh_setframe %rbp, 112
	.seh_endprologue
	movq	$-2, -8(%rbp)
	movq	%rdx, -80(%rbp)
	movq	%rcx, %rax
	movq	-80(%rbp), %rcx
.Ltmp39:
	movq	%rcx, -16(%rbp)
.Ltmp40:
	.cv_loc	5 3 124 0
	movb	$1, -17(%rbp)
	movq	32(%rax), %rdx
	movq	%rdx, -32(%rbp)
	vmovups	(%rax), %ymm0
	vmovups	%ymm0, -64(%rbp)
	movb	$1, -18(%rbp)
.Ltmp35:
	vzeroupper
	callq	_ZN4core4iter8adapters3map8map_fold17hd43d61ce52b21410E
.Ltmp41:
.Ltmp36:
	movq	%rax, -72(%rbp)
	jmp	.LBB4_2
.LBB4_2:
	movq	-72(%rbp), %rdx
	movb	$0, -17(%rbp)
	movb	$0, -18(%rbp)
.Ltmp37:
	leaq	-64(%rbp), %rcx
	callq	_ZN102_$LT$core..iter..adapters..map..Map$LT$I$C$F$GT$$u20$as$u20$core..iter..traits..iterator..Iterator$GT$4fold17h2c1c02ababb98d57E
.Ltmp38:
	jmp	.LBB4_3
.LBB4_3:
	.cv_loc	5 3 125 0
	addq	$112, %rsp
	popq	%rbp
	retq
	.seh_handlerdata
	.long	($cppxdata$_ZN102_$LT$core..iter..adapters..map..Map$LT$I$C$F$GT$$u20$as$u20$core..iter..traits..iterator..Iterator$GT$4fold17h30dfbe01b3c86f37E)@IMGREL
	.section	.text,"xr",one_only,_ZN102_$LT$core..iter..adapters..map..Map$LT$I$C$F$GT$$u20$as$u20$core..iter..traits..iterator..Iterator$GT$4fold17h30dfbe01b3c86f37E
	.seh_endproc
	.def	"?dtor$1@?0?_ZN102_$LT$core..iter..adapters..map..Map$LT$I$C$F$GT$$u20$as$u20$core..iter..traits..iterator..Iterator$GT$4fold17h30dfbe01b3c86f37E@4HA";
	.scl	3;
	.type	32;
	.endef
	.p2align	4, 0x90
"?dtor$1@?0?_ZN102_$LT$core..iter..adapters..map..Map$LT$I$C$F$GT$$u20$as$u20$core..iter..traits..iterator..Iterator$GT$4fold17h30dfbe01b3c86f37E@4HA":
.seh_proc "?dtor$1@?0?_ZN102_$LT$core..iter..adapters..map..Map$LT$I$C$F$GT$$u20$as$u20$core..iter..traits..iterator..Iterator$GT$4fold17h30dfbe01b3c86f37E@4HA"
.LBB4_1:
	movq	%rdx, 16(%rsp)
	pushq	%rbp
	.seh_pushreg %rbp
	subq	$32, %rsp
	.seh_stackalloc 32
	leaq	112(%rdx), %rbp
	.seh_endprologue
	.cv_loc	5 3 124 0
	testb	$1, -18(%rbp)
	jne	.LBB4_5
	jmp	.LBB4_4
.LBB4_4:
	testb	$1, -17(%rbp)
	jne	.LBB4_7
	jmp	.LBB4_6
.LBB4_5:
	jmp	.LBB4_4
.LBB4_6:
	.cv_loc	5 3 120 0
	addq	$32, %rsp
	popq	%rbp
	retq
.LBB4_7:
	.cv_loc	5 3 124 0
	leaq	-64(%rbp), %rcx
	callq	_ZN4core3ptr344drop_in_place$LT$core..iter..adapters..map..Map$LT$core..iter..sources..once..Once$LT$proc_macro2..TokenStream$GT$$C$$LT$proc_macro2..TokenStream$u20$as$u20$core..iter..traits..collect..Extend$LT$proc_macro2..TokenStream$GT$$GT$..extend$LT$core..iter..sources..once..Once$LT$proc_macro2..TokenStream$GT$$GT$..$u7b$$u7b$closure$u7d$$u7d$$GT$$GT$17hfe5da0a238a5d22dE
	jmp	.LBB4_6
.Ltmp42:
.Lfunc_end4:
	.seh_handlerdata
	.section	.text,"xr",one_only,_ZN102_$LT$core..iter..adapters..map..Map$LT$I$C$F$GT$$u20$as$u20$core..iter..traits..iterator..Iterator$GT$4fold17h30dfbe01b3c86f37E
	.seh_endproc
	.section	.xdata,"dr",associative,_ZN102_$LT$core..iter..adapters..map..Map$LT$I$C$F$GT$$u20$as$u20$core..iter..traits..iterator..Iterator$GT$4fold17h30dfbe01b3c86f37E
	.p2align	2
$cppxdata$_ZN102_$LT$core..iter..adapters..map..Map$LT$I$C$F$GT$$u20$as$u20$core..iter..traits..iterator..Iterator$GT$4fold17h30dfbe01b3c86f37E:
	.long	429065506
	.long	1
	.long	($stateUnwindMap$_ZN102_$LT$core..iter..adapters..map..Map$LT$I$C$F$GT$$u20$as$u20$core..iter..traits..iterator..Iterator$GT$4fold17h30dfbe01b3c86f37E)@IMGREL
	.long	0
	.long	0
	.long	3
	.long	($ip2state$_ZN102_$LT$core..iter..adapters..map..Map$LT$I$C$F$GT$$u20$as$u20$core..iter..traits..iterator..Iterator$GT$4fold17h30dfbe01b3c86f37E)@IMGREL
	.long	104
	.long	0
	.long	1
$stateUnwindMap$_ZN102_$LT$core..iter..adapters..map..Map$LT$I$C$F$GT$$u20$as$u20$core..iter..traits..iterator..Iterator$GT$4fold17h30dfbe01b3c86f37E:
	.long	-1
	.long	"?dtor$1@?0?_ZN102_$LT$core..iter..adapters..map..Map$LT$I$C$F$GT$$u20$as$u20$core..iter..traits..iterator..Iterator$GT$4fold17h30dfbe01b3c86f37E@4HA"@IMGREL
$ip2state$_ZN102_$LT$core..iter..adapters..map..Map$LT$I$C$F$GT$$u20$as$u20$core..iter..traits..iterator..Iterator$GT$4fold17h30dfbe01b3c86f37E:
	.long	.Lfunc_begin4@IMGREL
	.long	-1
	.long	.Ltmp35@IMGREL+1
	.long	0
	.long	.Ltmp38@IMGREL+1
	.long	-1
	.section	.text,"xr",one_only,_ZN102_$LT$core..iter..adapters..map..Map$LT$I$C$F$GT$$u20$as$u20$core..iter..traits..iterator..Iterator$GT$4fold17h30dfbe01b3c86f37E

	.def	_ZN102_$LT$core..iter..adapters..map..Map$LT$I$C$F$GT$$u20$as$u20$core..iter..traits..iterator..Iterator$GT$4fold17h939f7cfca64eb0a0E;
	.scl	2;
	.type	32;
	.endef
	.section	.text,"xr",one_only,_ZN102_$LT$core..iter..adapters..map..Map$LT$I$C$F$GT$$u20$as$u20$core..iter..traits..iterator..Iterator$GT$4fold17h939f7cfca64eb0a0E
	.globl	_ZN102_$LT$core..iter..adapters..map..Map$LT$I$C$F$GT$$u20$as$u20$core..iter..traits..iterator..Iterator$GT$4fold17h939f7cfca64eb0a0E
	.p2align	4, 0x90
_ZN102_$LT$core..iter..adapters..map..Map$LT$I$C$F$GT$$u20$as$u20$core..iter..traits..iterator..Iterator$GT$4fold17h939f7cfca64eb0a0E:
.Lfunc_begin5:
	.cv_func_id 6
	.cv_loc	6 3 120 0
.seh_proc _ZN102_$LT$core..iter..adapters..map..Map$LT$I$C$F$GT$$u20$as$u20$core..iter..traits..iterator..Iterator$GT$4fold17h939f7cfca64eb0a0E
	.seh_handler __CxxFrameHandler3, @unwind, @except
	pushq	%rbp
	.seh_pushreg %rbp
	subq	$112, %rsp
	.seh_stackalloc 112
	leaq	112(%rsp), %rbp
	.seh_setframe %rbp, 112
	.seh_endprologue
	movq	$-2, -8(%rbp)
	movq	%rdx, -16(%rbp)
.Ltmp47:
	.cv_loc	6 3 124 0
	movb	$1, -17(%rbp)
	movq	32(%rcx), %rax
	movq	%rax, -32(%rbp)
	vmovups	(%rcx), %ymm0
	vmovups	%ymm0, -64(%rbp)
	movb	$1, -18(%rbp)
	movq	40(%rcx), %rcx
.Ltmp48:
.Ltmp43:
	vzeroupper
	callq	_ZN4core4iter8adapters3map8map_fold17h250555a765738bdfE
.Ltmp44:
	movq	%rdx, -80(%rbp)
	movq	%rax, -72(%rbp)
	jmp	.LBB5_2
.Ltmp49:
.LBB5_2:
	movq	-80(%rbp), %r8
	movq	-72(%rbp), %rdx
	movb	$0, -17(%rbp)
	movb	$0, -18(%rbp)
.Ltmp45:
	leaq	-64(%rbp), %rcx
	callq	_ZN4core4iter6traits8iterator8Iterator4fold17h981b3b9e3123047cE
.Ltmp46:
	jmp	.LBB5_3
.Ltmp50:
.LBB5_3:
	.cv_loc	6 3 125 0
	addq	$112, %rsp
	popq	%rbp
	retq
.Ltmp51:
	.seh_handlerdata
	.long	($cppxdata$_ZN102_$LT$core..iter..adapters..map..Map$LT$I$C$F$GT$$u20$as$u20$core..iter..traits..iterator..Iterator$GT$4fold17h939f7cfca64eb0a0E)@IMGREL
	.section	.text,"xr",one_only,_ZN102_$LT$core..iter..adapters..map..Map$LT$I$C$F$GT$$u20$as$u20$core..iter..traits..iterator..Iterator$GT$4fold17h939f7cfca64eb0a0E
	.seh_endproc
	.def	"?dtor$1@?0?_ZN102_$LT$core..iter..adapters..map..Map$LT$I$C$F$GT$$u20$as$u20$core..iter..traits..iterator..Iterator$GT$4fold17h939f7cfca64eb0a0E@4HA";
	.scl	3;
	.type	32;
	.endef
	.p2align	4, 0x90
"?dtor$1@?0?_ZN102_$LT$core..iter..adapters..map..Map$LT$I$C$F$GT$$u20$as$u20$core..iter..traits..iterator..Iterator$GT$4fold17h939f7cfca64eb0a0E@4HA":
.seh_proc "?dtor$1@?0?_ZN102_$LT$core..iter..adapters..map..Map$LT$I$C$F$GT$$u20$as$u20$core..iter..traits..iterator..Iterator$GT$4fold17h939f7cfca64eb0a0E@4HA"
.LBB5_1:
	movq	%rdx, 16(%rsp)
	pushq	%rbp
	.seh_pushreg %rbp
	subq	$32, %rsp
	.seh_stackalloc 32
	leaq	112(%rdx), %rbp
	.seh_endprologue
	.cv_loc	6 3 124 0
	testb	$1, -18(%rbp)
	jne	.LBB5_5
	jmp	.LBB5_4
.Ltmp52:
.LBB5_4:
	testb	$1, -17(%rbp)
	jne	.LBB5_7
	jmp	.LBB5_6
.Ltmp53:
.LBB5_5:
	jmp	.LBB5_4
.Ltmp54:
.LBB5_6:
	.cv_loc	6 3 120 0
	addq	$32, %rsp
	popq	%rbp
	retq
.Ltmp55:
.LBB5_7:
	.cv_loc	6 3 124 0
	leaq	-64(%rbp), %rcx
	callq	_ZN4core3ptr56drop_in_place$LT$proc_macro2..token_stream..IntoIter$GT$17h31690c0a48060d07E
	jmp	.LBB5_6
.Ltmp56:
.Lfunc_end5:
	.seh_handlerdata
	.section	.text,"xr",one_only,_ZN102_$LT$core..iter..adapters..map..Map$LT$I$C$F$GT$$u20$as$u20$core..iter..traits..iterator..Iterator$GT$4fold17h939f7cfca64eb0a0E
	.seh_endproc
	.section	.xdata,"dr",associative,_ZN102_$LT$core..iter..adapters..map..Map$LT$I$C$F$GT$$u20$as$u20$core..iter..traits..iterator..Iterator$GT$4fold17h939f7cfca64eb0a0E
	.p2align	2
$cppxdata$_ZN102_$LT$core..iter..adapters..map..Map$LT$I$C$F$GT$$u20$as$u20$core..iter..traits..iterator..Iterator$GT$4fold17h939f7cfca64eb0a0E:
	.long	429065506
	.long	1
	.long	($stateUnwindMap$_ZN102_$LT$core..iter..adapters..map..Map$LT$I$C$F$GT$$u20$as$u20$core..iter..traits..iterator..Iterator$GT$4fold17h939f7cfca64eb0a0E)@IMGREL
	.long	0
	.long	0
	.long	3
	.long	($ip2state$_ZN102_$LT$core..iter..adapters..map..Map$LT$I$C$F$GT$$u20$as$u20$core..iter..traits..iterator..Iterator$GT$4fold17h939f7cfca64eb0a0E)@IMGREL
	.long	104
	.long	0
	.long	1
$stateUnwindMap$_ZN102_$LT$core..iter..adapters..map..Map$LT$I$C$F$GT$$u20$as$u20$core..iter..traits..iterator..Iterator$GT$4fold17h939f7cfca64eb0a0E:
	.long	-1
	.long	"?dtor$1@?0?_ZN102_$LT$core..iter..adapters..map..Map$LT$I$C$F$GT$$u20$as$u20$core..iter..traits..iterator..Iterator$GT$4fold17h939f7cfca64eb0a0E@4HA"@IMGREL
$ip2state$_ZN102_$LT$core..iter..adapters..map..Map$LT$I$C$F$GT$$u20$as$u20$core..iter..traits..iterator..Iterator$GT$4fold17h939f7cfca64eb0a0E:
	.long	.Lfunc_begin5@IMGREL
	.long	-1
	.long	.Ltmp43@IMGREL+1
	.long	0
	.long	.Ltmp46@IMGREL+1
	.long	-1
	.section	.text,"xr",one_only,_ZN102_$LT$core..iter..adapters..map..Map$LT$I$C$F$GT$$u20$as$u20$core..iter..traits..iterator..Iterator$GT$4fold17h939f7cfca64eb0a0E

	.def	_ZN102_$LT$core..iter..adapters..map..Map$LT$I$C$F$GT$$u20$as$u20$core..iter..traits..iterator..Iterator$GT$4fold17h96042aa142620213E;
	.scl	2;
	.type	32;
	.endef
	.section	.text,"xr",one_only,_ZN102_$LT$core..iter..adapters..map..Map$LT$I$C$F$GT$$u20$as$u20$core..iter..traits..iterator..Iterator$GT$4fold17h96042aa142620213E
	.globl	_ZN102_$LT$core..iter..adapters..map..Map$LT$I$C$F$GT$$u20$as$u20$core..iter..traits..iterator..Iterator$GT$4fold17h96042aa142620213E
	.p2align	4, 0x90
_ZN102_$LT$core..iter..adapters..map..Map$LT$I$C$F$GT$$u20$as$u20$core..iter..traits..iterator..Iterator$GT$4fold17h96042aa142620213E:
.Lfunc_begin6:
	.cv_func_id 7
	.cv_loc	7 3 120 0
.seh_proc _ZN102_$LT$core..iter..adapters..map..Map$LT$I$C$F$GT$$u20$as$u20$core..iter..traits..iterator..Iterator$GT$4fold17h96042aa142620213E
	.seh_handler __CxxFrameHandler3, @unwind, @except
	pushq	%rbp
	.seh_pushreg %rbp
	subq	$112, %rsp
	.seh_stackalloc 112
	leaq	112(%rsp), %rbp
	.seh_setframe %rbp, 112
	.seh_endprologue
	movq	$-2, -8(%rbp)
	movq	%rdx, -16(%rbp)
.Ltmp61:
	.cv_loc	7 3 124 0
	movb	$1, -17(%rbp)
	movq	32(%rcx), %rax
	movq	%rax, -32(%rbp)
	vmovups	(%rcx), %ymm0
	vmovups	%ymm0, -64(%rbp)
	movb	$1, -18(%rbp)
	movq	40(%rcx), %rcx
.Ltmp62:
.Ltmp57:
	vzeroupper
	callq	_ZN4core4iter8adapters3map8map_fold17ha19779ff0b3a464fE
.Ltmp58:
	movq	%rdx, -80(%rbp)
	movq	%rax, -72(%rbp)
	jmp	.LBB6_2
.Ltmp63:
.LBB6_2:
	movq	-80(%rbp), %r8
	movq	-72(%rbp), %rdx
	movb	$0, -17(%rbp)
	movb	$0, -18(%rbp)
.Ltmp59:
	leaq	-64(%rbp), %rcx
	callq	_ZN4core4iter6traits8iterator8Iterator4fold17habc5e49c04967d0dE
.Ltmp60:
	jmp	.LBB6_3
.Ltmp64:
.LBB6_3:
	.cv_loc	7 3 125 0
	addq	$112, %rsp
	popq	%rbp
	retq
.Ltmp65:
	.seh_handlerdata
	.long	($cppxdata$_ZN102_$LT$core..iter..adapters..map..Map$LT$I$C$F$GT$$u20$as$u20$core..iter..traits..iterator..Iterator$GT$4fold17h96042aa142620213E)@IMGREL
	.section	.text,"xr",one_only,_ZN102_$LT$core..iter..adapters..map..Map$LT$I$C$F$GT$$u20$as$u20$core..iter..traits..iterator..Iterator$GT$4fold17h96042aa142620213E
	.seh_endproc
	.def	"?dtor$1@?0?_ZN102_$LT$core..iter..adapters..map..Map$LT$I$C$F$GT$$u20$as$u20$core..iter..traits..iterator..Iterator$GT$4fold17h96042aa142620213E@4HA";
	.scl	3;
	.type	32;
	.endef
	.p2align	4, 0x90
"?dtor$1@?0?_ZN102_$LT$core..iter..adapters..map..Map$LT$I$C$F$GT$$u20$as$u20$core..iter..traits..iterator..Iterator$GT$4fold17h96042aa142620213E@4HA":
.seh_proc "?dtor$1@?0?_ZN102_$LT$core..iter..adapters..map..Map$LT$I$C$F$GT$$u20$as$u20$core..iter..traits..iterator..Iterator$GT$4fold17h96042aa142620213E@4HA"
.LBB6_1:
	movq	%rdx, 16(%rsp)
	pushq	%rbp
	.seh_pushreg %rbp
	subq	$32, %rsp
	.seh_stackalloc 32
	leaq	112(%rdx), %rbp
	.seh_endprologue
	.cv_loc	7 3 124 0
	testb	$1, -18(%rbp)
	jne	.LBB6_5
	jmp	.LBB6_4
.Ltmp66:
.LBB6_4:
	testb	$1, -17(%rbp)
	jne	.LBB6_7
	jmp	.LBB6_6
.Ltmp67:
.LBB6_5:
	jmp	.LBB6_4
.Ltmp68:
.LBB6_6:
	.cv_loc	7 3 120 0
	addq	$32, %rsp
	popq	%rbp
	retq
.Ltmp69:
.LBB6_7:
	.cv_loc	7 3 124 0
	leaq	-64(%rbp), %rcx
	callq	_ZN4core3ptr56drop_in_place$LT$proc_macro2..token_stream..IntoIter$GT$17h31690c0a48060d07E
	jmp	.LBB6_6
.Ltmp70:
.Lfunc_end6:
	.seh_handlerdata
	.section	.text,"xr",one_only,_ZN102_$LT$core..iter..adapters..map..Map$LT$I$C$F$GT$$u20$as$u20$core..iter..traits..iterator..Iterator$GT$4fold17h96042aa142620213E
	.seh_endproc
	.section	.xdata,"dr",associative,_ZN102_$LT$core..iter..adapters..map..Map$LT$I$C$F$GT$$u20$as$u20$core..iter..traits..iterator..Iterator$GT$4fold17h96042aa142620213E
	.p2align	2
$cppxdata$_ZN102_$LT$core..iter..adapters..map..Map$LT$I$C$F$GT$$u20$as$u20$core..iter..traits..iterator..Iterator$GT$4fold17h96042aa142620213E:
	.long	429065506
	.long	1
	.long	($stateUnwindMap$_ZN102_$LT$core..iter..adapters..map..Map$LT$I$C$F$GT$$u20$as$u20$core..iter..traits..iterator..Iterator$GT$4fold17h96042aa142620213E)@IMGREL
	.long	0
	.long	0
	.long	3
	.long	($ip2state$_ZN102_$LT$core..iter..adapters..map..Map$LT$I$C$F$GT$$u20$as$u20$core..iter..traits..iterator..Iterator$GT$4fold17h96042aa142620213E)@IMGREL
	.long	104
	.long	0
	.long	1
$stateUnwindMap$_ZN102_$LT$core..iter..adapters..map..Map$LT$I$C$F$GT$$u20$as$u20$core..iter..traits..iterator..Iterator$GT$4fold17h96042aa142620213E:
	.long	-1
	.long	"?dtor$1@?0?_ZN102_$LT$core..iter..adapters..map..Map$LT$I$C$F$GT$$u20$as$u20$core..iter..traits..iterator..Iterator$GT$4fold17h96042aa142620213E@4HA"@IMGREL
$ip2state$_ZN102_$LT$core..iter..adapters..map..Map$LT$I$C$F$GT$$u20$as$u20$core..iter..traits..iterator..Iterator$GT$4fold17h96042aa142620213E:
	.long	.Lfunc_begin6@IMGREL
	.long	-1
	.long	.Ltmp57@IMGREL+1
	.long	0
	.long	.Ltmp60@IMGREL+1
	.long	-1
	.section	.text,"xr",one_only,_ZN102_$LT$core..iter..adapters..map..Map$LT$I$C$F$GT$$u20$as$u20$core..iter..traits..iterator..Iterator$GT$4fold17h96042aa142620213E

	.def	_ZN102_$LT$core..iter..adapters..map..Map$LT$I$C$F$GT$$u20$as$u20$core..iter..traits..iterator..Iterator$GT$4fold17ha5e026283c694d54E;
	.scl	2;
	.type	32;
	.endef
	.section	.text,"xr",one_only,_ZN102_$LT$core..iter..adapters..map..Map$LT$I$C$F$GT$$u20$as$u20$core..iter..traits..iterator..Iterator$GT$4fold17ha5e026283c694d54E
	.globl	_ZN102_$LT$core..iter..adapters..map..Map$LT$I$C$F$GT$$u20$as$u20$core..iter..traits..iterator..Iterator$GT$4fold17ha5e026283c694d54E
	.p2align	4, 0x90
_ZN102_$LT$core..iter..adapters..map..Map$LT$I$C$F$GT$$u20$as$u20$core..iter..traits..iterator..Iterator$GT$4fold17ha5e026283c694d54E:
.Lfunc_begin7:
	.cv_func_id 8
	.cv_loc	8 3 120 0
.seh_proc _ZN102_$LT$core..iter..adapters..map..Map$LT$I$C$F$GT$$u20$as$u20$core..iter..traits..iterator..Iterator$GT$4fold17ha5e026283c694d54E
	.seh_handler __CxxFrameHandler3, @unwind, @except
	pushq	%rbp
	.seh_pushreg %rbp
	subq	$112, %rsp
	.seh_stackalloc 112
	leaq	112(%rsp), %rbp
	.seh_setframe %rbp, 112
	.seh_endprologue
	movq	$-2, -8(%rbp)
	movq	%rdx, -16(%rbp)
.Ltmp75:
	.cv_loc	8 3 124 0
	movb	$1, -17(%rbp)
	movq	32(%rcx), %rax
	movq	%rax, -32(%rbp)
	vmovups	(%rcx), %ymm0
	vmovups	%ymm0, -64(%rbp)
	movb	$1, -18(%rbp)
	movq	40(%rcx), %rcx
.Ltmp76:
.Ltmp71:
	vzeroupper
	callq	_ZN4core4iter8adapters3map8map_fold17h4490af40fb591319E
.Ltmp72:
	movq	%rdx, -80(%rbp)
	movq	%rax, -72(%rbp)
	jmp	.LBB7_2
.Ltmp77:
.LBB7_2:
	movq	-80(%rbp), %r8
	movq	-72(%rbp), %rdx
	movb	$0, -17(%rbp)
	movb	$0, -18(%rbp)
.Ltmp73:
	leaq	-64(%rbp), %rcx
	callq	_ZN4core4iter6traits8iterator8Iterator4fold17ha724afea1d5fc0c1E
.Ltmp74:
	jmp	.LBB7_3
.Ltmp78:
.LBB7_3:
	.cv_loc	8 3 125 0
	addq	$112, %rsp
	popq	%rbp
	retq
.Ltmp79:
	.seh_handlerdata
	.long	($cppxdata$_ZN102_$LT$core..iter..adapters..map..Map$LT$I$C$F$GT$$u20$as$u20$core..iter..traits..iterator..Iterator$GT$4fold17ha5e026283c694d54E)@IMGREL
	.section	.text,"xr",one_only,_ZN102_$LT$core..iter..adapters..map..Map$LT$I$C$F$GT$$u20$as$u20$core..iter..traits..iterator..Iterator$GT$4fold17ha5e026283c694d54E
	.seh_endproc
	.def	"?dtor$1@?0?_ZN102_$LT$core..iter..adapters..map..Map$LT$I$C$F$GT$$u20$as$u20$core..iter..traits..iterator..Iterator$GT$4fold17ha5e026283c694d54E@4HA";
	.scl	3;
	.type	32;
	.endef
	.p2align	4, 0x90
"?dtor$1@?0?_ZN102_$LT$core..iter..adapters..map..Map$LT$I$C$F$GT$$u20$as$u20$core..iter..traits..iterator..Iterator$GT$4fold17ha5e026283c694d54E@4HA":
.seh_proc "?dtor$1@?0?_ZN102_$LT$core..iter..adapters..map..Map$LT$I$C$F$GT$$u20$as$u20$core..iter..traits..iterator..Iterator$GT$4fold17ha5e026283c694d54E@4HA"
.LBB7_1:
	movq	%rdx, 16(%rsp)
	pushq	%rbp
	.seh_pushreg %rbp
	subq	$32, %rsp
	.seh_stackalloc 32
	leaq	112(%rdx), %rbp
	.seh_endprologue
	.cv_loc	8 3 124 0
	testb	$1, -18(%rbp)
	jne	.LBB7_5
	jmp	.LBB7_4
.Ltmp80:
.LBB7_4:
	testb	$1, -17(%rbp)
	jne	.LBB7_7
	jmp	.LBB7_6
.Ltmp81:
.LBB7_5:
	jmp	.LBB7_4
.Ltmp82:
.LBB7_6:
	.cv_loc	8 3 120 0
	addq	$32, %rsp
	popq	%rbp
	retq
.Ltmp83:
.LBB7_7:
	.cv_loc	8 3 124 0
	leaq	-64(%rbp), %rcx
	callq	_ZN4core3ptr56drop_in_place$LT$proc_macro2..token_stream..IntoIter$GT$17h31690c0a48060d07E
	jmp	.LBB7_6
.Ltmp84:
.Lfunc_end7:
	.seh_handlerdata
	.section	.text,"xr",one_only,_ZN102_$LT$core..iter..adapters..map..Map$LT$I$C$F$GT$$u20$as$u20$core..iter..traits..iterator..Iterator$GT$4fold17ha5e026283c694d54E
	.seh_endproc
	.section	.xdata,"dr",associative,_ZN102_$LT$core..iter..adapters..map..Map$LT$I$C$F$GT$$u20$as$u20$core..iter..traits..iterator..Iterator$GT$4fold17ha5e026283c694d54E
	.p2align	2
$cppxdata$_ZN102_$LT$core..iter..adapters..map..Map$LT$I$C$F$GT$$u20$as$u20$core..iter..traits..iterator..Iterator$GT$4fold17ha5e026283c694d54E:
	.long	429065506
	.long	1
	.long	($stateUnwindMap$_ZN102_$LT$core..iter..adapters..map..Map$LT$I$C$F$GT$$u20$as$u20$core..iter..traits..iterator..Iterator$GT$4fold17ha5e026283c694d54E)@IMGREL
	.long	0
	.long	0
	.long	3
	.long	($ip2state$_ZN102_$LT$core..iter..adapters..map..Map$LT$I$C$F$GT$$u20$as$u20$core..iter..traits..iterator..Iterator$GT$4fold17ha5e026283c694d54E)@IMGREL
	.long	104
	.long	0
	.long	1
$stateUnwindMap$_ZN102_$LT$core..iter..adapters..map..Map$LT$I$C$F$GT$$u20$as$u20$core..iter..traits..iterator..Iterator$GT$4fold17ha5e026283c694d54E:
	.long	-1
	.long	"?dtor$1@?0?_ZN102_$LT$core..iter..adapters..map..Map$LT$I$C$F$GT$$u20$as$u20$core..iter..traits..iterator..Iterator$GT$4fold17ha5e026283c694d54E@4HA"@IMGREL
$ip2state$_ZN102_$LT$core..iter..adapters..map..Map$LT$I$C$F$GT$$u20$as$u20$core..iter..traits..iterator..Iterator$GT$4fold17ha5e026283c694d54E:
	.long	.Lfunc_begin7@IMGREL
	.long	-1
	.long	.Ltmp71@IMGREL+1
	.long	0
	.long	.Ltmp74@IMGREL+1
	.long	-1
	.section	.text,"xr",one_only,_ZN102_$LT$core..iter..adapters..map..Map$LT$I$C$F$GT$$u20$as$u20$core..iter..traits..iterator..Iterator$GT$4fold17ha5e026283c694d54E

	.def	_ZN102_$LT$core..iter..adapters..map..Map$LT$I$C$F$GT$$u20$as$u20$core..iter..traits..iterator..Iterator$GT$4next17h1bd5abf15ae60295E;
	.scl	2;
	.type	32;
	.endef
	.section	.text,"xr",one_only,_ZN102_$LT$core..iter..adapters..map..Map$LT$I$C$F$GT$$u20$as$u20$core..iter..traits..iterator..Iterator$GT$4next17h1bd5abf15ae60295E
	.globl	_ZN102_$LT$core..iter..adapters..map..Map$LT$I$C$F$GT$$u20$as$u20$core..iter..traits..iterator..Iterator$GT$4next17h1bd5abf15ae60295E
	.p2align	4, 0x90
_ZN102_$LT$core..iter..adapters..map..Map$LT$I$C$F$GT$$u20$as$u20$core..iter..traits..iterator..Iterator$GT$4next17h1bd5abf15ae60295E:
.Lfunc_begin8:
	.cv_func_id 9
	.cv_loc	9 3 102 0
.seh_proc _ZN102_$LT$core..iter..adapters..map..Map$LT$I$C$F$GT$$u20$as$u20$core..iter..traits..iterator..Iterator$GT$4next17h1bd5abf15ae60295E
	subq	$88, %rsp
	.seh_stackalloc 88
	.seh_endprologue
	movq	%rcx, %rdx
	movq	%rdx, 40(%rsp)
	movq	%rdx, 80(%rsp)
.Ltmp85:
	.cv_loc	9 3 103 0
	leaq	48(%rsp), %rcx
	callq	_ZN94_$LT$proc_macro2..token_stream..IntoIter$u20$as$u20$core..iter..traits..iterator..Iterator$GT$4next17hfec9fbcadab8de06E
	movq	40(%rsp), %rdx
	leaq	48(%rsp), %rcx
	callq	_ZN4core6option15Option$LT$T$GT$3map17ha6b795e57c244eeaE
	movl	%eax, 32(%rsp)
	movl	%edx, 36(%rsp)
	.cv_loc	9 3 104 0
	movl	36(%rsp), %edx
	movl	32(%rsp), %eax
	addq	$88, %rsp
	retq
.Ltmp86:
.Lfunc_end8:
	.seh_endproc

	.def	_ZN102_$LT$core..iter..adapters..map..Map$LT$I$C$F$GT$$u20$as$u20$core..iter..traits..iterator..Iterator$GT$4next17h702a71068da711a7E;
	.scl	2;
	.type	32;
	.endef
	.section	.text,"xr",one_only,_ZN102_$LT$core..iter..adapters..map..Map$LT$I$C$F$GT$$u20$as$u20$core..iter..traits..iterator..Iterator$GT$4next17h702a71068da711a7E
	.globl	_ZN102_$LT$core..iter..adapters..map..Map$LT$I$C$F$GT$$u20$as$u20$core..iter..traits..iterator..Iterator$GT$4next17h702a71068da711a7E
	.p2align	4, 0x90
_ZN102_$LT$core..iter..adapters..map..Map$LT$I$C$F$GT$$u20$as$u20$core..iter..traits..iterator..Iterator$GT$4next17h702a71068da711a7E:
.Lfunc_begin9:
	.cv_func_id 10
	.cv_loc	10 3 102 0
.seh_proc _ZN102_$LT$core..iter..adapters..map..Map$LT$I$C$F$GT$$u20$as$u20$core..iter..traits..iterator..Iterator$GT$4next17h702a71068da711a7E
	subq	$104, %rsp
	.seh_stackalloc 104
	.seh_endprologue
	movq	%rdx, 32(%rsp)
	movq	%rcx, 40(%rsp)
	movq	%rcx, 48(%rsp)
	movq	%rdx, 96(%rsp)
.Ltmp87:
	.cv_loc	10 3 103 0
	leaq	56(%rsp), %rcx
	callq	_ZN99_$LT$core..iter..sources..once..Once$LT$T$GT$$u20$as$u20$core..iter..traits..iterator..Iterator$GT$4next17h78736df7307a512dE
	movq	32(%rsp), %r8
	movq	40(%rsp), %rcx
	leaq	56(%rsp), %rdx
	callq	_ZN4core6option15Option$LT$T$GT$3map17h74196f6c5e228dafE
	.cv_loc	10 3 104 0
	movq	48(%rsp), %rax
	addq	$104, %rsp
	retq
.Ltmp88:
.Lfunc_end9:
	.seh_endproc

	.def	_ZN102_$LT$core..iter..adapters..map..Map$LT$I$C$F$GT$$u20$as$u20$core..iter..traits..iterator..Iterator$GT$4next17h70db89049b60f4a0E;
	.scl	2;
	.type	32;
	.endef
	.section	.text,"xr",one_only,_ZN102_$LT$core..iter..adapters..map..Map$LT$I$C$F$GT$$u20$as$u20$core..iter..traits..iterator..Iterator$GT$4next17h70db89049b60f4a0E
	.globl	_ZN102_$LT$core..iter..adapters..map..Map$LT$I$C$F$GT$$u20$as$u20$core..iter..traits..iterator..Iterator$GT$4next17h70db89049b60f4a0E
	.p2align	4, 0x90
_ZN102_$LT$core..iter..adapters..map..Map$LT$I$C$F$GT$$u20$as$u20$core..iter..traits..iterator..Iterator$GT$4next17h70db89049b60f4a0E:
.Lfunc_begin10:
	.cv_func_id 11
	.cv_loc	11 3 102 0
.seh_proc _ZN102_$LT$core..iter..adapters..map..Map$LT$I$C$F$GT$$u20$as$u20$core..iter..traits..iterator..Iterator$GT$4next17h70db89049b60f4a0E
	subq	$104, %rsp
	.seh_stackalloc 104
	.seh_endprologue
	movq	%rcx, %rdx
	movq	%rdx, 48(%rsp)
	movq	%rdx, 96(%rsp)
.Ltmp89:
	.cv_loc	11 3 103 0
	leaq	56(%rsp), %rcx
	callq	_ZN102_$LT$core..iter..adapters..map..Map$LT$I$C$F$GT$$u20$as$u20$core..iter..traits..iterator..Iterator$GT$4next17h702a71068da711a7E
	movq	48(%rsp), %rdx
	leaq	56(%rsp), %rcx
	callq	_ZN4core6option15Option$LT$T$GT$3map17h21928140ae10f4eaE
	movq	%rax, 40(%rsp)
	.cv_loc	11 3 104 0
	movq	40(%rsp), %rax
	addq	$104, %rsp
	retq
.Ltmp90:
.Lfunc_end10:
	.seh_endproc

	.def	_ZN102_$LT$core..iter..adapters..map..Map$LT$I$C$F$GT$$u20$as$u20$core..iter..traits..iterator..Iterator$GT$4next17hf8aa822eadae722aE;
	.scl	2;
	.type	32;
	.endef
	.section	.text,"xr",one_only,_ZN102_$LT$core..iter..adapters..map..Map$LT$I$C$F$GT$$u20$as$u20$core..iter..traits..iterator..Iterator$GT$4next17hf8aa822eadae722aE
	.globl	_ZN102_$LT$core..iter..adapters..map..Map$LT$I$C$F$GT$$u20$as$u20$core..iter..traits..iterator..Iterator$GT$4next17hf8aa822eadae722aE
	.p2align	4, 0x90
_ZN102_$LT$core..iter..adapters..map..Map$LT$I$C$F$GT$$u20$as$u20$core..iter..traits..iterator..Iterator$GT$4next17hf8aa822eadae722aE:
.Lfunc_begin11:
	.cv_func_id 12
	.cv_loc	12 3 102 0
.seh_proc _ZN102_$LT$core..iter..adapters..map..Map$LT$I$C$F$GT$$u20$as$u20$core..iter..traits..iterator..Iterator$GT$4next17hf8aa822eadae722aE
	subq	$104, %rsp
	.seh_stackalloc 104
	.seh_endprologue
	movq	%rdx, 40(%rsp)
	movq	%rcx, 48(%rsp)
	movq	%rcx, 56(%rsp)
	movq	%rdx, 96(%rsp)
.Ltmp91:
	.cv_loc	12 3 103 0
	leaq	64(%rsp), %rcx
	callq	_ZN94_$LT$proc_macro2..token_stream..IntoIter$u20$as$u20$core..iter..traits..iterator..Iterator$GT$4next17hfec9fbcadab8de06E
	movq	48(%rsp), %rcx
	movq	40(%rsp), %r8
	addq	$40, %r8
	leaq	64(%rsp), %rdx
	callq	_ZN4core6option15Option$LT$T$GT$3map17h9215db2e47474ee1E
	.cv_loc	12 3 104 0
	movq	56(%rsp), %rax
	addq	$104, %rsp
	retq
.Ltmp92:
.Lfunc_end11:
	.seh_endproc

	.def	_ZN102_$LT$core..iter..adapters..map..Map$LT$I$C$F$GT$$u20$as$u20$core..iter..traits..iterator..Iterator$GT$9size_hint17h42baad930c48c7d4E;
	.scl	2;
	.type	32;
	.endef
	.section	.text,"xr",one_only,_ZN102_$LT$core..iter..adapters..map..Map$LT$I$C$F$GT$$u20$as$u20$core..iter..traits..iterator..Iterator$GT$9size_hint17h42baad930c48c7d4E
	.globl	_ZN102_$LT$core..iter..adapters..map..Map$LT$I$C$F$GT$$u20$as$u20$core..iter..traits..iterator..Iterator$GT$9size_hint17h42baad930c48c7d4E
	.p2align	4, 0x90
_ZN102_$LT$core..iter..adapters..map..Map$LT$I$C$F$GT$$u20$as$u20$core..iter..traits..iterator..Iterator$GT$9size_hint17h42baad930c48c7d4E:
.Lfunc_begin12:
	.cv_func_id 13
	.cv_loc	13 3 107 0
.seh_proc _ZN102_$LT$core..iter..adapters..map..Map$LT$I$C$F$GT$$u20$as$u20$core..iter..traits..iterator..Iterator$GT$9size_hint17h42baad930c48c7d4E
	subq	$56, %rsp
	.seh_stackalloc 56
	.seh_endprologue
	movq	%rcx, %rax
	movq	%rax, 40(%rsp)
	movq	%rdx, 48(%rsp)
.Ltmp93:
	.cv_loc	13 3 108 0
	callq	_ZN94_$LT$proc_macro2..token_stream..IntoIter$u20$as$u20$core..iter..traits..iterator..Iterator$GT$9size_hint17h7af3ecbf7276b5dfE
	.cv_loc	13 3 109 0
	movq	40(%rsp), %rax
	addq	$56, %rsp
	retq
.Ltmp94:
.Lfunc_end12:
	.seh_endproc

	.def	_ZN102_$LT$core..iter..adapters..map..Map$LT$I$C$F$GT$$u20$as$u20$core..iter..traits..iterator..Iterator$GT$9size_hint17h74d70daa9537e279E;
	.scl	2;
	.type	32;
	.endef
	.section	.text,"xr",one_only,_ZN102_$LT$core..iter..adapters..map..Map$LT$I$C$F$GT$$u20$as$u20$core..iter..traits..iterator..Iterator$GT$9size_hint17h74d70daa9537e279E
	.globl	_ZN102_$LT$core..iter..adapters..map..Map$LT$I$C$F$GT$$u20$as$u20$core..iter..traits..iterator..Iterator$GT$9size_hint17h74d70daa9537e279E
	.p2align	4, 0x90
_ZN102_$LT$core..iter..adapters..map..Map$LT$I$C$F$GT$$u20$as$u20$core..iter..traits..iterator..Iterator$GT$9size_hint17h74d70daa9537e279E:
.Lfunc_begin13:
	.cv_func_id 14
	.cv_loc	14 3 107 0
.seh_proc _ZN102_$LT$core..iter..adapters..map..Map$LT$I$C$F$GT$$u20$as$u20$core..iter..traits..iterator..Iterator$GT$9size_hint17h74d70daa9537e279E
	subq	$56, %rsp
	.seh_stackalloc 56
	.seh_endprologue
	movq	%rcx, %rax
	movq	%rax, 40(%rsp)
	movq	%rdx, 48(%rsp)
.Ltmp95:
	.cv_loc	14 3 108 0
	callq	_ZN99_$LT$core..iter..sources..once..Once$LT$T$GT$$u20$as$u20$core..iter..traits..iterator..Iterator$GT$9size_hint17h24875bbfdd752572E
	.cv_loc	14 3 109 0
	movq	40(%rsp), %rax
	addq	$56, %rsp
	retq
.Ltmp96:
.Lfunc_end13:
	.seh_endproc

	.def	_ZN102_$LT$core..iter..adapters..map..Map$LT$I$C$F$GT$$u20$as$u20$core..iter..traits..iterator..Iterator$GT$9size_hint17h7838f0e5c3d67345E;
	.scl	2;
	.type	32;
	.endef
	.section	.text,"xr",one_only,_ZN102_$LT$core..iter..adapters..map..Map$LT$I$C$F$GT$$u20$as$u20$core..iter..traits..iterator..Iterator$GT$9size_hint17h7838f0e5c3d67345E
	.globl	_ZN102_$LT$core..iter..adapters..map..Map$LT$I$C$F$GT$$u20$as$u20$core..iter..traits..iterator..Iterator$GT$9size_hint17h7838f0e5c3d67345E
	.p2align	4, 0x90
_ZN102_$LT$core..iter..adapters..map..Map$LT$I$C$F$GT$$u20$as$u20$core..iter..traits..iterator..Iterator$GT$9size_hint17h7838f0e5c3d67345E:
.Lfunc_begin14:
	.cv_func_id 15
	.cv_loc	15 3 107 0
.seh_proc _ZN102_$LT$core..iter..adapters..map..Map$LT$I$C$F$GT$$u20$as$u20$core..iter..traits..iterator..Iterator$GT$9size_hint17h7838f0e5c3d67345E
	subq	$56, %rsp
	.seh_stackalloc 56
	.seh_endprologue
	movq	%rcx, %rax
	movq	%rax, 40(%rsp)
	movq	%rdx, 48(%rsp)
.Ltmp97:
	.cv_loc	15 3 108 0
	callq	_ZN102_$LT$core..iter..adapters..map..Map$LT$I$C$F$GT$$u20$as$u20$core..iter..traits..iterator..Iterator$GT$9size_hint17h74d70daa9537e279E
	.cv_loc	15 3 109 0
	movq	40(%rsp), %rax
	addq	$56, %rsp
	retq
.Ltmp98:
.Lfunc_end14:
	.seh_endproc

	.def	_ZN102_$LT$core..iter..adapters..map..Map$LT$I$C$F$GT$$u20$as$u20$core..iter..traits..iterator..Iterator$GT$9size_hint17hbb019a2e014d4ee8E;
	.scl	2;
	.type	32;
	.endef
	.section	.text,"xr",one_only,_ZN102_$LT$core..iter..adapters..map..Map$LT$I$C$F$GT$$u20$as$u20$core..iter..traits..iterator..Iterator$GT$9size_hint17hbb019a2e014d4ee8E
	.globl	_ZN102_$LT$core..iter..adapters..map..Map$LT$I$C$F$GT$$u20$as$u20$core..iter..traits..iterator..Iterator$GT$9size_hint17hbb019a2e014d4ee8E
	.p2align	4, 0x90
_ZN102_$LT$core..iter..adapters..map..Map$LT$I$C$F$GT$$u20$as$u20$core..iter..traits..iterator..Iterator$GT$9size_hint17hbb019a2e014d4ee8E:
.Lfunc_begin15:
	.cv_func_id 16
	.cv_loc	16 3 107 0
.seh_proc _ZN102_$LT$core..iter..adapters..map..Map$LT$I$C$F$GT$$u20$as$u20$core..iter..traits..iterator..Iterator$GT$9size_hint17hbb019a2e014d4ee8E
	subq	$56, %rsp
	.seh_stackalloc 56
	.seh_endprologue
	movq	%rcx, %rax
	movq	%rax, 40(%rsp)
	movq	%rdx, 48(%rsp)
.Ltmp99:
	.cv_loc	16 3 108 0
	callq	_ZN102_$LT$core..iter..adapters..map..Map$LT$I$C$F$GT$$u20$as$u20$core..iter..traits..iterator..Iterator$GT$9size_hint17h42baad930c48c7d4E
	.cv_loc	16 3 109 0
	movq	40(%rsp), %rax
	addq	$56, %rsp
	retq
.Ltmp100:
.Lfunc_end15:
	.seh_endproc

	.def	_ZN102_$LT$core..iter..adapters..map..Map$LT$I$C$F$GT$$u20$as$u20$core..iter..traits..iterator..Iterator$GT$9size_hint17hf1475ba252782af2E;
	.scl	2;
	.type	32;
	.endef
	.section	.text,"xr",one_only,_ZN102_$LT$core..iter..adapters..map..Map$LT$I$C$F$GT$$u20$as$u20$core..iter..traits..iterator..Iterator$GT$9size_hint17hf1475ba252782af2E
	.globl	_ZN102_$LT$core..iter..adapters..map..Map$LT$I$C$F$GT$$u20$as$u20$core..iter..traits..iterator..Iterator$GT$9size_hint17hf1475ba252782af2E
	.p2align	4, 0x90
_ZN102_$LT$core..iter..adapters..map..Map$LT$I$C$F$GT$$u20$as$u20$core..iter..traits..iterator..Iterator$GT$9size_hint17hf1475ba252782af2E:
.Lfunc_begin16:
	.cv_func_id 17
	.cv_loc	17 3 107 0
.seh_proc _ZN102_$LT$core..iter..adapters..map..Map$LT$I$C$F$GT$$u20$as$u20$core..iter..traits..iterator..Iterator$GT$9size_hint17hf1475ba252782af2E
	subq	$56, %rsp
	.seh_stackalloc 56
	.seh_endprologue
	movq	%rcx, %rax
	movq	%rax, 40(%rsp)
	movq	%rdx, 48(%rsp)
.Ltmp101:
	.cv_loc	17 3 108 0
	callq	_ZN102_$LT$core..iter..adapters..map..Map$LT$I$C$F$GT$$u20$as$u20$core..iter..traits..iterator..Iterator$GT$9size_hint17h74d70daa9537e279E
	.cv_loc	17 3 109 0
	movq	40(%rsp), %rax
	addq	$56, %rsp
	retq
.Ltmp102:
.Lfunc_end16:
	.seh_endproc

	.def	_ZN106_$LT$core..iter..adapters..flatten..Flatten$LT$I$GT$$u20$as$u20$core..iter..traits..iterator..Iterator$GT$4next17h16a57da784085dfbE;
	.scl	2;
	.type	32;
	.endef
	.section	.text,"xr",one_only,_ZN106_$LT$core..iter..adapters..flatten..Flatten$LT$I$GT$$u20$as$u20$core..iter..traits..iterator..Iterator$GT$4next17h16a57da784085dfbE
	.globl	_ZN106_$LT$core..iter..adapters..flatten..Flatten$LT$I$GT$$u20$as$u20$core..iter..traits..iterator..Iterator$GT$4next17h16a57da784085dfbE
	.p2align	4, 0x90
_ZN106_$LT$core..iter..adapters..flatten..Flatten$LT$I$GT$$u20$as$u20$core..iter..traits..iterator..Iterator$GT$4next17h16a57da784085dfbE:
.Lfunc_begin17:
	.cv_func_id 18
	.cv_file	4 "/rustc/90743e7298aca107ddaa0c202a4d3604e29bfeb6\\library\\core\\src\\iter\\adapters\\flatten.rs" "BCC9F052EB6059D259D6314F57B58AB8502DAA04" 2
	.cv_loc	18 4 211 0
.seh_proc _ZN106_$LT$core..iter..adapters..flatten..Flatten$LT$I$GT$$u20$as$u20$core..iter..traits..iterator..Iterator$GT$4next17h16a57da784085dfbE
	subq	$56, %rsp
	.seh_stackalloc 56
	.seh_endprologue
	movq	%rcx, %rax
	movq	%rax, 40(%rsp)
	movq	%rdx, 48(%rsp)
.Ltmp103:
	.cv_loc	18 4 212 0
	callq	_ZN116_$LT$core..iter..adapters..flatten..FlattenCompat$LT$I$C$U$GT$$u20$as$u20$core..iter..traits..iterator..Iterator$GT$4next17h98d21f53324dbbb1E
	.cv_loc	18 4 213 0
	movq	40(%rsp), %rax
	addq	$56, %rsp
	retq
.Ltmp104:
.Lfunc_end17:
	.seh_endproc

	.def	_ZN106_$LT$core..iter..adapters..flatten..Flatten$LT$I$GT$$u20$as$u20$core..iter..traits..iterator..Iterator$GT$9size_hint17h5784b6840dc65ebdE;
	.scl	2;
	.type	32;
	.endef
	.section	.text,"xr",one_only,_ZN106_$LT$core..iter..adapters..flatten..Flatten$LT$I$GT$$u20$as$u20$core..iter..traits..iterator..Iterator$GT$9size_hint17h5784b6840dc65ebdE
	.globl	_ZN106_$LT$core..iter..adapters..flatten..Flatten$LT$I$GT$$u20$as$u20$core..iter..traits..iterator..Iterator$GT$9size_hint17h5784b6840dc65ebdE
	.p2align	4, 0x90
_ZN106_$LT$core..iter..adapters..flatten..Flatten$LT$I$GT$$u20$as$u20$core..iter..traits..iterator..Iterator$GT$9size_hint17h5784b6840dc65ebdE:
.Lfunc_begin18:
	.cv_func_id 19
	.cv_loc	19 4 216 0
.seh_proc _ZN106_$LT$core..iter..adapters..flatten..Flatten$LT$I$GT$$u20$as$u20$core..iter..traits..iterator..Iterator$GT$9size_hint17h5784b6840dc65ebdE
	subq	$56, %rsp
	.seh_stackalloc 56
	.seh_endprologue
	movq	%rcx, %rax
	movq	%rax, 40(%rsp)
	movq	%rdx, 48(%rsp)
.Ltmp105:
	.cv_loc	19 4 217 0
	callq	_ZN116_$LT$core..iter..adapters..flatten..FlattenCompat$LT$I$C$U$GT$$u20$as$u20$core..iter..traits..iterator..Iterator$GT$9size_hint17hf224123cf09a613fE
	.cv_loc	19 4 218 0
	movq	40(%rsp), %rax
	addq	$56, %rsp
	retq
.Ltmp106:
.Lfunc_end18:
	.seh_endproc

	.def	_ZN107_$LT$core..iter..adapters..fuse..Fuse$LT$I$GT$$u20$as$u20$core..iter..adapters..fuse..FuseImpl$LT$I$GT$$GT$4next17h50e0d12c832845a8E;
	.scl	2;
	.type	32;
	.endef
	.section	.text,"xr",one_only,_ZN107_$LT$core..iter..adapters..fuse..Fuse$LT$I$GT$$u20$as$u20$core..iter..adapters..fuse..FuseImpl$LT$I$GT$$GT$4next17h50e0d12c832845a8E
	.globl	_ZN107_$LT$core..iter..adapters..fuse..Fuse$LT$I$GT$$u20$as$u20$core..iter..adapters..fuse..FuseImpl$LT$I$GT$$GT$4next17h50e0d12c832845a8E
	.p2align	4, 0x90
_ZN107_$LT$core..iter..adapters..fuse..Fuse$LT$I$GT$$u20$as$u20$core..iter..adapters..fuse..FuseImpl$LT$I$GT$$GT$4next17h50e0d12c832845a8E:
.Lfunc_begin19:
	.cv_func_id 20
	.cv_file	5 "/rustc/90743e7298aca107ddaa0c202a4d3604e29bfeb6\\library\\core\\src\\iter\\adapters\\fuse.rs" "AC2922B49E5CB78D5D84FE1BA3496A777A1B672C" 2
	.cv_loc	20 5 336 0
.seh_proc _ZN107_$LT$core..iter..adapters..fuse..Fuse$LT$I$GT$$u20$as$u20$core..iter..adapters..fuse..FuseImpl$LT$I$GT$$GT$4next17h50e0d12c832845a8E
	subq	$120, %rsp
	.seh_stackalloc 120
	.seh_endprologue
	movq	%rcx, 32(%rsp)
	movq	%rcx, 64(%rsp)
.Ltmp107:
	.cv_loc	20 5 337 0
	movq	%rcx, 88(%rsp)
.Ltmp108:
	.cv_file	6 "/rustc/90743e7298aca107ddaa0c202a4d3604e29bfeb6\\library\\core\\src\\option.rs" "90C726EEAFDA9622B6943DEFD1DB69455BE3ACDC" 2
	.cv_inline_site_id 21 within 20 inlined_at 5 337 0
	.cv_loc	21 6 652 0
	movq	(%rcx), %rax
	addq	$-2, %rax
	setne	%al
	movzbl	%al, %eax
	je	.LBB19_2
	jmp	.LBB19_14
.LBB19_14:
	jmp	.LBB19_3
	ud2
.LBB19_2:
	.cv_loc	21 6 654 0
	movq	$0, 56(%rsp)
	jmp	.LBB19_4
.LBB19_3:
	.cv_loc	21 6 653 0
	movq	32(%rsp), %rax
	movq	%rax, 96(%rsp)
.Ltmp109:
	.cv_loc	21 6 653 0
	movq	%rax, 56(%rsp)
.Ltmp110:
.LBB19_4:
	.cv_loc	21 6 2296 0
	movq	56(%rsp), %rax
	testq	%rax, %rax
	setne	%al
	movzbl	%al, %eax
	je	.LBB19_6
	jmp	.LBB19_15
.LBB19_15:
	jmp	.LBB19_7
	ud2
.LBB19_6:
	.cv_loc	21 6 2298 0
	movq	$0, 48(%rsp)
	jmp	.LBB19_8
.LBB19_7:
	.cv_loc	21 6 2297 0
	movq	56(%rsp), %rax
	movq	%rax, 104(%rsp)
.Ltmp111:
	.cv_loc	21 6 2297 0
	movq	%rax, 48(%rsp)
.Ltmp112:
.LBB19_8:
	.cv_loc	20 5 337 0
	movq	48(%rsp), %rax
	testq	%rax, %rax
	sete	%al
	movzbl	%al, %eax
	jne	.LBB19_10
	jmp	.LBB19_16
.LBB19_16:
	jmp	.LBB19_11
	ud2
.LBB19_10:
	movq	48(%rsp), %rcx
	movq	%rcx, 112(%rsp)
	callq	_ZN102_$LT$core..iter..adapters..map..Map$LT$I$C$F$GT$$u20$as$u20$core..iter..traits..iterator..Iterator$GT$4next17h70db89049b60f4a0E
	movq	%rax, 40(%rsp)
	jmp	.LBB19_13
.LBB19_11:
.Ltmp113:
	.cv_inline_site_id 22 within 20 inlined_at 5 337 0
	.cv_loc	22 6 2309 0
	movq	$0, 40(%rsp)
.Ltmp114:
.LBB19_12:
	.cv_loc	20 5 338 0
	movq	40(%rsp), %rax
	addq	$120, %rsp
	retq
.LBB19_13:
	jmp	.LBB19_12
.Ltmp115:
.Lfunc_end19:
	.seh_endproc

	.def	_ZN110_$LT$proc_macro..TokenStream$u20$as$u20$core..iter..traits..collect..Extend$LT$proc_macro..TokenStream$GT$$GT$6extend17h349e43e9825ed6adE;
	.scl	2;
	.type	32;
	.endef
	.section	.text,"xr",one_only,_ZN110_$LT$proc_macro..TokenStream$u20$as$u20$core..iter..traits..collect..Extend$LT$proc_macro..TokenStream$GT$$GT$6extend17h349e43e9825ed6adE
	.globl	_ZN110_$LT$proc_macro..TokenStream$u20$as$u20$core..iter..traits..collect..Extend$LT$proc_macro..TokenStream$GT$$GT$6extend17h349e43e9825ed6adE
	.p2align	4, 0x90
_ZN110_$LT$proc_macro..TokenStream$u20$as$u20$core..iter..traits..collect..Extend$LT$proc_macro..TokenStream$GT$$GT$6extend17h349e43e9825ed6adE:
.Lfunc_begin20:
	.cv_func_id 23
	.cv_file	7 "/rustc/90743e7298aca107ddaa0c202a4d3604e29bfeb6\\library\\proc_macro\\src\\lib.rs" "3DAE0E8E4311DA4238AAD227DE10B302D3CCE6DA" 2
	.cv_loc	23 7 345 0
.seh_proc _ZN110_$LT$proc_macro..TokenStream$u20$as$u20$core..iter..traits..collect..Extend$LT$proc_macro..TokenStream$GT$$GT$6extend17h349e43e9825ed6adE
	.seh_handler __CxxFrameHandler3, @unwind, @except
	pushq	%rbp
	.seh_pushreg %rbp
	subq	$288, %rsp
	.seh_stackalloc 288
	leaq	128(%rsp), %rbp
	.seh_setframe %rbp, 128
	.seh_endprologue
	movq	$-2, 152(%rbp)
	movq	%rcx, -88(%rbp)
	movq	%rcx, 144(%rbp)
.Ltmp124:
	.cv_loc	23 7 346 0
	movq	32(%rdx), %rax
	movq	%rax, (%rbp)
	vmovups	(%rdx), %ymm0
	vmovups	%ymm0, -32(%rbp)
	leaq	-72(%rbp), %rcx
	movq	%rcx, -80(%rbp)
	leaq	-32(%rbp), %rdx
.Ltmp125:
	vzeroupper
	callq	_ZN63_$LT$I$u20$as$u20$core..iter..traits..collect..IntoIterator$GT$9into_iter17h2e54b732ace10d56E
	movq	-80(%rbp), %rdx
	movb	$1, 143(%rbp)
	.cv_loc	23 7 347 0
.Ltmp116:
	leaq	40(%rbp), %rcx
.Ltmp126:
	callq	_ZN102_$LT$core..iter..adapters..map..Map$LT$I$C$F$GT$$u20$as$u20$core..iter..traits..iterator..Iterator$GT$9size_hint17hf1475ba252782af2E
.Ltmp117:
	jmp	.LBB20_2
.Ltmp127:
.LBB20_2:
	movq	40(%rbp), %rdx
.Ltmp118:
	leaq	16(%rbp), %rcx
	callq	_ZN10proc_macro19ConcatStreamsHelper3new17hd0e9cefa34734283E
.Ltmp119:
	jmp	.LBB20_3
.Ltmp128:
.LBB20_3:
	movb	$1, 142(%rbp)
.Ltmp129:
	.cv_loc	23 7 348 0
	movb	$0, 143(%rbp)
	movq	-40(%rbp), %rax
	movq	%rax, 96(%rbp)
	vmovups	-72(%rbp), %ymm0
	vmovups	%ymm0, 64(%rbp)
	leaq	16(%rbp), %rax
	movq	%rax, 104(%rbp)
	movq	104(%rbp), %rdx
.Ltmp120:
	leaq	64(%rbp), %rcx
	vzeroupper
	callq	_ZN4core4iter6traits8iterator8Iterator8for_each17h174e6cec4c933960E
.Ltmp121:
	jmp	.LBB20_5
.Ltmp130:
.LBB20_5:
	.cv_loc	23 7 349 0
	movq	-88(%rbp), %rdx
	movb	$0, 142(%rbp)
	movq	32(%rbp), %rax
	movq	%rax, 128(%rbp)
	vmovdqu	16(%rbp), %xmm0
	vmovdqa	%xmm0, 112(%rbp)
.Ltmp122:
	leaq	112(%rbp), %rcx
	callq	_ZN10proc_macro19ConcatStreamsHelper9append_to17h37a69350f407fa82E
.Ltmp123:
	jmp	.LBB20_6
.Ltmp131:
.LBB20_6:
	.cv_loc	23 7 350 0
	addq	$288, %rsp
	popq	%rbp
	retq
.Ltmp132:
	.seh_handlerdata
	.long	($cppxdata$_ZN110_$LT$proc_macro..TokenStream$u20$as$u20$core..iter..traits..collect..Extend$LT$proc_macro..TokenStream$GT$$GT$6extend17h349e43e9825ed6adE)@IMGREL
	.section	.text,"xr",one_only,_ZN110_$LT$proc_macro..TokenStream$u20$as$u20$core..iter..traits..collect..Extend$LT$proc_macro..TokenStream$GT$$GT$6extend17h349e43e9825ed6adE
	.seh_endproc
	.def	"?dtor$1@?0?_ZN110_$LT$proc_macro..TokenStream$u20$as$u20$core..iter..traits..collect..Extend$LT$proc_macro..TokenStream$GT$$GT$6extend17h349e43e9825ed6adE@4HA";
	.scl	3;
	.type	32;
	.endef
	.p2align	4, 0x90
"?dtor$1@?0?_ZN110_$LT$proc_macro..TokenStream$u20$as$u20$core..iter..traits..collect..Extend$LT$proc_macro..TokenStream$GT$$GT$6extend17h349e43e9825ed6adE@4HA":
.seh_proc "?dtor$1@?0?_ZN110_$LT$proc_macro..TokenStream$u20$as$u20$core..iter..traits..collect..Extend$LT$proc_macro..TokenStream$GT$$GT$6extend17h349e43e9825ed6adE@4HA"
.LBB20_1:
	movq	%rdx, 16(%rsp)
	pushq	%rbp
	.seh_pushreg %rbp
	subq	$32, %rsp
	.seh_stackalloc 32
	leaq	128(%rdx), %rbp
	.seh_endprologue
	testb	$1, 143(%rbp)
	jne	.LBB20_10
	jmp	.LBB20_9
.Ltmp133:
.LBB20_9:
	.cv_loc	23 7 345 0
	addq	$32, %rsp
	popq	%rbp
	retq
.Ltmp134:
.LBB20_10:
	.cv_loc	23 7 350 0
	leaq	-72(%rbp), %rcx
	callq	_ZN4core3ptr430drop_in_place$LT$core..iter..adapters..map..Map$LT$core..iter..adapters..map..Map$LT$core..iter..sources..once..Once$LT$proc_macro2..TokenStream$GT$$C$$LT$proc_macro2..TokenStream$u20$as$u20$core..iter..traits..collect..Extend$LT$proc_macro2..TokenStream$GT$$GT$..extend$LT$core..iter..sources..once..Once$LT$proc_macro2..TokenStream$GT$$GT$..$u7b$$u7b$closure$u7d$$u7d$$GT$$C$proc_macro2..imp..TokenStream..unwrap_nightly$GT$$GT$17h4f847bcfdd22e9daE
	jmp	.LBB20_9
.Ltmp135:
	.seh_handlerdata
	.section	.text,"xr",one_only,_ZN110_$LT$proc_macro..TokenStream$u20$as$u20$core..iter..traits..collect..Extend$LT$proc_macro..TokenStream$GT$$GT$6extend17h349e43e9825ed6adE
	.seh_endproc
	.def	"?dtor$4@?0?_ZN110_$LT$proc_macro..TokenStream$u20$as$u20$core..iter..traits..collect..Extend$LT$proc_macro..TokenStream$GT$$GT$6extend17h349e43e9825ed6adE@4HA";
	.scl	3;
	.type	32;
	.endef
	.p2align	4, 0x90
"?dtor$4@?0?_ZN110_$LT$proc_macro..TokenStream$u20$as$u20$core..iter..traits..collect..Extend$LT$proc_macro..TokenStream$GT$$GT$6extend17h349e43e9825ed6adE@4HA":
.seh_proc "?dtor$4@?0?_ZN110_$LT$proc_macro..TokenStream$u20$as$u20$core..iter..traits..collect..Extend$LT$proc_macro..TokenStream$GT$$GT$6extend17h349e43e9825ed6adE@4HA"
.LBB20_4:
	movq	%rdx, 16(%rsp)
	pushq	%rbp
	.seh_pushreg %rbp
	subq	$32, %rsp
	.seh_stackalloc 32
	leaq	128(%rdx), %rbp
	.seh_endprologue
.Ltmp136:
	.cv_loc	23 7 350 0
	testb	$1, 142(%rbp)
	jne	.LBB20_8
	jmp	.LBB20_7
.Ltmp137:
.LBB20_7:
	addq	$32, %rsp
	popq	%rbp
	retq
.Ltmp138:
.LBB20_8:
	leaq	16(%rbp), %rcx
	callq	_ZN4core3ptr52drop_in_place$LT$proc_macro..ConcatStreamsHelper$GT$17ha9028aad3eea2413E
	nop
	addq	$32, %rsp
	popq	%rbp
	retq
.Ltmp139:
.Lfunc_end20:
	.seh_handlerdata
	.section	.text,"xr",one_only,_ZN110_$LT$proc_macro..TokenStream$u20$as$u20$core..iter..traits..collect..Extend$LT$proc_macro..TokenStream$GT$$GT$6extend17h349e43e9825ed6adE
	.seh_endproc
	.section	.xdata,"dr",associative,_ZN110_$LT$proc_macro..TokenStream$u20$as$u20$core..iter..traits..collect..Extend$LT$proc_macro..TokenStream$GT$$GT$6extend17h349e43e9825ed6adE
	.p2align	2
$cppxdata$_ZN110_$LT$proc_macro..TokenStream$u20$as$u20$core..iter..traits..collect..Extend$LT$proc_macro..TokenStream$GT$$GT$6extend17h349e43e9825ed6adE:
	.long	429065506
	.long	2
	.long	($stateUnwindMap$_ZN110_$LT$proc_macro..TokenStream$u20$as$u20$core..iter..traits..collect..Extend$LT$proc_macro..TokenStream$GT$$GT$6extend17h349e43e9825ed6adE)@IMGREL
	.long	0
	.long	0
	.long	4
	.long	($ip2state$_ZN110_$LT$proc_macro..TokenStream$u20$as$u20$core..iter..traits..collect..Extend$LT$proc_macro..TokenStream$GT$$GT$6extend17h349e43e9825ed6adE)@IMGREL
	.long	280
	.long	0
	.long	1
$stateUnwindMap$_ZN110_$LT$proc_macro..TokenStream$u20$as$u20$core..iter..traits..collect..Extend$LT$proc_macro..TokenStream$GT$$GT$6extend17h349e43e9825ed6adE:
	.long	-1
	.long	"?dtor$1@?0?_ZN110_$LT$proc_macro..TokenStream$u20$as$u20$core..iter..traits..collect..Extend$LT$proc_macro..TokenStream$GT$$GT$6extend17h349e43e9825ed6adE@4HA"@IMGREL
	.long	0
	.long	"?dtor$4@?0?_ZN110_$LT$proc_macro..TokenStream$u20$as$u20$core..iter..traits..collect..Extend$LT$proc_macro..TokenStream$GT$$GT$6extend17h349e43e9825ed6adE@4HA"@IMGREL
$ip2state$_ZN110_$LT$proc_macro..TokenStream$u20$as$u20$core..iter..traits..collect..Extend$LT$proc_macro..TokenStream$GT$$GT$6extend17h349e43e9825ed6adE:
	.long	.Lfunc_begin20@IMGREL
	.long	-1
	.long	.Ltmp116@IMGREL+1
	.long	0
	.long	.Ltmp120@IMGREL+1
	.long	1
	.long	.Ltmp123@IMGREL+1
	.long	-1
	.section	.text,"xr",one_only,_ZN110_$LT$proc_macro..TokenStream$u20$as$u20$core..iter..traits..collect..Extend$LT$proc_macro..TokenStream$GT$$GT$6extend17h349e43e9825ed6adE

	.def	_ZN110_$LT$proc_macro..TokenStream$u20$as$u20$core..iter..traits..collect..Extend$LT$proc_macro..TokenStream$GT$$GT$6extend28_$u7b$$u7b$closure$u7d$$u7d$17h74ac18e3760c084aE;
	.scl	2;
	.type	32;
	.endef
	.section	.text,"xr",one_only,_ZN110_$LT$proc_macro..TokenStream$u20$as$u20$core..iter..traits..collect..Extend$LT$proc_macro..TokenStream$GT$$GT$6extend28_$u7b$$u7b$closure$u7d$$u7d$17h74ac18e3760c084aE
	.globl	_ZN110_$LT$proc_macro..TokenStream$u20$as$u20$core..iter..traits..collect..Extend$LT$proc_macro..TokenStream$GT$$GT$6extend28_$u7b$$u7b$closure$u7d$$u7d$17h74ac18e3760c084aE
	.p2align	4, 0x90
_ZN110_$LT$proc_macro..TokenStream$u20$as$u20$core..iter..traits..collect..Extend$LT$proc_macro..TokenStream$GT$$GT$6extend28_$u7b$$u7b$closure$u7d$$u7d$17h74ac18e3760c084aE:
.Lfunc_begin21:
	.cv_func_id 24
	.cv_loc	24 7 348 0
.seh_proc _ZN110_$LT$proc_macro..TokenStream$u20$as$u20$core..iter..traits..collect..Extend$LT$proc_macro..TokenStream$GT$$GT$6extend28_$u7b$$u7b$closure$u7d$$u7d$17h74ac18e3760c084aE
	subq	$56, %rsp
	.seh_stackalloc 56
	.seh_endprologue
	movq	%rcx, 32(%rsp)
	movq	32(%rsp), %rax
	movq	(%rax), %rax
	movq	%rax, 40(%rsp)
	movl	%edx, 52(%rsp)
.Ltmp140:
	movq	(%rcx), %rcx
	callq	_ZN10proc_macro19ConcatStreamsHelper4push17h1661fc4228fa91f9E
	nop
	addq	$56, %rsp
	retq
.Ltmp141:
.Lfunc_end21:
	.seh_endproc

	.def	_ZN110_$LT$proc_macro2..TokenStream$u20$as$u20$core..iter..traits..collect..Extend$LT$proc_macro2..TokenTree$GT$$GT$6extend17h15c8ace6bf133105E;
	.scl	2;
	.type	32;
	.endef
	.section	.text,"xr",one_only,_ZN110_$LT$proc_macro2..TokenStream$u20$as$u20$core..iter..traits..collect..Extend$LT$proc_macro2..TokenTree$GT$$GT$6extend17h15c8ace6bf133105E
	.globl	_ZN110_$LT$proc_macro2..TokenStream$u20$as$u20$core..iter..traits..collect..Extend$LT$proc_macro2..TokenTree$GT$$GT$6extend17h15c8ace6bf133105E
	.p2align	4, 0x90
_ZN110_$LT$proc_macro2..TokenStream$u20$as$u20$core..iter..traits..collect..Extend$LT$proc_macro2..TokenTree$GT$$GT$6extend17h15c8ace6bf133105E:
.Lfunc_begin22:
	.cv_func_id 25
	.cv_file	8 "C:\\Users\\cires\\.cargo\\registry\\src\\github.com-1ecc6299db9ec823\\proc-macro2-1.0.71\\src\\lib.rs" "36A42F1DFCB9C1204925EE93FC966D42F235B870" 2
	.cv_loc	25 8 263 0
.seh_proc _ZN110_$LT$proc_macro2..TokenStream$u20$as$u20$core..iter..traits..collect..Extend$LT$proc_macro2..TokenTree$GT$$GT$6extend17h15c8ace6bf133105E
	subq	$104, %rsp
	.seh_stackalloc 104
	.seh_endprologue
	movq	%rcx, 40(%rsp)
	movq	%rcx, 96(%rsp)
.Ltmp142:
	.cv_loc	25 8 264 0
	leaq	48(%rsp), %rcx
	movl	$48, %r8d
	callq	memcpy
.Ltmp143:
	movq	40(%rsp), %rcx
	leaq	48(%rsp), %rdx
	callq	_ZN115_$LT$proc_macro2..imp..TokenStream$u20$as$u20$core..iter..traits..collect..Extend$LT$proc_macro2..TokenTree$GT$$GT$6extend17h08f871b0c5ed1f61E
.Ltmp144:
	.cv_loc	25 8 265 0
	nop
	addq	$104, %rsp
	retq
.Ltmp145:
.Lfunc_end22:
	.seh_endproc

	.def	_ZN110_$LT$proc_macro2..TokenStream$u20$as$u20$core..iter..traits..collect..Extend$LT$proc_macro2..TokenTree$GT$$GT$6extend17h2b0843c5a2b00accE;
	.scl	2;
	.type	32;
	.endef
	.section	.text,"xr",one_only,_ZN110_$LT$proc_macro2..TokenStream$u20$as$u20$core..iter..traits..collect..Extend$LT$proc_macro2..TokenTree$GT$$GT$6extend17h2b0843c5a2b00accE
	.globl	_ZN110_$LT$proc_macro2..TokenStream$u20$as$u20$core..iter..traits..collect..Extend$LT$proc_macro2..TokenTree$GT$$GT$6extend17h2b0843c5a2b00accE
	.p2align	4, 0x90
_ZN110_$LT$proc_macro2..TokenStream$u20$as$u20$core..iter..traits..collect..Extend$LT$proc_macro2..TokenTree$GT$$GT$6extend17h2b0843c5a2b00accE:
.Lfunc_begin23:
	.cv_func_id 26
	.cv_loc	26 8 263 0
.seh_proc _ZN110_$LT$proc_macro2..TokenStream$u20$as$u20$core..iter..traits..collect..Extend$LT$proc_macro2..TokenTree$GT$$GT$6extend17h2b0843c5a2b00accE
	subq	$72, %rsp
	.seh_stackalloc 72
	.seh_endprologue
	movq	%rcx, 64(%rsp)
.Ltmp146:
	.cv_loc	26 8 264 0
	movq	(%rdx), %rax
	movq	%rax, 40(%rsp)
	movq	8(%rdx), %rax
	movq	%rax, 48(%rsp)
	movq	16(%rdx), %rax
	movq	%rax, 56(%rsp)
	leaq	40(%rsp), %rdx
.Ltmp147:
	callq	_ZN115_$LT$proc_macro2..imp..TokenStream$u20$as$u20$core..iter..traits..collect..Extend$LT$proc_macro2..TokenTree$GT$$GT$6extend17hc4e9028985620e03E
.Ltmp148:
	.cv_loc	26 8 265 0
	nop
	addq	$72, %rsp
	retq
.Ltmp149:
.Lfunc_end23:
	.seh_endproc

	.def	_ZN110_$LT$proc_macro2..TokenStream$u20$as$u20$core..iter..traits..collect..Extend$LT$proc_macro2..TokenTree$GT$$GT$6extend17h44f1d2b5187c7734E;
	.scl	2;
	.type	32;
	.endef
	.section	.text,"xr",one_only,_ZN110_$LT$proc_macro2..TokenStream$u20$as$u20$core..iter..traits..collect..Extend$LT$proc_macro2..TokenTree$GT$$GT$6extend17h44f1d2b5187c7734E
	.globl	_ZN110_$LT$proc_macro2..TokenStream$u20$as$u20$core..iter..traits..collect..Extend$LT$proc_macro2..TokenTree$GT$$GT$6extend17h44f1d2b5187c7734E
	.p2align	4, 0x90
_ZN110_$LT$proc_macro2..TokenStream$u20$as$u20$core..iter..traits..collect..Extend$LT$proc_macro2..TokenTree$GT$$GT$6extend17h44f1d2b5187c7734E:
.Lfunc_begin24:
	.cv_func_id 27
	.cv_loc	27 8 263 0
.seh_proc _ZN110_$LT$proc_macro2..TokenStream$u20$as$u20$core..iter..traits..collect..Extend$LT$proc_macro2..TokenTree$GT$$GT$6extend17h44f1d2b5187c7734E
	subq	$72, %rsp
	.seh_stackalloc 72
	.seh_endprologue
	movq	%rcx, 64(%rsp)
.Ltmp150:
	.cv_loc	27 8 264 0
	movq	(%rdx), %rax
	movq	%rax, 32(%rsp)
	movq	8(%rdx), %rax
	movq	%rax, 40(%rsp)
	movq	16(%rdx), %rax
	movq	%rax, 48(%rsp)
	movq	24(%rdx), %rax
	movq	%rax, 56(%rsp)
	leaq	32(%rsp), %rdx
.Ltmp151:
	callq	_ZN115_$LT$proc_macro2..imp..TokenStream$u20$as$u20$core..iter..traits..collect..Extend$LT$proc_macro2..TokenTree$GT$$GT$6extend17h9b72f6bd0c76e0e6E
.Ltmp152:
	.cv_loc	27 8 265 0
	nop
	addq	$72, %rsp
	retq
.Ltmp153:
.Lfunc_end24:
	.seh_endproc

	.def	_ZN110_$LT$proc_macro2..TokenStream$u20$as$u20$core..iter..traits..collect..Extend$LT$proc_macro2..TokenTree$GT$$GT$6extend17h50d60f406ba93837E;
	.scl	2;
	.type	32;
	.endef
	.section	.text,"xr",one_only,_ZN110_$LT$proc_macro2..TokenStream$u20$as$u20$core..iter..traits..collect..Extend$LT$proc_macro2..TokenTree$GT$$GT$6extend17h50d60f406ba93837E
	.globl	_ZN110_$LT$proc_macro2..TokenStream$u20$as$u20$core..iter..traits..collect..Extend$LT$proc_macro2..TokenTree$GT$$GT$6extend17h50d60f406ba93837E
	.p2align	4, 0x90
_ZN110_$LT$proc_macro2..TokenStream$u20$as$u20$core..iter..traits..collect..Extend$LT$proc_macro2..TokenTree$GT$$GT$6extend17h50d60f406ba93837E:
.Lfunc_begin25:
	.cv_func_id 28
	.cv_loc	28 8 263 0
.seh_proc _ZN110_$LT$proc_macro2..TokenStream$u20$as$u20$core..iter..traits..collect..Extend$LT$proc_macro2..TokenTree$GT$$GT$6extend17h50d60f406ba93837E
	subq	$72, %rsp
	.seh_stackalloc 72
	.seh_endprologue
	movq	%rcx, 64(%rsp)
.Ltmp154:
	.cv_loc	28 8 264 0
	movq	(%rdx), %rax
	movq	%rax, 40(%rsp)
	movq	8(%rdx), %rax
	movq	%rax, 48(%rsp)
	movq	16(%rdx), %rax
	movq	%rax, 56(%rsp)
	leaq	40(%rsp), %rdx
.Ltmp155:
	callq	_ZN115_$LT$proc_macro2..imp..TokenStream$u20$as$u20$core..iter..traits..collect..Extend$LT$proc_macro2..TokenTree$GT$$GT$6extend17hd956da9c57397372E
.Ltmp156:
	.cv_loc	28 8 265 0
	nop
	addq	$72, %rsp
	retq
.Ltmp157:
.Lfunc_end25:
	.seh_endproc

	.def	_ZN112_$LT$proc_macro2..TokenStream$u20$as$u20$core..iter..traits..collect..Extend$LT$proc_macro2..TokenStream$GT$$GT$6extend17h9be670de0328fb5aE;
	.scl	2;
	.type	32;
	.endef
	.section	.text,"xr",one_only,_ZN112_$LT$proc_macro2..TokenStream$u20$as$u20$core..iter..traits..collect..Extend$LT$proc_macro2..TokenStream$GT$$GT$6extend17h9be670de0328fb5aE
	.globl	_ZN112_$LT$proc_macro2..TokenStream$u20$as$u20$core..iter..traits..collect..Extend$LT$proc_macro2..TokenStream$GT$$GT$6extend17h9be670de0328fb5aE
	.p2align	4, 0x90
_ZN112_$LT$proc_macro2..TokenStream$u20$as$u20$core..iter..traits..collect..Extend$LT$proc_macro2..TokenStream$GT$$GT$6extend17h9be670de0328fb5aE:
.Lfunc_begin26:
	.cv_func_id 29
	.cv_loc	29 8 269 0
.seh_proc _ZN112_$LT$proc_macro2..TokenStream$u20$as$u20$core..iter..traits..collect..Extend$LT$proc_macro2..TokenStream$GT$$GT$6extend17h9be670de0328fb5aE
	subq	$168, %rsp
	.seh_stackalloc 168
	.seh_endprologue
	movq	%rcx, 32(%rsp)
	movq	%rcx, 160(%rsp)
.Ltmp158:
	.cv_loc	29 8 271 0
	leaq	120(%rsp), %rcx
	movl	$40, %r8d
	callq	memcpy
.Ltmp159:
	leaq	80(%rsp), %rcx
	leaq	120(%rsp), %rdx
	callq	_ZN63_$LT$I$u20$as$u20$core..iter..traits..collect..IntoIterator$GT$9into_iter17h385ba4fb87bcbeb4E
.Ltmp160:
	leaq	40(%rsp), %rcx
	leaq	80(%rsp), %rdx
	callq	_ZN4core4iter6traits8iterator8Iterator3map17hdd3570f9a6f1716bE
.Ltmp161:
	.cv_loc	29 8 270 0
	movq	32(%rsp), %rcx
	leaq	40(%rsp), %rdx
	callq	_ZN122_$LT$proc_macro2..imp..TokenStream$u20$as$u20$core..iter..traits..collect..Extend$LT$proc_macro2..imp..TokenStream$GT$$GT$6extend17hb0af26f52e18d83dE
.Ltmp162:
	.cv_loc	29 8 272 0
	nop
	addq	$168, %rsp
	retq
.Ltmp163:
.Lfunc_end26:
	.seh_endproc

	.def	_ZN112_$LT$proc_macro2..TokenStream$u20$as$u20$core..iter..traits..collect..Extend$LT$proc_macro2..TokenStream$GT$$GT$6extend28_$u7b$$u7b$closure$u7d$$u7d$17h3e9092bfa7ef802eE;
	.scl	2;
	.type	32;
	.endef
	.section	.text,"xr",one_only,_ZN112_$LT$proc_macro2..TokenStream$u20$as$u20$core..iter..traits..collect..Extend$LT$proc_macro2..TokenStream$GT$$GT$6extend28_$u7b$$u7b$closure$u7d$$u7d$17h3e9092bfa7ef802eE
	.globl	_ZN112_$LT$proc_macro2..TokenStream$u20$as$u20$core..iter..traits..collect..Extend$LT$proc_macro2..TokenStream$GT$$GT$6extend28_$u7b$$u7b$closure$u7d$$u7d$17h3e9092bfa7ef802eE
	.p2align	4, 0x90
_ZN112_$LT$proc_macro2..TokenStream$u20$as$u20$core..iter..traits..collect..Extend$LT$proc_macro2..TokenStream$GT$$GT$6extend28_$u7b$$u7b$closure$u7d$$u7d$17h3e9092bfa7ef802eE:
.Lfunc_begin27:
	.cv_func_id 30
	.cv_loc	30 8 271 0
.seh_proc _ZN112_$LT$proc_macro2..TokenStream$u20$as$u20$core..iter..traits..collect..Extend$LT$proc_macro2..TokenStream$GT$$GT$6extend28_$u7b$$u7b$closure$u7d$$u7d$17h3e9092bfa7ef802eE
	pushq	%rax
	.seh_stackalloc 8
	.seh_endprologue
	movq	%rcx, %rax
	movq	%rdx, (%rsp)
.Ltmp164:
	movq	(%r8), %rdx
	movq	%rdx, (%rcx)
	movq	8(%r8), %rdx
	movq	%rdx, 8(%rcx)
	movq	16(%r8), %rdx
	movq	%rdx, 16(%rcx)
	movq	24(%r8), %rdx
	movq	%rdx, 24(%rcx)
	popq	%rcx
	retq
.Ltmp165:
.Lfunc_end27:
	.seh_endproc

	.def	_ZN114_$LT$proc_macro..TokenStream$u20$as$u20$core..iter..traits..collect..FromIterator$LT$proc_macro..TokenTree$GT$$GT$9from_iter17h75bd681981dac6bfE;
	.scl	2;
	.type	32;
	.endef
	.section	.text,"xr",one_only,_ZN114_$LT$proc_macro..TokenStream$u20$as$u20$core..iter..traits..collect..FromIterator$LT$proc_macro..TokenTree$GT$$GT$9from_iter17h75bd681981dac6bfE
	.globl	_ZN114_$LT$proc_macro..TokenStream$u20$as$u20$core..iter..traits..collect..FromIterator$LT$proc_macro..TokenTree$GT$$GT$9from_iter17h75bd681981dac6bfE
	.p2align	4, 0x90
_ZN114_$LT$proc_macro..TokenStream$u20$as$u20$core..iter..traits..collect..FromIterator$LT$proc_macro..TokenTree$GT$$GT$9from_iter17h75bd681981dac6bfE:
.Lfunc_begin28:
	.cv_func_id 31
	.cv_loc	31 7 313 0
.seh_proc _ZN114_$LT$proc_macro..TokenStream$u20$as$u20$core..iter..traits..collect..FromIterator$LT$proc_macro..TokenTree$GT$$GT$9from_iter17h75bd681981dac6bfE
	.seh_handler __CxxFrameHandler3, @unwind, @except
	pushq	%rbp
	.seh_pushreg %rbp
	subq	$304, %rsp
	.seh_stackalloc 304
	leaq	128(%rsp), %rbp
	.seh_setframe %rbp, 128
	.seh_endprologue
.Ltmp174:
	.cv_loc	31 7 314 0
	movq	$-2, 168(%rbp)
	vmovups	(%rcx), %ymm0
	vmovups	16(%rcx), %ymm1
	vmovups	%ymm1, -16(%rbp)
	vmovups	%ymm0, -32(%rbp)
	leaq	-80(%rbp), %rcx
.Ltmp175:
	movq	%rcx, -88(%rbp)
	leaq	-32(%rbp), %rdx
	vzeroupper
	callq	_ZN63_$LT$I$u20$as$u20$core..iter..traits..collect..IntoIterator$GT$9into_iter17h35aabca53d6cb419E
	movq	-88(%rbp), %rdx
	movb	$1, 167(%rbp)
	.cv_loc	31 7 315 0
.Ltmp166:
	leaq	40(%rbp), %rcx
.Ltmp176:
	callq	_ZN102_$LT$core..iter..adapters..map..Map$LT$I$C$F$GT$$u20$as$u20$core..iter..traits..iterator..Iterator$GT$9size_hint17hbb019a2e014d4ee8E
.Ltmp167:
	jmp	.LBB28_2
.Ltmp177:
.LBB28_2:
	movq	40(%rbp), %rdx
.Ltmp168:
	leaq	16(%rbp), %rcx
	callq	_ZN10proc_macro17ConcatTreesHelper3new17h0f62dc1cb0bf5851E
.Ltmp169:
	jmp	.LBB28_3
.Ltmp178:
.LBB28_3:
	movb	$1, 166(%rbp)
.Ltmp179:
	.cv_loc	31 7 316 0
	movb	$0, 167(%rbp)
	vmovups	-80(%rbp), %ymm0
	vmovups	-64(%rbp), %ymm1
	vmovups	%ymm1, 80(%rbp)
	vmovups	%ymm0, 64(%rbp)
	leaq	16(%rbp), %rax
	movq	%rax, 120(%rbp)
	movq	120(%rbp), %rdx
.Ltmp170:
	leaq	64(%rbp), %rcx
	vzeroupper
	callq	_ZN4core4iter6traits8iterator8Iterator8for_each17hdc7967772e33cff0E
.Ltmp171:
	jmp	.LBB28_5
.Ltmp180:
.LBB28_5:
	.cv_loc	31 7 317 0
	movb	$0, 166(%rbp)
	movq	32(%rbp), %rax
	movq	%rax, 144(%rbp)
	vmovdqu	16(%rbp), %xmm0
	vmovdqa	%xmm0, 128(%rbp)
.Ltmp172:
	leaq	128(%rbp), %rcx
	callq	_ZN10proc_macro17ConcatTreesHelper5build17h2cc1a054e39b179dE
.Ltmp173:
	movl	%eax, -92(%rbp)
	jmp	.LBB28_6
.Ltmp181:
.LBB28_6:
	.cv_loc	31 7 318 0
	movl	-92(%rbp), %eax
	addq	$304, %rsp
	popq	%rbp
	retq
.Ltmp182:
	.seh_handlerdata
	.long	($cppxdata$_ZN114_$LT$proc_macro..TokenStream$u20$as$u20$core..iter..traits..collect..FromIterator$LT$proc_macro..TokenTree$GT$$GT$9from_iter17h75bd681981dac6bfE)@IMGREL
	.section	.text,"xr",one_only,_ZN114_$LT$proc_macro..TokenStream$u20$as$u20$core..iter..traits..collect..FromIterator$LT$proc_macro..TokenTree$GT$$GT$9from_iter17h75bd681981dac6bfE
	.seh_endproc
	.def	"?dtor$1@?0?_ZN114_$LT$proc_macro..TokenStream$u20$as$u20$core..iter..traits..collect..FromIterator$LT$proc_macro..TokenTree$GT$$GT$9from_iter17h75bd681981dac6bfE@4HA";
	.scl	3;
	.type	32;
	.endef
	.p2align	4, 0x90
"?dtor$1@?0?_ZN114_$LT$proc_macro..TokenStream$u20$as$u20$core..iter..traits..collect..FromIterator$LT$proc_macro..TokenTree$GT$$GT$9from_iter17h75bd681981dac6bfE@4HA":
.seh_proc "?dtor$1@?0?_ZN114_$LT$proc_macro..TokenStream$u20$as$u20$core..iter..traits..collect..FromIterator$LT$proc_macro..TokenTree$GT$$GT$9from_iter17h75bd681981dac6bfE@4HA"
.LBB28_1:
	movq	%rdx, 16(%rsp)
	pushq	%rbp
	.seh_pushreg %rbp
	subq	$32, %rsp
	.seh_stackalloc 32
	leaq	128(%rdx), %rbp
	.seh_endprologue
	testb	$1, 167(%rbp)
	jne	.LBB28_10
	jmp	.LBB28_9
.Ltmp183:
.LBB28_9:
	.cv_loc	31 7 313 0
	addq	$32, %rsp
	popq	%rbp
	retq
.Ltmp184:
.LBB28_10:
	.cv_loc	31 7 318 0
	leaq	-80(%rbp), %rcx
	callq	_ZN4core3ptr239drop_in_place$LT$core..iter..adapters..map..Map$LT$core..iter..adapters..map..Map$LT$proc_macro2..token_stream..IntoIter$C$quote..__private..respan_token_tree..$u7b$$u7b$closure$u7d$$u7d$$GT$$C$proc_macro2..imp..into_compiler_token$GT$$GT$17hcd000b938f2f2290E
	jmp	.LBB28_9
.Ltmp185:
	.seh_handlerdata
	.section	.text,"xr",one_only,_ZN114_$LT$proc_macro..TokenStream$u20$as$u20$core..iter..traits..collect..FromIterator$LT$proc_macro..TokenTree$GT$$GT$9from_iter17h75bd681981dac6bfE
	.seh_endproc
	.def	"?dtor$4@?0?_ZN114_$LT$proc_macro..TokenStream$u20$as$u20$core..iter..traits..collect..FromIterator$LT$proc_macro..TokenTree$GT$$GT$9from_iter17h75bd681981dac6bfE@4HA";
	.scl	3;
	.type	32;
	.endef
	.p2align	4, 0x90
"?dtor$4@?0?_ZN114_$LT$proc_macro..TokenStream$u20$as$u20$core..iter..traits..collect..FromIterator$LT$proc_macro..TokenTree$GT$$GT$9from_iter17h75bd681981dac6bfE@4HA":
.seh_proc "?dtor$4@?0?_ZN114_$LT$proc_macro..TokenStream$u20$as$u20$core..iter..traits..collect..FromIterator$LT$proc_macro..TokenTree$GT$$GT$9from_iter17h75bd681981dac6bfE@4HA"
.LBB28_4:
	movq	%rdx, 16(%rsp)
	pushq	%rbp
	.seh_pushreg %rbp
	subq	$32, %rsp
	.seh_stackalloc 32
	leaq	128(%rdx), %rbp
	.seh_endprologue
.Ltmp186:
	.cv_loc	31 7 318 0
	testb	$1, 166(%rbp)
	jne	.LBB28_8
	jmp	.LBB28_7
.Ltmp187:
.LBB28_7:
	addq	$32, %rsp
	popq	%rbp
	retq
.Ltmp188:
.LBB28_8:
	leaq	16(%rbp), %rcx
	callq	_ZN4core3ptr50drop_in_place$LT$proc_macro..ConcatTreesHelper$GT$17h39a77283b2740813E
	nop
	addq	$32, %rsp
	popq	%rbp
	retq
.Ltmp189:
.Lfunc_end28:
	.seh_handlerdata
	.section	.text,"xr",one_only,_ZN114_$LT$proc_macro..TokenStream$u20$as$u20$core..iter..traits..collect..FromIterator$LT$proc_macro..TokenTree$GT$$GT$9from_iter17h75bd681981dac6bfE
	.seh_endproc
	.section	.xdata,"dr",associative,_ZN114_$LT$proc_macro..TokenStream$u20$as$u20$core..iter..traits..collect..FromIterator$LT$proc_macro..TokenTree$GT$$GT$9from_iter17h75bd681981dac6bfE
	.p2align	2
$cppxdata$_ZN114_$LT$proc_macro..TokenStream$u20$as$u20$core..iter..traits..collect..FromIterator$LT$proc_macro..TokenTree$GT$$GT$9from_iter17h75bd681981dac6bfE:
	.long	429065506
	.long	2
	.long	($stateUnwindMap$_ZN114_$LT$proc_macro..TokenStream$u20$as$u20$core..iter..traits..collect..FromIterator$LT$proc_macro..TokenTree$GT$$GT$9from_iter17h75bd681981dac6bfE)@IMGREL
	.long	0
	.long	0
	.long	4
	.long	($ip2state$_ZN114_$LT$proc_macro..TokenStream$u20$as$u20$core..iter..traits..collect..FromIterator$LT$proc_macro..TokenTree$GT$$GT$9from_iter17h75bd681981dac6bfE)@IMGREL
	.long	296
	.long	0
	.long	1
$stateUnwindMap$_ZN114_$LT$proc_macro..TokenStream$u20$as$u20$core..iter..traits..collect..FromIterator$LT$proc_macro..TokenTree$GT$$GT$9from_iter17h75bd681981dac6bfE:
	.long	-1
	.long	"?dtor$1@?0?_ZN114_$LT$proc_macro..TokenStream$u20$as$u20$core..iter..traits..collect..FromIterator$LT$proc_macro..TokenTree$GT$$GT$9from_iter17h75bd681981dac6bfE@4HA"@IMGREL
	.long	0
	.long	"?dtor$4@?0?_ZN114_$LT$proc_macro..TokenStream$u20$as$u20$core..iter..traits..collect..FromIterator$LT$proc_macro..TokenTree$GT$$GT$9from_iter17h75bd681981dac6bfE@4HA"@IMGREL
$ip2state$_ZN114_$LT$proc_macro..TokenStream$u20$as$u20$core..iter..traits..collect..FromIterator$LT$proc_macro..TokenTree$GT$$GT$9from_iter17h75bd681981dac6bfE:
	.long	.Lfunc_begin28@IMGREL
	.long	-1
	.long	.Ltmp166@IMGREL+1
	.long	0
	.long	.Ltmp170@IMGREL+1
	.long	1
	.long	.Ltmp173@IMGREL+1
	.long	-1
	.section	.text,"xr",one_only,_ZN114_$LT$proc_macro..TokenStream$u20$as$u20$core..iter..traits..collect..FromIterator$LT$proc_macro..TokenTree$GT$$GT$9from_iter17h75bd681981dac6bfE

	.def	_ZN114_$LT$proc_macro..TokenStream$u20$as$u20$core..iter..traits..collect..FromIterator$LT$proc_macro..TokenTree$GT$$GT$9from_iter28_$u7b$$u7b$closure$u7d$$u7d$17h47db54e54c0d56f1E;
	.scl	2;
	.type	32;
	.endef
	.section	.text,"xr",one_only,_ZN114_$LT$proc_macro..TokenStream$u20$as$u20$core..iter..traits..collect..FromIterator$LT$proc_macro..TokenTree$GT$$GT$9from_iter28_$u7b$$u7b$closure$u7d$$u7d$17h47db54e54c0d56f1E
	.globl	_ZN114_$LT$proc_macro..TokenStream$u20$as$u20$core..iter..traits..collect..FromIterator$LT$proc_macro..TokenTree$GT$$GT$9from_iter28_$u7b$$u7b$closure$u7d$$u7d$17h47db54e54c0d56f1E
	.p2align	4, 0x90
_ZN114_$LT$proc_macro..TokenStream$u20$as$u20$core..iter..traits..collect..FromIterator$LT$proc_macro..TokenTree$GT$$GT$9from_iter28_$u7b$$u7b$closure$u7d$$u7d$17h47db54e54c0d56f1E:
.Lfunc_begin29:
	.cv_func_id 32
	.cv_loc	32 7 316 0
.seh_proc _ZN114_$LT$proc_macro..TokenStream$u20$as$u20$core..iter..traits..collect..FromIterator$LT$proc_macro..TokenTree$GT$$GT$9from_iter28_$u7b$$u7b$closure$u7d$$u7d$17h47db54e54c0d56f1E
	subq	$72, %rsp
	.seh_stackalloc 72
	.seh_endprologue
	movq	%rcx, 56(%rsp)
	movq	56(%rsp), %rax
	movq	(%rax), %rax
	movq	%rax, 64(%rsp)
.Ltmp190:
	movq	(%rcx), %rcx
	movq	(%rdx), %rax
	movq	%rax, 32(%rsp)
	movq	8(%rdx), %rax
	movq	%rax, 40(%rsp)
	movl	16(%rdx), %eax
	movl	%eax, 48(%rsp)
	leaq	32(%rsp), %rdx
.Ltmp191:
	callq	_ZN10proc_macro17ConcatTreesHelper4push17h6f9c30dbd01f08c0E
.Ltmp192:
	nop
	addq	$72, %rsp
	retq
.Ltmp193:
.Lfunc_end29:
	.seh_endproc

	.def	_ZN115_$LT$proc_macro2..imp..TokenStream$u20$as$u20$core..iter..traits..collect..Extend$LT$proc_macro2..TokenTree$GT$$GT$6extend17h08f871b0c5ed1f61E;
	.scl	2;
	.type	32;
	.endef
	.section	.text,"xr",one_only,_ZN115_$LT$proc_macro2..imp..TokenStream$u20$as$u20$core..iter..traits..collect..Extend$LT$proc_macro2..TokenTree$GT$$GT$6extend17h08f871b0c5ed1f61E
	.globl	_ZN115_$LT$proc_macro2..imp..TokenStream$u20$as$u20$core..iter..traits..collect..Extend$LT$proc_macro2..TokenTree$GT$$GT$6extend17h08f871b0c5ed1f61E
	.p2align	4, 0x90
_ZN115_$LT$proc_macro2..imp..TokenStream$u20$as$u20$core..iter..traits..collect..Extend$LT$proc_macro2..TokenTree$GT$$GT$6extend17h08f871b0c5ed1f61E:
.Lfunc_begin30:
	.cv_func_id 33
	.cv_file	9 "C:\\Users\\cires\\.cargo\\registry\\src\\github.com-1ecc6299db9ec823\\proc-macro2-1.0.71\\src\\wrapper.rs" "B5BE202D35595BC7E30549F85D1BABF6D026FE0B" 2
	.cv_loc	33 9 218 0
.seh_proc _ZN115_$LT$proc_macro2..imp..TokenStream$u20$as$u20$core..iter..traits..collect..Extend$LT$proc_macro2..TokenTree$GT$$GT$6extend17h08f871b0c5ed1f61E
	.seh_handler __CxxFrameHandler3, @unwind, @except
	pushq	%rbp
	.seh_pushreg %rbp
	subq	$416, %rsp
	.seh_stackalloc 416
	leaq	128(%rsp), %rbp
	.seh_setframe %rbp, 128
	.seh_endprologue
	movq	$-2, 280(%rbp)
	movq	%rdx, -80(%rbp)
.Ltmp200:
	movq	%rcx, -72(%rbp)
	movq	%rcx, 256(%rbp)
.Ltmp201:
	.cv_loc	33 9 219 0
	movq	(%rcx), %rax
	testq	%rax, %rax
	sete	%al
	movzbl	%al, %eax
.Ltmp202:
	jne	.LBB30_2
	jmp	.LBB30_14
.Ltmp203:
.LBB30_14:
	jmp	.LBB30_3
.Ltmp204:
	ud2
.LBB30_2:
.Ltmp205:
	.cv_loc	33 9 220 0
	movq	-80(%rbp), %rdx
	movq	-72(%rbp), %rax
	movq	%rax, 272(%rbp)
.Ltmp206:
	.cv_loc	33 9 222 0
	leaq	-16(%rbp), %rcx
	movl	$48, %r8d
	callq	memcpy
	leaq	-64(%rbp), %rcx
	leaq	-16(%rbp), %rdx
	callq	_ZN63_$LT$I$u20$as$u20$core..iter..traits..collect..IntoIterator$GT$9into_iter17h24171b3fa6b24274E
	leaq	32(%rbp), %rcx
	leaq	-64(%rbp), %rdx
	movl	$48, %r8d
	callq	memcpy
.Ltmp207:
	.cv_loc	33 9 222 0
	jmp	.LBB30_5
.Ltmp208:
.LBB30_3:
	.cv_loc	33 9 226 0
	movq	-80(%rbp), %rdx
	movq	-72(%rbp), %rax
	addq	$8, %rax
	movq	%rax, -88(%rbp)
	movq	%rax, 264(%rbp)
.Ltmp209:
	.cv_loc	33 9 226 0
	leaq	208(%rbp), %rcx
	movl	$48, %r8d
	callq	memcpy
	movq	-88(%rbp), %rcx
	leaq	208(%rbp), %rdx
	callq	_ZN120_$LT$proc_macro2..fallback..TokenStream$u20$as$u20$core..iter..traits..collect..Extend$LT$proc_macro2..TokenTree$GT$$GT$6extend17h7bc869d25d46bdb2E
.Ltmp210:
.LBB30_4:
	.cv_loc	33 9 228 0
	nop
	addq	$416, %rsp
	popq	%rbp
	retq
.Ltmp211:
.LBB30_5:
	.cv_loc	33 9 222 0
.Ltmp194:
	leaq	80(%rbp), %rcx
	leaq	32(%rbp), %rdx
.Ltmp212:
	callq	_ZN102_$LT$core..iter..adapters..map..Map$LT$I$C$F$GT$$u20$as$u20$core..iter..traits..iterator..Iterator$GT$4next17hf8aa822eadae722aE
.Ltmp195:
	jmp	.LBB30_7
.Ltmp213:
.LBB30_7:
	movb	104(%rbp), %al
	addb	$-7, %al
	setne	%al
	movzbl	%al, %eax
	je	.LBB30_9
	jmp	.LBB30_15
.Ltmp214:
.LBB30_15:
	jmp	.LBB30_10
.Ltmp215:
	ud2
.Ltmp216:
.LBB30_9:
	.cv_loc	33 9 222 0
	leaq	32(%rbp), %rcx
	callq	_ZN4core3ptr157drop_in_place$LT$core..iter..adapters..map..Map$LT$proc_macro2..token_stream..IntoIter$C$quote..__private..parse_spanned..$u7b$$u7b$closure$u7d$$u7d$$GT$$GT$17h7cb5540f8a6c9cffE
	jmp	.LBB30_4
.Ltmp217:
.LBB30_10:
	.cv_loc	33 9 222 0
	vmovups	80(%rbp), %ymm0
	vmovups	%ymm0, 112(%rbp)
.Ltmp218:
	.cv_loc	33 9 223 0
	vmovups	112(%rbp), %ymm0
	vmovups	%ymm0, 176(%rbp)
.Ltmp196:
	leaq	152(%rbp), %rcx
	leaq	176(%rbp), %rdx
	vzeroupper
	callq	_ZN11proc_macro23imp19into_compiler_token17h78ec7eb8264295baE
.Ltmp197:
	jmp	.LBB30_12
.Ltmp219:
.LBB30_12:
.Ltmp198:
	movq	-72(%rbp), %rcx
	leaq	152(%rbp), %rdx
	callq	_ZN5alloc3vec16Vec$LT$T$C$A$GT$4push17h6fbc54d706f89dd6E
.Ltmp199:
	jmp	.LBB30_13
.Ltmp220:
.LBB30_13:
	.cv_loc	33 9 222 0
	jmp	.LBB30_5
.Ltmp221:
	.seh_handlerdata
	.long	($cppxdata$_ZN115_$LT$proc_macro2..imp..TokenStream$u20$as$u20$core..iter..traits..collect..Extend$LT$proc_macro2..TokenTree$GT$$GT$6extend17h08f871b0c5ed1f61E)@IMGREL
	.section	.text,"xr",one_only,_ZN115_$LT$proc_macro2..imp..TokenStream$u20$as$u20$core..iter..traits..collect..Extend$LT$proc_macro2..TokenTree$GT$$GT$6extend17h08f871b0c5ed1f61E
	.seh_endproc
	.def	"?dtor$6@?0?_ZN115_$LT$proc_macro2..imp..TokenStream$u20$as$u20$core..iter..traits..collect..Extend$LT$proc_macro2..TokenTree$GT$$GT$6extend17h08f871b0c5ed1f61E@4HA";
	.scl	3;
	.type	32;
	.endef
	.p2align	4, 0x90
"?dtor$6@?0?_ZN115_$LT$proc_macro2..imp..TokenStream$u20$as$u20$core..iter..traits..collect..Extend$LT$proc_macro2..TokenTree$GT$$GT$6extend17h08f871b0c5ed1f61E@4HA":
.seh_proc "?dtor$6@?0?_ZN115_$LT$proc_macro2..imp..TokenStream$u20$as$u20$core..iter..traits..collect..Extend$LT$proc_macro2..TokenTree$GT$$GT$6extend17h08f871b0c5ed1f61E@4HA"
.LBB30_6:
	movq	%rdx, 16(%rsp)
	pushq	%rbp
	.seh_pushreg %rbp
	subq	$32, %rsp
	.seh_stackalloc 32
	leaq	128(%rdx), %rbp
	.seh_endprologue
	leaq	32(%rbp), %rcx
	.cv_loc	33 9 222 0
	callq	_ZN4core3ptr157drop_in_place$LT$core..iter..adapters..map..Map$LT$proc_macro2..token_stream..IntoIter$C$quote..__private..parse_spanned..$u7b$$u7b$closure$u7d$$u7d$$GT$$GT$17h7cb5540f8a6c9cffE
.Ltmp222:
	.cv_loc	33 9 218 0
	nop
	addq	$32, %rsp
	popq	%rbp
	retq
	.seh_handlerdata
	.section	.text,"xr",one_only,_ZN115_$LT$proc_macro2..imp..TokenStream$u20$as$u20$core..iter..traits..collect..Extend$LT$proc_macro2..TokenTree$GT$$GT$6extend17h08f871b0c5ed1f61E
	.seh_endproc
	.def	"?dtor$11@?0?_ZN115_$LT$proc_macro2..imp..TokenStream$u20$as$u20$core..iter..traits..collect..Extend$LT$proc_macro2..TokenTree$GT$$GT$6extend17h08f871b0c5ed1f61E@4HA";
	.scl	3;
	.type	32;
	.endef
	.p2align	4, 0x90
"?dtor$11@?0?_ZN115_$LT$proc_macro2..imp..TokenStream$u20$as$u20$core..iter..traits..collect..Extend$LT$proc_macro2..TokenTree$GT$$GT$6extend17h08f871b0c5ed1f61E@4HA":
.seh_proc "?dtor$11@?0?_ZN115_$LT$proc_macro2..imp..TokenStream$u20$as$u20$core..iter..traits..collect..Extend$LT$proc_macro2..TokenTree$GT$$GT$6extend17h08f871b0c5ed1f61E@4HA"
.LBB30_11:
.Ltmp223:
	movq	%rdx, 16(%rsp)
	pushq	%rbp
	.seh_pushreg %rbp
	subq	$32, %rsp
	.seh_stackalloc 32
	leaq	128(%rdx), %rbp
.Ltmp224:
	.seh_endprologue
.Ltmp225:
	.cv_loc	33 9 222 0
	addq	$32, %rsp
	popq	%rbp
	retq
.Ltmp226:
.Lfunc_end30:
	.seh_handlerdata
	.section	.text,"xr",one_only,_ZN115_$LT$proc_macro2..imp..TokenStream$u20$as$u20$core..iter..traits..collect..Extend$LT$proc_macro2..TokenTree$GT$$GT$6extend17h08f871b0c5ed1f61E
	.seh_endproc
	.section	.xdata,"dr",associative,_ZN115_$LT$proc_macro2..imp..TokenStream$u20$as$u20$core..iter..traits..collect..Extend$LT$proc_macro2..TokenTree$GT$$GT$6extend17h08f871b0c5ed1f61E
	.p2align	2
$cppxdata$_ZN115_$LT$proc_macro2..imp..TokenStream$u20$as$u20$core..iter..traits..collect..Extend$LT$proc_macro2..TokenTree$GT$$GT$6extend17h08f871b0c5ed1f61E:
	.long	429065506
	.long	2
	.long	($stateUnwindMap$_ZN115_$LT$proc_macro2..imp..TokenStream$u20$as$u20$core..iter..traits..collect..Extend$LT$proc_macro2..TokenTree$GT$$GT$6extend17h08f871b0c5ed1f61E)@IMGREL
	.long	0
	.long	0
	.long	5
	.long	($ip2state$_ZN115_$LT$proc_macro2..imp..TokenStream$u20$as$u20$core..iter..traits..collect..Extend$LT$proc_macro2..TokenTree$GT$$GT$6extend17h08f871b0c5ed1f61E)@IMGREL
	.long	408
	.long	0
	.long	1
$stateUnwindMap$_ZN115_$LT$proc_macro2..imp..TokenStream$u20$as$u20$core..iter..traits..collect..Extend$LT$proc_macro2..TokenTree$GT$$GT$6extend17h08f871b0c5ed1f61E:
	.long	-1
	.long	"?dtor$6@?0?_ZN115_$LT$proc_macro2..imp..TokenStream$u20$as$u20$core..iter..traits..collect..Extend$LT$proc_macro2..TokenTree$GT$$GT$6extend17h08f871b0c5ed1f61E@4HA"@IMGREL
	.long	0
	.long	"?dtor$11@?0?_ZN115_$LT$proc_macro2..imp..TokenStream$u20$as$u20$core..iter..traits..collect..Extend$LT$proc_macro2..TokenTree$GT$$GT$6extend17h08f871b0c5ed1f61E@4HA"@IMGREL
$ip2state$_ZN115_$LT$proc_macro2..imp..TokenStream$u20$as$u20$core..iter..traits..collect..Extend$LT$proc_macro2..TokenTree$GT$$GT$6extend17h08f871b0c5ed1f61E:
	.long	.Lfunc_begin30@IMGREL
	.long	-1
	.long	.Ltmp194@IMGREL+1
	.long	0
	.long	.Ltmp195@IMGREL+1
	.long	-1
	.long	.Ltmp196@IMGREL+1
	.long	1
	.long	.Ltmp199@IMGREL+1
	.long	-1
	.section	.text,"xr",one_only,_ZN115_$LT$proc_macro2..imp..TokenStream$u20$as$u20$core..iter..traits..collect..Extend$LT$proc_macro2..TokenTree$GT$$GT$6extend17h08f871b0c5ed1f61E

	.def	_ZN115_$LT$proc_macro2..imp..TokenStream$u20$as$u20$core..iter..traits..collect..Extend$LT$proc_macro2..TokenTree$GT$$GT$6extend17h9b72f6bd0c76e0e6E;
	.scl	2;
	.type	32;
	.endef
	.section	.text,"xr",one_only,_ZN115_$LT$proc_macro2..imp..TokenStream$u20$as$u20$core..iter..traits..collect..Extend$LT$proc_macro2..TokenTree$GT$$GT$6extend17h9b72f6bd0c76e0e6E
	.globl	_ZN115_$LT$proc_macro2..imp..TokenStream$u20$as$u20$core..iter..traits..collect..Extend$LT$proc_macro2..TokenTree$GT$$GT$6extend17h9b72f6bd0c76e0e6E
	.p2align	4, 0x90
_ZN115_$LT$proc_macro2..imp..TokenStream$u20$as$u20$core..iter..traits..collect..Extend$LT$proc_macro2..TokenTree$GT$$GT$6extend17h9b72f6bd0c76e0e6E:
.Lfunc_begin31:
	.cv_func_id 34
	.cv_loc	34 9 218 0
.seh_proc _ZN115_$LT$proc_macro2..imp..TokenStream$u20$as$u20$core..iter..traits..collect..Extend$LT$proc_macro2..TokenTree$GT$$GT$6extend17h9b72f6bd0c76e0e6E
	.seh_handler __CxxFrameHandler3, @unwind, @except
	pushq	%rbp
	.seh_pushreg %rbp
	subq	$336, %rsp
	.seh_stackalloc 336
	leaq	128(%rsp), %rbp
	.seh_setframe %rbp, 128
	.seh_endprologue
	movq	$-2, 200(%rbp)
	movq	%rdx, -96(%rbp)
.Ltmp233:
	movq	%rcx, -88(%rbp)
	movq	%rcx, 176(%rbp)
.Ltmp234:
	.cv_loc	34 9 219 0
	movq	(%rcx), %rax
	testq	%rax, %rax
	sete	%al
	movzbl	%al, %eax
.Ltmp235:
	jne	.LBB31_2
	jmp	.LBB31_14
.Ltmp236:
.LBB31_14:
	jmp	.LBB31_3
.Ltmp237:
	ud2
.LBB31_2:
.Ltmp238:
	.cv_loc	34 9 220 0
	movq	-96(%rbp), %rax
	movq	-88(%rbp), %rcx
	movq	%rcx, 192(%rbp)
.Ltmp239:
	.cv_loc	34 9 222 0
	movq	(%rax), %rcx
	movq	%rcx, -48(%rbp)
	movq	8(%rax), %rcx
	movq	%rcx, -40(%rbp)
	movq	16(%rax), %rcx
	movq	%rcx, -32(%rbp)
	movq	24(%rax), %rax
	movq	%rax, -24(%rbp)
	leaq	-80(%rbp), %rcx
	leaq	-48(%rbp), %rdx
	callq	_ZN63_$LT$I$u20$as$u20$core..iter..traits..collect..IntoIterator$GT$9into_iter17h110434ac93998458E
	movq	-80(%rbp), %rax
	movq	%rax, -16(%rbp)
	movq	-72(%rbp), %rax
	movq	%rax, -8(%rbp)
	movq	-64(%rbp), %rax
	movq	%rax, (%rbp)
	movq	-56(%rbp), %rax
	movq	%rax, 8(%rbp)
.Ltmp240:
	.cv_loc	34 9 222 0
	jmp	.LBB31_5
.Ltmp241:
.LBB31_3:
	.cv_loc	34 9 226 0
	movq	-96(%rbp), %rax
	movq	-88(%rbp), %rcx
	addq	$8, %rcx
	movq	%rcx, 184(%rbp)
.Ltmp242:
	.cv_loc	34 9 226 0
	movq	(%rax), %rdx
	movq	%rdx, 144(%rbp)
	movq	8(%rax), %rdx
	movq	%rdx, 152(%rbp)
	movq	16(%rax), %rdx
	movq	%rdx, 160(%rbp)
	movq	24(%rax), %rax
	movq	%rax, 168(%rbp)
	leaq	144(%rbp), %rdx
	callq	_ZN120_$LT$proc_macro2..fallback..TokenStream$u20$as$u20$core..iter..traits..collect..Extend$LT$proc_macro2..TokenTree$GT$$GT$6extend17h969798d41559eab4E
.Ltmp243:
.LBB31_4:
	.cv_loc	34 9 228 0
	nop
	addq	$336, %rsp
	popq	%rbp
	retq
.Ltmp244:
.LBB31_5:
	.cv_loc	34 9 222 0
.Ltmp227:
	leaq	16(%rbp), %rcx
	leaq	-16(%rbp), %rdx
.Ltmp245:
	callq	_ZN99_$LT$core..iter..sources..once..Once$LT$T$GT$$u20$as$u20$core..iter..traits..iterator..Iterator$GT$4next17hb46bb58181e80524E
.Ltmp228:
	jmp	.LBB31_7
.Ltmp246:
.LBB31_7:
	movb	40(%rbp), %al
	addb	$-7, %al
	setne	%al
	movzbl	%al, %eax
	je	.LBB31_9
	jmp	.LBB31_15
.Ltmp247:
.LBB31_15:
	jmp	.LBB31_10
.Ltmp248:
	ud2
.Ltmp249:
.LBB31_9:
	.cv_loc	34 9 222 0
	leaq	-16(%rbp), %rcx
	callq	_ZN4core3ptr82drop_in_place$LT$core..iter..sources..once..Once$LT$proc_macro2..TokenTree$GT$$GT$17h302fd33d587dcbfeE
	jmp	.LBB31_4
.Ltmp250:
.LBB31_10:
	.cv_loc	34 9 222 0
	vmovups	16(%rbp), %ymm0
	vmovups	%ymm0, 48(%rbp)
.Ltmp251:
	.cv_loc	34 9 223 0
	vmovups	48(%rbp), %ymm0
	vmovups	%ymm0, 112(%rbp)
.Ltmp229:
	leaq	88(%rbp), %rcx
	leaq	112(%rbp), %rdx
	vzeroupper
	callq	_ZN11proc_macro23imp19into_compiler_token17h78ec7eb8264295baE
.Ltmp230:
	jmp	.LBB31_12
.Ltmp252:
.LBB31_12:
.Ltmp231:
	movq	-88(%rbp), %rcx
	leaq	88(%rbp), %rdx
	callq	_ZN5alloc3vec16Vec$LT$T$C$A$GT$4push17h6fbc54d706f89dd6E
.Ltmp232:
	jmp	.LBB31_13
.Ltmp253:
.LBB31_13:
	.cv_loc	34 9 222 0
	jmp	.LBB31_5
.Ltmp254:
	.seh_handlerdata
	.long	($cppxdata$_ZN115_$LT$proc_macro2..imp..TokenStream$u20$as$u20$core..iter..traits..collect..Extend$LT$proc_macro2..TokenTree$GT$$GT$6extend17h9b72f6bd0c76e0e6E)@IMGREL
	.section	.text,"xr",one_only,_ZN115_$LT$proc_macro2..imp..TokenStream$u20$as$u20$core..iter..traits..collect..Extend$LT$proc_macro2..TokenTree$GT$$GT$6extend17h9b72f6bd0c76e0e6E
	.seh_endproc
	.def	"?dtor$6@?0?_ZN115_$LT$proc_macro2..imp..TokenStream$u20$as$u20$core..iter..traits..collect..Extend$LT$proc_macro2..TokenTree$GT$$GT$6extend17h9b72f6bd0c76e0e6E@4HA";
	.scl	3;
	.type	32;
	.endef
	.p2align	4, 0x90
"?dtor$6@?0?_ZN115_$LT$proc_macro2..imp..TokenStream$u20$as$u20$core..iter..traits..collect..Extend$LT$proc_macro2..TokenTree$GT$$GT$6extend17h9b72f6bd0c76e0e6E@4HA":
.seh_proc "?dtor$6@?0?_ZN115_$LT$proc_macro2..imp..TokenStream$u20$as$u20$core..iter..traits..collect..Extend$LT$proc_macro2..TokenTree$GT$$GT$6extend17h9b72f6bd0c76e0e6E@4HA"
.LBB31_6:
	movq	%rdx, 16(%rsp)
	pushq	%rbp
	.seh_pushreg %rbp
	subq	$32, %rsp
	.seh_stackalloc 32
	leaq	128(%rdx), %rbp
	.seh_endprologue
	leaq	-16(%rbp), %rcx
	.cv_loc	34 9 222 0
	callq	_ZN4core3ptr82drop_in_place$LT$core..iter..sources..once..Once$LT$proc_macro2..TokenTree$GT$$GT$17h302fd33d587dcbfeE
.Ltmp255:
	.cv_loc	34 9 218 0
	nop
	addq	$32, %rsp
	popq	%rbp
	retq
	.seh_handlerdata
	.section	.text,"xr",one_only,_ZN115_$LT$proc_macro2..imp..TokenStream$u20$as$u20$core..iter..traits..collect..Extend$LT$proc_macro2..TokenTree$GT$$GT$6extend17h9b72f6bd0c76e0e6E
	.seh_endproc
	.def	"?dtor$11@?0?_ZN115_$LT$proc_macro2..imp..TokenStream$u20$as$u20$core..iter..traits..collect..Extend$LT$proc_macro2..TokenTree$GT$$GT$6extend17h9b72f6bd0c76e0e6E@4HA";
	.scl	3;
	.type	32;
	.endef
	.p2align	4, 0x90
"?dtor$11@?0?_ZN115_$LT$proc_macro2..imp..TokenStream$u20$as$u20$core..iter..traits..collect..Extend$LT$proc_macro2..TokenTree$GT$$GT$6extend17h9b72f6bd0c76e0e6E@4HA":
.seh_proc "?dtor$11@?0?_ZN115_$LT$proc_macro2..imp..TokenStream$u20$as$u20$core..iter..traits..collect..Extend$LT$proc_macro2..TokenTree$GT$$GT$6extend17h9b72f6bd0c76e0e6E@4HA"
.LBB31_11:
.Ltmp256:
	movq	%rdx, 16(%rsp)
	pushq	%rbp
	.seh_pushreg %rbp
	subq	$32, %rsp
	.seh_stackalloc 32
	leaq	128(%rdx), %rbp
.Ltmp257:
	.seh_endprologue
.Ltmp258:
	.cv_loc	34 9 222 0
	addq	$32, %rsp
	popq	%rbp
	retq
.Ltmp259:
.Lfunc_end31:
	.seh_handlerdata
	.section	.text,"xr",one_only,_ZN115_$LT$proc_macro2..imp..TokenStream$u20$as$u20$core..iter..traits..collect..Extend$LT$proc_macro2..TokenTree$GT$$GT$6extend17h9b72f6bd0c76e0e6E
	.seh_endproc
	.section	.xdata,"dr",associative,_ZN115_$LT$proc_macro2..imp..TokenStream$u20$as$u20$core..iter..traits..collect..Extend$LT$proc_macro2..TokenTree$GT$$GT$6extend17h9b72f6bd0c76e0e6E
	.p2align	2
$cppxdata$_ZN115_$LT$proc_macro2..imp..TokenStream$u20$as$u20$core..iter..traits..collect..Extend$LT$proc_macro2..TokenTree$GT$$GT$6extend17h9b72f6bd0c76e0e6E:
	.long	429065506
	.long	2
	.long	($stateUnwindMap$_ZN115_$LT$proc_macro2..imp..TokenStream$u20$as$u20$core..iter..traits..collect..Extend$LT$proc_macro2..TokenTree$GT$$GT$6extend17h9b72f6bd0c76e0e6E)@IMGREL
	.long	0
	.long	0
	.long	5
	.long	($ip2state$_ZN115_$LT$proc_macro2..imp..TokenStream$u20$as$u20$core..iter..traits..collect..Extend$LT$proc_macro2..TokenTree$GT$$GT$6extend17h9b72f6bd0c76e0e6E)@IMGREL
	.long	328
	.long	0
	.long	1
$stateUnwindMap$_ZN115_$LT$proc_macro2..imp..TokenStream$u20$as$u20$core..iter..traits..collect..Extend$LT$proc_macro2..TokenTree$GT$$GT$6extend17h9b72f6bd0c76e0e6E:
	.long	-1
	.long	"?dtor$6@?0?_ZN115_$LT$proc_macro2..imp..TokenStream$u20$as$u20$core..iter..traits..collect..Extend$LT$proc_macro2..TokenTree$GT$$GT$6extend17h9b72f6bd0c76e0e6E@4HA"@IMGREL
	.long	0
	.long	"?dtor$11@?0?_ZN115_$LT$proc_macro2..imp..TokenStream$u20$as$u20$core..iter..traits..collect..Extend$LT$proc_macro2..TokenTree$GT$$GT$6extend17h9b72f6bd0c76e0e6E@4HA"@IMGREL
$ip2state$_ZN115_$LT$proc_macro2..imp..TokenStream$u20$as$u20$core..iter..traits..collect..Extend$LT$proc_macro2..TokenTree$GT$$GT$6extend17h9b72f6bd0c76e0e6E:
	.long	.Lfunc_begin31@IMGREL
	.long	-1
	.long	.Ltmp227@IMGREL+1
	.long	0
	.long	.Ltmp228@IMGREL+1
	.long	-1
	.long	.Ltmp229@IMGREL+1
	.long	1
	.long	.Ltmp232@IMGREL+1
	.long	-1
	.section	.text,"xr",one_only,_ZN115_$LT$proc_macro2..imp..TokenStream$u20$as$u20$core..iter..traits..collect..Extend$LT$proc_macro2..TokenTree$GT$$GT$6extend17h9b72f6bd0c76e0e6E

	.def	_ZN115_$LT$proc_macro2..imp..TokenStream$u20$as$u20$core..iter..traits..collect..Extend$LT$proc_macro2..TokenTree$GT$$GT$6extend17hc4e9028985620e03E;
	.scl	2;
	.type	32;
	.endef
	.section	.text,"xr",one_only,_ZN115_$LT$proc_macro2..imp..TokenStream$u20$as$u20$core..iter..traits..collect..Extend$LT$proc_macro2..TokenTree$GT$$GT$6extend17hc4e9028985620e03E
	.globl	_ZN115_$LT$proc_macro2..imp..TokenStream$u20$as$u20$core..iter..traits..collect..Extend$LT$proc_macro2..TokenTree$GT$$GT$6extend17hc4e9028985620e03E
	.p2align	4, 0x90
_ZN115_$LT$proc_macro2..imp..TokenStream$u20$as$u20$core..iter..traits..collect..Extend$LT$proc_macro2..TokenTree$GT$$GT$6extend17hc4e9028985620e03E:
.Lfunc_begin32:
	.cv_func_id 35
	.cv_loc	35 9 218 0
.seh_proc _ZN115_$LT$proc_macro2..imp..TokenStream$u20$as$u20$core..iter..traits..collect..Extend$LT$proc_macro2..TokenTree$GT$$GT$6extend17hc4e9028985620e03E
	.seh_handler __CxxFrameHandler3, @unwind, @except
	pushq	%rbp
	.seh_pushreg %rbp
	subq	$320, %rsp
	.seh_stackalloc 320
	leaq	128(%rsp), %rbp
	.seh_setframe %rbp, 128
	.seh_endprologue
	movq	$-2, 184(%rbp)
	movq	%rdx, -88(%rbp)
.Ltmp266:
	movq	%rcx, -80(%rbp)
	movq	%rcx, 160(%rbp)
.Ltmp267:
	.cv_loc	35 9 219 0
	movq	(%rcx), %rax
	testq	%rax, %rax
	sete	%al
	movzbl	%al, %eax
.Ltmp268:
	jne	.LBB32_2
	jmp	.LBB32_14
.Ltmp269:
.LBB32_14:
	jmp	.LBB32_3
.Ltmp270:
	ud2
.LBB32_2:
.Ltmp271:
	.cv_loc	35 9 220 0
	movq	-88(%rbp), %rax
	movq	-80(%rbp), %rcx
	movq	%rcx, 176(%rbp)
.Ltmp272:
	.cv_loc	35 9 222 0
	movq	(%rax), %rcx
	movq	%rcx, -48(%rbp)
	movq	8(%rax), %rcx
	movq	%rcx, -40(%rbp)
	movq	16(%rax), %rax
	movq	%rax, -32(%rbp)
	leaq	-72(%rbp), %rcx
	leaq	-48(%rbp), %rdx
	callq	_ZN63_$LT$I$u20$as$u20$core..iter..traits..collect..IntoIterator$GT$9into_iter17h54fb3fc4a89e9b72E
	movq	-72(%rbp), %rax
	movq	%rax, -24(%rbp)
	movq	-64(%rbp), %rax
	movq	%rax, -16(%rbp)
	movq	-56(%rbp), %rax
	movq	%rax, -8(%rbp)
.Ltmp273:
	.cv_loc	35 9 222 0
	jmp	.LBB32_5
.Ltmp274:
.LBB32_3:
	.cv_loc	35 9 226 0
	movq	-88(%rbp), %rax
	movq	-80(%rbp), %rcx
	addq	$8, %rcx
	movq	%rcx, 168(%rbp)
.Ltmp275:
	.cv_loc	35 9 226 0
	movq	(%rax), %rdx
	movq	%rdx, 136(%rbp)
	movq	8(%rax), %rdx
	movq	%rdx, 144(%rbp)
	movq	16(%rax), %rax
	movq	%rax, 152(%rbp)
	leaq	136(%rbp), %rdx
	callq	_ZN120_$LT$proc_macro2..fallback..TokenStream$u20$as$u20$core..iter..traits..collect..Extend$LT$proc_macro2..TokenTree$GT$$GT$6extend17hf1656c22e544feb4E
.Ltmp276:
.LBB32_4:
	.cv_loc	35 9 228 0
	nop
	addq	$320, %rsp
	popq	%rbp
	retq
.Ltmp277:
.LBB32_5:
	.cv_loc	35 9 222 0
.Ltmp260:
	movq	%rbp, %rcx
	leaq	-24(%rbp), %rdx
.Ltmp278:
	callq	_ZN100_$LT$quote..__private..push_lifetime..Lifetime$u20$as$u20$core..iter..traits..iterator..Iterator$GT$4next17h2eb4e3ae482eafbbE
.Ltmp261:
	jmp	.LBB32_7
.Ltmp279:
.LBB32_7:
	movb	24(%rbp), %al
	addb	$-7, %al
	setne	%al
	movzbl	%al, %eax
	je	.LBB32_9
	jmp	.LBB32_15
.Ltmp280:
.LBB32_15:
	jmp	.LBB32_10
.Ltmp281:
	ud2
.Ltmp282:
.LBB32_9:
	.cv_loc	35 9 222 0
	jmp	.LBB32_4
.Ltmp283:
.LBB32_10:
	.cv_loc	35 9 222 0
	vmovups	(%rbp), %ymm0
	vmovups	%ymm0, 32(%rbp)
.Ltmp284:
	.cv_loc	35 9 223 0
	vmovups	32(%rbp), %ymm0
	vmovups	%ymm0, 96(%rbp)
.Ltmp262:
	leaq	72(%rbp), %rcx
	leaq	96(%rbp), %rdx
	vzeroupper
	callq	_ZN11proc_macro23imp19into_compiler_token17h78ec7eb8264295baE
.Ltmp263:
	jmp	.LBB32_12
.Ltmp285:
.LBB32_12:
.Ltmp264:
	movq	-80(%rbp), %rcx
	leaq	72(%rbp), %rdx
	callq	_ZN5alloc3vec16Vec$LT$T$C$A$GT$4push17h6fbc54d706f89dd6E
.Ltmp265:
	jmp	.LBB32_13
.Ltmp286:
.LBB32_13:
	.cv_loc	35 9 222 0
	jmp	.LBB32_5
.Ltmp287:
	.seh_handlerdata
	.long	($cppxdata$_ZN115_$LT$proc_macro2..imp..TokenStream$u20$as$u20$core..iter..traits..collect..Extend$LT$proc_macro2..TokenTree$GT$$GT$6extend17hc4e9028985620e03E)@IMGREL
	.section	.text,"xr",one_only,_ZN115_$LT$proc_macro2..imp..TokenStream$u20$as$u20$core..iter..traits..collect..Extend$LT$proc_macro2..TokenTree$GT$$GT$6extend17hc4e9028985620e03E
	.seh_endproc
	.def	"?dtor$6@?0?_ZN115_$LT$proc_macro2..imp..TokenStream$u20$as$u20$core..iter..traits..collect..Extend$LT$proc_macro2..TokenTree$GT$$GT$6extend17hc4e9028985620e03E@4HA";
	.scl	3;
	.type	32;
	.endef
	.p2align	4, 0x90
"?dtor$6@?0?_ZN115_$LT$proc_macro2..imp..TokenStream$u20$as$u20$core..iter..traits..collect..Extend$LT$proc_macro2..TokenTree$GT$$GT$6extend17hc4e9028985620e03E@4HA":
.seh_proc "?dtor$6@?0?_ZN115_$LT$proc_macro2..imp..TokenStream$u20$as$u20$core..iter..traits..collect..Extend$LT$proc_macro2..TokenTree$GT$$GT$6extend17hc4e9028985620e03E@4HA"
.LBB32_6:
	movq	%rdx, 16(%rsp)
	pushq	%rbp
	.seh_pushreg %rbp
	subq	$32, %rsp
	.seh_stackalloc 32
	leaq	128(%rdx), %rbp
	.seh_endprologue
	.cv_loc	35 9 218 0
	addq	$32, %rsp
	popq	%rbp
	retq
	.seh_handlerdata
	.section	.text,"xr",one_only,_ZN115_$LT$proc_macro2..imp..TokenStream$u20$as$u20$core..iter..traits..collect..Extend$LT$proc_macro2..TokenTree$GT$$GT$6extend17hc4e9028985620e03E
	.seh_endproc
	.def	"?dtor$11@?0?_ZN115_$LT$proc_macro2..imp..TokenStream$u20$as$u20$core..iter..traits..collect..Extend$LT$proc_macro2..TokenTree$GT$$GT$6extend17hc4e9028985620e03E@4HA";
	.scl	3;
	.type	32;
	.endef
	.p2align	4, 0x90
"?dtor$11@?0?_ZN115_$LT$proc_macro2..imp..TokenStream$u20$as$u20$core..iter..traits..collect..Extend$LT$proc_macro2..TokenTree$GT$$GT$6extend17hc4e9028985620e03E@4HA":
.seh_proc "?dtor$11@?0?_ZN115_$LT$proc_macro2..imp..TokenStream$u20$as$u20$core..iter..traits..collect..Extend$LT$proc_macro2..TokenTree$GT$$GT$6extend17hc4e9028985620e03E@4HA"
.LBB32_11:
.Ltmp288:
	movq	%rdx, 16(%rsp)
	pushq	%rbp
	.seh_pushreg %rbp
	subq	$32, %rsp
	.seh_stackalloc 32
	leaq	128(%rdx), %rbp
.Ltmp289:
	.seh_endprologue
.Ltmp290:
	.cv_loc	35 9 222 0
	addq	$32, %rsp
	popq	%rbp
	retq
.Ltmp291:
.Lfunc_end32:
	.seh_handlerdata
	.section	.text,"xr",one_only,_ZN115_$LT$proc_macro2..imp..TokenStream$u20$as$u20$core..iter..traits..collect..Extend$LT$proc_macro2..TokenTree$GT$$GT$6extend17hc4e9028985620e03E
	.seh_endproc
	.section	.xdata,"dr",associative,_ZN115_$LT$proc_macro2..imp..TokenStream$u20$as$u20$core..iter..traits..collect..Extend$LT$proc_macro2..TokenTree$GT$$GT$6extend17hc4e9028985620e03E
	.p2align	2
$cppxdata$_ZN115_$LT$proc_macro2..imp..TokenStream$u20$as$u20$core..iter..traits..collect..Extend$LT$proc_macro2..TokenTree$GT$$GT$6extend17hc4e9028985620e03E:
	.long	429065506
	.long	2
	.long	($stateUnwindMap$_ZN115_$LT$proc_macro2..imp..TokenStream$u20$as$u20$core..iter..traits..collect..Extend$LT$proc_macro2..TokenTree$GT$$GT$6extend17hc4e9028985620e03E)@IMGREL
	.long	0
	.long	0
	.long	4
	.long	($ip2state$_ZN115_$LT$proc_macro2..imp..TokenStream$u20$as$u20$core..iter..traits..collect..Extend$LT$proc_macro2..TokenTree$GT$$GT$6extend17hc4e9028985620e03E)@IMGREL
	.long	312
	.long	0
	.long	1
$stateUnwindMap$_ZN115_$LT$proc_macro2..imp..TokenStream$u20$as$u20$core..iter..traits..collect..Extend$LT$proc_macro2..TokenTree$GT$$GT$6extend17hc4e9028985620e03E:
	.long	-1
	.long	"?dtor$6@?0?_ZN115_$LT$proc_macro2..imp..TokenStream$u20$as$u20$core..iter..traits..collect..Extend$LT$proc_macro2..TokenTree$GT$$GT$6extend17hc4e9028985620e03E@4HA"@IMGREL
	.long	0
	.long	"?dtor$11@?0?_ZN115_$LT$proc_macro2..imp..TokenStream$u20$as$u20$core..iter..traits..collect..Extend$LT$proc_macro2..TokenTree$GT$$GT$6extend17hc4e9028985620e03E@4HA"@IMGREL
$ip2state$_ZN115_$LT$proc_macro2..imp..TokenStream$u20$as$u20$core..iter..traits..collect..Extend$LT$proc_macro2..TokenTree$GT$$GT$6extend17hc4e9028985620e03E:
	.long	.Lfunc_begin32@IMGREL
	.long	-1
	.long	.Ltmp260@IMGREL+1
	.long	0
	.long	.Ltmp262@IMGREL+1
	.long	1
	.long	.Ltmp265@IMGREL+1
	.long	-1
	.section	.text,"xr",one_only,_ZN115_$LT$proc_macro2..imp..TokenStream$u20$as$u20$core..iter..traits..collect..Extend$LT$proc_macro2..TokenTree$GT$$GT$6extend17hc4e9028985620e03E

	.def	_ZN115_$LT$proc_macro2..imp..TokenStream$u20$as$u20$core..iter..traits..collect..Extend$LT$proc_macro2..TokenTree$GT$$GT$6extend17hd956da9c57397372E;
	.scl	2;
	.type	32;
	.endef
	.section	.text,"xr",one_only,_ZN115_$LT$proc_macro2..imp..TokenStream$u20$as$u20$core..iter..traits..collect..Extend$LT$proc_macro2..TokenTree$GT$$GT$6extend17hd956da9c57397372E
	.globl	_ZN115_$LT$proc_macro2..imp..TokenStream$u20$as$u20$core..iter..traits..collect..Extend$LT$proc_macro2..TokenTree$GT$$GT$6extend17hd956da9c57397372E
	.p2align	4, 0x90
_ZN115_$LT$proc_macro2..imp..TokenStream$u20$as$u20$core..iter..traits..collect..Extend$LT$proc_macro2..TokenTree$GT$$GT$6extend17hd956da9c57397372E:
.Lfunc_begin33:
	.cv_func_id 36
	.cv_loc	36 9 218 0
.seh_proc _ZN115_$LT$proc_macro2..imp..TokenStream$u20$as$u20$core..iter..traits..collect..Extend$LT$proc_macro2..TokenTree$GT$$GT$6extend17hd956da9c57397372E
	.seh_handler __CxxFrameHandler3, @unwind, @except
	pushq	%rbp
	.seh_pushreg %rbp
	subq	$320, %rsp
	.seh_stackalloc 320
	leaq	128(%rsp), %rbp
	.seh_setframe %rbp, 128
	.seh_endprologue
	movq	$-2, 184(%rbp)
	movq	%rdx, -88(%rbp)
.Ltmp298:
	movq	%rcx, -80(%rbp)
	movq	%rcx, 160(%rbp)
.Ltmp299:
	.cv_loc	36 9 219 0
	movq	(%rcx), %rax
	testq	%rax, %rax
	sete	%al
	movzbl	%al, %eax
.Ltmp300:
	jne	.LBB33_2
	jmp	.LBB33_14
.Ltmp301:
.LBB33_14:
	jmp	.LBB33_3
.Ltmp302:
	ud2
.LBB33_2:
.Ltmp303:
	.cv_loc	36 9 220 0
	movq	-88(%rbp), %rax
	movq	-80(%rbp), %rcx
	movq	%rcx, 176(%rbp)
.Ltmp304:
	.cv_loc	36 9 222 0
	movq	(%rax), %rcx
	movq	%rcx, -48(%rbp)
	movq	8(%rax), %rcx
	movq	%rcx, -40(%rbp)
	movq	16(%rax), %rax
	movq	%rax, -32(%rbp)
	leaq	-72(%rbp), %rcx
	leaq	-48(%rbp), %rdx
	callq	_ZN63_$LT$I$u20$as$u20$core..iter..traits..collect..IntoIterator$GT$9into_iter17h23fa889c8a75b074E
	movq	-72(%rbp), %rax
	movq	%rax, -24(%rbp)
	movq	-64(%rbp), %rax
	movq	%rax, -16(%rbp)
	movq	-56(%rbp), %rax
	movq	%rax, -8(%rbp)
.Ltmp305:
	.cv_loc	36 9 222 0
	jmp	.LBB33_5
.Ltmp306:
.LBB33_3:
	.cv_loc	36 9 226 0
	movq	-88(%rbp), %rax
	movq	-80(%rbp), %rcx
	addq	$8, %rcx
	movq	%rcx, 168(%rbp)
.Ltmp307:
	.cv_loc	36 9 226 0
	movq	(%rax), %rdx
	movq	%rdx, 136(%rbp)
	movq	8(%rax), %rdx
	movq	%rdx, 144(%rbp)
	movq	16(%rax), %rax
	movq	%rax, 152(%rbp)
	leaq	136(%rbp), %rdx
	callq	_ZN120_$LT$proc_macro2..fallback..TokenStream$u20$as$u20$core..iter..traits..collect..Extend$LT$proc_macro2..TokenTree$GT$$GT$6extend17h63790affa4301d06E
.Ltmp308:
.LBB33_4:
	.cv_loc	36 9 228 0
	nop
	addq	$320, %rsp
	popq	%rbp
	retq
.Ltmp309:
.LBB33_5:
	.cv_loc	36 9 222 0
.Ltmp292:
	movq	%rbp, %rcx
	leaq	-24(%rbp), %rdx
.Ltmp310:
	callq	_ZN108_$LT$quote..__private..push_lifetime_spanned..Lifetime$u20$as$u20$core..iter..traits..iterator..Iterator$GT$4next17he54c0de964637e67E
.Ltmp293:
	jmp	.LBB33_7
.Ltmp311:
.LBB33_7:
	movb	24(%rbp), %al
	addb	$-7, %al
	setne	%al
	movzbl	%al, %eax
	je	.LBB33_9
	jmp	.LBB33_15
.Ltmp312:
.LBB33_15:
	jmp	.LBB33_10
.Ltmp313:
	ud2
.Ltmp314:
.LBB33_9:
	.cv_loc	36 9 222 0
	jmp	.LBB33_4
.Ltmp315:
.LBB33_10:
	.cv_loc	36 9 222 0
	vmovups	(%rbp), %ymm0
	vmovups	%ymm0, 32(%rbp)
.Ltmp316:
	.cv_loc	36 9 223 0
	vmovups	32(%rbp), %ymm0
	vmovups	%ymm0, 96(%rbp)
.Ltmp294:
	leaq	72(%rbp), %rcx
	leaq	96(%rbp), %rdx
	vzeroupper
	callq	_ZN11proc_macro23imp19into_compiler_token17h78ec7eb8264295baE
.Ltmp295:
	jmp	.LBB33_12
.Ltmp317:
.LBB33_12:
.Ltmp296:
	movq	-80(%rbp), %rcx
	leaq	72(%rbp), %rdx
	callq	_ZN5alloc3vec16Vec$LT$T$C$A$GT$4push17h6fbc54d706f89dd6E
.Ltmp297:
	jmp	.LBB33_13
.Ltmp318:
.LBB33_13:
	.cv_loc	36 9 222 0
	jmp	.LBB33_5
.Ltmp319:
	.seh_handlerdata
	.long	($cppxdata$_ZN115_$LT$proc_macro2..imp..TokenStream$u20$as$u20$core..iter..traits..collect..Extend$LT$proc_macro2..TokenTree$GT$$GT$6extend17hd956da9c57397372E)@IMGREL
	.section	.text,"xr",one_only,_ZN115_$LT$proc_macro2..imp..TokenStream$u20$as$u20$core..iter..traits..collect..Extend$LT$proc_macro2..TokenTree$GT$$GT$6extend17hd956da9c57397372E
	.seh_endproc
	.def	"?dtor$6@?0?_ZN115_$LT$proc_macro2..imp..TokenStream$u20$as$u20$core..iter..traits..collect..Extend$LT$proc_macro2..TokenTree$GT$$GT$6extend17hd956da9c57397372E@4HA";
	.scl	3;
	.type	32;
	.endef
	.p2align	4, 0x90
"?dtor$6@?0?_ZN115_$LT$proc_macro2..imp..TokenStream$u20$as$u20$core..iter..traits..collect..Extend$LT$proc_macro2..TokenTree$GT$$GT$6extend17hd956da9c57397372E@4HA":
.seh_proc "?dtor$6@?0?_ZN115_$LT$proc_macro2..imp..TokenStream$u20$as$u20$core..iter..traits..collect..Extend$LT$proc_macro2..TokenTree$GT$$GT$6extend17hd956da9c57397372E@4HA"
.LBB33_6:
	movq	%rdx, 16(%rsp)
	pushq	%rbp
	.seh_pushreg %rbp
	subq	$32, %rsp
	.seh_stackalloc 32
	leaq	128(%rdx), %rbp
	.seh_endprologue
	.cv_loc	36 9 218 0
	addq	$32, %rsp
	popq	%rbp
	retq
	.seh_handlerdata
	.section	.text,"xr",one_only,_ZN115_$LT$proc_macro2..imp..TokenStream$u20$as$u20$core..iter..traits..collect..Extend$LT$proc_macro2..TokenTree$GT$$GT$6extend17hd956da9c57397372E
	.seh_endproc
	.def	"?dtor$11@?0?_ZN115_$LT$proc_macro2..imp..TokenStream$u20$as$u20$core..iter..traits..collect..Extend$LT$proc_macro2..TokenTree$GT$$GT$6extend17hd956da9c57397372E@4HA";
	.scl	3;
	.type	32;
	.endef
	.p2align	4, 0x90
"?dtor$11@?0?_ZN115_$LT$proc_macro2..imp..TokenStream$u20$as$u20$core..iter..traits..collect..Extend$LT$proc_macro2..TokenTree$GT$$GT$6extend17hd956da9c57397372E@4HA":
.seh_proc "?dtor$11@?0?_ZN115_$LT$proc_macro2..imp..TokenStream$u20$as$u20$core..iter..traits..collect..Extend$LT$proc_macro2..TokenTree$GT$$GT$6extend17hd956da9c57397372E@4HA"
.LBB33_11:
.Ltmp320:
	movq	%rdx, 16(%rsp)
	pushq	%rbp
	.seh_pushreg %rbp
	subq	$32, %rsp
	.seh_stackalloc 32
	leaq	128(%rdx), %rbp
.Ltmp321:
	.seh_endprologue
.Ltmp322:
	.cv_loc	36 9 222 0
	addq	$32, %rsp
	popq	%rbp
	retq
.Ltmp323:
.Lfunc_end33:
	.seh_handlerdata
	.section	.text,"xr",one_only,_ZN115_$LT$proc_macro2..imp..TokenStream$u20$as$u20$core..iter..traits..collect..Extend$LT$proc_macro2..TokenTree$GT$$GT$6extend17hd956da9c57397372E
	.seh_endproc
	.section	.xdata,"dr",associative,_ZN115_$LT$proc_macro2..imp..TokenStream$u20$as$u20$core..iter..traits..collect..Extend$LT$proc_macro2..TokenTree$GT$$GT$6extend17hd956da9c57397372E
	.p2align	2
$cppxdata$_ZN115_$LT$proc_macro2..imp..TokenStream$u20$as$u20$core..iter..traits..collect..Extend$LT$proc_macro2..TokenTree$GT$$GT$6extend17hd956da9c57397372E:
	.long	429065506
	.long	2
	.long	($stateUnwindMap$_ZN115_$LT$proc_macro2..imp..TokenStream$u20$as$u20$core..iter..traits..collect..Extend$LT$proc_macro2..TokenTree$GT$$GT$6extend17hd956da9c57397372E)@IMGREL
	.long	0
	.long	0
	.long	4
	.long	($ip2state$_ZN115_$LT$proc_macro2..imp..TokenStream$u20$as$u20$core..iter..traits..collect..Extend$LT$proc_macro2..TokenTree$GT$$GT$6extend17hd956da9c57397372E)@IMGREL
	.long	312
	.long	0
	.long	1
$stateUnwindMap$_ZN115_$LT$proc_macro2..imp..TokenStream$u20$as$u20$core..iter..traits..collect..Extend$LT$proc_macro2..TokenTree$GT$$GT$6extend17hd956da9c57397372E:
	.long	-1
	.long	"?dtor$6@?0?_ZN115_$LT$proc_macro2..imp..TokenStream$u20$as$u20$core..iter..traits..collect..Extend$LT$proc_macro2..TokenTree$GT$$GT$6extend17hd956da9c57397372E@4HA"@IMGREL
	.long	0
	.long	"?dtor$11@?0?_ZN115_$LT$proc_macro2..imp..TokenStream$u20$as$u20$core..iter..traits..collect..Extend$LT$proc_macro2..TokenTree$GT$$GT$6extend17hd956da9c57397372E@4HA"@IMGREL
$ip2state$_ZN115_$LT$proc_macro2..imp..TokenStream$u20$as$u20$core..iter..traits..collect..Extend$LT$proc_macro2..TokenTree$GT$$GT$6extend17hd956da9c57397372E:
	.long	.Lfunc_begin33@IMGREL
	.long	-1
	.long	.Ltmp292@IMGREL+1
	.long	0
	.long	.Ltmp294@IMGREL+1
	.long	1
	.long	.Ltmp297@IMGREL+1
	.long	-1
	.section	.text,"xr",one_only,_ZN115_$LT$proc_macro2..imp..TokenStream$u20$as$u20$core..iter..traits..collect..Extend$LT$proc_macro2..TokenTree$GT$$GT$6extend17hd956da9c57397372E

	.def	_ZN116_$LT$core..iter..adapters..flatten..FlattenCompat$LT$I$C$U$GT$$u20$as$u20$core..iter..traits..iterator..Iterator$GT$4next17h98d21f53324dbbb1E;
	.scl	2;
	.type	32;
	.endef
	.section	.text,"xr",one_only,_ZN116_$LT$core..iter..adapters..flatten..FlattenCompat$LT$I$C$U$GT$$u20$as$u20$core..iter..traits..iterator..Iterator$GT$4next17h98d21f53324dbbb1E
	.globl	_ZN116_$LT$core..iter..adapters..flatten..FlattenCompat$LT$I$C$U$GT$$u20$as$u20$core..iter..traits..iterator..Iterator$GT$4next17h98d21f53324dbbb1E
	.p2align	4, 0x90
_ZN116_$LT$core..iter..adapters..flatten..FlattenCompat$LT$I$C$U$GT$$u20$as$u20$core..iter..traits..iterator..Iterator$GT$4next17h98d21f53324dbbb1E:
.Lfunc_begin34:
	.cv_func_id 37
	.cv_loc	37 4 469 0
.seh_proc _ZN116_$LT$core..iter..adapters..flatten..FlattenCompat$LT$I$C$U$GT$$u20$as$u20$core..iter..traits..iterator..Iterator$GT$4next17h98d21f53324dbbb1E
	.seh_handler __CxxFrameHandler3, @unwind, @except
	pushq	%rbp
	.seh_pushreg %rbp
	subq	$224, %rsp
	.seh_stackalloc 224
	leaq	128(%rsp), %rbp
	.seh_setframe %rbp, 128
	.seh_endprologue
	movq	$-2, 88(%rbp)
	movq	%rdx, -96(%rbp)
	movq	%rcx, -88(%rbp)
	movq	%rcx, -80(%rbp)
	movq	%rdx, 64(%rbp)
.LBB34_1:
	.cv_loc	37 4 471 0
	movq	-96(%rbp), %rdx
.Ltmp326:
	addq	$40, %rdx
	leaq	-72(%rbp), %rcx
	callq	_ZN4core4iter8adapters7flatten17and_then_or_clear17h2edbeb27a4e953e6E
	movb	-48(%rbp), %dl
	subb	$7, %dl
	movl	$1, %eax
	xorl	%ecx, %ecx
	cmpb	$0, %dl
	cmoveq	%rcx, %rax
	cmpq	$1, %rax
	jne	.LBB34_3
	movq	-88(%rbp), %rax
	movq	-72(%rbp), %rcx
	movq	%rcx, -40(%rbp)
	movq	-64(%rbp), %rcx
	movq	%rcx, -32(%rbp)
	movq	-56(%rbp), %rcx
	movq	%rcx, -24(%rbp)
	movq	-48(%rbp), %rcx
	movq	%rcx, -16(%rbp)
	.cv_loc	37 4 472 0
	movq	-40(%rbp), %rcx
	movq	%rcx, (%rax)
	movq	-32(%rbp), %rcx
	movq	%rcx, 8(%rax)
	movq	-24(%rbp), %rcx
	movq	%rcx, 16(%rax)
	movq	-16(%rbp), %rcx
	movq	%rcx, 24(%rax)
.Ltmp327:
	.cv_file	10 "C:\\Users\\cires\\.cargo\\registry\\src\\github.com-1ecc6299db9ec823\\quote-1.0.33\\src\\lib.rs" "BCB0282B14B9B4C14A04F0B12D8D42A11FA3A65B" 2
	.cv_loc	37 10 1 0
	jmp	.LBB34_9
.LBB34_3:
	.cv_loc	37 4 473 0
	leaq	-72(%rbp), %rcx
	callq	_ZN4core3ptr71drop_in_place$LT$core..option..Option$LT$proc_macro2..TokenTree$GT$$GT$17h5b58368d7f8ffcecE
	movq	-96(%rbp), %rcx
	.cv_loc	37 4 474 0
	movq	%rcx, 72(%rbp)
.Ltmp328:
	.cv_inline_site_id 38 within 37 inlined_at 4 474 0
	.cv_loc	38 5 43 0
	callq	_ZN107_$LT$core..iter..adapters..fuse..Fuse$LT$I$GT$$u20$as$u20$core..iter..adapters..fuse..FuseImpl$LT$I$GT$$GT$4next17h50e0d12c832845a8E
	movq	%rax, -8(%rbp)
.Ltmp329:
	.cv_loc	37 4 474 0
	movq	-8(%rbp), %rax
	testq	%rax, %rax
	setne	%al
	movzbl	%al, %eax
	je	.LBB34_5
	jmp	.LBB34_10
.LBB34_10:
	jmp	.LBB34_6
	ud2
.LBB34_5:
	.cv_loc	37 4 475 0
	movq	-88(%rbp), %rcx
	movq	-96(%rbp), %rdx
	addq	$72, %rdx
	callq	_ZN4core4iter8adapters7flatten17and_then_or_clear17h2edbeb27a4e953e6E
	.cv_loc	37 10 1 0
	jmp	.LBB34_9
.LBB34_6:
	.cv_loc	37 4 476 0
	movq	-8(%rbp), %rdx
	movq	%rdx, 80(%rbp)
	leaq	32(%rbp), %rcx
.Ltmp330:
	.cv_loc	37 4 476 0
	callq	_ZN96_$LT$proc_macro2..fallback..TokenStream$u20$as$u20$core..iter..traits..collect..IntoIterator$GT$9into_iter17h99320124767a2deeE
	movq	-96(%rbp), %rcx
	vmovups	32(%rbp), %ymm0
	vmovups	%ymm0, (%rbp)
	addq	$40, %rcx
.Ltmp324:
	vzeroupper
	callq	_ZN4core3ptr112drop_in_place$LT$core..option..Option$LT$proc_macro2..rcvec..RcVecIntoIter$LT$proc_macro2..TokenTree$GT$$GT$$GT$17h9074bce600222cd8E
.Ltmp325:
	jmp	.LBB34_8
.LBB34_8:
	movq	-96(%rbp), %rax
	movq	(%rbp), %rcx
	movq	%rcx, 40(%rax)
	movq	8(%rbp), %rcx
	movq	%rcx, 48(%rax)
	movq	16(%rbp), %rcx
	movq	%rcx, 56(%rax)
	movq	24(%rbp), %rcx
	movq	%rcx, 64(%rax)
.Ltmp331:
	.cv_loc	37 4 470 0
	jmp	.LBB34_1
.LBB34_9:
	.cv_loc	37 4 479 0
	movq	-80(%rbp), %rax
	addq	$224, %rsp
	popq	%rbp
	retq
	.seh_handlerdata
	.long	($cppxdata$_ZN116_$LT$core..iter..adapters..flatten..FlattenCompat$LT$I$C$U$GT$$u20$as$u20$core..iter..traits..iterator..Iterator$GT$4next17h98d21f53324dbbb1E)@IMGREL
	.section	.text,"xr",one_only,_ZN116_$LT$core..iter..adapters..flatten..FlattenCompat$LT$I$C$U$GT$$u20$as$u20$core..iter..traits..iterator..Iterator$GT$4next17h98d21f53324dbbb1E
	.seh_endproc
	.def	"?dtor$7@?0?_ZN116_$LT$core..iter..adapters..flatten..FlattenCompat$LT$I$C$U$GT$$u20$as$u20$core..iter..traits..iterator..Iterator$GT$4next17h98d21f53324dbbb1E@4HA";
	.scl	3;
	.type	32;
	.endef
	.p2align	4, 0x90
"?dtor$7@?0?_ZN116_$LT$core..iter..adapters..flatten..FlattenCompat$LT$I$C$U$GT$$u20$as$u20$core..iter..traits..iterator..Iterator$GT$4next17h98d21f53324dbbb1E@4HA":
.seh_proc "?dtor$7@?0?_ZN116_$LT$core..iter..adapters..flatten..FlattenCompat$LT$I$C$U$GT$$u20$as$u20$core..iter..traits..iterator..Iterator$GT$4next17h98d21f53324dbbb1E@4HA"
.LBB34_7:
	movq	%rdx, 16(%rsp)
	pushq	%rbp
	.seh_pushreg %rbp
	subq	$32, %rsp
	.seh_stackalloc 32
	leaq	128(%rdx), %rbp
	.seh_endprologue
	movq	-96(%rbp), %rax
.Ltmp332:
	.cv_loc	37 4 476 0
	vmovups	(%rbp), %ymm0
	vmovups	%ymm0, 40(%rax)
.Ltmp333:
	.cv_loc	37 4 469 0
	addq	$32, %rsp
	popq	%rbp
	vzeroupper
	retq
.Ltmp334:
.Lfunc_end34:
	.seh_handlerdata
	.section	.text,"xr",one_only,_ZN116_$LT$core..iter..adapters..flatten..FlattenCompat$LT$I$C$U$GT$$u20$as$u20$core..iter..traits..iterator..Iterator$GT$4next17h98d21f53324dbbb1E
	.seh_endproc
	.section	.xdata,"dr",associative,_ZN116_$LT$core..iter..adapters..flatten..FlattenCompat$LT$I$C$U$GT$$u20$as$u20$core..iter..traits..iterator..Iterator$GT$4next17h98d21f53324dbbb1E
	.p2align	2
$cppxdata$_ZN116_$LT$core..iter..adapters..flatten..FlattenCompat$LT$I$C$U$GT$$u20$as$u20$core..iter..traits..iterator..Iterator$GT$4next17h98d21f53324dbbb1E:
	.long	429065506
	.long	1
	.long	($stateUnwindMap$_ZN116_$LT$core..iter..adapters..flatten..FlattenCompat$LT$I$C$U$GT$$u20$as$u20$core..iter..traits..iterator..Iterator$GT$4next17h98d21f53324dbbb1E)@IMGREL
	.long	0
	.long	0
	.long	3
	.long	($ip2state$_ZN116_$LT$core..iter..adapters..flatten..FlattenCompat$LT$I$C$U$GT$$u20$as$u20$core..iter..traits..iterator..Iterator$GT$4next17h98d21f53324dbbb1E)@IMGREL
	.long	216
	.long	0
	.long	1
$stateUnwindMap$_ZN116_$LT$core..iter..adapters..flatten..FlattenCompat$LT$I$C$U$GT$$u20$as$u20$core..iter..traits..iterator..Iterator$GT$4next17h98d21f53324dbbb1E:
	.long	-1
	.long	"?dtor$7@?0?_ZN116_$LT$core..iter..adapters..flatten..FlattenCompat$LT$I$C$U$GT$$u20$as$u20$core..iter..traits..iterator..Iterator$GT$4next17h98d21f53324dbbb1E@4HA"@IMGREL
$ip2state$_ZN116_$LT$core..iter..adapters..flatten..FlattenCompat$LT$I$C$U$GT$$u20$as$u20$core..iter..traits..iterator..Iterator$GT$4next17h98d21f53324dbbb1E:
	.long	.Lfunc_begin34@IMGREL
	.long	-1
	.long	.Ltmp324@IMGREL+1
	.long	0
	.long	.Ltmp325@IMGREL+1
	.long	-1
	.section	.text,"xr",one_only,_ZN116_$LT$core..iter..adapters..flatten..FlattenCompat$LT$I$C$U$GT$$u20$as$u20$core..iter..traits..iterator..Iterator$GT$4next17h98d21f53324dbbb1E

	.def	_ZN116_$LT$core..iter..adapters..flatten..FlattenCompat$LT$I$C$U$GT$$u20$as$u20$core..iter..traits..iterator..Iterator$GT$9size_hint17hf224123cf09a613fE;
	.scl	2;
	.type	32;
	.endef
	.section	.text,"xr",one_only,_ZN116_$LT$core..iter..adapters..flatten..FlattenCompat$LT$I$C$U$GT$$u20$as$u20$core..iter..traits..iterator..Iterator$GT$9size_hint17hf224123cf09a613fE
	.globl	_ZN116_$LT$core..iter..adapters..flatten..FlattenCompat$LT$I$C$U$GT$$u20$as$u20$core..iter..traits..iterator..Iterator$GT$9size_hint17hf224123cf09a613fE
	.p2align	4, 0x90
_ZN116_$LT$core..iter..adapters..flatten..FlattenCompat$LT$I$C$U$GT$$u20$as$u20$core..iter..traits..iterator..Iterator$GT$9size_hint17hf224123cf09a613fE:
.Lfunc_begin35:
	.cv_func_id 39
	.cv_loc	39 4 482 0
.seh_proc _ZN116_$LT$core..iter..adapters..flatten..FlattenCompat$LT$I$C$U$GT$$u20$as$u20$core..iter..traits..iterator..Iterator$GT$9size_hint17hf224123cf09a613fE
	subq	$1176, %rsp
	.seh_stackalloc 1176
	.seh_endprologue
	movq	%rdx, 152(%rsp)
	movq	%rcx, 160(%rsp)
	movq	%rcx, 168(%rsp)
	movq	%rdx, 728(%rsp)
.Ltmp335:
	.cv_loc	39 4 483 0
	movq	%rdx, %rax
	addq	$40, %rax
	movq	%rax, 176(%rsp)
	movq	%rax, 832(%rsp)
.Ltmp336:
	.cv_inline_site_id 40 within 39 inlined_at 4 483 0
	.cv_loc	40 6 630 0
	movq	40(%rdx), %rax
	testq	%rax, %rax
	setne	%al
	movzbl	%al, %eax
	je	.LBB35_2
	jmp	.LBB35_90
.LBB35_90:
	jmp	.LBB35_3
	ud2
.LBB35_2:
	.cv_loc	40 6 632 0
	movq	$0, 208(%rsp)
	jmp	.LBB35_4
.LBB35_3:
	.cv_loc	40 6 631 0
	movq	176(%rsp), %rax
	movq	%rax, 840(%rsp)
.Ltmp337:
	.cv_loc	40 6 631 0
	movq	%rax, 208(%rsp)
.Ltmp338:
.LBB35_4:
	.cv_loc	39 4 483 0
	movq	$0, 248(%rsp)
	movq	$1, 240(%rsp)
	movq	$0, 216(%rsp)
	movq	240(%rsp), %rcx
	movq	248(%rsp), %rax
	movq	%rcx, 224(%rsp)
	movq	%rax, 232(%rsp)
	movq	208(%rsp), %rdx
	leaq	184(%rsp), %rcx
	leaq	216(%rsp), %r8
	callq	_ZN4core6option15Option$LT$T$GT$6map_or17h5389f15d57b0af9eE
	movq	152(%rsp), %rax
	movq	184(%rsp), %rcx
	movq	%rcx, 120(%rsp)
	movq	%rcx, 848(%rsp)
	movq	192(%rsp), %rdx
	movq	%rdx, 128(%rsp)
	movq	200(%rsp), %rcx
	movq	%rcx, 136(%rsp)
	movq	%rdx, 856(%rsp)
	movq	%rcx, 864(%rsp)
.Ltmp339:
	.cv_loc	39 4 484 0
	movq	%rax, %rcx
	addq	$72, %rcx
	movq	%rcx, 144(%rsp)
	movq	%rcx, 872(%rsp)
.Ltmp340:
	.cv_inline_site_id 41 within 39 inlined_at 4 484 0
	.cv_loc	41 6 630 0
	movq	72(%rax), %rax
	testq	%rax, %rax
	setne	%al
	movzbl	%al, %eax
	je	.LBB35_7
	jmp	.LBB35_91
.LBB35_91:
	jmp	.LBB35_8
	ud2
.LBB35_7:
	.cv_loc	41 6 632 0
	movq	$0, 280(%rsp)
	jmp	.LBB35_9
.LBB35_8:
	.cv_loc	41 6 631 0
	movq	144(%rsp), %rax
	movq	%rax, 880(%rsp)
.Ltmp341:
	.cv_loc	41 6 631 0
	movq	%rax, 280(%rsp)
.Ltmp342:
.LBB35_9:
	.cv_loc	39 4 484 0
	movq	$0, 320(%rsp)
	movq	$1, 312(%rsp)
	movq	$0, 288(%rsp)
	movq	312(%rsp), %rcx
	movq	320(%rsp), %rax
	movq	%rcx, 296(%rsp)
	movq	%rax, 304(%rsp)
	movq	280(%rsp), %rdx
	leaq	256(%rsp), %rcx
	leaq	288(%rsp), %r8
	callq	_ZN4core6option15Option$LT$T$GT$6map_or17h5389f15d57b0af9eE
	movq	120(%rsp), %rax
	movq	256(%rsp), %rcx
	movq	%rcx, 888(%rsp)
	movq	264(%rsp), %r8
	movq	%r8, 96(%rsp)
	movq	272(%rsp), %rdx
	movq	%rdx, 104(%rsp)
	movq	%r8, 896(%rsp)
	movq	%rdx, 904(%rsp)
.Ltmp343:
	.cv_loc	39 4 485 0
	movq	%rax, 912(%rsp)
	movq	%rcx, 920(%rsp)
.Ltmp344:
	.cv_file	11 "/rustc/90743e7298aca107ddaa0c202a4d3604e29bfeb6\\library\\core\\src\\num\\uint_macros.rs" "AFD8176EDA261081CD4F1CEF2592FF7B134DCC4A" 2
	.cv_inline_site_id 42 within 39 inlined_at 4 485 0
	.cv_loc	42 11 1013 0
	addq	%rcx, %rax
	movq	$-1, %rcx
	cmovbq	%rcx, %rax
	movq	%rax, 928(%rsp)
	movq	928(%rsp), %rax
	movq	%rax, 112(%rsp)
	movq	%rax, 936(%rsp)
.Ltmp345:
	.cv_loc	39 4 487 0
	callq	_ZN74_$LT$T$u20$as$u20$core..iter..adapters..flatten..ConstSizeIntoIterator$GT$4size17hc1512da9e21f8b7fE
	movq	%rdx, 336(%rsp)
	movq	%rax, 328(%rsp)
	cmpq	$1, 328(%rsp)
	jne	.LBB35_14
	movq	152(%rsp), %rax
	movq	336(%rsp), %rcx
	movq	%rcx, 88(%rsp)
	movq	%rcx, 976(%rsp)
	.cv_loc	39 4 488 0
	movq	%rax, 984(%rsp)
.Ltmp346:
	.cv_inline_site_id 43 within 39 inlined_at 4 488 0
	.cv_loc	43 5 69 0
	movq	(%rax), %rax
	addq	$-2, %rax
	setne	%al
	movzbl	%al, %eax
	je	.LBB35_30
	jmp	.LBB35_93
.LBB35_93:
	jmp	.LBB35_31
.Ltmp347:
.LBB35_14:
	.cv_loc	39 4 497 0
	movq	152(%rsp), %rax
	movq	%rax, 944(%rsp)
.Ltmp348:
	.cv_inline_site_id 44 within 39 inlined_at 4 497 0
	.cv_loc	44 5 69 0
	movq	(%rax), %rax
	addq	$-2, %rax
	setne	%al
	movzbl	%al, %eax
	je	.LBB35_16
	jmp	.LBB35_92
.LBB35_92:
	jmp	.LBB35_17
	ud2
.LBB35_16:
	.cv_loc	44 5 71 0
	movq	$0, 720(%rsp)
	movq	$1, 712(%rsp)
	movq	$0, 640(%rsp)
	movq	712(%rsp), %rcx
	movq	720(%rsp), %rax
	movq	%rcx, 648(%rsp)
	movq	%rax, 656(%rsp)
	jmp	.LBB35_19
.LBB35_17:
	.cv_loc	44 5 70 0
	movq	152(%rsp), %rdx
	movq	%rdx, 952(%rsp)
.Ltmp349:
	.cv_loc	44 5 70 0
	leaq	640(%rsp), %rcx
	callq	_ZN102_$LT$core..iter..adapters..map..Map$LT$I$C$F$GT$$u20$as$u20$core..iter..traits..iterator..Iterator$GT$9size_hint17h7838f0e5c3d67345E
.Ltmp350:
	.cv_loc	44 5 70 0
	jmp	.LBB35_19
.Ltmp351:
.LBB35_19:
	.cv_loc	39 4 497 0
	movq	104(%rsp), %rax
	movq	96(%rsp), %rcx
	movq	136(%rsp), %rdx
	movq	128(%rsp), %r8
	movq	640(%rsp), %r9
	movq	%r9, 584(%rsp)
	movq	648(%rsp), %r9
	movq	%r9, 592(%rsp)
	movq	656(%rsp), %r9
	movq	%r9, 600(%rsp)
	movq	%r8, 608(%rsp)
	movq	%rdx, 616(%rsp)
	movq	%rcx, 624(%rsp)
	movq	%rax, 632(%rsp)
	cmpq	$0, 584(%rsp)
	jne	.LBB35_21
	cmpq	$1, 592(%rsp)
	je	.LBB35_22
.LBB35_21:
	.cv_loc	39 4 499 0
	movq	160(%rsp), %rax
	movq	112(%rsp), %rcx
	movq	$0, 664(%rsp)
	movq	%rcx, (%rax)
	movq	664(%rsp), %rdx
	movq	672(%rsp), %rcx
	movq	%rdx, 8(%rax)
	movq	%rcx, 16(%rax)
	jmp	.LBB35_26
.LBB35_22:
	.cv_loc	39 4 497 0
	cmpq	$1, 608(%rsp)
	jne	.LBB35_21
	cmpq	$1, 624(%rsp)
	jne	.LBB35_21
	cmpq	$0, 600(%rsp)
	jne	.LBB35_21
	.cv_loc	39 4 498 0
	movq	616(%rsp), %rcx
	movq	%rcx, 960(%rsp)
	movq	632(%rsp), %rdx
	movq	%rdx, 968(%rsp)
.Ltmp352:
	.cv_loc	39 4 498 0
	callq	_ZN4core3num23_$LT$impl$u20$usize$GT$11checked_add17h64063402d7b00667E
	movq	%rax, 72(%rsp)
	movq	%rdx, 80(%rsp)
	jmp	.LBB35_27
.Ltmp353:
.LBB35_26:
	.cv_loc	39 4 501 0
	jmp	.LBB35_28
.LBB35_27:
	.cv_loc	39 4 498 0
	movq	160(%rsp), %rax
	movq	80(%rsp), %rcx
	movq	72(%rsp), %rdx
	movq	112(%rsp), %r8
.Ltmp354:
	movq	%r8, (%rax)
	movq	%rdx, 8(%rax)
	movq	%rcx, 16(%rax)
.Ltmp355:
	.cv_loc	39 4 498 0
	jmp	.LBB35_26
.Ltmp356:
.LBB35_28:
	.cv_loc	39 4 501 0
	movq	168(%rsp), %rax
	addq	$1176, %rsp
	retq
.Ltmp357:
	.cv_loc	43 5 69 0
	ud2
.LBB35_30:
	.cv_loc	43 5 71 0
	movq	$0, 688(%rsp)
	movq	$1, 680(%rsp)
	movq	$0, 344(%rsp)
	movq	680(%rsp), %rcx
	movq	688(%rsp), %rax
	movq	%rcx, 352(%rsp)
	movq	%rax, 360(%rsp)
	jmp	.LBB35_33
.LBB35_31:
	.cv_loc	43 5 70 0
	movq	152(%rsp), %rdx
	movq	%rdx, 992(%rsp)
.Ltmp358:
	.cv_loc	43 5 70 0
	leaq	344(%rsp), %rcx
	callq	_ZN102_$LT$core..iter..adapters..map..Map$LT$I$C$F$GT$$u20$as$u20$core..iter..traits..iterator..Iterator$GT$9size_hint17h7838f0e5c3d67345E
.Ltmp359:
	.cv_loc	43 5 70 0
	jmp	.LBB35_33
.Ltmp360:
.LBB35_33:
	.cv_loc	39 4 488 0
	movq	88(%rsp), %rdx
	movq	344(%rsp), %rcx
	movq	%rcx, 1000(%rsp)
	movq	352(%rsp), %r8
	movq	%r8, 56(%rsp)
	movq	360(%rsp), %rax
	movq	%rax, 64(%rsp)
	movq	%r8, 1008(%rsp)
	movq	%rax, 1016(%rsp)
.Ltmp361:
	.cv_loc	39 4 490 0
	movq	%rcx, 1024(%rsp)
	movq	%rdx, 1032(%rsp)
.Ltmp362:
	.cv_inline_site_id 45 within 39 inlined_at 4 490 0
	.cv_loc	45 11 1081 0
	callq	_ZN4core3num23_$LT$impl$u20$usize$GT$11checked_mul17h62e0b5018888cb4dE
	movq	%rdx, 704(%rsp)
	movq	%rax, 696(%rsp)
	movq	696(%rsp), %rax
	testq	%rax, %rax
	je	.LBB35_36
	jmp	.LBB35_94
.LBB35_94:
	jmp	.LBB35_37
	ud2
.LBB35_36:
	.cv_loc	45 11 1083 0
	movq	$-1, 368(%rsp)
	jmp	.LBB35_38
.LBB35_37:
	.cv_loc	45 11 1082 0
	movq	704(%rsp), %rax
	movq	%rax, 1040(%rsp)
.Ltmp363:
	.cv_loc	45 11 1082 0
	movq	%rax, 368(%rsp)
.Ltmp364:
.LBB35_38:
	.cv_loc	39 4 490 0
	movq	112(%rsp), %rcx
	movq	%rcx, 1048(%rsp)
.Ltmp365:
	.cv_loc	45 11 1013 0
	movq	368(%rsp), %rax
	addq	%rcx, %rax
	movq	$-1, %rcx
	cmovbq	%rcx, %rax
	movq	%rax, 1056(%rsp)
	movq	1056(%rsp), %rax
	movq	%rax, 48(%rsp)
	movq	%rax, 1064(%rsp)
.Ltmp366:
	.cv_loc	39 4 492 0
	movq	136(%rsp), %rax
	movq	128(%rsp), %rcx
.Ltmp367:
	movq	%rcx, 472(%rsp)
	movq	%rax, 480(%rsp)
.Ltmp368:
	.cv_inline_site_id 46 within 39 inlined_at 4 492 0
	.cv_loc	46 6 2296 0
	movq	472(%rsp), %rax
	testq	%rax, %rax
	je	.LBB35_41
	jmp	.LBB35_95
.LBB35_95:
	jmp	.LBB35_42
	ud2
.LBB35_41:
	.cv_loc	46 6 2298 0
	movq	$1, 456(%rsp)
	jmp	.LBB35_43
.LBB35_42:
	.cv_loc	46 6 2297 0
	movq	480(%rsp), %rax
	movq	%rax, 1072(%rsp)
.Ltmp369:
	.cv_loc	46 6 2297 0
	movq	%rax, 464(%rsp)
	movq	$0, 456(%rsp)
.Ltmp370:
.LBB35_43:
	.cv_loc	39 4 492 0
	movq	456(%rsp), %rax
	testq	%rax, %rax
	je	.LBB35_45
	jmp	.LBB35_96
.LBB35_96:
	jmp	.LBB35_46
	ud2
.LBB35_45:
	movq	104(%rsp), %rax
	movq	96(%rsp), %rcx
	movq	464(%rsp), %rdx
	movq	%rdx, 40(%rsp)
	movq	%rdx, 1080(%rsp)
	movq	%rcx, 504(%rsp)
	movq	%rax, 512(%rsp)
.Ltmp371:
	.cv_loc	46 6 2296 0
	movq	504(%rsp), %rax
	testq	%rax, %rax
	je	.LBB35_49
	jmp	.LBB35_97
.LBB35_97:
	jmp	.LBB35_50
.Ltmp372:
.LBB35_46:
	.cv_inline_site_id 47 within 39 inlined_at 4 492 0
	.cv_loc	47 6 2309 0
	movq	$0, 376(%rsp)
.Ltmp373:
.LBB35_47:
	.cv_loc	39 10 1 0
	jmp	.LBB35_55
.Ltmp374:
	.cv_loc	46 6 2296 0
	ud2
.LBB35_49:
	.cv_loc	46 6 2298 0
	movq	$1, 488(%rsp)
	jmp	.LBB35_51
.LBB35_50:
	.cv_loc	46 6 2297 0
	movq	512(%rsp), %rax
	movq	%rax, 1088(%rsp)
.Ltmp375:
	.cv_loc	46 6 2297 0
	movq	%rax, 496(%rsp)
	movq	$0, 488(%rsp)
.Ltmp376:
.LBB35_51:
	.cv_loc	39 4 492 0
	movq	488(%rsp), %rax
	testq	%rax, %rax
	je	.LBB35_53
	jmp	.LBB35_98
.LBB35_98:
	jmp	.LBB35_54
	ud2
.LBB35_53:
	movq	40(%rsp), %rcx
	movq	496(%rsp), %rdx
	movq	%rdx, 1096(%rsp)
	callq	_ZN4core3num23_$LT$impl$u20$usize$GT$11checked_add17h64063402d7b00667E
	movq	%rdx, 448(%rsp)
	movq	%rax, 440(%rsp)
	jmp	.LBB35_56
.LBB35_54:
.Ltmp377:
	.cv_inline_site_id 48 within 39 inlined_at 4 492 0
	.cv_loc	48 6 2309 0
	movq	$0, 376(%rsp)
.Ltmp378:
	.cv_loc	39 10 1 0
	jmp	.LBB35_47
.LBB35_55:
	jmp	.LBB35_80
.LBB35_56:
.Ltmp379:
	.cv_loc	46 6 2296 0
	movq	440(%rsp), %rax
	testq	%rax, %rax
	je	.LBB35_58
	jmp	.LBB35_99
.LBB35_99:
	jmp	.LBB35_59
	ud2
.LBB35_58:
	.cv_loc	46 6 2298 0
	movq	$1, 424(%rsp)
	jmp	.LBB35_60
.LBB35_59:
	.cv_loc	46 6 2297 0
	movq	448(%rsp), %rax
	movq	%rax, 1104(%rsp)
.Ltmp380:
	.cv_loc	46 6 2297 0
	movq	%rax, 432(%rsp)
	movq	$0, 424(%rsp)
.Ltmp381:
.LBB35_60:
	.cv_loc	39 4 492 0
	movq	424(%rsp), %rax
	testq	%rax, %rax
	je	.LBB35_62
	jmp	.LBB35_100
.LBB35_100:
	jmp	.LBB35_63
	ud2
.LBB35_62:
	movq	64(%rsp), %rax
	movq	56(%rsp), %rcx
	movq	432(%rsp), %rdx
	movq	%rdx, 32(%rsp)
	movq	%rdx, 1112(%rsp)
	movq	%rcx, 568(%rsp)
	movq	%rax, 576(%rsp)
.Ltmp382:
	.cv_loc	46 6 2296 0
	movq	568(%rsp), %rax
	testq	%rax, %rax
	je	.LBB35_65
	jmp	.LBB35_101
.LBB35_101:
	jmp	.LBB35_66
.Ltmp383:
.LBB35_63:
	.cv_inline_site_id 49 within 39 inlined_at 4 492 0
	.cv_loc	49 6 2309 0
	movq	$0, 376(%rsp)
.Ltmp384:
	.cv_loc	39 10 1 0
	jmp	.LBB35_55
.Ltmp385:
	.cv_loc	46 6 2296 0
	ud2
.LBB35_65:
	.cv_loc	46 6 2298 0
	movq	$1, 552(%rsp)
	jmp	.LBB35_67
.LBB35_66:
	.cv_loc	46 6 2297 0
	movq	576(%rsp), %rax
	movq	%rax, 1120(%rsp)
.Ltmp386:
	.cv_loc	46 6 2297 0
	movq	%rax, 560(%rsp)
	movq	$0, 552(%rsp)
.Ltmp387:
.LBB35_67:
	.cv_loc	39 4 492 0
	movq	552(%rsp), %rax
	testq	%rax, %rax
	je	.LBB35_69
	jmp	.LBB35_102
.LBB35_102:
	jmp	.LBB35_70
	ud2
.LBB35_69:
	movq	88(%rsp), %rcx
	movq	560(%rsp), %rdx
	movq	%rdx, 1128(%rsp)
	callq	_ZN4core3num23_$LT$impl$u20$usize$GT$11checked_mul17h62e0b5018888cb4dE
	movq	%rdx, 544(%rsp)
	movq	%rax, 536(%rsp)
	jmp	.LBB35_72
.LBB35_70:
.Ltmp388:
	.cv_inline_site_id 50 within 39 inlined_at 4 492 0
	.cv_loc	50 6 2309 0
	movq	$0, 376(%rsp)
.Ltmp389:
.LBB35_71:
	.cv_loc	39 10 1 0
	jmp	.LBB35_55
.LBB35_72:
.Ltmp390:
	.cv_loc	46 6 2296 0
	movq	536(%rsp), %rax
	testq	%rax, %rax
	je	.LBB35_74
	jmp	.LBB35_103
.LBB35_103:
	jmp	.LBB35_75
	ud2
.LBB35_74:
	.cv_loc	46 6 2298 0
	movq	$1, 520(%rsp)
	jmp	.LBB35_76
.LBB35_75:
	.cv_loc	46 6 2297 0
	movq	544(%rsp), %rax
	movq	%rax, 1136(%rsp)
.Ltmp391:
	.cv_loc	46 6 2297 0
	movq	%rax, 528(%rsp)
	movq	$0, 520(%rsp)
.Ltmp392:
.LBB35_76:
	.cv_loc	39 4 492 0
	movq	520(%rsp), %rax
	testq	%rax, %rax
	je	.LBB35_78
	jmp	.LBB35_104
.LBB35_104:
	jmp	.LBB35_79
	ud2
.LBB35_78:
	movq	32(%rsp), %rcx
	movq	528(%rsp), %rdx
	movq	%rdx, 1144(%rsp)
	callq	_ZN4core3num23_$LT$impl$u20$usize$GT$11checked_add17h64063402d7b00667E
	movq	%rdx, 416(%rsp)
	movq	%rax, 408(%rsp)
	jmp	.LBB35_81
.LBB35_79:
.Ltmp393:
	.cv_inline_site_id 51 within 39 inlined_at 4 492 0
	.cv_loc	51 6 2309 0
	movq	$0, 376(%rsp)
.Ltmp394:
	.cv_loc	39 10 1 0
	jmp	.LBB35_71
.LBB35_80:
	.cv_loc	39 4 492 0
	jmp	.LBB35_89
.LBB35_81:
.Ltmp395:
	.cv_loc	46 6 2296 0
	movq	408(%rsp), %rax
	testq	%rax, %rax
	je	.LBB35_83
	jmp	.LBB35_105
.LBB35_105:
	jmp	.LBB35_84
	ud2
.LBB35_83:
	.cv_loc	46 6 2298 0
	movq	$1, 392(%rsp)
	jmp	.LBB35_85
.LBB35_84:
	.cv_loc	46 6 2297 0
	movq	416(%rsp), %rax
	movq	%rax, 1152(%rsp)
.Ltmp396:
	.cv_loc	46 6 2297 0
	movq	%rax, 400(%rsp)
	movq	$0, 392(%rsp)
.Ltmp397:
.LBB35_85:
	.cv_loc	39 4 492 0
	movq	392(%rsp), %rax
	testq	%rax, %rax
	je	.LBB35_87
	jmp	.LBB35_106
.LBB35_106:
	jmp	.LBB35_88
	ud2
.LBB35_87:
	movq	400(%rsp), %rax
	movq	%rax, 1160(%rsp)
.Ltmp398:
	.cv_loc	39 4 492 0
	movq	%rax, 1168(%rsp)
.Ltmp399:
	.cv_loc	46 6 2291 0
	movq	%rax, 384(%rsp)
	movq	$1, 376(%rsp)
.Ltmp400:
	.cv_loc	39 4 492 0
	jmp	.LBB35_89
.LBB35_88:
.Ltmp401:
	.cv_inline_site_id 52 within 39 inlined_at 4 492 0
	.cv_loc	52 6 2309 0
	movq	$0, 376(%rsp)
.Ltmp402:
	.cv_loc	39 10 1 0
	jmp	.LBB35_80
.LBB35_89:
	.cv_loc	39 4 494 0
	movq	160(%rsp), %rax
	movq	48(%rsp), %r8
.Ltmp403:
	movq	376(%rsp), %rdx
	movq	384(%rsp), %rcx
	movq	%r8, (%rax)
	movq	%rdx, 8(%rax)
	movq	%rcx, 16(%rax)
.Ltmp404:
	.cv_loc	39 4 501 0
	jmp	.LBB35_28
.Ltmp405:
.Lfunc_end35:
	.seh_endproc

	.def	_ZN116_$LT$proc_macro2..TokenStream$u20$as$u20$core..iter..traits..collect..FromIterator$LT$proc_macro2..TokenTree$GT$$GT$9from_iter17h0d8fad3bc88b293cE;
	.scl	2;
	.type	32;
	.endef
	.section	.text,"xr",one_only,_ZN116_$LT$proc_macro2..TokenStream$u20$as$u20$core..iter..traits..collect..FromIterator$LT$proc_macro2..TokenTree$GT$$GT$9from_iter17h0d8fad3bc88b293cE
	.globl	_ZN116_$LT$proc_macro2..TokenStream$u20$as$u20$core..iter..traits..collect..FromIterator$LT$proc_macro2..TokenTree$GT$$GT$9from_iter17h0d8fad3bc88b293cE
	.p2align	4, 0x90
_ZN116_$LT$proc_macro2..TokenStream$u20$as$u20$core..iter..traits..collect..FromIterator$LT$proc_macro2..TokenTree$GT$$GT$9from_iter17h0d8fad3bc88b293cE:
.Lfunc_begin36:
	.cv_func_id 53
	.cv_loc	53 8 277 0
.seh_proc _ZN116_$LT$proc_macro2..TokenStream$u20$as$u20$core..iter..traits..collect..FromIterator$LT$proc_macro2..TokenTree$GT$$GT$9from_iter17h0d8fad3bc88b293cE
	subq	$184, %rsp
	.seh_stackalloc 184
	.seh_endprologue
	movq	%rcx, 40(%rsp)
	movq	%rcx, 48(%rsp)
.Ltmp406:
	.cv_loc	53 8 278 0
	leaq	136(%rsp), %rcx
	movl	$48, %r8d
	callq	memcpy
.Ltmp407:
	leaq	88(%rsp), %rcx
	leaq	136(%rsp), %rdx
	callq	_ZN63_$LT$I$u20$as$u20$core..iter..traits..collect..IntoIterator$GT$9into_iter17h82d31900ba2f0091E
.Ltmp408:
	leaq	56(%rsp), %rcx
	leaq	88(%rsp), %rdx
	callq	_ZN4core4iter6traits8iterator8Iterator7collect17h756512be4cb582f2E
.Ltmp409:
	movq	40(%rsp), %rcx
	leaq	56(%rsp), %rdx
	callq	_ZN11proc_macro211TokenStream4_new17h3c2ab626a4923dd1E
.Ltmp410:
	.cv_loc	53 8 279 0
	movq	48(%rsp), %rax
	addq	$184, %rsp
	retq
.Ltmp411:
.Lfunc_end36:
	.seh_endproc

	.def	_ZN11proc_macro25rcvec14RcVec$LT$T$GT$8make_mut17ha6bb23d16a380cb2E;
	.scl	2;
	.type	32;
	.endef
	.section	.text,"xr",one_only,_ZN11proc_macro25rcvec14RcVec$LT$T$GT$8make_mut17ha6bb23d16a380cb2E
	.globl	_ZN11proc_macro25rcvec14RcVec$LT$T$GT$8make_mut17ha6bb23d16a380cb2E
	.p2align	4, 0x90
_ZN11proc_macro25rcvec14RcVec$LT$T$GT$8make_mut17ha6bb23d16a380cb2E:
.Lfunc_begin37:
	.cv_func_id 54
	.cv_file	12 "C:\\Users\\cires\\.cargo\\registry\\src\\github.com-1ecc6299db9ec823\\proc-macro2-1.0.71\\src\\rcvec.rs" "9EF8E8D61D7EE05EC8553316EFDC3E51AA228D34" 2
	.cv_loc	54 12 37 0
.seh_proc _ZN11proc_macro25rcvec14RcVec$LT$T$GT$8make_mut17ha6bb23d16a380cb2E
	subq	$56, %rsp
	.seh_stackalloc 56
	.seh_endprologue
	movq	%rcx, 48(%rsp)
.Ltmp412:
	.cv_loc	54 12 42 0
	callq	_ZN5alloc2rc11Rc$LT$T$GT$8make_mut17hc1b1696914106ac0E
	movq	%rax, 32(%rsp)
	.cv_loc	54 12 41 0
	movq	32(%rsp), %rax
	movq	%rax, 40(%rsp)
	.cv_loc	54 12 44 0
	movq	40(%rsp), %rax
	addq	$56, %rsp
	retq
.Ltmp413:
.Lfunc_end37:
	.seh_endproc

	.def	_ZN11proc_macro25rcvec17RcVecMut$LT$T$GT$6as_mut17h6b1ade581a14f5c7E;
	.scl	2;
	.type	32;
	.endef
	.section	.text,"xr",one_only,_ZN11proc_macro25rcvec17RcVecMut$LT$T$GT$6as_mut17h6b1ade581a14f5c7E
	.globl	_ZN11proc_macro25rcvec17RcVecMut$LT$T$GT$6as_mut17h6b1ade581a14f5c7E
	.p2align	4, 0x90
_ZN11proc_macro25rcvec17RcVecMut$LT$T$GT$6as_mut17h6b1ade581a14f5c7E:
.Lfunc_begin38:
	.cv_func_id 55
	.cv_loc	55 12 109 0
.seh_proc _ZN11proc_macro25rcvec17RcVecMut$LT$T$GT$6as_mut17h6b1ade581a14f5c7E
	subq	$16, %rsp
	.seh_stackalloc 16
	.seh_endprologue
	movq	%rcx, 8(%rsp)
.Ltmp414:
	.cv_loc	55 12 110 0
	movq	(%rcx), %rax
	movq	%rax, (%rsp)
	.cv_loc	55 12 111 0
	movq	(%rsp), %rax
	addq	$16, %rsp
	retq
.Ltmp415:
.Lfunc_end38:
	.seh_endproc

	.def	_ZN11proc_macro25rcvec17RcVecMut$LT$T$GT$6extend17h9f420bbc238a4b9fE;
	.scl	2;
	.type	32;
	.endef
	.section	.text,"xr",one_only,_ZN11proc_macro25rcvec17RcVecMut$LT$T$GT$6extend17h9f420bbc238a4b9fE
	.globl	_ZN11proc_macro25rcvec17RcVecMut$LT$T$GT$6extend17h9f420bbc238a4b9fE
	.p2align	4, 0x90
_ZN11proc_macro25rcvec17RcVecMut$LT$T$GT$6extend17h9f420bbc238a4b9fE:
.Lfunc_begin39:
	.cv_func_id 56
	.cv_loc	56 12 101 0
.seh_proc _ZN11proc_macro25rcvec17RcVecMut$LT$T$GT$6extend17h9f420bbc238a4b9fE
	subq	$152, %rsp
	.seh_stackalloc 152
	.seh_endprologue
	movq	%rcx, 144(%rsp)
.Ltmp416:
	.cv_loc	56 12 102 0
	movq	(%rcx), %rax
	movq	%rax, 32(%rsp)
	leaq	40(%rsp), %rcx
	movl	$104, %r8d
	callq	memcpy
.Ltmp417:
	movq	32(%rsp), %rcx
	leaq	40(%rsp), %rdx
	callq	_ZN93_$LT$alloc..vec..Vec$LT$T$C$A$GT$$u20$as$u20$core..iter..traits..collect..Extend$LT$T$GT$$GT$6extend17h7e9d3cd2ff3b6c7bE
.Ltmp418:
	.cv_loc	56 12 103 0
	nop
	addq	$152, %rsp
	retq
.Ltmp419:
.Lfunc_end39:
	.seh_endproc

	.def	_ZN120_$LT$proc_macro2..fallback..TokenStream$u20$as$u20$core..iter..traits..collect..Extend$LT$proc_macro2..TokenTree$GT$$GT$6extend17h63790affa4301d06E;
	.scl	2;
	.type	32;
	.endef
	.section	.text,"xr",one_only,_ZN120_$LT$proc_macro2..fallback..TokenStream$u20$as$u20$core..iter..traits..collect..Extend$LT$proc_macro2..TokenTree$GT$$GT$6extend17h63790affa4301d06E
	.globl	_ZN120_$LT$proc_macro2..fallback..TokenStream$u20$as$u20$core..iter..traits..collect..Extend$LT$proc_macro2..TokenTree$GT$$GT$6extend17h63790affa4301d06E
	.p2align	4, 0x90
_ZN120_$LT$proc_macro2..fallback..TokenStream$u20$as$u20$core..iter..traits..collect..Extend$LT$proc_macro2..TokenTree$GT$$GT$6extend17h63790affa4301d06E:
.Lfunc_begin40:
	.cv_func_id 57
	.cv_file	13 "C:\\Users\\cires\\.cargo\\registry\\src\\github.com-1ecc6299db9ec823\\proc-macro2-1.0.71\\src\\fallback.rs" "15B7559124CDF7CAF5D9EFC79CC237903DB5DE28" 2
	.cv_loc	57 13 273 0
.seh_proc _ZN120_$LT$proc_macro2..fallback..TokenStream$u20$as$u20$core..iter..traits..collect..Extend$LT$proc_macro2..TokenTree$GT$$GT$6extend17h63790affa4301d06E
	.seh_handler __CxxFrameHandler3, @unwind, @except
	pushq	%rbp
	.seh_pushreg %rbp
	subq	$144, %rsp
	.seh_stackalloc 144
	leaq	128(%rsp), %rbp
	.seh_setframe %rbp, 128
	.seh_endprologue
	movq	$-2, 8(%rbp)
	movq	%rdx, -96(%rbp)
.Ltmp426:
	movq	%rcx, (%rbp)
.Ltmp427:
	.cv_loc	57 13 274 0
	movb	$0, -1(%rbp)
	movb	$1, -1(%rbp)
.Ltmp420:
	callq	_ZN11proc_macro25rcvec14RcVec$LT$T$GT$8make_mut17ha6bb23d16a380cb2E
.Ltmp428:
.Ltmp421:
	movq	%rax, -88(%rbp)
.Ltmp429:
	jmp	.LBB40_2
.Ltmp430:
.LBB40_2:
	movq	-96(%rbp), %rax
	movq	-88(%rbp), %rcx
	movq	%rcx, -80(%rbp)
.Ltmp431:
	.cv_loc	57 13 275 0
	movb	$0, -1(%rbp)
	movq	16(%rax), %rcx
	movq	%rcx, -32(%rbp)
	vmovdqu	(%rax), %xmm0
	vmovdqa	%xmm0, -48(%rbp)
.Ltmp422:
	leaq	-72(%rbp), %rcx
	leaq	-48(%rbp), %rdx
	callq	_ZN63_$LT$I$u20$as$u20$core..iter..traits..collect..IntoIterator$GT$9into_iter17h23fa889c8a75b074E
.Ltmp423:
	jmp	.LBB40_3
.Ltmp432:
.LBB40_3:
	.cv_loc	57 13 277 0
	leaq	-80(%rbp), %rax
	movq	%rax, -16(%rbp)
	.cv_loc	57 13 275 0
	movq	-16(%rbp), %rdx
.Ltmp424:
	leaq	-72(%rbp), %rcx
	callq	_ZN4core4iter6traits8iterator8Iterator8for_each17h9776f595dcb9aba8E
.Ltmp425:
	jmp	.LBB40_4
.Ltmp433:
.LBB40_4:
	.cv_loc	57 13 278 0
	addq	$144, %rsp
	popq	%rbp
	retq
.Ltmp434:
	.seh_handlerdata
	.long	($cppxdata$_ZN120_$LT$proc_macro2..fallback..TokenStream$u20$as$u20$core..iter..traits..collect..Extend$LT$proc_macro2..TokenTree$GT$$GT$6extend17h63790affa4301d06E)@IMGREL
	.section	.text,"xr",one_only,_ZN120_$LT$proc_macro2..fallback..TokenStream$u20$as$u20$core..iter..traits..collect..Extend$LT$proc_macro2..TokenTree$GT$$GT$6extend17h63790affa4301d06E
	.seh_endproc
	.def	"?dtor$1@?0?_ZN120_$LT$proc_macro2..fallback..TokenStream$u20$as$u20$core..iter..traits..collect..Extend$LT$proc_macro2..TokenTree$GT$$GT$6extend17h63790affa4301d06E@4HA";
	.scl	3;
	.type	32;
	.endef
	.p2align	4, 0x90
"?dtor$1@?0?_ZN120_$LT$proc_macro2..fallback..TokenStream$u20$as$u20$core..iter..traits..collect..Extend$LT$proc_macro2..TokenTree$GT$$GT$6extend17h63790affa4301d06E@4HA":
.seh_proc "?dtor$1@?0?_ZN120_$LT$proc_macro2..fallback..TokenStream$u20$as$u20$core..iter..traits..collect..Extend$LT$proc_macro2..TokenTree$GT$$GT$6extend17h63790affa4301d06E@4HA"
.LBB40_1:
	movq	%rdx, 16(%rsp)
	pushq	%rbp
	.seh_pushreg %rbp
	subq	$32, %rsp
	.seh_stackalloc 32
	leaq	128(%rdx), %rbp
.Ltmp435:
	.seh_endprologue
	testb	$1, -1(%rbp)
	jne	.LBB40_6
	jmp	.LBB40_5
.LBB40_5:
	.cv_loc	57 13 273 0
	addq	$32, %rsp
	popq	%rbp
	retq
.LBB40_6:
	.cv_loc	57 13 278 0
	jmp	.LBB40_5
.Ltmp436:
.Lfunc_end40:
	.seh_handlerdata
	.section	.text,"xr",one_only,_ZN120_$LT$proc_macro2..fallback..TokenStream$u20$as$u20$core..iter..traits..collect..Extend$LT$proc_macro2..TokenTree$GT$$GT$6extend17h63790affa4301d06E
	.seh_endproc
	.section	.xdata,"dr",associative,_ZN120_$LT$proc_macro2..fallback..TokenStream$u20$as$u20$core..iter..traits..collect..Extend$LT$proc_macro2..TokenTree$GT$$GT$6extend17h63790affa4301d06E
	.p2align	2
$cppxdata$_ZN120_$LT$proc_macro2..fallback..TokenStream$u20$as$u20$core..iter..traits..collect..Extend$LT$proc_macro2..TokenTree$GT$$GT$6extend17h63790affa4301d06E:
	.long	429065506
	.long	1
	.long	($stateUnwindMap$_ZN120_$LT$proc_macro2..fallback..TokenStream$u20$as$u20$core..iter..traits..collect..Extend$LT$proc_macro2..TokenTree$GT$$GT$6extend17h63790affa4301d06E)@IMGREL
	.long	0
	.long	0
	.long	3
	.long	($ip2state$_ZN120_$LT$proc_macro2..fallback..TokenStream$u20$as$u20$core..iter..traits..collect..Extend$LT$proc_macro2..TokenTree$GT$$GT$6extend17h63790affa4301d06E)@IMGREL
	.long	136
	.long	0
	.long	1
$stateUnwindMap$_ZN120_$LT$proc_macro2..fallback..TokenStream$u20$as$u20$core..iter..traits..collect..Extend$LT$proc_macro2..TokenTree$GT$$GT$6extend17h63790affa4301d06E:
	.long	-1
	.long	"?dtor$1@?0?_ZN120_$LT$proc_macro2..fallback..TokenStream$u20$as$u20$core..iter..traits..collect..Extend$LT$proc_macro2..TokenTree$GT$$GT$6extend17h63790affa4301d06E@4HA"@IMGREL
$ip2state$_ZN120_$LT$proc_macro2..fallback..TokenStream$u20$as$u20$core..iter..traits..collect..Extend$LT$proc_macro2..TokenTree$GT$$GT$6extend17h63790affa4301d06E:
	.long	.Lfunc_begin40@IMGREL
	.long	-1
	.long	.Ltmp420@IMGREL+1
	.long	0
	.long	.Ltmp425@IMGREL+1
	.long	-1
	.section	.text,"xr",one_only,_ZN120_$LT$proc_macro2..fallback..TokenStream$u20$as$u20$core..iter..traits..collect..Extend$LT$proc_macro2..TokenTree$GT$$GT$6extend17h63790affa4301d06E

	.def	_ZN120_$LT$proc_macro2..fallback..TokenStream$u20$as$u20$core..iter..traits..collect..Extend$LT$proc_macro2..TokenTree$GT$$GT$6extend17h7bc869d25d46bdb2E;
	.scl	2;
	.type	32;
	.endef
	.section	.text,"xr",one_only,_ZN120_$LT$proc_macro2..fallback..TokenStream$u20$as$u20$core..iter..traits..collect..Extend$LT$proc_macro2..TokenTree$GT$$GT$6extend17h7bc869d25d46bdb2E
	.globl	_ZN120_$LT$proc_macro2..fallback..TokenStream$u20$as$u20$core..iter..traits..collect..Extend$LT$proc_macro2..TokenTree$GT$$GT$6extend17h7bc869d25d46bdb2E
	.p2align	4, 0x90
_ZN120_$LT$proc_macro2..fallback..TokenStream$u20$as$u20$core..iter..traits..collect..Extend$LT$proc_macro2..TokenTree$GT$$GT$6extend17h7bc869d25d46bdb2E:
.Lfunc_begin41:
	.cv_func_id 58
	.cv_loc	58 13 273 0
.seh_proc _ZN120_$LT$proc_macro2..fallback..TokenStream$u20$as$u20$core..iter..traits..collect..Extend$LT$proc_macro2..TokenTree$GT$$GT$6extend17h7bc869d25d46bdb2E
	.seh_handler __CxxFrameHandler3, @unwind, @except
	pushq	%rbp
	.seh_pushreg %rbp
	subq	$192, %rsp
	.seh_stackalloc 192
	leaq	128(%rsp), %rbp
	.seh_setframe %rbp, 128
	.seh_endprologue
	movq	$-2, 56(%rbp)
	movq	%rdx, -88(%rbp)
.Ltmp443:
	movq	%rcx, 48(%rbp)
.Ltmp444:
	.cv_loc	58 13 274 0
	movb	$0, 47(%rbp)
	movb	$1, 47(%rbp)
.Ltmp437:
	callq	_ZN11proc_macro25rcvec14RcVec$LT$T$GT$8make_mut17ha6bb23d16a380cb2E
.Ltmp445:
.Ltmp438:
	movq	%rax, -80(%rbp)
.Ltmp446:
	jmp	.LBB41_2
.Ltmp447:
.LBB41_2:
	movq	-88(%rbp), %rax
	movq	-80(%rbp), %rcx
	movq	%rcx, -72(%rbp)
.Ltmp448:
	.cv_loc	58 13 275 0
	movb	$0, 47(%rbp)
	vmovups	(%rax), %ymm0
	vmovups	16(%rax), %ymm1
	vmovups	%ymm1, (%rbp)
	vmovups	%ymm0, -16(%rbp)
.Ltmp439:
	leaq	-64(%rbp), %rcx
	leaq	-16(%rbp), %rdx
	vzeroupper
	callq	_ZN63_$LT$I$u20$as$u20$core..iter..traits..collect..IntoIterator$GT$9into_iter17h24171b3fa6b24274E
.Ltmp440:
	jmp	.LBB41_3
.Ltmp449:
.LBB41_3:
	.cv_loc	58 13 277 0
	leaq	-72(%rbp), %rax
	movq	%rax, 32(%rbp)
	.cv_loc	58 13 275 0
	movq	32(%rbp), %rdx
.Ltmp441:
	leaq	-64(%rbp), %rcx
	callq	_ZN4core4iter6traits8iterator8Iterator8for_each17h671b0a1234457896E
.Ltmp442:
	jmp	.LBB41_4
.Ltmp450:
.LBB41_4:
	.cv_loc	58 13 278 0
	addq	$192, %rsp
	popq	%rbp
	retq
.Ltmp451:
	.seh_handlerdata
	.long	($cppxdata$_ZN120_$LT$proc_macro2..fallback..TokenStream$u20$as$u20$core..iter..traits..collect..Extend$LT$proc_macro2..TokenTree$GT$$GT$6extend17h7bc869d25d46bdb2E)@IMGREL
	.section	.text,"xr",one_only,_ZN120_$LT$proc_macro2..fallback..TokenStream$u20$as$u20$core..iter..traits..collect..Extend$LT$proc_macro2..TokenTree$GT$$GT$6extend17h7bc869d25d46bdb2E
	.seh_endproc
	.def	"?dtor$1@?0?_ZN120_$LT$proc_macro2..fallback..TokenStream$u20$as$u20$core..iter..traits..collect..Extend$LT$proc_macro2..TokenTree$GT$$GT$6extend17h7bc869d25d46bdb2E@4HA";
	.scl	3;
	.type	32;
	.endef
	.p2align	4, 0x90
"?dtor$1@?0?_ZN120_$LT$proc_macro2..fallback..TokenStream$u20$as$u20$core..iter..traits..collect..Extend$LT$proc_macro2..TokenTree$GT$$GT$6extend17h7bc869d25d46bdb2E@4HA":
.seh_proc "?dtor$1@?0?_ZN120_$LT$proc_macro2..fallback..TokenStream$u20$as$u20$core..iter..traits..collect..Extend$LT$proc_macro2..TokenTree$GT$$GT$6extend17h7bc869d25d46bdb2E@4HA"
.LBB41_1:
	movq	%rdx, 16(%rsp)
	pushq	%rbp
	.seh_pushreg %rbp
	subq	$32, %rsp
	.seh_stackalloc 32
	leaq	128(%rdx), %rbp
.Ltmp452:
	.seh_endprologue
	testb	$1, 47(%rbp)
	jne	.LBB41_6
	jmp	.LBB41_5
.LBB41_5:
	.cv_loc	58 13 273 0
	addq	$32, %rsp
	popq	%rbp
	retq
.LBB41_6:
	.cv_loc	58 13 278 0
	movq	-88(%rbp), %rcx
	callq	_ZN4core3ptr157drop_in_place$LT$core..iter..adapters..map..Map$LT$proc_macro2..token_stream..IntoIter$C$quote..__private..parse_spanned..$u7b$$u7b$closure$u7d$$u7d$$GT$$GT$17h7cb5540f8a6c9cffE
	jmp	.LBB41_5
.Ltmp453:
.Lfunc_end41:
	.seh_handlerdata
	.section	.text,"xr",one_only,_ZN120_$LT$proc_macro2..fallback..TokenStream$u20$as$u20$core..iter..traits..collect..Extend$LT$proc_macro2..TokenTree$GT$$GT$6extend17h7bc869d25d46bdb2E
	.seh_endproc
	.section	.xdata,"dr",associative,_ZN120_$LT$proc_macro2..fallback..TokenStream$u20$as$u20$core..iter..traits..collect..Extend$LT$proc_macro2..TokenTree$GT$$GT$6extend17h7bc869d25d46bdb2E
	.p2align	2
$cppxdata$_ZN120_$LT$proc_macro2..fallback..TokenStream$u20$as$u20$core..iter..traits..collect..Extend$LT$proc_macro2..TokenTree$GT$$GT$6extend17h7bc869d25d46bdb2E:
	.long	429065506
	.long	1
	.long	($stateUnwindMap$_ZN120_$LT$proc_macro2..fallback..TokenStream$u20$as$u20$core..iter..traits..collect..Extend$LT$proc_macro2..TokenTree$GT$$GT$6extend17h7bc869d25d46bdb2E)@IMGREL
	.long	0
	.long	0
	.long	3
	.long	($ip2state$_ZN120_$LT$proc_macro2..fallback..TokenStream$u20$as$u20$core..iter..traits..collect..Extend$LT$proc_macro2..TokenTree$GT$$GT$6extend17h7bc869d25d46bdb2E)@IMGREL
	.long	184
	.long	0
	.long	1
$stateUnwindMap$_ZN120_$LT$proc_macro2..fallback..TokenStream$u20$as$u20$core..iter..traits..collect..Extend$LT$proc_macro2..TokenTree$GT$$GT$6extend17h7bc869d25d46bdb2E:
	.long	-1
	.long	"?dtor$1@?0?_ZN120_$LT$proc_macro2..fallback..TokenStream$u20$as$u20$core..iter..traits..collect..Extend$LT$proc_macro2..TokenTree$GT$$GT$6extend17h7bc869d25d46bdb2E@4HA"@IMGREL
$ip2state$_ZN120_$LT$proc_macro2..fallback..TokenStream$u20$as$u20$core..iter..traits..collect..Extend$LT$proc_macro2..TokenTree$GT$$GT$6extend17h7bc869d25d46bdb2E:
	.long	.Lfunc_begin41@IMGREL
	.long	-1
	.long	.Ltmp437@IMGREL+1
	.long	0
	.long	.Ltmp442@IMGREL+1
	.long	-1
	.section	.text,"xr",one_only,_ZN120_$LT$proc_macro2..fallback..TokenStream$u20$as$u20$core..iter..traits..collect..Extend$LT$proc_macro2..TokenTree$GT$$GT$6extend17h7bc869d25d46bdb2E

	.def	_ZN120_$LT$proc_macro2..fallback..TokenStream$u20$as$u20$core..iter..traits..collect..Extend$LT$proc_macro2..TokenTree$GT$$GT$6extend17h969798d41559eab4E;
	.scl	2;
	.type	32;
	.endef
	.section	.text,"xr",one_only,_ZN120_$LT$proc_macro2..fallback..TokenStream$u20$as$u20$core..iter..traits..collect..Extend$LT$proc_macro2..TokenTree$GT$$GT$6extend17h969798d41559eab4E
	.globl	_ZN120_$LT$proc_macro2..fallback..TokenStream$u20$as$u20$core..iter..traits..collect..Extend$LT$proc_macro2..TokenTree$GT$$GT$6extend17h969798d41559eab4E
	.p2align	4, 0x90
_ZN120_$LT$proc_macro2..fallback..TokenStream$u20$as$u20$core..iter..traits..collect..Extend$LT$proc_macro2..TokenTree$GT$$GT$6extend17h969798d41559eab4E:
.Lfunc_begin42:
	.cv_func_id 59
	.cv_loc	59 13 273 0
.seh_proc _ZN120_$LT$proc_macro2..fallback..TokenStream$u20$as$u20$core..iter..traits..collect..Extend$LT$proc_macro2..TokenTree$GT$$GT$6extend17h969798d41559eab4E
	.seh_handler __CxxFrameHandler3, @unwind, @except
	pushq	%rbp
	.seh_pushreg %rbp
	subq	$160, %rsp
	.seh_stackalloc 160
	leaq	128(%rsp), %rbp
	.seh_setframe %rbp, 128
	.seh_endprologue
	movq	$-2, 24(%rbp)
	movq	%rdx, -88(%rbp)
.Ltmp460:
	movq	%rcx, 16(%rbp)
.Ltmp461:
	.cv_loc	59 13 274 0
	movb	$0, 15(%rbp)
	movb	$1, 15(%rbp)
.Ltmp454:
	callq	_ZN11proc_macro25rcvec14RcVec$LT$T$GT$8make_mut17ha6bb23d16a380cb2E
.Ltmp462:
.Ltmp455:
	movq	%rax, -80(%rbp)
.Ltmp463:
	jmp	.LBB42_2
.Ltmp464:
.LBB42_2:
	movq	-88(%rbp), %rax
	movq	-80(%rbp), %rcx
	movq	%rcx, -72(%rbp)
.Ltmp465:
	.cv_loc	59 13 275 0
	movb	$0, 15(%rbp)
	vmovups	(%rax), %ymm0
	vmovups	%ymm0, -32(%rbp)
.Ltmp456:
	leaq	-64(%rbp), %rcx
	leaq	-32(%rbp), %rdx
	vzeroupper
	callq	_ZN63_$LT$I$u20$as$u20$core..iter..traits..collect..IntoIterator$GT$9into_iter17h110434ac93998458E
.Ltmp457:
	jmp	.LBB42_3
.Ltmp466:
.LBB42_3:
	.cv_loc	59 13 277 0
	leaq	-72(%rbp), %rax
	movq	%rax, (%rbp)
	.cv_loc	59 13 275 0
	movq	(%rbp), %rdx
.Ltmp458:
	leaq	-64(%rbp), %rcx
	callq	_ZN4core4iter6traits8iterator8Iterator8for_each17h6929854c1a4621a0E
.Ltmp459:
	jmp	.LBB42_4
.Ltmp467:
.LBB42_4:
	.cv_loc	59 13 278 0
	addq	$160, %rsp
	popq	%rbp
	retq
.Ltmp468:
	.seh_handlerdata
	.long	($cppxdata$_ZN120_$LT$proc_macro2..fallback..TokenStream$u20$as$u20$core..iter..traits..collect..Extend$LT$proc_macro2..TokenTree$GT$$GT$6extend17h969798d41559eab4E)@IMGREL
	.section	.text,"xr",one_only,_ZN120_$LT$proc_macro2..fallback..TokenStream$u20$as$u20$core..iter..traits..collect..Extend$LT$proc_macro2..TokenTree$GT$$GT$6extend17h969798d41559eab4E
	.seh_endproc
	.def	"?dtor$1@?0?_ZN120_$LT$proc_macro2..fallback..TokenStream$u20$as$u20$core..iter..traits..collect..Extend$LT$proc_macro2..TokenTree$GT$$GT$6extend17h969798d41559eab4E@4HA";
	.scl	3;
	.type	32;
	.endef
	.p2align	4, 0x90
"?dtor$1@?0?_ZN120_$LT$proc_macro2..fallback..TokenStream$u20$as$u20$core..iter..traits..collect..Extend$LT$proc_macro2..TokenTree$GT$$GT$6extend17h969798d41559eab4E@4HA":
.seh_proc "?dtor$1@?0?_ZN120_$LT$proc_macro2..fallback..TokenStream$u20$as$u20$core..iter..traits..collect..Extend$LT$proc_macro2..TokenTree$GT$$GT$6extend17h969798d41559eab4E@4HA"
.LBB42_1:
	movq	%rdx, 16(%rsp)
	pushq	%rbp
	.seh_pushreg %rbp
	subq	$32, %rsp
	.seh_stackalloc 32
	leaq	128(%rdx), %rbp
.Ltmp469:
	.seh_endprologue
	testb	$1, 15(%rbp)
	jne	.LBB42_6
	jmp	.LBB42_5
.LBB42_5:
	.cv_loc	59 13 273 0
	addq	$32, %rsp
	popq	%rbp
	retq
.LBB42_6:
	.cv_loc	59 13 278 0
	movq	-88(%rbp), %rcx
	callq	_ZN4core3ptr82drop_in_place$LT$core..iter..sources..once..Once$LT$proc_macro2..TokenTree$GT$$GT$17h302fd33d587dcbfeE
	jmp	.LBB42_5
.Ltmp470:
.Lfunc_end42:
	.seh_handlerdata
	.section	.text,"xr",one_only,_ZN120_$LT$proc_macro2..fallback..TokenStream$u20$as$u20$core..iter..traits..collect..Extend$LT$proc_macro2..TokenTree$GT$$GT$6extend17h969798d41559eab4E
	.seh_endproc
	.section	.xdata,"dr",associative,_ZN120_$LT$proc_macro2..fallback..TokenStream$u20$as$u20$core..iter..traits..collect..Extend$LT$proc_macro2..TokenTree$GT$$GT$6extend17h969798d41559eab4E
	.p2align	2
$cppxdata$_ZN120_$LT$proc_macro2..fallback..TokenStream$u20$as$u20$core..iter..traits..collect..Extend$LT$proc_macro2..TokenTree$GT$$GT$6extend17h969798d41559eab4E:
	.long	429065506
	.long	1
	.long	($stateUnwindMap$_ZN120_$LT$proc_macro2..fallback..TokenStream$u20$as$u20$core..iter..traits..collect..Extend$LT$proc_macro2..TokenTree$GT$$GT$6extend17h969798d41559eab4E)@IMGREL
	.long	0
	.long	0
	.long	3
	.long	($ip2state$_ZN120_$LT$proc_macro2..fallback..TokenStream$u20$as$u20$core..iter..traits..collect..Extend$LT$proc_macro2..TokenTree$GT$$GT$6extend17h969798d41559eab4E)@IMGREL
	.long	152
	.long	0
	.long	1
$stateUnwindMap$_ZN120_$LT$proc_macro2..fallback..TokenStream$u20$as$u20$core..iter..traits..collect..Extend$LT$proc_macro2..TokenTree$GT$$GT$6extend17h969798d41559eab4E:
	.long	-1
	.long	"?dtor$1@?0?_ZN120_$LT$proc_macro2..fallback..TokenStream$u20$as$u20$core..iter..traits..collect..Extend$LT$proc_macro2..TokenTree$GT$$GT$6extend17h969798d41559eab4E@4HA"@IMGREL
$ip2state$_ZN120_$LT$proc_macro2..fallback..TokenStream$u20$as$u20$core..iter..traits..collect..Extend$LT$proc_macro2..TokenTree$GT$$GT$6extend17h969798d41559eab4E:
	.long	.Lfunc_begin42@IMGREL
	.long	-1
	.long	.Ltmp454@IMGREL+1
	.long	0
	.long	.Ltmp459@IMGREL+1
	.long	-1
	.section	.text,"xr",one_only,_ZN120_$LT$proc_macro2..fallback..TokenStream$u20$as$u20$core..iter..traits..collect..Extend$LT$proc_macro2..TokenTree$GT$$GT$6extend17h969798d41559eab4E

	.def	_ZN120_$LT$proc_macro2..fallback..TokenStream$u20$as$u20$core..iter..traits..collect..Extend$LT$proc_macro2..TokenTree$GT$$GT$6extend17ha174f8feea5c126fE;
	.scl	2;
	.type	32;
	.endef
	.section	.text,"xr",one_only,_ZN120_$LT$proc_macro2..fallback..TokenStream$u20$as$u20$core..iter..traits..collect..Extend$LT$proc_macro2..TokenTree$GT$$GT$6extend17ha174f8feea5c126fE
	.globl	_ZN120_$LT$proc_macro2..fallback..TokenStream$u20$as$u20$core..iter..traits..collect..Extend$LT$proc_macro2..TokenTree$GT$$GT$6extend17ha174f8feea5c126fE
	.p2align	4, 0x90
_ZN120_$LT$proc_macro2..fallback..TokenStream$u20$as$u20$core..iter..traits..collect..Extend$LT$proc_macro2..TokenTree$GT$$GT$6extend17ha174f8feea5c126fE:
.Lfunc_begin43:
	.cv_func_id 60
	.cv_loc	60 13 273 0
.seh_proc _ZN120_$LT$proc_macro2..fallback..TokenStream$u20$as$u20$core..iter..traits..collect..Extend$LT$proc_macro2..TokenTree$GT$$GT$6extend17ha174f8feea5c126fE
	.seh_handler __CxxFrameHandler3, @unwind, @except
	pushq	%rbp
	.seh_pushreg %rbp
	subq	$192, %rsp
	.seh_stackalloc 192
	leaq	128(%rsp), %rbp
	.seh_setframe %rbp, 128
	.seh_endprologue
	movq	$-2, 56(%rbp)
	movq	%rdx, -88(%rbp)
.Ltmp477:
	movq	%rcx, 48(%rbp)
.Ltmp478:
	.cv_loc	60 13 274 0
	movb	$0, 47(%rbp)
	movb	$1, 47(%rbp)
.Ltmp471:
	callq	_ZN11proc_macro25rcvec14RcVec$LT$T$GT$8make_mut17ha6bb23d16a380cb2E
.Ltmp479:
.Ltmp472:
	movq	%rax, -80(%rbp)
.Ltmp480:
	jmp	.LBB43_2
.Ltmp481:
.LBB43_2:
	movq	-88(%rbp), %rax
	movq	-80(%rbp), %rcx
	movq	%rcx, -72(%rbp)
.Ltmp482:
	.cv_loc	60 13 275 0
	movb	$0, 47(%rbp)
	vmovups	(%rax), %ymm0
	vmovups	16(%rax), %ymm1
	vmovups	%ymm1, (%rbp)
	vmovups	%ymm0, -16(%rbp)
.Ltmp473:
	leaq	-64(%rbp), %rcx
	leaq	-16(%rbp), %rdx
	vzeroupper
	callq	_ZN63_$LT$I$u20$as$u20$core..iter..traits..collect..IntoIterator$GT$9into_iter17h82d31900ba2f0091E
.Ltmp474:
	jmp	.LBB43_3
.Ltmp483:
.LBB43_3:
	.cv_loc	60 13 277 0
	leaq	-72(%rbp), %rax
	movq	%rax, 32(%rbp)
	.cv_loc	60 13 275 0
	movq	32(%rbp), %rdx
.Ltmp475:
	leaq	-64(%rbp), %rcx
	callq	_ZN4core4iter6traits8iterator8Iterator8for_each17h9ea3b8ffb599f845E
.Ltmp476:
	jmp	.LBB43_4
.Ltmp484:
.LBB43_4:
	.cv_loc	60 13 278 0
	addq	$192, %rsp
	popq	%rbp
	retq
.Ltmp485:
	.seh_handlerdata
	.long	($cppxdata$_ZN120_$LT$proc_macro2..fallback..TokenStream$u20$as$u20$core..iter..traits..collect..Extend$LT$proc_macro2..TokenTree$GT$$GT$6extend17ha174f8feea5c126fE)@IMGREL
	.section	.text,"xr",one_only,_ZN120_$LT$proc_macro2..fallback..TokenStream$u20$as$u20$core..iter..traits..collect..Extend$LT$proc_macro2..TokenTree$GT$$GT$6extend17ha174f8feea5c126fE
	.seh_endproc
	.def	"?dtor$1@?0?_ZN120_$LT$proc_macro2..fallback..TokenStream$u20$as$u20$core..iter..traits..collect..Extend$LT$proc_macro2..TokenTree$GT$$GT$6extend17ha174f8feea5c126fE@4HA";
	.scl	3;
	.type	32;
	.endef
	.p2align	4, 0x90
"?dtor$1@?0?_ZN120_$LT$proc_macro2..fallback..TokenStream$u20$as$u20$core..iter..traits..collect..Extend$LT$proc_macro2..TokenTree$GT$$GT$6extend17ha174f8feea5c126fE@4HA":
.seh_proc "?dtor$1@?0?_ZN120_$LT$proc_macro2..fallback..TokenStream$u20$as$u20$core..iter..traits..collect..Extend$LT$proc_macro2..TokenTree$GT$$GT$6extend17ha174f8feea5c126fE@4HA"
.LBB43_1:
	movq	%rdx, 16(%rsp)
	pushq	%rbp
	.seh_pushreg %rbp
	subq	$32, %rsp
	.seh_stackalloc 32
	leaq	128(%rdx), %rbp
.Ltmp486:
	.seh_endprologue
	testb	$1, 47(%rbp)
	jne	.LBB43_6
	jmp	.LBB43_5
.LBB43_5:
	.cv_loc	60 13 273 0
	addq	$32, %rsp
	popq	%rbp
	retq
.LBB43_6:
	.cv_loc	60 13 278 0
	movq	-88(%rbp), %rcx
	callq	_ZN4core3ptr161drop_in_place$LT$core..iter..adapters..map..Map$LT$proc_macro2..token_stream..IntoIter$C$quote..__private..respan_token_tree..$u7b$$u7b$closure$u7d$$u7d$$GT$$GT$17hef05679331b998cfE
	jmp	.LBB43_5
.Ltmp487:
.Lfunc_end43:
	.seh_handlerdata
	.section	.text,"xr",one_only,_ZN120_$LT$proc_macro2..fallback..TokenStream$u20$as$u20$core..iter..traits..collect..Extend$LT$proc_macro2..TokenTree$GT$$GT$6extend17ha174f8feea5c126fE
	.seh_endproc
	.section	.xdata,"dr",associative,_ZN120_$LT$proc_macro2..fallback..TokenStream$u20$as$u20$core..iter..traits..collect..Extend$LT$proc_macro2..TokenTree$GT$$GT$6extend17ha174f8feea5c126fE
	.p2align	2
$cppxdata$_ZN120_$LT$proc_macro2..fallback..TokenStream$u20$as$u20$core..iter..traits..collect..Extend$LT$proc_macro2..TokenTree$GT$$GT$6extend17ha174f8feea5c126fE:
	.long	429065506
	.long	1
	.long	($stateUnwindMap$_ZN120_$LT$proc_macro2..fallback..TokenStream$u20$as$u20$core..iter..traits..collect..Extend$LT$proc_macro2..TokenTree$GT$$GT$6extend17ha174f8feea5c126fE)@IMGREL
	.long	0
	.long	0
	.long	3
	.long	($ip2state$_ZN120_$LT$proc_macro2..fallback..TokenStream$u20$as$u20$core..iter..traits..collect..Extend$LT$proc_macro2..TokenTree$GT$$GT$6extend17ha174f8feea5c126fE)@IMGREL
	.long	184
	.long	0
	.long	1
$stateUnwindMap$_ZN120_$LT$proc_macro2..fallback..TokenStream$u20$as$u20$core..iter..traits..collect..Extend$LT$proc_macro2..TokenTree$GT$$GT$6extend17ha174f8feea5c126fE:
	.long	-1
	.long	"?dtor$1@?0?_ZN120_$LT$proc_macro2..fallback..TokenStream$u20$as$u20$core..iter..traits..collect..Extend$LT$proc_macro2..TokenTree$GT$$GT$6extend17ha174f8feea5c126fE@4HA"@IMGREL
$ip2state$_ZN120_$LT$proc_macro2..fallback..TokenStream$u20$as$u20$core..iter..traits..collect..Extend$LT$proc_macro2..TokenTree$GT$$GT$6extend17ha174f8feea5c126fE:
	.long	.Lfunc_begin43@IMGREL
	.long	-1
	.long	.Ltmp471@IMGREL+1
	.long	0
	.long	.Ltmp476@IMGREL+1
	.long	-1
	.section	.text,"xr",one_only,_ZN120_$LT$proc_macro2..fallback..TokenStream$u20$as$u20$core..iter..traits..collect..Extend$LT$proc_macro2..TokenTree$GT$$GT$6extend17ha174f8feea5c126fE

	.def	_ZN120_$LT$proc_macro2..fallback..TokenStream$u20$as$u20$core..iter..traits..collect..Extend$LT$proc_macro2..TokenTree$GT$$GT$6extend17hf1656c22e544feb4E;
	.scl	2;
	.type	32;
	.endef
	.section	.text,"xr",one_only,_ZN120_$LT$proc_macro2..fallback..TokenStream$u20$as$u20$core..iter..traits..collect..Extend$LT$proc_macro2..TokenTree$GT$$GT$6extend17hf1656c22e544feb4E
	.globl	_ZN120_$LT$proc_macro2..fallback..TokenStream$u20$as$u20$core..iter..traits..collect..Extend$LT$proc_macro2..TokenTree$GT$$GT$6extend17hf1656c22e544feb4E
	.p2align	4, 0x90
_ZN120_$LT$proc_macro2..fallback..TokenStream$u20$as$u20$core..iter..traits..collect..Extend$LT$proc_macro2..TokenTree$GT$$GT$6extend17hf1656c22e544feb4E:
.Lfunc_begin44:
	.cv_func_id 61
	.cv_loc	61 13 273 0
.seh_proc _ZN120_$LT$proc_macro2..fallback..TokenStream$u20$as$u20$core..iter..traits..collect..Extend$LT$proc_macro2..TokenTree$GT$$GT$6extend17hf1656c22e544feb4E
	.seh_handler __CxxFrameHandler3, @unwind, @except
	pushq	%rbp
	.seh_pushreg %rbp
	subq	$144, %rsp
	.seh_stackalloc 144
	leaq	128(%rsp), %rbp
	.seh_setframe %rbp, 128
	.seh_endprologue
	movq	$-2, 8(%rbp)
	movq	%rdx, -96(%rbp)
.Ltmp494:
	movq	%rcx, (%rbp)
.Ltmp495:
	.cv_loc	61 13 274 0
	movb	$0, -1(%rbp)
	movb	$1, -1(%rbp)
.Ltmp488:
	callq	_ZN11proc_macro25rcvec14RcVec$LT$T$GT$8make_mut17ha6bb23d16a380cb2E
.Ltmp496:
.Ltmp489:
	movq	%rax, -88(%rbp)
.Ltmp497:
	jmp	.LBB44_2
.Ltmp498:
.LBB44_2:
	movq	-96(%rbp), %rax
	movq	-88(%rbp), %rcx
	movq	%rcx, -80(%rbp)
.Ltmp499:
	.cv_loc	61 13 275 0
	movb	$0, -1(%rbp)
	movq	16(%rax), %rcx
	movq	%rcx, -32(%rbp)
	vmovdqu	(%rax), %xmm0
	vmovdqa	%xmm0, -48(%rbp)
.Ltmp490:
	leaq	-72(%rbp), %rcx
	leaq	-48(%rbp), %rdx
	callq	_ZN63_$LT$I$u20$as$u20$core..iter..traits..collect..IntoIterator$GT$9into_iter17h54fb3fc4a89e9b72E
.Ltmp491:
	jmp	.LBB44_3
.Ltmp500:
.LBB44_3:
	.cv_loc	61 13 277 0
	leaq	-80(%rbp), %rax
	movq	%rax, -16(%rbp)
	.cv_loc	61 13 275 0
	movq	-16(%rbp), %rdx
.Ltmp492:
	leaq	-72(%rbp), %rcx
	callq	_ZN4core4iter6traits8iterator8Iterator8for_each17h412a62e64adeceb0E
.Ltmp493:
	jmp	.LBB44_4
.Ltmp501:
.LBB44_4:
	.cv_loc	61 13 278 0
	addq	$144, %rsp
	popq	%rbp
	retq
.Ltmp502:
	.seh_handlerdata
	.long	($cppxdata$_ZN120_$LT$proc_macro2..fallback..TokenStream$u20$as$u20$core..iter..traits..collect..Extend$LT$proc_macro2..TokenTree$GT$$GT$6extend17hf1656c22e544feb4E)@IMGREL
	.section	.text,"xr",one_only,_ZN120_$LT$proc_macro2..fallback..TokenStream$u20$as$u20$core..iter..traits..collect..Extend$LT$proc_macro2..TokenTree$GT$$GT$6extend17hf1656c22e544feb4E
	.seh_endproc
	.def	"?dtor$1@?0?_ZN120_$LT$proc_macro2..fallback..TokenStream$u20$as$u20$core..iter..traits..collect..Extend$LT$proc_macro2..TokenTree$GT$$GT$6extend17hf1656c22e544feb4E@4HA";
	.scl	3;
	.type	32;
	.endef
	.p2align	4, 0x90
"?dtor$1@?0?_ZN120_$LT$proc_macro2..fallback..TokenStream$u20$as$u20$core..iter..traits..collect..Extend$LT$proc_macro2..TokenTree$GT$$GT$6extend17hf1656c22e544feb4E@4HA":
.seh_proc "?dtor$1@?0?_ZN120_$LT$proc_macro2..fallback..TokenStream$u20$as$u20$core..iter..traits..collect..Extend$LT$proc_macro2..TokenTree$GT$$GT$6extend17hf1656c22e544feb4E@4HA"
.LBB44_1:
	movq	%rdx, 16(%rsp)
	pushq	%rbp
	.seh_pushreg %rbp
	subq	$32, %rsp
	.seh_stackalloc 32
	leaq	128(%rdx), %rbp
.Ltmp503:
	.seh_endprologue
	testb	$1, -1(%rbp)
	jne	.LBB44_6
	jmp	.LBB44_5
.LBB44_5:
	.cv_loc	61 13 273 0
	addq	$32, %rsp
	popq	%rbp
	retq
.LBB44_6:
	.cv_loc	61 13 278 0
	jmp	.LBB44_5
.Ltmp504:
.Lfunc_end44:
	.seh_handlerdata
	.section	.text,"xr",one_only,_ZN120_$LT$proc_macro2..fallback..TokenStream$u20$as$u20$core..iter..traits..collect..Extend$LT$proc_macro2..TokenTree$GT$$GT$6extend17hf1656c22e544feb4E
	.seh_endproc
	.section	.xdata,"dr",associative,_ZN120_$LT$proc_macro2..fallback..TokenStream$u20$as$u20$core..iter..traits..collect..Extend$LT$proc_macro2..TokenTree$GT$$GT$6extend17hf1656c22e544feb4E
	.p2align	2
$cppxdata$_ZN120_$LT$proc_macro2..fallback..TokenStream$u20$as$u20$core..iter..traits..collect..Extend$LT$proc_macro2..TokenTree$GT$$GT$6extend17hf1656c22e544feb4E:
	.long	429065506
	.long	1
	.long	($stateUnwindMap$_ZN120_$LT$proc_macro2..fallback..TokenStream$u20$as$u20$core..iter..traits..collect..Extend$LT$proc_macro2..TokenTree$GT$$GT$6extend17hf1656c22e544feb4E)@IMGREL
	.long	0
	.long	0
	.long	3
	.long	($ip2state$_ZN120_$LT$proc_macro2..fallback..TokenStream$u20$as$u20$core..iter..traits..collect..Extend$LT$proc_macro2..TokenTree$GT$$GT$6extend17hf1656c22e544feb4E)@IMGREL
	.long	136
	.long	0
	.long	1
$stateUnwindMap$_ZN120_$LT$proc_macro2..fallback..TokenStream$u20$as$u20$core..iter..traits..collect..Extend$LT$proc_macro2..TokenTree$GT$$GT$6extend17hf1656c22e544feb4E:
	.long	-1
	.long	"?dtor$1@?0?_ZN120_$LT$proc_macro2..fallback..TokenStream$u20$as$u20$core..iter..traits..collect..Extend$LT$proc_macro2..TokenTree$GT$$GT$6extend17hf1656c22e544feb4E@4HA"@IMGREL
$ip2state$_ZN120_$LT$proc_macro2..fallback..TokenStream$u20$as$u20$core..iter..traits..collect..Extend$LT$proc_macro2..TokenTree$GT$$GT$6extend17hf1656c22e544feb4E:
	.long	.Lfunc_begin44@IMGREL
	.long	-1
	.long	.Ltmp488@IMGREL+1
	.long	0
	.long	.Ltmp493@IMGREL+1
	.long	-1
	.section	.text,"xr",one_only,_ZN120_$LT$proc_macro2..fallback..TokenStream$u20$as$u20$core..iter..traits..collect..Extend$LT$proc_macro2..TokenTree$GT$$GT$6extend17hf1656c22e544feb4E

	.def	_ZN120_$LT$proc_macro2..fallback..TokenStream$u20$as$u20$core..iter..traits..collect..Extend$LT$proc_macro2..TokenTree$GT$$GT$6extend28_$u7b$$u7b$closure$u7d$$u7d$17h0907cd0495de994cE;
	.scl	2;
	.type	32;
	.endef
	.section	.text,"xr",one_only,_ZN120_$LT$proc_macro2..fallback..TokenStream$u20$as$u20$core..iter..traits..collect..Extend$LT$proc_macro2..TokenTree$GT$$GT$6extend28_$u7b$$u7b$closure$u7d$$u7d$17h0907cd0495de994cE
	.globl	_ZN120_$LT$proc_macro2..fallback..TokenStream$u20$as$u20$core..iter..traits..collect..Extend$LT$proc_macro2..TokenTree$GT$$GT$6extend28_$u7b$$u7b$closure$u7d$$u7d$17h0907cd0495de994cE
	.p2align	4, 0x90
_ZN120_$LT$proc_macro2..fallback..TokenStream$u20$as$u20$core..iter..traits..collect..Extend$LT$proc_macro2..TokenTree$GT$$GT$6extend28_$u7b$$u7b$closure$u7d$$u7d$17h0907cd0495de994cE:
.Lfunc_begin45:
	.cv_func_id 62
	.cv_loc	62 13 277 0
.seh_proc _ZN120_$LT$proc_macro2..fallback..TokenStream$u20$as$u20$core..iter..traits..collect..Extend$LT$proc_macro2..TokenTree$GT$$GT$6extend28_$u7b$$u7b$closure$u7d$$u7d$17h0907cd0495de994cE
	.seh_handler __CxxFrameHandler3, @unwind, @except
	pushq	%rbp
	.seh_pushreg %rbp
	subq	$112, %rsp
	.seh_stackalloc 112
	leaq	112(%rsp), %rbp
	.seh_setframe %rbp, 112
	.seh_endprologue
	movq	$-2, -8(%rbp)
	movq	%rdx, -80(%rbp)
.Ltmp509:
	movq	%rcx, -24(%rbp)
	movq	-24(%rbp), %rax
	movq	(%rax), %rax
	movq	%rax, -16(%rbp)
.Ltmp510:
	movb	$0, -25(%rbp)
	movb	$1, -25(%rbp)
	movq	(%rcx), %rcx
.Ltmp505:
	callq	_ZN11proc_macro25rcvec17RcVecMut$LT$T$GT$6as_mut17h6b1ade581a14f5c7E
.Ltmp511:
.Ltmp506:
	movq	%rax, -72(%rbp)
.Ltmp512:
	jmp	.LBB45_2
.Ltmp513:
.LBB45_2:
	movq	-72(%rbp), %rcx
	movq	-80(%rbp), %rax
	movb	$0, -25(%rbp)
	vmovups	(%rax), %ymm0
	vmovups	%ymm0, -64(%rbp)
.Ltmp507:
	leaq	-64(%rbp), %rdx
	vzeroupper
	callq	_ZN11proc_macro28fallback26push_token_from_proc_macro17hda5ff0689596df82E
.Ltmp508:
	jmp	.LBB45_3
.Ltmp514:
.LBB45_3:
	addq	$112, %rsp
	popq	%rbp
	retq
.Ltmp515:
	.seh_handlerdata
	.long	($cppxdata$_ZN120_$LT$proc_macro2..fallback..TokenStream$u20$as$u20$core..iter..traits..collect..Extend$LT$proc_macro2..TokenTree$GT$$GT$6extend28_$u7b$$u7b$closure$u7d$$u7d$17h0907cd0495de994cE)@IMGREL
	.section	.text,"xr",one_only,_ZN120_$LT$proc_macro2..fallback..TokenStream$u20$as$u20$core..iter..traits..collect..Extend$LT$proc_macro2..TokenTree$GT$$GT$6extend28_$u7b$$u7b$closure$u7d$$u7d$17h0907cd0495de994cE
	.seh_endproc
	.def	"?dtor$1@?0?_ZN120_$LT$proc_macro2..fallback..TokenStream$u20$as$u20$core..iter..traits..collect..Extend$LT$proc_macro2..TokenTree$GT$$GT$6extend28_$u7b$$u7b$closure$u7d$$u7d$17h0907cd0495de994cE@4HA";
	.scl	3;
	.type	32;
	.endef
	.p2align	4, 0x90
"?dtor$1@?0?_ZN120_$LT$proc_macro2..fallback..TokenStream$u20$as$u20$core..iter..traits..collect..Extend$LT$proc_macro2..TokenTree$GT$$GT$6extend28_$u7b$$u7b$closure$u7d$$u7d$17h0907cd0495de994cE@4HA":
.seh_proc "?dtor$1@?0?_ZN120_$LT$proc_macro2..fallback..TokenStream$u20$as$u20$core..iter..traits..collect..Extend$LT$proc_macro2..TokenTree$GT$$GT$6extend28_$u7b$$u7b$closure$u7d$$u7d$17h0907cd0495de994cE@4HA"
.LBB45_1:
	movq	%rdx, 16(%rsp)
	pushq	%rbp
	.seh_pushreg %rbp
	subq	$32, %rsp
	.seh_stackalloc 32
	leaq	112(%rdx), %rbp
.Ltmp516:
	.seh_endprologue
	testb	$1, -25(%rbp)
	jne	.LBB45_5
	jmp	.LBB45_4
.LBB45_4:
	addq	$32, %rsp
	popq	%rbp
	retq
.LBB45_5:
	movq	-80(%rbp), %rcx
	callq	_ZN4core3ptr43drop_in_place$LT$proc_macro2..TokenTree$GT$17hf6f08038f1073bfbE
	jmp	.LBB45_4
.Ltmp517:
.Lfunc_end45:
	.seh_handlerdata
	.section	.text,"xr",one_only,_ZN120_$LT$proc_macro2..fallback..TokenStream$u20$as$u20$core..iter..traits..collect..Extend$LT$proc_macro2..TokenTree$GT$$GT$6extend28_$u7b$$u7b$closure$u7d$$u7d$17h0907cd0495de994cE
	.seh_endproc
	.section	.xdata,"dr",associative,_ZN120_$LT$proc_macro2..fallback..TokenStream$u20$as$u20$core..iter..traits..collect..Extend$LT$proc_macro2..TokenTree$GT$$GT$6extend28_$u7b$$u7b$closure$u7d$$u7d$17h0907cd0495de994cE
	.p2align	2
$cppxdata$_ZN120_$LT$proc_macro2..fallback..TokenStream$u20$as$u20$core..iter..traits..collect..Extend$LT$proc_macro2..TokenTree$GT$$GT$6extend28_$u7b$$u7b$closure$u7d$$u7d$17h0907cd0495de994cE:
	.long	429065506
	.long	1
	.long	($stateUnwindMap$_ZN120_$LT$proc_macro2..fallback..TokenStream$u20$as$u20$core..iter..traits..collect..Extend$LT$proc_macro2..TokenTree$GT$$GT$6extend28_$u7b$$u7b$closure$u7d$$u7d$17h0907cd0495de994cE)@IMGREL
	.long	0
	.long	0
	.long	3
	.long	($ip2state$_ZN120_$LT$proc_macro2..fallback..TokenStream$u20$as$u20$core..iter..traits..collect..Extend$LT$proc_macro2..TokenTree$GT$$GT$6extend28_$u7b$$u7b$closure$u7d$$u7d$17h0907cd0495de994cE)@IMGREL
	.long	104
	.long	0
	.long	1
$stateUnwindMap$_ZN120_$LT$proc_macro2..fallback..TokenStream$u20$as$u20$core..iter..traits..collect..Extend$LT$proc_macro2..TokenTree$GT$$GT$6extend28_$u7b$$u7b$closure$u7d$$u7d$17h0907cd0495de994cE:
	.long	-1
	.long	"?dtor$1@?0?_ZN120_$LT$proc_macro2..fallback..TokenStream$u20$as$u20$core..iter..traits..collect..Extend$LT$proc_macro2..TokenTree$GT$$GT$6extend28_$u7b$$u7b$closure$u7d$$u7d$17h0907cd0495de994cE@4HA"@IMGREL
$ip2state$_ZN120_$LT$proc_macro2..fallback..TokenStream$u20$as$u20$core..iter..traits..collect..Extend$LT$proc_macro2..TokenTree$GT$$GT$6extend28_$u7b$$u7b$closure$u7d$$u7d$17h0907cd0495de994cE:
	.long	.Lfunc_begin45@IMGREL
	.long	-1
	.long	.Ltmp505@IMGREL+1
	.long	0
	.long	.Ltmp508@IMGREL+1
	.long	-1
	.section	.text,"xr",one_only,_ZN120_$LT$proc_macro2..fallback..TokenStream$u20$as$u20$core..iter..traits..collect..Extend$LT$proc_macro2..TokenTree$GT$$GT$6extend28_$u7b$$u7b$closure$u7d$$u7d$17h0907cd0495de994cE

	.def	_ZN120_$LT$proc_macro2..fallback..TokenStream$u20$as$u20$core..iter..traits..collect..Extend$LT$proc_macro2..TokenTree$GT$$GT$6extend28_$u7b$$u7b$closure$u7d$$u7d$17h150529978d5fe6c5E;
	.scl	2;
	.type	32;
	.endef
	.section	.text,"xr",one_only,_ZN120_$LT$proc_macro2..fallback..TokenStream$u20$as$u20$core..iter..traits..collect..Extend$LT$proc_macro2..TokenTree$GT$$GT$6extend28_$u7b$$u7b$closure$u7d$$u7d$17h150529978d5fe6c5E
	.globl	_ZN120_$LT$proc_macro2..fallback..TokenStream$u20$as$u20$core..iter..traits..collect..Extend$LT$proc_macro2..TokenTree$GT$$GT$6extend28_$u7b$$u7b$closure$u7d$$u7d$17h150529978d5fe6c5E
	.p2align	4, 0x90
_ZN120_$LT$proc_macro2..fallback..TokenStream$u20$as$u20$core..iter..traits..collect..Extend$LT$proc_macro2..TokenTree$GT$$GT$6extend28_$u7b$$u7b$closure$u7d$$u7d$17h150529978d5fe6c5E:
.Lfunc_begin46:
	.cv_func_id 63
	.cv_loc	63 13 277 0
.seh_proc _ZN120_$LT$proc_macro2..fallback..TokenStream$u20$as$u20$core..iter..traits..collect..Extend$LT$proc_macro2..TokenTree$GT$$GT$6extend28_$u7b$$u7b$closure$u7d$$u7d$17h150529978d5fe6c5E
	.seh_handler __CxxFrameHandler3, @unwind, @except
	pushq	%rbp
	.seh_pushreg %rbp
	subq	$112, %rsp
	.seh_stackalloc 112
	leaq	112(%rsp), %rbp
	.seh_setframe %rbp, 112
	.seh_endprologue
	movq	$-2, -8(%rbp)
	movq	%rdx, -80(%rbp)
.Ltmp522:
	movq	%rcx, -24(%rbp)
	movq	-24(%rbp), %rax
	movq	(%rax), %rax
	movq	%rax, -16(%rbp)
.Ltmp523:
	movb	$0, -25(%rbp)
	movb	$1, -25(%rbp)
	movq	(%rcx), %rcx
.Ltmp518:
	callq	_ZN11proc_macro25rcvec17RcVecMut$LT$T$GT$6as_mut17h6b1ade581a14f5c7E
.Ltmp524:
.Ltmp519:
	movq	%rax, -72(%rbp)
.Ltmp525:
	jmp	.LBB46_2
.Ltmp526:
.LBB46_2:
	movq	-72(%rbp), %rcx
	movq	-80(%rbp), %rax
	movb	$0, -25(%rbp)
	vmovups	(%rax), %ymm0
	vmovups	%ymm0, -64(%rbp)
.Ltmp520:
	leaq	-64(%rbp), %rdx
	vzeroupper
	callq	_ZN11proc_macro28fallback26push_token_from_proc_macro17hda5ff0689596df82E
.Ltmp521:
	jmp	.LBB46_3
.Ltmp527:
.LBB46_3:
	addq	$112, %rsp
	popq	%rbp
	retq
.Ltmp528:
	.seh_handlerdata
	.long	($cppxdata$_ZN120_$LT$proc_macro2..fallback..TokenStream$u20$as$u20$core..iter..traits..collect..Extend$LT$proc_macro2..TokenTree$GT$$GT$6extend28_$u7b$$u7b$closure$u7d$$u7d$17h150529978d5fe6c5E)@IMGREL
	.section	.text,"xr",one_only,_ZN120_$LT$proc_macro2..fallback..TokenStream$u20$as$u20$core..iter..traits..collect..Extend$LT$proc_macro2..TokenTree$GT$$GT$6extend28_$u7b$$u7b$closure$u7d$$u7d$17h150529978d5fe6c5E
	.seh_endproc
	.def	"?dtor$1@?0?_ZN120_$LT$proc_macro2..fallback..TokenStream$u20$as$u20$core..iter..traits..collect..Extend$LT$proc_macro2..TokenTree$GT$$GT$6extend28_$u7b$$u7b$closure$u7d$$u7d$17h150529978d5fe6c5E@4HA";
	.scl	3;
	.type	32;
	.endef
	.p2align	4, 0x90
"?dtor$1@?0?_ZN120_$LT$proc_macro2..fallback..TokenStream$u20$as$u20$core..iter..traits..collect..Extend$LT$proc_macro2..TokenTree$GT$$GT$6extend28_$u7b$$u7b$closure$u7d$$u7d$17h150529978d5fe6c5E@4HA":
.seh_proc "?dtor$1@?0?_ZN120_$LT$proc_macro2..fallback..TokenStream$u20$as$u20$core..iter..traits..collect..Extend$LT$proc_macro2..TokenTree$GT$$GT$6extend28_$u7b$$u7b$closure$u7d$$u7d$17h150529978d5fe6c5E@4HA"
.LBB46_1:
	movq	%rdx, 16(%rsp)
	pushq	%rbp
	.seh_pushreg %rbp
	subq	$32, %rsp
	.seh_stackalloc 32
	leaq	112(%rdx), %rbp
.Ltmp529:
	.seh_endprologue
	testb	$1, -25(%rbp)
	jne	.LBB46_5
	jmp	.LBB46_4
.LBB46_4:
	addq	$32, %rsp
	popq	%rbp
	retq
.LBB46_5:
	movq	-80(%rbp), %rcx
	callq	_ZN4core3ptr43drop_in_place$LT$proc_macro2..TokenTree$GT$17hf6f08038f1073bfbE
	jmp	.LBB46_4
.Ltmp530:
.Lfunc_end46:
	.seh_handlerdata
	.section	.text,"xr",one_only,_ZN120_$LT$proc_macro2..fallback..TokenStream$u20$as$u20$core..iter..traits..collect..Extend$LT$proc_macro2..TokenTree$GT$$GT$6extend28_$u7b$$u7b$closure$u7d$$u7d$17h150529978d5fe6c5E
	.seh_endproc
	.section	.xdata,"dr",associative,_ZN120_$LT$proc_macro2..fallback..TokenStream$u20$as$u20$core..iter..traits..collect..Extend$LT$proc_macro2..TokenTree$GT$$GT$6extend28_$u7b$$u7b$closure$u7d$$u7d$17h150529978d5fe6c5E
	.p2align	2
$cppxdata$_ZN120_$LT$proc_macro2..fallback..TokenStream$u20$as$u20$core..iter..traits..collect..Extend$LT$proc_macro2..TokenTree$GT$$GT$6extend28_$u7b$$u7b$closure$u7d$$u7d$17h150529978d5fe6c5E:
	.long	429065506
	.long	1
	.long	($stateUnwindMap$_ZN120_$LT$proc_macro2..fallback..TokenStream$u20$as$u20$core..iter..traits..collect..Extend$LT$proc_macro2..TokenTree$GT$$GT$6extend28_$u7b$$u7b$closure$u7d$$u7d$17h150529978d5fe6c5E)@IMGREL
	.long	0
	.long	0
	.long	3
	.long	($ip2state$_ZN120_$LT$proc_macro2..fallback..TokenStream$u20$as$u20$core..iter..traits..collect..Extend$LT$proc_macro2..TokenTree$GT$$GT$6extend28_$u7b$$u7b$closure$u7d$$u7d$17h150529978d5fe6c5E)@IMGREL
	.long	104
	.long	0
	.long	1
$stateUnwindMap$_ZN120_$LT$proc_macro2..fallback..TokenStream$u20$as$u20$core..iter..traits..collect..Extend$LT$proc_macro2..TokenTree$GT$$GT$6extend28_$u7b$$u7b$closure$u7d$$u7d$17h150529978d5fe6c5E:
	.long	-1
	.long	"?dtor$1@?0?_ZN120_$LT$proc_macro2..fallback..TokenStream$u20$as$u20$core..iter..traits..collect..Extend$LT$proc_macro2..TokenTree$GT$$GT$6extend28_$u7b$$u7b$closure$u7d$$u7d$17h150529978d5fe6c5E@4HA"@IMGREL
$ip2state$_ZN120_$LT$proc_macro2..fallback..TokenStream$u20$as$u20$core..iter..traits..collect..Extend$LT$proc_macro2..TokenTree$GT$$GT$6extend28_$u7b$$u7b$closure$u7d$$u7d$17h150529978d5fe6c5E:
	.long	.Lfunc_begin46@IMGREL
	.long	-1
	.long	.Ltmp518@IMGREL+1
	.long	0
	.long	.Ltmp521@IMGREL+1
	.long	-1
	.section	.text,"xr",one_only,_ZN120_$LT$proc_macro2..fallback..TokenStream$u20$as$u20$core..iter..traits..collect..Extend$LT$proc_macro2..TokenTree$GT$$GT$6extend28_$u7b$$u7b$closure$u7d$$u7d$17h150529978d5fe6c5E

	.def	_ZN120_$LT$proc_macro2..fallback..TokenStream$u20$as$u20$core..iter..traits..collect..Extend$LT$proc_macro2..TokenTree$GT$$GT$6extend28_$u7b$$u7b$closure$u7d$$u7d$17h1ec620f990ae2edeE;
	.scl	2;
	.type	32;
	.endef
	.section	.text,"xr",one_only,_ZN120_$LT$proc_macro2..fallback..TokenStream$u20$as$u20$core..iter..traits..collect..Extend$LT$proc_macro2..TokenTree$GT$$GT$6extend28_$u7b$$u7b$closure$u7d$$u7d$17h1ec620f990ae2edeE
	.globl	_ZN120_$LT$proc_macro2..fallback..TokenStream$u20$as$u20$core..iter..traits..collect..Extend$LT$proc_macro2..TokenTree$GT$$GT$6extend28_$u7b$$u7b$closure$u7d$$u7d$17h1ec620f990ae2edeE
	.p2align	4, 0x90
_ZN120_$LT$proc_macro2..fallback..TokenStream$u20$as$u20$core..iter..traits..collect..Extend$LT$proc_macro2..TokenTree$GT$$GT$6extend28_$u7b$$u7b$closure$u7d$$u7d$17h1ec620f990ae2edeE:
.Lfunc_begin47:
	.cv_func_id 64
	.cv_loc	64 13 277 0
.seh_proc _ZN120_$LT$proc_macro2..fallback..TokenStream$u20$as$u20$core..iter..traits..collect..Extend$LT$proc_macro2..TokenTree$GT$$GT$6extend28_$u7b$$u7b$closure$u7d$$u7d$17h1ec620f990ae2edeE
	.seh_handler __CxxFrameHandler3, @unwind, @except
	pushq	%rbp
	.seh_pushreg %rbp
	subq	$112, %rsp
	.seh_stackalloc 112
	leaq	112(%rsp), %rbp
	.seh_setframe %rbp, 112
	.seh_endprologue
	movq	$-2, -8(%rbp)
	movq	%rdx, -80(%rbp)
.Ltmp535:
	movq	%rcx, -24(%rbp)
	movq	-24(%rbp), %rax
	movq	(%rax), %rax
	movq	%rax, -16(%rbp)
.Ltmp536:
	movb	$0, -25(%rbp)
	movb	$1, -25(%rbp)
	movq	(%rcx), %rcx
.Ltmp531:
	callq	_ZN11proc_macro25rcvec17RcVecMut$LT$T$GT$6as_mut17h6b1ade581a14f5c7E
.Ltmp537:
.Ltmp532:
	movq	%rax, -72(%rbp)
.Ltmp538:
	jmp	.LBB47_2
.Ltmp539:
.LBB47_2:
	movq	-72(%rbp), %rcx
	movq	-80(%rbp), %rax
	movb	$0, -25(%rbp)
	vmovups	(%rax), %ymm0
	vmovups	%ymm0, -64(%rbp)
.Ltmp533:
	leaq	-64(%rbp), %rdx
	vzeroupper
	callq	_ZN11proc_macro28fallback26push_token_from_proc_macro17hda5ff0689596df82E
.Ltmp534:
	jmp	.LBB47_3
.Ltmp540:
.LBB47_3:
	addq	$112, %rsp
	popq	%rbp
	retq
.Ltmp541:
	.seh_handlerdata
	.long	($cppxdata$_ZN120_$LT$proc_macro2..fallback..TokenStream$u20$as$u20$core..iter..traits..collect..Extend$LT$proc_macro2..TokenTree$GT$$GT$6extend28_$u7b$$u7b$closure$u7d$$u7d$17h1ec620f990ae2edeE)@IMGREL
	.section	.text,"xr",one_only,_ZN120_$LT$proc_macro2..fallback..TokenStream$u20$as$u20$core..iter..traits..collect..Extend$LT$proc_macro2..TokenTree$GT$$GT$6extend28_$u7b$$u7b$closure$u7d$$u7d$17h1ec620f990ae2edeE
	.seh_endproc
	.def	"?dtor$1@?0?_ZN120_$LT$proc_macro2..fallback..TokenStream$u20$as$u20$core..iter..traits..collect..Extend$LT$proc_macro2..TokenTree$GT$$GT$6extend28_$u7b$$u7b$closure$u7d$$u7d$17h1ec620f990ae2edeE@4HA";
	.scl	3;
	.type	32;
	.endef
	.p2align	4, 0x90
"?dtor$1@?0?_ZN120_$LT$proc_macro2..fallback..TokenStream$u20$as$u20$core..iter..traits..collect..Extend$LT$proc_macro2..TokenTree$GT$$GT$6extend28_$u7b$$u7b$closure$u7d$$u7d$17h1ec620f990ae2edeE@4HA":
.seh_proc "?dtor$1@?0?_ZN120_$LT$proc_macro2..fallback..TokenStream$u20$as$u20$core..iter..traits..collect..Extend$LT$proc_macro2..TokenTree$GT$$GT$6extend28_$u7b$$u7b$closure$u7d$$u7d$17h1ec620f990ae2edeE@4HA"
.LBB47_1:
	movq	%rdx, 16(%rsp)
	pushq	%rbp
	.seh_pushreg %rbp
	subq	$32, %rsp
	.seh_stackalloc 32
	leaq	112(%rdx), %rbp
.Ltmp542:
	.seh_endprologue
	testb	$1, -25(%rbp)
	jne	.LBB47_5
	jmp	.LBB47_4
.LBB47_4:
	addq	$32, %rsp
	popq	%rbp
	retq
.LBB47_5:
	movq	-80(%rbp), %rcx
	callq	_ZN4core3ptr43drop_in_place$LT$proc_macro2..TokenTree$GT$17hf6f08038f1073bfbE
	jmp	.LBB47_4
.Ltmp543:
.Lfunc_end47:
	.seh_handlerdata
	.section	.text,"xr",one_only,_ZN120_$LT$proc_macro2..fallback..TokenStream$u20$as$u20$core..iter..traits..collect..Extend$LT$proc_macro2..TokenTree$GT$$GT$6extend28_$u7b$$u7b$closure$u7d$$u7d$17h1ec620f990ae2edeE
	.seh_endproc
	.section	.xdata,"dr",associative,_ZN120_$LT$proc_macro2..fallback..TokenStream$u20$as$u20$core..iter..traits..collect..Extend$LT$proc_macro2..TokenTree$GT$$GT$6extend28_$u7b$$u7b$closure$u7d$$u7d$17h1ec620f990ae2edeE
	.p2align	2
$cppxdata$_ZN120_$LT$proc_macro2..fallback..TokenStream$u20$as$u20$core..iter..traits..collect..Extend$LT$proc_macro2..TokenTree$GT$$GT$6extend28_$u7b$$u7b$closure$u7d$$u7d$17h1ec620f990ae2edeE:
	.long	429065506
	.long	1
	.long	($stateUnwindMap$_ZN120_$LT$proc_macro2..fallback..TokenStream$u20$as$u20$core..iter..traits..collect..Extend$LT$proc_macro2..TokenTree$GT$$GT$6extend28_$u7b$$u7b$closure$u7d$$u7d$17h1ec620f990ae2edeE)@IMGREL
	.long	0
	.long	0
	.long	3
	.long	($ip2state$_ZN120_$LT$proc_macro2..fallback..TokenStream$u20$as$u20$core..iter..traits..collect..Extend$LT$proc_macro2..TokenTree$GT$$GT$6extend28_$u7b$$u7b$closure$u7d$$u7d$17h1ec620f990ae2edeE)@IMGREL
	.long	104
	.long	0
	.long	1
$stateUnwindMap$_ZN120_$LT$proc_macro2..fallback..TokenStream$u20$as$u20$core..iter..traits..collect..Extend$LT$proc_macro2..TokenTree$GT$$GT$6extend28_$u7b$$u7b$closure$u7d$$u7d$17h1ec620f990ae2edeE:
	.long	-1
	.long	"?dtor$1@?0?_ZN120_$LT$proc_macro2..fallback..TokenStream$u20$as$u20$core..iter..traits..collect..Extend$LT$proc_macro2..TokenTree$GT$$GT$6extend28_$u7b$$u7b$closure$u7d$$u7d$17h1ec620f990ae2edeE@4HA"@IMGREL
$ip2state$_ZN120_$LT$proc_macro2..fallback..TokenStream$u20$as$u20$core..iter..traits..collect..Extend$LT$proc_macro2..TokenTree$GT$$GT$6extend28_$u7b$$u7b$closure$u7d$$u7d$17h1ec620f990ae2edeE:
	.long	.Lfunc_begin47@IMGREL
	.long	-1
	.long	.Ltmp531@IMGREL+1
	.long	0
	.long	.Ltmp534@IMGREL+1
	.long	-1
	.section	.text,"xr",one_only,_ZN120_$LT$proc_macro2..fallback..TokenStream$u20$as$u20$core..iter..traits..collect..Extend$LT$proc_macro2..TokenTree$GT$$GT$6extend28_$u7b$$u7b$closure$u7d$$u7d$17h1ec620f990ae2edeE

	.def	_ZN120_$LT$proc_macro2..fallback..TokenStream$u20$as$u20$core..iter..traits..collect..Extend$LT$proc_macro2..TokenTree$GT$$GT$6extend28_$u7b$$u7b$closure$u7d$$u7d$17h7f83f0f32d08bcadE;
	.scl	2;
	.type	32;
	.endef
	.section	.text,"xr",one_only,_ZN120_$LT$proc_macro2..fallback..TokenStream$u20$as$u20$core..iter..traits..collect..Extend$LT$proc_macro2..TokenTree$GT$$GT$6extend28_$u7b$$u7b$closure$u7d$$u7d$17h7f83f0f32d08bcadE
	.globl	_ZN120_$LT$proc_macro2..fallback..TokenStream$u20$as$u20$core..iter..traits..collect..Extend$LT$proc_macro2..TokenTree$GT$$GT$6extend28_$u7b$$u7b$closure$u7d$$u7d$17h7f83f0f32d08bcadE
	.p2align	4, 0x90
_ZN120_$LT$proc_macro2..fallback..TokenStream$u20$as$u20$core..iter..traits..collect..Extend$LT$proc_macro2..TokenTree$GT$$GT$6extend28_$u7b$$u7b$closure$u7d$$u7d$17h7f83f0f32d08bcadE:
.Lfunc_begin48:
	.cv_func_id 65
	.cv_loc	65 13 277 0
.seh_proc _ZN120_$LT$proc_macro2..fallback..TokenStream$u20$as$u20$core..iter..traits..collect..Extend$LT$proc_macro2..TokenTree$GT$$GT$6extend28_$u7b$$u7b$closure$u7d$$u7d$17h7f83f0f32d08bcadE
	.seh_handler __CxxFrameHandler3, @unwind, @except
	pushq	%rbp
	.seh_pushreg %rbp
	subq	$112, %rsp
	.seh_stackalloc 112
	leaq	112(%rsp), %rbp
	.seh_setframe %rbp, 112
	.seh_endprologue
	movq	$-2, -8(%rbp)
	movq	%rdx, -80(%rbp)
.Ltmp548:
	movq	%rcx, -24(%rbp)
	movq	-24(%rbp), %rax
	movq	(%rax), %rax
	movq	%rax, -16(%rbp)
.Ltmp549:
	movb	$0, -25(%rbp)
	movb	$1, -25(%rbp)
	movq	(%rcx), %rcx
.Ltmp544:
	callq	_ZN11proc_macro25rcvec17RcVecMut$LT$T$GT$6as_mut17h6b1ade581a14f5c7E
.Ltmp550:
.Ltmp545:
	movq	%rax, -72(%rbp)
.Ltmp551:
	jmp	.LBB48_2
.Ltmp552:
.LBB48_2:
	movq	-72(%rbp), %rcx
	movq	-80(%rbp), %rax
	movb	$0, -25(%rbp)
	vmovups	(%rax), %ymm0
	vmovups	%ymm0, -64(%rbp)
.Ltmp546:
	leaq	-64(%rbp), %rdx
	vzeroupper
	callq	_ZN11proc_macro28fallback26push_token_from_proc_macro17hda5ff0689596df82E
.Ltmp547:
	jmp	.LBB48_3
.Ltmp553:
.LBB48_3:
	addq	$112, %rsp
	popq	%rbp
	retq
.Ltmp554:
	.seh_handlerdata
	.long	($cppxdata$_ZN120_$LT$proc_macro2..fallback..TokenStream$u20$as$u20$core..iter..traits..collect..Extend$LT$proc_macro2..TokenTree$GT$$GT$6extend28_$u7b$$u7b$closure$u7d$$u7d$17h7f83f0f32d08bcadE)@IMGREL
	.section	.text,"xr",one_only,_ZN120_$LT$proc_macro2..fallback..TokenStream$u20$as$u20$core..iter..traits..collect..Extend$LT$proc_macro2..TokenTree$GT$$GT$6extend28_$u7b$$u7b$closure$u7d$$u7d$17h7f83f0f32d08bcadE
	.seh_endproc
	.def	"?dtor$1@?0?_ZN120_$LT$proc_macro2..fallback..TokenStream$u20$as$u20$core..iter..traits..collect..Extend$LT$proc_macro2..TokenTree$GT$$GT$6extend28_$u7b$$u7b$closure$u7d$$u7d$17h7f83f0f32d08bcadE@4HA";
	.scl	3;
	.type	32;
	.endef
	.p2align	4, 0x90
"?dtor$1@?0?_ZN120_$LT$proc_macro2..fallback..TokenStream$u20$as$u20$core..iter..traits..collect..Extend$LT$proc_macro2..TokenTree$GT$$GT$6extend28_$u7b$$u7b$closure$u7d$$u7d$17h7f83f0f32d08bcadE@4HA":
.seh_proc "?dtor$1@?0?_ZN120_$LT$proc_macro2..fallback..TokenStream$u20$as$u20$core..iter..traits..collect..Extend$LT$proc_macro2..TokenTree$GT$$GT$6extend28_$u7b$$u7b$closure$u7d$$u7d$17h7f83f0f32d08bcadE@4HA"
.LBB48_1:
	movq	%rdx, 16(%rsp)
	pushq	%rbp
	.seh_pushreg %rbp
	subq	$32, %rsp
	.seh_stackalloc 32
	leaq	112(%rdx), %rbp
.Ltmp555:
	.seh_endprologue
	testb	$1, -25(%rbp)
	jne	.LBB48_5
	jmp	.LBB48_4
.LBB48_4:
	addq	$32, %rsp
	popq	%rbp
	retq
.LBB48_5:
	movq	-80(%rbp), %rcx
	callq	_ZN4core3ptr43drop_in_place$LT$proc_macro2..TokenTree$GT$17hf6f08038f1073bfbE
	jmp	.LBB48_4
.Ltmp556:
.Lfunc_end48:
	.seh_handlerdata
	.section	.text,"xr",one_only,_ZN120_$LT$proc_macro2..fallback..TokenStream$u20$as$u20$core..iter..traits..collect..Extend$LT$proc_macro2..TokenTree$GT$$GT$6extend28_$u7b$$u7b$closure$u7d$$u7d$17h7f83f0f32d08bcadE
	.seh_endproc
	.section	.xdata,"dr",associative,_ZN120_$LT$proc_macro2..fallback..TokenStream$u20$as$u20$core..iter..traits..collect..Extend$LT$proc_macro2..TokenTree$GT$$GT$6extend28_$u7b$$u7b$closure$u7d$$u7d$17h7f83f0f32d08bcadE
	.p2align	2
$cppxdata$_ZN120_$LT$proc_macro2..fallback..TokenStream$u20$as$u20$core..iter..traits..collect..Extend$LT$proc_macro2..TokenTree$GT$$GT$6extend28_$u7b$$u7b$closure$u7d$$u7d$17h7f83f0f32d08bcadE:
	.long	429065506
	.long	1
	.long	($stateUnwindMap$_ZN120_$LT$proc_macro2..fallback..TokenStream$u20$as$u20$core..iter..traits..collect..Extend$LT$proc_macro2..TokenTree$GT$$GT$6extend28_$u7b$$u7b$closure$u7d$$u7d$17h7f83f0f32d08bcadE)@IMGREL
	.long	0
	.long	0
	.long	3
	.long	($ip2state$_ZN120_$LT$proc_macro2..fallback..TokenStream$u20$as$u20$core..iter..traits..collect..Extend$LT$proc_macro2..TokenTree$GT$$GT$6extend28_$u7b$$u7b$closure$u7d$$u7d$17h7f83f0f32d08bcadE)@IMGREL
	.long	104
	.long	0
	.long	1
$stateUnwindMap$_ZN120_$LT$proc_macro2..fallback..TokenStream$u20$as$u20$core..iter..traits..collect..Extend$LT$proc_macro2..TokenTree$GT$$GT$6extend28_$u7b$$u7b$closure$u7d$$u7d$17h7f83f0f32d08bcadE:
	.long	-1
	.long	"?dtor$1@?0?_ZN120_$LT$proc_macro2..fallback..TokenStream$u20$as$u20$core..iter..traits..collect..Extend$LT$proc_macro2..TokenTree$GT$$GT$6extend28_$u7b$$u7b$closure$u7d$$u7d$17h7f83f0f32d08bcadE@4HA"@IMGREL
$ip2state$_ZN120_$LT$proc_macro2..fallback..TokenStream$u20$as$u20$core..iter..traits..collect..Extend$LT$proc_macro2..TokenTree$GT$$GT$6extend28_$u7b$$u7b$closure$u7d$$u7d$17h7f83f0f32d08bcadE:
	.long	.Lfunc_begin48@IMGREL
	.long	-1
	.long	.Ltmp544@IMGREL+1
	.long	0
	.long	.Ltmp547@IMGREL+1
	.long	-1
	.section	.text,"xr",one_only,_ZN120_$LT$proc_macro2..fallback..TokenStream$u20$as$u20$core..iter..traits..collect..Extend$LT$proc_macro2..TokenTree$GT$$GT$6extend28_$u7b$$u7b$closure$u7d$$u7d$17h7f83f0f32d08bcadE

	.def	_ZN120_$LT$proc_macro2..fallback..TokenStream$u20$as$u20$core..iter..traits..collect..Extend$LT$proc_macro2..TokenTree$GT$$GT$6extend28_$u7b$$u7b$closure$u7d$$u7d$17hd37b383871b6811fE;
	.scl	2;
	.type	32;
	.endef
	.section	.text,"xr",one_only,_ZN120_$LT$proc_macro2..fallback..TokenStream$u20$as$u20$core..iter..traits..collect..Extend$LT$proc_macro2..TokenTree$GT$$GT$6extend28_$u7b$$u7b$closure$u7d$$u7d$17hd37b383871b6811fE
	.globl	_ZN120_$LT$proc_macro2..fallback..TokenStream$u20$as$u20$core..iter..traits..collect..Extend$LT$proc_macro2..TokenTree$GT$$GT$6extend28_$u7b$$u7b$closure$u7d$$u7d$17hd37b383871b6811fE
	.p2align	4, 0x90
_ZN120_$LT$proc_macro2..fallback..TokenStream$u20$as$u20$core..iter..traits..collect..Extend$LT$proc_macro2..TokenTree$GT$$GT$6extend28_$u7b$$u7b$closure$u7d$$u7d$17hd37b383871b6811fE:
.Lfunc_begin49:
	.cv_func_id 66
	.cv_loc	66 13 277 0
.seh_proc _ZN120_$LT$proc_macro2..fallback..TokenStream$u20$as$u20$core..iter..traits..collect..Extend$LT$proc_macro2..TokenTree$GT$$GT$6extend28_$u7b$$u7b$closure$u7d$$u7d$17hd37b383871b6811fE
	.seh_handler __CxxFrameHandler3, @unwind, @except
	pushq	%rbp
	.seh_pushreg %rbp
	subq	$112, %rsp
	.seh_stackalloc 112
	leaq	112(%rsp), %rbp
	.seh_setframe %rbp, 112
	.seh_endprologue
	movq	$-2, -8(%rbp)
	movq	%rdx, -80(%rbp)
.Ltmp561:
	movq	%rcx, -24(%rbp)
	movq	-24(%rbp), %rax
	movq	(%rax), %rax
	movq	%rax, -16(%rbp)
.Ltmp562:
	movb	$0, -25(%rbp)
	movb	$1, -25(%rbp)
	movq	(%rcx), %rcx
.Ltmp557:
	callq	_ZN11proc_macro25rcvec17RcVecMut$LT$T$GT$6as_mut17h6b1ade581a14f5c7E
.Ltmp563:
.Ltmp558:
	movq	%rax, -72(%rbp)
.Ltmp564:
	jmp	.LBB49_2
.Ltmp565:
.LBB49_2:
	movq	-72(%rbp), %rcx
	movq	-80(%rbp), %rax
	movb	$0, -25(%rbp)
	vmovups	(%rax), %ymm0
	vmovups	%ymm0, -64(%rbp)
.Ltmp559:
	leaq	-64(%rbp), %rdx
	vzeroupper
	callq	_ZN11proc_macro28fallback26push_token_from_proc_macro17hda5ff0689596df82E
.Ltmp560:
	jmp	.LBB49_3
.Ltmp566:
.LBB49_3:
	addq	$112, %rsp
	popq	%rbp
	retq
.Ltmp567:
	.seh_handlerdata
	.long	($cppxdata$_ZN120_$LT$proc_macro2..fallback..TokenStream$u20$as$u20$core..iter..traits..collect..Extend$LT$proc_macro2..TokenTree$GT$$GT$6extend28_$u7b$$u7b$closure$u7d$$u7d$17hd37b383871b6811fE)@IMGREL
	.section	.text,"xr",one_only,_ZN120_$LT$proc_macro2..fallback..TokenStream$u20$as$u20$core..iter..traits..collect..Extend$LT$proc_macro2..TokenTree$GT$$GT$6extend28_$u7b$$u7b$closure$u7d$$u7d$17hd37b383871b6811fE
	.seh_endproc
	.def	"?dtor$1@?0?_ZN120_$LT$proc_macro2..fallback..TokenStream$u20$as$u20$core..iter..traits..collect..Extend$LT$proc_macro2..TokenTree$GT$$GT$6extend28_$u7b$$u7b$closure$u7d$$u7d$17hd37b383871b6811fE@4HA";
	.scl	3;
	.type	32;
	.endef
	.p2align	4, 0x90
"?dtor$1@?0?_ZN120_$LT$proc_macro2..fallback..TokenStream$u20$as$u20$core..iter..traits..collect..Extend$LT$proc_macro2..TokenTree$GT$$GT$6extend28_$u7b$$u7b$closure$u7d$$u7d$17hd37b383871b6811fE@4HA":
.seh_proc "?dtor$1@?0?_ZN120_$LT$proc_macro2..fallback..TokenStream$u20$as$u20$core..iter..traits..collect..Extend$LT$proc_macro2..TokenTree$GT$$GT$6extend28_$u7b$$u7b$closure$u7d$$u7d$17hd37b383871b6811fE@4HA"
.LBB49_1:
	movq	%rdx, 16(%rsp)
	pushq	%rbp
	.seh_pushreg %rbp
	subq	$32, %rsp
	.seh_stackalloc 32
	leaq	112(%rdx), %rbp
.Ltmp568:
	.seh_endprologue
	testb	$1, -25(%rbp)
	jne	.LBB49_5
	jmp	.LBB49_4
.LBB49_4:
	addq	$32, %rsp
	popq	%rbp
	retq
.LBB49_5:
	movq	-80(%rbp), %rcx
	callq	_ZN4core3ptr43drop_in_place$LT$proc_macro2..TokenTree$GT$17hf6f08038f1073bfbE
	jmp	.LBB49_4
.Ltmp569:
.Lfunc_end49:
	.seh_handlerdata
	.section	.text,"xr",one_only,_ZN120_$LT$proc_macro2..fallback..TokenStream$u20$as$u20$core..iter..traits..collect..Extend$LT$proc_macro2..TokenTree$GT$$GT$6extend28_$u7b$$u7b$closure$u7d$$u7d$17hd37b383871b6811fE
	.seh_endproc
	.section	.xdata,"dr",associative,_ZN120_$LT$proc_macro2..fallback..TokenStream$u20$as$u20$core..iter..traits..collect..Extend$LT$proc_macro2..TokenTree$GT$$GT$6extend28_$u7b$$u7b$closure$u7d$$u7d$17hd37b383871b6811fE
	.p2align	2
$cppxdata$_ZN120_$LT$proc_macro2..fallback..TokenStream$u20$as$u20$core..iter..traits..collect..Extend$LT$proc_macro2..TokenTree$GT$$GT$6extend28_$u7b$$u7b$closure$u7d$$u7d$17hd37b383871b6811fE:
	.long	429065506
	.long	1
	.long	($stateUnwindMap$_ZN120_$LT$proc_macro2..fallback..TokenStream$u20$as$u20$core..iter..traits..collect..Extend$LT$proc_macro2..TokenTree$GT$$GT$6extend28_$u7b$$u7b$closure$u7d$$u7d$17hd37b383871b6811fE)@IMGREL
	.long	0
	.long	0
	.long	3
	.long	($ip2state$_ZN120_$LT$proc_macro2..fallback..TokenStream$u20$as$u20$core..iter..traits..collect..Extend$LT$proc_macro2..TokenTree$GT$$GT$6extend28_$u7b$$u7b$closure$u7d$$u7d$17hd37b383871b6811fE)@IMGREL
	.long	104
	.long	0
	.long	1
$stateUnwindMap$_ZN120_$LT$proc_macro2..fallback..TokenStream$u20$as$u20$core..iter..traits..collect..Extend$LT$proc_macro2..TokenTree$GT$$GT$6extend28_$u7b$$u7b$closure$u7d$$u7d$17hd37b383871b6811fE:
	.long	-1
	.long	"?dtor$1@?0?_ZN120_$LT$proc_macro2..fallback..TokenStream$u20$as$u20$core..iter..traits..collect..Extend$LT$proc_macro2..TokenTree$GT$$GT$6extend28_$u7b$$u7b$closure$u7d$$u7d$17hd37b383871b6811fE@4HA"@IMGREL
$ip2state$_ZN120_$LT$proc_macro2..fallback..TokenStream$u20$as$u20$core..iter..traits..collect..Extend$LT$proc_macro2..TokenTree$GT$$GT$6extend28_$u7b$$u7b$closure$u7d$$u7d$17hd37b383871b6811fE:
	.long	.Lfunc_begin49@IMGREL
	.long	-1
	.long	.Ltmp557@IMGREL+1
	.long	0
	.long	.Ltmp560@IMGREL+1
	.long	-1
	.section	.text,"xr",one_only,_ZN120_$LT$proc_macro2..fallback..TokenStream$u20$as$u20$core..iter..traits..collect..Extend$LT$proc_macro2..TokenTree$GT$$GT$6extend28_$u7b$$u7b$closure$u7d$$u7d$17hd37b383871b6811fE

	.def	_ZN121_$LT$proc_macro2..imp..TokenStream$u20$as$u20$core..iter..traits..collect..FromIterator$LT$proc_macro2..TokenTree$GT$$GT$9from_iter17hfdd74317dba88652E;
	.scl	2;
	.type	32;
	.endef
	.section	.text,"xr",one_only,_ZN121_$LT$proc_macro2..imp..TokenStream$u20$as$u20$core..iter..traits..collect..FromIterator$LT$proc_macro2..TokenTree$GT$$GT$9from_iter17hfdd74317dba88652E
	.globl	_ZN121_$LT$proc_macro2..imp..TokenStream$u20$as$u20$core..iter..traits..collect..FromIterator$LT$proc_macro2..TokenTree$GT$$GT$9from_iter17hfdd74317dba88652E
	.p2align	4, 0x90
_ZN121_$LT$proc_macro2..imp..TokenStream$u20$as$u20$core..iter..traits..collect..FromIterator$LT$proc_macro2..TokenTree$GT$$GT$9from_iter17hfdd74317dba88652E:
.Lfunc_begin50:
	.cv_func_id 67
	.cv_loc	67 9 182 0
.seh_proc _ZN121_$LT$proc_macro2..imp..TokenStream$u20$as$u20$core..iter..traits..collect..FromIterator$LT$proc_macro2..TokenTree$GT$$GT$9from_iter17hfdd74317dba88652E
	.seh_handler __CxxFrameHandler3, @unwind, @except
	pushq	%rbp
	.seh_pushreg %rbp
	subq	$368, %rsp
	.seh_stackalloc 368
	leaq	128(%rsp), %rbp
	.seh_setframe %rbp, 128
	.seh_endprologue
	movq	$-2, 232(%rbp)
	movq	%rdx, -80(%rbp)
.Ltmp584:
	movq	%rcx, -72(%rbp)
	movq	%rcx, -64(%rbp)
.Ltmp585:
	.cv_loc	67 9 183 0
	movb	$0, 231(%rbp)
	movb	$1, 231(%rbp)
.Ltmp570:
	callq	_ZN11proc_macro29detection17inside_proc_macro17h605ecf07db6c05fbE
.Ltmp586:
.Ltmp571:
	movb	%al, -49(%rbp)
.Ltmp587:
	jmp	.LBB50_2
.Ltmp588:
.LBB50_2:
	movb	-49(%rbp), %al
	testb	$1, %al
	jne	.LBB50_4
	jmp	.LBB50_3
.Ltmp589:
.LBB50_3:
	.cv_loc	67 9 188 0
	movq	-80(%rbp), %rax
	movb	$0, 231(%rbp)
	vmovups	(%rax), %ymm0
	vmovups	16(%rax), %ymm1
	vmovups	%ymm1, 192(%rbp)
	vmovups	%ymm0, 176(%rbp)
.Ltmp572:
	leaq	128(%rbp), %rcx
	leaq	176(%rbp), %rdx
	vzeroupper
	callq	_ZN63_$LT$I$u20$as$u20$core..iter..traits..collect..IntoIterator$GT$9into_iter17h82d31900ba2f0091E
.Ltmp573:
	jmp	.LBB50_10
.Ltmp590:
.LBB50_4:
	.cv_loc	67 9 185 0
	movq	-80(%rbp), %rax
	movb	$0, 231(%rbp)
	vmovups	(%rax), %ymm0
	vmovups	16(%rax), %ymm1
	vmovups	%ymm1, 96(%rbp)
	vmovups	%ymm0, 80(%rbp)
.Ltmp576:
	leaq	32(%rbp), %rcx
	leaq	80(%rbp), %rdx
	vzeroupper
	callq	_ZN63_$LT$I$u20$as$u20$core..iter..traits..collect..IntoIterator$GT$9into_iter17h82d31900ba2f0091E
.Ltmp577:
	jmp	.LBB50_5
.Ltmp591:
.LBB50_5:
.Ltmp578:
	leaq	-16(%rbp), %rcx
	leaq	32(%rbp), %rdx
	callq	_ZN4core4iter6traits8iterator8Iterator3map17h2d0d2b8129541867E
.Ltmp579:
	jmp	.LBB50_6
.Ltmp592:
.LBB50_6:
.Ltmp580:
	leaq	-16(%rbp), %rcx
	callq	_ZN4core4iter6traits8iterator8Iterator7collect17hd9fb92838196889eE
.Ltmp581:
	movl	%eax, -84(%rbp)
	jmp	.LBB50_7
.Ltmp593:
.LBB50_7:
	.cv_loc	67 9 184 0
.Ltmp582:
	movl	-84(%rbp), %edx
	leaq	-48(%rbp), %rcx
	callq	_ZN11proc_macro23imp19DeferredTokenStream3new17hf08e6ca50f0afba6E
.Ltmp583:
	jmp	.LBB50_8
.Ltmp594:
.LBB50_8:
	movq	-72(%rbp), %rax
	movq	-48(%rbp), %rcx
	movq	%rcx, (%rax)
	movq	-40(%rbp), %rcx
	movq	%rcx, 8(%rax)
	movq	-32(%rbp), %rcx
	movq	%rcx, 16(%rax)
	movq	-24(%rbp), %rcx
	movq	%rcx, 24(%rax)
.Ltmp595:
.LBB50_9:
	.cv_loc	67 9 190 0
	movq	-64(%rbp), %rax
	addq	$368, %rsp
	popq	%rbp
	retq
.Ltmp596:
.LBB50_10:
	.cv_loc	67 9 188 0
.Ltmp574:
	leaq	128(%rbp), %rcx
	callq	_ZN4core4iter6traits8iterator8Iterator7collect17hbfa69757176ba14dE
.Ltmp575:
	movq	%rax, -96(%rbp)
	jmp	.LBB50_11
.Ltmp597:
.LBB50_11:
	movq	-72(%rbp), %rax
	movq	-96(%rbp), %rcx
	movq	%rcx, 8(%rax)
	movq	$0, (%rax)
	.cv_loc	67 9 183 0
	jmp	.LBB50_9
.Ltmp598:
	.seh_handlerdata
	.long	($cppxdata$_ZN121_$LT$proc_macro2..imp..TokenStream$u20$as$u20$core..iter..traits..collect..FromIterator$LT$proc_macro2..TokenTree$GT$$GT$9from_iter17hfdd74317dba88652E)@IMGREL
	.section	.text,"xr",one_only,_ZN121_$LT$proc_macro2..imp..TokenStream$u20$as$u20$core..iter..traits..collect..FromIterator$LT$proc_macro2..TokenTree$GT$$GT$9from_iter17hfdd74317dba88652E
	.seh_endproc
	.def	"?dtor$1@?0?_ZN121_$LT$proc_macro2..imp..TokenStream$u20$as$u20$core..iter..traits..collect..FromIterator$LT$proc_macro2..TokenTree$GT$$GT$9from_iter17hfdd74317dba88652E@4HA";
	.scl	3;
	.type	32;
	.endef
	.p2align	4, 0x90
"?dtor$1@?0?_ZN121_$LT$proc_macro2..imp..TokenStream$u20$as$u20$core..iter..traits..collect..FromIterator$LT$proc_macro2..TokenTree$GT$$GT$9from_iter17hfdd74317dba88652E@4HA":
.seh_proc "?dtor$1@?0?_ZN121_$LT$proc_macro2..imp..TokenStream$u20$as$u20$core..iter..traits..collect..FromIterator$LT$proc_macro2..TokenTree$GT$$GT$9from_iter17hfdd74317dba88652E@4HA"
.LBB50_1:
	movq	%rdx, 16(%rsp)
	pushq	%rbp
	.seh_pushreg %rbp
	subq	$32, %rsp
	.seh_stackalloc 32
	leaq	128(%rdx), %rbp
.Ltmp599:
	.seh_endprologue
	.cv_loc	67 9 190 0
	testb	$1, 231(%rbp)
	jne	.LBB50_13
	jmp	.LBB50_12
.LBB50_12:
	.cv_loc	67 9 182 0
	addq	$32, %rsp
	popq	%rbp
	retq
.LBB50_13:
	.cv_loc	67 9 190 0
	movq	-80(%rbp), %rcx
	callq	_ZN4core3ptr161drop_in_place$LT$core..iter..adapters..map..Map$LT$proc_macro2..token_stream..IntoIter$C$quote..__private..respan_token_tree..$u7b$$u7b$closure$u7d$$u7d$$GT$$GT$17hef05679331b998cfE
	jmp	.LBB50_12
.Ltmp600:
.Lfunc_end50:
	.seh_handlerdata
	.section	.text,"xr",one_only,_ZN121_$LT$proc_macro2..imp..TokenStream$u20$as$u20$core..iter..traits..collect..FromIterator$LT$proc_macro2..TokenTree$GT$$GT$9from_iter17hfdd74317dba88652E
	.seh_endproc
	.section	.xdata,"dr",associative,_ZN121_$LT$proc_macro2..imp..TokenStream$u20$as$u20$core..iter..traits..collect..FromIterator$LT$proc_macro2..TokenTree$GT$$GT$9from_iter17hfdd74317dba88652E
	.p2align	2
$cppxdata$_ZN121_$LT$proc_macro2..imp..TokenStream$u20$as$u20$core..iter..traits..collect..FromIterator$LT$proc_macro2..TokenTree$GT$$GT$9from_iter17hfdd74317dba88652E:
	.long	429065506
	.long	1
	.long	($stateUnwindMap$_ZN121_$LT$proc_macro2..imp..TokenStream$u20$as$u20$core..iter..traits..collect..FromIterator$LT$proc_macro2..TokenTree$GT$$GT$9from_iter17hfdd74317dba88652E)@IMGREL
	.long	0
	.long	0
	.long	3
	.long	($ip2state$_ZN121_$LT$proc_macro2..imp..TokenStream$u20$as$u20$core..iter..traits..collect..FromIterator$LT$proc_macro2..TokenTree$GT$$GT$9from_iter17hfdd74317dba88652E)@IMGREL
	.long	360
	.long	0
	.long	1
$stateUnwindMap$_ZN121_$LT$proc_macro2..imp..TokenStream$u20$as$u20$core..iter..traits..collect..FromIterator$LT$proc_macro2..TokenTree$GT$$GT$9from_iter17hfdd74317dba88652E:
	.long	-1
	.long	"?dtor$1@?0?_ZN121_$LT$proc_macro2..imp..TokenStream$u20$as$u20$core..iter..traits..collect..FromIterator$LT$proc_macro2..TokenTree$GT$$GT$9from_iter17hfdd74317dba88652E@4HA"@IMGREL
$ip2state$_ZN121_$LT$proc_macro2..imp..TokenStream$u20$as$u20$core..iter..traits..collect..FromIterator$LT$proc_macro2..TokenTree$GT$$GT$9from_iter17hfdd74317dba88652E:
	.long	.Lfunc_begin50@IMGREL
	.long	-1
	.long	.Ltmp570@IMGREL+1
	.long	0
	.long	.Ltmp575@IMGREL+1
	.long	-1
	.section	.text,"xr",one_only,_ZN121_$LT$proc_macro2..imp..TokenStream$u20$as$u20$core..iter..traits..collect..FromIterator$LT$proc_macro2..TokenTree$GT$$GT$9from_iter17hfdd74317dba88652E

	.def	_ZN122_$LT$proc_macro2..imp..TokenStream$u20$as$u20$core..iter..traits..collect..Extend$LT$proc_macro2..imp..TokenStream$GT$$GT$6extend17hb0af26f52e18d83dE;
	.scl	2;
	.type	32;
	.endef
	.section	.text,"xr",one_only,_ZN122_$LT$proc_macro2..imp..TokenStream$u20$as$u20$core..iter..traits..collect..Extend$LT$proc_macro2..imp..TokenStream$GT$$GT$6extend17hb0af26f52e18d83dE
	.globl	_ZN122_$LT$proc_macro2..imp..TokenStream$u20$as$u20$core..iter..traits..collect..Extend$LT$proc_macro2..imp..TokenStream$GT$$GT$6extend17hb0af26f52e18d83dE
	.p2align	4, 0x90
_ZN122_$LT$proc_macro2..imp..TokenStream$u20$as$u20$core..iter..traits..collect..Extend$LT$proc_macro2..imp..TokenStream$GT$$GT$6extend17hb0af26f52e18d83dE:
.Lfunc_begin51:
	.cv_func_id 68
	.cv_loc	68 9 232 0
.seh_proc _ZN122_$LT$proc_macro2..imp..TokenStream$u20$as$u20$core..iter..traits..collect..Extend$LT$proc_macro2..imp..TokenStream$GT$$GT$6extend17hb0af26f52e18d83dE
	.seh_handler __CxxFrameHandler3, @unwind, @except
	pushq	%rbp
	.seh_pushreg %rbp
	subq	$352, %rsp
	.seh_stackalloc 352
	leaq	128(%rsp), %rbp
	.seh_setframe %rbp, 128
	.seh_endprologue
	movq	$-2, 216(%rbp)
	movq	%rdx, -80(%rbp)
.Ltmp615:
	movq	%rcx, -72(%rbp)
	movq	%rcx, 192(%rbp)
.Ltmp616:
	.cv_loc	68 9 233 0
	movb	$0, 191(%rbp)
	movb	$1, 191(%rbp)
	movq	(%rcx), %rax
	testq	%rax, %rax
	sete	%al
	movzbl	%al, %eax
.Ltmp617:
	jne	.LBB51_2
	jmp	.LBB51_15
.Ltmp618:
.LBB51_15:
	jmp	.LBB51_3
.Ltmp619:
	ud2
.LBB51_2:
.Ltmp620:
	.cv_loc	68 9 234 0
	movq	-72(%rbp), %rcx
	movq	%rcx, 208(%rbp)
	.cv_loc	68 9 235 0
.Ltmp607:
.Ltmp621:
	callq	_ZN11proc_macro23imp19DeferredTokenStream12evaluate_now17he4810cf304a68a24E
.Ltmp608:
	jmp	.LBB51_9
.Ltmp622:
.LBB51_3:
	.cv_loc	68 9 239 0
	movq	-80(%rbp), %rax
	movq	-72(%rbp), %rcx
	addq	$8, %rcx
	movq	%rcx, -88(%rbp)
	movq	%rcx, 200(%rbp)
.Ltmp623:
	.cv_loc	68 9 240 0
	movb	$0, 191(%rbp)
	movq	32(%rax), %rcx
	movq	%rcx, 176(%rbp)
	vmovups	(%rax), %ymm0
	vmovups	%ymm0, 144(%rbp)
.Ltmp601:
	leaq	104(%rbp), %rcx
	leaq	144(%rbp), %rdx
	vzeroupper
	callq	_ZN63_$LT$I$u20$as$u20$core..iter..traits..collect..IntoIterator$GT$9into_iter17h9d8c36eea967d30aE
.Ltmp602:
	jmp	.LBB51_5
.Ltmp624:
.LBB51_5:
.Ltmp603:
	leaq	64(%rbp), %rcx
	leaq	104(%rbp), %rdx
	callq	_ZN4core4iter6traits8iterator8Iterator3map17h901f65bb4e115231E
.Ltmp604:
	jmp	.LBB51_6
.Ltmp625:
.LBB51_6:
.Ltmp605:
	movq	-88(%rbp), %rcx
	leaq	64(%rbp), %rdx
	callq	_ZN132_$LT$proc_macro2..fallback..TokenStream$u20$as$u20$core..iter..traits..collect..Extend$LT$proc_macro2..fallback..TokenStream$GT$$GT$6extend17hec01b3fa07865d88E
.Ltmp606:
	jmp	.LBB51_7
.Ltmp626:
.LBB51_7:
	jmp	.LBB51_8
.Ltmp627:
.LBB51_8:
	.cv_loc	68 9 243 0
	addq	$352, %rsp
	popq	%rbp
	retq
.Ltmp628:
.LBB51_9:
	.cv_loc	68 9 236 0
	movq	-80(%rbp), %rax
	movq	-72(%rbp), %rcx
.Ltmp629:
	addq	$24, %rcx
	movq	%rcx, -96(%rbp)
	.cv_loc	68 9 237 0
	movb	$0, 191(%rbp)
	movq	32(%rax), %rcx
	movq	%rcx, 48(%rbp)
	vmovups	(%rax), %ymm0
	vmovups	%ymm0, 16(%rbp)
.Ltmp609:
	leaq	-24(%rbp), %rcx
	leaq	16(%rbp), %rdx
	vzeroupper
	callq	_ZN63_$LT$I$u20$as$u20$core..iter..traits..collect..IntoIterator$GT$9into_iter17h9d8c36eea967d30aE
.Ltmp610:
	jmp	.LBB51_10
.Ltmp630:
.LBB51_10:
.Ltmp611:
	leaq	-64(%rbp), %rcx
	leaq	-24(%rbp), %rdx
	callq	_ZN4core4iter6traits8iterator8Iterator3map17h4a31c7ce7cb1f29bE
.Ltmp612:
	jmp	.LBB51_11
.Ltmp631:
.LBB51_11:
	.cv_loc	68 9 236 0
.Ltmp613:
	movq	-96(%rbp), %rcx
	leaq	-64(%rbp), %rdx
	callq	_ZN110_$LT$proc_macro..TokenStream$u20$as$u20$core..iter..traits..collect..Extend$LT$proc_macro..TokenStream$GT$$GT$6extend17h349e43e9825ed6adE
.Ltmp614:
	jmp	.LBB51_12
.Ltmp632:
.LBB51_12:
	jmp	.LBB51_8
.Ltmp633:
	.seh_handlerdata
	.long	($cppxdata$_ZN122_$LT$proc_macro2..imp..TokenStream$u20$as$u20$core..iter..traits..collect..Extend$LT$proc_macro2..imp..TokenStream$GT$$GT$6extend17hb0af26f52e18d83dE)@IMGREL
	.section	.text,"xr",one_only,_ZN122_$LT$proc_macro2..imp..TokenStream$u20$as$u20$core..iter..traits..collect..Extend$LT$proc_macro2..imp..TokenStream$GT$$GT$6extend17hb0af26f52e18d83dE
	.seh_endproc
	.def	"?dtor$4@?0?_ZN122_$LT$proc_macro2..imp..TokenStream$u20$as$u20$core..iter..traits..collect..Extend$LT$proc_macro2..imp..TokenStream$GT$$GT$6extend17hb0af26f52e18d83dE@4HA";
	.scl	3;
	.type	32;
	.endef
	.p2align	4, 0x90
"?dtor$4@?0?_ZN122_$LT$proc_macro2..imp..TokenStream$u20$as$u20$core..iter..traits..collect..Extend$LT$proc_macro2..imp..TokenStream$GT$$GT$6extend17hb0af26f52e18d83dE@4HA":
.seh_proc "?dtor$4@?0?_ZN122_$LT$proc_macro2..imp..TokenStream$u20$as$u20$core..iter..traits..collect..Extend$LT$proc_macro2..imp..TokenStream$GT$$GT$6extend17hb0af26f52e18d83dE@4HA"
.LBB51_4:
	movq	%rdx, 16(%rsp)
	pushq	%rbp
	.seh_pushreg %rbp
	subq	$32, %rsp
	.seh_stackalloc 32
	leaq	128(%rdx), %rbp
.Ltmp634:
	.seh_endprologue
	.cv_loc	68 9 243 0
	testb	$1, 191(%rbp)
	jne	.LBB51_14
	jmp	.LBB51_13
.LBB51_13:
	.cv_loc	68 9 232 0
	addq	$32, %rsp
	popq	%rbp
	retq
.LBB51_14:
	.cv_loc	68 9 243 0
	movq	-80(%rbp), %rcx
	callq	_ZN4core3ptr344drop_in_place$LT$core..iter..adapters..map..Map$LT$core..iter..sources..once..Once$LT$proc_macro2..TokenStream$GT$$C$$LT$proc_macro2..TokenStream$u20$as$u20$core..iter..traits..collect..Extend$LT$proc_macro2..TokenStream$GT$$GT$..extend$LT$core..iter..sources..once..Once$LT$proc_macro2..TokenStream$GT$$GT$..$u7b$$u7b$closure$u7d$$u7d$$GT$$GT$17hfe5da0a238a5d22dE
	jmp	.LBB51_13
.Ltmp635:
.Lfunc_end51:
	.seh_handlerdata
	.section	.text,"xr",one_only,_ZN122_$LT$proc_macro2..imp..TokenStream$u20$as$u20$core..iter..traits..collect..Extend$LT$proc_macro2..imp..TokenStream$GT$$GT$6extend17hb0af26f52e18d83dE
	.seh_endproc
	.section	.xdata,"dr",associative,_ZN122_$LT$proc_macro2..imp..TokenStream$u20$as$u20$core..iter..traits..collect..Extend$LT$proc_macro2..imp..TokenStream$GT$$GT$6extend17hb0af26f52e18d83dE
	.p2align	2
$cppxdata$_ZN122_$LT$proc_macro2..imp..TokenStream$u20$as$u20$core..iter..traits..collect..Extend$LT$proc_macro2..imp..TokenStream$GT$$GT$6extend17hb0af26f52e18d83dE:
	.long	429065506
	.long	1
	.long	($stateUnwindMap$_ZN122_$LT$proc_macro2..imp..TokenStream$u20$as$u20$core..iter..traits..collect..Extend$LT$proc_macro2..imp..TokenStream$GT$$GT$6extend17hb0af26f52e18d83dE)@IMGREL
	.long	0
	.long	0
	.long	3
	.long	($ip2state$_ZN122_$LT$proc_macro2..imp..TokenStream$u20$as$u20$core..iter..traits..collect..Extend$LT$proc_macro2..imp..TokenStream$GT$$GT$6extend17hb0af26f52e18d83dE)@IMGREL
	.long	344
	.long	0
	.long	1
$stateUnwindMap$_ZN122_$LT$proc_macro2..imp..TokenStream$u20$as$u20$core..iter..traits..collect..Extend$LT$proc_macro2..imp..TokenStream$GT$$GT$6extend17hb0af26f52e18d83dE:
	.long	-1
	.long	"?dtor$4@?0?_ZN122_$LT$proc_macro2..imp..TokenStream$u20$as$u20$core..iter..traits..collect..Extend$LT$proc_macro2..imp..TokenStream$GT$$GT$6extend17hb0af26f52e18d83dE@4HA"@IMGREL
$ip2state$_ZN122_$LT$proc_macro2..imp..TokenStream$u20$as$u20$core..iter..traits..collect..Extend$LT$proc_macro2..imp..TokenStream$GT$$GT$6extend17hb0af26f52e18d83dE:
	.long	.Lfunc_begin51@IMGREL
	.long	-1
	.long	.Ltmp607@IMGREL+1
	.long	0
	.long	.Ltmp614@IMGREL+1
	.long	-1
	.section	.text,"xr",one_only,_ZN122_$LT$proc_macro2..imp..TokenStream$u20$as$u20$core..iter..traits..collect..Extend$LT$proc_macro2..imp..TokenStream$GT$$GT$6extend17hb0af26f52e18d83dE

	.def	_ZN126_$LT$proc_macro2..fallback..TokenStream$u20$as$u20$core..iter..traits..collect..FromIterator$LT$proc_macro2..TokenTree$GT$$GT$9from_iter17h2eab1c611b221c48E;
	.scl	2;
	.type	32;
	.endef
	.section	.text,"xr",one_only,_ZN126_$LT$proc_macro2..fallback..TokenStream$u20$as$u20$core..iter..traits..collect..FromIterator$LT$proc_macro2..TokenTree$GT$$GT$9from_iter17h2eab1c611b221c48E
	.globl	_ZN126_$LT$proc_macro2..fallback..TokenStream$u20$as$u20$core..iter..traits..collect..FromIterator$LT$proc_macro2..TokenTree$GT$$GT$9from_iter17h2eab1c611b221c48E
	.p2align	4, 0x90
_ZN126_$LT$proc_macro2..fallback..TokenStream$u20$as$u20$core..iter..traits..collect..FromIterator$LT$proc_macro2..TokenTree$GT$$GT$9from_iter17h2eab1c611b221c48E:
.Lfunc_begin52:
	.cv_func_id 69
	.cv_loc	69 13 253 0
.seh_proc _ZN126_$LT$proc_macro2..fallback..TokenStream$u20$as$u20$core..iter..traits..collect..FromIterator$LT$proc_macro2..TokenTree$GT$$GT$9from_iter17h2eab1c611b221c48E
	.seh_handler __CxxFrameHandler3, @unwind, @except
	pushq	%rbp
	.seh_pushreg %rbp
	subq	$128, %rsp
	.seh_stackalloc 128
	leaq	128(%rsp), %rbp
	.seh_setframe %rbp, 128
	.seh_endprologue
	movq	$-2, -8(%rbp)
	movq	%rcx, -88(%rbp)
.Ltmp640:
	.cv_loc	69 13 254 0
	movb	$0, -9(%rbp)
	movb	$1, -9(%rbp)
.Ltmp636:
	callq	_ZN11proc_macro28fallback11TokenStream3new17h38749614526476d6E
.Ltmp641:
.Ltmp637:
	movq	%rax, -80(%rbp)
.Ltmp642:
	jmp	.LBB52_2
.Ltmp643:
.LBB52_2:
	movq	-88(%rbp), %rax
	movq	-80(%rbp), %rcx
	movq	%rcx, -72(%rbp)
.Ltmp644:
	.cv_loc	69 13 255 0
	movb	$0, -9(%rbp)
	vmovups	(%rax), %ymm0
	vmovups	16(%rax), %ymm1
	vmovups	%ymm1, -48(%rbp)
	vmovups	%ymm0, -64(%rbp)
.Ltmp638:
	leaq	-72(%rbp), %rcx
	leaq	-64(%rbp), %rdx
	vzeroupper
	callq	_ZN120_$LT$proc_macro2..fallback..TokenStream$u20$as$u20$core..iter..traits..collect..Extend$LT$proc_macro2..TokenTree$GT$$GT$6extend17ha174f8feea5c126fE
.Ltmp639:
	jmp	.LBB52_4
.Ltmp645:
.LBB52_4:
	.cv_loc	69 13 257 0
	movq	-72(%rbp), %rax
	addq	$128, %rsp
	popq	%rbp
	retq
.Ltmp646:
	.seh_handlerdata
	.long	($cppxdata$_ZN126_$LT$proc_macro2..fallback..TokenStream$u20$as$u20$core..iter..traits..collect..FromIterator$LT$proc_macro2..TokenTree$GT$$GT$9from_iter17h2eab1c611b221c48E)@IMGREL
	.section	.text,"xr",one_only,_ZN126_$LT$proc_macro2..fallback..TokenStream$u20$as$u20$core..iter..traits..collect..FromIterator$LT$proc_macro2..TokenTree$GT$$GT$9from_iter17h2eab1c611b221c48E
	.seh_endproc
	.def	"?dtor$1@?0?_ZN126_$LT$proc_macro2..fallback..TokenStream$u20$as$u20$core..iter..traits..collect..FromIterator$LT$proc_macro2..TokenTree$GT$$GT$9from_iter17h2eab1c611b221c48E@4HA";
	.scl	3;
	.type	32;
	.endef
	.p2align	4, 0x90
"?dtor$1@?0?_ZN126_$LT$proc_macro2..fallback..TokenStream$u20$as$u20$core..iter..traits..collect..FromIterator$LT$proc_macro2..TokenTree$GT$$GT$9from_iter17h2eab1c611b221c48E@4HA":
.seh_proc "?dtor$1@?0?_ZN126_$LT$proc_macro2..fallback..TokenStream$u20$as$u20$core..iter..traits..collect..FromIterator$LT$proc_macro2..TokenTree$GT$$GT$9from_iter17h2eab1c611b221c48E@4HA"
.LBB52_1:
	movq	%rdx, 16(%rsp)
	pushq	%rbp
	.seh_pushreg %rbp
	subq	$32, %rsp
	.seh_stackalloc 32
	leaq	128(%rdx), %rbp
	.seh_endprologue
	testb	$1, -9(%rbp)
	jne	.LBB52_6
	jmp	.LBB52_5
.LBB52_5:
	.cv_loc	69 13 253 0
	addq	$32, %rsp
	popq	%rbp
	retq
.LBB52_6:
	.cv_loc	69 13 257 0
	movq	-88(%rbp), %rcx
	callq	_ZN4core3ptr161drop_in_place$LT$core..iter..adapters..map..Map$LT$proc_macro2..token_stream..IntoIter$C$quote..__private..respan_token_tree..$u7b$$u7b$closure$u7d$$u7d$$GT$$GT$17hef05679331b998cfE
	jmp	.LBB52_5
	.seh_handlerdata
	.section	.text,"xr",one_only,_ZN126_$LT$proc_macro2..fallback..TokenStream$u20$as$u20$core..iter..traits..collect..FromIterator$LT$proc_macro2..TokenTree$GT$$GT$9from_iter17h2eab1c611b221c48E
	.seh_endproc
	.def	"?dtor$3@?0?_ZN126_$LT$proc_macro2..fallback..TokenStream$u20$as$u20$core..iter..traits..collect..FromIterator$LT$proc_macro2..TokenTree$GT$$GT$9from_iter17h2eab1c611b221c48E@4HA";
	.scl	3;
	.type	32;
	.endef
	.p2align	4, 0x90
"?dtor$3@?0?_ZN126_$LT$proc_macro2..fallback..TokenStream$u20$as$u20$core..iter..traits..collect..FromIterator$LT$proc_macro2..TokenTree$GT$$GT$9from_iter17h2eab1c611b221c48E@4HA":
.seh_proc "?dtor$3@?0?_ZN126_$LT$proc_macro2..fallback..TokenStream$u20$as$u20$core..iter..traits..collect..FromIterator$LT$proc_macro2..TokenTree$GT$$GT$9from_iter17h2eab1c611b221c48E@4HA"
.LBB52_3:
.Ltmp647:
	movq	%rdx, 16(%rsp)
	pushq	%rbp
	.seh_pushreg %rbp
	subq	$32, %rsp
	.seh_stackalloc 32
	leaq	128(%rdx), %rbp
.Ltmp648:
	.seh_endprologue
	leaq	-72(%rbp), %rcx
	callq	_ZN4core3ptr55drop_in_place$LT$proc_macro2..fallback..TokenStream$GT$17hbd909742b2f94c1eE
	nop
	addq	$32, %rsp
	popq	%rbp
	retq
.Ltmp649:
.Lfunc_end52:
	.seh_handlerdata
	.section	.text,"xr",one_only,_ZN126_$LT$proc_macro2..fallback..TokenStream$u20$as$u20$core..iter..traits..collect..FromIterator$LT$proc_macro2..TokenTree$GT$$GT$9from_iter17h2eab1c611b221c48E
	.seh_endproc
	.section	.xdata,"dr",associative,_ZN126_$LT$proc_macro2..fallback..TokenStream$u20$as$u20$core..iter..traits..collect..FromIterator$LT$proc_macro2..TokenTree$GT$$GT$9from_iter17h2eab1c611b221c48E
	.p2align	2
$cppxdata$_ZN126_$LT$proc_macro2..fallback..TokenStream$u20$as$u20$core..iter..traits..collect..FromIterator$LT$proc_macro2..TokenTree$GT$$GT$9from_iter17h2eab1c611b221c48E:
	.long	429065506
	.long	2
	.long	($stateUnwindMap$_ZN126_$LT$proc_macro2..fallback..TokenStream$u20$as$u20$core..iter..traits..collect..FromIterator$LT$proc_macro2..TokenTree$GT$$GT$9from_iter17h2eab1c611b221c48E)@IMGREL
	.long	0
	.long	0
	.long	4
	.long	($ip2state$_ZN126_$LT$proc_macro2..fallback..TokenStream$u20$as$u20$core..iter..traits..collect..FromIterator$LT$proc_macro2..TokenTree$GT$$GT$9from_iter17h2eab1c611b221c48E)@IMGREL
	.long	120
	.long	0
	.long	1
$stateUnwindMap$_ZN126_$LT$proc_macro2..fallback..TokenStream$u20$as$u20$core..iter..traits..collect..FromIterator$LT$proc_macro2..TokenTree$GT$$GT$9from_iter17h2eab1c611b221c48E:
	.long	-1
	.long	"?dtor$1@?0?_ZN126_$LT$proc_macro2..fallback..TokenStream$u20$as$u20$core..iter..traits..collect..FromIterator$LT$proc_macro2..TokenTree$GT$$GT$9from_iter17h2eab1c611b221c48E@4HA"@IMGREL
	.long	0
	.long	"?dtor$3@?0?_ZN126_$LT$proc_macro2..fallback..TokenStream$u20$as$u20$core..iter..traits..collect..FromIterator$LT$proc_macro2..TokenTree$GT$$GT$9from_iter17h2eab1c611b221c48E@4HA"@IMGREL
$ip2state$_ZN126_$LT$proc_macro2..fallback..TokenStream$u20$as$u20$core..iter..traits..collect..FromIterator$LT$proc_macro2..TokenTree$GT$$GT$9from_iter17h2eab1c611b221c48E:
	.long	.Lfunc_begin52@IMGREL
	.long	-1
	.long	.Ltmp636@IMGREL+1
	.long	0
	.long	.Ltmp638@IMGREL+1
	.long	1
	.long	.Ltmp639@IMGREL+1
	.long	-1
	.section	.text,"xr",one_only,_ZN126_$LT$proc_macro2..fallback..TokenStream$u20$as$u20$core..iter..traits..collect..FromIterator$LT$proc_macro2..TokenTree$GT$$GT$9from_iter17h2eab1c611b221c48E

	.def	_ZN132_$LT$proc_macro2..fallback..TokenStream$u20$as$u20$core..iter..traits..collect..Extend$LT$proc_macro2..fallback..TokenStream$GT$$GT$6extend17hec01b3fa07865d88E;
	.scl	2;
	.type	32;
	.endef
	.section	.text,"xr",one_only,_ZN132_$LT$proc_macro2..fallback..TokenStream$u20$as$u20$core..iter..traits..collect..Extend$LT$proc_macro2..fallback..TokenStream$GT$$GT$6extend17hec01b3fa07865d88E
	.globl	_ZN132_$LT$proc_macro2..fallback..TokenStream$u20$as$u20$core..iter..traits..collect..Extend$LT$proc_macro2..fallback..TokenStream$GT$$GT$6extend17hec01b3fa07865d88E
	.p2align	4, 0x90
_ZN132_$LT$proc_macro2..fallback..TokenStream$u20$as$u20$core..iter..traits..collect..Extend$LT$proc_macro2..fallback..TokenStream$GT$$GT$6extend17hec01b3fa07865d88E:
.Lfunc_begin53:
	.cv_func_id 70
	.cv_loc	70 13 282 0
.seh_proc _ZN132_$LT$proc_macro2..fallback..TokenStream$u20$as$u20$core..iter..traits..collect..Extend$LT$proc_macro2..fallback..TokenStream$GT$$GT$6extend17hec01b3fa07865d88E
	.seh_handler __CxxFrameHandler3, @unwind, @except
	pushq	%rbp
	.seh_pushreg %rbp
	subq	$272, %rsp
	.seh_stackalloc 272
	leaq	128(%rsp), %rbp
	.seh_setframe %rbp, 128
	.seh_endprologue
	movq	$-2, 136(%rbp)
	movq	%rdx, -88(%rbp)
.Ltmp658:
	movq	%rcx, 128(%rbp)
.Ltmp659:
	.cv_loc	70 13 283 0
	movb	$0, 127(%rbp)
	movb	$1, 127(%rbp)
.Ltmp650:
	callq	_ZN11proc_macro25rcvec14RcVec$LT$T$GT$8make_mut17ha6bb23d16a380cb2E
.Ltmp660:
.Ltmp651:
	movq	%rax, -80(%rbp)
.Ltmp661:
	jmp	.LBB53_2
.Ltmp662:
.LBB53_2:
	movq	-88(%rbp), %rax
	movq	-80(%rbp), %rcx
	movq	%rcx, -72(%rbp)
	movb	$0, 127(%rbp)
	movq	32(%rax), %rcx
	movq	%rcx, 112(%rbp)
	vmovups	(%rax), %ymm0
	vmovups	%ymm0, 80(%rbp)
.Ltmp652:
	leaq	40(%rbp), %rcx
	leaq	80(%rbp), %rdx
	vzeroupper
	callq	_ZN63_$LT$I$u20$as$u20$core..iter..traits..collect..IntoIterator$GT$9into_iter17h6f993c1695c3b7d4E
.Ltmp653:
	jmp	.LBB53_3
.Ltmp663:
.LBB53_3:
.Ltmp654:
	leaq	-64(%rbp), %rcx
	leaq	40(%rbp), %rdx
	callq	_ZN4core4iter6traits8iterator8Iterator7flatten17haa3368c404840e24E
.Ltmp655:
	jmp	.LBB53_4
.Ltmp664:
.LBB53_4:
.Ltmp656:
	leaq	-72(%rbp), %rcx
	leaq	-64(%rbp), %rdx
	callq	_ZN11proc_macro25rcvec17RcVecMut$LT$T$GT$6extend17h9f420bbc238a4b9fE
.Ltmp657:
	jmp	.LBB53_5
.Ltmp665:
.LBB53_5:
	.cv_loc	70 13 284 0
	addq	$272, %rsp
	popq	%rbp
	retq
.Ltmp666:
	.seh_handlerdata
	.long	($cppxdata$_ZN132_$LT$proc_macro2..fallback..TokenStream$u20$as$u20$core..iter..traits..collect..Extend$LT$proc_macro2..fallback..TokenStream$GT$$GT$6extend17hec01b3fa07865d88E)@IMGREL
	.section	.text,"xr",one_only,_ZN132_$LT$proc_macro2..fallback..TokenStream$u20$as$u20$core..iter..traits..collect..Extend$LT$proc_macro2..fallback..TokenStream$GT$$GT$6extend17hec01b3fa07865d88E
	.seh_endproc
	.def	"?dtor$1@?0?_ZN132_$LT$proc_macro2..fallback..TokenStream$u20$as$u20$core..iter..traits..collect..Extend$LT$proc_macro2..fallback..TokenStream$GT$$GT$6extend17hec01b3fa07865d88E@4HA";
	.scl	3;
	.type	32;
	.endef
	.p2align	4, 0x90
"?dtor$1@?0?_ZN132_$LT$proc_macro2..fallback..TokenStream$u20$as$u20$core..iter..traits..collect..Extend$LT$proc_macro2..fallback..TokenStream$GT$$GT$6extend17hec01b3fa07865d88E@4HA":
.seh_proc "?dtor$1@?0?_ZN132_$LT$proc_macro2..fallback..TokenStream$u20$as$u20$core..iter..traits..collect..Extend$LT$proc_macro2..fallback..TokenStream$GT$$GT$6extend17hec01b3fa07865d88E@4HA"
.LBB53_1:
	movq	%rdx, 16(%rsp)
	pushq	%rbp
	.seh_pushreg %rbp
	subq	$32, %rsp
	.seh_stackalloc 32
	leaq	128(%rdx), %rbp
.Ltmp667:
	.seh_endprologue
	testb	$1, 127(%rbp)
	jne	.LBB53_7
	jmp	.LBB53_6
.LBB53_6:
	.cv_loc	70 13 282 0
	addq	$32, %rsp
	popq	%rbp
	retq
.LBB53_7:
	.cv_loc	70 13 284 0
	movq	-88(%rbp), %rcx
	callq	_ZN4core3ptr429drop_in_place$LT$core..iter..adapters..map..Map$LT$core..iter..adapters..map..Map$LT$core..iter..sources..once..Once$LT$proc_macro2..TokenStream$GT$$C$$LT$proc_macro2..TokenStream$u20$as$u20$core..iter..traits..collect..Extend$LT$proc_macro2..TokenStream$GT$$GT$..extend$LT$core..iter..sources..once..Once$LT$proc_macro2..TokenStream$GT$$GT$..$u7b$$u7b$closure$u7d$$u7d$$GT$$C$proc_macro2..imp..TokenStream..unwrap_stable$GT$$GT$17hc0eeb566a918b266E
	jmp	.LBB53_6
.Ltmp668:
.Lfunc_end53:
	.seh_handlerdata
	.section	.text,"xr",one_only,_ZN132_$LT$proc_macro2..fallback..TokenStream$u20$as$u20$core..iter..traits..collect..Extend$LT$proc_macro2..fallback..TokenStream$GT$$GT$6extend17hec01b3fa07865d88E
	.seh_endproc
	.section	.xdata,"dr",associative,_ZN132_$LT$proc_macro2..fallback..TokenStream$u20$as$u20$core..iter..traits..collect..Extend$LT$proc_macro2..fallback..TokenStream$GT$$GT$6extend17hec01b3fa07865d88E
	.p2align	2
$cppxdata$_ZN132_$LT$proc_macro2..fallback..TokenStream$u20$as$u20$core..iter..traits..collect..Extend$LT$proc_macro2..fallback..TokenStream$GT$$GT$6extend17hec01b3fa07865d88E:
	.long	429065506
	.long	1
	.long	($stateUnwindMap$_ZN132_$LT$proc_macro2..fallback..TokenStream$u20$as$u20$core..iter..traits..collect..Extend$LT$proc_macro2..fallback..TokenStream$GT$$GT$6extend17hec01b3fa07865d88E)@IMGREL
	.long	0
	.long	0
	.long	3
	.long	($ip2state$_ZN132_$LT$proc_macro2..fallback..TokenStream$u20$as$u20$core..iter..traits..collect..Extend$LT$proc_macro2..fallback..TokenStream$GT$$GT$6extend17hec01b3fa07865d88E)@IMGREL
	.long	264
	.long	0
	.long	1
$stateUnwindMap$_ZN132_$LT$proc_macro2..fallback..TokenStream$u20$as$u20$core..iter..traits..collect..Extend$LT$proc_macro2..fallback..TokenStream$GT$$GT$6extend17hec01b3fa07865d88E:
	.long	-1
	.long	"?dtor$1@?0?_ZN132_$LT$proc_macro2..fallback..TokenStream$u20$as$u20$core..iter..traits..collect..Extend$LT$proc_macro2..fallback..TokenStream$GT$$GT$6extend17hec01b3fa07865d88E@4HA"@IMGREL
$ip2state$_ZN132_$LT$proc_macro2..fallback..TokenStream$u20$as$u20$core..iter..traits..collect..Extend$LT$proc_macro2..fallback..TokenStream$GT$$GT$6extend17hec01b3fa07865d88E:
	.long	.Lfunc_begin53@IMGREL
	.long	-1
	.long	.Ltmp650@IMGREL+1
	.long	0
	.long	.Ltmp657@IMGREL+1
	.long	-1
	.section	.text,"xr",one_only,_ZN132_$LT$proc_macro2..fallback..TokenStream$u20$as$u20$core..iter..traits..collect..Extend$LT$proc_macro2..fallback..TokenStream$GT$$GT$6extend17hec01b3fa07865d88E

	.def	_ZN4core3cmp3Ord3max17hc29a2c9fc78f6914E;
	.scl	2;
	.type	32;
	.endef
	.section	.text,"xr",one_only,_ZN4core3cmp3Ord3max17hc29a2c9fc78f6914E
	.globl	_ZN4core3cmp3Ord3max17hc29a2c9fc78f6914E
	.p2align	4, 0x90
_ZN4core3cmp3Ord3max17hc29a2c9fc78f6914E:
.Lfunc_begin54:
	.cv_func_id 71
	.cv_file	14 "/rustc/90743e7298aca107ddaa0c202a4d3604e29bfeb6\\library\\core\\src\\cmp.rs" "203F09B80BB70254523209A3310BAC5FC58C6DFA" 2
	.cv_loc	71 14 795 0
.seh_proc _ZN4core3cmp3Ord3max17hc29a2c9fc78f6914E
	.seh_handler __CxxFrameHandler3, @unwind, @except
	pushq	%rbp
	.seh_pushreg %rbp
	subq	$80, %rsp
	.seh_stackalloc 80
	leaq	80(%rsp), %rbp
	.seh_setframe %rbp, 80
	.seh_endprologue
	movq	$-2, -8(%rbp)
	movq	%rcx, -40(%rbp)
	movq	%rdx, -32(%rbp)
.Ltmp671:
	.cv_loc	71 14 803 0
	movb	$1, -9(%rbp)
	movb	$1, -10(%rbp)
.Ltmp669:
	leaq	-40(%rbp), %rcx
	leaq	-32(%rbp), %rdx
	callq	_ZN66_$LT$core..ptr..alignment..Alignment$u20$as$u20$core..cmp..Ord$GT$3cmp17hf10c886e55924fc8E
.Ltmp670:
	movb	%al, -41(%rbp)
	jmp	.LBB54_2
.LBB54_2:
	movb	-41(%rbp), %al
	movb	%al, -11(%rbp)
	movb	-11(%rbp), %al
	incb	%al
	subb	$2, %al
	jb	.LBB54_5
	jmp	.LBB54_14
.LBB54_14:
	jmp	.LBB54_6
	ud2
.LBB54_5:
	.cv_loc	71 14 804 0
	movb	$0, -10(%rbp)
	movq	-32(%rbp), %rax
	movq	%rax, -24(%rbp)
	jmp	.LBB54_7
.LBB54_6:
	.cv_loc	71 14 805 0
	movb	$0, -9(%rbp)
	movq	-40(%rbp), %rax
	movq	%rax, -24(%rbp)
.LBB54_7:
	.cv_loc	71 14 807 0
	testb	$1, -10(%rbp)
	jne	.LBB54_9
.LBB54_8:
	testb	$1, -9(%rbp)
	jne	.LBB54_13
	jmp	.LBB54_12
.LBB54_9:
	jmp	.LBB54_8
.LBB54_12:
	movq	-24(%rbp), %rax
	addq	$80, %rsp
	popq	%rbp
	retq
.LBB54_13:
	jmp	.LBB54_12
	.seh_handlerdata
	.long	($cppxdata$_ZN4core3cmp3Ord3max17hc29a2c9fc78f6914E)@IMGREL
	.section	.text,"xr",one_only,_ZN4core3cmp3Ord3max17hc29a2c9fc78f6914E
	.seh_endproc
	.def	"?dtor$1@?0?_ZN4core3cmp3Ord3max17hc29a2c9fc78f6914E@4HA";
	.scl	3;
	.type	32;
	.endef
	.p2align	4, 0x90
"?dtor$1@?0?_ZN4core3cmp3Ord3max17hc29a2c9fc78f6914E@4HA":
.seh_proc "?dtor$1@?0?_ZN4core3cmp3Ord3max17hc29a2c9fc78f6914E@4HA"
.LBB54_1:
	movq	%rdx, 16(%rsp)
	pushq	%rbp
	.seh_pushreg %rbp
	subq	$32, %rsp
	.seh_stackalloc 32
	leaq	80(%rdx), %rbp
	.seh_endprologue
	addq	$32, %rsp
	popq	%rbp
	retq
	.seh_handlerdata
	.section	.text,"xr",one_only,_ZN4core3cmp3Ord3max17hc29a2c9fc78f6914E
	.seh_endproc
	.def	"?dtor$3@?0?_ZN4core3cmp3Ord3max17hc29a2c9fc78f6914E@4HA";
	.scl	3;
	.type	32;
	.endef
	.p2align	4, 0x90
"?dtor$3@?0?_ZN4core3cmp3Ord3max17hc29a2c9fc78f6914E@4HA":
.seh_proc "?dtor$3@?0?_ZN4core3cmp3Ord3max17hc29a2c9fc78f6914E@4HA"
.LBB54_3:
	movq	%rdx, 16(%rsp)
	pushq	%rbp
	.seh_pushreg %rbp
	subq	$32, %rsp
	.seh_stackalloc 32
	leaq	80(%rdx), %rbp
	.seh_endprologue
	testb	$1, -9(%rbp)
	jne	.LBB54_11
	jmp	.LBB54_10
.LBB54_10:
	.cv_loc	71 14 795 0
	addq	$32, %rsp
	popq	%rbp
	retq
.LBB54_11:
	.cv_loc	71 14 807 0
	jmp	.LBB54_10
.Ltmp672:
.Lfunc_end54:
	.seh_handlerdata
	.section	.text,"xr",one_only,_ZN4core3cmp3Ord3max17hc29a2c9fc78f6914E
	.seh_endproc
	.section	.xdata,"dr",associative,_ZN4core3cmp3Ord3max17hc29a2c9fc78f6914E
	.p2align	2
$cppxdata$_ZN4core3cmp3Ord3max17hc29a2c9fc78f6914E:
	.long	429065506
	.long	2
	.long	($stateUnwindMap$_ZN4core3cmp3Ord3max17hc29a2c9fc78f6914E)@IMGREL
	.long	0
	.long	0
	.long	3
	.long	($ip2state$_ZN4core3cmp3Ord3max17hc29a2c9fc78f6914E)@IMGREL
	.long	72
	.long	0
	.long	1
$stateUnwindMap$_ZN4core3cmp3Ord3max17hc29a2c9fc78f6914E:
	.long	-1
	.long	"?dtor$3@?0?_ZN4core3cmp3Ord3max17hc29a2c9fc78f6914E@4HA"@IMGREL
	.long	0
	.long	"?dtor$1@?0?_ZN4core3cmp3Ord3max17hc29a2c9fc78f6914E@4HA"@IMGREL
$ip2state$_ZN4core3cmp3Ord3max17hc29a2c9fc78f6914E:
	.long	.Lfunc_begin54@IMGREL
	.long	-1
	.long	.Ltmp669@IMGREL+1
	.long	1
	.long	.Ltmp670@IMGREL+1
	.long	-1
	.section	.text,"xr",one_only,_ZN4core3cmp3Ord3max17hc29a2c9fc78f6914E

	.def	_ZN4core3mem7replace17h07054544c71bf284E;
	.scl	2;
	.type	32;
	.endef
	.section	.text,"xr",one_only,_ZN4core3mem7replace17h07054544c71bf284E
	.globl	_ZN4core3mem7replace17h07054544c71bf284E
	.p2align	4, 0x90
_ZN4core3mem7replace17h07054544c71bf284E:
.Lfunc_begin55:
	.cv_func_id 72
	.cv_file	15 "/rustc/90743e7298aca107ddaa0c202a4d3604e29bfeb6\\library\\core\\src\\mem\\mod.rs" "369936B4D4BF978D9E3068F0582A9983FCB5118B" 2
	.cv_loc	72 15 912 0
.seh_proc _ZN4core3mem7replace17h07054544c71bf284E
	subq	$160, %rsp
	.seh_stackalloc 160
	.seh_endprologue
	movq	%rcx, %rax
.Ltmp673:
	movq	%rdx, 128(%rsp)
.Ltmp674:
	.cv_loc	72 15 917 0
	movq	%rdx, 136(%rsp)
.Ltmp675:
	.cv_file	16 "/rustc/90743e7298aca107ddaa0c202a4d3604e29bfeb6\\library\\core\\src\\ptr\\mod.rs" "915A2787D4B080290F8FC1BDA15EFBDA3325D28E" 2
	.cv_inline_site_id 73 within 72 inlined_at 15 917 0
	.cv_loc	73 16 1139 0
	leaq	32(%rsp), %r9
	movq	%r9, 144(%rsp)
	movq	(%rdx), %r9
	movq	%r9, 32(%rsp)
	movq	8(%rdx), %r9
	movq	%r9, 40(%rsp)
	movq	16(%rdx), %r9
	movq	%r9, 48(%rsp)
	movq	24(%rdx), %r9
	movq	%r9, 56(%rsp)
	.cv_loc	73 16 1140 0
	movq	32(%rsp), %r9
	movq	%r9, 64(%rsp)
	movq	40(%rsp), %r9
	movq	%r9, 72(%rsp)
	movq	48(%rsp), %r9
	movq	%r9, 80(%rsp)
	movq	56(%rsp), %r9
	movq	%r9, 88(%rsp)
.Ltmp676:
	.cv_file	17 "/rustc/90743e7298aca107ddaa0c202a4d3604e29bfeb6\\library\\core\\src\\mem\\maybe_uninit.rs" "D86EE697DA2461E260B588D1B47691B7D0757E21" 2
	.cv_inline_site_id 74 within 73 inlined_at 16 1140 0
	.cv_loc	74 17 627 0
	movq	64(%rsp), %r9
	movq	%r9, 96(%rsp)
	movq	72(%rsp), %r9
	movq	%r9, 104(%rsp)
	movq	80(%rsp), %r9
	movq	%r9, 112(%rsp)
	movq	88(%rsp), %r9
	movq	%r9, 120(%rsp)
.Ltmp677:
	.cv_file	18 "/rustc/90743e7298aca107ddaa0c202a4d3604e29bfeb6\\library\\core\\src\\mem\\manually_drop.rs" "05D1F1C923886F7AA54321ED539171C9D20B2BE6" 2
	.cv_inline_site_id 75 within 74 inlined_at 17 627 0
	.cv_loc	75 18 89 0
	movq	96(%rsp), %r9
	movq	%r9, (%rcx)
	movq	104(%rsp), %r9
	movq	%r9, 8(%rcx)
	movq	112(%rsp), %r9
	movq	%r9, 16(%rcx)
	movq	120(%rsp), %r9
	movq	%r9, 24(%rcx)
.Ltmp678:
	.cv_loc	72 15 918 0
	movq	%rdx, 152(%rsp)
	movq	(%r8), %rcx
.Ltmp679:
	movq	%rcx, (%rsp)
	movq	8(%r8), %rcx
	movq	%rcx, 8(%rsp)
	movq	16(%r8), %rcx
	movq	%rcx, 16(%rsp)
	movq	24(%r8), %rcx
	movq	%rcx, 24(%rsp)
.Ltmp680:
	.cv_inline_site_id 76 within 72 inlined_at 15 918 0
	.cv_loc	76 16 1336 0
	movq	(%rsp), %rcx
	movq	%rcx, (%rdx)
	movq	8(%rsp), %rcx
	movq	%rcx, 8(%rdx)
	movq	16(%rsp), %rcx
	movq	%rcx, 16(%rdx)
	movq	24(%rsp), %rcx
	movq	%rcx, 24(%rdx)
.Ltmp681:
	.cv_loc	72 15 921 0
	addq	$160, %rsp
	retq
.Ltmp682:
.Lfunc_end55:
	.seh_endproc

	.def	_ZN4core3mem7replace17hde0fb5c06241d6b0E;
	.scl	2;
	.type	32;
	.endef
	.section	.text,"xr",one_only,_ZN4core3mem7replace17hde0fb5c06241d6b0E
	.globl	_ZN4core3mem7replace17hde0fb5c06241d6b0E
	.p2align	4, 0x90
_ZN4core3mem7replace17hde0fb5c06241d6b0E:
.Lfunc_begin56:
	.cv_func_id 77
	.cv_loc	77 15 912 0
.seh_proc _ZN4core3mem7replace17hde0fb5c06241d6b0E
	subq	$264, %rsp
	.seh_stackalloc 264
	.seh_endprologue
	movq	%r8, 48(%rsp)
	movq	%rdx, 56(%rsp)
	movq	%rcx, 40(%rsp)
	movq	%rcx, 64(%rsp)
.Ltmp683:
	movq	%rdx, 232(%rsp)
.Ltmp684:
	.cv_loc	77 15 917 0
	movq	%rdx, 240(%rsp)
.Ltmp685:
	.cv_inline_site_id 78 within 77 inlined_at 15 917 0
	.cv_loc	78 16 1139 0
	leaq	112(%rsp), %rax
	movq	%rax, 248(%rsp)
	leaq	112(%rsp), %rcx
	movl	$40, %r8d
	callq	memcpy
	.cv_loc	78 16 1140 0
	leaq	152(%rsp), %rcx
	leaq	112(%rsp), %rdx
	movl	$40, %r8d
	callq	memcpy
.Ltmp686:
	.cv_inline_site_id 79 within 78 inlined_at 16 1140 0
	.cv_loc	79 17 627 0
	leaq	192(%rsp), %rcx
	leaq	152(%rsp), %rdx
	movl	$40, %r8d
	callq	memcpy
	movq	40(%rsp), %rcx
.Ltmp687:
	.cv_inline_site_id 80 within 79 inlined_at 17 627 0
	.cv_loc	80 18 89 0
	leaq	192(%rsp), %rdx
	movl	$40, %r8d
	callq	memcpy
	movq	48(%rsp), %rdx
	movq	56(%rsp), %rax
.Ltmp688:
	.cv_loc	77 15 918 0
	movq	%rax, 256(%rsp)
	leaq	72(%rsp), %rcx
	movl	$40, %r8d
	callq	memcpy
	movq	56(%rsp), %rcx
.Ltmp689:
	.cv_inline_site_id 81 within 77 inlined_at 15 918 0
	.cv_loc	81 16 1336 0
	leaq	72(%rsp), %rdx
	movl	$40, %r8d
	callq	memcpy
	movq	64(%rsp), %rax
.Ltmp690:
	.cv_loc	77 15 921 0
	addq	$264, %rsp
	retq
.Ltmp691:
.Lfunc_end56:
	.seh_endproc

	.def	_ZN4core3num23_$LT$impl$u20$usize$GT$11checked_add17h64063402d7b00667E;
	.scl	3;
	.type	32;
	.endef
	.section	.text,"xr",one_only,_ZN4core3num23_$LT$impl$u20$usize$GT$11checked_add17h64063402d7b00667E
	.p2align	4, 0x90
_ZN4core3num23_$LT$impl$u20$usize$GT$11checked_add17h64063402d7b00667E:
.Lfunc_begin57:
	.cv_func_id 82
	.cv_loc	82 11 438 0
.seh_proc _ZN4core3num23_$LT$impl$u20$usize$GT$11checked_add17h64063402d7b00667E
	subq	$144, %rsp
	.seh_stackalloc 144
	.seh_endprologue
	movq	%rcx, 64(%rsp)
	movq	%rdx, 72(%rsp)
.Ltmp692:
	.cv_loc	82 11 439 0
	movq	%rcx, 80(%rsp)
	movq	%rdx, 88(%rsp)
.Ltmp693:
	.cv_inline_site_id 83 within 82 inlined_at 11 439 0
	.cv_loc	83 11 1468 0
	addq	%rdx, %rcx
	setb	%al
	andb	$1, %al
	movq	%rcx, 96(%rsp)
	movb	%al, 104(%rsp)
	movq	96(%rsp), %rax
	movq	%rax, 16(%rsp)
	movb	104(%rsp), %al
	movb	%al, 31(%rsp)
	movb	31(%rsp), %al
	movq	16(%rsp), %rcx
	movq	%rcx, 112(%rsp)
	movb	%al, %dl
	andb	$1, %dl
	movb	%dl, 127(%rsp)
.Ltmp694:
	.cv_loc	83 11 1469 0
	movq	%rcx, 48(%rsp)
	andb	$1, %al
	movb	%al, 56(%rsp)
.Ltmp695:
	.cv_loc	82 11 439 0
	movq	48(%rsp), %rax
	movq	%rax, (%rsp)
	movq	%rax, 128(%rsp)
	movb	56(%rsp), %al
	movb	%al, %cl
	andb	$1, %cl
	movb	%cl, 142(%rsp)
.Ltmp696:
	.cv_loc	82 11 440 0
	andb	$1, %al
	movb	%al, 143(%rsp)
	movb	143(%rsp), %al
	movb	%al, 15(%rsp)
	movb	15(%rsp), %al
	testb	$1, %al
	jne	.LBB57_4
	jmp	.LBB57_3
.LBB57_3:
	movq	(%rsp), %rax
	movq	%rax, 40(%rsp)
	movq	$1, 32(%rsp)
	jmp	.LBB57_5
.LBB57_4:
	movq	$0, 32(%rsp)
.Ltmp697:
.LBB57_5:
	.cv_loc	82 11 441 0
	movq	32(%rsp), %rax
	movq	40(%rsp), %rdx
	addq	$144, %rsp
	retq
.Ltmp698:
.Lfunc_end57:
	.seh_endproc

	.def	_ZN4core3num23_$LT$impl$u20$usize$GT$11checked_mul17h62e0b5018888cb4dE;
	.scl	3;
	.type	32;
	.endef
	.section	.text,"xr",one_only,_ZN4core3num23_$LT$impl$u20$usize$GT$11checked_mul17h62e0b5018888cb4dE
	.p2align	4, 0x90
_ZN4core3num23_$LT$impl$u20$usize$GT$11checked_mul17h62e0b5018888cb4dE:
.Lfunc_begin58:
	.cv_func_id 84
	.cv_loc	84 11 554 0
.seh_proc _ZN4core3num23_$LT$impl$u20$usize$GT$11checked_mul17h62e0b5018888cb4dE
	subq	$144, %rsp
	.seh_stackalloc 144
	.seh_endprologue
	movq	%rcx, %rax
	movq	%rax, 64(%rsp)
	movq	%rdx, 72(%rsp)
.Ltmp699:
	.cv_loc	84 11 555 0
	movq	%rax, 80(%rsp)
	movq	%rdx, 88(%rsp)
.Ltmp700:
	.cv_inline_site_id 85 within 84 inlined_at 11 555 0
	.cv_loc	85 11 1666 0
	mulq	%rdx
	movq	%rax, %rcx
	seto	%al
	andb	$1, %al
	movq	%rcx, 96(%rsp)
	movb	%al, 104(%rsp)
	movq	96(%rsp), %rax
	movq	%rax, 16(%rsp)
	movb	104(%rsp), %al
	movb	%al, 31(%rsp)
	movb	31(%rsp), %al
	movq	16(%rsp), %rcx
	movq	%rcx, 112(%rsp)
	movb	%al, %dl
	andb	$1, %dl
	movb	%dl, 127(%rsp)
.Ltmp701:
	.cv_loc	85 11 1667 0
	movq	%rcx, 48(%rsp)
	andb	$1, %al
	movb	%al, 56(%rsp)
.Ltmp702:
	.cv_loc	84 11 555 0
	movq	48(%rsp), %rax
	movq	%rax, (%rsp)
	movq	%rax, 128(%rsp)
	movb	56(%rsp), %al
	movb	%al, %cl
	andb	$1, %cl
	movb	%cl, 142(%rsp)
.Ltmp703:
	.cv_loc	84 11 556 0
	andb	$1, %al
	movb	%al, 143(%rsp)
	movb	143(%rsp), %al
	movb	%al, 15(%rsp)
	movb	15(%rsp), %al
	testb	$1, %al
	jne	.LBB58_4
	jmp	.LBB58_3
.LBB58_3:
	movq	(%rsp), %rax
	movq	%rax, 40(%rsp)
	movq	$1, 32(%rsp)
	jmp	.LBB58_5
.LBB58_4:
	movq	$0, 32(%rsp)
.Ltmp704:
.LBB58_5:
	.cv_loc	84 11 557 0
	movq	32(%rsp), %rax
	movq	40(%rsp), %rdx
	addq	$144, %rsp
	retq
.Ltmp705:
.Lfunc_end58:
	.seh_endproc

	.def	_ZN4core3ops8function5FnMut8call_mut17ha33a510d076b2600E;
	.scl	3;
	.type	32;
	.endef
	.section	.text,"xr",one_only,_ZN4core3ops8function5FnMut8call_mut17ha33a510d076b2600E
	.p2align	4, 0x90
_ZN4core3ops8function5FnMut8call_mut17ha33a510d076b2600E:
.Lfunc_begin59:
	.cv_func_id 86
	.cv_file	19 "/rustc/90743e7298aca107ddaa0c202a4d3604e29bfeb6\\library\\core\\src\\ops\\function.rs" "30571CBFA498AC809C9112A69B06C31447DD7867" 2
	.cv_loc	86 19 166 0
.seh_proc _ZN4core3ops8function5FnMut8call_mut17ha33a510d076b2600E
	subq	$88, %rsp
	.seh_stackalloc 88
	.seh_endprologue
	movq	(%rdx), %rax
	movq	%rax, 48(%rsp)
	movq	8(%rdx), %rax
	movq	%rax, 56(%rsp)
	movq	16(%rdx), %rax
	movq	%rax, 64(%rsp)
	movq	24(%rdx), %rax
	movq	%rax, 72(%rsp)
	movq	%rcx, 80(%rsp)
.Ltmp706:
	leaq	48(%rsp), %rcx
	callq	_ZN11proc_macro23imp11TokenStream14unwrap_nightly17h186ea7c75a2aa259E
	movl	%eax, 44(%rsp)
	movl	44(%rsp), %eax
	addq	$88, %rsp
	retq
.Ltmp707:
.Lfunc_end59:
	.seh_endproc

	.def	_ZN4core3ops8function5FnMut8call_mut17hc51b60cc429a1d6aE;
	.scl	3;
	.type	32;
	.endef
	.section	.text,"xr",one_only,_ZN4core3ops8function5FnMut8call_mut17hc51b60cc429a1d6aE
	.p2align	4, 0x90
_ZN4core3ops8function5FnMut8call_mut17hc51b60cc429a1d6aE:
.Lfunc_begin60:
	.cv_func_id 87
	.cv_loc	87 19 166 0
.seh_proc _ZN4core3ops8function5FnMut8call_mut17hc51b60cc429a1d6aE
	subq	$88, %rsp
	.seh_stackalloc 88
	.seh_endprologue
	movq	%rcx, %rax
	movq	%rax, 40(%rsp)
	movq	(%r8), %rax
	movq	%rax, 48(%rsp)
	movq	8(%r8), %rax
	movq	%rax, 56(%rsp)
	movq	16(%r8), %rax
	movq	%rax, 64(%rsp)
	movq	24(%r8), %rax
	movq	%rax, 72(%rsp)
	movq	%rdx, 80(%rsp)
.Ltmp708:
	leaq	48(%rsp), %rdx
	callq	_ZN11proc_macro23imp19into_compiler_token17h78ec7eb8264295baE
	movq	40(%rsp), %rax
	addq	$88, %rsp
	retq
.Ltmp709:
.Lfunc_end60:
	.seh_endproc

	.def	_ZN4core3ops8function5FnMut8call_mut17hd65026cab8b85ae0E;
	.scl	3;
	.type	32;
	.endef
	.section	.text,"xr",one_only,_ZN4core3ops8function5FnMut8call_mut17hd65026cab8b85ae0E
	.p2align	4, 0x90
_ZN4core3ops8function5FnMut8call_mut17hd65026cab8b85ae0E:
.Lfunc_begin61:
	.cv_func_id 88
	.cv_loc	88 19 166 0
.seh_proc _ZN4core3ops8function5FnMut8call_mut17hd65026cab8b85ae0E
	subq	$88, %rsp
	.seh_stackalloc 88
	.seh_endprologue
	movq	(%rdx), %rax
	movq	%rax, 48(%rsp)
	movq	8(%rdx), %rax
	movq	%rax, 56(%rsp)
	movq	16(%rdx), %rax
	movq	%rax, 64(%rsp)
	movq	24(%rdx), %rax
	movq	%rax, 72(%rsp)
	movq	%rcx, 80(%rsp)
.Ltmp710:
	leaq	48(%rsp), %rcx
	callq	_ZN11proc_macro23imp11TokenStream13unwrap_stable17h768153eddc98e891E
	movq	%rax, 40(%rsp)
	movq	40(%rsp), %rax
	addq	$88, %rsp
	retq
.Ltmp711:
.Lfunc_end61:
	.seh_endproc

	.def	_ZN4core3ops8function5impls80_$LT$impl$u20$core..ops..function..FnOnce$LT$A$GT$$u20$for$u20$$RF$mut$u20$F$GT$9call_once17h4261dbc8787599d4E;
	.scl	2;
	.type	32;
	.endef
	.section	.text,"xr",one_only,_ZN4core3ops8function5impls80_$LT$impl$u20$core..ops..function..FnOnce$LT$A$GT$$u20$for$u20$$RF$mut$u20$F$GT$9call_once17h4261dbc8787599d4E
	.globl	_ZN4core3ops8function5impls80_$LT$impl$u20$core..ops..function..FnOnce$LT$A$GT$$u20$for$u20$$RF$mut$u20$F$GT$9call_once17h4261dbc8787599d4E
	.p2align	4, 0x90
_ZN4core3ops8function5impls80_$LT$impl$u20$core..ops..function..FnOnce$LT$A$GT$$u20$for$u20$$RF$mut$u20$F$GT$9call_once17h4261dbc8787599d4E:
.Lfunc_begin62:
	.cv_func_id 89
	.cv_loc	89 19 308 0
.seh_proc _ZN4core3ops8function5impls80_$LT$impl$u20$core..ops..function..FnOnce$LT$A$GT$$u20$for$u20$$RF$mut$u20$F$GT$9call_once17h4261dbc8787599d4E
	subq	$120, %rsp
	.seh_stackalloc 120
	.seh_endprologue
	movq	(%rdx), %rax
	movq	%rax, 48(%rsp)
	movq	8(%rdx), %rax
	movq	%rax, 56(%rsp)
	movq	16(%rdx), %rax
	movq	%rax, 64(%rsp)
	movq	24(%rdx), %rax
	movq	%rax, 72(%rsp)
	movq	%rcx, 112(%rsp)
.Ltmp712:
	.cv_loc	89 19 309 0
	movq	48(%rsp), %rax
	movq	%rax, 80(%rsp)
	movq	56(%rsp), %rax
	movq	%rax, 88(%rsp)
	movq	64(%rsp), %rax
	movq	%rax, 96(%rsp)
	movq	72(%rsp), %rax
	movq	%rax, 104(%rsp)
	leaq	80(%rsp), %rdx
	callq	_ZN4core3ops8function5FnMut8call_mut17hd65026cab8b85ae0E
	movq	%rax, 40(%rsp)
	.cv_loc	89 19 310 0
	movq	40(%rsp), %rax
	addq	$120, %rsp
	retq
.Ltmp713:
.Lfunc_end62:
	.seh_endproc

	.def	_ZN4core3ops8function5impls80_$LT$impl$u20$core..ops..function..FnOnce$LT$A$GT$$u20$for$u20$$RF$mut$u20$F$GT$9call_once17h47fa7410658c879cE;
	.scl	2;
	.type	32;
	.endef
	.section	.text,"xr",one_only,_ZN4core3ops8function5impls80_$LT$impl$u20$core..ops..function..FnOnce$LT$A$GT$$u20$for$u20$$RF$mut$u20$F$GT$9call_once17h47fa7410658c879cE
	.globl	_ZN4core3ops8function5impls80_$LT$impl$u20$core..ops..function..FnOnce$LT$A$GT$$u20$for$u20$$RF$mut$u20$F$GT$9call_once17h47fa7410658c879cE
	.p2align	4, 0x90
_ZN4core3ops8function5impls80_$LT$impl$u20$core..ops..function..FnOnce$LT$A$GT$$u20$for$u20$$RF$mut$u20$F$GT$9call_once17h47fa7410658c879cE:
.Lfunc_begin63:
	.cv_func_id 90
	.cv_loc	90 19 308 0
.seh_proc _ZN4core3ops8function5impls80_$LT$impl$u20$core..ops..function..FnOnce$LT$A$GT$$u20$for$u20$$RF$mut$u20$F$GT$9call_once17h47fa7410658c879cE
	subq	$120, %rsp
	.seh_stackalloc 120
	.seh_endprologue
	movq	%rcx, %rax
	movq	%rax, 40(%rsp)
	movq	(%r8), %rax
	movq	%rax, 48(%rsp)
	movq	8(%r8), %rax
	movq	%rax, 56(%rsp)
	movq	16(%r8), %rax
	movq	%rax, 64(%rsp)
	movq	24(%r8), %rax
	movq	%rax, 72(%rsp)
	movq	%rdx, 112(%rsp)
.Ltmp714:
	.cv_loc	90 19 309 0
	movq	48(%rsp), %rax
	movq	%rax, 80(%rsp)
	movq	56(%rsp), %rax
	movq	%rax, 88(%rsp)
	movq	64(%rsp), %rax
	movq	%rax, 96(%rsp)
	movq	72(%rsp), %rax
	movq	%rax, 104(%rsp)
	leaq	80(%rsp), %r8
	callq	_ZN5quote9__private13parse_spanned28_$u7b$$u7b$closure$u7d$$u7d$17h0442842acf375189E
	.cv_loc	90 19 310 0
	movq	40(%rsp), %rax
	addq	$120, %rsp
	retq
.Ltmp715:
.Lfunc_end63:
	.seh_endproc

	.def	_ZN4core3ops8function5impls80_$LT$impl$u20$core..ops..function..FnOnce$LT$A$GT$$u20$for$u20$$RF$mut$u20$F$GT$9call_once17h70fe4e26e58a37caE;
	.scl	2;
	.type	32;
	.endef
	.section	.text,"xr",one_only,_ZN4core3ops8function5impls80_$LT$impl$u20$core..ops..function..FnOnce$LT$A$GT$$u20$for$u20$$RF$mut$u20$F$GT$9call_once17h70fe4e26e58a37caE
	.globl	_ZN4core3ops8function5impls80_$LT$impl$u20$core..ops..function..FnOnce$LT$A$GT$$u20$for$u20$$RF$mut$u20$F$GT$9call_once17h70fe4e26e58a37caE
	.p2align	4, 0x90
_ZN4core3ops8function5impls80_$LT$impl$u20$core..ops..function..FnOnce$LT$A$GT$$u20$for$u20$$RF$mut$u20$F$GT$9call_once17h70fe4e26e58a37caE:
.Lfunc_begin64:
	.cv_func_id 91
	.cv_loc	91 19 308 0
.seh_proc _ZN4core3ops8function5impls80_$LT$impl$u20$core..ops..function..FnOnce$LT$A$GT$$u20$for$u20$$RF$mut$u20$F$GT$9call_once17h70fe4e26e58a37caE
	subq	$120, %rsp
	.seh_stackalloc 120
	.seh_endprologue
	movq	%rcx, %rax
	movq	%rax, 40(%rsp)
	movq	(%r8), %rax
	movq	%rax, 48(%rsp)
	movq	8(%r8), %rax
	movq	%rax, 56(%rsp)
	movq	16(%r8), %rax
	movq	%rax, 64(%rsp)
	movq	24(%r8), %rax
	movq	%rax, 72(%rsp)
	movq	%rdx, 112(%rsp)
.Ltmp716:
	.cv_loc	91 19 309 0
	movq	48(%rsp), %rax
	movq	%rax, 80(%rsp)
	movq	56(%rsp), %rax
	movq	%rax, 88(%rsp)
	movq	64(%rsp), %rax
	movq	%rax, 96(%rsp)
	movq	72(%rsp), %rax
	movq	%rax, 104(%rsp)
	leaq	80(%rsp), %r8
	callq	_ZN112_$LT$proc_macro2..TokenStream$u20$as$u20$core..iter..traits..collect..Extend$LT$proc_macro2..TokenStream$GT$$GT$6extend28_$u7b$$u7b$closure$u7d$$u7d$17h3e9092bfa7ef802eE
	.cv_loc	91 19 310 0
	movq	40(%rsp), %rax
	addq	$120, %rsp
	retq
.Ltmp717:
.Lfunc_end64:
	.seh_endproc

	.def	_ZN4core3ops8function5impls80_$LT$impl$u20$core..ops..function..FnOnce$LT$A$GT$$u20$for$u20$$RF$mut$u20$F$GT$9call_once17hd1ff1822ef3df5daE;
	.scl	2;
	.type	32;
	.endef
	.section	.text,"xr",one_only,_ZN4core3ops8function5impls80_$LT$impl$u20$core..ops..function..FnOnce$LT$A$GT$$u20$for$u20$$RF$mut$u20$F$GT$9call_once17hd1ff1822ef3df5daE
	.globl	_ZN4core3ops8function5impls80_$LT$impl$u20$core..ops..function..FnOnce$LT$A$GT$$u20$for$u20$$RF$mut$u20$F$GT$9call_once17hd1ff1822ef3df5daE
	.p2align	4, 0x90
_ZN4core3ops8function5impls80_$LT$impl$u20$core..ops..function..FnOnce$LT$A$GT$$u20$for$u20$$RF$mut$u20$F$GT$9call_once17hd1ff1822ef3df5daE:
.Lfunc_begin65:
	.cv_func_id 92
	.cv_loc	92 19 308 0
.seh_proc _ZN4core3ops8function5impls80_$LT$impl$u20$core..ops..function..FnOnce$LT$A$GT$$u20$for$u20$$RF$mut$u20$F$GT$9call_once17hd1ff1822ef3df5daE
	subq	$120, %rsp
	.seh_stackalloc 120
	.seh_endprologue
	movq	(%rdx), %rax
	movq	%rax, 48(%rsp)
	movq	8(%rdx), %rax
	movq	%rax, 56(%rsp)
	movq	16(%rdx), %rax
	movq	%rax, 64(%rsp)
	movq	24(%rdx), %rax
	movq	%rax, 72(%rsp)
	movq	%rcx, 112(%rsp)
.Ltmp718:
	.cv_loc	92 19 309 0
	movq	48(%rsp), %rax
	movq	%rax, 80(%rsp)
	movq	56(%rsp), %rax
	movq	%rax, 88(%rsp)
	movq	64(%rsp), %rax
	movq	%rax, 96(%rsp)
	movq	72(%rsp), %rax
	movq	%rax, 104(%rsp)
	leaq	80(%rsp), %rdx
	callq	_ZN5quote7spanned10join_spans28_$u7b$$u7b$closure$u7d$$u7d$17h0d5cca751794cccfE
	movl	%eax, 44(%rsp)
	.cv_loc	92 19 310 0
	movl	44(%rsp), %eax
	addq	$120, %rsp
	retq
.Ltmp719:
.Lfunc_end65:
	.seh_endproc

	.def	_ZN4core3ops8function6FnOnce9call_once17h0e239faf184bcae7E;
	.scl	3;
	.type	32;
	.endef
	.section	.text,"xr",one_only,_ZN4core3ops8function6FnOnce9call_once17h0e239faf184bcae7E
	.p2align	4, 0x90
_ZN4core3ops8function6FnOnce9call_once17h0e239faf184bcae7E:
.Lfunc_begin66:
	.cv_func_id 93
	.cv_loc	93 19 251 0
.seh_proc _ZN4core3ops8function6FnOnce9call_once17h0e239faf184bcae7E
	subq	$56, %rsp
	.seh_stackalloc 56
	.seh_endprologue
	movq	%rcx, %rax
	movq	%rax, 32(%rsp)
	movq	%rdx, 40(%rsp)
.Ltmp720:
	movq	40(%rsp), %rdx
	callq	_ZN101_$LT$proc_macro2..rcvec..RcVecIntoIter$LT$T$GT$$u20$as$u20$core..iter..traits..iterator..Iterator$GT$4next17h129ac7e95489dda1E
	movq	32(%rsp), %rax
	addq	$56, %rsp
	retq
.Ltmp721:
.Lfunc_end66:
	.seh_endproc

	.def	_ZN4core3ops8function6FnOnce9call_once17h664fe80452b027f2E;
	.scl	3;
	.type	32;
	.endef
	.section	.text,"xr",one_only,_ZN4core3ops8function6FnOnce9call_once17h664fe80452b027f2E
	.p2align	4, 0x90
_ZN4core3ops8function6FnOnce9call_once17h664fe80452b027f2E:
.Lfunc_begin67:
	.cv_func_id 94
	.cv_loc	94 19 251 0
.seh_proc _ZN4core3ops8function6FnOnce9call_once17h664fe80452b027f2E
	subq	$56, %rsp
	.seh_stackalloc 56
	.seh_endprologue
.Ltmp722:
	callq	_ZN11proc_macro24Span9call_site17h8d0f44524e4090b3E
	movl	%eax, 36(%rsp)
	movl	36(%rsp), %eax
	addq	$56, %rsp
	retq
.Ltmp723:
.Lfunc_end67:
	.seh_endproc

	.def	_ZN4core3ops8function6FnOnce9call_once17he797ff6877a25f7aE;
	.scl	3;
	.type	32;
	.endef
	.section	.text,"xr",one_only,_ZN4core3ops8function6FnOnce9call_once17he797ff6877a25f7aE
	.p2align	4, 0x90
_ZN4core3ops8function6FnOnce9call_once17he797ff6877a25f7aE:
.Lfunc_begin68:
	.cv_func_id 95
	.cv_loc	95 19 251 0
.seh_proc _ZN4core3ops8function6FnOnce9call_once17he797ff6877a25f7aE
	subq	$56, %rsp
	.seh_stackalloc 56
	.seh_endprologue
	movq	%rcx, %rax
	movq	%rax, 32(%rsp)
	movq	%rdx, 40(%rsp)
.Ltmp724:
	movq	40(%rsp), %rdx
	callq	_ZN101_$LT$proc_macro2..rcvec..RcVecIntoIter$LT$T$GT$$u20$as$u20$core..iter..traits..iterator..Iterator$GT$9size_hint17h3965f1f63fbe4cc2E
	movq	32(%rsp), %rax
	addq	$56, %rsp
	retq
.Ltmp725:
.Lfunc_end68:
	.seh_endproc

	.def	_ZN4core3ptr112drop_in_place$LT$core..option..Option$LT$proc_macro2..rcvec..RcVecIntoIter$LT$proc_macro2..TokenTree$GT$$GT$$GT$17h9074bce600222cd8E;
	.scl	2;
	.type	32;
	.endef
	.section	.text,"xr",one_only,_ZN4core3ptr112drop_in_place$LT$core..option..Option$LT$proc_macro2..rcvec..RcVecIntoIter$LT$proc_macro2..TokenTree$GT$$GT$$GT$17h9074bce600222cd8E
	.globl	_ZN4core3ptr112drop_in_place$LT$core..option..Option$LT$proc_macro2..rcvec..RcVecIntoIter$LT$proc_macro2..TokenTree$GT$$GT$$GT$17h9074bce600222cd8E
	.p2align	4, 0x90
_ZN4core3ptr112drop_in_place$LT$core..option..Option$LT$proc_macro2..rcvec..RcVecIntoIter$LT$proc_macro2..TokenTree$GT$$GT$$GT$17h9074bce600222cd8E:
.Lfunc_begin69:
	.cv_func_id 96
	.cv_loc	96 16 490 0
.seh_proc _ZN4core3ptr112drop_in_place$LT$core..option..Option$LT$proc_macro2..rcvec..RcVecIntoIter$LT$proc_macro2..TokenTree$GT$$GT$$GT$17h9074bce600222cd8E
	subq	$56, %rsp
	.seh_stackalloc 56
	.seh_endprologue
	movq	%rcx, %rdx
	movq	%rdx, 40(%rsp)
	movq	%rdx, 48(%rsp)
.Ltmp726:
	movl	$1, %eax
	xorl	%ecx, %ecx
	cmpq	$0, (%rdx)
	cmoveq	%rcx, %rax
	cmpq	$0, %rax
	jne	.LBB69_2
.LBB69_1:
	addq	$56, %rsp
	retq
.LBB69_2:
	movq	40(%rsp), %rcx
	callq	_ZN4core3ptr84drop_in_place$LT$proc_macro2..rcvec..RcVecIntoIter$LT$proc_macro2..TokenTree$GT$$GT$17h99ff8a954e86613bE
	jmp	.LBB69_1
.Ltmp727:
.Lfunc_end69:
	.seh_endproc

	.def	_ZN4core3ptr131drop_in_place$LT$alloc..rc..Rc$LT$core..mem..maybe_uninit..MaybeUninit$LT$alloc..vec..Vec$LT$proc_macro2..TokenTree$GT$$GT$$GT$$GT$17hd490256076982781E;
	.scl	2;
	.type	32;
	.endef
	.section	.text,"xr",one_only,_ZN4core3ptr131drop_in_place$LT$alloc..rc..Rc$LT$core..mem..maybe_uninit..MaybeUninit$LT$alloc..vec..Vec$LT$proc_macro2..TokenTree$GT$$GT$$GT$$GT$17hd490256076982781E
	.globl	_ZN4core3ptr131drop_in_place$LT$alloc..rc..Rc$LT$core..mem..maybe_uninit..MaybeUninit$LT$alloc..vec..Vec$LT$proc_macro2..TokenTree$GT$$GT$$GT$$GT$17hd490256076982781E
	.p2align	4, 0x90
_ZN4core3ptr131drop_in_place$LT$alloc..rc..Rc$LT$core..mem..maybe_uninit..MaybeUninit$LT$alloc..vec..Vec$LT$proc_macro2..TokenTree$GT$$GT$$GT$$GT$17hd490256076982781E:
.Lfunc_begin70:
	.cv_func_id 97
	.cv_loc	97 16 490 0
.seh_proc _ZN4core3ptr131drop_in_place$LT$alloc..rc..Rc$LT$core..mem..maybe_uninit..MaybeUninit$LT$alloc..vec..Vec$LT$proc_macro2..TokenTree$GT$$GT$$GT$$GT$17hd490256076982781E
	subq	$40, %rsp
	.seh_stackalloc 40
	.seh_endprologue
	movq	%rcx, 32(%rsp)
.Ltmp728:
	callq	_ZN64_$LT$alloc..rc..Rc$LT$T$GT$$u20$as$u20$core..ops..drop..Drop$GT$4drop17hac7b015c424ecd6aE
	nop
	addq	$40, %rsp
	retq
.Ltmp729:
.Lfunc_end70:
	.seh_endproc

	.def	_ZN4core3ptr152drop_in_place$LT$core..iter..adapters..map..Map$LT$proc_macro2..token_stream..IntoIter$C$quote..spanned..join_spans..$u7b$$u7b$closure$u7d$$u7d$$GT$$GT$17hed29ee60c94c0636E;
	.scl	2;
	.type	32;
	.endef
	.section	.text,"xr",one_only,_ZN4core3ptr152drop_in_place$LT$core..iter..adapters..map..Map$LT$proc_macro2..token_stream..IntoIter$C$quote..spanned..join_spans..$u7b$$u7b$closure$u7d$$u7d$$GT$$GT$17hed29ee60c94c0636E
	.globl	_ZN4core3ptr152drop_in_place$LT$core..iter..adapters..map..Map$LT$proc_macro2..token_stream..IntoIter$C$quote..spanned..join_spans..$u7b$$u7b$closure$u7d$$u7d$$GT$$GT$17hed29ee60c94c0636E
	.p2align	4, 0x90
_ZN4core3ptr152drop_in_place$LT$core..iter..adapters..map..Map$LT$proc_macro2..token_stream..IntoIter$C$quote..spanned..join_spans..$u7b$$u7b$closure$u7d$$u7d$$GT$$GT$17hed29ee60c94c0636E:
.Lfunc_begin71:
	.cv_func_id 98
	.cv_loc	98 16 490 0
.seh_proc _ZN4core3ptr152drop_in_place$LT$core..iter..adapters..map..Map$LT$proc_macro2..token_stream..IntoIter$C$quote..spanned..join_spans..$u7b$$u7b$closure$u7d$$u7d$$GT$$GT$17hed29ee60c94c0636E
	subq	$40, %rsp
	.seh_stackalloc 40
	.seh_endprologue
	movq	%rcx, 32(%rsp)
.Ltmp730:
	callq	_ZN4core3ptr56drop_in_place$LT$proc_macro2..token_stream..IntoIter$GT$17h31690c0a48060d07E
	nop
	addq	$40, %rsp
	retq
.Ltmp731:
.Lfunc_end71:
	.seh_endproc

	.def	_ZN4core3ptr157drop_in_place$LT$core..iter..adapters..map..Map$LT$proc_macro2..token_stream..IntoIter$C$quote..__private..parse_spanned..$u7b$$u7b$closure$u7d$$u7d$$GT$$GT$17h7cb5540f8a6c9cffE;
	.scl	2;
	.type	32;
	.endef
	.section	.text,"xr",one_only,_ZN4core3ptr157drop_in_place$LT$core..iter..adapters..map..Map$LT$proc_macro2..token_stream..IntoIter$C$quote..__private..parse_spanned..$u7b$$u7b$closure$u7d$$u7d$$GT$$GT$17h7cb5540f8a6c9cffE
	.globl	_ZN4core3ptr157drop_in_place$LT$core..iter..adapters..map..Map$LT$proc_macro2..token_stream..IntoIter$C$quote..__private..parse_spanned..$u7b$$u7b$closure$u7d$$u7d$$GT$$GT$17h7cb5540f8a6c9cffE
	.p2align	4, 0x90
_ZN4core3ptr157drop_in_place$LT$core..iter..adapters..map..Map$LT$proc_macro2..token_stream..IntoIter$C$quote..__private..parse_spanned..$u7b$$u7b$closure$u7d$$u7d$$GT$$GT$17h7cb5540f8a6c9cffE:
.Lfunc_begin72:
	.cv_func_id 99
	.cv_loc	99 16 490 0
.seh_proc _ZN4core3ptr157drop_in_place$LT$core..iter..adapters..map..Map$LT$proc_macro2..token_stream..IntoIter$C$quote..__private..parse_spanned..$u7b$$u7b$closure$u7d$$u7d$$GT$$GT$17h7cb5540f8a6c9cffE
	subq	$40, %rsp
	.seh_stackalloc 40
	.seh_endprologue
	movq	%rcx, 32(%rsp)
.Ltmp732:
	callq	_ZN4core3ptr56drop_in_place$LT$proc_macro2..token_stream..IntoIter$GT$17h31690c0a48060d07E
	nop
	addq	$40, %rsp
	retq
.Ltmp733:
.Lfunc_end72:
	.seh_endproc

	.def	_ZN4core3ptr161drop_in_place$LT$core..iter..adapters..map..Map$LT$proc_macro2..token_stream..IntoIter$C$quote..__private..respan_token_tree..$u7b$$u7b$closure$u7d$$u7d$$GT$$GT$17hef05679331b998cfE;
	.scl	2;
	.type	32;
	.endef
	.section	.text,"xr",one_only,_ZN4core3ptr161drop_in_place$LT$core..iter..adapters..map..Map$LT$proc_macro2..token_stream..IntoIter$C$quote..__private..respan_token_tree..$u7b$$u7b$closure$u7d$$u7d$$GT$$GT$17hef05679331b998cfE
	.globl	_ZN4core3ptr161drop_in_place$LT$core..iter..adapters..map..Map$LT$proc_macro2..token_stream..IntoIter$C$quote..__private..respan_token_tree..$u7b$$u7b$closure$u7d$$u7d$$GT$$GT$17hef05679331b998cfE
	.p2align	4, 0x90
_ZN4core3ptr161drop_in_place$LT$core..iter..adapters..map..Map$LT$proc_macro2..token_stream..IntoIter$C$quote..__private..respan_token_tree..$u7b$$u7b$closure$u7d$$u7d$$GT$$GT$17hef05679331b998cfE:
.Lfunc_begin73:
	.cv_func_id 100
	.cv_loc	100 16 490 0
.seh_proc _ZN4core3ptr161drop_in_place$LT$core..iter..adapters..map..Map$LT$proc_macro2..token_stream..IntoIter$C$quote..__private..respan_token_tree..$u7b$$u7b$closure$u7d$$u7d$$GT$$GT$17hef05679331b998cfE
	subq	$40, %rsp
	.seh_stackalloc 40
	.seh_endprologue
	movq	%rcx, 32(%rsp)
.Ltmp734:
	callq	_ZN4core3ptr56drop_in_place$LT$proc_macro2..token_stream..IntoIter$GT$17h31690c0a48060d07E
	nop
	addq	$40, %rsp
	retq
.Ltmp735:
.Lfunc_end73:
	.seh_endproc

	.def	_ZN4core3ptr239drop_in_place$LT$core..iter..adapters..map..Map$LT$core..iter..adapters..map..Map$LT$proc_macro2..token_stream..IntoIter$C$quote..__private..respan_token_tree..$u7b$$u7b$closure$u7d$$u7d$$GT$$C$proc_macro2..imp..into_compiler_token$GT$$GT$17hcd000b938f2f2290E;
	.scl	2;
	.type	32;
	.endef
	.section	.text,"xr",one_only,_ZN4core3ptr239drop_in_place$LT$core..iter..adapters..map..Map$LT$core..iter..adapters..map..Map$LT$proc_macro2..token_stream..IntoIter$C$quote..__private..respan_token_tree..$u7b$$u7b$closure$u7d$$u7d$$GT$$C$proc_macro2..imp..into_compiler_token$GT$$GT$17hcd000b938f2f2290E
	.globl	_ZN4core3ptr239drop_in_place$LT$core..iter..adapters..map..Map$LT$core..iter..adapters..map..Map$LT$proc_macro2..token_stream..IntoIter$C$quote..__private..respan_token_tree..$u7b$$u7b$closure$u7d$$u7d$$GT$$C$proc_macro2..imp..into_compiler_token$GT$$GT$17hcd000b938f2f2290E
	.p2align	4, 0x90
_ZN4core3ptr239drop_in_place$LT$core..iter..adapters..map..Map$LT$core..iter..adapters..map..Map$LT$proc_macro2..token_stream..IntoIter$C$quote..__private..respan_token_tree..$u7b$$u7b$closure$u7d$$u7d$$GT$$C$proc_macro2..imp..into_compiler_token$GT$$GT$17hcd000b938f2f2290E:
.Lfunc_begin74:
	.cv_func_id 101
	.cv_loc	101 16 490 0
.seh_proc _ZN4core3ptr239drop_in_place$LT$core..iter..adapters..map..Map$LT$core..iter..adapters..map..Map$LT$proc_macro2..token_stream..IntoIter$C$quote..__private..respan_token_tree..$u7b$$u7b$closure$u7d$$u7d$$GT$$C$proc_macro2..imp..into_compiler_token$GT$$GT$17hcd000b938f2f2290E
	subq	$40, %rsp
	.seh_stackalloc 40
	.seh_endprologue
	movq	%rcx, 32(%rsp)
.Ltmp736:
