	.text
	.def	@feat.00;
	.scl	3;
	.type	0;
	.endef
	.globl	@feat.00
.set @feat.00, 0
	.file	"unicode_ident.6532d09a-cgu.0"
	.def	_ZN4core4char7methods22_$LT$impl$u20$char$GT$8is_ascii17h4e2c63942f93d13eE;
	.scl	3;
	.type	32;
	.endef
	.section	.text,"xr",one_only,_ZN4core4char7methods22_$LT$impl$u20$char$GT$8is_ascii17h4e2c63942f93d13eE
	.p2align	4, 0x90
_ZN4core4char7methods22_$LT$impl$u20$char$GT$8is_ascii17h4e2c63942f93d13eE:
.Lfunc_begin0:
	.cv_func_id 0
	.cv_file	1 "/rustc/90743e7298aca107ddaa0c202a4d3604e29bfeb6\\library\\core\\src\\char\\methods.rs" "0DD59BD330170BC1679C68121AAFB8F3388E15AB" 2
	.cv_loc	0 1 1131 0
.seh_proc _ZN4core4char7methods22_$LT$impl$u20$char$GT$8is_ascii17h4e2c63942f93d13eE
	pushq	%rax
	.seh_stackalloc 8
	.seh_endprologue
	movq	%rcx, (%rsp)
.Ltmp0:
	.cv_loc	0 1 1132 0
	cmpl	$127, (%rcx)
	setbe	%al
	.cv_loc	0 1 1133 0
	andb	$1, %al
	movzbl	%al, %eax
	popq	%rcx
	retq
.Ltmp1:
.Lfunc_end0:
	.seh_endproc

	.def	_ZN4core5slice29_$LT$impl$u20$$u5b$T$u5d$$GT$13get_unchecked17hc57a9bb06367f417E;
	.scl	2;
	.type	32;
	.endef
	.section	.text,"xr",one_only,_ZN4core5slice29_$LT$impl$u20$$u5b$T$u5d$$GT$13get_unchecked17hc57a9bb06367f417E
	.globl	_ZN4core5slice29_$LT$impl$u20$$u5b$T$u5d$$GT$13get_unchecked17hc57a9bb06367f417E
	.p2align	4, 0x90
_ZN4core5slice29_$LT$impl$u20$$u5b$T$u5d$$GT$13get_unchecked17hc57a9bb06367f417E:
.Lfunc_begin1:
	.cv_func_id 1
	.cv_file	2 "/rustc/90743e7298aca107ddaa0c202a4d3604e29bfeb6\\library\\core\\src\\slice\\mod.rs" "469E67EFED13A6BFB15AA7DF3FFAD53171FED1D4" 2
	.cv_loc	1 2 391 0
.seh_proc _ZN4core5slice29_$LT$impl$u20$$u5b$T$u5d$$GT$13get_unchecked17hc57a9bb06367f417E
	subq	$72, %rsp
	.seh_stackalloc 72
	.seh_endprologue
	movq	%r8, 32(%rsp)
	movq	%rdx, %r8
	movq	%rcx, %rdx
	movq	32(%rsp), %rcx
	movq	%rdx, 48(%rsp)
	movq	%r8, 56(%rsp)
	movq	%rcx, 64(%rsp)
.Ltmp2:
	.cv_loc	1 2 398 0
	callq	_ZN75_$LT$usize$u20$as$u20$core..slice..index..SliceIndex$LT$$u5b$T$u5d$$GT$$GT$13get_unchecked17hb5f4e277c6bc42e9E
	movq	%rax, 40(%rsp)
	.cv_loc	1 2 399 0
	movq	40(%rsp), %rax
	addq	$72, %rsp
	retq
.Ltmp3:
.Lfunc_end1:
	.seh_endproc

	.def	_ZN4core5slice29_$LT$impl$u20$$u5b$T$u5d$$GT$3get17h6b800d595f7c83feE;
	.scl	2;
	.type	32;
	.endef
	.section	.text,"xr",one_only,_ZN4core5slice29_$LT$impl$u20$$u5b$T$u5d$$GT$3get17h6b800d595f7c83feE
	.globl	_ZN4core5slice29_$LT$impl$u20$$u5b$T$u5d$$GT$3get17h6b800d595f7c83feE
	.p2align	4, 0x90
_ZN4core5slice29_$LT$impl$u20$$u5b$T$u5d$$GT$3get17h6b800d595f7c83feE:
.Lfunc_begin2:
	.cv_func_id 2
	.cv_loc	2 2 332 0
.seh_proc _ZN4core5slice29_$LT$impl$u20$$u5b$T$u5d$$GT$3get17h6b800d595f7c83feE
	subq	$72, %rsp
	.seh_stackalloc 72
	.seh_endprologue
	movq	%r8, 32(%rsp)
	movq	%rdx, %r8
	movq	%rcx, %rdx
	movq	32(%rsp), %rcx
	movq	%rdx, 48(%rsp)
	movq	%r8, 56(%rsp)
	movq	%rcx, 64(%rsp)
.Ltmp4:
	.cv_loc	2 2 336 0
	callq	_ZN75_$LT$usize$u20$as$u20$core..slice..index..SliceIndex$LT$$u5b$T$u5d$$GT$$GT$3get17h3d0cf4b335ce1ddaE
	movq	%rax, 40(%rsp)
	.cv_loc	2 2 337 0
	movq	40(%rsp), %rax
	addq	$72, %rsp
	retq
.Ltmp5:
.Lfunc_end2:
	.seh_endproc

	.def	_ZN4core6option15Option$LT$T$GT$9unwrap_or17hb7fe1bda86b817bdE;
	.scl	2;
	.type	32;
	.endef
	.section	.text,"xr",one_only,_ZN4core6option15Option$LT$T$GT$9unwrap_or17hb7fe1bda86b817bdE
	.globl	_ZN4core6option15Option$LT$T$GT$9unwrap_or17hb7fe1bda86b817bdE
	.p2align	4, 0x90
_ZN4core6option15Option$LT$T$GT$9unwrap_or17hb7fe1bda86b817bdE:
.Lfunc_begin3:
	.cv_func_id 3
	.cv_file	3 "/rustc/90743e7298aca107ddaa0c202a4d3604e29bfeb6\\library\\core\\src\\option.rs" "90C726EEAFDA9622B6943DEFD1DB69455BE3ACDC" 2
	.cv_loc	3 3 799 0
.seh_proc _ZN4core6option15Option$LT$T$GT$9unwrap_or17hb7fe1bda86b817bdE
	subq	$48, %rsp
	.seh_stackalloc 48
	.seh_endprologue
	movq	%rdx, (%rsp)
	movq	%rcx, 8(%rsp)
	movq	%rdx, 32(%rsp)
.Ltmp6:
	.cv_loc	3 3 803 0
	movb	$1, 31(%rsp)
	movq	8(%rsp), %rax
	testq	%rax, %rax
	setne	%al
	movzbl	%al, %eax
	je	.LBB3_2
	jmp	.LBB3_7
.LBB3_7:
	jmp	.LBB3_3
	ud2
.LBB3_2:
	.cv_loc	3 3 805 0
	movq	(%rsp), %rax
	movb	$0, 31(%rsp)
	movq	%rax, 16(%rsp)
	jmp	.LBB3_4
.LBB3_3:
	.cv_loc	3 3 804 0
	movq	8(%rsp), %rax
	movq	%rax, 40(%rsp)
.Ltmp7:
	.cv_loc	3 3 804 0
	movq	%rax, 16(%rsp)
.Ltmp8:
.LBB3_4:
	.cv_loc	3 3 807 0
	testb	$1, 31(%rsp)
	jne	.LBB3_6
.LBB3_5:
	movq	16(%rsp), %rax
	addq	$48, %rsp
	retq
.LBB3_6:
	jmp	.LBB3_5
.Ltmp9:
.Lfunc_end3:
	.seh_endproc

	.def	_ZN75_$LT$usize$u20$as$u20$core..slice..index..SliceIndex$LT$$u5b$T$u5d$$GT$$GT$13get_unchecked17hb5f4e277c6bc42e9E;
	.scl	2;
	.type	32;
	.endef
	.section	.text,"xr",one_only,_ZN75_$LT$usize$u20$as$u20$core..slice..index..SliceIndex$LT$$u5b$T$u5d$$GT$$GT$13get_unchecked17hb5f4e277c6bc42e9E
	.globl	_ZN75_$LT$usize$u20$as$u20$core..slice..index..SliceIndex$LT$$u5b$T$u5d$$GT$$GT$13get_unchecked17hb5f4e277c6bc42e9E
	.p2align	4, 0x90
_ZN75_$LT$usize$u20$as$u20$core..slice..index..SliceIndex$LT$$u5b$T$u5d$$GT$$GT$13get_unchecked17hb5f4e277c6bc42e9E:
.Lfunc_begin4:
	.cv_func_id 4
	.cv_file	4 "/rustc/90743e7298aca107ddaa0c202a4d3604e29bfeb6\\library\\core\\src\\slice\\index.rs" "A56D9651D75DF5C02F687DAF925E2118055AAEB2" 2
	.cv_loc	4 4 228 0
.seh_proc _ZN75_$LT$usize$u20$as$u20$core..slice..index..SliceIndex$LT$$u5b$T$u5d$$GT$$GT$13get_unchecked17hb5f4e277c6bc42e9E
	subq	$88, %rsp
	.seh_stackalloc 88
	.seh_endprologue
	movq	%rcx, 8(%rsp)
	movq	%rdx, 16(%rsp)
	movq	%r8, 24(%rsp)
.Ltmp10:
	.cv_loc	4 4 239 0
	movq	%rdx, 32(%rsp)
	movq	%r8, 40(%rsp)
.Ltmp11:
	.cv_file	5 "/rustc/90743e7298aca107ddaa0c202a4d3604e29bfeb6\\library\\core\\src\\ptr\\const_ptr.rs" "B3C5B6FD7E473E096AA65EC74D4255A7BD5C2079" 2
	.cv_inline_site_id 5 within 4 inlined_at 4 239 0
	.cv_loc	5 5 1408 0
	movq	%rdx, 48(%rsp)
.Ltmp12:
	.cv_loc	4 4 239 0
	movq	%rcx, 56(%rsp)
.Ltmp13:
	.cv_loc	5 5 897 0
	movq	%rdx, 64(%rsp)
	movq	%rcx, 72(%rsp)
.Ltmp14:
	.cv_inline_site_id 6 within 5 inlined_at 5 897 0
	.cv_loc	6 5 461 0
	addq	%rcx, %rdx
	movq	%rdx, 80(%rsp)
	movq	80(%rsp), %rax
	movq	%rax, (%rsp)
.Ltmp15:
	.cv_loc	4 4 241 0
	movq	(%rsp), %rax
	addq	$88, %rsp
	retq
.Ltmp16:
.Lfunc_end4:
	.seh_endproc

	.def	_ZN75_$LT$usize$u20$as$u20$core..slice..index..SliceIndex$LT$$u5b$T$u5d$$GT$$GT$3get17h3d0cf4b335ce1ddaE;
	.scl	2;
	.type	32;
	.endef
	.section	.text,"xr",one_only,_ZN75_$LT$usize$u20$as$u20$core..slice..index..SliceIndex$LT$$u5b$T$u5d$$GT$$GT$3get17h3d0cf4b335ce1ddaE
	.globl	_ZN75_$LT$usize$u20$as$u20$core..slice..index..SliceIndex$LT$$u5b$T$u5d$$GT$$GT$3get17h3d0cf4b335ce1ddaE
	.p2align	4, 0x90
_ZN75_$LT$usize$u20$as$u20$core..slice..index..SliceIndex$LT$$u5b$T$u5d$$GT$$GT$3get17h3d0cf4b335ce1ddaE:
.Lfunc_begin5:
	.cv_func_id 7
	.cv_loc	7 4 216 0
.seh_proc _ZN75_$LT$usize$u20$as$u20$core..slice..index..SliceIndex$LT$$u5b$T$u5d$$GT$$GT$3get17h3d0cf4b335ce1ddaE
	subq	$144, %rsp
	.seh_stackalloc 144
	.seh_endprologue
	movq	%r8, 8(%rsp)
	movq	%rdx, 16(%rsp)
	movq	%rcx, 24(%rsp)
	movq	%rcx, 40(%rsp)
	movq	%rdx, 48(%rsp)
	movq	%r8, 56(%rsp)
.Ltmp17:
	.cv_loc	7 4 218 0
	cmpq	%r8, %rcx
	jb	.LBB5_2
	movq	$0, 32(%rsp)
	jmp	.LBB5_4
.LBB5_2:
	movq	24(%rsp), %rcx
	movq	16(%rsp), %rax
	movq	8(%rsp), %rdx
	movq	%rcx, 64(%rsp)
	movq	%rax, 72(%rsp)
	movq	%rdx, 80(%rsp)
.Ltmp18:
	.cv_inline_site_id 8 within 7 inlined_at 4 218 0
	.cv_loc	8 4 239 0
	movq	%rax, 88(%rsp)
	movq	%rdx, 96(%rsp)
.Ltmp19:
	.cv_inline_site_id 9 within 8 inlined_at 4 239 0
	.cv_loc	9 5 1408 0
	movq	%rax, 104(%rsp)
.Ltmp20:
	.cv_loc	8 4 239 0
	movq	%rcx, 112(%rsp)
.Ltmp21:
	.cv_loc	9 5 897 0
	movq	%rax, 120(%rsp)
	movq	%rcx, 128(%rsp)
.Ltmp22:
	.cv_inline_site_id 10 within 9 inlined_at 5 897 0
	.cv_loc	10 5 461 0
	addq	%rcx, %rax
	movq	%rax, 136(%rsp)
	movq	136(%rsp), %rax
	movq	%rax, (%rsp)
.Ltmp23:
	.cv_loc	7 4 218 0
	movq	(%rsp), %rax
	movq	%rax, 32(%rsp)
.LBB5_4:
	.cv_loc	7 4 219 0
	movq	32(%rsp), %rax
	addq	$144, %rsp
	retq
.Ltmp24:
.Lfunc_end5:
	.seh_endproc

	.def	_ZN13unicode_ident12is_xid_start17h4c44cec182a60008E;
	.scl	2;
	.type	32;
	.endef
	.section	.text,"xr",one_only,_ZN13unicode_ident12is_xid_start17h4c44cec182a60008E
	.globl	_ZN13unicode_ident12is_xid_start17h4c44cec182a60008E
	.p2align	4, 0x90
_ZN13unicode_ident12is_xid_start17h4c44cec182a60008E:
.Lfunc_begin6:
	.cv_func_id 11
	.cv_file	6 "C:\\Users\\cires\\.cargo\\registry\\src\\github.com-1ecc6299db9ec823\\unicode-ident-1.0.12\\src\\lib.rs" "41EA2FF124CA31FBED222A64CCB474FB5922681A" 2
	.cv_loc	11 6 253 0
.seh_proc _ZN13unicode_ident12is_xid_start17h4c44cec182a60008E
	subq	$136, %rsp
	.seh_stackalloc 136
	.seh_endprologue
	movl	%ecx, 104(%rsp)
.Ltmp25:
	.cv_loc	11 6 254 0
	leaq	104(%rsp), %rcx
	callq	_ZN4core4char7methods22_$LT$impl$u20$char$GT$8is_ascii17h4e2c63942f93d13eE
	movb	%al, 103(%rsp)
	movb	103(%rsp), %al
	testb	$1, %al
	jne	.LBB6_3
	jmp	.LBB6_2
.LBB6_2:
	.cv_loc	11 6 257 0
	movl	104(%rsp), %eax
	movl	%eax, %r8d
	shrq	$3, %r8
	shrq	$6, %r8
	leaq	_ZN13unicode_ident6tables10TRIE_START17habb756cc98199a98E(%rip), %rcx
	movl	$402, %edx
	callq	_ZN4core5slice29_$LT$impl$u20$$u5b$T$u5d$$GT$3get17h6b800d595f7c83feE
	movq	%rax, 88(%rsp)
	jmp	.LBB6_7
.LBB6_3:
	.cv_loc	11 6 255 0
	movl	104(%rsp), %eax
	movq	%rax, 80(%rsp)
	cmpq	$128, %rax
	setb	%al
	testb	$1, %al
	jne	.LBB6_4
	jmp	.LBB6_5
.LBB6_4:
	movq	80(%rsp), %rcx
	leaq	_ZN13unicode_ident6tables11ASCII_START17h5b7196d668da44b3E(%rip), %rax
	movb	(%rax,%rcx), %al
	andb	$1, %al
	movb	%al, 110(%rsp)
	.cv_loc	11 6 260 0
	jmp	.LBB6_6
.LBB6_5:
	.cv_loc	11 6 255 0
	movq	80(%rsp), %rcx
	leaq	__unnamed_1(%rip), %r8
	movl	$128, %edx
	callq	_ZN4core9panicking18panic_bounds_check17he019d82aa2caaf8fE
	ud2
.LBB6_6:
	.cv_loc	11 6 260 0
	movb	110(%rsp), %al
	andb	$1, %al
	movzbl	%al, %eax
	addq	$136, %rsp
	retq
.LBB6_7:
	.cv_loc	11 6 257 0
	movq	88(%rsp), %rcx
	leaq	__unnamed_2(%rip), %rdx
	callq	_ZN4core6option15Option$LT$T$GT$9unwrap_or17hb7fe1bda86b817bdE
	movq	%rax, 72(%rsp)
	movq	72(%rsp), %rax
	movb	(%rax), %al
	movb	%al, 111(%rsp)
.Ltmp26:
	.cv_loc	11 6 258 0
	movzbl	%al, %eax
	movl	$64, %ecx
	mulq	%rcx
	movq	%rax, 64(%rsp)
	seto	%al
	testb	$1, %al
	jne	.LBB6_10
	movq	64(%rsp), %rax
	shrq	$1, %rax
	movl	104(%rsp), %ecx
	shrq	$3, %rcx
	andq	$63, %rcx
	addq	%rcx, %rax
	movq	%rax, 56(%rsp)
	setb	%al
	testb	$1, %al
	jne	.LBB6_12
	jmp	.LBB6_11
.LBB6_10:
	leaq	str.0(%rip), %rcx
	leaq	__unnamed_3(%rip), %r8
	movl	$33, %edx
	callq	_ZN4core9panicking5panic17h8f0a900b6fd3539bE
	ud2
.LBB6_11:
	movq	56(%rsp), %r8
	movq	%r8, 112(%rsp)
.Ltmp27:
	.cv_loc	11 6 259 0
	leaq	_ZN13unicode_ident6tables4LEAF17h2d4b17dffbedc927E(%rip), %rcx
	movl	$7584, %edx
	callq	_ZN4core5slice29_$LT$impl$u20$$u5b$T$u5d$$GT$13get_unchecked17hc57a9bb06367f417E
	movq	%rax, 48(%rsp)
	jmp	.LBB6_13
.Ltmp28:
.LBB6_12:
	.cv_loc	11 6 258 0
	leaq	str.1(%rip), %rcx
	leaq	__unnamed_3(%rip), %r8
	movl	$28, %edx
	callq	_ZN4core9panicking5panic17h8f0a900b6fd3539bE
	ud2
.LBB6_13:
	.cv_loc	11 6 259 0
	movq	48(%rsp), %rax
.Ltmp29:
	movb	(%rax), %al
	movl	104(%rsp), %ecx
	andl	$7, %ecx
	movb	%al, 127(%rsp)
	movl	%ecx, 128(%rsp)
.Ltmp30:
	.cv_file	7 "/rustc/90743e7298aca107ddaa0c202a4d3604e29bfeb6\\library\\core\\src\\num\\uint_macros.rs" "AFD8176EDA261081CD4F1CEF2592FF7B134DCC4A" 2
	.cv_inline_site_id 12 within 11 inlined_at 6 259 0
	.cv_loc	12 7 1406 0
	andl	$7, %ecx
	shrb	%cl, %al
	movb	%al, 135(%rsp)
	movb	135(%rsp), %al
	movb	%al, 47(%rsp)
.Ltmp31:
	.cv_loc	11 6 259 0
	movb	47(%rsp), %al
	andb	$1, %al
	cmpb	$0, %al
	setne	%al
	andb	$1, %al
	movb	%al, 110(%rsp)
.Ltmp32:
	.cv_loc	11 6 260 0
	jmp	.LBB6_6
.Ltmp33:
.Lfunc_end6:
	.seh_endproc

	.def	_ZN13unicode_ident15is_xid_continue17hc9723f84d9088586E;
	.scl	2;
	.type	32;
	.endef
	.section	.text,"xr",one_only,_ZN13unicode_ident15is_xid_continue17hc9723f84d9088586E
	.globl	_ZN13unicode_ident15is_xid_continue17hc9723f84d9088586E
	.p2align	4, 0x90
_ZN13unicode_ident15is_xid_continue17hc9723f84d9088586E:
.Lfunc_begin7:
	.cv_func_id 13
	.cv_loc	13 6 262 0
.seh_proc _ZN13unicode_ident15is_xid_continue17hc9723f84d9088586E
	subq	$136, %rsp
	.seh_stackalloc 136
	.seh_endprologue
	movl	%ecx, 104(%rsp)
.Ltmp34:
	.cv_loc	13 6 263 0
	leaq	104(%rsp), %rcx
	callq	_ZN4core4char7methods22_$LT$impl$u20$char$GT$8is_ascii17h4e2c63942f93d13eE
	movb	%al, 103(%rsp)
	movb	103(%rsp), %al
	testb	$1, %al
	jne	.LBB7_3
	jmp	.LBB7_2
.LBB7_2:
	.cv_loc	13 6 266 0
	movl	104(%rsp), %eax
	movl	%eax, %r8d
	shrq	$3, %r8
	shrq	$6, %r8
	leaq	_ZN13unicode_ident6tables13TRIE_CONTINUE17h1b808e103d4aa948E(%rip), %rcx
	movl	$1793, %edx
	callq	_ZN4core5slice29_$LT$impl$u20$$u5b$T$u5d$$GT$3get17h6b800d595f7c83feE
	movq	%rax, 88(%rsp)
	jmp	.LBB7_7
.LBB7_3:
	.cv_loc	13 6 264 0
	movl	104(%rsp), %eax
	movq	%rax, 80(%rsp)
	cmpq	$128, %rax
	setb	%al
	testb	$1, %al
	jne	.LBB7_4
	jmp	.LBB7_5
.LBB7_4:
	movq	80(%rsp), %rcx
	leaq	_ZN13unicode_ident6tables14ASCII_CONTINUE17hb925771027d7942fE(%rip), %rax
	movb	(%rax,%rcx), %al
	andb	$1, %al
	movb	%al, 110(%rsp)
	.cv_loc	13 6 269 0
	jmp	.LBB7_6
.LBB7_5:
	.cv_loc	13 6 264 0
	movq	80(%rsp), %rcx
	leaq	__unnamed_4(%rip), %r8
	movl	$128, %edx
	callq	_ZN4core9panicking18panic_bounds_check17he019d82aa2caaf8fE
	ud2
.LBB7_6:
	.cv_loc	13 6 269 0
	movb	110(%rsp), %al
	andb	$1, %al
	movzbl	%al, %eax
	addq	$136, %rsp
	retq
.LBB7_7:
	.cv_loc	13 6 266 0
	movq	88(%rsp), %rcx
	leaq	__unnamed_2(%rip), %rdx
	callq	_ZN4core6option15Option$LT$T$GT$9unwrap_or17hb7fe1bda86b817bdE
	movq	%rax, 72(%rsp)
	movq	72(%rsp), %rax
	movb	(%rax), %al
	movb	%al, 111(%rsp)
.Ltmp35:
	.cv_loc	13 6 267 0
	movzbl	%al, %eax
	movl	$64, %ecx
	mulq	%rcx
	movq	%rax, 64(%rsp)
	seto	%al
	testb	$1, %al
	jne	.LBB7_10
	movq	64(%rsp), %rax
	shrq	$1, %rax
	movl	104(%rsp), %ecx
	shrq	$3, %rcx
	andq	$63, %rcx
	addq	%rcx, %rax
	movq	%rax, 56(%rsp)
	setb	%al
	testb	$1, %al
	jne	.LBB7_12
	jmp	.LBB7_11
.LBB7_10:
	leaq	str.0(%rip), %rcx
	leaq	__unnamed_5(%rip), %r8
	movl	$33, %edx
	callq	_ZN4core9panicking5panic17h8f0a900b6fd3539bE
	ud2
.LBB7_11:
	movq	56(%rsp), %r8
	movq	%r8, 112(%rsp)
.Ltmp36:
	.cv_loc	13 6 268 0
	leaq	_ZN13unicode_ident6tables4LEAF17h2d4b17dffbedc927E(%rip), %rcx
	movl	$7584, %edx
	callq	_ZN4core5slice29_$LT$impl$u20$$u5b$T$u5d$$GT$13get_unchecked17hc57a9bb06367f417E
	movq	%rax, 48(%rsp)
	jmp	.LBB7_13
.Ltmp37:
.LBB7_12:
	.cv_loc	13 6 267 0
	leaq	str.1(%rip), %rcx
	leaq	__unnamed_5(%rip), %r8
	movl	$28, %edx
	callq	_ZN4core9panicking5panic17h8f0a900b6fd3539bE
	ud2
.LBB7_13:
	.cv_loc	13 6 268 0
	movq	48(%rsp), %rax
.Ltmp38:
	movb	(%rax), %al
	movl	104(%rsp), %ecx
	andl	$7, %ecx
	movb	%al, 127(%rsp)
	movl	%ecx, 128(%rsp)
.Ltmp39:
	.cv_inline_site_id 14 within 13 inlined_at 6 268 0
	.cv_loc	14 7 1406 0
	andl	$7, %ecx
	shrb	%cl, %al
	movb	%al, 135(%rsp)
	movb	135(%rsp), %al
	movb	%al, 47(%rsp)
.Ltmp40:
	.cv_loc	13 6 268 0
	movb	47(%rsp), %al
	andb	$1, %al
	cmpb	$0, %al
	setne	%al
	andb	$1, %al
	movb	%al, 110(%rsp)
.Ltmp41:
	.cv_loc	13 6 269 0
	jmp	.LBB7_6
.Ltmp42:
.Lfunc_end7:
	.seh_endproc

	.section	.rdata,"dr",one_only,__unnamed_6
__unnamed_6:
	.ascii	"C:\\Users\\cires\\.cargo\\registry\\src\\github.com-1ecc6299db9ec823\\unicode-ident-1.0.12\\src\\lib.rs"

	.section	.rdata,"dr",one_only,__unnamed_1
	.p2align	3
__unnamed_1:
	.quad	__unnamed_6
	.asciz	"^\000\000\000\000\000\000\000\377\000\000\000\020\000\000"

	.section	.rdata,"dr",one_only,__unnamed_2
__unnamed_2:
	.zero	1

	.section	.rdata,"dr",one_only,__unnamed_3
	.p2align	3
__unnamed_3:
	.quad	__unnamed_6
	.asciz	"^\000\000\000\000\000\000\000\002\001\000\000\022\000\000"

	.section	.rdata,"dr",one_only,str.0
	.p2align	4
str.0:
	.ascii	"attempt to multiply with overflow"

	.section	.rdata,"dr",one_only,str.1
	.p2align	4
str.1:
	.ascii	"attempt to add with overflow"

	.section	.rdata,"dr",one_only,__unnamed_4
	.p2align	3
__unnamed_4:
	.quad	__unnamed_6
	.asciz	"^\000\000\000\000\000\000\000\b\001\000\000\020\000\000"

	.section	.rdata,"dr",one_only,__unnamed_5
	.p2align	3
__unnamed_5:
	.quad	__unnamed_6
	.asciz	"^\000\000\000\000\000\000\000\013\001\000\000\022\000\000"

	.section	.rdata,"dr",one_only,_ZN13unicode_ident6tables11ASCII_START17h5b7196d668da44b3E
	.p2align	6
_ZN13unicode_ident6tables11ASCII_START17h5b7196d668da44b3E:
	.asciz	"\000\000\000\000\000\000\000\000\000\000\000\000\000\000\000\000\000\000\000\000\000\000\000\000\000\000\000\000\000\000\000\000\000\000\000\000\000\000\000\000\000\000\000\000\000\000\000\000\000\000\000\000\000\000\000\000\000\000\000\000\000\000\000\000\000\001\001\001\001\001\001\001\001\001\001\001\001\001\001\001\001\001\001\001\001\001\001\001\001\001\001\000\000\000\000\000\000\001\001\001\001\001\001\001\001\001\001\001\001\001\001\001\001\001\001\001\001\001\001\001\001\001\001\000\000\000\000"

	.section	.rdata,"dr",one_only,_ZN13unicode_ident6tables14ASCII_CONTINUE17hb925771027d7942fE
	.p2align	6
_ZN13unicode_ident6tables14ASCII_CONTINUE17hb925771027d7942fE:
	.asciz	"\000\000\000\000\000\000\000\000\000\000\000\000\000\000\000\000\000\000\000\000\000\000\000\000\000\000\000\000\000\000\000\000\000\000\000\000\000\000\000\000\000\000\000\000\000\000\000\000\001\001\001\001\001\001\001\001\001\001\000\000\000\000\000\000\000\001\001\001\001\001\001\001\001\001\001\001\001\001\001\001\001\001\001\001\001\001\001\001\001\001\001\000\000\000\000\001\000\001\001\001\001\001\001\001\001\001\001\001\001\001\001\001\001\001\001\001\001\001\001\001\001\001\001\000\000\000\000"

	.section	.rdata,"dr",one_only,_ZN13unicode_ident6tables10TRIE_START17habb756cc98199a98E
	.p2align	3
_ZN13unicode_ident6tables10TRIE_START17habb756cc98199a98E:
	.ascii	"\004\013\017\023\027\033\037#'-148<@\002E\000\000\000\000\000I\000M\000\005\005\005\005\005\005\005\005\005\005\005\005\006\005\005\005\005\005\005\005\005\005\005\005\005\005\005\005\005\005\005\005\005\005\005\005\005\005\005\005\005\005\005\005\005\005\005\005\005\005\005\005\005\005\005\005QTX\\\005\005\005\005\005\005\005\005\005\005\005\005\005\005\005\005\005\005\005\005\005\t\000\000\000\000\000\000\000\000\000\000\000\000\000\000\000\000\001`dfjnr(vx|\200\204\210\214\220\224\230\236\242\005+\246\000\000\000\000\231\005\005\250\000\000\000\000\000\000\000\005\256\000\000\000\000\000\000\000\000\000\000\000\000\000\000\000\000\005\261\000\265\005\005\005\005\005\005\005\005\005\005\0052\005\005\271\000\000\000\000\000\000\000\000\000\000\000\000\000\000\000\000\234C\273\000\000\000\000\276\000\000\000\000\000\000\000\000\000\000\000\306\310\000\000\000\257\316\322\326\274\332\000\000\336\000\000\000\000\000\000\000\000\005\005\005\005\005\005\005\005\005\005\005\005\005\005\005\005\005\005\005\005\005\005\005\005\005\005\005\005\005\005\005\005\005\005\005\005\005\005\005\005\005\005\005\005\005\005\005\005\005\005\005\005\005\005\005\005\005\005\005\005\005\005\005\005\005\005\005\005\005\005\005\005\005\005\005\005\005\005\005\005\005\005\005\340\005\005\005\005\005\005\005R\343\005\005\005\005\005\005\005\005\005\005\346\005\005\005\005\005\005\005\005\005\005\005\005\005\341\005\351\000\000\000\000\005\353\000\000\005\005\005\005\005\005\005\005\005\344\005\005\005\005\005\005\005\347"
	.zero	6

	.section	.rdata,"dr",one_only,_ZN13unicode_ident6tables13TRIE_CONTINUE17h1b808e103d4aa948E
	.p2align	3
_ZN13unicode_ident6tables13TRIE_CONTINUE17h1b808e103d4aa948E:
	.ascii	"\b\r\021\025\031\035!%*/16:>B\002G\000\000\000\000\000K\000O\000\005\005\005\005\005\005\005\005\005\005\005\005\006\005\005\005\005\005\005\005\005\005\005\005\005\005\005\005\005\005\005\005\005\005\005\005\005\005\005\005\005\005\005\005\005\005\005\005\005\005\005\005\005\005\005\005QVZ^\005\005\005\005\005\005\005\005\005\005\005\005\005\005\005\005\005\005\005\005\005\t\000\000\000\000\000\000\000\000\000\000\000\000\000\000\000\000\001bdhlpt(vz~\202\206\212\216\222\226\233\240\244\005+\246\000\000\000\000\231\005\005\253\000\000\000\000\000\000\000\005\256\000\000\000\000\000\000\000\000\000\000\000\000\000\000\000\000\005\263\000\267\005\005\005\005\005\005\005\005\005\005\0052\005\005\271\000\000\000\000\000\000\000\000\000\000\000\000\000\000\000\000\234C\273\000\000\000\000\301\000\000\000\000\000\000\000\000\251\254\304\306\312\000\314\000\257\320\324\330\274\334\000\000\336\000\000\000\000\000\277\000\000\005\005\005\005\005\005\005\005\005\005\005\005\005\005\005\005\005\005\005\005\005\005\005\005\005\005\005\005\005\005\005\005\005\005\005\005\005\005\005\005\005\005\005\005\005\005\005\005\005\005\005\005\005\005\005\005\005\005\005\005\005\005\005\005\005\005\005\005\005\005\005\005\005\005\005\005\005\005\005\005\005\005\005\340\005\005\005\005\005\005\005R\343\005\005\005\005\005\005\005\005\005\005\346\005\005\005\005\005\005\005\005\005\005\005\005\005\341\005\351\000\000\000\000\005\353\000\000\005\005\005\005\005\005\005\005\005\344\005\005\005\005\005\005\005\347\000\000\000\000\000\000\000\000\000\000\000\000\000\000\000\000\000\000\000\000\000\000\000\000\000\000\000\000\000\000\000\000\000\000\000\000\000\000\000\000\000\000\000\000\000\000\000\000\000\000\000\000\000\000\000\000\000\000\000\000\000\000\000\000\000\000\000\000\000\000\000\000\000\000\000\000\000\000\000\000\000\000\000\000\000\000\000\000\000\000\000\000\000\000\000\000\000\000\000\000\000\000\000\000\000\000\000\000\000\000\000\000\000\000\000\000\000\000\000\000\000\000\000\000\000\000\000\000\000\000\000\000\000\000\000\000\000\000\000\000\000\000\000\000\000\000\000\000\000\000\000\000\000\000\000\000\000\000\000\000\000\000\000\000\000\000\000\000\000\000\000\000\000\000\000\000\000\000\000\000\000\000\000\000\000\000\000\000\000\000\000\000\000\000\000\000\000\000\000\000\000\000\000\000\000\000\000\000\000\000\000\000\000\000\000\000\000\000\000\000\000\000\000\000\000\000\000\000\000\000\000\000\000\000\000\000\000\000\000\000\000\000\000\000\000\000\000\000\000\000\000\000\000\000\000\000\000\000\000\000\000\000\000\000\000\000\000\000\000\000\000\000\000\000\000\000\000\000\000\000\000\000\000\000\000\000\000\000\000\000\000\000\000\000\000\000\000\000\000\000\000\000\000\000\000\000\000\000\000\000\000\000\000\000\000\000\000\000\000\000\000\000\000\000\000\000\000\000\000\000\000\000\000\000\000\000\000\000\000\000\000\000\000\000\000\000\000\000\000\000\000\000\000\000\000\000\000\000\000\000\000\000\000\000\000\000\000\000\000\000\000\000\000\000\000\000\000\000\000\000\000\000\000\000\000\000\000\000\000\000\000\000\000\000\000\000\000\000\000\000\000\000\000\000\000\000\000\000\000\000\000\000\000\000\000\000\000\000\000\000\000\000\000\000\000\000\000\000\000\000\000\000\000\000\000\000\000\000\000\000\000\000\000\000\000\000\000\000\000\000\000\000\000\000\000\000\000\000\000\000\000\000\000\000\000\000\000\000\000\000\000\000\000\000\000\000\000\000\000\000\000\000\000\000\000\000\000\000\000\000\000\000\000\000\000\000\000\000\000\000\000\000\000\000\000\000\000\000\000\000\000\000\000\000\000\000\000\000\000\000\000\000\000\000\000\000\000\000\000\000\000\000\000\000\000\000\000\000\000\000\000\000\000\000\000\000\000\000\000\000\000\000\000\000\000\000\000\000\000\000\000\000\000\000\000\000\000\000\000\000\000\000\000\000\000\000\000\000\000\000\000\000\000\000\000\000\000\000\000\000\000\000\000\000\000\000\000\000\000\000\000\000\000\000\000\000\000\000\000\000\000\000\000\000\000\000\000\000\000\000\000\000\000\000\000\000\000\000\000\000\000\000\000\000\000\000\000\000\000\000\000\000\000\000\000\000\000\000\000\000\000\000\000\000\000\000\000\000\000\000\000\000\000\000\000\000\000\000\000\000\000\000\000\000\000\000\000\000\000\000\000\000\000\000\000\000\000\000\000\000\000\000\000\000\000\000\000\000\000\000\000\000\000\000\000\000\000\000\000\000\000\000\000\000\000\000\000\000\000\000\000\000\000\000\000\000\000\000\000\000\000\000\000\000\000\000\000\000\000\000\000\000\000\000\000\000\000\000\000\000\000\000\000\000\000\000\000\000\000\000\000\000\000\000\000\000\000\000\000\000\000\000\000\000\000\000\000\000\000\000\000\000\000\000\000\000\000\000\000\000\000\000\000\000\000\000\000\000\000\000\000\000\000\000\000\000\000\000\000\000\000\000\000\000\000\000\000\000\000\000\000\000\000\000\000\000\000\000\000\000\000\000\000\000\000\000\000\000\000\000\000\000\000\000\000\000\000\000\000\000\000\000\000\000\000\000\000\000\000\000\000\000\000\000\000\000\000\000\000\000\000\000\000\000\000\000\000\000\000\000\000\000\000\000\000\000\000\000\000\000\000\000\000\000\000\000\000\000\000\000\000\000\000\000\000\000\000\000\000\000\000\000\000\000\000\000\000\000\000\000\000\000\000\000\000\000\000\000\000\000\000\000\000\000\000\000\000\000\000\000\000\000\000\000\000\000\000\000\000\000\000\000\000\000\000\000\000\000\000\000\000\000\000\000\000\000\000\000\000\000\000\000\000\000\000\000\000\000\000\000\000\000\000\000\000\000\000\000\000\000\000\000\000\000\000\000\000\000\000\000\000\000\000\000\000\000\000\000\000\000\000\000\000\000\000\000\000\000\000\000\000\000\000\000\000\000\000\000\000\000\000\000\000\000\000\000\000\000\000\000\000\000\000\000\000\000\000\000\000\000\000\000\000\000\000\000\000\000\000\000\000\000\000\000\000\000\000\000\000\000\000\000\000\000\000\000\000\000\000\000\000\000\000\000\000\000\000\000\000\000\000\000\000\000\000\000\000\000\000\000\000\000\000\000\000\000\000\000\000\000\000\000\000\000\000\000\000\000\000\000\000\000\000\000\000\000\000\000\000\000\000\000\000\000\000\000\000\000\000\000\000\000\000\000\000\000\000\000\000\000\000\000\000\000\000\000\000\000\000\000\000\000\000\000\000\000\000\000\000\000\000\000\000\000\000\000\000\000\000\000\000\000\000\000\000\000\000\000\000\000\000\000\000\000\000\000\000\000\000\000\000\000\000\000\000\000\000\000\000\000\000\000\000\000\000\000\000\000\000\000\000\000\000\000\000\000\000\000\000\000\000\000\000\000\000\000\000\000\000\000\000\000\000\000\000\000\000\000\000\000\000\000\000\000\000\000\000\000\000\000\000\000\000\000\000\000\000\000\000\000\000\000\000\000\000\000\000\000\000\000\000\000\000\000\000\000\000\000\000\000\000\000\000\000\000\000\000\000\000\000\000\000\000\000\000\000\000\000\000\000\000\000\000\000\000\000\000\000\000\000\000\000\000\000\000\000\000\000\000\000\000\000\000\000\000\000\000\000\000\000\000\000\000\000\000\000\000\000\000\000\000\000\000\000\000\000\000\000\000\000\000\000\000\000\000\000\000\000\000\000\000\000\000\000\000\000\000\000\000\000\000\000\000\000\000\000\000\000\000\000\302"
	.zero	7

	.section	.rdata,"dr",one_only,_ZN13unicode_ident6tables4LEAF17h2d4b17dffbedc927E
	.p2align	6
_ZN13unicode_ident6tables4LEAF17h2d4b17dffbedc927E:
	.asciz	"\000\000\000\000\000\000\000\000\000\000\000\000\000\000\000\000\000\000\000\000\000\000\000\000\000\000\000\000\000\000\000\000\000\000\000\000\000\000\000\000\000\000\000\000\000\000\000\000\000\000\000\000\000\000\000\000\000\000\000\000\000\000\000\000\377\377\377\377\377\377\377\377\377\377\377\377\377\377\377\377\377\377\377\377\377\377\377\377\377\377\377\377\377\377\377\377\377\377??\377\377\377\377??\377\252\377\377\377?\377\377\377\377\377\377\337_\334\037\317\017\377\037\334\037\000\000\000\000\000\000\000\000\000\000\000\000\000\000\000\000\000\000\000\000\000\004 \004\377\377\177\377\377\377\177\377\377\377\377\377\377\377\377\377\377\377\377\377\377\377\377\377\377\377\377\377\377\377\377\377\377\377\377\377\377\377\377\377\377\377\377\377\377\377\377\377\377\377\377\377\377\377\377\377\377\377\377\377\377\377\377\377\377\377\377\377\377\377\377\377\377\377\377\377\377\377\377\377\377\377\377\377\377\377\377\377\377\377\377\377\377\377\377\377\000\000\000\000\000\000\000\000\000\000\000\000\000\000\000\000\000\000\000\000\000\000\000\000\000\000\000\000\000\004\240\004\377\377\177\377\377\377\177\377\377\377\377\377\377\377\377\377\377\377\377\377\377\377\377\377\377\377\377\377\377\377\377\377\377\377\377\377\377\377\377\377\377\377\377\377\377\377\377\377\377\377\377\377\377\377\377\377\377\377\377\377\017\000\377\377\177\370\377\377\377\377\377\017\377\377\377\377\377\377\377\377\377\377\377\377\377\377\377\377\377\377\377\377\377\377\377\377\303\377\003\000\037P\000\000\000\000\000\000\000\000\000\000\000\000\000\000\000\000\337\270@\327\377\377\373\377\377\377\377\377\377\377\377\377\277\377\377\377\377\377\377\377\377\377\377\377\377\377\377\377\377\377\377\377\377\377\377\377\377\377\303\377\003\000\037P\000\000\377\377\377\377\377\377\377\377\377\377\377\377\377\377\337\270\300\327\377\377\373\377\377\377\377\377\377\377\377\377\277\377\377\377\377\377\377\377\377\377\377\377\377\377\377\377\377\377\003\374\377\377\377\377\377\377\377\377\377\377\377\377\377\377\377\377\377\377\377\377\376\377\377\377\177\002\377\377\377\377\377\001\000\000\000\000\000\000\000\000\377\377\377\207\007\000\377\377\377\377\377\377\377\377\377\377\377\377\377\377\377\377\373\374\377\377\377\377\377\377\377\377\377\377\377\377\377\377\377\377\377\377\377\377\376\377\377\377\177\002\377\377\377\377\377\001\376\377\377\377\377\277\266\000\377\377\377\207\007\000\000\000\000\000\377\377\377\377\377\007\000\000\000\300\376\377\377\377\377\377\377\377\377\377\377\377/\000`\300\000\234\000\000\375\377\377\377\000\000\000\340\377\377\377\377\377\377\377\377\377\377?\000\002\000\000\374\377\377\377\0070\004\000\000\377\007\377\377\377\377\377\377\377\377\377\303\377\377\377\377\377\377\377\377\377\377\377\377\357\237\377\375\377\237\000\000\377\377\377\377\377\377\377\347\377\377\377\377\377\377\377\377\377\377\377\377\003\000\377\377\377\377\377\377?$\377\377?\004\020\001\000\000\377\377\377\001\377\007\377\377\377~\000\000\377\377\377\377\377\003\000\000\000\000\000\000\360\377\377\377\377\377\377#\000\000\001\377\003\000\376\377\341\237\371\377\377\375\305#\000@\000\260\003\000\003\020\377\377\377\377\377?\000\000\377\377\377\017\377\007\377\377\377~\000\377\377\377\377\377\377\377\377\377\373\377\377\377\377\377\377\377\377\377\377\377\377\377\377\377\317\377\376\377\357\237\371\377\377\375\305\363\237y\200\260\317\377\003P\340\207\371\377\377\375m\003\000\000\000^\000\000\034\000\340\277\373\377\377\375\355#\000\000\001\000\003\000\000\002\340\237\371\377\377\375\355#\000\000\000\260\003\000\002\000\350\307=\326\030\307\377\003\000\000\001\000\000\000\000\000\356\207\371\377\377\375m\323\2079\002^\300\377?\000\356\277\373\377\377\375\355\363\277;\001\000\317\377\000\376\356\237\371\377\377\375\355\363\2379\340\260\317\377\002\000\354\307=\326\030\307\377\303\307=\201\000\300\377\000\000\340\337\375\377\377\375\377#\000\000\000'\003\000\000\000\341\337\375\377\377\375\357#\000\000\000`\003\000\006\000\360\337\375\377\377\377\377'\000@p\200\003\000\000\374\340\377\177\374\377\377\373/\177\000\000\000\000\000\000\000\377\337\375\377\377\375\377\363\337=`'\317\377\000\000\357\337\375\377\377\375\357\363\337=``\317\377\016\000\377\337\375\377\377\377\377\377\337}\360\200\317\377\000\374\356\377\177\374\377\377\373/\177\204_\377\300\377\f\000\376\377\377\377\377\377\005\000\177\000\000\000\000\000\000\000\326\367\377\377\257\377\005 _\000\000\360\000\000\000\000\001\000\000\000\000\000\000\000\377\376\377\377\377\037\000\000\000\037\000\000\000\000\000\000\000\000\000\000\000\000\000\000\376\377\377\377\377\377\377\007\377\177\377\003\000\000\000\000\326\367\377\377\257\377\377?_\177\377\363\000\000\000\000\001\000\000\003\377\003\240\302\377\376\377\377\377\037\376\377\337\377\377\376\377\377\377\037@\000\000\000\000\000\000\000\377\377\377\377\377\007\000\200\000\000?<b\300\341\377\003@\000\000\377\377\377\377\277 \377\377\377\377\377\367\377\377\377\377\377\377\377\377\377\377\377\377\377\377\377\377\377\377\377\377\377\377\377\377\377\377\377\377\377\377\377\377\377\377\377\377\377\377\177\000\377\377?\000\377\000\000\000\277\377\377\377\377\377\375\007\000\000\000\000\000\000\000\000\377\377\377\377\377\377\377\377\377\003\377\377\377\377\377\377\377\377\377?\377\377\377\377\277 \377\377\377\377\377\367\377\377\377\377\377\377\377\377\377\377\377\377\377\377\377\377\377\377\377\377\377\377\377\377\377\377\377\377\377\377\377\377\377\377\377\377\377\377\377\377\377\377\377\377\377\377\377\377\377\377\377\003\000\000\000\000\000\000\000\000\000\000\000\000\377\377\377\377\377\377\377\377\377=\177=\377\377\377\377\377=\377\377\377\377=\177=\377\177\377\377\377\377\377\377\377=\377\377\377\377\377\377\377\377\007\000\000\000\000\377\377\000\000\377\377\377\377\377\377\377\377\377\377??\377\377\377\377\377\377\377\377\377=\177=\377\377\377\377\377=\377\377\377\377=\177=\377\177\377\377\377\377\377\377\377=\377\377\377\377\377\377\377\377\347\000\376\003\000\377\377\000\000\377\377\377\377\377\377\377\377\377\377??\376\377\377\377\377\377\377\377\377\377\377\377\377\377\377\377\377\377\377\377\377\377\377\377\377\377\377\377\377\377\377\377\377\377\377\377\377\377\377\377\377\377\377\377\377\377\377\377\377\377\377\377\377\377\377\377\377\377\377\377\377\377\377\377\377\377\377\377\377\377\377\377\377\377\377\377\377\377\377\377\377\377\377\377\377\377\377\377\377\377\377\377\377\377\377\000\377\377\377\377\377\377\377\377\377\377\377\377\377\237\377\377\376\377\377\007\377\377\377\377\377\377\377\377\377\307\377\001\377\377\003\200\377\377\003\000\377\377\003\000\377\337\001\000\377\377\377\377\377\377\017\000\000\000\200\020\000\000\000\000\377\377\377\377\377\377\377\377\377\377\377\377\377\237\377\377\376\377\377\007\377\377\377\377\377\377\377\377\377\307\377\001\377\377?\200\377\377\037\000\377\377\017\000\377\337\r\000\377\377\377\377\377\377\377\377\377\377\2170\377\003\000\000\000\000\000\000\377\377\377\377\377\377\377\377\377\377\377\001\377\377\377\377\377\005\377\377\377\377\377\377\377\377?\000\377\377\377\177\000\000\000\000\000\000\377\377\377?\037\000\377\377\377\377\377\017\377\377\377\003\000\000\000\000\000\000\000\270\377\003\377\377\377\377\377\377\377\377\377\377\377\001\377\377\377\377\377\007\377\377\377\377\377\377\377\377?\000\377\377\377\177\377\017\377\017\300\377\377\377\377?\037\000\377\377\377\377\377\017\377\377\377\003\377\007\000\000\000\000\377\377\177\000\377\377\377\377\377\377\037\000\000\000\000\000\000\000\000\000\200\000\000\000\000\000\000\000\000\000\000\000\340\377\377\377\377\377\017\000\340\037\000\000\000\000\000\000\370\377\377\377\001\300\000\374\377\377\377\377?\000\000\000\377\377\377\017\377\377\377\377\377\377\377\177\377\377\377\237\377\003\377\003\200\000\377\277\377\177\000\000\000\000\000\000\377\377\377\377\377\377\377\377\377\037\377\003\000\370\017\000\377\377\377\377\377\377\377\377\377\377\377\377\377\377\017\000\377\377\377\377\017\000\000\000\000\340\000\374\377\377\377?\377\001\377\377\377\377\377\347\000\000\000\000\000\336o\004\377\377\377\377\377\377\377\377\377\377\377\377\377\377\377\377\377\377\377\377\377\377\377\377\000\000\000\000\000\000\000\000\377\377\377\377\377\377\377\000\377\343\377\377\377\377\377?\377\001\377\377\377\377\377\347\000\000\367\377\377\377\377\007\377\377\377\377\377\377\377\377\377\377\377\377\377\377\377\377\377\377\377\377\377\377\377\377\377\377\377\377\377\377\377\377\377\377\377\377\007\000\004\000\000\000'\000\360\000\377\377\377\377\377\377\377\377\377\377\377\377\377\377\377\377\377\377\000\000\000\000\000\000\000\000\000\000\000\000\000\000\002\200\000\000\377\037\000\000\000\000\000\000\000\000\000\000\000\000\204\374/?P\375\377\363\340C\000\000\377\377\377\377\377\001\000\000\000\000\000\000\000\000\000\000\000\000\000\000\0000\000\000\000\000\000\200\001\000\020\000\000\000\002\200\000\000\377\037\000\000\000\000\000\000\377\037\342\377\001\000\204\374/?P\375\377\363\340C\000\000\377\377\377\377\377\001\000\000\000\000\000\000\000\000\000\000\000\000\000\000\377\377\377\377\377\377\377\377\377\377\377\377\377\377\377\377\377\377\377\377\377\377\377\377\377\377\377\377\037x\f\000\377\377\377\377\277 \377\377\377\377\377\377\377\200\000\000\377\377\177\000\177\177\177\177\177\177\177\177\000\000\000\000\377\377\377\377\377\377\377\377\377\377\377\377\377\377\377\377\377\377\377\377\377\377\377\377\377\377\377\377\037\370\017\000\377\377\377\377\277 \377\377\377\377\377\377\377\200\000\200\377\377\177\000\177\177\177\177\177\177\177\177\377\377\377\377\340\000\000\000\376\003>\037\376\377\377\377\377\377\377\377\377\377\177\340\376\377\377\377\377\377\377\377\377\377\377\367\340\377\377\377\377\377\376\377\377\377\377\377\377\377\377\377\377\177\000\000\377\377\377\377\000\000\000\000\000\000\377\377\340\000\000\000\376\377>\037\376\377\377\377\377\377\377\377\377\377\177\346\376\377\377\377\377\377\377\377\377\377\377\377\340\377\377\377\377\377\376\377\377\377\377\377\377\377\377\377\377\177\000\000\377\377\377\377\000\000\000\000\000\000\377\377\377\377\377\377\377\377\377\377\377\377\377\377\377\377\377\377\377\037\000\000\000\000\000\000\000\000\377\377\377\377\377?\377\377\377\377\377\377\377\377\377\377\377\377\377\377\377\377\377\377\377\377\377\377\377\377\377\377\377\377\377\377\377\377\377\377\377\377\377\377\377\003\377\377\377\377\377\377\377\377\377\377\377\377\377\377\377\377\377\377\377\377\377\377\377\377\377\037\377\377\000\f\000\000\377\377\377\377\377\177\000\200\377\377\377?\377\377\377\377\377\377\377\377\377\377\000\000\000\000\200\377\374\377\377\377\377\377\377\377\377\377\377\377\377\371\377\377\377\377\377\377\377\007\353\003\000\000\374\377\377\037\377\377\377\017\000\000\377\377\377\377\377\377\360\277\377\377\377\377\377\377\377\377\377\377\377\377\377\377\003\000\000\000\200\377\374\377\377\377\377\377\377\377\377\377\377\377\377\371\377\377\377\377\377\377\377\007\353\003\000\000\374\377\273\367\377\377\007\000\000\000\377\377\377\377\377\377\017\000\374\377\377\377\377\377\017\000\000\000\000\000\000\000\374h\000\374\377\377?\000\377\377\177\000\000\000\377\377\377\037\360\377\377\377\377\377\007\000\000\200\000\000\337\377\000|\377\377\377\377\377\020\000\000\377\377\377\377\377\377\017\000\377\377\377\377\377\377\377\377?\000\377\003\377\377\377\350\377\377\377\377\377?\377\377\377\377\017\000\377\377\377\037\377\377\377\377\377\377\377\377\001\200\377\003\377\377\377\177\377\377\377\377\377\001\000\000\367\017\000\000\377\377\177\304\377\377\377\377\377\377b>\005\000\0008\377\007\034\000~~~\000\177\177\377\377\377\377\377\367\377\003\377\377\377\377\377\377\377\377\377\377\377\377\377\377\007\000\000\000\377\377\377\377\377\377\177\000\377?\377\003\377\377\177\374\377\377\377\377\377\377\377\377\007\000\0008\377\377|\000~~~\000\177\177\377\377\377\377\377\367\377\003\377\377\377\377\377\377\377\377\377\377\377\377\377\377\3777\377\003\377\377\377\377\377\377\377\377\377\377\377\377\377?\377\377\377\377\377\377\377\377\377\377\377\377\377\003\000\000\000\000\177\000\370\240\377\375\177_\333\377\377\377\377\377\377\377\377\377\377\377\377\377\003\000\000\000\370\377\377\377\377\377\377\377\377\377\377\377\377\377\377\377\377\377\377?\377\377\377\377\377\377\377\377\377\377\377\377\377\003\000\000\000\000\177\000\370\340\377\375\177_\333\377\377\377\377\377\377\377\377\377\377\377\377\377\003\000\000\000\370\377\377\377\377\377\377\377\377\377\377\377\377\377\377\377\377?\360\377\377\377\377\377\377\377\377\377\377\377\377\377\377\377\377\377\377\377\377\377\377\377\377\377\377?\000\000\377\377\377\377\377\377\377\377\374\377\377\377\377\377\377\000\000\000\000\000\377\003\000\000\000\000\000\000\000\000\000\000\000\000\000\000\212\252\377\377\377\377\377\377\377\377\377\377\377\377\377\377\377\037\000\000\000\000\376\377\377\007\376\377\377\007\300\377\377\377\377\377\377?\377\377\377\177\374\374\374\034\000\000\000\000\377\377\000\000\377\377\030\000\000\340\000\000\000\000\212\252\377\377\377\377\377\377\377\377\377\377\377\377\377\377\377\037\000\000\377\003\376\377\377\207\376\377\377\007\340\377\377\377\377\377\377\377\377\377\377\177\374\374\374\034\000\000\000\000\377\357\377\377\177\377\377\267\377?\377?\000\000\000\000\377\377\377\377\377\377\377\377\377\377\377\377\377\377\377\007\000\000\000\000\000\000\000\000\377\377\377\377\377\377\037\000\000\000\000\000\000\000\000\000\000\000\000\000\000\000\000\000\377\357\377\377\177\377\377\267\377?\377?\000\000\000\000\377\377\377\377\377\377\377\377\377\377\377\377\377\377\377\007\000\000\000\000\000\000\000\000\377\377\377\377\377\377\037\000\000\000\000\000\000\000\000\000\000\000\000\000\000\000\000 \000\000\000\000\000\000\000\000\000\000\000\000\000\000\000\000\377\377\377\037\377\377\377\377\377\377\001\000\000\000\000\000\377\377\377\377\000\340\377\377\377\007\377\377\377\377?\000\377\377\377?\377\377\377\377\017\377>\000\000\000\000\000\000\000\000\000\000\000\000\000\000\000\000\000\000\000\000\000\377\377\377\037\377\377\377\377\377\377\001\000\001\000\000\000\377\377\377\377\000\340\377\377\377\007\377\377\377\377\377\007\377\377\377?\377\377\377\377\017\377>\000\000\000\000\000\377\377\377\377\377\377\377\377\377\377\377\377\377\377\377\377\377\377\377?\000\000\377\377\377\377\017\377\377\377\377\017\377\377\377\377\377\000\377\377\377\377\377\377\017\000\377\367\377\367\267\377\373\377\373\033\000\000\000\000\000\000\000\000\377\377\377\377\377\377\377\377\377\377\377\377\377\377\377\377\377\377\377?\377\003\377\377\377\377\017\377\377\377\377\017\377\377\377\377\377\000\377\377\377\377\377\377\017\000\377\367\377\367\267\377\373\377\373\033\000\000\000\000\000\000\000\000?\375\377\377\377\377\277\221\377\377?\000\377\377\177\000\377\377\377\177\000\000\000\000\000\000\000\000\377\3777\000\377\377?\000\377\377\377\003\000\000\000\000\000\000\000\000\377\377\377\377\377\377\377\300\000\000\000\000\000\000\000\000\001\000\357\376\377\377?\000\000\000\000\000\377\377\377\037\377\377\377\037\000\000\000\000\377\376\377\377\037\000\000\000\377\377\377\377\377\377?\000\377\377?\000\377\377\007\000\377\377\003\000\000\000\000\000\000\000\000\000\000\000\000\000o\360\357\376\377\377?\207\000\000\000\000\377\377\377\037\377\377\377\037\000\000\000\000\377\376\377\377\177\000\000\000\377\377\377\377\377\377?\000\377\377?\000\377\377\007\000\377\377\003\000\000\000\000\000\000\000\000\000\000\000\000\000\377\377\377\377\377\377\377\377\377\001\000\000\000\000\000\000\377\377\377\377\377\377\007\000\377\377\377\377\377\377\007\000\377\377\377\377\017\000\000\000\000\000\000\000\000\000\000\000\000\000\000\000\000\000\000\000\000\000\000\000\000\000\000\000\377\377\377\377\377\377\377\377\377\001\000\000\000\000\000\000\377\377\377\377\377\377\007\000\377\377\377\377\377\377\007\000\377\377\377\377\377\000\377\003\000\000\000\000\000\000\000\000\000\000\000\000\000\000\000\000\000\000\000\000\000\000\000\000\000\000\000\000\000\000\000\000\000\000\000\000\000\000\000\000\377\377\377\377\377\003\003\000\000\000\000\000\000\000\000\000\377\377\377\037\200\000\377\377?\000\000\000\000\000\377\377\003\000\000\000\000\000\377\377\037\000\000\000\377\377\177\000\000\000\000\000\000\000\000\000\000\000\000\000\000\000\000\000\377\377\377\377\377\033\003\000\000\000\000\000\000\000\000\340\377\377\377\037\200\000\377\377\377\377\001\000\000\000\377\377?\000\000\000\000\000\377\377\037\000\000\000\377\377\177\000\370\377\377\377\377\377\377\000\000\000\000\000\000\000&\000\370\377\377\377\377\377\000\000\000\000\377\377\377\001\000\000\370\377\377\377\177\000\000\000\220\000\377\377\377\377G\000\370\377\377\377\377\377\007\000\036\000\000\024\000\000\000\000\377\377\377\377\377\377\377\377\177\000\000\000\300\377?\200\377\377\377\377\377\377\377\007\004\000\377\377\377\001\377\003\377\377\377\377\377\377\337\377\360\000\377\377\377\377O\000\377\377\377\377\377\377\377\377\037\336\377\027\000\000\000\000\377\377\373\377\377\017\000\200\001\000\000\000\000\000\000\000\177\275\377\277\377\001\377\377\377\377\377\177\000\000\000\000\340\237\371\377\377\375\355#\000\000\001\340\003\000\000\000\000\000\000\000\000\000\000\000\000\000\000\000\000\000\000\000\377\377\373\377\377\377\377\300\003\000\000\000\000\000\000\000\177\275\377\277\377\001\377\377\377\377\377\377\377\007\377\003\357\237\371\377\377\375\355\373\2379\201\340\317\037\037\000\000\000\000\000\000\000\000\000\000\000\000\000\000\000\000\000\377\377\377\377\377\377\037\000\200\007\000\200\003\000\000\000\377\377\377\377\377\377\000\000\260\000\000\000\000\000\000\000\000\000\000\000\000\000\000\000\000\000\000\000\000\000\000\000\377\377\377\377\377\177\000\000\000\000\000\017\000\000\000\000\377\377\377\377\377\377\377\377\377\007\377\303\003\000\000\000\377\377\377\377\377\377\377\377\277\000\377\003\000\000\000\000\000\000\000\000\000\000\000\000\000\000\000\000\000\000\000\000\377\377\377\377\377\377?\377\001\000\000?\000\000\000\000\377\377\377\377\377\377\000\000\020\000\000\000\000\000\000\000\377\377\377\377\377\007\000\001\000\000\000\000\000\000\000\000\377\377\377\007\000\000\000\000\177\000\000\000\000\000\000\000\000\000\000\000\000\000\000\000\000\000\000\000\000\000\000\000\377\377\377\377\377\377\377\377\021\000\377\003\000\000\000\000\377\377\377\377\377\377\377\001\377\003\000\000\000\000\000\000\377\377\377\347\377\017\377\003\177\000\000\000\000\000\000\000\000\000\000\000\000\000\000\000\000\000\000\000\000\000\000\000\377\377\377\377\377\017\000\000\000\000\000\000\000\000\000\000\000\000\000\000\377\377\377\377\377\377\377\377\000\000\000\200\177\362o\377\377\377\000\200\002\000\000\000\000\000\000\000\000\000\000\000\377\374\377\377\377\377\001\000\n\000\000\000\377\377\377\377\377\377\377\007\000\000\000\000\000\000\000\000\000\000\000\000\377\377\377\377\377\377\377\377\377\003\000\200\177\362o\377\377\377\277\371\017\000\377\003\000\000\000\000\000\000\000\000\377\374\377\377\377\377\377\374\033\000\000\000\001\370\377\377\377\377\007\004\000\000\001\360\377\377\377\377\377\003\000 \000\000\377\377\377\377\377\377\377\377\377\001\000\000\000\000\000\000\000\000\000\000\000\000\000\000\000\000\000\000\000\000\000\000\000\000\000\000\000\000\000\000\000\000\000\000\000\000\000\000\000\000\000\000\000\000\000\000\000\000\000\000\377\377\377\377\377\377\377\377\377\377\377\377\001\000\377\377\377\377\377\377\377\177\200\000\377\377\377\377\377\377\377\377\377#\000\000\377\377\377\377\377\377\377\377\377\001\000\000\000\000\000\000\000\000\000\000\000\000\000\000\000\000\000\000\000\000\000\000\000\000\000\000\000\000\000\000\000\000\000\000\000\000\000\000\000\000\000\000\000\000\000\000\000\000\000\000\000\000\000\000\000\000\000\000\000\000\000\000\357o\377\375\377\377\377\177\000\000\001\000\000\000\000\000\374\377\377\377\000\000\000\000\000\000\000\000\000\000\000\000\000\000\177\373\377\377\377\377\001\000@\000\000\000\277\375\377\377\377\003\000\001\000\000\000\000\000\000\000\000\000\000\000\000\377\375\377\377\377\377\177\377\001\000\377\003\000\000\374\377\377\377\374\377\377\376\177\000\000\000\000\000\000\000\000\000\177\373\377\377\377\377\177\264\377\000\377\003\277\375\377\377\377\177\373\001\377\003\000\000\000\000\000\000\000\000\000\000\000\000\000\000\000\000\000\000\000\000\000\000\000\000\000\000\000\000\000\000\000\000\000\000\000\000\000\000\377\377\007\000\364\377\375\377\377\377\017\000\000\000\000\000\000\000\000\000\000\000\000\000\000\000\001\000\000\000\000\000\000\000\000\000\000\000\000\000\000\000\000\000\000\000\000\000\000\000\000\000\000\000\000\000\000\000\000\000\000\000\000\000\377\377\177\000\377\377\375\377\377\377\377\307\007\000\377\003\000\000\000\000\000\000\000\000\000\000\001\000\000\000\000\000\000\000\000\000\377\377\377\377\377\377\377\377\377\377\377\377\377\177\000\000\377\377\377\377\377\377\377\377\377\377\377\377\377\377\377\377\377\377\377\377\377\377\377\377\017\000\000\000\000\000\000\000\000\000\000\000\000\000\000\000\000\000\000\000\000\000\000\000\377\377\377\377\377\377\000\000~\000\000\000\000\000\000\000\000\000\000\000\000\000\000\000\000\000\000\000\000\000\000\000\000\000\000\000\000\000\000\000\000\000\000\000\000\000\000\000\000\000\000\000\000\000\000\000\000\000\000\000\000\000\000\000\377\377\377\377\377?\377\377\177\000\000\000\000\000\000\000\000\000\000\000\000\000\000\000\000\000\000\000\000\000\000\000\377\377\377\377\377\377\000\000\377\377?\000\000\000\000\000\000\000\000\000\000\000\000\000\000\000\000\000\000\000\000\000\000\000\000\000\000\000\000\000\000\000\000\000\000\000\000\000\000\000\000\000\000\000\000\000\000\000\000\000\000\000\000\000\000\000\000\000\000\000\000\000\000\000\000\000\340\343\007\370\347\017\000\000\000<\000\000\000\000\000\000\000\000\000\000\377\377\377\377\377\377\377\377\177\000\000\000\000\000\000\000\000\000\000\000\000\000\000\000\000\000\000\000\000\000\000\000\000\000\000\000\000\000\000\000\000\000\000\000\000\000\000\000\000\000\000\000\000\000\000\000\000\000\000\000\000\000\000\000\377\377\377\177\340\007\000\000\000\000\000\000\000\000\000\000\000\000\000\000\000\000\000\000\000\000\000\000\000\000\000\000\377\377\377\377\377\377\377\001\377\377\377\177\000\000\377\377\377\377\377\377\377\377\377\177\000\000\377\377\377?\000\000\377\377\377\377\377\377\000\000\017\000\000\000\370\377\377\340\377\377\000\000\000\000\000\000\000\000\000\000\000\000\000\000\377\377\377\377\377\377\377\001\377\377\377\177\377\003\377\377\377\377\377\377\377\377\377\177\377\003\377\377\377?\037\000\377\377\377\377\377\377\177\000\017\000\377\003\370\377\377\340\377\377\000\000\000\000\000\000\000\000\000\000\000\000\000\000\000\000\000\000\000\000\000\000\377\377\377\377\377\377\377\377\000\000\000\000\000\000\000\000\000\000\000\000\000\000\000\000\377\377\377\377\377\377\377\377\377\007\001\000\000\000\000\000\000\000\370\377\000\000\000\000\000\000\000\000\013\000\000\000\000\000\000\000\000\000\000\000\377\377\377\377\377\377\377\377\000\000\000\000\000\000\000\000\000\000\000\000\000\000\000\000\377\377\377\377\377\377\377\377\377\207\377\377\377\377\377\377\377\200\377\377\000\000\000\000\000\000\000\000\033\000\003\000\377\377\377\377\377\377\377\377\377\377\377\377\377\377\377\377\377\377\377\377\377\377\377\377\377\377?\000\000\000\000\000\377\001\000\000\000\000\000\000\000\000\000\000\000\000\000\000\000\000\000\000\000\000\000\000\000\000\000\000\000\000\000\000\377\377\377\377\377\377\377\377\377\377\377\377\377\377\377\377\377\377\377\377\377\377\377\377\377\377\377\377\377\377\377\017\000\000\000\000\000\000\000\000\000\000\000\000\000\000\000\000\000\000\000\000\000\000\000\000\000\000\000\000\000\000\000\000\000\000\000\000\000\000\000\000\000\000\000\000\000\000\000\000\000\000\000\000\000\000\000\000\000\000\000\000\177o\377\177\377\377\377\377\377\377\377\377\377\377\377\377\377\007\377\037\377\001\377\003\000\000\000\000\000\000\000\000\000\000\000\000\000\000\000\000\000\000\000\000\000\000\000\000\000\000\000\000\000\000\000\000\000\000\000\000\000\000\000\000\000\000\000\000\000\000\000\000\000\000\000\000\000\000\000\000\000\000\000\000\000\000\000\000\000\000\000\000\000\000\000\000\000\000\377\003\377\377\377\377\377\377\377\377\377\377\377\377\377\007\377\037\377\001\377c\000\000\000\000\000\000\000\000\000\000\000\000\000\000\000\000\000\000\000\000\000\000\000\000\000\000\000\000\000\000\000\000\000\000\000\000\000\000\000\000\000\000\000\000\377\377\377\377\377\377\377\377\377\377\377\377\377\377\377\377\377\377\377\377\377\377\377\377\377\377\377\377\377\377\000\000\000\000\000\000\000\000\000\000\034\000\000\000\000\000\000\000\000\000\000\000\000\000\000\000\000\000\000\000\000\000\000\000\000\000\000\000\000\000\000\000\000\000\000\000\000\000\000\000\000\000\000\000\000\000\000\000\000\000\000\000\000\000\000\000\377\377\377\377\377\377\377\377\377\377\337\377\377\377\377\377\377\377\377\337d\336\377\353\357\377\377\377\377\377\377\377\277\347\337\337\377\377\377{_\374\375\377\377\377\377\377\377\377\377\377\377\377\377\377\377\377\377\377\377\377\377\377\377\377\377\377\377\377\377\377\377\377\377\377\377\377\377\377\377\377\377\377?\377\377\377\375\377\377\367\377\377\377\367\377\377\337\377\377\377\337\377\377\177\377\377\377\177\377\377\377\375\377\377\377\375\377\377\367\017\000\000\000\000\000\000\377\377\377\377\377\377\377\377\377\377\377\377\377\377\377\377\377\377\377\377?\377\377\377\375\377\377\367\377\377\377\367\377\377\337\377\377\377\337\377\377\177\377\377\377\177\377\377\377\375\377\377\377\375\377\377\367\317\377\377\377\377\377\377\377\377\377\377\377\377\177\370\377\377\377\377\377\037 \000\020\000\000\370\376\377\000\000\000\000\000\000\000\000\000\000\000\000\000\000\000\000\000\000\000\000\000\000\000\000\000\000\000\000\000\000\000\000\000\000\000\000\000\000\000\000\000\000\000\000\000\000\000\000\377\377\377\377\377\377\377?\000\000\000\000\000\000\000\000\000\000\000\000\000\000\000\000\000\000\377\377\377\377\377\037\200?\000@\000\000\000\000\000\000\000\000\000\000\000\000\000\000\000\000\000\000\000\000\000\000\177\377\377\371\333\007\377\377\377\377\377\377\377?\000\000\000\200\000\000\000\000\000\000\000\000\000\000\000\000\000\000\377\377\377\377\377\037\377?\377C\000\000\000\000\000\000\000\000\000\000\000\000\000\000\000\000\000\000\000\000\000\000\000\000\000\000\000\000\000\000\000\000\000\000\000\000\000\000\000\000\377\377\377?\000\000\377\377\377\377\377\017\000\000\000\000\000\000\000\000\000\000\000\000\000\000\000\000\000\000\000\000\000\000\000\000\000\000\000\000\000\000\000\000\000\000\000\000\000\000\000\000\000\000\000\000\000\000\000\000\000\000\000\000\377\377\377\177\000\000\377\377\377\377\377\377\377\003\000\000\000\000\000\000\000\000\000\000\000\000\000\000\000\000\000\000\000\000\000\000\000\000\000\000\000\000\000\000\000\000\000\000\000\000\000\000\000\000\000\000\000\000\000\000\000\000\000\000\000\000\000\000\000\000\000\000\377\377\377\017\000\000\000\000\000\000\000\000\000\000\000\000\000\000\000\000\000\000\000\000\000\000\000\000\000\000\000\000\000\000\000\000\000\000\000\000\000\000\000\000\000\000\000\000\000\000\000\000\000\000\000\000\000\000\000\000\000\000\000\000\377\377\377\377\377\003\000\000\000\000\000\000\000\000\000\000\000\000\000\000\000\000\000\000\000\000\000\000\000\000\000\000\000\000\000\000\000\000\377\377\377\377\377\377\377\377\377\377\377\377\377\377\377\377\377\377\377\377\377\377\377\377\037\000\000\000\000\000\000\000\377\377\377\377\377\377\377\377\017\b\000\000\000\000\000\000\000\000\000\000\000\000\000\000\000\000\000\000\000\000\000\000\377\377\377\377\377\377\377\377\377\377\377\377\377\377\377\377\377\377\377\377\377\377\377\377\037\000\177\000\000\000\000\000\377\377\377\377\377\377\377\377\377\017\377\003\000\000\000\000\000\000\000\000\000\000\000\000\000\000\000\000\000\000\000\000\357\377\377\377\226\376\367\n\204\352\226\252\226\367\367^\377\373\377\017\356\373\377\017\000\000\000\000\000\000\000\000\000\000\000\000\000\000\000\000\000\000\000\000\000\000\000\000\000\000\000\000\000\000\000\000\000\000\000\000\000\000\000\000\377\377\377\377\377\377\377\377\377\377\377\377\377\377\377\377\377\377\377\377\377\377\377\377\377\377\377\377\000\000\000\000\377\377\377\377\377\377\377\377\377\377\377\377\377\377\377\377\377\377\377\377\377\377\377\377\377\377\377\377\377\377\377\377\377\377\377\377\377\377\377\377\377\377\377\377\377\377\377\377\377\377\377\377\377\377\377\377\377\377\377\377\001\000\377\377\377\377\377?\377\377\377\377\377\377\377\377\377\377\377\377\377\377\377\377\377\377\377\377\377\377\377\377\377\377\377\377\377\377\377\377\377\377\377\377\377\377\377\377\377\377\377\377\377\377\377\377\377\377\377\377\377\377\377\377\377\377\377\377\377\377\377\377\377\377\377\377\377\007\377\377\377\377\377\377\377\377\377\377\377\377\377\377\377\377\377\377\377\377\377\377\377\377\377\377\377\377\377\377\377\377\377\377\377\377\377\377\377\377\377\377\003\000\377\377\377\377\377\377\377\377\377\377\377\377\377\377\377\377\377\377\377\377\377\377\377\377\377\377\377\377\377\377\377\377\377\377\377\377\377\377\377\377\377\377\377\377\377\377\377\377\377\377\377\377\377\377\377\377\377\377\377\377\377\377\377\377\000\000\000\000\000\000\000\000\000\000\377\377\377\377\377\377\377\377\377\377\377?\000\000\000\000\000\000\000\000\000\000\000\000\000\000\000\000\000\000\000\000\000\000\000\000\000\000\000\000\000\000\000\000\000\000\000\000\000\000\000\000\000\000\000\000\000\000\000\000\000\000\000\000\377\377\377?\000\000\000\000\000\000\000\000\000\000\000\000\000\000\000\000\000\000\000\000\000\000\000\000\000\000\000\000\000\000\000\000\000\000\000\000\000\000\000\000\000\000\000\000\000\000\000\000\000\000\000\000\000\000\000\000\000\000\000"
	.zero	32
