	.text
	.def	@feat.00;
	.scl	3;
	.type	0;
	.endef
	.globl	@feat.00
.set @feat.00, 0
	.file	"unicode_ident.7342652624d6f89b-cgu.0"
	.def	_ZN4core4char7methods22_$LT$impl$u20$char$GT$8is_ascii17h9c08efb83d72755eE;
	.scl	3;
	.type	32;
	.endef
	.section	.text,"xr",one_only,_ZN4core4char7methods22_$LT$impl$u20$char$GT$8is_ascii17h9c08efb83d72755eE
	.p2align	4, 0x90
_ZN4core4char7methods22_$LT$impl$u20$char$GT$8is_ascii17h9c08efb83d72755eE:
	cmpl	$127, (%rcx)
	setbe	%al
	andb	$1, %al
	movzbl	%al, %eax
	retq

	.def	_ZN4core5slice29_$LT$impl$u20$$u5b$T$u5d$$GT$13get_unchecked17h540f5b5b7945f70cE;
	.scl	2;
	.type	32;
	.endef
	.section	.text,"xr",one_only,_ZN4core5slice29_$LT$impl$u20$$u5b$T$u5d$$GT$13get_unchecked17h540f5b5b7945f70cE
	.globl	_ZN4core5slice29_$LT$impl$u20$$u5b$T$u5d$$GT$13get_unchecked17h540f5b5b7945f70cE
	.p2align	4, 0x90
_ZN4core5slice29_$LT$impl$u20$$u5b$T$u5d$$GT$13get_unchecked17h540f5b5b7945f70cE:
.seh_proc _ZN4core5slice29_$LT$impl$u20$$u5b$T$u5d$$GT$13get_unchecked17h540f5b5b7945f70cE
	subq	$40, %rsp
	.seh_stackalloc 40
	.seh_endprologue
	movq	%r8, 32(%rsp)
	movq	%rdx, %r8
	movq	%rcx, %rdx
	movq	32(%rsp), %rcx
	callq	_ZN75_$LT$usize$u20$as$u20$core..slice..index..SliceIndex$LT$$u5b$T$u5d$$GT$$GT$13get_unchecked17h02198ea6a98c56c7E
	nop
	addq	$40, %rsp
	retq
	.seh_endproc

	.def	_ZN4core5slice29_$LT$impl$u20$$u5b$T$u5d$$GT$3get17h9bc3c0f3ea8c1115E;
	.scl	2;
	.type	32;
	.endef
	.section	.text,"xr",one_only,_ZN4core5slice29_$LT$impl$u20$$u5b$T$u5d$$GT$3get17h9bc3c0f3ea8c1115E
	.globl	_ZN4core5slice29_$LT$impl$u20$$u5b$T$u5d$$GT$3get17h9bc3c0f3ea8c1115E
	.p2align	4, 0x90
_ZN4core5slice29_$LT$impl$u20$$u5b$T$u5d$$GT$3get17h9bc3c0f3ea8c1115E:
.seh_proc _ZN4core5slice29_$LT$impl$u20$$u5b$T$u5d$$GT$3get17h9bc3c0f3ea8c1115E
	subq	$40, %rsp
	.seh_stackalloc 40
	.seh_endprologue
	movq	%r8, 32(%rsp)
	movq	%rdx, %r8
	movq	%rcx, %rdx
	movq	32(%rsp), %rcx
	callq	_ZN75_$LT$usize$u20$as$u20$core..slice..index..SliceIndex$LT$$u5b$T$u5d$$GT$$GT$3get17h4386fd856398f963E
	nop
	addq	$40, %rsp
	retq
	.seh_endproc

	.def	_ZN4core6option15Option$LT$T$GT$9unwrap_or17h4dd7d977f34e76feE;
	.scl	2;
	.type	32;
	.endef
	.section	.text,"xr",one_only,_ZN4core6option15Option$LT$T$GT$9unwrap_or17h4dd7d977f34e76feE
	.globl	_ZN4core6option15Option$LT$T$GT$9unwrap_or17h4dd7d977f34e76feE
	.p2align	4, 0x90
_ZN4core6option15Option$LT$T$GT$9unwrap_or17h4dd7d977f34e76feE:
.seh_proc _ZN4core6option15Option$LT$T$GT$9unwrap_or17h4dd7d977f34e76feE
	subq	$32, %rsp
	.seh_stackalloc 32
	.seh_endprologue
	movq	%rdx, (%rsp)
	movq	%rcx, 8(%rsp)
	movb	$1, 31(%rsp)
	movq	8(%rsp), %rdx
	movl	$1, %eax
	xorl	%ecx, %ecx
	cmpq	$0, %rdx
	cmoveq	%rcx, %rax
	cmpq	$0, %rax
	jne	.LBB3_2
	movq	(%rsp), %rax
	movb	$0, 31(%rsp)
	movq	%rax, 16(%rsp)
	jmp	.LBB3_3
.LBB3_2:
	movq	8(%rsp), %rax
	movq	%rax, 16(%rsp)
.LBB3_3:
	testb	$1, 31(%rsp)
	jne	.LBB3_5
.LBB3_4:
	movq	16(%rsp), %rax
	addq	$32, %rsp
	retq
.LBB3_5:
	jmp	.LBB3_4
	.seh_endproc

	.def	_ZN75_$LT$usize$u20$as$u20$core..slice..index..SliceIndex$LT$$u5b$T$u5d$$GT$$GT$13get_unchecked17h02198ea6a98c56c7E;
	.scl	2;
	.type	32;
	.endef
	.section	.text,"xr",one_only,_ZN75_$LT$usize$u20$as$u20$core..slice..index..SliceIndex$LT$$u5b$T$u5d$$GT$$GT$13get_unchecked17h02198ea6a98c56c7E
	.globl	_ZN75_$LT$usize$u20$as$u20$core..slice..index..SliceIndex$LT$$u5b$T$u5d$$GT$$GT$13get_unchecked17h02198ea6a98c56c7E
	.p2align	4, 0x90
_ZN75_$LT$usize$u20$as$u20$core..slice..index..SliceIndex$LT$$u5b$T$u5d$$GT$$GT$13get_unchecked17h02198ea6a98c56c7E:
.seh_proc _ZN75_$LT$usize$u20$as$u20$core..slice..index..SliceIndex$LT$$u5b$T$u5d$$GT$$GT$13get_unchecked17h02198ea6a98c56c7E
	subq	$16, %rsp
	.seh_stackalloc 16
	.seh_endprologue
	movq	%rdx, %rax
	movq	%rax, (%rsp)
	movq	%r8, 8(%rsp)
	addq	%rcx, %rax
	addq	$16, %rsp
	retq
	.seh_endproc

	.def	_ZN75_$LT$usize$u20$as$u20$core..slice..index..SliceIndex$LT$$u5b$T$u5d$$GT$$GT$3get17h4386fd856398f963E;
	.scl	2;
	.type	32;
	.endef
	.section	.text,"xr",one_only,_ZN75_$LT$usize$u20$as$u20$core..slice..index..SliceIndex$LT$$u5b$T$u5d$$GT$$GT$3get17h4386fd856398f963E
	.globl	_ZN75_$LT$usize$u20$as$u20$core..slice..index..SliceIndex$LT$$u5b$T$u5d$$GT$$GT$3get17h4386fd856398f963E
	.p2align	4, 0x90
_ZN75_$LT$usize$u20$as$u20$core..slice..index..SliceIndex$LT$$u5b$T$u5d$$GT$$GT$3get17h4386fd856398f963E:
.seh_proc _ZN75_$LT$usize$u20$as$u20$core..slice..index..SliceIndex$LT$$u5b$T$u5d$$GT$$GT$3get17h4386fd856398f963E
	subq	$48, %rsp
	.seh_stackalloc 48
	.seh_endprologue
	movq	%r8, (%rsp)
	movq	%rdx, 8(%rsp)
	movq	%rcx, 16(%rsp)
	cmpq	%r8, %rcx
	jb	.LBB5_2
	movq	$0, 24(%rsp)
	jmp	.LBB5_3
.LBB5_2:
	movq	16(%rsp), %rcx
	movq	8(%rsp), %rax
	movq	(%rsp), %rdx
	movq	%rax, 32(%rsp)
	movq	%rdx, 40(%rsp)
	addq	%rcx, %rax
	movq	%rax, 24(%rsp)
.LBB5_3:
	movq	24(%rsp), %rax
	addq	$48, %rsp
	retq
	.seh_endproc

	.def	_ZN13unicode_ident12is_xid_start17h06f953d3a80d29bdE;
	.scl	2;
	.type	32;
	.endef
	.section	.text,"xr",one_only,_ZN13unicode_ident12is_xid_start17h06f953d3a80d29bdE
	.globl	_ZN13unicode_ident12is_xid_start17h06f953d3a80d29bdE
	.p2align	4, 0x90
_ZN13unicode_ident12is_xid_start17h06f953d3a80d29bdE:
.seh_proc _ZN13unicode_ident12is_xid_start17h06f953d3a80d29bdE
	subq	$72, %rsp
	.seh_stackalloc 72
	.seh_endprologue
	movl	%ecx, 64(%rsp)
	leaq	64(%rsp), %rcx
	callq	_ZN4core4char7methods22_$LT$impl$u20$char$GT$8is_ascii17h9c08efb83d72755eE
	testb	$1, %al
	jne	.LBB6_2
	movl	64(%rsp), %eax
	movl	%eax, %r8d
	shrq	$3, %r8
	shrq	$6, %r8
	leaq	_ZN13unicode_ident6tables10TRIE_START17h763b77bb7abe29b0E(%rip), %rcx
	movl	$402, %edx
	callq	_ZN4core5slice29_$LT$impl$u20$$u5b$T$u5d$$GT$3get17h9bc3c0f3ea8c1115E
	movq	%rax, %rcx
	leaq	__unnamed_1(%rip), %rdx
	callq	_ZN4core6option15Option$LT$T$GT$9unwrap_or17h4dd7d977f34e76feE
	movzbl	(%rax), %eax
	movl	$64, %ecx
	mulq	%rcx
	movq	%rax, 56(%rsp)
	seto	%al
	testb	$1, %al
	jne	.LBB6_4
	jmp	.LBB6_3
.LBB6_2:
	movl	64(%rsp), %eax
	movq	%rax, 48(%rsp)
	cmpq	$128, %rax
	setb	%al
	testb	$1, %al
	jne	.LBB6_8
	jmp	.LBB6_9
.LBB6_3:
	movq	56(%rsp), %rax
	shrq	%rax
	movl	64(%rsp), %ecx
	shrq	$3, %rcx
	andq	$63, %rcx
	addq	%rcx, %rax
	movq	%rax, 40(%rsp)
	setb	%al
	testb	$1, %al
	jne	.LBB6_6
	jmp	.LBB6_5
.LBB6_4:
	leaq	str.0(%rip), %rcx
	leaq	__unnamed_2(%rip), %r8
	movl	$33, %edx
	callq	_ZN4core9panicking5panic17hb11f2d409f96600eE
.LBB6_5:
	movq	40(%rsp), %r8
	leaq	_ZN13unicode_ident6tables4LEAF17hf6acc5fc1bcda6eaE(%rip), %rcx
	movl	$7584, %edx
	callq	_ZN4core5slice29_$LT$impl$u20$$u5b$T$u5d$$GT$13get_unchecked17h540f5b5b7945f70cE
	movb	(%rax), %al
	movl	64(%rsp), %ecx
	andl	$7, %ecx
	andl	$7, %ecx
	shrb	%cl, %al
	andb	$1, %al
	cmpb	$0, %al
	setne	%al
	andb	$1, %al
	movb	%al, 71(%rsp)
	jmp	.LBB6_7
.LBB6_6:
	leaq	str.1(%rip), %rcx
	leaq	__unnamed_2(%rip), %r8
	movl	$28, %edx
	callq	_ZN4core9panicking5panic17hb11f2d409f96600eE
.LBB6_7:
	movb	71(%rsp), %al
	andb	$1, %al
	movzbl	%al, %eax
	addq	$72, %rsp
	retq
.LBB6_8:
	movq	48(%rsp), %rcx
	leaq	_ZN13unicode_ident6tables11ASCII_START17h2df0e53469fc5534E(%rip), %rax
	movb	(%rax,%rcx), %al
	andb	$1, %al
	movb	%al, 71(%rsp)
	jmp	.LBB6_7
.LBB6_9:
	movq	48(%rsp), %rcx
	leaq	__unnamed_3(%rip), %r8
	movl	$128, %edx
	callq	_ZN4core9panicking18panic_bounds_check17hda6b295b4a93eea5E
	int3
	.seh_endproc

	.def	_ZN13unicode_ident15is_xid_continue17h624c5e11de5f0753E;
	.scl	2;
	.type	32;
	.endef
	.section	.text,"xr",one_only,_ZN13unicode_ident15is_xid_continue17h624c5e11de5f0753E
	.globl	_ZN13unicode_ident15is_xid_continue17h624c5e11de5f0753E
	.p2align	4, 0x90
_ZN13unicode_ident15is_xid_continue17h624c5e11de5f0753E:
.seh_proc _ZN13unicode_ident15is_xid_continue17h624c5e11de5f0753E
	subq	$72, %rsp
	.seh_stackalloc 72
	.seh_endprologue
	movl	%ecx, 64(%rsp)
	leaq	64(%rsp), %rcx
	callq	_ZN4core4char7methods22_$LT$impl$u20$char$GT$8is_ascii17h9c08efb83d72755eE
	testb	$1, %al
	jne	.LBB7_2
	movl	64(%rsp), %eax
	movl	%eax, %r8d
	shrq	$3, %r8
	shrq	$6, %r8
	leaq	_ZN13unicode_ident6tables13TRIE_CONTINUE17hd03c4ac68658080aE(%rip), %rcx
	movl	$1793, %edx
	callq	_ZN4core5slice29_$LT$impl$u20$$u5b$T$u5d$$GT$3get17h9bc3c0f3ea8c1115E
	movq	%rax, %rcx
	leaq	__unnamed_1(%rip), %rdx
	callq	_ZN4core6option15Option$LT$T$GT$9unwrap_or17h4dd7d977f34e76feE
	movzbl	(%rax), %eax
	movl	$64, %ecx
	mulq	%rcx
	movq	%rax, 56(%rsp)
	seto	%al
	testb	$1, %al
	jne	.LBB7_4
	jmp	.LBB7_3
.LBB7_2:
	movl	64(%rsp), %eax
	movq	%rax, 48(%rsp)
	cmpq	$128, %rax
	setb	%al
	testb	$1, %al
	jne	.LBB7_8
	jmp	.LBB7_9
.LBB7_3:
	movq	56(%rsp), %rax
	shrq	%rax
	movl	64(%rsp), %ecx
	shrq	$3, %rcx
	andq	$63, %rcx
	addq	%rcx, %rax
	movq	%rax, 40(%rsp)
	setb	%al
	testb	$1, %al
	jne	.LBB7_6
	jmp	.LBB7_5
.LBB7_4:
	leaq	str.0(%rip), %rcx
	leaq	__unnamed_4(%rip), %r8
	movl	$33, %edx
	callq	_ZN4core9panicking5panic17hb11f2d409f96600eE
.LBB7_5:
	movq	40(%rsp), %r8
	leaq	_ZN13unicode_ident6tables4LEAF17hf6acc5fc1bcda6eaE(%rip), %rcx
	movl	$7584, %edx
	callq	_ZN4core5slice29_$LT$impl$u20$$u5b$T$u5d$$GT$13get_unchecked17h540f5b5b7945f70cE
	movb	(%rax), %al
	movl	64(%rsp), %ecx
	andl	$7, %ecx
	andl	$7, %ecx
	shrb	%cl, %al
	andb	$1, %al
	cmpb	$0, %al
	setne	%al
	andb	$1, %al
	movb	%al, 71(%rsp)
	jmp	.LBB7_7
.LBB7_6:
	leaq	str.1(%rip), %rcx
	leaq	__unnamed_4(%rip), %r8
	movl	$28, %edx
	callq	_ZN4core9panicking5panic17hb11f2d409f96600eE
.LBB7_7:
	movb	71(%rsp), %al
	andb	$1, %al
	movzbl	%al, %eax
	addq	$72, %rsp
	retq
.LBB7_8:
	movq	48(%rsp), %rcx
	leaq	_ZN13unicode_ident6tables14ASCII_CONTINUE17hc6c61b999a7c8e76E(%rip), %rax
	movb	(%rax,%rcx), %al
	andb	$1, %al
	movb	%al, 71(%rsp)
	jmp	.LBB7_7
.LBB7_9:
	movq	48(%rsp), %rcx
	leaq	__unnamed_5(%rip), %r8
	movl	$128, %edx
	callq	_ZN4core9panicking18panic_bounds_check17hda6b295b4a93eea5E
	int3
	.seh_endproc

	.section	.rdata,"dr",one_only,__unnamed_1
__unnamed_1:
	.zero	1

	.section	.rdata,"dr",one_only,__unnamed_6
__unnamed_6:
	.ascii	"C:\\Users\\cires\\.cargo\\registry\\src\\index.crates.io-6f17d22bba15001f\\unicode-ident-1.0.12\\src\\lib.rs"

	.section	.rdata,"dr",one_only,__unnamed_2
	.p2align	3, 0x0
__unnamed_2:
	.quad	__unnamed_6
	.asciz	"c\000\000\000\000\000\000\000\002\001\000\000\022\000\000"

	.section	.rdata,"dr",one_only,str.0
	.p2align	4, 0x0
str.0:
	.ascii	"attempt to multiply with overflow"

	.section	.rdata,"dr",one_only,str.1
	.p2align	4, 0x0
str.1:
	.ascii	"attempt to add with overflow"

	.section	.rdata,"dr",one_only,__unnamed_3
	.p2align	3, 0x0
__unnamed_3:
	.quad	__unnamed_6
	.asciz	"c\000\000\000\000\000\000\000\377\000\000\000\020\000\000"

	.section	.rdata,"dr",one_only,__unnamed_4
	.p2align	3, 0x0
__unnamed_4:
	.quad	__unnamed_6
	.asciz	"c\000\000\000\000\000\000\000\013\001\000\000\022\000\000"

	.section	.rdata,"dr",one_only,__unnamed_5
	.p2align	3, 0x0
__unnamed_5:
	.quad	__unnamed_6
	.asciz	"c\000\000\000\000\000\000\000\b\001\000\000\020\000\000"

	.section	.rdata,"dr",one_only,_ZN13unicode_ident6tables11ASCII_START17h2df0e53469fc5534E
	.p2align	6, 0x0
_ZN13unicode_ident6tables11ASCII_START17h2df0e53469fc5534E:
	.asciz	"\000\000\000\000\000\000\000\000\000\000\000\000\000\000\000\000\000\000\000\000\000\000\000\000\000\000\000\000\000\000\000\000\000\000\000\000\000\000\000\000\000\000\000\000\000\000\000\000\000\000\000\000\000\000\000\000\000\000\000\000\000\000\000\000\000\001\001\001\001\001\001\001\001\001\001\001\001\001\001\001\001\001\001\001\001\001\001\001\001\001\001\000\000\000\000\000\000\001\001\001\001\001\001\001\001\001\001\001\001\001\001\001\001\001\001\001\001\001\001\001\001\001\001\000\000\000\000"

	.section	.rdata,"dr",one_only,_ZN13unicode_ident6tables14ASCII_CONTINUE17hc6c61b999a7c8e76E
	.p2align	6, 0x0
_ZN13unicode_ident6tables14ASCII_CONTINUE17hc6c61b999a7c8e76E:
	.asciz	"\000\000\000\000\000\000\000\000\000\000\000\000\000\000\000\000\000\000\000\000\000\000\000\000\000\000\000\000\000\000\000\000\000\000\000\000\000\000\000\000\000\000\000\000\000\000\000\000\001\001\001\001\001\001\001\001\001\001\000\000\000\000\000\000\000\001\001\001\001\001\001\001\001\001\001\001\001\001\001\001\001\001\001\001\001\001\001\001\001\001\001\000\000\000\000\001\000\001\001\001\001\001\001\001\001\001\001\001\001\001\001\001\001\001\001\001\001\001\001\001\001\001\001\000\000\000\000"

	.section	.rdata,"dr",one_only,_ZN13unicode_ident6tables10TRIE_START17h763b77bb7abe29b0E
	.p2align	3, 0x0
_ZN13unicode_ident6tables10TRIE_START17h763b77bb7abe29b0E:
	.ascii	"\004\013\017\023\027\033\037#'-148<@\002E\000\000\000\000\000I\000M\000\005\005\005\005\005\005\005\005\005\005\005\005\006\005\005\005\005\005\005\005\005\005\005\005\005\005\005\005\005\005\005\005\005\005\005\005\005\005\005\005\005\005\005\005\005\005\005\005\005\005\005\005\005\005\005\005QTX\\\005\005\005\005\005\005\005\005\005\005\005\005\005\005\005\005\005\005\005\005\005\t\000\000\000\000\000\000\000\000\000\000\000\000\000\000\000\000\001`dfjnr(vx|\200\204\210\214\220\224\230\236\242\005+\246\000\000\000\000\231\005\005\250\000\000\000\000\000\000\000\005\256\000\000\000\000\000\000\000\000\000\000\000\000\000\000\000\000\005\261\000\265\005\005\005\005\005\005\005\005\005\005\0052\005\005\271\000\000\000\000\000\000\000\000\000\000\000\000\000\000\000\000\234C\273\000\000\000\000\276\000\000\000\000\000\000\000\000\000\000\000\306\310\000\000\000\257\316\322\326\274\332\000\000\336\000\000\000\000\000\000\000\000\005\005\005\005\005\005\005\005\005\005\005\005\005\005\005\005\005\005\005\005\005\005\005\005\005\005\005\005\005\005\005\005\005\005\005\005\005\005\005\005\005\005\005\005\005\005\005\005\005\005\005\005\005\005\005\005\005\005\005\005\005\005\005\005\005\005\005\005\005\005\005\005\005\005\005\005\005\005\005\005\005\005\005\340\005\005\005\005\005\005\005R\343\005\005\005\005\005\005\005\005\005\005\346\005\005\005\005\005\005\005\005\005\005\005\005\005\341\005\351\000\000\000\000\005\353\000\000\005\005\005\005\005\005\005\005\005\344\005\005\005\005\005\005\005\347"
	.zero	6

	.section	.rdata,"dr",one_only,_ZN13unicode_ident6tables13TRIE_CONTINUE17hd03c4ac68658080aE
	.p2align	3, 0x0
_ZN13unicode_ident6tables13TRIE_CONTINUE17hd03c4ac68658080aE:
	.ascii	"\b\r\021\025\031\035!%*/16:>B\002G\000\000\000\000\000K\000O\000\005\005\005\005\005\005\005\005\005\005\005\005\006\005\005\005\005\005\005\005\005\005\005\005\005\005\005\005\005\005\005\005\005\005\005\005\005\005\005\005\005\005\005\005\005\005\005\005\005\005\005\005\005\005\005\005QVZ^\005\005\005\005\005\005\005\005\005\005\005\005\005\005\005\005\005\005\005\005\005\t\000\000\000\000\000\000\000\000\000\000\000\000\000\000\000\000\001bdhlpt(vz~\202\206\212\216\222\226\233\240\244\005+\246\000\000\000\000\231\005\005\253\000\000\000\000\000\000\000\005\256\000\000\000\000\000\000\000\000\000\000\000\000\000\000\000\000\005\263\000\267\005\005\005\005\005\005\005\005\005\005\0052\005\005\271\000\000\000\000\000\000\000\000\000\000\000\000\000\000\000\000\234C\273\000\000\000\000\301\000\000\000\000\000\000\000\000\251\254\304\306\312\000\314\000\257\320\324\330\274\334\000\000\336\000\000\000\000\000\277\000\000\005\005\005\005\005\005\005\005\005\005\005\005\005\005\005\005\005\005\005\005\005\005\005\005\005\005\005\005\005\005\005\005\005\005\005\005\005\005\005\005\005\005\005\005\005\005\005\005\005\005\005\005\005\005\005\005\005\005\005\005\005\005\005\005\005\005\005\005\005\005\005\005\005\005\005\005\005\005\005\005\005\005\005\340\005\005\005\005\005\005\005R\343\005\005\005\005\005\005\005\005\005\005\346\005\005\005\005\005\005\005\005\005\005\005\005\005\341\005\351\000\000\000\000\005\353\000\000\005\005\005\005\005\005\005\005\005\344\005\005\005\005\005\005\005\347\000\000\000\000\000\000\000\000\000\000\000\000\000\000\000\000\000\000\000\000\000\000\000\000\000\000\000\000\000\000\000\000\000\000\000\000\000\000\000\000\000\000\000\000\000\000\000\000\000\000\000\000\000\000\000\000\000\000\000\000\000\000\000\000\000\000\000\000\000\000\000\000\000\000\000\000\000\000\000\000\000\000\000\000\000\000\000\000\000\000\000\000\000\000\000\000\000\000\000\000\000\000\000\000\000\000\000\000\000\000\000\000\000\000\000\000\000\000\000\000\000\000\000\000\000\000\000\000\000\000\000\000\000\000\000\000\000\000\000\000\000\000\000\000\000\000\000\000\000\000\000\000\000\000\000\000\000\000\000\000\000\000\000\000\000\000\000\000\000\000\000\000\000\000\000\000\000\000\000\000\000\000\000\000\000\000\000\000\000\000\000\000\000\000\000\000\000\000\000\000\000\000\000\000\000\000\000\000\000\000\000\000\000\000\000\000\000\000\000\000\000\000\000\000\000\000\000\000\000\000\000\000\000\000\000\000\000\000\000\000\000\000\000\000\000\000\000\000\000\000\000\000\000\000\000\000\000\000\000\000\000\000\000\000\000\000\000\000\000\000\000\000\000\000\000\000\000\000\000\000\000\000\000\000\000\000\000\000\000\000\000\000\000\000\000\000\000\000\000\000\000\000\000\000\000\000\000\000\000\000\000\000\000\000\000\000\000\000\000\000\000\000\000\000\000\000\000\000\000\000\000\000\000\000\000\000\000\000\000\000\000\000\000\000\000\000\000\000\000\000\000\000\000\000\000\000\000\000\000\000\000\000\000\000\000\000\000\000\000\000\000\000\000\000\000\000\000\000\000\000\000\000\000\000\000\000\000\000\000\000\000\000\000\000\000\000\000\000\000\000\000\000\000\000\000\000\000\000\000\000\000\000\000\000\000\000\000\000\000\000\000\000\000\000\000\000\000\000\000\000\000\000\000\000\000\000\000\000\000\000\000\000\000\000\000\000\000\000\000\000\000\000\000\000\000\000\000\000\000\000\000\000\000\000\000\000\000\000\000\000\000\000\000\000\000\000\000\000\000\000\000\000\000\000\000\000\000\000\000\000\000\000\000\000\000\000\000\000\000\000\000\000\000\000\000\000\000\000\000\000\000\000\000\000\000\000\000\000\000\000\000\000\000\000\000\000\000\000\000\000\000\000\000\000\000\000\000\000\000\000\000\000\000\000\000\000\000\000\000\000\000\000\000\000\000\000\000\000\000\000\000\000\000\000\000\000\000\000\000\000\000\000\000\000\000\000\000\000\000\000\000\000\000\000\000\000\000\000\000\000\000\000\000\000\000\000\000\000\000\000\000\000\000\000\000\000\000\000\000\000\000\000\000\000\000\000\000\000\000\000\000\000\000\000\000\000\000\000\000\000\000\000\000\000\000\000\000\000\000\000\000\000\000\000\000\000\000\000\000\000\000\000\000\000\000\000\000\000\000\000\000\000\000\000\000\000\000\000\000\000\000\000\000\000\000\000\000\000\000\000\000\000\000\000\000\000\000\000\000\000\000\000\000\000\000\000\000\000\000\000\000\000\000\000\000\000\000\000\000\000\000\000\000\000\000\000\000\000\000\000\000\000\000\000\000\000\000\000\000\000\000\000\000\000\000\000\000\000\000\000\000\000\000\000\000\000\000\000\000\000\000\000\000\000\000\000\000\000\000\000\000\000\000\000\000\000\000\000\000\000\000\000\000\000\000\000\000\000\000\000\000\000\000\000\000\000\000\000\000\000\000\000\000\000\000\000\000\000\000\000\000\000\000\000\000\000\000\000\000\000\000\000\000\000\000\000\000\000\000\000\000\000\000\000\000\000\000\000\000\000\000\000\000\000\000\000\000\000\000\000\000\000\000\000\000\000\000\000\000\000\000\000\000\000\000\000\000\000\000\000\000\000\000\000\000\000\000\000\000\000\000\000\000\000\000\000\000\000\000\000\000\000\000\000\000\000\000\000\000\000\000\000\000\000\000\000\000\000\000\000\000\000\000\000\000\000\000\000\000\000\000\000\000\000\000\000\000\000\000\000\000\000\000\000\000\000\000\000\000\000\000\000\000\000\000\000\000\000\000\000\000\000\000\000\000\000\000\000\000\000\000\000\000\000\000\000\000\000\000\000\000\000\000\000\000\000\000\000\000\000\000\000\000\000\000\000\000\000\000\000\000\000\000\000\000\000\000\000\000\000\000\000\000\000\000\000\000\000\000\000\000\000\000\000\000\000\000\000\000\000\000\000\000\000\000\000\000\000\000\000\000\000\000\000\000\000\000\000\000\000\000\000\000\000\000\000\000\000\000\000\000\000\000\000\000\000\000\000\000\000\000\000\000\000\000\000\000\000\000\000\000\000\000\000\000\000\000\000\000\000\000\000\000\000\000\000\000\000\000\000\000\000\000\000\000\000\000\000\000\000\000\000\000\000\000\000\000\000\000\000\000\000\000\000\000\000\000\000\000\000\000\000\000\000\000\000\000\000\000\000\000\000\000\000\000\000\000\000\000\000\000\000\000\000\000\000\000\000\000\000\000\000\000\000\000\000\000\000\000\000\000\000\000\000\000\000\000\000\000\000\000\000\000\000\000\000\000\000\000\000\000\000\000\000\000\000\000\000\000\000\000\000\000\000\000\000\000\000\000\000\000\000\000\000\000\000\000\000\000\000\000\000\000\000\000\000\000\000\000\000\000\000\000\000\000\000\000\000\000\000\000\000\000\000\000\000\000\000\000\000\000\000\000\000\000\000\000\000\000\000\000\000\000\000\000\000\000\000\000\000\000\000\000\000\000\000\000\000\000\000\000\000\000\000\000\000\000\000\000\000\000\000\000\000\000\000\000\000\000\000\000\000\000\000\000\000\000\000\000\000\000\000\000\000\000\000\000\000\000\000\000\000\000\000\000\000\000\000\000\000\000\000\000\000\000\000\000\000\000\000\000\000\000\000\000\000\000\000\000\000\000\000\000\000\000\000\000\000\000\000\000\000\000\000\000\000\000\000\000\000\000\000\000\000\000\000\000\000\000\000\000\000\000\000\000\000\000\000\000\000\000\000\000\000\000\000\000\000\000\000\000\000\000\000\000\000\000\000\000\000\302"
	.zero	7

	.section	.rdata,"dr",one_only,_ZN13unicode_ident6tables4LEAF17hf6acc5fc1bcda6eaE
	.p2align	6, 0x0
_ZN13unicode_ident6tables4LEAF17hf6acc5fc1bcda6eaE:
	.asciz	"\000\000\000\000\000\000\000\000\000\000\000\000\000\000\000\000\000\000\000\000\000\000\000\000\000\000\000\000\000\000\000\000\000\000\000\000\000\000\000\000\000\000\000\000\000\000\000\000\000\000\000\000\000\000\000\000\000\000\000\000\000\000\000\000\377\377\377\377\377\377\377\377\377\377\377\377\377\377\377\377\377\377\377\377\377\377\377\377\377\377\377\377\377\377\377\377\377\377??\377\377\377\377??\377\252\377\377\377?\377\377\377\377\377\377\337_\334\037\317\017\377\037\334\037\000\000\000\000\000\000\000\000\000\000\000\000\000\000\000\000\000\000\000\000\000\004 \004\377\377\177\377\377\377\177\377\377\377\377\377\377\377\377\377\377\377\377\377\377\377\377\377\377\377\377\377\377\377\377\377\377\377\377\377\377\377\377\377\377\377\377\377\377\377\377\377\377\377\377\377\377\377\377\377\377\377\377\377\377\377\377\377\377\377\377\377\377\377\377\377\377\377\377\377\377\377\377\377\377\377\377\377\377\377\377\377\377\377\377\377\377\377\377\377\000\000\000\000\000\000\000\000\000\000\000\000\000\000\000\000\000\000\000\000\000\000\000\000\000\000\000\000\000\004\240\004\377\377\177\377\377\377\177\377\377\377\377\377\377\377\377\377\377\377\377\377\377\377\377\377\377\377\377\377\377\377\377\377\377\377\377\377\377\377\377\377\377\377\377\377\377\377\377\377\377\377\377\377\377\377\377\377\377\377\377\377\017\000\377\377\177\370\377\377\377\377\377\017\377\377\377\377\377\377\377\377\377\377\377\377\377\377\377\377\377\377\377\377\377\377\377\377\303\377\003\000\037P\000\000\000\000\000\000\000\000\000\000\000\000\000\000\000\000\337\270@\327\377\377\373\377\377\377\377\377\377\377\377\377\277\377\377\377\377\377\377\377\377\377\377\377\377\377\377\377\377\377\377\377\377\377\377\377\377\377\303\377\003\000\037P\000\000\377\377\377\377\377\377\377\377\377\377\377\377\377\377\337\270\300\327\377\377\373\377\377\377\377\377\377\377\377\377\277\377\377\377\377\377\377\377\377\377\377\377\377\377\377\377\377\377\003\374\377\377\377\377\377\377\377\377\377\377\377\377\377\377\377\377\377\377\377\377\376\377\377\377\177\002\377\377\377\377\377\001\000\000\000\000\000\000\000\000\377\377\377\207\007\000\377\377\377\377\377\377\377\377\377\377\377\377\377\377\377\377\373\374\377\377\377\377\377\377\377\377\377\377\377\377\377\377\377\377\377\377\377\377\376\377\377\377\177\002\377\377\377\377\377\001\376\377\377\377\377\277\266\000\377\377\377\207\007\000\000\000\000\000\377\377\377\377\377\007\000\000\000\300\376\377\377\377\377\377\377\377\377\377\377\377/\000`\300\000\234\000\000\375\377\377\377\000\000\000\340\377\377\377\377\377\377\377\377\377\377?\000\002\000\000\374\377\377\377\0070\004\000\000\377\007\377\377\377\377\377\377\377\377\377\303\377\377\377\377\377\377\377\377\377\377\377\377\357\237\377\375\377\237\000\000\377\377\377\377\377\377\377\347\377\377\377\377\377\377\377\377\377\377\377\377\003\000\377\377\377\377\377\377?$\377\377?\004\020\001\000\000\377\377\377\001\377\007\377\377\377~\000\000\377\377\377\377\377\003\000\000\000\000\000\000\360\377\377\377\377\377\377#\000\000\001\377\003\000\376\377\341\237\371\377\377\375\305#\000@\000\260\003\000\003\020\377\377\377\377\377?\000\000\377\377\377\017\377\007\377\377\377~\000\377\377\377\377\377\377\377\377\377\373\377\377\377\377\377\377\377\377\377\377\377\377\377\377\377\317\377\376\377\357\237\371\377\377\375\305\363\237y\200\260\317\377\003P\340\207\371\377\377\375m\003\000\000\000^\000\000\034\000\340\277\373\377\377\375\355#\000\000\001\000\003\000\000\002\340\237\371\377\377\375\355#\000\000\000\260\003\000\002\000\350\307=\326\030\307\377\003\000\000\001\000\000\000\000\000\356\207\371\377\377\375m\323\2079\002^\300\377?\000\356\277\373\377\377\375\355\363\277;\001\000\317\377\000\376\356\237\371\377\377\375\355\363\2379\340\260\317\377\002\000\354\307=\326\030\307\377\303\307=\201\000\300\377\000\000\340\337\375\377\377\375\377#\000\000\000'\003\000\000\000\341\337\375\377\377\375\357#\000\000\000`\003\000\006\000\360\337\375\377\377\377\377'\000@p\200\003\000\000\374\340\377\177\374\377\377\373/\177\000\000\000\000\000\000\000\377\337\375\377\377\375\377\363\337=`'\317\377\000\000\357\337\375\377\377\375\357\363\337=``\317\377\016\000\377\337\375\377\377\377\377\377\337}\360\200\317\377\000\374\356\377\177\374\377\377\373/\177\204_\377\300\377\f\000\376\377\377\377\377\377\005\000\177\000\000\000\000\000\000\000\326\367\377\377\257\377\005 _\000\000\360\000\000\000\000\001\000\000\000\000\000\000\000\377\376\377\377\377\037\000\000\000\037\000\000\000\000\000\000\000\000\000\000\000\000\000\000\376\377\377\377\377\377\377\007\377\177\377\003\000\000\000\000\326\367\377\377\257\377\377?_\177\377\363\000\000\000\000\001\000\000\003\377\003\240\302\377\376\377\377\377\037\376\377\337\377\377\376\377\377\377\037@\000\000\000\000\000\000\000\377\377\377\377\377\007\000\200\000\000?<b\300\341\377\003@\000\000\377\377\377\377\277 \377\377\377\377\377\367\377\377\377\377\377\377\377\377\377\377\377\377\377\377\377\377\377\377\377\377\377\377\377\377\377\377\377\377\377\377\377\377\377\377\377\377\377\377\177\000\377\377?\000\377\000\000\000\277\377\377\377\377\377\375\007\000\000\000\000\000\000\000\000\377\377\377\377\377\377\377\377\377\003\377\377\377\377\377\377\377\377\377?\377\377\377\377\277 \377\377\377\377\377\367\377\377\377\377\377\377\377\377\377\377\377\377\377\377\377\377\377\377\377\377\377\377\377\377\377\377\377\377\377\377\377\377\377\377\377\377\377\377\377\377\377\377\377\377\377\377\377\377\377\377\377\003\000\000\000\000\000\000\000\000\000\000\000\000\377\377\377\377\377\377\377\377\377=\177=\377\377\377\377\377=\377\377\377\377=\177=\377\177\377\377\377\377\377\377\377=\377\377\377\377\377\377\377\377\007\000\000\000\000\377\377\000\000\377\377\377\377\377\377\377\377\377\377??\377\377\377\377\377\377\377\377\377=\177=\377\377\377\377\377=\377\377\377\377=\177=\377\177\377\377\377\377\377\377\377=\377\377\377\377\377\377\377\377\347\000\376\003\000\377\377\000\000\377\377\377\377\377\377\377\377\377\377??\376\377\377\377\377\377\377\377\377\377\377\377\377\377\377\377\377\377\377\377\377\377\377\377\377\377\377\377\377\377\377\377\377\377\377\377\377\377\377\377\377\377\377\377\377\377\377\377\377\377\377\377\377\377\377\377\377\377\377\377\377\377\377\377\377\377\377\377\377\377\377\377\377\377\377\377\377\377\377\377\377\377\377\377\377\377\377\377\377\377\377\377\377\377\377\000\377\377\377\377\377\377\377\377\377\377\377\377\377\237\377\377\376\377\377\007\377\377\377\377\377\377\377\377\377\307\377\001\377\377\003\200\377\377\003\000\377\377\003\000\377\337\001\000\377\377\377\377\377\377\017\000\000\000\200\020\000\000\000\000\377\377\377\377\377\377\377\377\377\377\377\377\377\237\377\377\376\377\377\007\377\377\377\377\377\377\377\377\377\307\377\001\377\377?\200\377\377\037\000\377\377\017\000\377\337\r\000\377\377\377\377\377\377\377\377\377\377\2170\377\003\000\000\000\000\000\000\377\377\377\377\377\377\377\377\377\377\377\001\377\377\377\377\377\005\377\377\377\377\377\377\377\377?\000\377\377\377\177\000\000\000\000\000\000\377\377\377?\037\000\377\377\377\377\377\017\377\377\377\003\000\000\000\000\000\000\000\270\377\003\377\377\377\377\377\377\377\377\377\377\377\001\377\377\377\377\377\007\377\377\377\377\377\377\377\377?\000\377\377\377\177\377\017\377\017\300\377\377\377\377?\037\000\377\377\377\377\377\017\377\377\377\003\377\007\000\000\000\000\377\377\177\000\377\377\377\377\377\377\037\000\000\000\000\000\000\000\000\000\200\000\000\000\000\000\000\000\000\000\000\000\340\377\377\377\377\377\017\000\340\037\000\000\000\000\000\000\370\377\377\377\001\300\000\374\377\377\377\377?\000\000\000\377\377\377\017\377\377\377\377\377\377\377\177\377\377\377\237\377\003\377\003\200\000\377\277\377\177\000\000\000\000\000\000\377\377\377\377\377\377\377\377\377\037\377\003\000\370\017\000\377\377\377\377\377\377\377\377\377\377\377\377\377\377\017\000\377\377\377\377\017\000\000\000\000\340\000\374\377\377\377?\377\001\377\377\377\377\377\347\000\000\000\000\000\336o\004\377\377\377\377\377\377\377\377\377\377\377\377\377\377\377\377\377\377\377\377\377\377\377\377\000\000\000\000\000\000\000\000\377\377\377\377\377\377\377\000\377\343\377\377\377\377\377?\377\001\377\377\377\377\377\347\000\000\367\377\377\377\377\007\377\377\377\377\377\377\377\377\377\377\377\377\377\377\377\377\377\377\377\377\377\377\377\377\377\377\377\377\377\377\377\377\377\377\377\377\007\000\004\000\000\000'\000\360\000\377\377\377\377\377\377\377\377\377\377\377\377\377\377\377\377\377\377\000\000\000\000\000\000\000\000\000\000\000\000\000\000\002\200\000\000\377\037\000\000\000\000\000\000\000\000\000\000\000\000\204\374/?P\375\377\363\340C\000\000\377\377\377\377\377\001\000\000\000\000\000\000\000\000\000\000\000\000\000\000\0000\000\000\000\000\000\200\001\000\020\000\000\000\002\200\000\000\377\037\000\000\000\000\000\000\377\037\342\377\001\000\204\374/?P\375\377\363\340C\000\000\377\377\377\377\377\001\000\000\000\000\000\000\000\000\000\000\000\000\000\000\377\377\377\377\377\377\377\377\377\377\377\377\377\377\377\377\377\377\377\377\377\377\377\377\377\377\377\377\037x\f\000\377\377\377\377\277 \377\377\377\377\377\377\377\200\000\000\377\377\177\000\177\177\177\177\177\177\177\177\000\000\000\000\377\377\377\377\377\377\377\377\377\377\377\377\377\377\377\377\377\377\377\377\377\377\377\377\377\377\377\377\037\370\017\000\377\377\377\377\277 \377\377\377\377\377\377\377\200\000\200\377\377\177\000\177\177\177\177\177\177\177\177\377\377\377\377\340\000\000\000\376\003>\037\376\377\377\377\377\377\377\377\377\377\177\340\376\377\377\377\377\377\377\377\377\377\377\367\340\377\377\377\377\377\376\377\377\377\377\377\377\377\377\377\377\177\000\000\377\377\377\377\000\000\000\000\000\000\377\377\340\000\000\000\376\377>\037\376\377\377\377\377\377\377\377\377\377\177\346\376\377\377\377\377\377\377\377\377\377\377\377\340\377\377\377\377\377\376\377\377\377\377\377\377\377\377\377\377\177\000\000\377\377\377\377\000\000\000\000\000\000\377\377\377\377\377\377\377\377\377\377\377\377\377\377\377\377\377\377\377\037\000\000\000\000\000\000\000\000\377\377\377\377\377?\377\377\377\377\377\377\377\377\377\377\377\377\377\377\377\377\377\377\377\377\377\377\377\377\377\377\377\377\377\377\377\377\377\377\377\377\377\377\377\003\377\377\377\377\377\377\377\377\377\377\377\377\377\377\377\377\377\377\377\377\377\377\377\377\377\037\377\377\000\f\000\000\377\377\377\377\377\177\000\200\377\377\377?\377\377\377\377\377\377\377\377\377\377\000\000\000\000\200\377\374\377\377\377\377\377\377\377\377\377\377\377\377\371\377\377\377\377\377\377\377\007\353\003\000\000\374\377\377\037\377\377\377\017\000\000\377\377\377\377\377\377\360\277\377\377\377\377\377\377\377\377\377\377\377\377\377\377\003\000\000\000\200\377\374\377\377\377\377\377\377\377\377\377\377\377\377\371\377\377\377\377\377\377\377\007\353\003\000\000\374\377\273\367\377\377\007\000\000\000\377\377\377\377\377\377\017\000\374\377\377\377\377\377\017\000\000\000\000\000\000\000\374h\000\374\377\377?\000\377\377\177\000\000\000\377\377\377\037\360\377\377\377\377\377\007\000\000\200\000\000\337\377\000|\377\377\377\377\377\020\000\000\377\377\377\377\377\377\017\000\377\377\377\377\377\377\377\377?\000\377\003\377\377\377\350\377\377\377\377\377?\377\377\377\377\017\000\377\377\377\037\377\377\377\377\377\377\377\377\001\200\377\003\377\377\377\177\377\377\377\377\377\001\000\000\367\017\000\000\377\377\177\304\377\377\377\377\377\377b>\005\000\0008\377\007\034\000~~~\000\177\177\377\377\377\377\377\367\377\003\377\377\377\377\377\377\377\377\377\377\377\377\377\377\007\000\000\000\377\377\377\377\377\377\177\000\377?\377\003\377\377\177\374\377\377\377\377\377\377\377\377\007\000\0008\377\377|\000~~~\000\177\177\377\377\377\377\377\367\377\003\377\377\377\377\377\377\377\377\377\377\377\377\377\377\3777\377\003\377\377\377\377\377\377\377\377\377\377\377\377\377?\377\377\377\377\377\377\377\377\377\377\377\377\377\003\000\000\000\000\177\000\370\240\377\375\177_\333\377\377\377\377\377\377\377\377\377\377\377\377\377\003\000\000\000\370\377\377\377\377\377\377\377\377\377\377\377\377\377\377\377\377\377\377?\377\377\377\377\377\377\377\377\377\377\377\377\377\003\000\000\000\000\177\000\370\340\377\375\177_\333\377\377\377\377\377\377\377\377\377\377\377\377\377\003\000\000\000\370\377\377\377\377\377\377\377\377\377\377\377\377\377\377\377\377?\360\377\377\377\377\377\377\377\377\377\377\377\377\377\377\377\377\377\377\377\377\377\377\377\377\377\377?\000\000\377\377\377\377\377\377\377\377\374\377\377\377\377\377\377\000\000\000\000\000\377\003\000\000\000\000\000\000\000\000\000\000\000\000\000\000\212\252\377\377\377\377\377\377\377\377\377\377\377\377\377\377\377\037\000\000\000\000\376\377\377\007\376\377\377\007\300\377\377\377\377\377\377?\377\377\377\177\374\374\374\034\000\000\000\000\377\377\000\000\377\377\030\000\000\340\000\000\000\000\212\252\377\377\377\377\377\377\377\377\377\377\377\377\377\377\377\037\000\000\377\003\376\377\377\207\376\377\377\007\340\377\377\377\377\377\377\377\377\377\377\177\374\374\374\034\000\000\000\000\377\357\377\377\177\377\377\267\377?\377?\000\000\000\000\377\377\377\377\377\377\377\377\377\377\377\377\377\377\377\007\000\000\000\000\000\000\000\000\377\377\377\377\377\377\037\000\000\000\000\000\000\000\000\000\000\000\000\000\000\000\000\000\377\357\377\377\177\377\377\267\377?\377?\000\000\000\000\377\377\377\377\377\377\377\377\377\377\377\377\377\377\377\007\000\000\000\000\000\000\000\000\377\377\377\377\377\377\037\000\000\000\000\000\000\000\000\000\000\000\000\000\000\000\000 \000\000\000\000\000\000\000\000\000\000\000\000\000\000\000\000\377\377\377\037\377\377\377\377\377\377\001\000\000\000\000\000\377\377\377\377\000\340\377\377\377\007\377\377\377\377?\000\377\377\377?\377\377\377\377\017\377>\000\000\000\000\000\000\000\000\000\000\000\000\000\000\000\000\000\000\000\000\000\377\377\377\037\377\377\377\377\377\377\001\000\001\000\000\000\377\377\377\377\000\340\377\377\377\007\377\377\377\377\377\007\377\377\377?\377\377\377\377\017\377>\000\000\000\000\000\377\377\377\377\377\377\377\377\377\377\377\377\377\377\377\377\377\377\377?\000\000\377\377\377\377\017\377\377\377\377\017\377\377\377\377\377\000\377\377\377\377\377\377\017\000\377\367\377\367\267\377\373\377\373\033\000\000\000\000\000\000\000\000\377\377\377\377\377\377\377\377\377\377\377\377\377\377\377\377\377\377\377?\377\003\377\377\377\377\017\377\377\377\377\017\377\377\377\377\377\000\377\377\377\377\377\377\017\000\377\367\377\367\267\377\373\377\373\033\000\000\000\000\000\000\000\000?\375\377\377\377\377\277\221\377\377?\000\377\377\177\000\377\377\377\177\000\000\000\000\000\000\000\000\377\3777\000\377\377?\000\377\377\377\003\000\000\000\000\000\000\000\000\377\377\377\377\377\377\377\300\000\000\000\000\000\000\000\000\001\000\357\376\377\377?\000\000\000\000\000\377\377\377\037\377\377\377\037\000\000\000\000\377\376\377\377\037\000\000\000\377\377\377\377\377\377?\000\377\377?\000\377\377\007\000\377\377\003\000\000\000\000\000\000\000\000\000\000\000\000\000o\360\357\376\377\377?\207\000\000\000\000\377\377\377\037\377\377\377\037\000\000\000\000\377\376\377\377\177\000\000\000\377\377\377\377\377\377?\000\377\377?\000\377\377\007\000\377\377\003\000\000\000\000\000\000\000\000\000\000\000\000\000\377\377\377\377\377\377\377\377\377\001\000\000\000\000\000\000\377\377\377\377\377\377\007\000\377\377\377\377\377\377\007\000\377\377\377\377\017\000\000\000\000\000\000\000\000\000\000\000\000\000\000\000\000\000\000\000\000\000\000\000\000\000\000\000\377\377\377\377\377\377\377\377\377\001\000\000\000\000\000\000\377\377\377\377\377\377\007\000\377\377\377\377\377\377\007\000\377\377\377\377\377\000\377\003\000\000\000\000\000\000\000\000\000\000\000\000\000\000\000\000\000\000\000\000\000\000\000\000\000\000\000\000\000\000\000\000\000\000\000\000\000\000\000\000\377\377\377\377\377\003\003\000\000\000\000\000\000\000\000\000\377\377\377\037\200\000\377\377?\000\000\000\000\000\377\377\003\000\000\000\000\000\377\377\037\000\000\000\377\377\177\000\000\000\000\000\000\000\000\000\000\000\000\000\000\000\000\000\377\377\377\377\377\033\003\000\000\000\000\000\000\000\000\340\377\377\377\037\200\000\377\377\377\377\001\000\000\000\377\377?\000\000\000\000\000\377\377\037\000\000\000\377\377\177\000\370\377\377\377\377\377\377\000\000\000\000\000\000\000&\000\370\377\377\377\377\377\000\000\000\000\377\377\377\001\000\000\370\377\377\377\177\000\000\000\220\000\377\377\377\377G\000\370\377\377\377\377\377\007\000\036\000\000\024\000\000\000\000\377\377\377\377\377\377\377\377\177\000\000\000\300\377?\200\377\377\377\377\377\377\377\007\004\000\377\377\377\001\377\003\377\377\377\377\377\377\337\377\360\000\377\377\377\377O\000\377\377\377\377\377\377\377\377\037\336\377\027\000\000\000\000\377\377\373\377\377\017\000\200\001\000\000\000\000\000\000\000\177\275\377\277\377\001\377\377\377\377\377\177\000\000\000\000\340\237\371\377\377\375\355#\000\000\001\340\003\000\000\000\000\000\000\000\000\000\000\000\000\000\000\000\000\000\000\000\377\377\373\377\377\377\377\300\003\000\000\000\000\000\000\000\177\275\377\277\377\001\377\377\377\377\377\377\377\007\377\003\357\237\371\377\377\375\355\373\2379\201\340\317\037\037\000\000\000\000\000\000\000\000\000\000\000\000\000\000\000\000\000\377\377\377\377\377\377\037\000\200\007\000\200\003\000\000\000\377\377\377\377\377\377\000\000\260\000\000\000\000\000\000\000\000\000\000\000\000\000\000\000\000\000\000\000\000\000\000\000\377\377\377\377\377\177\000\000\000\000\000\017\000\000\000\000\377\377\377\377\377\377\377\377\377\007\377\303\003\000\000\000\377\377\377\377\377\377\377\377\277\000\377\003\000\000\000\000\000\000\000\000\000\000\000\000\000\000\000\000\000\000\000\000\377\377\377\377\377\377?\377\001\000\000?\000\000\000\000\377\377\377\377\377\377\000\000\020\000\000\000\000\000\000\000\377\377\377\377\377\007\000\001\000\000\000\000\000\000\000\000\377\377\377\007\000\000\000\000\177\000\000\000\000\000\000\000\000\000\000\000\000\000\000\000\000\000\000\000\000\000\000\000\377\377\377\377\377\377\377\377\021\000\377\003\000\000\000\000\377\377\377\377\377\377\377\001\377\003\000\000\000\000\000\000\377\377\377\347\377\017\377\003\177\000\000\000\000\000\000\000\000\000\000\000\000\000\000\000\000\000\000\000\000\000\000\000\377\377\377\377\377\017\000\000\000\000\000\000\000\000\000\000\000\000\000\000\377\377\377\377\377\377\377\377\000\000\000\200\177\362o\377\377\377\000\200\002\000\000\000\000\000\000\000\000\000\000\000\377\374\377\377\377\377\001\000\n\000\000\000\377\377\377\377\377\377\377\007\000\000\000\000\000\000\000\000\000\000\000\000\377\377\377\377\377\377\377\377\377\003\000\200\177\362o\377\377\377\277\371\017\000\377\003\000\000\000\000\000\000\000\000\377\374\377\377\377\377\377\374\033\000\000\000\001\370\377\377\377\377\007\004\000\000\001\360\377\377\377\377\377\003\000 \000\000\377\377\377\377\377\377\377\377\377\001\000\000\000\000\000\000\000\000\000\000\000\000\000\000\000\000\000\000\000\000\000\000\000\000\000\000\000\000\000\000\000\000\000\000\000\000\000\000\000\000\000\000\000\000\000\000\000\000\000\000\377\377\377\377\377\377\377\377\377\377\377\377\001\000\377\377\377\377\377\377\377\177\200\000\377\377\377\377\377\377\377\377\377#\000\000\377\377\377\377\377\377\377\377\377\001\000\000\000\000\000\000\000\000\000\000\000\000\000\000\000\000\000\000\000\000\000\000\000\000\000\000\000\000\000\000\000\000\000\000\000\000\000\000\000\000\000\000\000\000\000\000\000\000\000\000\000\000\000\000\000\000\000\000\000\000\000\000\357o\377\375\377\377\377\177\000\000\001\000\000\000\000\000\374\377\377\377\000\000\000\000\000\000\000\000\000\000\000\000\000\000\177\373\377\377\377\377\001\000@\000\000\000\277\375\377\377\377\003\000\001\000\000\000\000\000\000\000\000\000\000\000\000\377\375\377\377\377\377\177\377\001\000\377\003\000\000\374\377\377\377\374\377\377\376\177\000\000\000\000\000\000\000\000\000\177\373\377\377\377\377\177\264\377\000\377\003\277\375\377\377\377\177\373\001\377\003\000\000\000\000\000\000\000\000\000\000\000\000\000\000\000\000\000\000\000\000\000\000\000\000\000\000\000\000\000\000\000\000\000\000\000\000\000\000\377\377\007\000\364\377\375\377\377\377\017\000\000\000\000\000\000\000\000\000\000\000\000\000\000\000\001\000\000\000\000\000\000\000\000\000\000\000\000\000\000\000\000\000\000\000\000\000\000\000\000\000\000\000\000\000\000\000\000\000\000\000\000\000\377\377\177\000\377\377\375\377\377\377\377\307\007\000\377\003\000\000\000\000\000\000\000\000\000\000\001\000\000\000\000\000\000\000\000\000\377\377\377\377\377\377\377\377\377\377\377\377\377\177\000\000\377\377\377\377\377\377\377\377\377\377\377\377\377\377\377\377\377\377\377\377\377\377\377\377\017\000\000\000\000\000\000\000\000\000\000\000\000\000\000\000\000\000\000\000\000\000\000\000\377\377\377\377\377\377\000\000~\000\000\000\000\000\000\000\000\000\000\000\000\000\000\000\000\000\000\000\000\000\000\000\000\000\000\000\000\000\000\000\000\000\000\000\000\000\000\000\000\000\000\000\000\000\000\000\000\000\000\000\000\000\000\000\377\377\377\377\377?\377\377\177\000\000\000\000\000\000\000\000\000\000\000\000\000\000\000\000\000\000\000\000\000\000\000\377\377\377\377\377\377\000\000\377\377?\000\000\000\000\000\000\000\000\000\000\000\000\000\000\000\000\000\000\000\000\000\000\000\000\000\000\000\000\000\000\000\000\000\000\000\000\000\000\000\000\000\000\000\000\000\000\000\000\000\000\000\000\000\000\000\000\000\000\000\000\000\000\000\000\000\340\343\007\370\347\017\000\000\000<\000\000\000\000\000\000\000\000\000\000\377\377\377\377\377\377\377\377\177\000\000\000\000\000\000\000\000\000\000\000\000\000\000\000\000\000\000\000\000\000\000\000\000\000\000\000\000\000\000\000\000\000\000\000\000\000\000\000\000\000\000\000\000\000\000\000\000\000\000\000\000\000\000\000\377\377\377\177\340\007\000\000\000\000\000\000\000\000\000\000\000\000\000\000\000\000\000\000\000\000\000\000\000\000\000\000\377\377\377\377\377\377\377\001\377\377\377\177\000\000\377\377\377\377\377\377\377\377\377\177\000\000\377\377\377?\000\000\377\377\377\377\377\377\000\000\017\000\000\000\370\377\377\340\377\377\000\000\000\000\000\000\000\000\000\000\000\000\000\000\377\377\377\377\377\377\377\001\377\377\377\177\377\003\377\377\377\377\377\377\377\377\377\177\377\003\377\377\377?\037\000\377\377\377\377\377\377\177\000\017\000\377\003\370\377\377\340\377\377\000\000\000\000\000\000\000\000\000\000\000\000\000\000\000\000\000\000\000\000\000\000\377\377\377\377\377\377\377\377\000\000\000\000\000\000\000\000\000\000\000\000\000\000\000\000\377\377\377\377\377\377\377\377\377\007\001\000\000\000\000\000\000\000\370\377\000\000\000\000\000\000\000\000\013\000\000\000\000\000\000\000\000\000\000\000\377\377\377\377\377\377\377\377\000\000\000\000\000\000\000\000\000\000\000\000\000\000\000\000\377\377\377\377\377\377\377\377\377\207\377\377\377\377\377\377\377\200\377\377\000\000\000\000\000\000\000\000\033\000\003\000\377\377\377\377\377\377\377\377\377\377\377\377\377\377\377\377\377\377\377\377\377\377\377\377\377\377?\000\000\000\000\000\377\001\000\000\000\000\000\000\000\000\000\000\000\000\000\000\000\000\000\000\000\000\000\000\000\000\000\000\000\000\000\000\377\377\377\377\377\377\377\377\377\377\377\377\377\377\377\377\377\377\377\377\377\377\377\377\377\377\377\377\377\377\377\017\000\000\000\000\000\000\000\000\000\000\000\000\000\000\000\000\000\000\000\000\000\000\000\000\000\000\000\000\000\000\000\000\000\000\000\000\000\000\000\000\000\000\000\000\000\000\000\000\000\000\000\000\000\000\000\000\000\000\000\000\177o\377\177\377\377\377\377\377\377\377\377\377\377\377\377\377\007\377\037\377\001\377\003\000\000\000\000\000\000\000\000\000\000\000\000\000\000\000\000\000\000\000\000\000\000\000\000\000\000\000\000\000\000\000\000\000\000\000\000\000\000\000\000\000\000\000\000\000\000\000\000\000\000\000\000\000\000\000\000\000\000\000\000\000\000\000\000\000\000\000\000\000\000\000\000\000\000\377\003\377\377\377\377\377\377\377\377\377\377\377\377\377\007\377\037\377\001\377c\000\000\000\000\000\000\000\000\000\000\000\000\000\000\000\000\000\000\000\000\000\000\000\000\000\000\000\000\000\000\000\000\000\000\000\000\000\000\000\000\000\000\000\000\377\377\377\377\377\377\377\377\377\377\377\377\377\377\377\377\377\377\377\377\377\377\377\377\377\377\377\377\377\377\000\000\000\000\000\000\000\000\000\000\034\000\000\000\000\000\000\000\000\000\000\000\000\000\000\000\000\000\000\000\000\000\000\000\000\000\000\000\000\000\000\000\000\000\000\000\000\000\000\000\000\000\000\000\000\000\000\000\000\000\000\000\000\000\000\000\377\377\377\377\377\377\377\377\377\377\337\377\377\377\377\377\377\377\377\337d\336\377\353\357\377\377\377\377\377\377\377\277\347\337\337\377\377\377{_\374\375\377\377\377\377\377\377\377\377\377\377\377\377\377\377\377\377\377\377\377\377\377\377\377\377\377\377\377\377\377\377\377\377\377\377\377\377\377\377\377\377\377?\377\377\377\375\377\377\367\377\377\377\367\377\377\337\377\377\377\337\377\377\177\377\377\377\177\377\377\377\375\377\377\377\375\377\377\367\017\000\000\000\000\000\000\377\377\377\377\377\377\377\377\377\377\377\377\377\377\377\377\377\377\377\377?\377\377\377\375\377\377\367\377\377\377\367\377\377\337\377\377\377\337\377\377\177\377\377\377\177\377\377\377\375\377\377\377\375\377\377\367\317\377\377\377\377\377\377\377\377\377\377\377\377\177\370\377\377\377\377\377\037 \000\020\000\000\370\376\377\000\000\000\000\000\000\000\000\000\000\000\000\000\000\000\000\000\000\000\000\000\000\000\000\000\000\000\000\000\000\000\000\000\000\000\000\000\000\000\000\000\000\000\000\000\000\000\000\377\377\377\377\377\377\377?\000\000\000\000\000\000\000\000\000\000\000\000\000\000\000\000\000\000\377\377\377\377\377\037\200?\000@\000\000\000\000\000\000\000\000\000\000\000\000\000\000\000\000\000\000\000\000\000\000\177\377\377\371\333\007\377\377\377\377\377\377\377?\000\000\000\200\000\000\000\000\000\000\000\000\000\000\000\000\000\000\377\377\377\377\377\037\377?\377C\000\000\000\000\000\000\000\000\000\000\000\000\000\000\000\000\000\000\000\000\000\000\000\000\000\000\000\000\000\000\000\000\000\000\000\000\000\000\000\000\377\377\377?\000\000\377\377\377\377\377\017\000\000\000\000\000\000\000\000\000\000\000\000\000\000\000\000\000\000\000\000\000\000\000\000\000\000\000\000\000\000\000\000\000\000\000\000\000\000\000\000\000\000\000\000\000\000\000\000\000\000\000\000\377\377\377\177\000\000\377\377\377\377\377\377\377\003\000\000\000\000\000\000\000\000\000\000\000\000\000\000\000\000\000\000\000\000\000\000\000\000\000\000\000\000\000\000\000\000\000\000\000\000\000\000\000\000\000\000\000\000\000\000\000\000\000\000\000\000\000\000\000\000\000\000\377\377\377\017\000\000\000\000\000\000\000\000\000\000\000\000\000\000\000\000\000\000\000\000\000\000\000\000\000\000\000\000\000\000\000\000\000\000\000\000\000\000\000\000\000\000\000\000\000\000\000\000\000\000\000\000\000\000\000\000\000\000\000\000\377\377\377\377\377\003\000\000\000\000\000\000\000\000\000\000\000\000\000\000\000\000\000\000\000\000\000\000\000\000\000\000\000\000\000\000\000\000\377\377\377\377\377\377\377\377\377\377\377\377\377\377\377\377\377\377\377\377\377\377\377\377\037\000\000\000\000\000\000\000\377\377\377\377\377\377\377\377\017\b\000\000\000\000\000\000\000\000\000\000\000\000\000\000\000\000\000\000\000\000\000\000\377\377\377\377\377\377\377\377\377\377\377\377\377\377\377\377\377\377\377\377\377\377\377\377\037\000\177\000\000\000\000\000\377\377\377\377\377\377\377\377\377\017\377\003\000\000\000\000\000\000\000\000\000\000\000\000\000\000\000\000\000\000\000\000\357\377\377\377\226\376\367\n\204\352\226\252\226\367\367^\377\373\377\017\356\373\377\017\000\000\000\000\000\000\000\000\000\000\000\000\000\000\000\000\000\000\000\000\000\000\000\000\000\000\000\000\000\000\000\000\000\000\000\000\000\000\000\000\377\377\377\377\377\377\377\377\377\377\377\377\377\377\377\377\377\377\377\377\377\377\377\377\377\377\377\377\000\000\000\000\377\377\377\377\377\377\377\377\377\377\377\377\377\377\377\377\377\377\377\377\377\377\377\377\377\377\377\377\377\377\377\377\377\377\377\377\377\377\377\377\377\377\377\377\377\377\377\377\377\377\377\377\377\377\377\377\377\377\377\377\001\000\377\377\377\377\377?\377\377\377\377\377\377\377\377\377\377\377\377\377\377\377\377\377\377\377\377\377\377\377\377\377\377\377\377\377\377\377\377\377\377\377\377\377\377\377\377\377\377\377\377\377\377\377\377\377\377\377\377\377\377\377\377\377\377\377\377\377\377\377\377\377\377\377\377\377\007\377\377\377\377\377\377\377\377\377\377\377\377\377\377\377\377\377\377\377\377\377\377\377\377\377\377\377\377\377\377\377\377\377\377\377\377\377\377\377\377\377\377\003\000\377\377\377\377\377\377\377\377\377\377\377\377\377\377\377\377\377\377\377\377\377\377\377\377\377\377\377\377\377\377\377\377\377\377\377\377\377\377\377\377\377\377\377\377\377\377\377\377\377\377\377\377\377\377\377\377\377\377\377\377\377\377\377\377\000\000\000\000\000\000\000\000\000\000\377\377\377\377\377\377\377\377\377\377\377?\000\000\000\000\000\000\000\000\000\000\000\000\000\000\000\000\000\000\000\000\000\000\000\000\000\000\000\000\000\000\000\000\000\000\000\000\000\000\000\000\000\000\000\000\000\000\000\000\000\000\000\000\377\377\377?\000\000\000\000\000\000\000\000\000\000\000\000\000\000\000\000\000\000\000\000\000\000\000\000\000\000\000\000\000\000\000\000\000\000\000\000\000\000\000\000\000\000\000\000\000\000\000\000\000\000\000\000\000\000\000\000\000\000\000"
	.zero	32

